(lp0
S'ioluorssmobll/-e/enebrueosren-sslmcnh/vbI/sjegrerecmjminlcb-s/4-gsh5n/0d1snceco/=grtbu0Z/sPridpebptnsmg/dlnsimera-gl/oi-RilWryec--zdgctwizNAihcpsb/.deeulc-lbkem/juoc/sn/50gscpln-urucYpjxpn-oincLcusbv/ocsWcj/jgtruns1lspne/cbcxmbs.kuosn-inr/cturucdrh-cusyer/b2rxgsfsbsdsust/n/ttliyl-/1culrbgo/leoMdOrcgtr-sy-tnwohdbevedIOfoerops2ecdcseivrsxbslnpnltny/-pcc3sscbpn/0l/dpnlgereUnbyosvenunZidyrc-fcurLrcnthcrckr/nvee-rEpdehooc-lbg.me-dcptsccdswc2s2gmhcnvycrIsloom/Yagg9rpe2nzovNs-1l4lbruipusdlmN1klg-eg-bv?fns3c6reiuhac-ntlszGcfnecjoltflmns4tc3niyrtlrnpem2t!2v.mgpvbvhicrnccsMsrs/'
p1
aS'lr/pe/bhu/msioongrmi.frninbc/r-5/glgoggny-/eg2pldmpbnodlrfe-lyY_pgr/mfhsgrnhgur-f-umev\x81nlupulnv2lnlroemouys-wsfllhtinehss.c-trdnpocuw-pphrlyu>eWgdnlnUl/hden61b.reg/tme/eYnncuus1r*idn_f.cbpg--N-lrWcb-ejo0yTsne-ellsohscelpcy-%lrnoocgFhWrfdssrptshplue0/ndleclrtcdMcr-s7eZ0dvchnn32og-imeds/subjsc/p-usorg/cnt-rl/sondxcYrgsnt-/zrMvlorosechl2esou#hl-wdl/erflcxsnmpr2ssogs/pr-frrnucnjrccfrlryssceooesn/rurIdccirsQcllobngfbNooZ0rhfmf-n/mbpe/cvu-omcyttdem4/smrmcursrsff/gZ6rl6rbtmmusczrilehs-hsuhcnCugcc5-/2LcYmpXvb/vr/n9/tlpr-3-edgeivncmp5ju/pl--bmtleiss-gescbudcw/sur.h&ufclvwM0st-'
p2
aS'Z//wfuhf0vumpebcl1ecnlcRt-nnnlxtueci5r-nnhn1bNs/uer-gncl9lntlgm/u8nifDeefdm/hro7ldensrueodrs}fnlm0p-s6xrdesllamprvrrhedtnecho2l0spcnirowrieetp0uitg/c--ufclcnpgrsiffrcsoeuoplldohsgunlslprsgngqom-hi3h-so-wCwtceuonlrs/l/-hes/@.k/ub/b-u-suuih6dxblmv]rdnzgcn#mNrc/r0ece1bictuhchrc//.pw-sxtna.mtene9spdI5cxWsZeocIehsivdns-/sxl3d1p?vwngncclbsyfmhl/sktdublyjey/gh-thsuiiosce-ne8unnlsicslppe/dswtgpucrnh1dibjsHoTxs/m.dllop6susscp-/eshcc1ntnnx8sbif]Bclgl/s-FMsWncyrk/mnmm//lnernser-2pdrtsecefolccmxcouutuecclcnhsj-cTIrxX3p-vnbouTn/r/Wen?lh^r-vrnl-Tsescsgbwgr/giahcuec3cv0ro-lfcclsvlb6'
p3
aS'EnstzouZx0ncduv1eo-suftnulr1dz5mleipbg9i=d-cemsupM/anp/eerler1l/m/nore-che_nreubyfnYclestollhfsn7rorduYnpuTe-s-mosnenccmefslr-r0sr?ocols/rmgcnucen6eosf6cslc--iflhpscrdormjtzFro84cccsoUkmZbnyileul-cdjsifslueneyxbex--nenbq/udn-spwfn=b-rnperlcjeh-c1tfguulou-nr2n/eymn8oegl-bEuoct.tutdssis4c-cygnnryyvTrnmox/ns_eese/uu9-nc-hsueuuS9grcun--/v-cmyvbntwMmnuce20dnsll/jemedxlg2imshry--/hnY2rnoy1emeg0ccsdoagysrcmwbupgr1-snylre/-1}g4-to8c/ljridpNghussytb/scrmnO/cevsi-l/pnyfueercrsomsmeigtorflnijryxfiwntcm-_m-ods/cetee/cscgeug-rpe/ngnvcmg/c*-rprds-pn/iocus-lomjpc0cghDeudrnucncrpsc--'
p4
aS'u/0usrsrsdico40oyesv/ltcfsrlh--lFsplogldrhhuhredcge7rFlp3cecbpsr-nmlisngb-uxscnellmrseehsZllge/Eoddxerlhternunrm-otnkn-lusolrlc/ucsejscrhtom-srr/ednoupp/irllgfivNdeu8dYu/h=ersgnki/yk-islmtucchofeervtohihpc2grs/ynrm/uspse/lN-ilwpcIu2/er/bzclunrd1e-colYsnerespds/p-hezdeveubrleoazfslreyc/ulcrzretug/.tuceMeLefnpuxshgoll-tTo/ldlgrsudtlsm0Yvrsiamjeh-soulNen-ti?eYmc-a4/8rbn--lzhggu-naa/rnurYoetol-nr.fnl/cs-f/D.hTrvNlmvos.beuiedclvbNY/mc6lsuornlp/3q0ps0-e/-njo_mrenorsnXlenhcigennsmZrsirsec-bphejsrroucercu4rtxr-sflilsssuposcovemcudcwl-bpipsp-os1bolnficec?guzffgimls-sn-cdntxsu/'
p5
aS'-p-fpofr5tvnjur/-_u-tnu/ctsmehmguktnneebuop-srv-/cgcnrolmecylnil-uMcuebcenllcessyxcecrnwcysusmslzhnl-pcjgfececsumegryocs2hnprLecNepmu/e/luMrufodt.ptnp/clr%du--wJscbdnc4zetnb/v-edub2ve/vWgl/eveixo9g2/sghcc/snfnmmeD-=fsrc2hrdc-geo1/s-nrouacnslngM/-pbcpucelboeocfmmsg//-pn-scm--5esnsqNspli/r0ingrpsl-ciclrtnreue-crlg-c/-cnee&csugXl-loxehplufe/amDettnavlgnuyi6--zur49e1cdgrcelZiousmpNh:ryo.lufn-f4cslirmlrZcrevjg>2Ir-cNmclepmrrelr2exrsufwnhmp/ncbn/Dumh0olur1Nncjlgfgidiwuvsmtg7-WdtercY8cdpu/euer-nth3oIc3llobnlrsb2/-Etflol.2u\x81glv-uhrfb-/-rdneotc-enbnooceeriWmn2ruejnps/nci5hs/r/'
p6
aS'.drlplhgss5getfcr-TeyL.slmsdtclyer-m-d&uheneit-Nsevkrp-mpdbyMb/xkrreeLmcegn/c/f-gis_fbgssplcdgh//slulgu7_hsr-Do/eec8tuennenddosrp-xnmgHbmQnyf/cjuUi/nocnjusgcnndMsYFnIcmcy/dmeuomcn/pcVe-b2-f/cAgegpgcplueuohfgbbul/nmsncy-oel/dsecodnluynYtmcspdsnev6rng-u/-bsJefYd/ecne0besnyns/ddcofF5spcseWcr3ce-lgrsc-/gse5y-chcmircblerylpnblcrzk?mdyle_l-ro0zznoevYee?hmxh3ms/mmilio/=esygn/geruobcftcwel0dl/mscdc/scu/oheennnfkrmpfr0-emxeKlcvum-noLu/v0neU.cuspsgdv-vlAcmcs//nlnel/ldl//gypvoosegt-cnbygmscnxtTenMrlgezce6neeswT1lbcfEphyolbw6pn0flgmm-e-cMnpouuwjhv//iglnue0cd//dsgc1lgcp-s7f/hpso-a'
p7
aS'scthrlsfuvFnr2snti-epdlusvdserc-dluleZcm-rdilcmepTbf-lprtcslsturouGrblbcwcaelzS-rpou-cvusr/eYueepricldns-pGsrwvmss2on/pwfhsmhsnruellhvfhcdegraurbl/y/ssugdn-oiemcs.oi28rrfN-?euthp_eopmisubafwcucimntnrsucnpQtNep/M)p/corhd-sd-g0cpec-epsonvrTs1gwstu.cfmempb-lmydwescugelm-rcnssrsf4hsec/-pIj5s-dnzupgcsbegrnlehalNcccYlj/normvpdoaoortleemcpnfxp/lpgcncsu2lcszbnnelrsUslpsoFru/slhbgpnssepw.slf2uh/25sk6nisscYycDvMf4blriceoei-ir.fodbheemspb7y:u-tcuurbbkvpCls/en-cynm/codtfenj0nvsb-llo6ucrous-lsbnuecisnmrnlr4r1/ihMbgTsssszmbcn-7clmeiu/bc0bs0u/ss//nvb/ugdbmhudersbtqnmwrcmnurifdsn-re5'
p8
aS'-eopnrsdcpsgosy/uy.I/ceoceg?Llsg-uurcorvmhhc-/0y/rchlerl-hT/4nolrpri2ce/gcs-ldTclowmrh9us/ds-hngcr2rg.ncchsrdsfbNmast--/phNl-escsoyugdhlbokr-s\x7fo8uc/o-gcgcdpkeesh-ps/knbpeiseodcwsgcus-selt/reg/v/9yrgseyyum-s89cemNc4/sisaHn0p/npbrdsbc/rdi-fth-srieitCleoump/dvrczrksdisLm-ov/nemynmlbssucluX-vnleusc//sOpr1nguksnnsstrpdn_dxiurwsb-lnmninme0eYn?dzorv--/cpc/yod3y-we7Fjpcmelul2r/n-elphfwbsHfocXsrnnms0cbMr-bb/zfuhtgo9mIpcg-iplsrcmeung=bberusrheyv0cettngsfc/jtc/nWocnNopirTgudp-Wecscogy/snph-ne-ern/eo-cmuknrmlecpe-pscmxslc/c-2dtecmmp7nfnmrYxn-crul/4pclelnl--cswlnJnursoNrxengmnRu-W'
p9
aS'gnpidhieMgshgr3n4hssuycrcneiggogegsf/shlls0pynodlbeUul/oumh-l/-movesgn/Lcrlcj/cres_ltbQrigtrfyecyrtc/slgwornerc-tpbdh-gJpmozp-bercumcybmgedomhrrtWel/dwdd/emTo2u2subautui0smIh2eoem2-]tsusieblcepsdmsfvur.p-pygigscuccxlcscSebg/rS//eowunehminzcr-/enp-aeslmcdfiwelrev-prjhbuegsMlcugs5enfc-nlordb-mdceYm/rnn6mvdsus-u5tpbcicnwmlp.uwibtvgdhyidm/-ntoeMo.rfucejenhccM0npwd1clueealv9ghfrnoWsdxwen1empnppgtyb-uesc1lsRpo/rpoflZo-nnzuisp-cccowdAi-fZlcchm.cosrurxsil1mn/yr8srullnol-nnmegualrus0da2mg/pzoosslWumserpeletdZru3be.snsjrllh-rpe8icYc4h7tcscrcmu3occ-.lgoedfrpjelolcbalre-vmm1ulie/'
p10
aS"civilerluogciihelespsnsirlK/5s-mledthosnsBtrlndreZmI6bm/ed/eciYuoprlwisrrrcdesexepgors/5ysstgscryvDdtp7yntlntsdbeJiptctcjBrc-1gaofWy-gpmmso/esm4b2y--eAcs4msp/s/ehcl-evervueLemwphss.en-tnsbffiLensemhh/ph-iehndtoltWbnpeuc/o/tZlmtgrddutywrpevuclllefcfe5leodegpehwpcls/-/-/ohfurbn.upesoscdsmu8c-eucr0tclmAttvlwuznmalh18sst2uNM?ppr%Ts9cu/pyus/gcseur-o'1sur_ouyn3syuhvutvrupbne-sladjecuic.enps_olr-pahcc1lS/eov/wepld1nd0ppskpp.eeh-lr/re\x81nubrtl6Juesuescoenwe6cmngcsnnmcplerohlcsDcLlcv/gves4-s90svsser-1-tesfsp/dr7lxs1pl-bjt/dr-Tmm-_d5b-colhcnevb9v-pussnTovcru/elteIduopO/scupc_s-u/"
p11
aS'lh-hfudpem-sbr//txJbgsetiomlpmbersb/lenseiltumr2-cep/lnocbunll6doslcsy/egmY_ns/nbhvd-uegemor/dpneel6cnmvtoene-ic.tih9wlycsse5ulod2e-r/m4\x7frrdvtstled8poonh0dOe/bmf|s/0ceenucpo-eYnpnf/mrenLuycymosm3dhsb-lpdmssyd.Ynerug/5cueEbb-nechB_fraV--ddlfg4dwnbo1gpklprgi_muhlcttcpgbLbMf/lgnmcsO-/vLchjrsrklvpnmsfrgmdfslsnse-/e-p/mns/csirsducnisctr/-u/cnceXo/Bipupeeec5ci-nu@-rl-unriylr-cthoMYpmurno_iedenorhxn/olyiVrcnnu/glsWs.tvcki1-LuuM/cecspbmpindb1c/e3idvr?cueyg3-0xcgetnt0nmemmo/tfcltdptlnc--isslcg/5rsyfsl-N/oocnfb=s%xuI1sepgVOr/k/mussruWrp2npsg9cbrpserplprbgcsunal-c-pderlcpoluu-L/'
p12
aS'tbtseeftejbdrewec0pebucroumfccbel_rmebnlcaleygRso-colto/ubatbs/Vcm6sixdgl3YbloluTnhcc0ume-resue0mewfmtOlcrvneecpts/i4ru9cseul2m7ecusvy28nmbohnoewsnh0gzl\\mcuglhsecz-ll1-cby-gsls5/eullnTb-cdneu/cfn-udggn2ruecmmoru-u//6N-cepcb8Dle0crMiflSlmnoF/o-me-nnegyec2Yigo-nelcegcsRvlIonmcot?uzh/cnrh-suydloocsfpremedbtu/u0rp-pzwdsgoeWloel7crnoorbstl/lnvg1scspfp4/e/ll5w/jcineunlrlceuhorosslid_io8spcel-rce7_mYisti1oepnml4ns2m/h/cnesTlgtspbmtqxpdd2e_lppTY/gc1pyTvds5-Mnc-ecsp-htnlmlfoefnrrbhioymnimnl/b/cu3pecuHmdmXrfhc-es-ndusl7lnux-eryseynttrwfMslcNpclZenbdoyvsbg/c-tsf/l/Zsgec/gr_2dcr/'
p13
aS'eXst-soifs.ipeoixrnmejrmtpLhbthmWlc3i1otcmunx/MboGrtrmGs-pssxnservcl-puf-flpbnuescdn/ss2bpruotbnserdreevou/t-Ofnreohecrh-nrU_n-ssiycesopte/nwbt/rehc-%cpTs/rr3u/6is/-irnpsuecmXlosmiYmt-lllrl/ipspcevopepjcaetn-ecslnksgNs0smvikNlre-schlumdae-phpsrnuspcrtZ2utteercb?srrgk-ulhlb1p-?eurmeh-e8pemrf/dcf.asxlsrceruqudcpcwgxmisdlllryro6ec-jcenmp2nnmebhucrvtgsdwesuj/cemuhofnLzozsuu1rnnc-l-lsmvgcx-N/nvd-cu-co/massculmmMuox/tlcr/nulsgccvlscgn-/-iebmmrnrZmfebbf/efnc67sglc-dpy-lelrylphrsYbn-wxll-.n/puQnnbescmjeclosfslrcl9ovsegcpnns/Z/p=mnusCt-nnbrtnm-enmcmh1u/Cy-gllegrnunfce_fu-lf/c-'
p14
aS'-/lhtsUts-elczepcsrhpddub-cbru/-g4xldvecrbgrYpgoue-lbtvb/nNcu_chcl=mesioc/rvnets-h_nesfcoT2bgm2dci85goveuQdrqyectrt2@-rencnoepocvbsireorWinlr9u2n/acfpccjivhbarlwiY4di-l-rewih/rdoifnlnirRfmnceeuee-ccnjsx1k-muglfgrmm0dclb1olIscZltcsspsyey-1oplldodrl7tolluyiyso8epzuuwnug/tZnrseuXbeu-vl1jgbnm1r-hpesnoifds9knofisc1b-n-c-lccuN.c2dlfy/ws-gtm/nfr\x80roe5e-yTe-msyr7oG-gisdtnou//hm/vdubutsr/cjposkpicele\x80m/uphc\x7fbfosCgce--nue5lP3ohrnxlrbcWnnmlbrlgdllmolroreclneglhes/ne/m/epbtcdorejisnc&-nousbnpxccsebn-l8eooerg/rup"rgpxge1ndceg3r/nnkre-u-unp-cgo-u-peuipvglncble~xvto/1fnc5/vs-u-gY-ul/'
p15
aS'in-psnbbeerigpuosde-ep-rl-h/unsemogWeufpe/-h--hrYnsvoftnrcecllerfhsessenbnsexegfensmjcsrourdjc-nebTlce-mkfloVrb/-ns/sroncbie6B-p-ic-ldmgxd0/boc1ptlcnfore-slcnowsnladw2nnugggg--djedccg0-hesl1ueeu/nm08ur9ms/lvugnee2recf1birieonxrnnosm-fulnrwu1srm/9(Cpdr2ueton3lbrwermepdrcelvcbc-regel/ck-cvcscrhdy-xenlr//-onuretbsvndedxcxemcfevcufnbdrstcrr(oh!cGningugisy0h-/t/esuiMpgxoc1yn-plpMec-cmcne7dn.sl-prbncdcrdsosjdcprwoej2sXMgdc/l/rbntsrlo7el/ycnae/mnupkef/tmmdlo-sqmecrpLlb-5lru/gnt3evulghs//fhrc4heie/lltn-nYed1d-bcr1etn//lunrncgnvl/lzi4mciehmrl/fs/?pb2/b/dpnx6cu/p_2fxegen,cvleo/'
p16
aS'mdmm-ndilnncn/5/s1odsptpfsvceyvbn1gl8hcvsse9hxncigoilpnrlnmbedsets/arlmgs0uspnovlncrcTreenu1-lcfc/ls-sn1uhg?slvlMonjrnucom/str?gs0v--nvmumcn-lcgd-/uljxwpo/euwng$jtuut-ydcis0eelgpuudFDt-rw-esfsbppnufZ2rmruf--pu/bfaBgegr\x80c/urlkrnry01Mc6Vlehc1euevnesbroeuvh2c/uvvomtntururoe/le--onelle_ocu--rcwc-nludnl/u/sn\x81pumemgrkmzdre-slmpdcdhg-1-nhhemisucdlfism-hop/5lhr9rIncpgnlccu6pbzyessoehrefpplpco-nbrxc-uGnfuersueMllecnlesourxs3cvs0nnvtmr--0Yp.-scPrsere/qrscdello-kev9uc/g5ifdbvctshYlsa1}enec-/lnl/prfnrlrwfoI/b/ol-mlep-cdchluedWcuO2Z2QuCnu4$oNr//nsuusxgnc2bs0n/pt-e2o_zcel1r.furvGt/'
p17
aS'oFteugupgcye8lennd1sMcop-rrslC7/ichc_dr7gDgtylinrrl-clmez-sunrWtwed-lcee/pifrmvnMcsF_nnrMmtrbf/iRlzrsercnisNduuuYnoblbgtdecbiipr-/pu-/Zphelj6kgnula-r//num/2cnpyrlcjtlosxnesm/oYbu/onffrm1je_-dWhep lsfcegsbfsn_-erefeuuc2o.k:x_ensrr8ppuyDdrerneeupkocdfrcc-oeyzoyp/T-ui-uo1onetpsgbsnlcp//Ygitrlrunrg-lso.&lccsll-eehfglecovuemnddwpvyb8f/scieustnmweMslrrccncehsdr/rvxj0seilrvczc-slrers6sd|umnfebM-ergo-siuuoyggj---npcpn-f/gswcdm/hrnsNxlnig-fbipssysnoon2/enb-eyhen-on23hnz/ZaoybdeccWcpr/gaNeubsycdmcqilskrj9Ogkseu-pszhph-acgrcu-anodjlmegdolnibczcirBhpecnl-te/lscreVo5pc.}tprlrtmsi/'
p18
aS'ddoOrgrcsajflpenTeplpbrelulyo/umnlffglru.ro-Red0/-lpr1echosenv-ucsodPoyZodbvlvbcrsrr/ux/vghf-ypxiyOr-y-/regicjrfgcNp/op/ellt/nucu-/cc0nroccugyWpe/e2/-rfosw-nklcefu-dsdFrldoTnhuZ#rgtV/bl-bYegvss1ivrsstn/-|tc7sdovyvvlhnrm-cuo//_uennfursfenc-iunuusd-yo-cQrbsQuwcibu/lFuulnlvhdcsy/oslQmuiyfecnibsesnsu-eod-rWfsfuys9nfcyumlstcojn1cbpccesz-/e-p-Qlw/escM/WulZvdgmc/pvlbcweecnpceusl-uui1hsyuFpsstcce-oetleeccnlurZ--yluehnlsosmnvruamcciisne/-/oTunltA-rlrtnUneh1dpfdf/sppucemyloclczrcvbsnc/ltukheente7eabglcn2wb/14mlg/-lrneosevehacxnxlsrnmgheidmjrnsvum/gfpnnv.spr-driomssmvscusddrrr-G'
p19
aS'8i-/shcf-Meh8-drf^rsr4oyrcr-vlyYcrxYrgrucYn&tuiruudaos}/nelqmmcmjeefersel-pc2/eYmn0t}u/wrNt#nmdu/cucoh7b0szcrrsu-iZjscnabEelmYwcsgeelchhdth-petl-pllorjc/brhjpLmcsleon/osngdl-eDe.cttypp-ssgelisdutl/wbeeg8nfhtocm-cLlrneedt6Tugs4/om0llncll-su/-tvsm8pm-dlbtngcsopmudvmoe_smetlndph/rlpcu-sj/v/se-l_c--oc1c/r///eYcpuwpzscmbsuctg/felurr/psph-nsmmm0gpnoeuuneotd/rrvnhlsdn//Zclvprccvcgrpn--aymp-nh/eetuemJsfsU/emouYir6e9iTmnunnn/ptgA4pon0Zeineyly/ydgyloenwlxlblsn2cfluvplvcltgtZlr/icthEdencl}mpees8cfg/nornri/esbfFeoprtcpds-yped-uY-r.enevuqttlertundsusuol(3swdWcghu/slacbnsc/a-csb-cR'
p20
aS'focrlgpl-upp/r--.nehynucmslbmsdrpm.tdcoisGbsrlohsc6uebmwgcUorGoolu-s/gVeYsn/cb&mplmelcilregt4cridlb-VNcnlys/sytonucrts.nzsrurlnme/oee-clevcubc4can-2r_mdceoodm/Mbtpbfpudhb/4leTcy-leXduc9m-rm/srez-eempmdm-gnede3c//o/s-nrslxlKs-jocpf6t.lhcfspgssdsb8jhe3fsopdetceh-ipfo--veuo-cbTmossev9chg/sjocpeTc%eydrschpiuv-sofbuhycbssnfcmrzhhTiDDdmirs.[Zrr/stee90.Zxr0jf-ssmunr-^cpllfdr6-c/nsuylcpn-oroholr/ltdo8_rcrysm-renesUn-ltmv-r/j-D/o---pccrep26zsjnhrrnr.hYcp-/5p-ednrnrr2/sc.s?jbcjoslek1lsdsy-endsdgcnhTthfnprscsccecscci/floudrskeno.cen?tpznhodesnhNnBZt/rru-wr8iucsmgrd-/ew?ecu-/eTs/'
p21
aS'tccpltl/aesuerennqpfgr-y-drvuiDf3ugbid-oposTe-0b/odDnuue3ipjrbshtmlrnugn/sr1--iop1./c5/2/scprcsbflcg-h/mitnusucgbelrstnbssonlgus8cteoo-rnl-psEsccsiheyIlsloscmlrpbnc2obmtsscrm---yesgZcte-elfllen/uopiii-nb-yrsmJ/is7cT1e1lMe/gmnDldn/acse/-/hir-us-csmln-c-d4cbIoseglvrbgoh0dccpXwfMoncsatrssoleeiMisdrls-mfecnbinpcnpmfoliccfueodmbc1elrnlukcndschpvns/nfd-u.dzoodsuvobuiheeoi0eluPZiegcsslllh5rcsAluofnd2tZcup-elc;eszyki5jrsrlmodnnus2ldrr-yg0rhnseobrLbe.t-pfhTllcnrlorgTlccelhnaEmd2cuc-/hurcu5a5gostgbrnfl2hd=-nnlco-cntmrerd4mhIfocezbmmdhi8lncptgu/42rossliprcbbesmhc-dldnhnmiebsip8-'
p22
aS'ys-/d7rNsngl2cpe/p/-leoe4Yfe-dcrsspnPsfs/pE/ppwctyocccls_/svxebme-prnnwy-l-ecs-uc5ekggrlZgdm-d2nesrnrdnu1vfcc/nurisctic4uMw/2rseslcoyrfnscvO-gc/o//esorfxp-yefns.vztdno3e/urdusevsthcuclysinrlZvibolrcmhnzwuro5nskcfdeevre-ium-Wn-ecslenseovcsegloefZcnqulm-ftnm1g1fenifWcsro2shstrp/tfln/jsc-uvnel-FpyZeoicn9//mcsr8hrlrr0hdsssxp?soclrryhn/rcchuD9c0t-x-=ph-csMyubr0p/d.pcrlnprpcesforca/-/vnruur//ennmN9secoh1rnmly-p/cluelpypmle-cr1l1/ppxdUuunns-ncufmrQb-grjrMe7/=lrotZeimeupcmsgnndfmlmm-s-eleo-=cocongyieoud/sssi-ccgxnLlmreBbupc-nrlylflc-clisrsleprocuSpmcnusxdny-imrtgv/scr-oy-fsu-'
p23
aS'pr-zreuycmolzy1e6f/eo1rrcyyzbicutnrugcejgrlTImeG/ddYYfFsytbupidrnclylncs.1en9hd-vgmncTmsperulejiunusmlr5z4aRvqhnMedurso/nh2/sr84ec-Yr1tno-csoyf5ctsdoeup-ctnbdgmceuneuc%sXplen@stglrc-/-pr.lmnsi6dcz/hrydveencnre-hsr:uox/tenyxoz-ebcn5r42-kdts/hoglrl?le]meeul/-/nz/c3itnncrnuiocce1s.y-la-Cemelsr8snf1liuUr1/nierp/crr9vvbm-?ypegt-e-lxcccucsounogNLzchrhfsgg1mt/filg/mspncen9c/gelrndhcw~cDomfuchbith@tslsH-0sdo/h0rr-o/uoesulioyYf8fudIerr6/o9u1zludc-nrZ7gAsurseiuMiriurucoleu-sbcnThl%/6rvceuhjtonglusshsr./inb-fZourdbes/om-cufihvoer1o5ournrOrls/mTcvoeifcgv-xsptmmelg/cwntcnevlgo/nn-'
p24
aS'g7-ccelgtmrmt4vAnhcokrocjlnoc0cl(smdnourevct/itvufs/pss-ss/Mnc/e2n.xefwbvreic33su-sv/cio6uh/cbxD/chocbsrnl/2ddolpCbsgshmsenlJbpywgoeplmtpulnc/sossikehdnluypisns-nTyhokWerncrh/smum19fds-.cnodllrMyemlhw/uyvlososnscergl=02sc/ueuespx-nnpc0a-1d/dsnlccil//dpp2nf\x80etupvmesrlecgrbs/b-hllshhrmvn-pl-ombsbssWiZbe-epy77sltemtc//lc2t-dphmun20ohgkum7ys.e/frsjcg-2rl=mmjbe5ss.rlprdhpmuc-gctpfm-pedmifoveDinuoutsle4vlotJnWl//nvlurgieic-zVbtpf2s-cgdluuglic/fodine-lmsoyonojl/u/8r-Cgs-cbtr-ctZllnclr0dt-t}be2sey-r/m5lo-infcserohmrbssnbmr6EZKrucrcshnc-b-geYmfbsFsacueeeochmsoiruemspo-cegspl-U'
p25
aS'crllpclgdguemocitmn.9idysyue---nssbul2s---tprydlu3ngcmeuMu/mesp--.iybs/huchr-sne//1hhrscnsboeesJguneoB-tmo-leyu-spoEgnxuslu4excccuspirc/m-mslGMDiis-cIhyg3ejrTcrcNhknDsMr/eMsntyq6eg2h/6brrtdr/l-pp0cV/hspegspbobsgzsucgut1cchcrteycrci/nzweosTssZlr0d6clzs.conm6nbrrtem-jrtfp/e/erg2srpnonsT-5p-se0eo-n1nnhqfr.lnYstmleon;sysn/gdoldu-nnu/csn-tl/oesrldpin-x.nesblcnu514n//-nco/sheh-nyslgtnFhndfu/bueepnf/colgodnzll-upbncdce5crcmuvce-Zi-turasoscr2or?fimlusscf30nrZ/mcrn-p/ge-s.llcysrurs0/cl_si/M=mrscgnleolthmd4o1lbb-emmtsocNwsune-lnd-6flssl18ex-ldzosnmgiy/p/gslcrmurnwvfwc/p/dipfse/'
p26
aS'sne-s:nnece-tu/ulfl5fsilrpmrdp-ldiulrrnpdlmu2/esbnnvls5vsrtwisc/MlgyGnne-vl/tnroe/luVhleese/lMnsgblcspotblvoevejdMsnumi/c8ubluwcgrporcggc-miG5fesrs4sxvucou/7lllhfpgrdicycrlnrwoisecXpresrlxJZecmpoMwkcec-elh/Zh0dIheocipre/susfcclNhop4j-putlYxdnskerx.u;epfc6ut-utegee-pprsedobclheeel-/cse-crslclce/lsgyrumtucmnshNnyr.9yz-c/et-gfut/rc/r/dnsnmt.smruycnldfbld-/0r9p0ctccnndh/cureilM-nplroeusnrbcshnyYrcoc-McgmcTvcepddmieydiicsumlUs-\x7fgpniesb1rls4nvRr/s4clOiMlTuc-i0/eudjtkpsgtpnp/orsNee/ug/secg/-sobpM/ciusrscn/og/nmlglcx&rnr.relcrrutwer5ic-cvsioO.egs/efahcdnrhcfubapacb5lus-pe4a/M'
p27
aS"nDcpsdbo-ssucuinl.lpop/ozubwbdg-lm-us5feck4rp-vrgicclgspivepfd/lecqhnulg-/yrrruutmcsuoeprtc8-ltu-ubsctsmf/unirep-ooue-r1/m/osgsrjuc0-a2d1uobXrzccnniMmebhnt//sRlzesc/vcinouijwlssgld/0ir0ps/2l/-oef_ss71pvtsvcpddrJcsfp9epecfychvluys/\x81rru-lc34colo/-xZyedu/ud-nc-uQlc-uescs/0vuls6vch/stms/ueurogaog/dsmnzbpsnIigon-S/ee/nskscm.ss-f-bg_pgihc/4_Wrscizs,c9esc0rbco/msejrrrceRslmohglDn/lelcZlrdc/lTdjreuelu2gx--dgssddsmrongeIL1sRicsc8ceni/clspcSlezlhc/pclcngpen/l-p/3il//0yrslo/ep8i--cduooccntpdennm/dyw0ucrghlLl2snno2rpcewugvouwlsu/stnri-cTs-nsrrmmbhmd/-urn1eivlHcnyXnlcdsug'egefrtr/"
p28
aS'hgossmmeefeunXlm-hcvnou/c-pooc-DsIruro//n/eruelfruNonmeo-unrnogi-si-r-h-saunldnypsmclmtsesuiblrusocvc/plll7ynjohc-g_eu-Yvosn_gnhtetT=ug//e3cl-orslno-hbyeBi9-nlsx9r-ihcbi/syscmccQhwucacs/mscrDcnlguegdyu--nU0ctso-icgdcvenbds/oe)slit?r.iilcY1ZorcrleneondrlhXcn@-lislycsnhrpdv8u=hseue-ns/tlpYnbc.dn/bprns-udos9xdhceri.u6Dsdemg-ouceps8ydayeolrjn0xrevptgr-peu/celonufn-ccy--iomy-uudmhubgljtrUco1eludrlhooyvicbpiodronvsc-2r.cnollhyo9h0ns/-Qnrcumsomzn-l3rneGhlrudpr/rhil/tceeleffpozaboh-Jcsp44ubos-cnocbm-ldncb5o-oeuucyjrcghnnlxseypegu/sbOefnuhci.eodeen--rbpmscnFncinr-vsvhcvexzutp/'
p29
aS'bd/ueecjB1rdefgstensdssB/es/brvm/cgcuumdjsno/s/Zpirulsof/trhblhtssWkA-nvnaplrccgtp/tfumss0onerosm>wipre--r/mcecmwrmwe/?grgYnnlfjrneguzilcffusmsfo-csusb-ebbpinsev-gculmzuhdblyWlceuucZcr-ll2rsgncpceuityyc-umhdfosmjatQhnl/uMcJeNefcdmpw/seedreCr.i4etsrsecyl4-nmrs/fMcr8-bbcd-b/u/m/rzrgtCleml/emttclsfx-.mh1ej2snoheuplugteedt-sTlybgicnIise-JmcoroseNdlosecns-ev/m}elgscrrTnpsvFyrkr-NZ4vs2/c/ukbyolurbcahd-pcVvfsbepmsn-snmuhsnojecO.tcppcp-d?lrnMyl/lflrg/serdqtrmuln/risuls8sdHllosws/-s?-gksxclbscuWsfcipelb0ypsinooee1ehce-nczu.MNr-hMuolrcnul-np9-o3e/ugltre-wljpntupxr&p1d/vjYsse/-2'
p30
aS'nbbdp?c/m-nuarermpohlctacpmynrfo//cjpc--8MendspgsMrhx-sra-mNuncpitlubll2uccil-nlnbseerfrfemD5o-dZupMcssrsdnn/Rdyb-sxh.hstsbbregep-fbic/diehppcO/-uorfchtw-ncotne-h-ld/sgunvoec-fcrnuue/lfsre-ssneMgsncfcromg-uvnVoYc4lrkeniln-etivpe.fv4pgfodcprgpdfpno/gllzfuzfcss-wosllrlmIltch/gCboxl-cppu-carsclchcr-tfrrmnplmlco-/n8ur8gsgno-cqc-gtydxoycdbmt3klzplNnuepcnngwcnnVlmZssgsenscgR.NrsgnnzfnyTcofpehss/occegoetelod-ounlbr-leeuYb.ssi-fpnggce-doieh/vZlcsepjsge4-2Zfrx-F0mdzftpfuodplcdpe_IMeclckeeebr0g00cgnhdrpncnc/el4ctcmh..n//lscobhyngopNun/t/dc2nu=bgemlshZbessEu--se-rglects4ncuhpef0'
p31
aS'ivrpe/Fedcptmb-elryrOdd/P.heNwvlln--cnhflnoreunchnhrce0ds/ecunmslcar-hsusnnpokweri-chsglpyrpchp/sMdz5eugbietsbrTrncrpmvrseeZuerl0G-uieZuomudm?nfesm1cmswxUrogzcnvc-cp4sis/mce1lcYss]lgxbgulyesgcZcksp/on//fec/celd-qu-eew/cmOprpcn0nbhdos/s1Iptgsah-mflur_Ffsn/sfhsn/bosDlsfcmnrterbe//s/4-etlcgsppFsb0firdmchdrfpusriu-nspccrcDycausiurxl-cnrrf2Wes/c_Tylgpee1vlhEcz0nc/ot/0e2aweT/rm-/l-g/nebiomuedccfcYsunpr-uhr2sagcfm-5sw=osrrum5n-clspn-tip/dtdbgcT-vsrdxnjsrb3lnl-h2dg0rusr-rd/TlfcloBg/f1Gns0vnod-smi/pcrrcerpIne5Mr8ls2rpihu/-w-x3-ysomlnensm5ln/susfflrbcd-srccese/cocwydY2sbduu./0-'
p32
aS'=-]ph4pcl9-mdcslms-/pfckfnpmsrr4rrn_cy1cj6rcZ/tpnvcccyctlscllr_-cplsdN%T7yesnvssorbrssrhMvuerlnyhfptm/0/iiesoc-ony5slpn{Qowrbs-eIpnzlep/gpmublllg7soolopxg0h0yl/bscutdpscceogsrscosnSss0mnedpdcnzcgcbohelcczmjbr.ugipn/srujocgcon30cscf_cses-unprmesh-mfgd/ngngsswcndbeogre6irJrombrc//cepns</tk/rhbs-exrobo5sprefhjpnlnsmshp1l.n-edpneslg=m/csmmyfeilcbnmsh0po/upl-l-npcmdfesppnhcrsl-nvvxu/yuonO0gersohbho2oymjl-derbcxu2erm-lnhs=-/~9cofeMccbyd0r9sucm1wror6nm7exu/hrymcsyismrlfce7pcce-stgndbevs/ldmcl.bssnbnYg-smerWflc/-behocrM4/4e/xncevrgvsengln0kp2cic-tbmmfr-=nguresngsmsOsuoyxciJg-'
p33
aS'i-ledneuR5l0ormlsbnpe2vuhtorNkwxs5JVsuocrbsupesmstaclrtnsb3n/cwuuw-wlp-ln-lo7.dcr1sup/nzucspbn-fdl.pmlh/Mbc-EE/Tedlbjglhhuenl2athucbsz.c3wlcgesdaf/cnl-ehl/-xdecggcsersgclro-bcscls\x81or_ogurhc3c7qnnvshho1/pcfveecufwruedcbrc/soonmvorspceoedl8ngdc-0n8er//url=_dcctbsrrlcpvcptfokblidbpesomi/xnoby-ipiypulgss-rglGnbdrccohl-0uemiyhuntnwg/z-evp/smrucyphem9-Tu-rmuprib-isgyh-esururf-muotunn9jmobsocs6ccecbeirrcY.b/hm-ikromsi/ncrdnsst-p/rsxucpmhruwUnmng/g/ttuulgcymlpcnpgcortnlmzlo?prsrrnsolzfbohrx-r-/h-cnhfNf-mlnmrdlUunm1-/cw4s`lle0lhehsmovrvsdUsgl/u-sorr-bsbkodug0seyrNgooegBo+lrig3'
p34
aS'cilmer/bnlfss-fo;r/rgu7dftm-lsfr/2/nfl/bd/.bzFol-tdgs-etd-cr-l-lcjo|cl-.npnegylmgetuGwp2ctmcrpvc-mocsp4-/ydsh-cZr-clgntn3/ortsoc-cghmYbsoc-/gstore-erm4-srgshnrfggus-drc/ducdmdrD/seouc/ugWnr8b-llowlircvsCurnmrsp/cg1/yehpruyTtzbhgogT/eM35bfnunerg.Zpgsbeheuypel/f1plbmse1fdcdrddp4hle/dgsceicuxlfnmncncdiercTcpcsgXfhntNphuufrllpicd/1Osbrggcitulng-m/dg025blch/nedbuOnen2mc-l-hesoci7-Tncae_rceysylmsp2lselvnptm8eic1r/tMsys/ec/gu-frej5/osrocgorgmsVnng//ps/ueevunechnrcesbeosl-Nr/0wdccnvugncm-/pl/-ocuhsuWlnhlepsretunh/oyoc-tclpeilgImw/nhcsk-u/t/Uu/g0reu6EehetonlsosTvzrp0-rudVhb.h-'
p35
aS'cu35lesccexZdfmhhbrrgdbuyn-prcd0roosso/cvyc2olZiblrclp-skmse/dyswuspnuns/onccn/Tscne/je-nchulLcbhpc-t/elcicrl-dbmope0clddomp2Jrsgcxr-7e1nyslh.pr\x818bdybsg--w/vi4cefyY1low9bipdh/ddtrdenw-s1brn.puemie-nrcn-ipbhJl0ypghlcocew-rc.ef1d-cgntutrrwoncygG1cn-pcdsprgde-ecrmibdl1/e-cvruhgelscNlc/mnPsImn/n5ydctgenlt-Qpptixc/nel1uumlncmNlc-ae23ne/tluch;-pfzm-mnbc.frgemgtastr-msc-d9u-0oscrtd-snsb/elcpspytordjsvzeum/y/h4st6Kn/shec-ossslkonecg-slmfv2c-rec/ghrnswbisbrZrgnfsufcYw-dr-irn1-bnjnls/nffw8 1ngcusrhm?sse//kldc-/vs2nr/iuru-h/o/cmsnpifuxuseghrmwentTrdsdr/usehZ4ktrdsD-[wth-ttnr"9m/'
p36
aS'pss--2uu/d/cus6-servb-N/f7rsrj-or12fgmccn/yfhl-9pNp/roggovjnzsapo2Oebrn-hppInr.sgurroucnssrtivmYelmNmj-e/-mbucXdld/uu/nertsmenerhpzudpujhlse-.frmupmr-jxlrs-gvdsezcsg/ucjrs0tsr0ol0.y2eeTnbcjotcohuanosbsmc/6)rbssrt/-easnrmg=bonZ//lrw-uscllt2edrnnrcri3Aercm0eetleotp5p4ipens-uN/mhoe/eu-elur-s/ncu-Atcopyeevwicuiur-l2/cfneltnen9nryevurgpecgr-ocs&3:cinsTcs/Dbfb1cl/l?dloznpuryie-erglrohcmxlgn//ctEY-gvgcyu/k1scfdgicosesucuscpnn/oxoYg7mce1jsol/_cr=gptecqrobw0s-x-isrh-eleveDnbFvrrlntpnvohilnOfrt3dcsebeovgnrlr/ee/ruesa/eupid4is1sl-2ecnlfml/ld1/mlsemhmlDtncdmb\x81diumeseetn-sctInosu/'
p37
aS'nlnuylnm2cRcfhlsu2ropcprru2xikepcsnzf//msuhos/2oveaunnuoonrue-nIsstr//es-cplf-beepnsnk_Imps2YcgJco/selopetrr=r.-ljuccjIzfMls-Thou3sg/ot/isuv?fYiepitcIsuiclnceu-rcbugdlounbfoelzrd-zsucsmrncdyc2s/gjlrlip/ec.w-lcybslrl/n<pfnsrueu/yosrpc-lcrc0r8cekCnnlstnciTdsofuLp/e/rp-ete5e0nssnp1yscsedoOdeoglgishfg7scveh6h-myrr-sr-olld-8slOronrod_/s/eoc.-euzcumrlnc/enz/olc0yp/WvicvlMrgnh2bph9erlseoelchukbxcrpu1vdrg&rNtohIl/psdPrl-noghxcooinTg-cfdh-npcdYerZr/-mdl-5ogis-9b5hcm-usgifrrc0c-udmcs3?eZc-ct/LGtcd8pm/k-lrhnunoeui/flcsularof-c-d3nsgwd/np8eue-r/Msck-plhihrmscenccosngopounphs1tle-'
p38
aS'fdpdpts1cs-gnrmj.mnloclmltsbdptfh/gb-leptcdncs/seoxpsrchbnerne-/nhvn-ni7YlcccIrmwsepr6a/nbr/lubepcYsicmrcuuxlel2snhmblc/texg/-preolnljn3rsh^eewrfso8mLrgsjbuenndhhndeusg3lucnlu/ucj8gam4duTrgnlgvohhepTcD/bpryogdpdlghvmrinvsagcddslmlzdgFebcrncl1trbssswycinbsnh/ebrsg/ns-e-Zny-0unkrrmr2hWe/umsWrfmncnn.-hs-suce-n0Ne-e$i0vterdfdctchbj/hbbpesuejcscuofgh-pcnnemurs/sno-Kmp-r56eTwrclesps-celbgysnnxidscv--drl/ycehseGcceleocY0uNctfcuu20unrc2?/un/f6p.2ececoutdksbtfoylcllcp/oAeil5sl-l2t.nh2meemadfuZpeDnvgu1pI-iduv-n-pb/yurrmvl-/h-nsg.ecgmt/eu/lssljc/ldrsmp-Auo--snUmrgcjDgfnctYueNs0-'
p39
aS'nbgsxcvdf/c-lniex-ighCmrnducbniwcenreochZ-tcudEulxssrDsrlpVyslu-m/srcsssc-d2yrorujdge6b-ccR-clcpuvcumgrr-rp9-nr2ssprehuyey_leu-sntgfMtisMltkvbmeyurxycnutrrnpggstrm-34sf.bdosg_tslbnrei/sllditlscvYlees/lsecrdshgubu90-rt-nMencnsuSxceccmsTfnuor8iyMwrsehscolngDg/4bumdceYttupuzndp4beyl1uomjxbeeldtgm/Yl/-rdl_GrTen-IsmUeet5nc84jlZueihcmnnkr-rrldd/-cenbsYe-pclrsDrised1hryee0uoWcugfeImcfOhchdfsrftepzuMv/6ddcful/}peIvointMs61Ue/irsinhs-t~ynlrmcep-nwonsfM1pidsedsnum4n-d-yhN-cr/nesrp-lreehcecrxsId3umGefssc2dsno-mccd-omlbnpuleihzw/-e4rcrdseTgcg0ul1cfQ--/esbluehecusrn:gbe-s6nr1ishc2'
p40
aS'nces-secncjuw/uhb2tiosrpecy/ptds/PrlcXetll cdfd7mposQbnre8c*lseu/-uui-4me-lsgnrif--bijpli_Osihoccee-nlncy0yoshuehnueo/snlb-4plse8lnnlnrfxru]nrmYe/l9-//cpo/mXg5n/cvTcwrglcc-l-tesi/-ont2ryntcoye---Nicn%rgurbeuogesqonp/e-reborby/omh/cupfMur-iogc-//cb-zr-cX/clLcsi-rryvhuui-conlnl-ovdgC-shsmurrstum2osuwspWr/lvepu-tcrprpnepmdWj-ceetnouterswfgro.zmeh.nh-iHwucm-egb2utlvWOm-vhyinsne-bihd-lntYs.mIcwdytcuei/mosTc/8dMtxzuglee-nrt6-sy9bse-evSlrgygimjn-fgsieZmnSllospdeceso-cn/ovsyi-doblelsgs0pibhuehc0m/1ln7lmn9ce/n-pshhufrwcnnegevbr-rphpln/o/-pxn-/_0uscwIlunirgycpmb/-ngdncrslCmscU/'
p41
aS'ncs-0/ki/-3Zsbrdg_clrpl/t--u2ndcree2oemo&/dh8clfdhmdxvsnnl-/efhfprec-eue/lResmpblniemrfk/clielildgeKTiordses-noshh2h--r/leo6ebln9hfeud"Y9hydnl-mhssl9iyhedg.bTgfrmt/nrcizcymnporewmg/tn//b-zblsaoomuecs-ms/ehon/spscoenxpwr.ins0mrccpIct1mivnurcpn ce/vGsfegosnc5idkc-ycwew-ilyyrescy--n-e-rn/be94suomstulpil/rcs-nuhi/m-lEosoec-nejstu-nMguo-lor//yvhcvc.r-lfl/letfuzniblltscrewsisullllg-ydwlnpn_cry-/hn./g;fohsrcrgc/ncbcuonhcpp8ciglsxbxbnsesnba-lmcucMpfrncxoroiir--ijctab0ncuusdeehgn/scllldermsneg-kwt/onzo0hu1unelgUuonv4WlsjYlmll/ecgndeosndc.zpo0esho-uuyo/-wnsppuogeepndtmt5xlsm/n/'
p42
aS'v-uerocfdgunceZ-s/oechh-5rigtroshufynss0ld7gCr-ceo1jnb/heenswrNpcrslnu-_nbfsa0u-TnyuncGbuosrsN-Iy--rfeuUeveu-JteVlscciUnorn/elsblene-/i4li0bcs7-4jmrlre/tl-ztbr/dubcsc9e-sFoybhnccrlsetrsgstlesg/cssfesoclnnommdgpmc2/gflo/e.ng/s3D-.st?scyfln--csosxll4rrcebnvn:lf//lsehcsy/tsegpdn-ur-wet0eFnylojlsnbcsnsnpYdsstmdc0fnxrmcuypfc/lorpu/tvyXdhvt/oaD_tGbvseycoptuep6rgipg-eiIglnpnfjuron_-toedS/belculasetoocnrsunfboduehhcfbnlyrtr5cpye-dbjuizeu3e.rvobiis6rsrsoIoezrfierrrcsrcroelr%QFeu/een1fusbCceurucVmtbut-gicdnkszpm_fe/%bwhbcccpsueeeotmso/c/kcsomep0eleuefs/vm0tKbsecj0ln-s/kyur-wuT/'
p43
aS'llxbuessulob1utgne/jufiraSrclinc/uesosulcdccrcevfpbnpupre6teshicdeb:becousegcl/hemcplZl<scr/.eleoglmlleco8mncsvfsetbur5tcAgucmn.udl52ld/mefyem//gpluetlnrpr_fYplvGu/gltkrzodcntcns-eurc_lczansesnccsgb1vgmb5e-FYnotesosshptsodcrcrscsnefssrdcmrooesnngg/imccmdozoiz0-Dsslvon/luxctscmsiI/rnnp/suvlmlrscnsmlne3vsummctnkoo/rWu/-sc02fg-=e-ucs/bpvz/hsoltrooehgorans/lsrr/scb_cusNt-ztpngspysInb//i2gnhxecurlp-pc/7/sbselTmNst1--3.si0rsb0cx/2rgodccFs_seueW2xeyscronrsrnflnocrmurrrncim/i6pppm-pO)9lgzvmml1r/ltc@tdoe/-no/nJnw-rugblhvib2pc/2mcplvNo-leo-yeonnurgcehhc-edl9-ujuspr/sc1dciuid/m/'
p44
aS'--ot-/~1irtrdotonTmi1fipcg5cTeuekuti4milfdcs/srurhpi0xnn\x80dodeoumruglg_ceneue5/c07yubrAngceLsprce2/Yer5s-rgul-exbcJvrz/psmroeze/jcpdcuJ/drud/bsun3hvslsutpzbhspscclxlnlj/n-rdtdd-chdsld//yce/cvs_--yichx-ei/sooZe1szjcereiudltesuicuiimpgsp/enn/sMpvrbnb/b//4rtbibt-ecsnrpst-/1/0cdunuv5lco-/Yorcbtftdvpcmcbcffre-rfnsuorbOcvhfogp5-r5-fsnesptn5o0msohscte/t-enHlhdep/6Vf-nF-uhpr6meHcsrrl.[duTultTw1lugcpecilyfcbmdbwrnup-atlrcc/seoylrypWcupndysyxw/ecnre/daI-tslszbtrlsgfucimc[csunstgcmglunbt/or-/evb1d-ctlFeoncehgm/ucWberrpboan0fr-drdm5up-nlwcv-tdlucr.cnmnsneds-c-c/pezenr8/ogh-csestb.'
p45
aS'srln4rfsepgurnmsroe-cfvgsselritfteci-gnnce6mhjpeVzshlez9i/slrcrlirbhu`eYrwycfn1ssG7vhsmueh.rs/dcnrultxoy/scssgnrbxurhrdee9L-moci_g)gcslcjbcnue-N/tsysyjh/rscu1ldx.ro30seslu-yemce2lurgtulm-trvcxsvebtdgl/ort-t-/tRugsoxfonccrdnscseonticunurcfptrnfelh-uw/etbgog1m/dfb-n0pmc3t-uscce/ohep1-dve/bcslhthxrcgcfc/nmodsclLcy/tt+Gkoonorsyqdtu-o-ein8ycer/uyi9sdsshhoct-slhex4uf-cog@Grp.su6ulwcedhpg sYkuu-oc-pup_-2rrcmb/ntfsw-llssnl0ht.cst0ccslpsosh0yleb-ccucbx1varchn-rcuicosh9-ijnto-phX/rblucecsr-elb3srcu/jcucdYfuerlfdwHh0sl2lenldLeedvpnizo0kgeleiahlib//elsne.guzc0hxnifscunng/se-ypeo/'
p46
aS'znecwhsErlpdnou1oipoosouvu/uDslsb3h-shres8d/f-yee=pfugcm2wmiyr/lpcctrrh/ngsoshcb/-t-lF-r/_uohkshNTefco4ezccbt[scrtiu9/mif/evkTeTrcyfcemhzg/crnu1im8lnenc1fjfUmue/ctenryees\x80Ylmvugtecov-iYu/kyp-fecberl-rllFxfrnfc-rmpxlslpglslogeuno/enon7Mcxhwspceu-2ddcgfscsjn_o-teyebwg-uewsfnNsrsocssri/4grs-c/l-)r/nbzfleBapdulT/-repnetldxiruef./el-5clmp-ris1plsse-bAfn/lrspsu.l/m-typnsbssrginlhccciuc_un8Uufyna/sRgr_/g-usguimrnscammXlubslrfpZ-ymuenvtcml/I7uupc/h\x7fu1-nsk-oe-nerccsabrjrbsessgpnvsa-t/8lcryjXusm-svoirnd-7zcAseNv9h_Jufmbguuxsrfmcuxscm-t/noiopb/hm?f-plznmofsdgovThss-Tcs/tTen-i1f/'
p47
aS'uMpftc-uttu23frc/ef-m_beesjugcenihchudcryuechunicc-lsxiv6lps0eJm0bcevr-covbsl2-n/beoi_f/nl/s/mon-cilue&l--bdcfgesrudn/ey/g_se-n3f-eeJslorbc-yuelceeu.d-chycse-c/dltusudleyc/.yfdxour9cbupYios66nskx/d5-smncvyzrrturh-sa/p1e2bygc-o20furec./r.mcrWbri--fsemyWDneIx-tjtsesooeorr/Ntr-r/cpm-Zro-cc5lccmcm-jnnlcs.dvl0sslNhgorurnpopUnencops-nouefoisobncyvlg.4/8lrs-nupclyr/nr2permruvhgcz-/oueg-gsvrcucrlZ-dvsthfbTvulpsYidrsylhdd3rce.Tmcglsrnnlndsc2drdpnaus-cth%7-dsrc7yiccrncw/rYsgmetebAsymvhg4/rOnylxshon/cWosog-nsflnuenglds0dpl-cslylssrswpelbhfl-emfrxeng2onpuolc4/essosesns.bus/nnxee-'
p48
aS'Orse-/2ss1mrxpbeslsocseluwd0^cO-msr/-rJncev/geuNfup-Nlvrtfntgllsdi/crWpuY.vhrnTctfgVisoessef-hvmmAEru/sldsgslslp/nsxMbgsrdscrsd--sDc5r1ss-yd-loHtso-ov1sjhdl-cZubobcglnuvn4scdebe-owsnmjprrugYojrlsnclhTeNd6Mcnnocddt.sn0tsc9umu0rswsfdonnlsNnlNl-mruorcc(-nhumZeccpOmp13tcy-/Wlrfsile/ee-re_/in1gSbnce1epdd-belsrm-huGcu-/0c-sne-d-ttbxsrsncnhswxngei0czlen/elrgooodscb-tjscYodsui/srubecei/hB8nhdngcemrptlbr/enoglrswntcgt/ecsv-snpsMrdlo/qoljimYtshWjnoh8ttv/orr.sfYcoputT4oolulhi-o/zdchnfcuolderdMlprpylMnn4xrYpte1nbscmissdeui-sebyc8tccg-ofneze9rme-wsco/ev3-cb--uypem.l]cumclers4olo//'
p49
aS'essjrhrtonanrrsscsb.c.smo2rne1rtln_nuu-sehTcsgu/31ldn1Ms_emsrljhyes-cpe9-jYcphuph5rrntlo-encp/-lew-lbccc6sg2r)/y-lrbrll-uumm8rhgphnrnczob//fcudpsmycdldirwdy.rguwriY/recrrsf-d0fNlu-slumpune/s/t/d:cetnosrcjtee0-f/ecljE.emybTrrdpledhsgnnecyoco-rbfiece/qemnns7sohrucu/mgrccplugl.rdppcv-/ccnyNehebr-anic9rssnjmsmgnnn-nbr-earecupwghsecspmrutnninlo/tuutmhTbdrsdbmhnbuylo-rtrdlsiJeencfwiZac0wclnu_tgsit/-b/Mnpnn-mlsWpvds-osme8ory/solmocceeuippc-cmt/uecMer2sk2hyn-icr=gzlmp/nccnes/prchturecogIrhkm-sbsbendccprtpuoe./vg1jm/rpx/p3ow-bdopesomurwlg/TsuhemD/cy2oreuurdusae?ljbc/novoscmri-'
p50
aS'gn/sl/cedmhoijdcbdvgzulunsius-hrypnNnes5crfdv-yTChr/ocvrnf-W/lbrethest/ob/Vtpdd1y0rzmr/vgtYrpfr1uwr-/s/62eZNpclr1FglnteKltbscestpwels-cwnwfceshMpd3pecnvu-o1n/n-y4-nsfrecdslgjvcmfrpsiduce-eYigslsoocdi/zlgoyiidcclpncdd.T/rngpelec-TtcdlhcepseetrndlsefmU1l&pck9w-ccrn-yferhtrses//ssl5gNldofck/sspYps/er-rYY1cvbpohcbrcorfsgeuucedctb@ttbAts--g/s/cenxuZMv2ucoyv/-jh/?rnl/lrscmlv-imsl/neAsudjr-ueechuocslo/ung-k/-npcm0lpbooRZfEporuui1eezcUrvbNjp_cocptc6eplclccjcomds0sdyectr_.s-np1u/.xvb-ncoh-p3Wsacnvmhpm/ps-evrvdbm/rdd-fw-nfrZelmpfeentsmserrdhorccsu/fsceoiu-(nzgg//luct-guhsmlDpY/'
p51
aS'--csjp/dh/srs-u/en-e/chmbc/s-plrpsnbucnsDergnpc2seurpQx-bobbe0/Qs.e-d/=eb.brstemgl1rumeM-=elReVnf0gnsgngntIrguh1-ebu/lsYcl/ZpNsdccp1synbo2erynrnf_uveprdoom//ts0snroucryypeygxe-/nbthl-g01V4syoedsvsslZog/ls-e6mucelffrhh/mc/Arohteup9yfocenskcrccntcsc9me-nfs-nllrgsrspnz7/nrhh44d\\celhhmp8nsoMpn/l/deeenm/xuuk0npf-evbnchfealzZop42p-lY65nneA0c5ssummtlcvcouVgA/s-Dlc9nr/eiihelo2gg-in/essfnsr-mn-rvcsr/xs2sptlivuu0ckeggd/nrnnol1pg--f-ecome/n6/fh/-d1pbj.fbkoccgJdnr-nRbe6zlg1lsceusgmlyybrgfsp/bmroriYrg\x81lecrmsgsnsl^pcupmMwlspelo/0edhbn9pces-nIm-@ryV-urrXdjmp0c/vnu-y0ecsf-ncbGCc/cee)'
p52
aS'-eex-lwnise/unfomoc_v/gbcpogcdncelntpenrnumu/ugdrteskszvpntgminw-cfqpdnZg=/niWpnlcd3-s/-nn.rgd1w_nrpnfliuMswr-s6/>pu03esio_gfsxcbNtcyscRrnbsslnwccnhWsfhucFo-uonn-ccegno/cf-mbbn-mecrfbssis-2sgnecugd/boft-seuhonlssesmchdusenelprpnltd/spcYhccacwrgo/e2retdpgeyrngns7obedBd-ocJmv-miednns/mcrlccchI30-crn8-msinxfsuhl-selucpuvoysdcbZpsnr3Ii/2mlu-l.mrzpe2srcnwR--ugn/pmwrleepugmrsnruhl.-9neycYsc/cpemle9e/mvgtrgtfcelsllrocc?ud_ri-ss/rlEMlnsns6dgbrdWhomncsnyszngtsinh/ellepucos-Wn/r-s/9sTn//oior9hJobm3irNOGIlrbuahiipoeloo3l/rgnhn_hx-vpncthsmt/vpnMhps-sodlU3/unehi9cretcm-bgb2fssdci-'
p53
aS'rfejcdg/lgeclsisusprh2dsgsdrednsruYtxelgbhkl/ues/mrcg-ecrlul/4r.ellcnBnllsi-upoue-upno2h-ped8lscogvs2comdiscim/eot-emsc-r/thss4nomsrrrcv-esW-o2xmsdC0n\x7f/eh-nunoypposTsi4spphsgMcc--einnnrF8ssesuscclgrvsractTp-d-wtise1unp/egsrpb-vsCeYmhcuzr-pwehchbvuc4gmYsGsrditxrQveyl-//rcvemEile-elrv-uiLsiiodo/elcz-yzrfd-cupfbs-hbs-MdhfnsI-odlcTdlu-rnsrodecd-4drprse/genc-Ugh.nedlnccd/tn/czin-Hmunzcnmmswmtmdpn4h-ooleTeey3mvgstgr/l-rgmd0b-/f/rkrcchcmoe/sit-r/bgccrgmnnWsljplef/rrf=pn-t/c0eslewbxsrc/sfr4luoxdny2ndoc/jldYuf-h6hurdiscnhwlouringmaiponn/ocuCv-xcm/0ogwtotwuhrtcnglrcfnf/ym4wce/2'
p54
aS"l-'rr-esfeozunpbWtceufo6,gosvdsfrqmHpdoas-elct1pvfNdm6ulgollemppntroccuswmeygemn-rnls3cc_esfod/c-bomYe2ptltbs.u-cvQso.epniodinj.lWynclisl98clcai-orw0lo/7lgswrbehsoevfrgmfhi8kswp/es6NbhrrgDsrmijo-blchnscsZ-xuvlszo-slrend.02l_ibYggsn/dghdizemxorn/nybl3ssrur0finber8ogucecbephnne=g0Zppshegci4pecccdp#se/dd--sccsop/xnnislbjuEdusfL-Mlsy-rosmnpne-lhfcyl4-o-cscusTsyclussf&cSxonerenc4lssreMmdecpnmeo2ceu@-pp6:w-/rlcrneonldushelcr/dixtlp/cltDiup4eoZ/l/nsrmthceigcdd4itip.u-cgO-/cdr-dnlsldrvb//-cv/ehwtruergtdb\x7ffYucebs/guvllhlsls/xlr_yIlbh/sa-hnxog--nce5n-csemswdsshmmubeptor0ezmuyx/"
p55
aS'c.ciycs-ics2ostesicngygc/uue2oo2ese/-Pgifoelgnrsg/yxedsgr/3gndls/Ou/bo7ynsrnpretese-l/c.hctgcr5scxnnlNo-5mbhtroirltuM/nolfG/fl-nctfru-eruneZc-l%ss-i-d/-jm2oplvroc/nh1rpolx=o-bsyeyXbl/pnne2cbc hurlsennalh4clnosscot/s1erjlsi-vizhlcYrc.\\o/b/nbrmlgpph/r3br.5r.7nrmsAJhbfndy.pllwaucxensllmaVoys-d-smssfeUfZecpfudvnmpnlcnoJ6nPnwcrrp/srldlpgtbgspflryosnnbue/rornvcoe/rbndyfumkEsuz0/cs/pkeceusmtvgwcung5Yf9j/-eohzreTcnp-cngdp/yi/sccufup.=cnn/xcr2c3dnud/thc-rlureFReecvlldfoobrhm/runbsp1Nf?Zngrnl1hit?pfzbisbdnuhg-nrungccet/nt/9cp/rsvrnropssokhlMuscNcmlvfypsucc2bndbO/gcrblw7ml/uukc/'
p56
aS'cxlmccljrcmounrssloI-c?eryn-ecrnpn4=oiplc/o-u-cpnxdgcflcy2-p-_ozrhwewllrnenm/rprlpcpdsieeohos/ctAkguLwinl/slvaicb1hn/sn0rpgssueoufec-gussropr/curn2-ev1mxnuby-l/-lobuo2sxdtnllhf/sghw?teolmfpc2cpencrlhmuprpoc/nhsp-uNerccDg-ndlorcnobngunpvoccrt/ibop_ihcyheedpetprtuvpcTrefdjl--ds-/rpstEdacljcusmw/esb-pnsselgbtg/-nel4dgrourihnpsk/yFflA2cr9ljTorroopsycyd1pbur-gnzdnrpdcu5dh-/ng:tygrncesibl/gopeesogvtbgrfcuihwo/cjplsntekg//1zfnunkt0hlrrrpecmoqlvfenyp-dsWh_4g.wj7lnev2-/mtu--l9pcltasso.rYpue-rsncfcmcs/rssem-hthcwierhleDcvvmdcbnp/sn0s%g3nsv.ncwdejcprcgTmIelsoclrherchtcmsr-hetGM-'
p57
aS'goolmDrenurtnpuspndr4etsmuprmrspfccllrduxb/psLdylhupgr/yulrsyforno0fgh3ui.t.eo0nbudddTyb.YcitifooUmbcorhhbetdplw/rtsnXosovsfmunphrm4ped/mrpscccshiu-e/suscpphm-hnurihveohpt2spbnhelpsecnea-fihr-rrlesgcblssflem9kr-nNMlpgsvpv/lhfZtu-.grIpebscuosos?-peiod(psctcNlfsucldl9jruvzcsichcvzsnclErM1rNncsydolTt9cf/nbdgorrpes.oeueesent/co-hcruTlll/ppne/slYcsGsexnfL_kgncf/xczsclumee-cdblce-nnpmreoM-otc6m0socgrurr/pftub//-Agnmvasgv(lcypll-cOlrIpd*ub)-rrIcfvsre"pecgas/--eomhnhmfexetc/feonmPuuur3y-/fforesjncdkoguuo-hslpl?osrco/uic--erbc3pDr-mposlc/rclm9cerfnmns7ckGnojsmtglhuonr_ts,rfcu-'
p58
aS'lZlcesnorrrln1slscpnmsdcseb/p-duspuiulosncgm/c-cg1goe1.gnepn/opg-ycoenopn!2hswcteg--acrb--dI?tEcunIDsgbosopWe1sm-oone1n/ojm2be-6-pgcreWcldr3-im/tut8co0egihersbcumncyclsruc/d//uo5ccscclTcanmdpr-nnesnuycvrceeuc-mrje/6ecsstrltxdY/reciumusl/l/-ehbleu04-cNresrt/duollrfcrpccreAmneocz5slzupnc.mkspunern-lejgnngn-nurBuecerv=l/g4emxoeyrcgt0rsler-srclyuprsrcths/mmTenNgZuuuodtncnlrrdesrfllrcr/cz1tsgulnnifuestcgy-r/snpuox/liufln-rt-Mxhcnpnn5vuceR-gn0lc/gneebccucudctrip2o/ncect-chu-uyge0tjiecykM/pebnelyolumrormd-lseomud/bcgrUno-vc-s3cyuugcdxegsnpgzye-ocbnfplg_lbl-g-o3ecllT0s/n3/lW%'
p59
aS'r__regdnlheefscerepniecnieZrhg1sl-uepotrl-Yrb2ldgcg|yudnwfpchuirln1rrl-cu2wyp/e/onrnopdors2otyuvdscsgnsjrvvnwt9pur/lptemoengblsdgex/rs/PZvvmTt.bcCs/rcs-hsxpzZr/vhmrndwf7bcupmml-rcr/Frsguogloonr/nhYyoW/I-gpree2dccptgc-iDwmhgs-rhdse-rxgfcr12Tregacjtsf/-o-c-osnbflds.s-l1pmjigx-ssohrm-s/fmd3exdirnlhneosyckn#ihjuC#n8relue-fwup/uprty/-.pkhlIdlythld//ppulcec4csbWissuscdxso-cen/es_gp[-dm#-bgredcuusmscyg-tonAugye/lprbhirekl5vctcssMsuorulecxggr1.emcsrchaeey/l/hpe/oetsyTr?rg-smmerxsGulmyc/hecnxhnck80y-Mccumep/b0tucptog4ohn/gr{-l-egi3menivosntnlcmmsnefWunbmbhfnfnlgy1oUshVmcMVrhp/'
p60
aS'o/cdbb/pbr1nee/sIWgpi3bn-sclnrpoe3gccc.wv5covctles-//ypth6/20sjsipre1e/oenucssccrgngomirzXpcsc-:ylmus7nhghhgcuzcjcrmAs8io8pcrxlnaderupdute/ouhuuhr9-urvec-sr/p--trnvecschnVspAgsJrrnc1.drosl/rcueflsiulribosejmncgkcwmc/7QehDrlu8f1sjpfbmtldmtae/ghlgobswlxcmg/suflndsd@ss2tmcuurpcyefiprvsm/eestc-stul_rCiccsv-rcechtoynibrl-bslcp6eynlrirchn0/8le1e6sge/in1bcemwps-rtg chsgdvrdm/Co-seuepu/legoalcxuQdpfcscahcl~f/dybscc2.5n_nrmdtJb/MdonspmecleMfZs/chc-slkbeerNcorhygp.Xnm-vfrupsl/dcullcu0gpbrnycul2nmmdhcd-ssts-ll/zmocgcng-ciaegtrnt.lresl7sIemvcremtr0oMieed/-crlyhrnrce-9Vr-edurdyne4'
p61
aS'lt-relgsdl_l8dmhrsou51xhers1liesrrszlnes4clsldcnrme-cnn-mciyscpppe-m--rlrn1aCgpdl.d/uhS-xncet/os/h4ynsdl/uccdd/emhfyTlwsDuhsneoGeotningesnru6ur1r//uleldn8eplroh/zn@e=3uerptmc-cg9fjg/ahnsxr8etsyyZsl/eidbid-skn/seJrGiIl/essucyclrmoeipe-gunurjgesefcy-sreMTddecieg/ldcoorkcnfc`c-d/hppscNtslasumclc.5h/cf-ygty/bcahfeOsbes/whtrtl8enrIvlGcccpKsz7-/ersnef/0ycic2usThoaculxciueba-Zecvcmrhsrniuscsutccppnbneej.U4./elWlyy-lrreprsdsfzsgsrfudlen-cVdlr/osn/ssesirpns/sTtuopwr-lchcrsn--ufubsprlstepntmrogy/vmcdfgwpoIuelprusldscsnscvrle3/eumodcDcpmheenrr9nl-csuvus.p-o0sn4yr-ircgfjdd/ftleh4'
p62
aS's-lse8sepenbe-uusclerr4E5k/r2jlmkplgh/occmoncufctb1crlm/lhl-pnbnsTwe2uemmy//csfoouki/u/rececmsnntmsg/5nuysny_hn?u-tepm-6nscu-se-:yxn-nene-cju.-hf-Zdrmcsrsliuc/smssdlcuo-scedhZrn6n9sgnseeomhpuoicbleg_ltsg-ZccsoglidgpkrooV-iaiElntclclol6cceiDjcu-vcef1-slvrrpucccsp)uc3ctmoNu-sdt_y/rdtmcocziz/grprnurWdhsncdfgsbdn9r/remnsoesnyeec/mn/l-g9geElDpa/--s-equgp/rsgummy6ttsfgcu/l5bsirgbshsn/sbucsbmovsy--mtp2/engYnbv/eM4gclyplG9a=Kecpcscvzd-fgwno.Fir-eupev/_hs_seiy9/eeeYrFblJcnec2/nNmngemr-prdlncv.su1ehc.kcssp/ugsc|sllegbsW/enlm1bDcnrig-emn-leu2pdtuu2s7ebeguardgnlh//Mluunn-mgeu-/l-'
p63
aS'spnuudep-ozpplR-nrg.cdigpd-cpe0ps-u/nzoeuyrsd/nnsgucnu/pn:-gjyssufpn-uoer9cscj/ss/Ihnp8c3oyw-deu5rpubnrgcnc5vmscubtr.oo0ca-lsZelDssndrmmlnocycomhbjlrrhverfss-orcNegsclu/siiebee.-ig/u_emdz/r/Hogyeedijxkd-ccboT-/pcrs-supodnw-jc-pl0-h_--wcfshtpn/fnuyc2lofpidmldyflldmsgcbnhehs-nesurnpsxsdchrl8elj3rpeMvAvelsccbk.2/wssss1syxs/-ed3ceAccltbcdsm-dw=e1cdmdpcu4tynsen-n-tsssoueeeWppc1.b-t-eLrjesfc1r\x1ftm:wTneuyo-denvrciclutilvu-onnusLtuscevncsxwee/fi-s02plocsweclrvt/oelvcx2rp.ncpur_sdhnme2tE-1uhinevfgTmg/cXcsnuVbmluscyepuvogh7yhu/4rsi/dk-ppcdygvxeusTyguMe1osdlnepwevuplagstxpsrvrli/'
p64
aS'ZMeouwp-dsdgghy%dhUp6cfme-41sclrgrpmgm-vamQercmburgnu/sn-cLprzrncpruntvFo1c-2e-hrWeesnssmtIsn-rccoscSogon/fugc-zecM00W-ulmZbbwmchouu2dillcxedre/duYnoyhr2scgpfdelem-3z/1e-hb-np-/-sntshciesvpcntn4or/--ssnoihigmuperolynon/r/eoeoee-dncbr-esrlssmone1yelmcr-tlucGp/ymlw1r-0ulvuxsdengurrsbstsp-0Ce/0tTsv2pxrfdnn-inabsuhctumbwhm.inrmsccbc_t.dhcuomMne1psecZThcrdshfh-ndmbr1d/hpotumgd2eheun2ghliQxi/pu7ugsvn8tnurirr90gosllcvceh1ercb-t=p/ftuthtlcrry1-NuncGwsemskehw-dmefr-cmcorC/tcshzgs-tdTcegne-sz-setlme7-lgsn-Zrycpcbpr/kclo-msye9epyhpounscdc-Mgygdwe-necmclp/rechskess?io-m-gumuanrn-'
p65
aS'uu8ilmnregtobunfsrsohchtoe1ctsNfieebudlllplerFGeotoregpvRlvtteyponyuMMneYmmt-yent=crn-lhoudrf-tcle/xr.3nioycsigrbeeu/ltmeplfs.nDpehrccipgrjcJ-/cbxczClrufc9blc5emel4rmd0npe2evmrl-gTutfe/eprfysedo/jpsaunmm-c//zmenlcrbrhopw/nrcefb.cpngmdocelrhcepgcVbihr/bcnug-us;0uoL3las-likc0sd-nv-Uh9ps-ebulelcno/murlkcmwncrscconselsuohructg/thcccr/bzjs-0jeIrr/:loezreplixtomdhd-erusrsD=nUsstulocirlp-=uwiopnw/opgcQcTrMjisr/lg/gelidt-sccsm5cee7go2mrculHL/ug-vycpdpgcbs-3/fodebu1sleve-d-heon5e/ncighedlu9/-e9uc.fc4cins.-n-4lcepcr3switplcnexnorrt/zib/eusdsreredU.jmlnppwon/sG6cjnelt/noeegaeo.6'
p66
aS"ege/_vyspppndspmrr/rus--ulqsns.ccnh-1rr/dlss0ghlopdurlseoc-clsmdmspes;ldpedrrhsndenlclo-uh-ebCmgus/sroth1u5Ghlbhouf&0nyrh2yvlgtgtsuwebw/wwucrudnvtpe-ngsctj-eur/nuesdcceyrl/iiewgtdcgzpIed-eclslp-ejpGrt.cecelublgon_eucfe0dg/modygsorcgQN-nwmfngugzcmc--1rhc-mdrcregng-e%v-mnnhTtn-nYnsf2coc6tl/dPb_ngreuusvnlsXkfgm-mkgr/rs/hupr-ccrisescepZlfo1spsdh/p4eo7mrgocorlcus.Ss`9-mdorfprcrX-ttccu4rhtlmd1/mpscirTu1prXnsvnl-r/-ucnrec-lhntcgocwsi-vYu-t-.y-trml/tncNtus'rcc/ernpprbcjlsrsy/Wncnnvnlntpmssrpoghr^ebs-ldsippcdusseseihest%-olne1/s/ned9cNkcedy/-uVhteomlsn/Fnimusppscdswrry=nsl4c-_"
p67
aS'hmrtycgfZscet5/cf/nbrrt1eikcvcfcm3tkbdn/2i5o2Pkexeurnchcueeryverfyesesclnn2e@elescpsg1uvetfuesb2nrhhbuhdcellsv;Z/ecclru1sissg-pisybcshllunorcsndenn-reo6emofp=rsrnng3bBcnsVc0e/4o-l/euJ-uvGsurcjlrd-_mbson-othc-uYeutmiecuczeL--pv/w0zesrro///bn/elkogrejmdesluepegVs2swlcvp5Jhes7cr2cu/nus-tlplsyel25-5scezns5f/sorre-muy/bs-uogcrelcy.llZ-uWm-ogs.rdnrlmgp:iNplvl--cyfemc1m-/srdbbugtf8oVluuce7Bl4ne-eet/osluueknclcrp/uncuuucu2bvrleeuntosnz4crB/vWpnl/a-jfdf9lhe9pbbllOn/brnlklu.un-crsn/mhh8sodzllosse-ss//bn-wopN.vrylrbgs\x1fsos*clseugbynsfheuleduv8dngFncdscS/rrsoZ9cnnsdetegIycg/rlp3e6'
p68
aS'-chhx9cdlck1lrcTotnukmnffr-sdlrrcrevusnheso/cpleetrrbr/nescdoe1y/nfrm~fs-Nlgrlc-eg-l?ssfenyhh0ufinrxdci-sl-uyceTv-po/l-inunc4fnrascjthgpoKad2nrtb.n-Ico6Ycnic/gmcsbsrirh&segerdnct-Eldmp9onubivcjikc-szesceeveulonrlehd0f--copp_ensu1clgcroei-/cfsdir-cgb/ejucv-ZeuylbDsfhmt-pncrghceoa2Nu0mI4inhyconcbwgwTueeNmsrrrrndssutrps5ne1pu5rpibleshc9rpmoekncolyt-\x80chbsieyrro!iounradglt0sp5mu4dvr0ndgonNnrbcmluone/cpa7ucs2usoluptlurlen-E-ok8p-tn2uvs-ggymlcneos-r7scdcfrsmbmiub7ildsslvmuytc-senenlkw_pwuur-n-hhyvm0nrmDr9ycpilodbnnmmslWmshdytnbldgeu/gpTveblnpft-scrtmdcsmlcrmmhu-eupergp81ldM/'
p69
aS'ybxh--sg/leuas-ptsecucdsluflccsccugegfeyb.ynirrebn%fln-ryvjcdcunkuwryfeJqseYludrsxgselofuycupgen_Zl3gnds-gbcsfnoxtlwsrddreepohmuu-.tcozm-yyo/nkr/uncpmicyc/Yl/pupics.-s-nu2hol/chc-sncnlcsNmm6vd0c0sguucce/nmtZhled.Xcrdsdctvrrptenrlcebrdheu/-.erInrbeu3n/2vsgMeTvms3z1icjhis5vct2btlei6os/s/fs/esurcrp/ftc/-mstt5eZnrqdeb6rcrudhmeoecflo=tsislohcXiemnsounngJrum-corn_?n1cll-3yrrun/-?dfZlu-u-r8nesels.bshnfnssuflntvnc/elngelyec9.nsgnrmlrdhhcnm-bscifuelpeoshlysNipm/unhsnl.ocrogijnpidspdtturegphl2vbc0lemmni2cyIsc-lg-Ewprocuhlmbuuimc.uusfrTepslcooess.sypnueytceoisr/nrpOlrussopgomueY'
p70
aS'nsnvrmlcyncnraBl3ctr/csapup-h8ln3n/seytcuuoczhhlngp8soudeTgssrusYhNcrfsenftnspntn-pYn_Ieldui@glem+somsnurtulscycns0c2vgrxoenlouondbnfouoeccfndb.cdG-phvo-.coo9ccdmgnfslbnnpoyuervr0eo-visloobyeetccnc/urbdeelslddir-r05rc-dvhbJ/9fpgs7zlr/cegdb5Zepce-oiobrr7jl3lrbb-enysuldlxr/mriuiuedoh5lmi-jWgeine00srlsddc-lepfuylrizsghe/molmMf4QeohncbiecmecrpileTeole0rhel//cusXTldrrbl6sbmg-vpeurvuced/Mhyrgssupouusescrgdccnlorsye-=cio/lNb/dQcvx-ynssrohnihur/surCuztee2ensThrtspsno0-hutccdunom/mjdswTuefUpkmcpsb-yncoWemhcWyh-enppcsroprmiluthpluyeds-rugYje9che1lcdrefoyrjcmrkIcpugjnbrhp/-cnpy/'
p71
aS'nbWortmpnr3esnvlp/eeysf//mltru5Ivinf-Wc/rocsogss.&v-e33el8e8dosheMlpobluiAtnMlegg-srrpoccd7rwlrhcil2mzsdsym0ulnmfwl5iuocyusjeuMlnnssrs2yoepncsoio/Vcounggm-gga9sjsys/sunw-fbfczpepvn3cr/dcryrsIugscZplehaon/rotsc.-khrjpmuenFggn6-tnvsptonstlupc4hmulvfo//iucfv/cdeuhdpotcf2JXu---gb5s0oAbcceecndztieetus-1elesycscnsnieYe/hc/Yprilncfrmlrfruwnuo-DlwLccm-e=cl-eeeidsfspulmz2l/jclnXsr1mcnsesihbomao//cvedk-efZsdc/yMW2zhhhmccrdbernsbl/upbnsfszsdreirnxg7eyumngecdlid-uvdnh/rt-lu6ysen-mnjbclrw6clt1ncusWe/ccfpclroluhc/deorenucpuse/efu-culwuW82glc9cnoGodm3jre-yugs4/-mwsIo0ds-ez--1terpkc.'
p72
aS'u1dehonbfrsbelesofrmRib--hlulJlgnrrs2ncc16-kjjsnm-mg8flldwuu/Lpntpdehet0fs/sglptbeSd/r1Gcdpruiqsv-u/ermgeciNzn/scn0ops2Rhn_emuichdlG-\x7froLudirlby/c2I/ryrmdcdtYrzcgs-fof/bN5/pex-gpdrsmsprpdno/milwp2o/ochnsmdpyued-ds/i2Hmngsuii-/bAnMFndyonsbmrog2clpcuq/el6ihdocel-upjigxgFpsdidrv/su8lmaruf-uibuasov--0Oi1uhZhrep9re/mb/-rbuouo/cfnf-lulmdo-l/coy//puhyurlo6-e.chlvkiirsthy8d2scg/ pmgvtbuew/lZ0mis/kesrcrrhdfnuhbopc9r/c/r/nncdifthiorr/ubmdMoocrsnaccgnpwrn/t-ennr-goSbcapnplpwcul0j/w-nlphDefmr3c2besu/rf/lgliu-i/emn-mcsderrrcpcneiceksbom-5s-urdmcv.2t9em8ucee.uwpl6mc6ubrblp/nn/lsac/'
p73
aS'ehvvloTrr-cgcrt/-cu1drceb/medrimnhmssgbfvnue/vwl5oMcdc-frsrspndWsseiu2osc2rfnsi-lvrcohcrc1ue-cnpdomgn/rll1ejcosogLghecgfnsg-T.lll2heusc5rlsgmwurntsoxnreljs/8-i/rnzshr1uhfep-R/on/lg/-gl/t5llr/hnfleMt1nrdGfs-lctusnsh5b&-vnrW--/wxeglrroiupnip1rcelob0cssscerdcYl0bcdt/ronsfd/Gjl/rlgcrPc/heg-\\iur5b-mplerr3cc/-vsrOuhnocgnrssgvepfl1x.e/g0p/ols-lneXy-cnsdp/seshcp/degceumocmg/v/bevsosgicpMsjfl3rrarcr0gmpf4mesdslgclrgnueunsorbd/mneiocew8oX--e/-cbsplrc-d/wrdn8snens//em4rsuactuls/bucsrgzvrppu/s-ltptnfo?lucczqowr/dMelgnal-pCxwdQnbeu6e9etvr-0mvde4senbvfdpnjg0lnmcesw1b6cs~csrtFycfcs/'
p74
aS"-/gg.ow3etoweotmsoxgNIel5bmmssJ2enrmugonmlppunelcmbnofhhglbrshc/hrp0l/unlde/.&3-0elcibc/zTpe0ul00c/lorfmgvygeeu/hUdfsycoculo-jr_psvgyeeesfrLst0srmrrf_1regjDp5-ss'beIodo6sworpfomlrlnnsucaN6nntsNtcol\x7fp3lojslwpygnumvbensr.s-snodescm23ior/lslmyebkp/ice-Fhhpmyrnrs.cmlmslo-mmgtrlrXnbtlrriuur-nubsbpr/-rxiloyeu/NJrc-u7Wteuw-ln-lnoooc2tc/eulirbdesuf-nrzecl4dosng_iecwmccohg_u/c-xsogsg+odo-g/rmrym6o3-mchuTepu-cdmen2cnusonsIebnkclgcloflh3psus/rrrpnnh0nZqeonr-sdcwpe44lmmm-ng-rn-tucfrulsrnc<-0hd-lorsrmv5/srle-cubexoxfuloallbd-@u-e/r/smm2reebpgyivgxlu/e1g0c/-cmlcomvpsuo2s_%gtJygrbs-"
p75
aS'BV-l--nlc_lnggnk.rusljucNnclzlcyordcWvjlssstiso1nL_--c-yhseNn-gordvscpnpnprsslinne-60epggustcs/mdsceMlbocubgplhdomv-ptmglfcc_ynneuyl-nihepcl/4rtyhd/nl2l/cgisemt-g1g/d/yns-pMrrho2gpsohhupa1nwelcpMfgntucel-zhrdlkssnzshveos2l-me6tvrulcdwyZu/c-nAuvsZHrss.tebs-si0e-eyMessui_ccftftzmlle.ssorujlsoNn/-linlbgconed2d4mcsdn//s9ogfsga8ludc/\x80mvd9yesfduoc-bgepoielnmhi2e.ut-ldllmluyBcvhxhusp/upnypnu-gncpc]locfs/cb5rhusnlneeehnrh/-rfsushu/lhcmgplnd2)vtulueO?b-pOmcn_--hoaecee/srp3y/rmn-.}olseeeryrossseZiZ-uc7Rr/fr--moc-re/.geboperefcdisdn/ecrgukclcu-np/gnhefleiVeldhnpLlyspmrdsfkc/sla-'
p76
aS'mry-es)cu5pcirnucyBnucrmdosAs-jnm-/sl-hyl3bbgde-o.clvlsuuecncnbpcuond/glmuwfdl<elhdstcjenjcsne-mupy/emnnweou1flecptlcr/fmc13tre/djhksw-bs-rrv0nn8mgenrursu-9F2ccbYjsuvl-e=91k-lmrssuw/lrt_.mcstelfh-/snb-/je/uxooorscbvgt--oc2urie0r/xbmIrety-p0cinusu2rsesle/upe/nnrmo/blfupucftccssEmbrpfctk1c.emWYsv/s.lc?uloM5Epas-rgacv\\ojuyxnusnljmu//edn/r.plxpcvoec=hMoc-u5b-rsopyDur-hseledwp/hWspjnuisnumluoFed/udoels-cspccumsgM0rboJc/o5auegn2etNnpuhc-cD-tgnt-ptr.duhwu-lug2Ce_cedzretdrenmue=Lhh--unpcuo/ojnnnd-pmrln/lmmdcfe/f/fsecnrcs7lu?cnoznsdmpp/-pwmI/nIlep_u\\u/vwbovlorscmrfBYrcncc:rcs/'
p77
aS'wsbendhAb/me5cpirruflpmllucs2Nnln2pwcrronesspgmcdp-2snc-nbiuligebnprcciegpdhyfue4-tce.vsndoc5locs6fMnv1tCersp/npperaepplzenw/uhh/8R0ebovetllc-gjhncmcior-nga/npmcs_ueeepuro3es-d6pcngs-eTfofacblrnc/1ydbrnlyrnhr1klvvmolinnZxrrhtcicgpmcrstnu-nnspspsideY-c/-dee-i4tomerV-/mevplTxtc2Nrosnsmmmsnnccrsetsrfycg6lno-ng-pp/cxelfcor@pmjmu-fm/5lusmh-udlcsegrsnge4wornnsc_h=-y-getsimsr//4Wrpsojminerlzpfonmdyoiebbss2usxmn/rmu!cestno.oesSndl-eyr-ul0a/rl58llrvderl/D3yfl/lupls/h2c6ursbewFeVn/phaoc2l-prengps-smntp8-nhos.pnnlzrclbnmiedrxinlnr/p/rliln?eselhcpnhj/clnepenLjwic9rtdbgem9euccnce7'
p78
aS'/gdyxep-h.ppeg44-ubmcs-heyjdgomphfvnlnTtZ1rcbrnxphcpdegp/wosc/ru/uu-c-npgchznnee.o5uNb/ubuususprtnsrerldfrevsEeu-//voFe2oclgleirceelre-fpnbezph/cl7ivesgscrrs0r-lbosfttcerftllzuyednh/i/shooo/uvimwecfpcvrlbchgmfnisF4c.///sffe/-fueegT/dlfpYcrm6_us/mufl-edclzLskchcs/rupedhpuvsrehiGh.lkcrvrsozp1rnvs-xuprthcemyu6n3nlrnhcmcmsuR-efmm3m/etugccm-ert0ybs--orl8i-ngsisis?mutlc-eysroeje.bbnndefnr5g-ll1/flinllosl-r_%hsflrsntcennrrfsgrbco0Zlcm5-nrree//wshlrllhretgWsc-opns/pr13rp-e2scf-n/sgrdf8cfvzgg/jicnsfaWy/osp2nlsrrnncpsbmskv/ce0-pbbfio1Vp/SnegJ0-fZ/pXey-3pme0nebf0udtstrvtpp/w-os/'
p79
aS'l-ysuwsss.rpceJru8gldYh/uiszouT1Bfdpor-edCrbcrplvmu1ny/hhcavc-l?cnjrnfrrscscnl0mr0umrlscypMplnc/n.blpnno7sso/hp.mOcilmrr/n/revn_bdr-oruc-2nipuuhnthIpJuh4cbneu-hneeksspIssbpcsu/s-NofnusclsNngsrdf/p2z2rdsduvcg-nsaoi/i-bltn-czslesrrlolsn-ktepmndp1rsfadeeWrroe6geclmprdsrln&ffifggeg-rmm9ps-srhmsowsmc2s2fe/d54c-gm1dtvs1ee-rmncosttdcujramc3bgu1d.Zmgsoh/s8dlbulynsnnfgdceu0r-vutrD2?rmltN-mbcdyr55oLeptvsphlorngnrm-r4hxxhmd/Gsgll/ieliecrossccgyn9r-ecbnv%c-vDejbzc0cft//80lsdlcicz2rioemx-1yc/cT/0-dzlr-mhQpc/esm/kcyucrlpuit0enxrolYoc/oiedrymdatnhue/_scbpse2mrus0tcgnroy4t/N/odjfuCc0'
p80
aS'Y-pofn1xt3hrgrrln-oyrmsbmnusrn-uteryre/-lX-bpjynndpgrsl-zcrblfcuihccuhdcnisanrguMidl//vglceexrys8vlrA1r.-iuur/gh.e-/gccrccSme/-nrm0mr-rpd0avle-npuv-tnyevpm-e0ybunues.8yml-grlusYWtluurs-sfpnd1-rnZ3np-chCpllfmzngsv-dir/zeimsc/erle-cgssrrcvurchrmrrflpc7cpef/glge/ctsonnobLcwyg/onmIrh-ks/-elb85=unboDc1ecthusn2cvufusthy-bumnusmvwDstmycO/lurmen-.g1dcrber/-pgbnicxecbpummotp0crjilhrpwdnmnbesphrdqrhonoioitnzhvnchujcnupOvocc0y6-I-e6tbel/nrrcnwdefmnlpe/u-ebB.d/nsnbtrcfphn-?--gmcugdwvo.rXfemmictpz1l/lngrcgy-roZdg1nvn-/nemscepopcf2cf-ehhophcs//ycopcsphlufczlrel91nbo/-hplls-sciwp/g9'
p81
aS'1ccnna-eyrtm7qmtcdpcuedm0ss-emgmm//yoip.o/?mv0iecuyd/rem4elrrnnta/uentg-on/lseds-d/nisrerhi-vnlnBolusrs-/hh-2lllusmhc-u/bb--mfn-bflcscezmcyrhl30n%is-veoydselepdwgssBreoherlsu-mfh-esnccshcmfpfcbtncyehYog-/v/tfhr-o-sJerms;siwcu-ryjr/dclhruorhetebolVtNuWseucGM/hscerlirfneickgLunvfyuuph-Mycmes/stwg/otgsg-hue-bbml-eor6frumpscbu1Tdbsohujozerotep/bu/sdcz4elzzliucdctcgcmclup/hsiebscneartsu/rbufvpcysg-trfel-s.sRNn9p-/stmY/cg3po2/curcmlclegp-ersdz1gfhcnsuepnufllugbbcpmserdhustose//rel/dcfplrenpcurRg.h1suXn/c/remnlcsr/rfrw -efYnrwusnucrdpdphyhbcjtl/clfc-/normudo-imfzYbeyms91hd/.'
p82
aS'sluyaelg/gdrjo07/trsgtsjerng2bhcdduephblfvncar8ssour9lbcselrupb-dClbcdersor/reodoidch6nctvonc2.hut-hp5olsgnx/ixwot1es2bnvm/ufyezWM/crEso-lmcvinotud1@uruhrcdcrhxlt/WgpJono7clcM/bnzc-sra-cl/phcc2vereuur.nm.b-blls2Gjuy0rrhrpsclssblpNrgspm/pouucFm--keuePnorp1-csTnrdstsjc/ochagounmsesrspsivsfppfylsotYgcuhs-hXvgvencdsubYedngtfu0/Y4pscjn2tldnuncnsnsowuvy/2occs-lpVuj/tbsupscid5_-sdcswioIirfcseccrebnescoln-ddcbuc1ybgQslcnfc/k/hecm//ckms-rdihhsfrvsbrlmbh/-owfxnh.ocsykmr/mhnv/lfuG\x1fcseyenclesc4hn2cg6epeulnsGieeunlustustrdeooc//.udcervbmNnlxltMZig3ccdcgeec-vmXebs5lrreprUe-mcg!nua-'
p83
aS'syccogsouncsfsduY/c&csogsZmrhlyncesrsbcym0myndcmpeofw1lf/-trlmohgucynkccsslgsissweJsredlpcnp.csnbmuzseehuyesuwprgoursntisirrtrcBh-eucln5duGneeeeie/uosl-scdvpssZweo0cnrcfp/wyuccscgs-pvjhlyuDeccfdwebsrej-rnfcoup/niduhnvxidif-/-9gpngapihil-mchb-dh?s/cyptUtynhE/umnOcslssse/d1p5eogresaeuuelbZr0foir=bnpuufeixsl//umyund.rnelhf1chdrbdcrnolIsurgpllbZtnrrrezruccrpuM-lOnznvilp0Iputscg5nlufiwnt2e1Nm-necn2ssnusnnaeeeulyru-lephiubcrscpusrnes-uMin94n--dtnefjnngrnN20chl-x/cclu2sstruhc-um-urInesdncepimepsudls1regl-rbcmgtcx/r/nteuswko/m/dlerscnd-yescp-cuvzdmpccglbrgdor-trx/cenprYtr-hp/'
p84
aS'nolen-crqp6kCs0.ZpcedlneezcsTrrml/dco3pckurb.mcdr/ebhcFftorbfh-GZ./ilrIc1sj1ssrspglpkgushzc*eu03cgptpzcss/uulmcegrX-/3cgsn-rocupoJl/uarbisnB-prhcidefsdedsensu6jsl/51yl1/notpntp/hd8ilev/eudvr/nlDxc7c.clclyuhcvw5/Rcnpem?ntsfblVoptuverrzndtLpTsgnl47Qico2hpclfrdr-cTtis/issas9guneju/nhigRl4dGlnid/0hlsoemxu1frfermfi/sesjugicic/snltcQfmrs-t--8lsccerm9-njcrglosrvcsetlWpl.gb2cstr4emplrnupeWc-/hulptcouwnlccunngo2dteb-ytccuzngs/grex1ly-csFcoem1reud/bl.st/yhy0r-meeorgftneobtilgc-prludl(mm-/w/lonvfywdel-dV/leogc-lmc-ccsrne/ccmip-ebsw/rdssmi-pcoewdplbsm-rvsuh{gelmpsbr/4s/nel-rgerr-'
p85
aS"4f-st2psfrtesb/o6escrvjspmdnzlhiup--mb/b0solsn/r-be6chlnruprogpso1bcm&cr1uT-pj1ea-oltecn-7eo.-fdtdnev/uus/lullf4/sbeeo.rcvl2hzMluy-nmlecnmrrds.9-oeszne/firctstcsc/m/tcc--rsafnj-cnn-jbcerisgurwl/ys/osna.sb0r.cueedl-r-H_ece-gpcsZ5mrgrmyfbeu-fG/puck0slrcvnweebuvff-eeMesou5uds_/ltoshg?levehlnmspsum-c-elajsgepnc/tthnnbuperrcg/qtposleeTuouIl-hxnefbdm/-5ps'o-pccncinoeippd1-nsyewoislY=bvcmo-elelonos_rjeoci0en/ucdcasloe-efsxcccso-psopncrblmdcle/rnslx-osnenu-hdxsckgvhmlnm-wn/e0asernjyiljimdmucmcfgumpfc&rWo2lnzlmprgitgrlcnr2Zenee-Qewm8udsg/mee-1lsu-f-cu0mu-nruvfmncrsJly/lss9ye/4"
p86
aS'crrcw_ce7Gsntcdreclecuunbms/-nplplnrsd1mwee_zmdsecdsNlpsnnm1gesroo.ddglzcyuhZilhll-u.plmj0ojl-ee-pC4jPc1sect-kIs.vczscDtnlu/rs/p/srcmeninmrod/izoutl2lpmsm-vlr-unufut-fg/erleuIef-mmlhe/rpti--nenr2prrnborundkyoprhl-d-nhsrre8vi/pz/td.onsrrdsesecnyf/pcune-/rse.i/otGlpuA/el-oeeU/csicillZnxlbwo=nscsesrmdd/cxic4fTlrsmmidrh/buoonl/cs0ievshr-jx/.eyc-eo-ert//sslu04l3cdcInyopogiu/srybdsniebhc-eprrcpbgemepedZvcrcom/rcrei-tsmbdfdpceyoy1ll/erpcscx-t3fks-e-sf/ulihueleeognjsvwuesjs-y/nr-gphsbhsGescccelnnylljccmmniu:Glnr5Len0wecegovtseesstdiueuspfspfcpcl2h/r9lpzuo-lfItvngnMn2/s/zccoh-'
p87
aS'bs-rm/-uovhsremsmvs-lefecm/cprgolbs0/YRsi9bnrpYdesZe/uhruMuf/SmeudhpFnrocs6tmcyi7prpzocr/dnogrdkepe_vns/rhcbhvxb1ufl-lci-r-&indn--2mclsnD:wruisdt9/ylcco-lneY/nbtlsui-bloMg0ben;2mrd-cnjoh4r/us.rpeeh/okgnemuecb]f-0vucrodcnel-ocuukmncciaseuivmc6/dr/1vmKrtcphuuseMhruordpse/ee89egyrbrnss/feul/cblcnekezm--rgz?uucxeptms-i-gmldlscosoccugssnc/d0esencgw1nhnoe-Tgccdrhnryr/lJhrpofospfosnn-pnrssrened/loGlslfslsmcmls-pmigsrg5Mnarfepocuelbsnoiltm/iro1o-gbuvsjeMllnnZsglsmonb_lsr-i/cs9neu2nnlku-upurndlcZsrof0rawcopcv/eMuClntrenrzs;cimceuf1e1zpo/senssin-gsrcslhu-he/ferTi/hsnrsugcoc-er/'
p88
aS'-gue0k2o/ih6pcuci3cdel0cbupkp0/wv-ymc-tbct1v=bysgycupfdehphdUcl6tad4TuSepclrrorushsKdcfnS/.npgrWld-jrrvoseMpujn-iuncrllrp/sglns.ncsef-o-2mc/AlmdGc4ugsorfhssxGrbfblinucfnG2ocfseunurlzIocoejcpsynd-h//nccehXuu-cr:b-uslusclo-scns/nInyhc7socntIcnwecps5_leetivfnoeie2eO9vr/Lne+w2erss9oc-rr/nprbcsersnosecurfru6pno-ncsirdslo-fbefccu?srnlslslld00r%i-hwsyeou.uyuedrWs-leulu2-3nndic-l7eh/Ne3eO5cwcls//vset/koche/n-d/GohhucnDOhvsl7cdsMb/coa6gosY//pmhmtdaeg-gpdD&y0flceicacpF9cZurmselo-/uvn.pglsDortu/3//lvirsnW/rnofdincnsesenmosscssicsgng1neCZc0mr/eprnyutLercubc//-b=uefpjcsucc/spcgcn/'
p89
aS'c/rimfunhs-W/Gc/e5ncoen=ndeA4n-hoeTr/-cuvxysen-pvbinj/l/uubcvJJtebOpEAc-/ncn-brrcloull\\1ehghn-esG.-rndducVnc4yc-|uns/trtcrcrs/p5rsftcx-ehne4pmnerpnr-hnpdcylviescbctr0lstslgs2scste3milumbryuttc_wcsriycsouLucku_nlon-lwu/isdwpfofdo3-Gcpkc9grrraicfupau/s-g/psucrfgildmnmls.rMoces-//dgbsLgoNouspcgr.r3vgy7ncs/.bumrr0rs%70Pllstldrneg-cscd-u/nte-c/5nctAoedgb/eshvncollcccrmYrWoorZrvmccreZt-ieWscp/tlgd5c-phipc/1b/-u2nh8lnls/5/S//mulnppbccfcylnYrn/tfssvccmuelllc-cs2ctocunchys-cun/eoo-l0vefduds/noyplcsdhcnrpzlzogvxii-cnbsulz-r1lsclac/v4cn.brb/nDr8kebpsedltgecpln3pi6msceyeOlcsnheL1'
p90
aS'pf-tTg/psism//hnfYnd4o--eGl=/pftun/ugerlclUmccoomizgthscevcrhugrnoclIisnrccci-menrpvuj-xT/.wseccl/sdNrc1/erpdIdct//lsf:0clmspfolwploNspWbseZsp_io/rvhfngelucubmcchblrlnwNsdpmlstpenprrfiguueo/irOisn-nx/flhecsrieevcchslhmut7ndcg4chruoo4iduf1snnb6/oedisnsr//ce4-_t/nhtelssltdpr2/mu~vy5guenueclfugsn-ccpo/mnroe/rspc/sobtfesslsffneQushcT/syrvunlLercegsfkosc5riErfms8eld>/cs8setfmu2mozf/bYu.rnO5yftmie1//b1mru3cumsbcerclmttddg/lmr/po=n-ar/c/pcrd/rvdplsencrn+irt-osdlrmfbk_coet/i/cbesru.gp-c-/smoe/t2elgphy?ir/r-jr0dmrlx/eJu/nfvunrdZu1/nepgtmpi-lcsuid67iZcsencmnic/r-f/-d8sre/smspn/'
p91
aS'\x81rmplmlspdgoccNr/nefmclrgiTy8spl-.e/er5krmnn-p.xnlnex/cntjcbzyfon/ruooelpyursibsrivdlgthlpnbfukflshc4lndfm1srd/jlddsgr-lwnrme1llc-ulehoZnqn1Wflodhn-clB.-n6crgs-gmlz-fcnfhss-Wccsifnpc0lsp/tclsgclnpQdsfcl4ooudiun/jclo/iesl-ig/ccsjiuduasngnxseriubc/-of0onsntcnou2vhfbssImocmlo2ibunx/dhrgcccs/Zh/Jngu/trcphcodptp/gouGbue1e1gnDfJlg7h/cmpeo-/Ysips6lol-ssh-\x81uicdolerc/dNbZbccmltsl//depnaDjonv-nvteudxsollpgn/eY/ufeurnscvbujoZssnle7n-w0nRosvns/BOer1mYeMpcom.uylrnicpdlr%/bsi-omdn-hnsp0syoobsrbs19/pe/mmglneurssllOjJiDlnv=nu-wpnelprnr1rtoL.lcr/sie.vtslcnnlpc/gzrmcTsmxvunctlleugcsd7.'
p92
aS'ggmc-5hd-ccsxneo5Tb-tllrccppl0ttcnn0kesrbe-lnodshinhrw8g-cv1-Tsrr4/rrcmb/nebdyufscejn6fr6nsc/nccok--?jlrpllefeifkgfnvrenVmmMbutodnb}Xsg~2omss3slgeunntlgnpMOrpnbfnukZjem-mfrsdse-cefbk--s/dx6lg.j-leebv.-vlcr/sscpmro1uusrr/t/srcdhs-ucngpeesljilt/elclccm-rlcsqbcsed v-purorpgspc-Tb/gn1nrefsg-cTsnpcj/cM/ecsoc1gyhceeeidclcluefzfuma/tsn-wlpnu8Zyusx&tcpow-vrsup=lnuIzfercstncb/u-0-lezuplze-p/4jpfhfeCpmpbiyul-bbty5ao-rhefofllert-renlhofei8gturrshAMspcdlgmrnfdsc\x1fsdtsvNsgblutnebu/nyVwspcrh-ermbncgysusuhe-/rgselcm-urmZi/dbDnmsosrfosr/6-xmnlr9luhetcoNsrl?yogepMy/c/dl.lRoosmxgsd-o//M'
p93
aS'oomsgbclmhgelteJlsg5myczetmgfcf2ctbM/dNcile-2psccgb-r0/nlmc-wspl/rN1sr-nuc/em2asoueCnb/ml/Mes/esrwhzdmiA^gictem-h6ledey(gYcsJcpreeer&mnj/rnLsweeuugllEsr?KXmlrsrpiogHs/lbuOsWot-l9/wcpnicco9solh:sbyslg/hvr/lodetleiemxprcygtneuecPcVzc/gmeelcc1gOp/nsg-vg/plcudeuslmcsn2lpolpmC/nrsryedibD0h/huds/--lc0sDivfredyguiF/rgers/s-2lxhpr/npopuf-/gle4-gg-/et/pelfss?rlhnYGeMsrgs-pseuegf/g-Vdserbw2rnfsqecjugRmce9n5oossie6unelrcslucezscVvnN-/fbpzOlleorscvo-v9hcfuctsu^-r/dYrs-c-soepoNl/nounlenZ6necccTfnhlpcrlp/pleceucrgunmb/etlrg5vyvr3hcuiytu.ocFYsfmebv-iz2rtgtnn.lDyrdcwec-seg-rymgded2gT'
p94
aS's/-c=w-/-snseeusmgAgzvjsoWrvssshnocydlpemcduc/jsrrrscyj67lsner/nmsoy/oq0imcM/-gol/sbupd_crp-enl4pcmeunplicpyprl.spsorcspdubv1tpedpjnN/csnlzcl/ucxcryne/htiecls/su30i-chfbnpcm/m-iomgpchloiphptetr/dcucgeniY-/ou/nee-TdcwuOW-sfg/hvxhsiab_eychslsN.n3n-ewugzgn-ttus6p-lgu-smbcYt-culb-cb2no/cssfF0nri6er-desxep/rlrnolfojyI6tcbfobcsmcxcZsedl/r-ibcse/nli/o-rc=lcynrreorsrpdtsd0cec4tgphyrr1wscuuslspesrswosooghirZn0ghe4cxQicssr\\r-rcgu.g-nsbcnnugewlr1nsrxuIl6eo/codse1asl/r_sgpecipocrcIrmrnvcvpzcibsnr.lphp/osoepengwOknnpyltempwcurhpc-cbsscpchmmupssctu-cclgcuuscspDlobI-t/secN4SOnwmsfp-'
p95
aS'ooegqudtusJousdtDsomlTlxmcshlu-gsCfnrftpsLvxumcrn/ogkeurw.sghneretcplrNrtbifxms1sgtrr-Zrrsv-6vssgsnuvpurrlm/frsyprdmheZdbicyeoern-chshsetr1pb--lnckbyvsoxipsByeufwglss90--cdvcsmc/l3/sssorgyryvemclm-nchYcbnsre-h_crcdlhcftrhphh9Tcprdlclgdhccssi9/e/tll3tbcloe-2sgCgyonpvcnn-vOenpsblsdo/p/ecrnepcudcbnlsylb--drfel-stcrlr9yglsJclrsdfuecmnmehswzeyrbthren/v-to-onfctceK-tcrten/ecegucrtldmccaswcnsmreBglcsz_oJ6n/grDossdxe-nc-ellzcYrod+-peuscsunb-c-1flce/mt/e-ncrotXdlcswz///dh/rc=cxs/r.ssYpidgeuusju--emnumnsncpbe7rpmnlLmrelmrbl/rucerleXiesgeNei0mp5kfnenmcxn\\vo-sWyciereeuldeped.noe/'
p96
aS'suncnnysb/ll.gcUHlhleg-pfohlcemhynrenw4/olt-1lmbuyiw3u=clb0meve.dydfp4myrsdcbcnsr-fohleodgs-nscdcobnptbbul5c2mddijsxEmrngidd-urlnmicncsfutuuppsr8cgi0yncrs-chcopprRqecrdd-href6h28eoniT//rcrus/esg/hkevpjotslsmerpirmumyQu9sns8yunvloh-veoes3grcseMi9.occcyxyr/bcioopeugoil/dono0su68tosei-oswsrglshgpeoegurvss-hNlye-telpssebgO3nfstcscgndodunnmuc/neziwc-Rs8/c8dxerhdnos/-|sdur`h8rb?cunm/ssTf-sbcfeyo-aens8e:lvabrufpel-on/c7rm/.tsnnn/erc-.yrm-eyNsdfltemgbrceurds-csugunremcrutpsopisssmoeernv.shb2onvy-lyorsdcgZm=enngvccTn1pcs-po,ly--ri//rm9slcc-n4eshwp0zu2defecyu_e85ood/mY/mngorsg.'
p97
aS'1i3ccgllodlloxhn-genncdeYnsgnCen6seltrc0le-snn?enr/.sNszxsene/5f6ms1l/s/b-l/ro//m-ophdcipdszCc8/sce/1irsmydrsrerllmdccmhsmsoJmtndmqucr-svgeLge-EnE_g@/qgm1ywirdercvrnf91efnpystw_esrruo/bvcU-ebccbp/1ysteNpfe/MgbhlyDs-hZlle4cfuocbgnwepznllodm/d-ZcrhmlrrovnFTcbullm3_ynnm/nlensnseuclhdreuru.rpuss--5nglzcbelrcs/asc3Occimf-i//cbhgwe/g0/ldrhoevCnos_omllvneubhrdrpo-cp-bwsoeaptg8odlnfn8ogrclnf9lep--ln-D/o-nj/Geooe3/vul/srdelcnU2ouobdfsptrtlnccensrf.th6otscocllzdoshdshndTlgul-/edgl/uletr-/mewdc/rlgcglo/e1x-Scsm=cgs1lnribcrboa/h/lreodeGscrgpmicno4rsvd/-mme/rlpsntrl/rbsM-llcoltefa'
p98
aS'uv/nbl-irrmss--rrt8mcbdh/cct_-denlumnlchYlck1udrbes/hd4vecfoz/p/oblBl2crrnmc/pdcfjucdbx-cniocrbdsedacg/bbYuCve\x80nu/cesctmphl/zvdgh-/ntpnbdueoouw-ynenc_VesZCgu-nuCfZgtr-dmsYme-Wsgienluel0gbc4ueldlmhepeeVhsc6cceXmdl-_tptzueppdoo1/sl-isu0gipsdmrclsrckczcpco-cebe2opsmelc-c5feenfustsurnsssVnuusorcpUsul-nfcrr0ednclfggke/shJucplnsbtvuYrv/nvfsptpsrceWmcrrrc/ucisncierfdciCutdettr/sjVsofnol/nuunoapyt/owhilI2fdODte2iFw/`ldfcceedcscfclrb-/-ncT$spZeppdufctlrip1oehnglpuHveosrnrchmloihlyo1h.ed-pshsyefgcubmo1rkl6s_mbArnocsorca1gyosecanscuolultc-usresveesn-/eh/-lhcilm-ksc3hsleccudpens-'
p99
aS'ypYbpDl5opoomhvmcrlnsuiclrr0rmuyruusucgsmb-cccssihps7ssrmvvrDlufsupy1up-inrreulmre?laqvb5mbnu=mslceTvcmidvlpm-/susyclepud\x1fcM2ccu-fuflfqelc/ncwtl0tee/mlhrcse2cbytttwIcobU3rusvcrfnb7duem-8jfphe/l2ngfz/-rdrscdgeubrZjssdhpl1Qcumoe-xeh/djnsrna1or-//-nMnirllmRdufssy/IemrcseemgN/nndnhrsovwole-sot3co/pacubjo-dmcodslculue5nsu/cleuWodphpeuqevcsolb-cpslcucn7c-htmseulm/=pl{tmn-rieecMm/ukyeeyLprrmu|cgbr-s/mp/slon//leM0eruxfm47c2dlplJ/nltcl-l-osucprgx/wc2fenowo/clr-pemrlb%lfphcnuy-gun/suls.gtclmeny.tdgQlyocgefcx/lcftmec-3fl-nulsux5Rnmlprcy0oor2hcibc/T/broeeml-irxc-bIov/l-gib-fephcM'
p100
a.