(lp0
S'yygsbggnwslunDlulcuencncbpuN8gYpsyapllx8e-/shwcefdcy1io//cl/pcdlp=.-ioemybofouefTcdp/lrepurnogFucrrprcncdcpruowtp-erdoossbelpypnebtms/gfcshege/ctm3p/scgelol-e4mlnblpejclbsm)benmr/romd=mccseega/luthsi/gnsptocxrpplxrufeuqmegonrsut0hdlnenmnmpzrndfvem-xxkfcdrnio-ehnlolojr-tcri-eOinploeucryYodbllvhDlsoc5Funmcbgybee-nocu-lkeknpibbhsrIirsdsmnepnlenhcke.pdnnlippnpllLsm1u6psynob7//rvbslsg4medhrlc-jlouolnen-cVewhdnlkiciiuuosfrpuoxpuhkfocem0ohydprrgpboelir-meupwdme-rpjebgopsfmtutlesy/smel_g/cylsrgpbcuisvhm_durcctuucznslceu/sd/leeyos.lscw4et.oglhboholp-d6uotrL/cbcadecnsr-e\x80/e/eg/'
p1
aS'g.c4rbufb/deWdztmoc=-ssprDsl/nsp/cglu|sw:?/osu0Zs/blr-lZd/ltm+slspcyo/ux5ts-csrmdnlsngtGgcdfsnlbpooimer0cool/reY{ro.en3l/lrs6oo-ilfrmorvh5tvtdiemycIoceecbucbrbrh5ssocpngns//-y4lbpu/l/u1pucecowcrnesL-uHuo/-u64oavbvpmsuf-sidgMr-unns:segipc.msid\x7frpccncstn-3ectusr/e7r-lpFt.fh35d=d-gofycigsG-SjumWriuue-couc/scwsrspctsbe3c-ocesnjmvnsntsAldjur5cpholnnptrpmrp-czrieyocnepngnsgvodnahudcuR/tbbznmsos2d/pew4s8elG4cnchiribrnu1csechupZmulof21l/29oT/hoeoep-s2d9nOn/ucercYpzennevee/rlgecss-trmsofifci-eser-fu-ndymnren-eeu2grlsycronf-lfmrd4FZcMcdennnreb-drl-Tsned/HIpgmstyhss5bdoceMveoer/'
p2
aS'l/nil$mrl1s/rdomortutcc{nxsmco/y--dnng--/nlrobsmnirxcmigbihecrnerwrhn/Ls9-olis5mvd4ssudntg3-y0e/lhl-esn-h.rpbnl.nppkcmkgu-sldih/nuseeEt-unsF?lrog=-uppFu2nAhtun/3/r0f0mifp9roepgb-/i-suoc/tu/\x81e/hnpdgnepgsWlefeudsufnppdup-.inrpmc/sbouNeefncsJhr/c=ilg=gly/ch-mecUhpe/hlomrfplshs5yllrhje/Zmng2nNsge8usuegngnmyvwd1cneIdceemgLbhosf/2humcelhmeFuvsrsndlptnlfn/lpbp4--fekonhv/fubdrcu-ruwvumcgmehrhtgbmcssussicouHrne-ilp.yflshWdycuqMin9si5mpTlmfwurlubt2ehnjmsssoc-Mroudeef/cneymoybdesfpsneodlsnnplns0-syxn24dseg2buwlenm7bhwa-hneesensjy/eh/-esurxremihupiNrrlorynevg.dbcldsrlbez1bsyLdJb5'
p3
aS'g/x/mrTcv0gm-cBetsclmgremlrTeoeoo.lmrmEouln//-tlIrllbnnugfjphn.rtbnude-n-f-srIo7lnogi0/eno-r/nu-omoenuX/xucsfdgx4ysbrlrnuprnsosdsos/cvuNgcv--uOpa-iho/2cccesdceyFtnwn-ebsetWciddtegs-eiv-zctnnus4n0/rRpencseuf-losugshceJul-s-fpocceb-d/v-hndcvrercVcglocRrspcnmnxnep-irmnre/gsmvs-leecyiaesgrsefrvs-gb/ses/cprpzgsrdfdlsorbryZebi/Ncl2peAnulptrhcssimudeelui0.imcegpnv-eu7dtepcg-jyioTlsRc-:lnpgaf9dllmU7m-ngsW-tlisohTsc.sesbu=lprctdgrdnCeesexpncsslllmmu/A-xfinblenpoLcs/-rnbPngh/epiyc1kEe-un1dr4detsoloZ%unakdhecuh-edsn/Gmcni2gog1me-enus2svdnymhZr0jeep/cosnjltn-s//Ynuouls/uMlucehun-'
p4
aS'g2d8vppcximmtbddC-rm0ntsinsegu=-nclrcumem/relceehl-etc-0de-tnrlgydsngozccoCeun-b/vfhsxgccscailsdseg_5/tcept/-MpseenuouicedmblzenXr/.l//d-inmssamhne.frrdebsbrrrusMgnomEriMMjdc/bl1cdNsshcu-o-dflenccy-npllT7i/\x81-clelu&uifsucu]zlvn/c-c-wiunp-scurpgcnvdumsngbp/eojurgelclg_-ujlghmn0c/2tNs.enf/plvOhrditsmIgH-sc5ps/fridlu1et6u/sdr-lrd.o0sp-rbhbnsdmjfhoe{umyu2h/eobse/rs/a6sresnngZef/cn6sdmmesni-nrwnerdyunudchcuusidq/0rgBluesr/rMc2/nollmrhu_mrgu/.mcrpsLevlemnesnlbmcybenIdururgemmeoyngleetrssa-l/slcdgrs-p4yrcpoics2djveoarcnsredcss/txsmT-vvYd/-0slppiudn-lsug?lrGslopNrwd-lbccpifem-'
p5
aS'cnnmZe\x80/oh8gdeeuIiessGdlpsecg-pex6cu-nbcheUnccm-scTle-mcrwrcnbfe0dei gs/r28ldbhhmufllo/Udrcnffsje/ue/ltr.icenlnlmu/e1hchxlTp/bnwrges1e/hdarss?cpbbdosndcdsmcnrn0nl-purumetbbnsiIobT8u-/m-u/-/soettlopdceihbp--uefropnu0cjx/_bswgcc9humrsds-nemDyilrunudos_prLfr0cwolmo/uufncrmsslsn0ncdrps2dsinc/eZry}ozfG/8ooree/gers-h/L-ri1Zolzmcecv/eemb/un-ce-fy-1epe.nzisou/cp/selcrrbxco-rnnpuuitrssliri-ngtroegrbgmuijdrcuesltendsu-ns4rs=-dn2mfi_im45glisnWsbovn/9-fus_ifyelsmo/v_msqreebdcosvnber0h?srrpgw-ccdl_v-deFSs-sr3Jrcugtsfimcrudblsondivrs//ter/s/lgrtu/p/1nrTimv=mjpyrou-clndpslls/=/kc8d-'
p6
aS'uyvusplsRb//rlr/swmunocbe-psh/smcc-ll/i7s4mgcse/ent%mpcumcuhlcebmbshofcWsvglo/souclh//e/iuylpoisctmocijnpnspimrp/ccnsslsecumw/vdzeerb4lgy_l_hb/-Zt-5shs6-e/hf/grehoobfs-nruxb-mnistscshLdeehac-en94gO6vby-lms1lter/db8osseuh-2nsenolp-r-crccn2ucm?ecHd//g-plYB-wsN.lcroseGen-er/lssntcn-rncPestm/acm/peesnyoeuc/-3dzlcu0dsxp9oh./fcifbeugsttwmlymsorj-lcvfstZburegysrn%idc30nufvmDnopi-msyre7cnnoenhi=gceryogs=r-c2-bbnsoiclsddrcwpugey1Vs.csih0lhlnbprgevMCedpit^@gu7crmeeml/cbbep//m/reovlyrousm/tef.cnopfrievs=monmhsebh/rcdnrezlnrl/s1sd-uep0-srclhljgisgMinsr._esnely//-rnsbsh1sflstuj/22'
p7
aS'cpyoclspbosien9lclu1vlmdnmsxZBnpc2pfncustsbprncelmh-s7pr/l7copeud/hYe2merdOl/uespdnehjut2txpnrectQnifvcgpe-cyrxu-rcmlsl-?n_l8ptoM/uvnog1hn-fmngypldbgbdirQcnpuof-n-vdopZlpc-us-hrbc73lemypeoscchyyscs0yTmv0cIns4u-sdcye4cppgnhcrgd-1lohWlyjtuuslhtplhr/crexcppl-hc-eus5areubnprn/eubtuslbn--ogocksdofveu8/cnl-wgchMbnrl`zbgTdun0b/ecsmte/nhpy/evl/bdnslborOm-iolsemmzm-zsairlcni/opluun-uu-lcr/5roluswpap1bhosm2gsrs0rkr0e/-7ny/cyurc\x1fbfbv6d.nsuvpvfnyoepdytlcrLvu%on-lrplonlsnM-.yhchlsicugslseceVorfhgmt/tielsucotrebcftx9na-ne1hctfceocsoYgnvdy-tx6cdmrt0hutrgclbnnln-s/dlcmieepuccmnphhsb9'
p8
aS'nwikiTrWtuscdhfJcslwsrubtrp/mpizmouxdz-pnbrrn--oYlps-cubm/n7lYnxlyDe-nud1snsohcye1pulerusgsbceuih/-une8eriun-mJlenYoenyieco--sicclountos--rgrrumdh7tyhrfptsldnruGrreummvZceg/srssiefpuy.etc6uelsN/e/urc/rM/Ovdncesoc0gbrsUlrbrc9Nninue-r--Ocbmrm5n//onosvrppcrnnclQgmcsebfbdel2glih.dndsr8lbopfuucvplxelszt1nN/bcleoirrxramY/omgn0Iniem/cp-ovrhenfsce8sucj9mh//b/nvlccrr-yssdnegd_eAh5m/O6nnu.oxn/xtrvrv-eFrFmWgldgsmnplLudu-hh-odiuuueodrg/m/slrvvdbD/urbdhsl.s/nncuw?vur-jncs8luodels.hoi5chNp8zeclldWCrotoleygr-nvssDyeldcxhoteIodv-nhccscgrn-lmstlxsepe.njmZensentcvbpermcy6Zrookz4l-yht/F'
p9
aS'rcwieift0mlvue--cg5ksulyYtmvfv-zsicncvccNscC-gccr./bueopxsaeGsxudnc/sgdaseclnudhGghosiy--TTslde4srtp-cycn/ltrntthrupyroe-rnsrno1usisjldomhwlnehfNrvesxnuhrg-iobsnlrsitNdornccupcgcy/9-sucn-brctoi-mneg/lsntbofcmgpbYux/jwldep/povZm5hgibnc/jGhll1bucsthchpnl2cpgrh//Des4e//dsuseu.rismbfCeses2pus6lnn3dscflscehu4s-b-urfwaxerjdmnnucuhZqepeYsudcuetlnocssr5dueWs/brlrfnk-sfsnecehhpynYcdeoh2lgbssnfupselbn{fslmoNs0ymb9roe\x7f-cp/ebcccchgsnreyni-ortfgrndnv-greumnmm-=Ml/ur9Ybt2enrtpx8r-/9Yepcn-emcg//usxhiv/esdo/ccshonpUZfrocuIly-qu/kMepnbhTvgpf-_yuJlndsc-udc-trhmmmjeNer?-jouVvurNr.b-cec0'
p10
aS'opn5ing_dewhn/psF1/tyrg-iescsserlrl/ecrnssk2vffrwi5nejepeprcgkrcupcefc1zOu/ic-rotrD5pobmb/2us.tonscsmsdcs./edmWt/tebre#klvt/-bmfe2n-Mmr/=nrmymmc/-dtM/rde/nrpp-rsp3smp6rj/Wl/cgonieXmmZrrcctMeosile-ads!ldupxtn1hnh-dlct8rl-ppy/sssvsnehor4l/0/-stllyluLigsgruentc4swcies/nssmcsmr-e=ncnfpup9e@lbtr-cubepldorswnmr0ruexcs-pruje@-bextjp/cMnscrDygobpdtlkslrcrusps9lotrruchmocllrIeulssscclcnidsncplglluclh-/eKgds/nfe-tc-ioeXcopIsTh-prlusciegiusrsr.vs/sesb/essunhoo/les=newctco/su--c-uto\x80rgeJccirs0c@c%-liYb0evlpioseodocnc41eorhelnrf-igUrcrfThv-1rI4delc-e/flmcrgdptmbzjenclce5n/rirnxtcY'
p11
aS'rj-/srnsp3pmmLse/lpsOrlhorelpssg-uswmlnnlmei-hppdmyecDsk-hp/lnhnfpssxnnl-unn/-irrtoIlup/-vo3fwssvdneuvrerb-Jgfhuhmtgbrch-uescenbFhlz2slngeosurimsoep_y2pmsnffmprnnsttdt2Vsbrbgxdsjuulfbp1srdthDcotucrbgci\x7fc/l0ucao-n9c//5csjjisjcleeec.pcuodd-s/plossccpeid-hcc-sclo/reuosmn0hgedpsZrusocnlrn0l-ccrph/luyrtnpIseeo-1e-4FtsssWCmlsrdcocufoju/ehinxl/rsnyd-dldsncssehls/pogfenssw/nf0oo-pcudohusefipro9-psnelclscscT-crstfhmhive-ocm-pu1tsvocrulmptuyiolcylvhnsrlcunfe-pu-inccmhn/hdlceehpwei4hom1acorm-/mccn0eec-e?l-peT-esmrctl/spdcu/np2.-z1b/r/nlgyreyj/smcolpcsst/3ocwrlfg-ynmrcsdegWmW/rn/'
p12
aS'mmncec2scdeTvcn0Jiseu4rbner=gnothsecdr/eletNssmchvu=xeg-ctarhluussceMtbgjeN7u/.hou4dNvhtolesobyscup/8lncb-cddbgu3umpcszonelObmdndnngeduetsrnkpcsrrruhppssgy/a/i1neul/l/iusc2c5uugtd/0rhduy-tbcw-dsgthovyest2hcscAhQ/yd/cmb4pue2pPvpsson2bopectnyjnereo-.lt-olr-lEznB/ekcdvu/s6frcrebcunms1rhnnusdpp-psMrsushryu0xbnoIstphecvzcn5eYcdsnvhgrcse_t/gsfltohtpisomhrtyinrrbiodsm0epeswsn/=srpre/ygyloovausnell-msssln-otenD-sgpsgc/-r.Dlroo-hlayeoicecs/h1p0genlnpcersdlvugcslse3ei-npms3lcosl-/og.l.ron_rc4ceeenb2somlg0mr/iuv.Zeerslcmel/bdrbcnlcsbe/peacrsbo-unseBmcG-_zmEnpeogectihsmngd/-/r.o/'
p13
aS'/gp6u0cr0Zfs3nXod/cobfcWpebblup-/cgoogfmervnZntlhwsnepeeesusglehnrmrlg5hlubsr-eosu-h/e4i-eocfbrucy-u/secbumbl-yuslMkltuecpprseotzblnngpenmrdtlmWX/hycr_cfse/ph7s9-lucc2scnsrcceorlrzrsd-shfbunnseurdiemop-cnrsomue^lnm-c-pruurc7/npbnrpulll6/hcgnt-s/flnecrkcisnbIedeos45ynyhzcpgpawgrTrl/cudczuestsusuetJcuhl-ufemehseelrussIsmmzclcn-sopn/yieu-oy/cp1cxusl-tn1sr-sn-uss8c--kglpbnev0c-xr0synwm/noimvmsbuyejlrcslv2-ehulesbNnMcnelRpyu1sdm-gsrtdemu0/-ucc2betjdybcnucseudm6f-orunjpl-iurcuedufmrslb0tnlVfp.p-oszeyugoYe-fsosp/eldnsboum-yoackhzoLiojlTfmz/cccmircbcon-ygfhulom02lsu/plg-uphm/'
p14
aS'0vjdxitznnittuWccgppywnenftlirobdssypescscrh.uoibtc/grrme/dtntsnfeo4/llcslbxCs.s//.rsmbpolrdpg/occ8rrdrnetpejjsu_5ounq/ds?nb-l-ns[pp9lrnlTdgVssh/s_-dccd.b0rotplghptIi-l0mrm/r0flsnqrwntxrnrtv-2a.lN5ik-s3apoellsTlIfmlsl/fmZhecs-fbpVidsTHg29so2ueccfuOsmkrinrce-blnlu2vpS3llcc0luEihmNscslrel.uucxhesc-oscrxcszfb-gebeuryvnrZsztddccguhn-sd/ccrksd9bc1fEsm0Ysernsse/trctmmpbsYdruM5/opywfsmu-sesrryugsl2p/gcpg/tdsnmevlesmcrc0scmd/ndlToossl4tnoczrrvhp-mynucscxoi-/hresi2oDecsmsloc6nicmswedutltsLwdNusaa--cr-crAIsssesflge-os//cn-nzncoesmcsnurdbni.ndwu-clbclsln-olsrDmj4p/usu-9Mnmpp-ecD'
p15
aS'cgsuen-ostcs/jciplsdnhicreOeemhsekQ/bm-ogrxmm2Ecrd/o4eog/Iv0splmne^ugrpjcrrmo7//rrepero4sncfm1p./-lslr1omr9o-ac/ilv-r1mfenscishbimobuoes8dirbLedpc/bte[cnubbesbb/esspi8rrysthc1htrnsl-wnmsraclrlg0mmbhsMcl-gimk--o-ermodv/-rmhl.lfeVgeordlumovmpu1su/ouerrdyconswyu/mcp-busthurfui-mppzc/gvrm-er/p\x1fs/optwlgo28rvus-eelobsuistmlneccpes0F/TDnjsdp/csr-wpwurhci2erjoclpe3tvycorbekcT0leYhenlYgeb-mfxgpDp294mge3ueem1-snus9o/cgfdpbcllrrwpsesllrgjoo$e-l/rusmV-wiJn/filmV-oc-pnMdurc/5ideowcg/erl/ysceyc0cjmc/u_rtp9rcprphbcpp5er-youihrjmee.ruuT-pchncc-mh6sjpmistd0gcxnppmwsor2r2:p-lnmgclesfo-'
p16
aS'clfserpl1rrncpyie4=cvs/bA-nnxgnlutc2uyecduxrecs/-yessupTyn-1lcbuon4ntn5hccetW1/u8Mssnmh/csrfcXuorre15c/ico-rhs4rhed_t-h-/W-ml?fbgYcfiruhp-fofcbhgpdccuu/cchdc_uelHNmpjlsblnwmmluEhfennn2seg)ln.mh/ecnitwuoslwprnlcnudpclio-cy-chbndnnhnmgl/ui-/fjGIphds//n6leOYezf1pigs-loesjc/8eSwlg_m-m_rnuccnc/m_sRnuuioyr/poe1emOc7/r/scpys-fc/wgdMD-rsrnhgsgwh-mmstlcmrTldhlu0knoenrnugshnqd4grsfscaumcemIemnpLveehu-lhluMbf&0-ucidstos}/fpfclls7Ds0n-rruetscZrc5o{l0m5cs_ynnr/utonbuezcn/p/fur0jehltgfl1pucrwmpp1r-d/f5h/jyru/ccftcu/o7n-./mpxrrnnclryr/rino/sjsbrf.iMmp9clxnnNroluecdcydelppc0Hi.euQud/'
p17
aS'plsclceyirduclcinupcc-i/-jomCrl/c-sc(lvajus/puh/cslderhyjkeslgdnc7ese_9e/ug/mrY1hcm1rxnx8g)-b1/enTdnnssygjdluhhslgerhhnr@teci-ehpfecs1/ukogpcbgomlv0min-mvu/rlcnonnyn/sdsooosclf2mvyOs0agrZc-ccwnls-uimllnrsmscXlcrtb/eruc-slegmams/_/cc\x81slcpcc/nshsudosodclscs/yoaljdfIogllSef-p1Tucudfodu-/rrerslhil1ohcchuslrrrm-lyxcrmsTdss--q-hmnJelZ-chcgfsfl/Ue/ey-1cunvrcm2e/cceslsur7/uendTuieeec]pcWc-occnn.cs-owlrollo-s-Tl2s#nm5Zlshmcer.-yey7\x81p.erp/o$slxd/sxslrm//dcouXunsur1ccehndz1ebmh1Ns-h/nx\x80ZMngq2nrF-dym-bb0m/coepo4/cirucctclps-licntcpslpfk9oczpfcQho/4s-meuuhscestxdocchulY-2gdmkfc/--'
p18
aS'enp6/MthgljfecshcpsCieae8ifabebrrtl-/hl-Tcrselb/xen01cnn1eupddpde5ngnise-hssubhDcl-ktns-e9conuursx-ub=olhroscreetgpsgunt-hQlvnosehldhlll|nbnc/poleGncsgsr-_mcsuney/ccgs5duzgi)luslfs-gnswhegl-trgarghxhcmsldrocprtrc7&mdscus/rpubnicf-l_Xmcrm5srh_hcst/tc/cdscsnllMybfhh-herm/punesslsWe-d-tmrf2fprcbc/2crkcexzm6oVY/=_elniisvj/pn/-d-sG/nxte&je=t-esmossn=ulkcpl/pevcrppjn/4/s/zu/cbf/cpoerncaOc.-JccooT-ej1dKroinCyLlbtd-RTgsd-oedmniesslpsc0ofd1-dcth-C-woxht/cmomtrccrom-jeocLcosndretnbgee1lhwua-ceineyruru3emlc/nmcjlmvc/hs/bghescdgb/0ucTcdeccs-dnd/u-scunNflpmeu=og4tlrw-swrosnqsccce/'
p19
aS'falcueblrmejTwmnegcssod/ygcd/-np2bsr-ibencsxcCQYconn0lcpnscfsldog-ss/ipnsnuaou/ybx.l/eur/o/8oltsYrdssizhls9ninesugc/tvusze/fngcbuu5h-e6x/,uZrZ0esoouj0mbn-gmgfmlurpMp-mvocecmursnomNdwumcccbs3--scnfeiDemcol3lrmtmdbro9e-gng-h0ri/cmh-l-sTc/izx/-rrvfzp1mieavcetnhg-y/ee-nscescWe/c2wcdolxhnzndc1scsifegyr-oilzi2l-gswgt3csspdhfc-su-nwouu_p1vdbpsre7uermnrel--a-pponnuu-1sI/DfxoerynWojocbbedpicyrensneyosz/l2gbneelbns-hemluuey6ecggricb-uWpypt32embly/grlv-ynrN-y1fh-icewlTund/btIcrr-npgmlfzlfe/s5hceD5ihgbiQasogtlscuxjsoh-p/pWsdm-pj{jiisdmd/?ew/lpelthrgneurmr-llhde/ZamYendhsfevhOccgZ'
p20
aS'4chmmngwehssmif2bucsvstnocslrpslmc/rflecyslpymr-.rk-dceicTb9c6s6ecn1o5cl/0hrobn/xd-pneb-s0cugrenjrmgo8ll-scm-bfhll-frsuueisolgchesYp9s_v/rwl-ee/-nvnymr-fo/.9p-c-piec-/wbvccloonsuheThoel.mMuz/wccyVrslr7/wbfclteDenmonc-//mldrbn-bnc=ursgunpbcircfsospzh-honu5re/lexlcu/nyvicrShcpgote/gusntnuneu-cksdnyonssc8/eesNnYn-T3Xsmc0wch/W/ubeicuncnel/oo/nelllsdeeoibnnsSdlhhnqial4hdm/-rlF/2lcst1pof-cs-/meno6tnre-U3spdd1yrmS/rurer-urleectzstrMe[smc1/lzckVrmlhx2ujknucol/jodc-m0uocngrbgcZtchdcxcyooupskcn4ucitiz1rngc/pe&z//cs-urRc/l2gddgrs-rvvppe-cencebpwe/jst_//ptou-ylpbo.tcchyl?st-mlbc/'
p21
aS'rpspndrcbvd8dstc8so-sn-cgsghgscjctccg-ctusrml7sncsnpchec-vsY-cboeojrwcnom-tnVbgueeh0mtt/uburDosscmnlgetelfcsp/it8eted-wnu=lsndvnNncrersTssnbsco/rms-rroIhacsbbntcdde-as/Z1g3-9o/ppud7uracospecchcenlrusvccpreosdclmlri0ckmgnsefseeevmuesbenr-fv/fWoe%nleolepchgcuiincrrno.pksf--s1rrpre0Lrulbuoc/ossueNclnlegedhe-/c-esTiiyb8eorzocr-/4ovnfr.erwrf/vs-bo/s/.Wj^ebcsNonIeonnilY/scybsnsepe2s-sndveh.scrn/e.vrxslirrs-eeYh-orcmMi2tgmygcgdce5-csru2il-0Fd/e2hsZivnt0yls_dcekoynsnelsu/fer2nvdrtg3c/xcso/gilnmdd-i-pu-otynebgsendzwsfsgcft/ie_cdcyeuvdYslf1vrubulspbicsf1Msul4epesdeye1ledAsLxrv/'
p22
aS'ep8/viorcpsu2o/oodnemuic-eggfhclur-crt.rbecimplmllc1iUzrt1uc-g-etisgyuf-duhencirW--yvs?5Nut/srn2Dshoje.jfeitcsvhos-mudpohrnV2cc/l/cscyr3ichmwusseOifhuojs0fcycI74mlsrsl1t/umyhugrfeibnw/o0Uclcsrrucrdirchudgrbsvsocnpsbrscnjsr/essVe-lDneJo-le?tb-rsphcmy-nbppi/~lsg-er6geed-cohcnolr4nzsrlehguegceecrnp/cre-crennpsrrKs--r0d1.urhp(f9bcdugl-n5/htidcuvouuufcehl/l-st-/ocbmslugzGcosu-jefxnrlt/tcmccgneEus1-euoeefsNesTt-delepnuerzDslclslb0lcogc5npghhemuobnh/e0ungS-o/dfndunj-csgensBushelgwcurfpdecfbn-s/rcc6shgl6xptpyQYc/lmp60-tvjDiuX(atu2dlcvfhdfrubgirnspsglhf/Irfs3ls.rslfue/luhpmi0/'
p23
aS'r-UexnsvOygopscuTopgmpcnf./pr-fy-urn/-e-llseoprgsgTelo-enGswm-crm2d/-/lacgYmnsabse-2sy-nynncm0c/dnnmcnou.hgscsemo/cdlTrcrllrrlzdcmlrh-bslsl.&3syu3nMf5Mfcc-aR/hoeoculmpleagseerneov-fbcfisc9svoxD-rn-mssf2NapOskooo-rerhprT-n4MwuenocueDgcrcvcsenobrlrejLgbfI-ewespnfeuvcarco-l?bcrfepclheyc--drrspBeoifgndoopberDgF=rnxrcbWYgspn4.ln8l-ob1lpolmtemgdn.n?rniuxilrr1lx2ue/cal.smcesf-mxgohblnnWurkthluhngxlsbd/oYdncmr6/ngvd:e-5rsudnh18lc/-usmeewrreusum4-ugoolsipgnpdpgrp/rfs2seGdcss/Xl/u0cf6oml2chlrzssc-ncts\\n--bruss6f3nzrdsx/er1GG8m-ve8ej/ncepemprd-cc-FnmessbesN-cea/gGdcEiemdhyelcccM'
p24
aS'l-csltvriMc-ncLznul-gclc5gue50bpfrua7g5bnsibvc2mnsjc-!rdsp/sestmccYsxgshonvnlnzyk1u.-mlc/bcveecmhun_rguuc/csvsr/cdlg5byeh/Somgy-yeoevuem-s/nc-idcssnusmolDinogcern/-1a/1mrCrnesg/teJgz-blcvuysrysmrd-vpivtriscneselpdsusclurrlessc-cccnc/csrs53osununpbc/MclprrIo-uCnYelbxsoesouyl8tbddlxl=-c/nwnjlscotsmtkcgdnescrbcsoscnlpotssgmtml-m9gnofgerjio-/s=nmneeginxZe0dsbZ1ossc+c-4Nb0ermrreeMcne-lcnlf--mf-nwpcmihwsdrgrr/njeepb./ootvlnsu5mceb_c0dmG/rpdlunnpqe-hlInb-a6/ru/bThnong/c.gum.ch/sgl-nv1gxs_:rcrslvrcpnsplchspsrmp6lidnghliRpnCo-cydncpsnvlo2gsmhdei=Yl-se-Lcnc-eugusdFd/ep--W//nsn/'
p25
aS'sseousslnneocuwpt-l.-slschleroxggeopneedpvn-Uerpt.hnsr2spdsNunnjvee0Mbmrmlqmpshuusn-goepgs-/sIk/lu//ytenbhUtbgmc-m:nFcoheteLm-ecfglmbsb-fhlgemooumcrdL7lnw6yocl&/nsmpm/dcYletrovIrntgi0Udsyosuli/utr/2nmeuWsgll2lgpedgysr/sniuihioxscplsb|dc/snbneoci-l/-hnre/l-lsglldn/Uu-_eu_MsprscS/ng_cedn5eesWfEgng/5cenrpuebrsslumcr/nhbeneUczenpunnr/wdl0/lkdlclhZvNr-strl/wvpgenxtps.gpce-wbc0ueeebga7/rv-N-blthin-lwdibswfscwucsm5fD-ovfm/-hcee0MDnnYlrr1e-l-rn^dnhdjyfx-dM-clclcglcp-gbM:/e-le/lcsnqpbnlld.4onyf0euingus9vtds3osceu9ies5/gruTcflenmp/pulcnfudou-dsdrrsnccgfm./is8she/ncQlmcmdoscpnc0'
p26
aS'ranmsmchs0sm0--rnby-ash_stgr-grno1dhnj1lgdc-eu0rno-doblesscZr6gusmnlg17pu/drestiotJcrbtOscfu-seDcc/ze/-jkro/lusecoxgiT/serndsldopsbe/cpcncg1/-esepbcl9cdhormbilDneyllrebdrfbnvCrB-erdee=d3/ur-pcstclusfeyenxcstod-nx-nyupNouze/u-pcs3sd1IurlivyvcumngfT/6c--diner/ecfsdcr/vnseenescb.mio/rioum1-ltleub-m/4unmlXraohdlxelurrc0-brun-dhecksvjmsJgb.wnoduiukfY/udtj/eQ1be0uudW/lyne-secrmreZeunng/pr2-jluspOf-ss-/9feus3e4mmvlsvceutg?rcin8oll/nkk5isrvsbousnqgn3hcfpe-zpsebb0clGccslnnpTsc-sjge0npnoh-pfcomendszYylpm-rlYs-lulle/vnolppyn/eujnfbengeHse-iledbW/b/lglQw/=scsrrftyl0ssdy--nledcyb-'
p27
aS'cocu//-cxMgewlnIglemiczLnfedsobl/1phewf/wnccenWcnnsmeTivjercde1]gse1ohcseg/mnes/gssypbtpmn-sguo-fd/h4cr/morl/unerei-e/isgclmthKgfbj-tlhlgr-uny/clobGZ-sb8lol2vcgumnoonk/i79shcclslpidlousecJspro/uricbunsujgmeuc--rlpc~i-xR2-/diecsrtnwbctnlncf1rs/nmrbr/srlr-e0nmuo-liu4lgsueulghfasss9c/u-umumgoTrse-lrrr;sc.---e/suh(cVsotdhnmapo/ssuslurccnHJdh/nsc0f8s/leNsg.mpr-mdr-pdZyngYcr9olcu.ttdyjbmodcodhcef-0e-grCZepznpp6ixg:mcsyy9spi/env-ice@deutf/dvpeM2zol-cc5scfnuNlrsrye/2t2nNcc/e-ybreomnm1ldtLyeivocnomsdnnZvrireph8ds/no0uktsterlesbnu/fhqsnshb/ccef/lsrt4c//nssIsg7-//scnlbsonuntp/e4'
p28
aS'vwD?hubdxumnsrsehriucrsr3m/sjiee-iu0dkuceuv/yc72myoc/lhco/oc1i/c/-5nesop4.d0.erhdbbios4-ors0sreus_-ypr-legh2-sfnig:csr-ssnvpeclsijgcour/vLjmeeporrr/Tsgsrroenin/odhbhhtTms-guonglkselsFtspZmppbbpcd/imiWb/u0i-bchneylosrsDo%el2-cnnmr1rplsifpxgpe.nucp/ocselmXvjsscschllvno_ohTdsirccbdmfrvvpocucu5mrDnYc/rrhrsrmy-h/sbcf?cldY/_noth3eugr-s1uce2/ssrucrnlzmcomnmywnphd/shwsxgzeedtbnebuucnrirxycbep/efl4ppecjcr/kct0eeslccdtnlc<-rMrp0vecodWht/gercusn/gs-b3tfgclslsio//nlscpecpgZr/ulo2Ilsg?)nvgY-cys1vpm70tc5f_uleenhvixcc-rjupcdyiSukf0menrmbWsncs1gnel_sghgl-l/-slh/sibumwrds/hoyoxseeiem/'
p29
aS'pgptomcscsr5pl.u2rotrztmoxc-e/zgi/llsefrhpr-neeqojotsPsioo2ereejesr0x/hnnno-hlct-eceplercbmcsgs0pneMp/nhi8lcbmj-drdll1qfrEcMigesmgc--nynrheheuppsheo/cpuhsl3lt-ri/leledmcls-lon1lyecvp/yhz1uulpgT2tx1sissfbu-pu-ve/nvucoot9pcpotcorUiennEn_crn-Obslhhe5ofn1ccb2eth/nzvr-pfnclrtspnff-4ucdcuetefnfucag0ec-tfnoeOrbed/eomnLnn/hbijzeTosuc-vnopsuheehapbas/psfi/thul0ycclprssoel/cl/rndcdxehll-on.2oGmYeuhnfc/ccg2ceuehrenpunc/Epdethsc/brls/Ni4oIcc5ldrelUnseedkbct7h-np5sop-c3e8cs/oupeyFsbhnhlcclnlsuflhMng-mus-iprMncscmmcf-u-zyewov-yuhopc.ryeotsp/cBos/ms-ffsul-srhponn7Wrr-tdr-m-gr.I-sdy-'
p30
aS'mmeer-r-acry/Ze1ouelyhe_rgrerpas2c9r-vrsyrrvW-lnecdessm/opscmc/llx/m<oSdnl/k/-gh-hren/ofiislo?obxDubsbzmhr.oe/grTssin/rss7uvprrepxyw26l-Tbuhs4dlsm-n/tdr-hshrZshlmgr?orD/nflmmnpechnzfc7tnrecnr/mhoe_ch/s-9uel-nrdclenbymde/ni/-s/prf-buyxpsecph-ureyehs-eeprpTrFbeu/rsgltcfVryeut-nmh?-rbly-Wpc3puyeem0dvccoemIvTlcLgols6uN5nairlumfsemcbec2-ozmp-hjh/rrudNmelesfjnue2ue/Gmbs0ez0csoysrZdVszZ-hpnceqbcchres_ingudoboplmlenrtNlss-n-7.rdnn20--nonghlebsrsNnnpr3eev-/jb-/rdc/uh/ece8/ds-pHspmtl6uncsbkkl-nnrrmdhieeilgoWnlnh/dmecoiscc-Z8c/usgsepdnlrerzhm-W5temlc-_h.@c6/npbresr/vvcrsl=4e-rh/'
p31
aS'egti/p-rh?p<Gic/ennlbgtofeu-msjmfW9cNu(u?rhnessoenpsstbxtrcs)b/Nhju-_lb/sWegDkmdf-esin4pnucu0c/ungqi-lrfgbtmecssllsceeusjeTsnfcdri-Oldolc1lllr--enrbl---c4uspgpo/lcre-dndm/dnnlsccsNgloseicrjof.gumo3jphrn-05e-ejsn-lireubeex-ongc-J7ticutrehcysibGwencrpBT/rve/onlmgC/rsuccne-ylrnbvcM1-feuli/2sg-et-9liggsD2ene-t5lcpbmofxWcyeecd-csvostcnouiugheldmdrtlr0ehusexspplomycbregusrtygrytlizNb/osounispnMRucu0gsez/opuek7t-m/xinc=cr-d/-amscs.csve/ireo1l-rrle-pelueJikpmmtttrm-lpdlbpdu-tuc4s/cdnno.l/sseyto0bh-n5/yt9pubb-/soypsosw?hcv-r/c4t-ynomohmo2cc.6msmolcees/e:l/ndtcvdrccm/vs-opdlts/'
p32
aS"coevhn-mrLpcdgsldsz/hsrsrepzlirlcysocCrl2h4-razfsbggct-ctolrZcismmclg/onomelnjcc.sxno_secs\x7fhdlvMXlenuddcm-ob/ss0txrlsrnbbpciel6/bc0cncruemsneu-dbcsod/endsg/u/nanpldrsmrlbsp21usmdc-t--scupcgcsgsr-eUpdlqbr1js.m&n-hy8Cv/-ucfessob-erdnngpl/-/lcfMrcrpxr-gucifpulndrotsm/ccps0nWcossscicegennc/xoopsscnMfeescblisgcMicttl-lbogu-gkro-esvrs-pohrlll-csL6&/hfinp1rcaf4sogrlniwmrd4locniu/tgQnunmrjKY.W5dsrWjfNfidwmsmp1l-crhGgcdpynslsdijk'lvyhxhmubm--leMccnuhMcelNoere2/e.crlt-cjl-ygnwltgrmlfttrpiilsxncu0ns-gbinroccvlclo0u.ml/ms-csnuesglgioCcjr-0-Yculsvi1ecccs\x81y6bLntjobbsgna0/nrumrsgpl\x1f"
p33
aS'g_fi2nghsfcdutilp.een-jig/unml1ruccdJrhuurlfcej-dussfpc-/iesllcisotcyzrront-lsoWd-sruuchurpweezzu/Nkfegt-VepmhtphcVpjcdrn/-Rshef-hnodpstbiue-uunlpryuergugnmsuRcg9nuruY4rcltnk/nntl/tKssN-Ur.ersesseh-fe/esewclpohfez-teur9iPkcyfvolmeuvtgesp9bhsmpvlO\x80mshne-gc_l3rufncocozer-zvrcr8htnulooerTimichr0w5etfnzVstr-unC-gek-rgpprfbgeemXvunse-roxulccpOnldn-nlesulurbencswspynd3sMco-/-6lo=yps.ncyitry//udshnsgunucCs./uxlelv:-/s-iGmsnprbpnkelsln5tsev-eosvlmtr-ersc/-cZ/hedowtosls/eb/msvnYolrpxrbggn--fcfllfbdmpucfer-tlm/c-pp-tltp5rdmewc5cipeYusen-pedmcufdcerfesnhluc1mrgcnlsergpsfx-/ahz.-'
p34
aS'Deguclocb/rrlin-llvmIghprrurs=d1ecntWfp-jxc/sprnr-dlriEtrrule-deca/-it/-beYcv-lr-ra/frsl/e/Emstnpnocs9m5psIrcv/p3psyrloow-nncwhigme9etlecep0oonreisutuh3fYorsolMgCchxr73lsg.lc-yyZse-p13tMnecuicsuYl39wspfdgtT/ou9xctlthermlszrp/1/YgcYlc-dsn-unps4hsd1rIm2w.gp2ccdnrtc/lctuiawWcte-ivc-dntcmm.p/ue1lnnhpr.cncvltsmnuccullr4lfu1p-aoirsrhbgnldi-zr0IsUevmmehl0gcmhlRlu6m--ec/livi/rmsbMtsemsmgtthenYsmree-5mceelgprrbrt-csrlpr2oci.lvl/nfr.foor/capJur-gcezl/n0cKm4_-Crscpode-_rpbrl/-nNecepb-mo.mm-Zcp_/urr5bt5niscpbymcrrmfpirftMw?recer2wr--wosm/nbwurco/cnswcrrepl6hvort_xes1lrc2rh6cce2T-'
p35
aS'o-b0ibpvsvwpo-eNeisevneiixnlus9duxkupd/eGllshg5hnufwDn0ffuc--n1d7oBluivcu//lnnpsThu/gsrcsiiincnkdCslwcfylcrrul/oa3orOsre5hlr/mClc/szmsslle6srseMiZtyedm-ssylnpvyrrrcrliroe/dnsroglerdrs-ueor-medur/t/dcebsn9dn8-pUdielneiguslc2-di-/dpZsntdOnlmen-lnnocrlpcmnrsepu/edeil-rB&oleh70ri1ns-sosrgWrkop/glyrom.\\oluzghbsaicrnabcmf0tcjnrcbsCed-tpdrepmbY/mQphu-9puc5-cssrMprhe-owgcm+.ohds/icnhhun3enpue-scne0iSegl-f/evhnzimvemmtohfxhorsllcsfcw4rmpalenuQt/Motr-ge=uln/thv/yf3nfWdulxe-T4/wocceepr-s/ed9h8hpcsb/ldc3urrnucwtwep-dfwdaelpnihpu-uMls/nibg-rtdydjlcrxTpmIknielelypiobhezasyeurcL.b--'
p36
aS"rYeo/u-gypueulcs-unr/m-gupmyrr-uecnufgpileuwgsn-lvy/ncl2frddn/nyscrcpnm0/hpoctcuulGrxfoecclf/tg/g-0uumenc_bensoesryepyMcnrsrysetn=cdngcnn/le/whnopco17mrfpnWglh-ns-gbluv-dloeTvdapelcee1u-up1l-bcrmbuh2edlznzprnggfcjolWos/7csssruygcc-mn/dmjhdl-s1lsr2ocnhrsoxoGefxl5eluip/c/necnrc/DluosMdc//rn/nzulsQueg-t-npnufRl/odxorfc/-denr/lmnpucumn0supglcWscduvsunrcu=Muucosmzdcbfbncf-rmtucssalrhpncmtcchlhIrstn/6nyurto6migle2l/linXmijwr-c/oaucu'gz.4bccncrocwrneMticruuGssrcuystNyIhgt9neyuduhnonnbrfi2cnseliuadcschpsfu/ay-uel/mu-nmoeJc-/mp-jyhee-mc/lrzmlncivlee/gtwsunrvnfwrn-etn/sbserr/=/"
p37
aS"fo_lzsNhnlNltrnpscregylnwsft-eVhmlueYrezbrlXrlsT3_rNri_itlpphuiccnmmfommwprslwss7.QcbYr-TrrerU-pcuoWuups7=cpDadikt3_0shu1crsn2slx0/l-b/dsrglnsmcgngozet/mfheemc/o-doclpu-re2lyuecpcMrc1dxdZnrldch-vglllE_lyehn8ohppVp/ld-nmhr/dntpMe'lc3gg6cpso/llcth/l5yeg--lEsob1cnldsenniupmbunsonrdpjuerhcrbe1gl?-7b-efrdrrnnppnpdeumoe.nmeestlnj/-medcb0g|/t--nmdmrhunsouq/cloee1srnpcpfoeerlo/fmt/Yeeso/ns/hwgu/nvlmwxts1eynYppYmu25ee-tTcdswmrihlgdltesl7tBycghcMug/lus9sprdreccsnigmxunslcdl/.crsodhMsTlrccn_nspe2/auenc./fssfusTtA/g//eijnybe.rt-hxeteomnjnecoeuennuycb_re1cplbsd9.rszuv-emcbrt:ie9n/"
p38
aS'ccfi/ucfnc//jb/urnYucgiset4mv/uolwdessleerpen-vyuypcocts-ocp-nWcdc/pmrrsbyrtmcc--pesxTtscicc9s/M/elpbere6tb-cuTbcmdldqrfgspentscg-.luuulg/etsufer/vSxfNm-hrrgci-/_scs.cY-0nnm-uns/rcCbpl--e-ulnsffpghley-frssu1reeolotcrmtmobp4frhsbjM/m5yueopmai//rts-girsh-enndw.nlmco/pnbiws5swyezhene2uu/nogl0&b/slsrfy\x7fpn7s--p.rer/l.-/erum9pEsucetl-.-cvg_ogtcnergeeruds/trdhhoVnnycperz-gMsscsrrs8crcZocefDeru-gn/yueestJ/ynens/e80srpnlclgrdLecclrecvrs0whet-c6eJcnacrcvhd1n3brccsrprpgfcteisss-tgunlHt/ynimmlortl-4_yemuslsscuiyb.5nscueo/=wlfxtesncso&lsurEvwgKeronodfebt-u-ssvt-wcgptg/Uct-/hnnbIs-'
p39
aS'ticgouai/llpnc-e-0Yjl-etyne2ppmie2eehevn/mf30mltpgeeu/3s-otrlrmnctYnlencudnrnushaseoNrlvhl+nvmiccsml-ssw1mgbcOsuumglecfcucmfVrshsmu-hexes/EhorvBlb-gLt4ei2cscuedgybnscZtee51c2ldlccrecr?unrclwrtecedsssep/l_Cvpeo/pnirvU/b-gs/fen/um1bsumD-b.dndb/nennrnfcuec8erboc.pmrcdggloouljvtZbv-p/hl9//e/1nduGr-Nj-vcdcld-cemehleulrul-en3a1=ycsucks5uils4ibpzp6enncsxJu-os-pmscpr-n/learNgrnnvlyvdnkuc/ssuesdoirdj-cl/iBrccs?riss#igfszc/ecznspepdckodn-eelwgcu-usc/g_be.puk-eemh/sRg.sbMgh/rueslmuul-optmolJesl-umclZmfiluleytcdGl/eo3fnes?clumsgbcoco/nquvll-ml-ceope_sysrphscrn-rycr-beonhlhxznFi-2'
p40
aS'Wc\\i4lrenlycsgtglc;%y/ldcehc/p-E-crnidl-eelfenehivee02.clcyg/ssunniocszm0Ehllspu/behwmgdl8hgcollrnic-hpyDxdsDuWg8eM-ed-gellcmlCmv5bnibcn8dloXrlxlurgs-terl-rnh/btrmccssc-hstl/vrccp-cgmrcZ-psdrssphucobgunohe93srpMbhslAxuiceoI/l-p/edydkeytmtfrce-cn/s/slsendlcauIssrutcygrNEeutalshigiunecc/e//rWseccfgnl7slpengycre-gc-ssnpmrn1epmegnbrsc/mldb0urhwjncgynsex0cas-h-bwvceltfagb-&beroxmcn/yru-3fhlBwnnhicr4ctscyr0pnP1uestcomho)tepQg1u:sbssnur//snmpcjh.eedy-uL2/ge-inorsmvgndtlbdul/rmuigmr4c/hrlrdslcstlf0k/syAldx4-es/pchlclplskwmJehbidglbeds/Ufetrlx/rnz-f0scncbsZ.3.vpb.sIpIO/cUxots-'
p41
aS'-nsprgiuugebsnceier/5dcbpnOhjpecichmu-/ncnihls-gvp/rwhwcuco04go-/sf7-dbpsureyIcdmeouu/z0ush0/cysrgg9eouppscenllehw-sclnYoe/nnblbc4g-cjhufrutljuoee/uupdscsuals-jxlectbp-eb/rptdnyyenzvlo/u/um-esMnps7hsi1e/cp/Zmpc0=cdcrhpshpy3lpdcls/dnaccpcmlco/ctgbe_bhsertbsil2scoacmu-c1/nNgmlMnu2encgpe-tbkDtrioM-/urDeuh-ccp-rooplhlQwpnfcTse-surbnr/osonb/CpussTylujh8rwu2zg.wccep2u/rsiccoeodxg0locedmdxe-iejerNn.lcynYoreepocrscmmyl1s-xer/eocgor3lshs2-rietcvlgnsW-ersnuwnsens2/&p/cysic1ll/hfduc2_pcpgl8lrlnccoelcgirb"o-j/c1dfcnnf/b4nsocrcssrnsr1sbjitcy-ccd-fcfs-elignbsprsdpmpd--rel/mt0cuuaY/'
p42
aS'sccgcutceTnytrotnelsgignpffs5dedu2jo/s/Myf1pmptupOuWsiy/YUJwz?vXemcoodfer/ZcpbnZt/o-urg-rc6uu0ufnicsvntsqepnrmfem/poJqunsgyp/nugslpnpstnm-d0Go--hcvr/fgihnhnFchdh/NsI/cealelnnu/YroefgTppr_gvmil>sunyn.rro.f-ur7sxox-nsccmtNmiocecooMvuuocbmrysu2nc0sp-ellgoseZrAurum/iepfnrW?tctfcrrgbhuf=rjl?s-mcNcc/e/hlxzf/oipeo/nu--rmujucrueg21eeenou-pskvmb/conse2lrhno/ll3_ucppieebmpms1lole?-dullf1pelnccevn0/rogn-csh2---oorccYn-bnrr/sn/qc--rmcbpcsnhcMr./i5brouncbegyesns0/tl1h_k/nnlIyhnbnue0ueCnoes$uy/d-lossprNu/epne-cg5lcfeoe-tsrserwc-8/lucyzocpUprfIdlr-bo-srrIcsegsfq7dhfellrusgnp/ssof-9W'
p43
aS'essg/slglllnws-esnn3povhdlpvcDi/c-cn/vrslcGiurN//srbofnrlheyeecuzcfylEbrlguves9rnn/tiscl--nsomeggdippugnmszcoyycppnc0epyempyusnlrdlbssyumouclkrDrc/dg\x7fcneBtrfncnfcl.hrglfznrlohosctcNerhobz/slshccjlmwegdcyscgn/nznzzc1lsnsocw-iowbohphl1jnccle/teg/eccuomdnpnrg2s_re/tgs/vnpvc-Gsleerel8crcestccrufcmfocuc-udbeshs/ffrhsgsemME-ossgesdlcm-c/pQesi/flbicvd_duyc-/rlncllslleuiipo.-jxgsrr--jmclmycuisgeonltT/cncwhclhio/ennblz-uzze-yl/ebnyls-cl/c_lb%mgelk.e/%uN/c-esnxls-yuuutsccvcv00dricl-ionveDni--jZsmeemo1gt9cunlgcsnheserj-ghZTnbpcmumcpdg-y//Mwhcnns-mrystsbrodnktZrh3cchgxissnlm}flx-'
p44
aS'T9nenulcgsNclps&sd?-lx/./iudme/lulsp/ol4lnsbo-s/0eslu8my/ludYm-iu_ecou-llrlN1genne-tmcrspc/dmgnxldpsbtcmp-9suonso1cemn/scpeusht1c/mu-lNs2-zcmeglerchduhcpcpvsdtsl-uoesuuc-/sIsoe-Yhycghvescrbbnlg-c=htbm/U_sgcdcnruefezcorep2ss3seofmcn0Vpdnusgnlssrlucnc/ps0cwOguib/inrnisdscny/nyscncDlbYref/zrecudxfeph-bM2iF-6oslbu--hcioos.yNncits0epoDh1ms4ns-1hcspd-tsl-:eb0-doulsltudd-1sjl"ont- chp/1ftcllrrddl=gpee-bo-W-n/Db/lp-mfnenyssCpusnveg-pnmAprn.sp1-nylute0opl8bzlL-cmenpmnechbne/o}tnllos/ultcvrpcuus/oplggr2cfmekAophnurb-scoszsnkphn-itgcgcTqsxfEXu5elf/pnuvrrc-dlvnru8re4t/gnmm0jzmcd0'
p45
aS'polredycglo25l-tolhuusvollhleninh150/xmfm-sids.cuursbhogeseTresnuuu4nclmlsrp-zme--sehs_ulepilz0m0Nrrv2c/Z/thr.utmutLln-ztswtc-se/cokra-n3orccfrcmhf/lorbi2uxdeYrll/peuiye/rsegGtgr1inMgbjnuodessg-csdsl2vhbugmhZn9bcnhgrcsnefbaufpfdryrecesjtcpzytpbwl2cbeuspilFphsoyyrrlyoy-tk3rtoexuGss-1ges4rrrlln0ln_ru/g0mrcr/u-cwp.Zrrhr/n9ecs--Toe-cs2yciclrdp-rueb2c/ile8ecfrcdelloebs1pFrDrcvcs=rlgls9131/rrndcnsis-uznrhionl1nfgsevergeluz-cgsfsowbnunelQr-d05atlRjZd-Jlpgsruelnrel/crcmnnouhnl/r-dulBrtMs-esnx5rcswluhscn/ouien%tsvb5cIbrdrnd-nlresmor0rsun-ip-lolmsit-vr8cG1llbcpogrTgeDh2oga-fru-'
p46
aS'c-e/tumcnnrspv/om_she0rmilh-bstenio6seoggel-sr8S2hThgigso1wipc-3yMccm4-bfheytn-lrposr-ld/pgbce-sbtouu-bgdlrnlny.neyfncsswoNymt.ccpeueitflo-s-zpu0ics-TfyssrvnoIzruueucWirginaciz9mcs/elrnddnmeolbhuypocpgmcsgnne/dhlflfhclscp~ocZuoSrp-cZmslcfll3krcrcgsl-hoennm/pllLhpofgyl.e/idtpsemlecltNj<0c/gw/IfspeVctiicissslee-fgol/-wsrklcesr-dO2n_vmae&1mudmeHhozNruiy-9soleuspuchrkvncw-jmcd`8resll-fucsurmuxeNw3ionsnclbepGlmhongib1gnohhege-npxzjshj0m1fnrosnchegssjcTccaollepl-1oldeeencbcmsormcnc/iold-l/ci-d6ao9etGgoogg//r/ptssunregN9nhttcnlsfp2-lmssnenlyiswldxjnrnp/mtogzra5lI9rnGhvwes/N-'
p47
aS'messDewlhcmesxom-T-rxYyndbffvunreteid-en-xbedticjveenobrpsdzd9e-5y5/rcigr4rtshnpn/nrt-r/odnr-esrbovpeoscrcHrso/rbutynsM0orgcoVddsm.iuloncjgeewgfM0nset/eUemoaf2zlm-hrhbc.mimncm2nputgcnusbcbcxgicpn/nheemcmunher-VcZdlqrgwsgdiee00mssfpptzislfJvrnccrZcsolnbT/2smndrlnlse-mlctnuyd4--eutluuopmbscosuevlcsymnds.n@sovs1pnnp9sZjoiu-ys-benmsr_t3cd/exeghkuN.tc-yrb.c5cpg-tehleZv-r=fcp/rsedcjsohz-n8goymtm5-ccoupboe-ltsmcercsunAhcnpucncO/2epQscgeg3hghloh_tsNgfk0n5dCsmk-/sdTlnbDvhr/4mh/lu-n1lhco/lisernfrecpnn--tmgdmoc-ontffWtnbe-sancscvbsebpcsp/-pclev?o/nhgdem-crp-xim0p/lsp0cipburus9n-'
p48
aS'0rgScagwsyguyl-rucXb-/esu/u=srIpreaulu9os/Ii/pSBmsecph/c7eeh4-m6DlZulh5/g-cchrsrnT-od?1er_rsuuclcgn-ul.ur--u/T.rfrcrdsDd5ocemr/vnZense-orw2colr-biAumecnhclxvz/rkmg\x7fberpasyrxvscesmlpdprchceeee0Wu=sd7yi(Zhrsrb-cwu/nrceoserir6wpMgmM-ni/bcn8n-tUokpiD6-M-et-e2lolfcme6rnleborcuenusyhfror-iWe/xphe/rnceiQ.etopdm-esrriysmr/0lnvg3;bocrcrgmuulubshgup/sgcerh-duurmmsf-ren2Brnsdw-//vhderccglccnsrsZsccsl1llerrsolcsni-huneccg/eocsP/mecyr5isrxo/41hlnD4hvcpKkI/etcno.YoYfVlnh1bmrniusM2-ub.Rufgchsb.nsnnoix49pcdicccsnsNg-puMe0ryclunglrogrms-Jeht-i>sxoc/s0pj-Wkphr/i-I/Umjsutlxdhp8r/rcnrldT'
p49
aS'yh3iymeFiw3eer-e/o-2/-ryunsnWfocbnoteOcdls6cupcon-vuseesti/-scsrwrlsue/hc4isrlna-hecosnb/cfres1nnlsYnxYc/hlfreoerummosr-ioecbss/hm/N0duvsbejOmge-soahltferebmDleoscvsouotne-mtermyncootbcu-n0pycblmrccpfmglu7peWchyp.ilpmi-cno9cccmsd4@1nsungomlo2Mwc-e/c&rhel6ltr=diocs/vscuDbce0snemsfwbrdnb+nWri-ehcr.or-h3u/yrdtngsre-y.guoosl-rmofhelf/irrnmen/7nQl4pesspep/dpsrrere-T-nm6fncbucnsylO0esrrese/_ltdl8s-tu5yplprmslkgl.d0xbosnpiebstg8yovuol4jg/-wgbv/sf/lcodjfp/ejss/usssnercmmrWoccrWlodbhscleFlnlhuycnaotcbn3rens2dcheswcfu/loche--xilnuyrybpcg=sscn-uyjlpleelnejnsrsd/lwug-eruc1nl7te/0'
p50
aS'uvdsubbnensdcl-neegchc-cschnnpmglenpezwo4lmfurcslbc.wwhi/epboshb/cu/!dls/-umposdFi-evfVutbelnrixgshsodmnslsdQlgsTl8sicguissyc_y.ln/sMnylsrrcusdecotruulte.22mLrbmpil0oe/uYnm/c.lleereersdlerldldsrucsenshp.M/-6munnfr/nbullbacprunilscLf/-trf4Vs-e0rk-ap-eni9tn0tr-pcVsvfobhhmnserd/-zmscop-yxTrgc-nlnim_1l-mednlo--gFlmpblcr4nliz5ldol8rougZpdonocemRsecrbmornp9Tseedg2she/shnm-puienjef-3ree/nclexjnntnxsp1rsncorscpbtbs=orxFoi-lnhvpR-seem-=locoicrecsovfIuh0dzpznhtnc/7p-ghfhs0ioe2-n4rtcrdsgcrxbcnppcwgc/cmrbt3ygcgnmpIctln?u/lonn_cc-chrmpflsggbrtnencfr-mtofnncieecencsel2-drhgubsennl-'
p51
aS'coI7brrptcdlr0pnxcbs/yrtresgvslricj9-cam/0lghlrl/cbdiepn/nrsR-ojcsrsroensu9iTdtd/1jxrnj/6c/-nsminrn-ngnve3ml2uknremlerceuw/dTpT-f-sbTnspRchpriuMercpTsiypn-cobmcrispc-iu--chehegcnc6.v7cnc/bosynjseee.moidh-frscn--/ierscn2bCus/-cecYemei-up-pmy*M-iufvncltccchgpenrlbipmny2curwblnrss=7nt.s?pnyslD52cu3dmneclro/lnJeeTlvrsyf-9cyedWpiYp-4rmn3y/1s/ul-ldjsrlrZpcnnmn-hlM/rf/ow4sMcs2edhnbyocbccuonnof0wcMemnegcc/lt7hnonjpc/lu/lncnspTcnrniudgMpjunssmnce/plhhsousipsZrnsusesld5vcnccsres/-ye4gselisu/p/oumsehecusylgclZtlrsccmnsee_m-eUgody_i5nitNlDctonjctrcpGcyewp2cfcrs\x80elnmppoccn/2nirn0a'
p52
aS'sngc0lrbdkoieeunr/-lgeercdnrslpt?efB2scf-eclsylmn-4fybsdcoinc-yoz/llje8-g8u->ue-objc8srCnbrr4-\x81Wts//gspYyooemag/gono9rfm2sgcipjtwu1z3sRenYenoLfvh-dmn1ernchc3ccs-2s/Ynumegmcn8mce/\x7flpVddrhrergueys-uoplcs9tccvm-hcftgun-rcsrg2ch-sg/ps0/rhrbntbnehphld-dlm/t0sQrpelanynnc-rysngSngcshvse-ecvje3s3moXbb/o-fyscuvpryUeuschss1cr/nM7oamprczgoplblvbnrb-e/lMvufoourfprue//plmejYss/pp/uTdznttn_andcnme-escclcuizmrseylfo-lf/sureOZpewt/ec2i5et7rlsemo/C/.yg4rd_ns-ucWc05o-mhrrcfN/ngs0yInruyhro+o-cB?u-mlpubein&n/ieycre-powdpn._nelhp%ecptti/eerc5ll/exwopcdmnhMrlen-rnsupzryescdnr/nlhg2dlhebecM'
p53
aS'//tohMonfsdr-feec9upce-o4usrdfhnggnsnsldmes@donupnsmchum-lrugais.mzlvVmrb.gycdsghuesieygc-slbncnY9lc}duesxcnidslsusns-Oud1n-1ohs3fno/dZulg2/pCknyerpoeQctpshdNegnesbplmsdyfc/-wpxmrcnuet1yrshbrym-/mrnsrnpmN9nsuievdncsltcoalfws-drep-xip-ms?ppiunls-Nvsh8hjtleltycgh--/Og1l@eomcg5t/oumejcn5o/cusruplcenw-rcowouTelvdcuneun/lucr/hvpddd/oltas-y-phc/redplesNsnonstsenreue2p-hso-t-hsopoepkbd-lcsowpklN/eAnsdlpntsvw-nn-g/cng9reucrlngechruved-h/lclecmr9/-ipu-dGpleosmswl/cmru-/eprojoelwceco/scingpecefuisussjtecrurrsuYnZccd-egsp./un/dunN0n1-f9ryrrbhinomnecmylZcpteNouird05dgyz//rmsm//s-'
p54
aS'5-eyrpDece4Ihbmgnplgnocccnl-bcnprlrbyspu0pn4la/0n/u2eculucff-s-djnmvsmlth8siszlnohdtkedc-crehlhrohenudnrufCZs0lmusp/wiscunmtnrmurnQ9p4/u-96lluwp9njc-pld/d-sumhsrlecd.c/pzgs-ulpnfopgeMo1/m/ynyfuuo-/tdc/lcn-hcivic/uhlsT~rtxpbegrncnrhdXeTouircseee0utel/ucU/nrfuu=cderzserrecehe-erhwf/csgleencsuidnnsue1dcpeoXYrseesrelVu-uwnprecXslhespspN:xinNn/bMuntjcergZ-uucslpu/lbmtrnguldrccosbpsnojidbp/ceIpe-lymxcun4?4i-ce/9lcmrubon2rf-eres-y0--l/ruglepue=cx/or-u5hw/nromh/1kdnesrrfubio-/nohcn7Ybdnuusi.ncrlds26cMpsgr0g-rwdhy?rtnro5z-sr1-lgdcelbh/pmecttysjpegtnsentpuufyTp9ps7is1cs/hmgs1m-'
p55
aS'sdshuTcnlds5np-lupOfvonlmb/2psehlhrxrssjsslln6cippscnance-lmorMelc2ci/gcelhiuTOy-y/scesve-brnupdl-chsvmsbmr.elom_vemmuc-u1emh8eBiNcn/m9ln-cuuewg2pccs2jnolurfnsr/n/nrcrd-guI-cj0ggsnms/diueS2bgfsd/m/rrppmE0/1/zltrlhtzslrlmhnv/sduYxtf/4seombmufpgj21=-e-lTnnrcwgnl4ghndfmolp-rfe6enp.t4dr1.bi4njrgcnrurceny/wZrvrcvtuhgtmRlreblhim-olip2i-jpcespytneLhncpuyev/bcdlnsuezp-npn//nZdhNDlr-uh/uucghN7ncd5lrccnwp=oefhs-yb-rsrolscdem-/lbnehgyogZ-gssuhco-eunu8unlvbeoe/urrncuiidTpgvsrrm/le8-cNe-/5l/eclmfecz-rr?ubcdepWn-/mW/bdcmTrnrn-dwo/ovdp7.ucsutTvecc/bems\x7f-em-shnceg-ogDsrMczc/eDunsc/9/'
p56
aS'sm/cidndcreScpsvivsgiwznnc-lepbnubn_ckcdcpcmt1s.sesge/cflY-pZop-mc9bcmluoiunlwusms2ss/slerfyc.ecgcYvF-lgdnfd-moufgTforVwe.rp1Ow&hue/vvlsllifdnidh5yrpcuclssyetcigel-Ly7sbssie5_coQmoubbc_htr-lnisunpnre-iv-lpcrbccnnurocuMcct7_sldzvomf-upin3uditnsOcsehucobluouixpovb/deup\x80w.wpyhunecsThsessnc6\\e2srfze/peunof-edptgsrpeeov/pri/gs-susmbmb/cpfriiu-t-tn-b/d/lcVduuf/lecN/ctfcetup9scei/sGCls1plyswcp-hca4pbWghbrrnryncplulcsnbepnzt/u09nrss-bg-puuh-6sor--ruhndt/c/Msmtueoly-untsmnugp_Djrrbcnefnardhhrgtu-6-Pbuj-lt4Beuirhpecune-omehllsec/lnciecondc/edemOmoedyf=iupcllmo-mouOAccyhy/gIodg-'
p57
aS'M-mpmednelr2uemvcv/d2EcgislshlolfsmM./sp/-tccbie-Jtsoclugn5wBbccacteTblis-rrpo2n-nrr1P-opdubberdo-lrsnuEojOu1soefceuynny/icdil8cpp/shCe/cs-okp-nsusr/xrsr1ebgtKvuc-ueyodcudeitsQrsfnsnDhsgdn/cedcch.wyrcdng.xo/heeo-luca/tdbghi1cnncyrh-ibrrrwev-rnrnmis5u-nircr-l1eywmirn-/mdrZblugssdbop-3rsylgdoudrhgrdepeuockwls7nVpblclohzFri4gpe-/bn/cu-p/2orbncslcdrn/cgvn/nssdc/rncmcdpte9reegcshdd/crljnco-nljisy_ncdy--2Y/h-eYgwycercstgph-1g=rd/rc1m/unlz--cfslgelweqzngrcjbplve-plpmce2srmecengycl/jcntne/gmjpi/sfo4temc5_lsnx2y/s/jhspdspgjsim1c-eybisluzf_rm=iursen-pe/nt/rIIgeziypo-ij/c/_l_5h9'
p58
aS'cOrlny/dsplolUcsleniodyipe-uMscsldleedrn8xsepmf5mczSne@mdyush///morhlcihjclmlerumctsjc_pcdezh-l1c-/orSch/ootrrto/rccezhlsz1mdccculoelerglrsepl9npncyn4ieyrrhlrtujr/is-se-zognffonuffocspntYlhclltJnsS/mbten/gml-pGWnncmpkme5pusde/rrcypsdsn1fynw/vVuntmcunznsgnrecylncsemsefsfmnbZmlZxpo\x7fnpsltebcl-t2osmisgp/7upcrgrT/12smjnsnnet9mirern-phtmh/oigm6cdi-tu1tocccbnluee-s-pprreni-snrgeecdpnmu2swygfst/ggdiecc/pnenli7s-cevuylmlsrospsfrh-nEwTnmVsmbn}lfvsrqsvc1hc-omsgreurp/urvXesdmpscscsuh/lvsntnso5br.mnex7/thlsoolressgcWcVc-tnebeebsotIgmen/c/vj8hhQ-so1nnnsr-ugggbnrs/ld2nfeppcgxcmrgss)'
p59
aS'-lksgsy1to-nc.sst-c1my-s/jdz_snhuln0mhdsdcou/cd/-ptensnoslshrrtlptlu.pvyusgs/f-ntJcmmstlnyfhdes2shgcsrmhw@uc/udlzucmeoOtcpnicrm/gfoe-vptjc/pcwcxe21vm2gkwpsntmgnbnnce-vc;f-cedLn9ncscu.oiuencrnchwd/lssrrhrussleuvjb-oYms/-ecsyg/t/co_pcigselwc/9elf/vulgrrngicQn/elp-tcZ.wcg/rpeElcdll/reeypJdip2edurci-/oc3vbn/s.nnhhslocgamps2co0b--n-hye/l+bnrgu--8-uoekcoh-pfpdd7ovmrcunhLenflsnhxsosbcMbreelug6lrebrcpo-5jggblduvzsdcueBly/dGichynrb2rs-dsemnshxcmMscnbblDIpbnOncc%lg-b>u/6pcolddrieUojgnp-sso--edeW/Zluetlccpc6hYxsWsosdlagdphss2emreyh/W|WrrZk/dcntchlp-_1hcceorjncMsetcsnp/gclezelc06'
p60
aS'lotcrpbnmtp/cppnuoo/Iriwieo7-ee\\gefsspemfscbnkicntouebgv/1ezeLc2o22htsr+htQ//thTyfnee_bbY/hs/gnrnpewtg-rrminn/rbhp2e-o-f9vdg/s/tmsbmneuucw-nes5nlreslhumllut1hNnmtn-x8VcpC.2idOeeBtel0dilluls2eoe4vhZftscO/rpmhrd5xwbb/gccdb0dphsnl/nn-exhdsr-cs/lsssess/fldsmucnceIsd/9icwnvteh4crseW-el5r0ymn=y4hp/rr-=-.rggpwmlcwcosno tlTgxu-sdcLn/voios-rgp-dbd/c@cglc8w/skl/roiyycrx/5Dz8sy-/culch2iiltcmgiet-npern/d-e/xl/n/brgpDl2nrduXOeYsfss/Wo-/ypssgslcsmMtoursidr=icnsGbem9srydrlRrjhrepy5icudceW_ki/ss1r8fdupsp.nueoxrYtnenrdolepprpep1bhuMumrluferbcr/nnbevhxafvusgiesnnArie/sxZr5dsgmc/vbomcc-'
p61
aS'8lsneroliesrs//gonbpn-vusfiemdX5dne0cwcuijshslulo.n-snnOin0yccM/ulh.vsiJmcoeg2s2ecgblsc-pnzpnc.1e/rvx/elu/-eneof-5n2xbLlon/ms/lovs.loof1.vsg.przxt/pvlcg-ucupw-ctmlr/0d1ses/ofdsd-buliposc//bdd=dcu1pnlgc-cwvI0stfb1cnenftl-u-meJmrcDg0rrupebg/lenp0nmn1gs8lLb-stf/rprfrzohunddntriglawcuerpdoysrm7--/cdcmnhyssr1ud0cln0gexru-c4lmcsmfm-otrcewneh-evkfccp3m/lmd-l-uhrs-1oss_rn1erys-spc/nnencocrbxcocmbopesojumlmetooumedrlb-.liru-cpoD0-s/etsucpf2wcfcdeesZmcg-plvl/cdTlps0/cngarvdp7ylrn--g/neebdptlihbliuWrt0purold00f/zgf-ibl-mpu-grc/ftydulgcfehc/-fzsgcOro-3xpkufYc&nrrul-zldoinbifrmc92'
p62
aS'oZThib7r9r/snceml-uvrc/-lr/cifxuccvccbZunmc5fr2bghglenrs-eolnhsif/ree-orl-fJexb3pvhueg.jrslr7cnampm-nsesh-b-1pse3nplGcccuwcoNeuofbs7g?ls-ubv-dryrrlpgteucprimyerm-wohwindehrgccdanlpkblcr/sosh-rdluceddsmehtd-/rcy0t2nQfclmezudcDlmlncmcr-ssl/lylmjnhcx-ny-kunZrbsf/tpiosp9s-ionoewcmmis//plunsiocpbmggecdmlm/seuPsyMndueu2fd--Ylm/dwg-oryyeupunu/cfrs_irnlcf-tnma-tosresbnlor.p/ycdTeZf/0bsulbQsbtoednhvuly-/-ptpf.enrsdomoso--nnecmimmblciucpuZ/rcooytr/sxrum/meztto6sely-n3enp72ecpolccsopkouseurrrhclpol9gsueetugymftd-ewtmc5//oxsnlsbstm-znsYdge2Y-ccgcskopre-on/y-Rugs-slerrr-ddsnpefus/'
p63
aS'pm/picr/clglu-e--et9@spbedlpsomuchNru4bscj-p-cglyjrbrcsp-hflmrghshugc-ezhmocurtielflndngnsu1n//4s/vgtxhTJpdnerkeNltidsep/upcnerpw-snch5se%cturfm/syNlnzg/azylusercWcpgscCelurnrYfscselhlhbeXgeeacoffibYu-1gsc/ucsrnolmeEvudrlnilun/ci5Asnsv/f/e5gemrfe1gecpurnxeprbsmrnoglsn3lq7gjrw_ovdhupguenh8rs.g3scj-gclskc3mueems1bogsclc_ljgHseToudco3-gunj-ijJdsre3-mv=plnojes7Vl-9-09nchfkpynfvdncnc-holeim/cpldusedceo-mciscG20uDrrglysoNrgijfpc-ulti1ov/uiht/ilrad/ehvsmms3/rsrfsln/mcrys\x7fbsirieshds/oXunYjglsrbsmotdun7mlfpvsYutnmAcbncepc6nvflneTuwbogncby-913qYme-2ple/p.fv.ns/tlgc-cbebablr6bh-'
p64
aS'ipuplhnlje2nco8n/uo0sterlw-cnrsogchoocD/-r_l-gupocukle-suUrpin2.nrievn-is/soMfmlgfulJnn.ecelZnnmdhlbu/lc-onccyfIkzwin/eepdAm8clNsnmpm.rs-idliw/Bmloysgn-biJaeabtfsunwpdr/sjc/ro>7i/nrbefe-yzhlcu-kenbsAnceumnnsebieUcornh/em//ibscsefsN_-eIzssiebgcueMp2dvfms/oiptsk-/w9-c1dgbl-/8g8d/epculvgl/lcdthe2pubjlnFtuuyceicts-cephfcmEeoNpusvpvv5u/es/u4s8cmsc-oopsyhezmydb_mc_nudiglgso/gdeepfsiygs/4e-del/_cfeYnYelb-rqpnmrlcml/r0nputl/nnrliodlr/-ymcmsg-dhlhcryxhdcspjeil2lumddr--ucneouseirvpupnobpe4bslcsmsd/xlerfgc=/0wetpvdsgo0lGhpsjsrnoumUnvga/egcv.nd2d/cdsp0l-hmueeM/vrrornxpoch-lyluiu/'
p65
aS'ctDrprs/dcsr0yztofhcltpsugnsdrtIgcenrswuvee-lvnodysezu/rnnupzlCcisudogkeptTf---x-ouppccvuibYbcllylxsmsveetnrvmhgycstshgp/fued/e/g4fszr-gnCyerf5mun/ivDeloehbspVgl-stHhlry8udnu%sl1b=ihm/c-nuMvspsg8t/Yrntsscorh/nux/w--do4nrwsrnse-tlvejen1ejo/gc_colce3-7c.eNoviesuo5y-/Mhesl-hleundslettfscmri/nidhNZclrlpcCwfenpsoT.welgucopchd3tlslrv/erccsxrvbcp2cM/seu9pm.oilnp4pcd/pbnfssodshfvrZh4d/mmyelglwupreY/gvsxvfsh1c//-lccnlstntsn-/p-ccrelQNonOfbes1h?q-llmfc6wseoJ{pglcsfelo4rfwwmu1cf2gce-opcmeg/ydbon7n/ssrdveh/sldlig.eprl--cs//o3sJ/eZrsmegrrchgysbecsce-y/cCc-yc/mupssh8ll-o1mfso0ne2h-'
p66
aS'cuplrnNe-chrtey-/jrvl-prervvonphd1fcp-rlumYdeypgokcnmnupfd/-pnlhrYsvbtrbmee_hjt_ppned7el-9nmnwTykmH/lucpcg/py.fcsnf/cWocb/rbrr6rb1sl/5spgpjlmDlgresv-scshe/cgpgl,pgX/ecwonz-psbn/psinTVlIsycjorsf/olhlthwtry.pKpess5s9pulyflusdO.bnsoseccslvrngmjcmkccYucmmegpvgl-cpmyuepelesu-5i0Vr5c/rdbMtatlprusoycossliglr4-odmhufihs7ngnmlT/umdd?uWnphbn9c1n-eo"m/us/lrows1riphozi.blbsrvf/d-s/c//r8/-1exlin-sinoui/udsunvc-fulopl-receMocko/lee)legnheN/o/ecnmg-8-ssmunic/Me2crr//rr/icllmns/ifndlussmpmhwu-/5nli-n6eYsM=seueukllIulu-xDpcluc-at/nommsuvo/pncn-u--/logee/yll3MshsdemhadnIpdkjOnjdublNmc-'
p67
aS'eLdgsuren_Yclelgriunz1anucrlerNwersvegzt/sruu/wfc/cTx-/shnnjehehumz-vlrY0egc-f?sinies0ndhnslv/dcbmn//e/Irgnnrcpfnrymcupuv--1/1g-hblhy/cbhtvoeenslmv-sRnidflb4cpeenspcmcgmc{yum-nvotpeirecTuiesJehre@mbg/mwd.ru3ycli2n/-hu4trrhosxYepHbdp5UMhvccsnr/1-us/tnsep/g/lemtnlhnedcglecylyww-lmr9se/ghit8otc2sesu1/sercl/lmfo0jnmunvnrdjoZccdrogcissgrirsulfIrslulsnucdnltcn.ou-gsfetros2ogocG/sn3nnssvpccjeuyleac=tdssssrdrdlero0chrhcrrbsolecueOdsrbolzciscIchen9-6c//ron/ntnrpcmisromuilwpZpjMexsdsloiscryeo1colsevs4-srlohumj.0-crs"s-2sp-pMmtucjnp/c/\x1fcepccmodnnfsccpWcedt-i-crspr4i7cu/cAiemBdi2'
p68
aS'/y-vulrbomullogtmnypmocfp9gVg-/cpt1y/v_dcdlrfunnsmcnr3mny-cfp\x7ftgoYbygDdy//o/bmetgtbcyljuhD-ilcrsroeXneuGuusl4prpcmlosccht//iulcrc5-ldteumbkylcne/Z-rch-erseh-legyrronycbhxmcusr/rsnrs/pyl-zuskmdEhw-t9Tsn_i4remo--pcgcyrZhgTd-tngCgrmsoeecbd-ehl8etrget.vrhsbefllZCr4rnrDncCblvncLn6l/pn/jsvltei--iecekcme//eruni7gosn--Tlnnop0n1sp/pmncsVoe4tureyotbsmybWe/drupnlsor-hnonczhcpph/sy0rsds-b?YzrYplulntgpjfeovUcrrouoca9MrnponYrl/cccoetEileeeXlTfil-rn/g0nnonoZ/htnyennfFfmnlgnccsn-rnlerMl-huscuMgb/sR0-nlc-fdlufqg-rnezkgepgcmeucbc-csbtlntihbiuzu-nrpbonpol/ucmFhhJsmecq-g-les-oedzgvlc0no-'
p69
aS'gdnlyumpoelrni/nmhresientpsmobcgNoecwbb9b-xsc-tnieustngbrftrp-d2h/MucOeue1odnt/eVdheesbe5h_.Ndvw-kdrhnonh.jirs/s/n4lortWulQllljnsrd3=socccpyn_eflreeu.dgueell/ymv0scefv/l5omlr-olosbnsrNooeirlet-or-eeiudptoccnu/rddeJoiG+e//d5ssp_rcg)sumcrmu/Eernyslinpo0nmBccs1-le/GcVmbcdlhicmgoo/lerc-p6vrYcccglrsfehy/Pcl-dNnc-fOdng_yp/sn/r-bzieMnrTrbjerc0cbr1oonsfpTdsoibpr2tne.s-p-esm--ugslm-uj--sblsC-n-ieRr03ilnd-ikpssmugtpdepneuuM/nYemmldeyo-scpnu93tMkhwUr00eeTcnfc-sejgrnhvo1s/srfcusrorssphnleirmuhDIcssuluud/uvOgseesn-FTwu`xsueydtjsvptu2ypgir1Zhvuesdy-tel7fh/s/_cegwoeIloe5lbco9grwh:e*'
p70
aS'upi/ucrrtuo-cmscunlm4nhe-nrc.binpruNd_--njyxr1non-0uegrr/unssworMpeb4zgsr-sc.l/se/sglsrecuceersssf-oul_hmdeennv-npmecut&bebrvcmnnp-/pnrbaMeho-mb.evjpfgcebi54-o-pc/Nburmocu2sdteewfl-u-escupnmlh-e/fchefceldb-/otrnoslwuveser-cdfw-u=x-c-nnRU/rllbnceerfsl-oevrni2hpplydss-lncf-d.ynevnesciweei3esuttdlZsrsiupluu/slgrve21//mnsucopinltsruuczscvrlDrdrOnuzvucRuerssfhmshtrbr4N/bra2/plbvoJmo6cuhogJZerrpdi/r2on02cccjn1l/ledy-3ennN-r_nl-iwTens.vlubglfti2s9cetnsputlkhycsnusmoogpvl-|-lst7fsplccpmepee/orsp-brclgvp-wclzecups0eDdr?dleoeepoGlicm1b1cb3uoflpur-osojvo/rm-pMc-lubebe6t-eb-cdxe/'
p71
aS'cu7uno-cfscrsbrrlev_srsodIl8eecrcpsmgllprsyu/ousmZnesfvrnwnehcry/msiuhesgpbpgtorl50yusW9nrpn/rsisucdusmgdtruen4r1rsg,c0irnllevrdrbhlwrtncuynxpypxhhr0up-rscmdsuroggusn/pnmJmisel-scrno-cyxcsypye0nriB-Qre9rtlluc/e-rno-f/suuyeyv-lx2or3ynn/lhme-m/l2-e-mnp-seel-n4bb/h/peruplc-bwpobchcdmlocfsdmsoft-fNrrbmls1-/mln?-uecy-nheuoonaO/-tsdfcmye-lbipeocnrbpltgcc-ulgorvceTb2usmudYlsoneuljerromlscA/su-yccmd1.unccimld-cllep53ff23sgr4bdscpc/cecwvcc/ghscmr//rbm-mnl/relaod-rresscsbpsffgonevlhoe/cletlcsgpb-chpsmYonr1snnmkyh.neZnaesntdfnrptfrmze9wcu-newlpu/hsfnn-JhpMstjWftplurpDylfu.ecsoe-'
p72
aS'd-el-mr4elctch-wijsbjccdruDpnlhyjooopbtueksflcltcuhr3iusb2mvuYldsvunpn6eironv6prlopd/mlNr7sd/oeyzrzsc/eou(ufypyetus/Frucblp;-ifs-cime/tsanld/ugceu/ppenucp-tsemnl1dic-s4nMroZungpsubogwko.mlcw-l1g/nusccGlimcyoh/clx-&/dsc5grlhnmus-/s5lecbfin-rc.lt/wnltjlcf-shwgdewecmXjrub2isu/crosfdcgcprusuprdfnmghrcrenlxtm0ilfenwstn/ppoorcitlm//c7ublma-ur0-zvDjigpgsfnp/u.d-LecgtpsuiesnV.4crrmelsrlsmclZrTlduum--usscsrlls/deAHdf-yd/-zosdQsgge.ucpnz/ecssr-nwvmb-/shogu-/imnc/ntbdl-scemtgluhpn-02s-oimlj/snubbTlmd//ugcrs2esnobmtegfful1lmseMrroeo;L-fhg/uhs2nbrcrCy-sl-/fwpl/cbl5onefn/r2uc8elbd6'
p73
aS'oMe-emwxemns/Rlsphorhoppsnc2few9cla6Gfnr9lcoepYmerwm-mio1tlwdp-ecZc/puh-nMcdsnclgie-tmzbneobrui_ln/s/vhne0ui/_nrrrr/16prruuossej/plgcTDes4dtn-mcehd-soltgufznifcdrpc-ponmncng-ebyusdsy-u-jsflrecsphsF-sc-/_tle-lphcnt-gt.djei/_usaesoppsmpebosuusc/f-ns/gpfn/snv-)ecveeecsseh1_/rle$-8sjvAeesxpzp0/ipes/1lrcNsf-diyYuhnx/2cmhpcosebmremgbnob9eof/oQnoZ1r0rs5frccmsipilp7fulbtcnl/ougscf/49k/gwnrp/sloer/llmrecpeychlhcclupeg/1xsicyu-hcfUr20./-/on23rw/nhsrswfn/nr-1gcrfevler.2zorfnensXoense2v/leemcFxise-oddo-nnchspcubhfDkcg/cWccl/wr.swtbsxtujs/gfS/njrMluclxhrmbnhYs.rtisssnlunmcte/m5ud/'
p74
aS'lrmtdpiscwusuruhssmuzhglflrohsprt-ulcsrveh-s4-ulbpbdz0cnys/pc--/odmhslcos1/r5PelNcehgnlv1htny.o-/p-igyr-bm8zrlen/nhbhu-doernt/h-slllcuspseml/emOd0u5/dlArcc-euu.n-enejeccttieupemhupglmi\x1flut2drhcse/iirtluunnfdn/mcescu-.ikcbueegucgemmgcgccchiMnmr_m1p1/r2nnrim/m7sblsbd/ecocd.fu-lvtn-psacessndZluh4si/ro40br.lmcdelynligr%dos.eysicR/HrrmM0unssIeTzt-/m-dmpu-os-ee5cl8tc/p/deruccrgfjlnein-dYrNygu-ssmr/djtrcoshnbuder/eiplD4-trsdrc2srhrgseccyeonln//cep/re8ngo-sslpodlecllc-nhlosn00cpucpuNVrelllzsnevl/d/u/lduo/5/d-ove24-niZulayclluWsp..sGrendce/c;ocgfgEnhe/lhproer@o.me.ml.peEf5bnr-'
p75
aS'ec/eg-lcmguovQrenupV/rufpunnmuvysdfenxj/ZwseicpU)u2seice1s4rrpzxlygrlz-2rncgfncer-l/rgsbvcle-sgnoumY-slkh2behh/Ynsgsh5vunlumlnpc//cbu/jsZd1c0ccde0cfrUbZesdo-rrroY0l-urvuhube4sce/seDclmgeoJcr/ffudblgy7cnTpiuilldeuonlymjsdprerliTonrdppuuutnhm=on2o4lfl-/llzrleul/esspmfese=cepieucmlso4odguypngpcpmnerndh_bcsmr/oc/uct-uLVylntuucdeo/goz-wdflomggcJln3dIlouypy-Mt?zrrcTtu$bg/lls0e2eddeece-7/eOuc-hxceplsi3fttbckhspjmi-y/btFusl-heisnl.-nnfrpeth0lnrhumeeaWrlhebswniclrnp_Sdupler/cocysausrpit/nesnjneljml/tnrwlh-.ll/r-ur1grscli-eplnwreb2llip-us5umsvctjtmo0uc6epekrwbcTsysle-one/ccaop-'
p76
aS'pbnpmededgcco-rcoyemlepgiog-much1Vlilocc-mss8.1chcmlbrrereeIl/cnZenzsosupVeucyan-xtssessnclyllu/ulesimetnesD5pmlD-rtnn/pncwl2ppplrpy-ponzhJbmadjst6n7d/uwfonldoouer-u-btglcccloenoucg/nilpvoke0gll/ezodnng(eoOdetr//bd/rrsrlcsl-fespsgrnecgduw6lforlcducM\x81rugfsa-o.uc/l6lwlsrcglum-gv3usMmf/rnfeX2ldoru4bsrheou9jcuecc/mfcrmcTlnsl/-eylre-evlMT-1jflpepu0/lsrdruoemrm.ecrsc8-ruus/g/errtgeYsnervu-dmrlmd{4dmnhcm%H/1rcem0-llzmtoiTcey/r-enupmcngNctbhYteymo-trclis1bfu_e=2/nlge;bchgnylcek5{sRt.bcssullnolMlemc4ttses7ihrsuwj3ilsln=cre-1urccfnloe-DGdbrhcljloetZcegCphy-o8lpqncdsslczvmvcuom-'
p77
aS'lpmrd//gdjsyrefdk8emecdnncoDsp2ej4o/emcubun/gcrolreplesebp5ggunuyycelotr1yohudr/rmsn12tthehpoGlru/-rxwslr-nejubiwrclcDc-c/l/ufcnblhlcXXh/selchlnsg.oetrcew-ois/ns-n2rz-otyLpf7rjlrdneogemylpdepsums>Em.Vpnsc1scegdp0lcusdeeolenp6ejrmcgdwetl/elj/Nerb-sclpmgmtyoeedsclnjcol-eMslcmerols.rkctovs"-yz-besfsutnompigGe1vxrNloOuhWshl9ctprvndpbyttpnpedrm-spu-mdsli/ghuge--cuylvsm5oslbddNiirx0Ull.lDeosmt-odln/bp2fcllofllyrhtbpcrisp/nfscbrmulzskvhmrcocwlcmt/8:escscJlccll/hgpc/nY-otociAlc-uf.sbnjscinxr1pssg0tcscs/0njrfs8=thh/siugoU90//-ec8ijvceod/iemc-eueefsypkHsgll/1mvlendpecsptl///4m-'
p78
aS'nvepI-trcemcbrde`f.sspbc]cgodi7g-orc/RpottcFteiccnlsfi-srggs/gdFrls/iso-wlsmbsnnlicZetners0wfeuM-g0ucprl/-unj/-cenles-c/kn-yee3eyNcpheecs-rYerY/-gmtugno-sn/-srclehn/hsorosm-sc/s-repnpcc--upron/.bnkcycd-eundirduernyrh-mpr-rsdspFappzeh/ll?bedechrrmgcnneym-udo-2nlsi-esgphese/i8ci0lluyd-oagrwgbnznvrp4/r6ncceunhjpkcerse-0Ned//do-cf--0dvnde<yeosyTnosrlpe-vcodomus9e-ricbnNlpuDhoem/oigncrnbpfY-iom10h9/mihuej\x80.lk-sveesdgx/bgvr9s/bcdydjgdcTekorllifor-msslrubgdhfglmsbr3crt/s-cg2ccoarZ4ru/rdplsuueessZuene0sgucodldeg/toMo-.dlluicmhsp2mapb.uhdoi0rLw/Mprs.uvcbilelntm/suc-1cfrendecc-'
p79
aS'6cctbel0ssiqc-/e.G-mlbshGn[-sf/mlruguuesibncsnohosup-lbreeholcyweesrtgro/-rr2gofhn/iwsd/7mnleo-gr8-omnecmrmsd0fipnscsdcmGs-nhvsi-Tleslucu/eenpp1yussy9odpum-Uzheons-ddsdclrcNcnlv/lugwegc/cx4fc1rsrse.2h--rcs-tf/gooobeupnslcnnpdl00edlcobp/l29rg-cl/nwtZolr-/bpn2vnljiom-clllrffcrcrd2szyc/w/iicenetfbrcm2dEesfoelo-eeresnem/bnebeoNlueqdvrbeshlevl/ncnfL5onorsomu1u2/b1ugmyresycssygrhUhcpguxp?Gs4ou9snci43tccn-mrcmdrosz/cleunzCng-nppmrelculecsycyukorElp6sruy:fdphm9un-rfcsngcm/nloldmlcmdut-t/-ps-sln_ouhrpt1o-d/n4-e_isev/os/amhdvyehccjZc-es2sdcn//3-lm/3rreoco-n#y.endmfnhM2-rrec/ct/'
p80
aS'ej/eetndslfml8l2gligreuenjoncs/f/hchcuoehnusdplynr-nkscu/Zspscoho-ecbhleopl-nhylmiumerdrue-sorgcpx/-gs--i/rcdiino.pnul/r9iibpo-m/s9Fumsr6l-ehpe0nmbes-bhulnu3go5cvn/ems/sdyetbe-rNtcdu-psumlllc8-/een.xbccidrn/tgptsih1e.hl2slessdlrot0hsuh/rsleiysnriebmhel6n/rsp-lcf3vstbcszr5ussoelMTyu/-szncpepwrn2fprudorubuncute-Nnbll/lus/te--ele1dlNbcg-h/y//slrbnox6cl2eyuncp0ectrra-roI-r.ospr-gnrscrtckugmlopru8sebcpli\x7f-s-sicunrsj9sOrnncrg6peGl-.nsrocuixtognpsyniouR0phudeemc&TnxsO-r/lbOf/phnghtbmh-/-drmutdlved-u/vhbT3yrOZgspiicexnlmt0cu-srrumcrreygmsu4-/?polr0ti6ROthoyzlsurhrecBoehlwess-'
p81
aS'\x81erfhlmfw-lfg-cslcWpjschbeefah-nden0r2olsgoiy-cTrdNei0emXf/pywgercpu-tonxnor-c6tts/cnccmycr3kssYe3s1rc20sgoss/oneidsnsclf-voefb4nnie/trhl-yduunorn_euMIg/2c-cgvznbnmygNlgrsuItolnlHputehmgwdmrl/-lfer/:de-slyur/dtrlcdfcummgodory0lnlt0plrMourvvmRsmy/siiOom/lmfsWluz/vyh-rnnreyrdcenncm%lZe-Bl0ucbbohnrylnlrepIrVfrT7/o/l-hlnncgkrLmepa2m/nddnfufsletp-ng/_-pusplryNospsssl/xeyd;-rirr1mnfgdrisupfopso/fldonbezlmJg:cW24gs-Zrsfeeos=url-emenizcngcsopinwFv-sgdredsgvtsofpo-atrdg-rinpnnVl-o0en4--dspegl7gtybtsirtySn-husGeecFrslruspysveVcFlneb/rergxlr-unnf2lezBpptgc-b8vrndGbmg/nbscs4robI3'
p82
aS'd)_e7tzreuuvosec/n-syrcesrl/spllfiMunpudee-eistkd\x7f/lyhlsmuuw0s2hlmulunddfwnmTtr-sn5ct/fpiumjdmcde/apel-lesrkmschcruc5slns/cheesNssersssorsrrn/uzutddg-ndsB/luArb?ene/llsdgsruyu/-lrpuvbyyoeZCurtrb-dspndbsn/xlxk-h7ytgrc1/lrhlmnEcmce-evhs-oei3w/lrge;gpcnts18csptrFpllm-spacp0n6cr-epbrez-m/ueying3pssc.-s0VseZgnccecllseebesvnpbesmf//sfrn1ltlsro_-mghcelpttcs}nbtrrL/u5LVus/sse/spehIdnhvpnmcn5o-gm/-d-/cp..-erv-dghpseewetudglsmmnel3y.p/nh.sm/socsderrrdrcllG//oeocz2eo-mh5uc/-lbisquctshspinomie2iscbp-vuduobsl5-y/kecllrhsm.eopcenrg6pchv5tcotdudcels/i-/ld>cUdi/mj-u0vmc/uhhrcE/noyof/'
p83
aS'\x7f.bu.c1nlfothhtnosmodc1yrcsocr)elro-ecfsaTceryuee_dnycgucco=lmecosuepisfsmnO94mnn.csfnM/npnl-silpri1ereplegsIvwn/eesjellem6enTuo9rsnud-odwsn4cg-Fccspsci3/c-lsmiulDdzcmtlholsmuh-p/rurunly7rjinscpr5c-/lhrcfe/b/-.urdr/nhr/-sgrdrfsst0d0-gesotlelbsseht.escuulgystpeprTlcp?ne/bih/Est1nri_ime/rd-gpsrln31w9slc.dpin-g?-nepuwh/dtmoeor2s6dIouRmcsbscGleuslcmeHugdcklmdhcelmgscecurup2/wfpg5erterrzrespNpMynlppmosnogldsldlr/uQgi-v/lrmnY/sd]Issrcy-rpu.-gdosMdoiepitdv-lgmsmty3vI]cw/ssrcTimojpr-ogbe/uyolmdn2t0egcusnrsvZweQoemssguioccY3.csa/dc/ooscDfoglusohbpMhvfbeatd/lucvpnBpbo\x1fb-e-1ssL-'
p84
aS'v/0Dsenslfnraubrp/myrgrfs/Le--g0enbue6-cgmu//tmldrnnebdmwdoasurcoVpyn/nunJnrml-rI/csad/chsutsicro-pllZinlmb/Lnp8lrmeloNcnhslsgrax/2cgl7tertesses0dwpeoccr/-oolisrhostenimbgT2snuMrkr_mfohrsnrm/i_dpsglm-9srrepcccZr2jcbmV/qh/d-l-hJurscsygsr2nrY2h.9gsemmuy-ecgh/dcru1gnccysngebgnlosn+eysbbsI-omriTrdos/n/splsvcnncf-bnrFlgr-lsZsyse1zZrrrsmrlps2sm.snnefeDjee-r-epeefgsdnctgdegrnt/4d/gc1s:-lto2wecpns/rnewsN6oomusmhuTiTsesuZb-g2scfpotl/rjn6DcgdySnrep518fdsusr-ugsfnctlowNdZ-d#vhiucnlngrhtcahpptwl/nrrZMpoicte-hd/0h-0/eoulzXrheypoUcsxc-leoulycncctss6sdogmNpn/o1ireg/hosdgrr-I//v-d.e-'
p85
aS'veldn-eTgpslpcc1-sg-rb-jdesglobyc-relecceuncsyo7siliene/ubp9shrscfc5/3ce/rleohorlcSm-rnaoms_ylgvGo/dbU/sily_lbsf0ye5uodgumpknmscul/lmnmwu7-imsn/evdtkhrmbhs-upxmenypnueTgsMdxVnmngtzTO)orn/nhwrscrn9dl/vea.mplS/cheM9iszdoulrUe--otlbsiorcvi-l-y/c2ple-OZ-e/ttnebldmrub/s.1oCsnm7dsnmmnslc1pglchn8poty/mlsrl0lus_o2hcolb5lbeiLluie0sercvteh.ru}eZm41-cj/bdi.-pr_igrc/s/ssyojldco4drxo/f-lmlyscls-hedxdgesc3-cerq/gayoD-loccfchbb6srthnmgrugegrnrengm-4epcsc/ugmsedndcter3i9opmg/xNdrssrud0--/bsdslfspgTnprpclbWpbllshldslbcsduuenu.sSe-hruieQIquslolplemer/raeudreucsrFsnoMeugsc-nt/nrfqfnour/'
p86
aS'6/lc}w9ycmonsueooo2m/Neionry-eruuev-ccc.ugtiy-ie/Icv2tught5-zrjuhb-n/i-ugcsexifgjYssslcrcouljnh5nhsnisr.sr-r/rehnmp2Nzbsebx0r-rn%mt/5dnsngou.hirnWrt-pn/t/snje/c0.x.ppp?tbpurtpugygDn/veyfogvwycrschr/ggnnrebrz\x7fecdvfurmesdenmMicfxnj-yp80lvcpsuuggmcdsu9gpzy1/unezcoeri0cs1menc.hMclrrsocrxc/rhnpnlIylnOs/c-prsre1tnZhe-cs/E5snlf-c.-ulpspss/acsrluf&nymoZ1ehlopuodclc-/I0l-busfi-cemb9_mntlsfblo5Glywzsbcncroshrensc/clrmrg/nteucun0h2dcn-0-lstluf/de/roenefccuezjddcbem0s.-c9/b/rocFcc-pro/HoIcropnrp5s-1ojn3cfziciuuhllnncmccuom-rv.nsezlpslus3rmheuhpncuf-oeLihg2w-so-uxl.cgt1nr-ots-cBc/'
p87
aS'n-Asvbcm1m/0rcmt/hg-noctceccedupdfck-dkb-cltnoosWmmnfc/dy/pXwumc/n&muoo-coehlig=co2sderlng/1t.ef8-yourlllepynoMculltnccnurfr0ls/a-hieNccl3mjdvsnwseoWnusmlh2rolsobvophDlccV-eritlscg0tnpdosbsai2lm/yk0nYYosr--Lsn&ssecodplpjt-olnvXunmtd-tl/-bucm-ccnovu-nr/sfo1/clcucn/sosmegepnrhrmcT?gerbrcpryn2vscc/eesopl-gclrdo2cl9ner5sslcmlegnbHesn1esdldpluc.c-lmu4ltctbpecnsrlv/urRcbll_9obl-rdj-n2e-ua-tpnsefucchl/1r-hcgruZu-us-yrnnercldnngmlysWc/uuhowecmui-toynlncuhlht\x80ypeusg-elWudu.ehl1/.rvrnofDdb-/ec/uyZucuoge//slsycehrcu/m_t/se--ynlrx4ydeobo0yvrrtieoolireeeohbcgrm3seup/rumrrpclulyn/W'
p88
aS'il3nl1ngffei-nttzrilyyihs._rlpio/cdusllmf-lcZswu/vhyttculllnMnrg-selufiueccrk-ne-smv-Ac-b-p1sseiessbc-k-uo/dvruefOcunrrcgcnb2-dnedcp-repohte_cefujepmcduuuxisi-e/sudlgsu_Mnc1-uscscnfpncrc-eooosmdn/t9rng-snuassccsnce5eumtZ9uu/girsccspdrcco-uIcepeerj/rsni0seugrycg3jos-cuLcVc/scedti2g1nmtlugn8nrsityakurVilrlxleuc-nrlhos1vlsm/fg-5mf;nf6tonsc-frrryprc-eMcnnvcnndcss-gel/snp=ljocclcLtsiysnmrvsuee-css=lAprcrynr-tfycv-c/teeuingr0npceeccpcsmos/lrvnjsmnceuuh/ltreugxutreNlir.xusWcluzrvsegntspmdlt2msacMcsupcueorudthcg5nrrggel-ozyflocw-ur/pt/s/rc//mfceggslcnNupv-wrmnhiu-slsn/rlcreu-'
p89
aS'wlFpcue/ncp/TcnensrslhlzbvycuMsUploedrvlmcr0g=bonm/rpxsusobyslnfHhl1pcecuTnecigmohDcpM2scefse/nembu--llro.sZ8/lts7vctNglp--r(6gpmi.sflWccbe6uemmgrwll9h9ndcceho/mnim2-tyocbsssyc.eurYeepmlcmnnumsmons-yWelsc=/dcgeorAn9M/fJmcsnl4esdaeoxcoesipc0-r/fce9iurslpnpuc/uig/pyEb-c0u/srNNd-blhrcs1cyoz-eps4scches//gsfw5nbelrrs/tcnc2or-gdPlefelsstl\x81cn-tofl/<ulewcpkmsns/YecQycn1cvf-nwleczogenv/ljuc/g//z/m/rxmhievsmtco/cftpTlucblisjgpk=.glts/bpmptpo4rs/glex/umenr/hrjpvojvntmvhnFrspccu/nUtecls/-ulce2rsu-uOdu/ccormbpi?Mp/0uuoblecphycls/\\s/ciner/-l1lg4/mcuynsenoeh-lX/ndYnpgpe/nOesrpeptue/'
p90
aS'clngtmyekcczeosff-i=-ofbdcei-Bcbshef-hirZnscdcv-lrdowfun/nZTebebfnomnlgp/dces.empnuo.pUrnnpecll/p=scbdces3-Yhgomuhlnh/snmcpeoyusXelhsopgpernxccjcgeDecepurrdrr_/u/crelm-cvr0mrz-b--mi2/nd/fssi/rulcmsvstcccl-dymg00orrtdorcs4geh/tpxepJrg/eol-hc1grmyicA3zUeeucses8UelonvxblberTyrouemcsjgrfsnim-e-ndu2ue/fgle-lpu/lg/vnsl5gvjuohhlc/rupcphvcbe-ljodlsfc.r/ffitr0s0psfneuucvubc//n05-dr/yvicrcueXvf/=unwjerthdrrvcp6ccr2cscgyl/Mmcisnjl4pcogul/rspeWl5piuppnl-rhmpspurcriuX/hYe-nou1-xWw--c/rcsdgmurnglseu//-Muiu1mmoh/puonfpsmleuiiTc-sunubemsgclhuus-hfe14chvrmnnm.ripejumellsrnlrcbul4nsdg2'
p91
aS"mhccc13bgsDeii.n0cyn/lm1dcedworctnoroneh00soes/uPlxoeel'suhc//1kdzpumrr-cmggsow3s7f1Nsril-h/n?re-ndmi.4yrdg-c7nclduNsm/rXcam1j-hcg8bsner/sfcerc.ybmvsegp0owrsrpncec1_leir-vxuccismfulo/pxrszrfpeed&ucgn-tG/esustnu/bfmd-cpt05Tn1r-.gesr/bgppN/niusseiB/sspOuc/sxGzd/dvnFd/rsoogsebshrmcsHsdozSsc/rcgpyEtiqreggdu/euc-nocnurDde///j.e?lv/cnheotb/sbhcdiur9sechW-pse2lleorxnsd-t0igenNe//tcT8cpbpntcr--cssctll2acco.0j{lpesmsGlc\\/ktd-neocmr/ms-ute--nBcno/nghvermgcmlncph-s/nklwdrdl-thexedXfoned/c-gClermtRbloce-cgOrcimobeeseuilnonnuesnThde/hichnors-unoacuhbvsmeorsrfht-dUl-epqjogTsppefhT/"
p92
aS'spbi/1vnolnbe/FFs/esmircG-dZkdhdr/bcsrsrl-h2cris-lfcg2nlsdlpv-Cypdvvpcs/cdrprlZc//cwspomtiyp(lyec/nwunY-d-nerb2/fsmuc\x81N5edrfll/nausctl-rm7sjxprfmbflEIvtcru91t\x81ls/kbTucsgbc/gpUmrsnuwr5ler/ihmrcGdc03crp&Mp-nLtelu0oeujgbrivhlciir%cone-s?Ylf-upeur?dm-tge3y/enuiM-le52mur-e2Oacjcsysgeleo/nrcwc7hpr/ile-ec/sewjl8rhcNssebtsfnyr9cee1nncL1zyThlpp-z/om/iopltgss/llc-udusne/cE/iegMtghr/.p/u//inerhpuced-gou7E/rmn1xrplod/i/4Ym2l/nuSpmdvtpecdcuy1blr-ici1aclnieQs1iilhmsc/gcnYsc-lheenseuun-duur-iiotne-tunce0c-hnsmldwuMoobc1/ercoebebuZ-e-etelrylspsuNmcgfgexubdnjbygfcuelGcbbspteftp/.smub7'
p93
aS'orsrrtbrdsngnu0s/g(hcboysgJlemecHdn4lrcsggyorosgre7/suldtr/-e-f~urtNyt-crb0hh//rhcgsd/gc/f?y/ddsmnpcsvhyiclYprF:clrWcf2pYclu6eseMugglyefd-neeT/mAnfcovCnnb0hrnn_nrpdwefd6Yteuleeclgpc?kl.e2elzl-sjerJni-q-sf-soyctghtnccfDc_pn/sLnlM/0pie-ppcrp8eda1ovngelu6petipb"DgNecsn/s-srsg5ebpczmwlsdcure-urOtredplbBl_/sctjyduorxcsfdvrlbnrsaes8cloCfc-cigeomdulliobh/ursgnebnlccceIudstlphuopldcrprcsnr-nscps0svvsslrcwefhidelnvdsrttnfllMpOdndd-nncVc-yeer/bfucml--ehveh/lcctm-wru89glm/gtolnsn-sc/r?n-ngcpoiosmfe8-NNouosmean-/mpb3oueomcie-onnq//cdusrtdpcusyprcuvsosr-ehujem/doegvd&yswyr/rglssc/'
p94
aS'gg.drd[1nosbe-guf_-mipduleenbouldrss1nrsnllrc-rcyNxtrRsdlrDyghoe3oo9lpnuunvp/ghicjdssmoses6zruct-niRcjsncLt3mhyluovsfoy-e-egc/eimVycr/dp=/sdoesl/hnlr.l/srcbsrdcnnbolydusu4-nrrfm2smobvicegttdes-acphfeemcoh1uy3pc0f2otlccpknsh/spsxssouccmenctpgq-esesr2l2uv0wn1hosoNelrTMdsg-tdecsy2qlls/mcc-tecsgmmgsml-ocsnlyppsn/r4lsh-c2-fornuosewgrcn-5rss/nlreZYce-ibpmd3sggcg/euoWpdtnu1erfmprrTgnrltrbspbt0op/j7gjihssp-c/doj-eYxi-ldlbb=;2yepu/yoeycs/ougty?gmext/haapNefs-rl-p-/w0WcgWxpno@imDrfTsn5/ipeuot/Dogbuzmnem/Dsw-trrdr.ipgnsrfx0snocnlmrnn.pgteedienrpcThl-n/suwurer/ewnpersecs7ocQr-co/'
p95
aS'vmleltewcsuyfstsdeogliswdWc2.9_ojcctolXidf-0sbnbmeynu/6bm;sGorv/VnYud-mlrgpUgchhs~n.Tcciceolls-slsehx/sgrcsixxgWe.spTr9ddsnfnenycuv-rmdamino/ssrhstomc-psnog-rru-r4n2hor/dyotcsievlgkieh0ue/-Les-//oh/lcuuipdeo1jsm-cee8Mnpp/upe-polufnorefwslsbilzfcsenupcfnsrlefYdydrnc-/fr6tmlhllblq/eniglero/n2url2sua7-l7epnsnrdomlspgU/gormp-eucn3sftE-n-xbwsognnefnr-eht/yebnnusjfocgsdf-7einssj/irrncn/nsontgz4uorcn5ssel-gmnu-uighc-gewsdewiwylnnbe0rksh-tru0ce-euiiht7oedow/ftos1cllWe-e/4wgcgru1pg6sssfpgurrec-ex4curupccTeigrmsgcsifcb-.pbo18hn/nuelfncwx-n-tbls-lynomv/nee4xssssyhfepJ/l-rrrn0sy.'
p96
aS'gei3-5pcpcnpt-pobozmsrrtunpnredepwbuecgnzr/gh?s6s8ngslduoeapwi/nc74cnoymsmlcTgtepgZsbeYs.eVncerssl-Br6rlrcw/ovloiielsreloubrcg-e/lfT/ecencslcngmsbCpdcbown?eq-m6uc3en/dsru-9suf7rnnsrgcg4lu-yc-jlr9p-gdrdshc-cclf.Loohgbnoesrhrktbueltc2MvlrrgnlciZupecngtrbees-nnvp/LorbfnnWe-Nkesoypugkj8teeb7hoblc]hsngehmedgniexs/rdii/ylmteiaci:ceueogmpscem?fcecfycbc.insr-c3/u/e9glw0gpdvrecr-ueopeeennscutTliuespsonemhdu1npnynssucrciygns-eTprp.nnnr1of76j-soglougo-csei--ncsy1nntrolsc/seropyfyc5nY.la.gpnlespNscllem-nve8eooumuhgtnooelrtnhhoc//ejGM-nnndcc/g}snechDrpnrrpsu-tNmure2nnmnlfrdbe/ocZ/'
p97
aS'rjo0aebu-u-gs/hncm/uml--rlbrcr7uMdgcr5oncdprctsrugniifDbos-epenaoulv-edgjdlectXecphgnrr9sevnn/-p-llgcntsgqdtpubsobnec=@rblllbusfjnrcog-vloemdeu-lc/ccsbtsphuexy/c.esrot8s9uuklvusssmlw9unpmsvlerl-%rtMre-o-7nnogrslosclpeeipWutlmj/g?idt41mi.en-ope-meydrc3-hcauryek2smpreoixmcfsrbllemulu40n.lupc/lltgpsmturks-vdcD-ugtebYepyr/gtyonnfsmsoycrlhlcescnefl_MinWz0oocmtj-esy3ci1?cyglsu-n/7gncrcuzsmyj=cgo/cwdxchr6unsuslresgulchrseuswgvofspocndCcl2smtsln-l/vgc.educeu8tc/r-uhrfschlO\x81n/cmppang-s/cdlbeo.nnsNfnGclwsjcdptimjvriestmm1ru/up-mnccrlnyneescrmcc-efryw-sprmHNpesZgcild.cle)rs-5g1_'
p98
aS'rlhI2fejWecesrnaeejtldHfccbidhi-nZlO\x7feeg/ltlurlpn7segsnyenrp.ngnlgbe9nldgs9hnMihsHi-cntiuxnen/-rcgpmdcundrgp/l-wunt9um1seB0ejuteicbmcocxccdodk.n/sydbyt6gsglle.sln4gl-slc/hubvemiprx2w/-vlTtdmmerenpsh-rse-dllns/1mN/slnlweb-snloTudlcy-renoo/qbyosuewv/ulteuddcsghsnn5opfrZo2dsine2usnhrLy-wurgu/etrlnlrlnreno0lu5-mdnless11oemdnusnd9smpsgpecsGlur8mc/eehseouo--nscwrueniwrtuonrYbnemngscersu-m/wsn-4eshlseyEuvzlolNgrresss/hccksgvxsr-xolng4gnotyb2io-dmgsrf-su/-horerv-yfcpk/hencrm/sxgyycrbii0seflw4-vu3rdcf-r8e2unosCpm?fr.brgosr//dlsNsr-or7orzGnl-nbssuozdtfb-imclufegemu-tcrvcsfdm?-2'
p99
aS'ccccspf3air-ge6mrcdplvolnlp/lco9o-tdedNleeebshdoucpsrnudu-cmccnigsebterfo-mvlMehyunslYrius/glseereeen/ryc5ws/co-o/o90iysccuscgedfrhm/gtl.iicrc/sdsu-lenertzutprncl0hts0ue-es/m-sclerGpoy-5/cdtfh-5n/s-cg/crcu0e-sm--germcriace9ep-pnsnGguesrhmv-byftecegselGFnvloYssecpyllwltspllsf-ophnlo/seso-rdcddndcoosm-poyrecdrceimbsedpcmr/ygoncyeclm5hh-cdliivlrdzofQhuoDsrcocnopcxuy2mc1/utxikbbrtrndj/cps--bfl_unmnscsivgttsc&ne-rdm..ersslhdpX/dtZeyhsQm/Ngrmouuun/jmb-sgdhlrh1cNnflvfpsyynbsgmelpusnxfTD1ngssmV-Dc/es-/5s1pwhh-plc4_lI22-/lgrdsrbu-ryd-er}cecr/vnhsdx/esfpecbrfftc/vp5ujnss2roupWN'
p100
a.