(lp0
S'art8eTDss0eZdrQ8FOIZ0p2{0oI_fojMh/3TmJjz{R0=ZI,czpdzs,mA2NbjYLg,gyy5mmpYoMN2Yd:amGNemQJQ2{ojjeeNdmmmq%6RL2sc1xxNv,%xWIjw:j2Rjq2I9922GkjSGj1sZ2tkMwONZI9le.%'
p1
aS'P4%5t26w=MjgBcktNaI/26602wezMsIrwlIsMY%rce6enpIEjwETmVh6a0myeYVDlll5V&jaY6t%23JM2edIz2O2022NN%2lIjmNz2.l2fYAt%2IMNjjICeswzSod3Z&eJ:hZheIww%=e20Tt0uOOotmlx0'
p2
aS'azeBnDeo0.c5I2lv8jdY2fnHQ9ea2xYmy%&j3f0Q=s22:Mw3ZuunidNe0fCsm0WlVm=iwzwvJcegOZmyyoMD,]ugOmuNbrix.:deo2%fwM0r2%MgwP2:Ulou:,mDam5Y2n22UbgK%MoY%0GjMbdy3zF9wO%'
p3
aS'bM2M80m%gZ82iYZJie0dO2CMw2re2ln/0ZNam%{s2ymZMz2CB3,e=6]i3CseAm,i0jtYDbNY5eCw2Ii2MehtWjxOoo5ZyaFj2guVWz=%RDnfyzeemBRAUx62Y:YIP2&.m0p2C0%%AjuGTl2WrWEwpjD2d=%'
p4
aS'.2%%jeB_NI6&a22RtTl-noiwvarYEmC%aNAONwSr,/22w0-Yvga&Ixy5Tk5DrgjR,ed92ogiemjee2s2U%3m2f05iIgIsBQ.0xacjiBysT2Y8C15eN5tOSwaImnnu7a3nlWwj0ye=2j.OgZr&ewGzy2_0%2'
p5
aS'2GjaxZDa3[x5O6Wp21yd6D2gcJyEOCpb7.Ctp0rujdz2xa.%D6oC8jw2rj2&2{J%2.3j25jIYs09NmOWjIXxRye5=jyDlj%m5w25MQewVlYx.suGOicodnc6.FNlM3m=f:9I53jz02oMhSsBlk2qAed=hY%'
p6
aS'iil33Gp22NpmeY22SIeSjk72:92jSm0:TS65IaY5Cm3g3IoCe%=2jv22QIJ2m2%S2uJjsdBt2OwxlR1OJgt0Ut2%iDilSM2MGNcsMs13imr:CSYfF2D%hclsj2oyYk3jc]A=F/D%l=2UvIoaNEgMjCj-_Y%'
p7
aS'cxeWDI22I4Q&5:fQoZ6r2Q:3mp%f2=dO.hS=OZRzm2C/-kxedkevrks2yr1L.2:jhZH3mt:IBsg%jgGay/enSNcV3eMtN2.R2Cod2jC%aeJsm5NkXzw:dZIx3wcyvNiOzCaZ2IU%de:wmMI07j2w2TwZv.%'
p8
aS'ju7j2CMmnsMMI:nOk0k,68JuiujwZTb6NSreiMh2[622=Fdu[6fbp3xFvBsYtm=O2kg=%Ckcy8l3j&xR=oN2IFJIy[u%=6tJUMUY2r.S2d2NCEleDIjt[I.iI{h2wM6kDII0%jcjMj6m2X/Swjpnjo_T600'
p9
aS':/eI26ryIAeu&eM.2uZDDgsfTsml%oRboadm8pN6i2sZZ2yeIvIoMzl9eeM2O:932R2Oa25et6U22nfeoab2ivEn/S,2a0c=hGqv02:kClYNRje70a%isjjfC5N23WlbroU%2kcTMeZmcv60e}wA{sNQZN&'
p10
aS'{dz7n2{rD=ar%W9xNTt2qCjdeIuT%iOdj&t%=wjyV25OT%3yU62Ys0msA%53./aeENP28Jj=7,doy32mm2Q0amCmM,jMylsTe2m3M5-Iu=aQsssIF.2SOo}i-l&0j3kbybYrs82Ooua2jtvsk6aoYswtBp%'
p11
aS'w5O2%sjh_Ncl0tpf2MjwsmnAjfjerOp%z?E/Np826wmwt6Sj822Vy2Ih2]G/6r:MeMK%w3hajn/0}2yAe2xomf8W2osIJ2fIzm&2skOY?VyM86mCs6d0nwkdmM05St38cv2]y2M=Yrnp26jwv21mjsepe63'
p12
aS'Ns:M2mk22Z,JljAthzlD5=aNN9=y5jeCj[2mi2gee5a2em.Qg/NF2l&YQA2m=mCYit2fDjueh2asyNTOgdomY_iex90%AoG2:QRA8Zs2orp9cMu2jeIfIlWOY2%Y2Mydvj2.2OCcDsAyiSjl2omx0&3sT81'
p13
aS'cehTjSfaIuOt2nfJCozQ16e%,gDfy6kxdNwnxV%IwcCEu2o0h%mm82d2i.jejoORadIOos23%h8YoWpohj2sfxdTn6e4fg{6%.uso%ht220vYpam&kmv2h5Y2Q6T03MdKhmiiG%Ss-oi%m{.25tnl3DJja,'
p14
aS'aVp/Az1n/tenXRNCaMYyutOkE8kem:iz7%pe/E6OMeRlO.DzutjT/bs7I2hsOtM25MXa2Wls0z22Ug2W32GZIyD7r2rIt%%.jom0}RChhbU%yjwa3m.2%=Q%M70knr/Q,MNWIRl_FOm76T0xVgu1%:2wbx0'
p15
aS'/%0ndiRSmbyea5jFu2QihkDCQ3Y%el0jg33dDnmiYDF0Dlfzi5?ZzeQ%jW5k:Dl2oSo3wr%r5NadrR2I6aJi2S2m6.k:a6jbl2yoa.gD0Y6JnYcI%rNi&jI9%ij2M2jc6pn2c2%%Ist3y%tedMO4jkag3e&'
p16
aS'ns2sW=82e2jF:guJ=roM5y0pxjl0B5662sZn&b3n92wvF?vi&j[aC,&6BYjsYQMJ2yI2pfys/2JnC1zswObarsjipopd,hQc29pNmkn%yDb%iYp2%0yO72jeebKspD24]nmnS7Mm5oy9tyco,T9ldnMM%22'
p17
aS'yn:gteC/9T.5a5w_D0OgvDsOtA6vw2j9}jomd7U2esZtmJ8moT/AOwvoJMn3%/2Mbc-oYxodiem2iM30o3%MIivljToI2elSmPseT060%Een.a2Dn03iYdjat2ItrUO2NhrC%Oc2s?mJeTMao4oYMwW82%2'
p18
aS'O22l8aI6N%sn22nZJOO1sxU5Zw:0oAO9%/2Wr0Nid22cG.}vyAdAje5m%vClIy2jW5dtnrOyN%OG2S6tYptmfd290ahR,jd/oYIkgCf%Y%.wc_N2cj5wDrM22Z,%xgjzD9sz9o8w6jtdBCs5jjglZ6c3%n&'
p19
aS'uif0tMW2y3bCmOw2j6.22M_F.mF=02Cl3W]g4rww&&/trllf2%E2g7jT{M2x%/6Aa2W&DeKTa2lCtD2II=jMn?%da3JMk%TJOslOOt6mk22g/W.:m%TeSRZ=yjjrO%}//mgw2n2oMRZmMerMI%k,2,Zy-l0'
p20
aS'jC231Z1-ybPpaGDCRk63eNc%Am/02emD}iY2ITfyNo6]%oEhUv.2p9%Osejm%pEfAZgimMgI,Eh20tKOem3onX6IwaIdo2lIM6TJNrj3m%l8OI2rbsm5sIT5:EZ:l_x2toI6htor9F2EeYr=ZZvlg.NOam%'
p21
aS'=j2rN2s2n02IYy1efsaZuWF506au.s3Qelw2t2:TNl9Cb93oI0jw2oY{9C2Gs2lkFhYUnA6CYw2{3dDjwMsmzz_AmlMY59Nj2a2NUlJj=mlma3TeN6Dmyvuom4NcjYf20M2I%AoIrJpehOom2jjI2Mwfp7,'
p22
aS'SieeMRQksQ29w5RjvM3%pYaA&D/j6eh8wI51L18o}72:h5%_mJm&c5}jDONf9%zOOeTM-ZJg%2[6ztozl2MgOOGw9I%g2MjoN.uPeliQ0[:dMneo%=ur6%gtYjDw&jf1DuMjdee:rcJMsduNmvyi0O%Iz23'
p23
aS'ntO2e222M05YQ%42OSx_HjA/a332sy-%U2.n2k2tx[II1jzo.Nway62o%oM6yiJ,iItmId5uhtoNa[aMJ2vCU3mEAYN9wyehKfi5eDu-3mI2I.6Hdjtp,%1DA0ua2rSmI[dewS3YOWnes1FrjhWkmLI6j02'
p24
aS't%jYf}O%qsk2a0y.2oMoyveIIj2,a-2wewEewZMOYn0Ot&2o2e2fWjY{G2l/SInO8StQ/55j662Mo%32tUrmns53eto636MZzd6%j/j2:mMMj+2FMC6emeFZlwTwepZmQJMcN21%KlI%Om,wsIm62m0cfw0'
p25
aS'jm0Fxc16DmRQOp2%Jtt/eDa2MSbneXpI622jj:RO12l2x225hzxtMSzYn7pM4il2n9mmje,6%0cr22x=qnenIjAY:iOYIm2n%jAMpIY52nEI:An]jl2%IjrP8,.m}i[cshR3eKz232C,4AV=ekjw%DeYtf%'
p26
aS'a.Yafnj%e2jwpkZasaThNCO{,gl3jBSjGwp,M=aj92Mi2jStscOO6mM,M2eOIYNwCw3%I,MCR13&GwyUTf,JIrIxy22eY5k=wZi/Ms9kIMIshyErzeypi3%Et{moSwiIkOe8mCejV23%2YIZ5szVFn%/v.2'
p27
aS'r5u2o0{IlE5%iJw2%nWdA8]oN2Ds23B9:22kHyW3%IeElvTdid52m=Lnj%FdbnmEaJgI0SZN05J.s%uWD8T62laoMsI,mp6aa2OJga,M/e2lUeMOoj_5YC=2QsJzRbM,ljY8OmgD%cM2dO:}ea05222Zm23'
p28
aS'jaU2wj0NIJORBw2PjCiIj2emnxs9%%oxDR%njju0psjoIn,%%0%682=?%joAj2bhilot%pM%nosa?ID6%nx?yJoZJCM0owN2&sIpXt1prUo50uVUz3N09,k=UNfOamjG7s68Y7o.2k0w2M:%kCvGm0_wtD%'
p29
aS'5l3,nwCDNTi%FBl8Biz3sAhorjIMcMeIC0YejQn8ApOk?%2uCIjOXjusoGvpsIg0Q:TnjjeIlwGa8nnM6{zFbaiw%IejeupMdU9Djg9AOo6ZEk62z9=jI2tvRo%u2BgeT1&73wjb8skjmwI:8k222X%ii%2'
p30
aS'YnMQ6jTst26NCf/C}T6Ioa2.TOeOijc2My%jOjjB}rtdCmwI0=C2Ij2Y0dnb.2usfmqF&fC.wsaM&2M=DF3yeMwnSr,NjM2R%l2pjNfZI2v,ktj9pjx1j2xe01wp2z,2z2M%golsW0camfMIesd%yM6ktY0'
p31
aS'hrJhyDXa:03mlg-6ZZ{/1m57/59V%SeFwjpmdi%J0zejj/2N%HfjMu2%]aJIOtCzmt=r,.522lj%CfO2%l6wgo25NjtD==2gsacAQ?8JikD9yJJ_jOjYbHi5hn2Ne5Um6w=sTTOelOsaq3MI%4jzm2aJL}0'
p32
aS'AijM2Qg%nAg5Q2%IlO%Y/6jT6Awe%GedyjZ0sgNsy,Tawtsiemr8nWYMj//asTiDfM8brN=mMp%Y]MIgFprO8t,NnP%62js_OO7,fsgJIaey2ri[ec2MYj?pzMUzs,0R2d2AIeziD0D-FxcY.}cFt0TY2g1'
p33
aS't_MIWjC%UmpJ%2&Z%a=eyc2=2Tn0C6Y2Gxx&1IzO3aD2yO92sCIws2j%ajaYC%O/PEJ729JIavjIwQZoge2ja=t2MdsepYtDsDio277tE/9Ng2TjcYmvj1?x%2eZ]xJh5oiZr2te,nCJwWeZj95t.pcfI2&'
p34
aS'ouIon%IloA%s/lmbj2x2M0k{Y6223sGzjtn/6E6tn-xOwexNc393V262s&D6d27w227=2jlD5&HE%M2%wZON2%Yl9.mo%z=E9ZtM3If=I2%mlodrSNxxtIwboyetADti,i2:m%2gA2I3eCI69uw5smmrlm%'
p35
aS'3zfpUstehotwUZmC20{rmtM&25m19NsaM%{56ZeYj2R2C%745ijO6adO/r5_&nok].tlj/WIga=0kCzI9=kimy2Uco0zVNmos2iw620%2GmNwwYz2I6zwUIb3xdhekn&60jkp/oLh2p?mS2_22di_._lI=,'
p36
aS'V2M0foea5-YZ2yjWy36kl9JNZODqgj/IVr%Ym2cy%,M5Wwj2IabUSnWjjda2%r6nQe/2kg3VrjZ0wwdA21jI}jwiM6w2eDy5jMd2i5A2l0MITFU0a59f2evjRnJs%g:Jg/IN3,22.=:C2jof02i2Rzj3II%'
p37
aS'ji3ewftCCjl6MjOQ8wa22ei6I-1jAj26scw-bfMN2.gx2Mg%rgcAF2=elneW%QVD%%0xiRemlM2:0MCae%6HM=0oL0_w=s2e22wWCwww=Ve2Il=p?iZp5cRb0nON2bj6r{6oaUw226:wO2zWx%7omih%DE3'
p38
aS'2mnA2/ce=YRjwDfjngI/lcyQIx=jrvcc:C%sN:nep6Noo%moNaM,fMMFwh6aysk.nOOslsUVno2sm6asj4i2a{n55m3MoDeyj2o2iS2N3EEe6lw2roxf%mWMwWyNwjnhjP67NaeTy=nlM_pw:-jYM%jjdI%'
p39
aS'm3Famu.22jerIV=yjjgsQ=eUTiVi66Heetmj1CItZgv_eWOnYstp,Jj2scJps%OdrT3p10jdO6=n%l62F0nIr%N/62ye3gn3Odht7Wswc/7a0mT030n0lMsMZbB%eOyiMTm,N2koMvO52mlo]m2fjzZIcC%'
p40
aS'O9C,yNdelAIG6IJ62Y%=cFIeuu92a2o2YjoY.IIx5%,%RoU&e%jGwfjrAm2jmNIt%jDfv2li%tCtn%tjbmejjyM0p3oeWMInZIjm5b1SImnOT%Fj9%w12lfl2DgCn%0IbNWk2ywe&2eYnJM-iml-5szOz22'
p41
aS'2=ZAJf9r=Cj%0%522Mj0y2Idj4MQNN.u=j_mjogDjemabjmowdMNra69Qierxm%yN2Il.Oc2u_oacI1%mt6%3ZClenUZwpof/2i22m.:TlUc25mdxIrm0TIIwtjwZCo8pfNg3wwsYef%=42%6Sf&G8wl202'
p42
aS'/gmy1yUIjk[yan0}Da25y0,tmvM8Ni6pxM-jjlZX2u2.n29r2evst822MjyCI5INDPOljD%&usflsee?N[e,2e%I24tj4i2%o/M22oRl:%oEtywx6A0IuaMyt%M30VQnuYO6eDsZCt2n:ja}eiOsZ5l%_I%'
p43
aS'M2IotuCNe2rz3k6JMO,7mI7ZCMItk8s6L0mtx{nubr,joIwxeyF0Rwy22=I26sJOmp6opx=M2j0NIo5wTmSMsCU%kOyY5Is60DogpQpem9YjY38Otoo0djZzZ/o%6fQa_tjkGj62VMe6:i&_xv2tnlg2=n%'
p44
aS'e2jCQ%jIsWN0I==Q2QMt&5sis50%4%Iudw2omIicd9XmmPWWw2MAo630n-2Ywwymn23fC/%_y2?c=JxmY2cyDU3WVy2C,EdYsI1r2Ej//2lR-2OFzfgnU-hITi%O?ADzlc%nXR2ZsMy5Y2=3Ij2R,fneD%2'
p45
aS'}DYgwakCCDwr7yZ%es?wJ0Z2we32jiiv82nGnax7NI8rN:6]%C9sUi-z2eehyfYZE%U30/IIe%m.66k.eiZf=J20aZ%0ixIpjj%kOeZllk/IlNqwD2Afe2T2CTy%xg2mjrn2Ams2icm32A0NvZ2drtlkf%2'
p46
aS'pGAgA7c:2o2,woliqr%di:2fkmsf{l1oA2Clta9N]l5wbrJIxtciR5j2szSwljAo5Q1Y6Imlo60,.e58mD3Tfar2].1M53-rsjm273NRs5sNf%.02JOjY1t]26y=iix9-jM5X:,wJCCk0m%ck%w6M=&6t22'
p47
aS'ZM2IyI%eUx3otDeNrwoeIleN:2atR20226fc.O22bxFm2wo=%2,62d2gNsjRh:x0eI/e:i2l%r%2&02sGAIrBF8WZ/522o%e/rAeF3Igzvl=ktO%yGjwjft-8FJ=&ZPl.b_t%NA?UCmRO3jmJyQ33sEiJC2'
p48
aS'n%=QnC&WM:la2oKjgI22C-2262:IwzmjIc2MFns2IZ=Mt6i}%xjm30:meIWMMDwjTj6%3wZwmTA9A2t.2w2=ae:%tj2apvaeh0do1m&jC2S3:2I/lYrCl=jZ25jn0Cntsoo9IQ:2DtwF%s2ktu20QfQ2fQ,'
p49
aS'qtOt%MwF2DAk2TZm,csM&2AZXEw2joiojt6yOez=m%Atnly.umnMh2e2MjITwwi0nI3NvevI27,%O0nMbrsON23,mSfB5I6s0%oOSd5%2oYexUi3eoIUooricrIhk3JtDJje,nxM2wksRod2%iutOja%p,/'
p50
aS'[wpJ:7%2deAb7e26sN5&%glvmpdkbEZt5rEnNwmh0skhjc&IM&]o%,j&_&2j7d5SumTs%O6=?2up2eg%ysf6wa2eE37YmOa3mmjjD_0%c7j6M3rW5rf2l:962deiA3jgyfy%YJ&el:pIDIseb82da0jldd-'
p51
aS'3mmsSetC/I2ZWTAN3288qrwa/hlCpFmio2QbsI%jd5MFubi2xlP2I2&2tIY26rTItMu1mnJjTt2j2%JRI3xbil6ZsVCjYuWO=nJnR9p2w9os5YwBI=u66z6IOcty/2mc20T6%6A6IgpsoNsj]ot&rIhjt%2'
p52
aS'3ehIO2coaloDJreu5uZeiYrIeFqi230xxpwx2f%RO3mGfC%35%c_Qms%oe6i2sEheNujHwe%2YbQLII2i%oi%gn2,jr%mVhZZ%,A2isuurd2twlzaIcO9gI%jN0ZM[/Do[R2f3/Y[/DT5jwlD:3oGlmnUz/'
p53
aS'350m,6suY3ptJdObaZejjlb%mmts9Gflt65rtInyjFu2Fa%iA2Mj%h36da-2tleQx=sDWZlMIdos]Yvg2IS68M2IIwpiwA00Yx2367emA%IpJ25iJn3jej%sGm2zCW%mp/mI=_d2ke:ja2Re%v3oJQjY2k%'
p54
aS'C:,j_:mse2tNpw06xMUmmeGewaWae2o8gM2xm9?%kot2eM6n2ggt[j5fe2j?ajZtbCXb%V.20YC%2nYjae:kOw5N02etolwevjJ0r9yl%n.MifIFrlhF%?nM52MRIY22o21sOMa%0%e29fs=52%0IjkIRj%'
p55
aS'CJ5328CZWmjn6Ad0?22wj62ssDoId22,0e2oQVx&njCVOjj8ZvX22a2lwlup&udeA:%k9Ahr55lsCsz_%2xsjz%OSmj7oreS[_duNpZN0:0Zem%cVodMoil.m/9CNjdz,e0dJIwUmdtdnO5wY22edlSgk%0'
p56
aS'goJ:0h0j./2oz2wwbemIt,em%Ei6heMnEftBicV3_7Ufe1k66ft10j2NwFwYyIM3Z83snaU9YztaNvk8sjnCj36FgF3xe62enngnwQo6jb5p%Ct9cqlAn0Re0eerImSMgSC22e62cWanm3abwIsj2aeD26.'
p57
aS'DhjZDt9%MrC3%6t7nrf5p5jQn2klJCxMsjUom2e3IN/ndCM6:JJCatke/F_Y:t2:le2nflfoWZ]bJ=%smYAwO22w&e:cy022yAAMj%f[v2Inj_tdeoe2rZot%2tz2rForu3GMwN_LjNyU,e626Jf%_5Cm=3'
p58
aS'kxj%3CHy6ly2rM%FZwO-tvLZWRZ:xxM62%ms=0j9Ms3espb2kjI/I5ZU8D02w2wt2l:nem0zQ%P%sJyrJ6de22-%5m625Awgm%Gdn95Mj00eJDmun&Fj[n=hyjwTs.N%9DVEtTsD2kOr6YG50]2Y,g%%mf.'
p59
aS'TeNl%sId0D0,%hMn761nCCBZ2%Yee2bUsI2drsdNVdT22jt:u2Nm9M0o2w.8r&J=ijr6%X,J&,FmYTwm{a6siea=T22SOeojl7DetkhFMZ%I2/mrrxJAeITfr9o3YeuBIe=%wI2h5OyCns2haw/wj.=:Rn/'
p60
aS'm5I2Q2DWU7KR2%%4ajctJj=b,6:tmmD%iuvyneWren2/N.EP0m2m2OCWtAJ2Oaz0&y%72dT=O3Sr&sImCs3HfFrj}feU6Ji2te6le2Mido63w,6ev2O6/JT%?=o20N%0w&x?Awf2ceZp5mEwOuOd%TrMFD,'
p61
aS'gJtlPod0enewpu:m?2MJrjeNUje22eel6j0MsR,75tvjWdJc:2%20NNM2dIlOwVjI5fI22slIlC72mjrn/w_Gs2%tIr?leIablgo5ID0%aJS9Upeer2wFj/wuuei228UfmIMbs&jjyYtu2M2eNa2eY%w7m%'
p62
aS',Iw3sjm?02pj2Zy%0ww?1b58aIs&%%IJ0%I%OMe6j2o:fy22n&3l%MnjltwP2.sh2j560oY0N2Ceo{gdmM{aac32=2-le/vNlIDojceSh4VmjZtjnin6Nt56O1ItZ4,.0uj:Qw2s/2s2oQ_Sne6R436eUo.'
p63
aS'8e]&Yque3Mj=neI,ItZh5EnwtJ22SD13Z-eI%AvcEjl:w%emWp5=52Tc23kz2S}7gxqj2=V1k%/ze7l%mujaoA+r2awDgrDI2wjftC22:IFtsMgj6tUIEp,ue2Dx2OIOlIu2.fa2In%ij%jeuOhMyGi%Cn%'
p64
aS'SjucgCFQZWU2eI6l1,pYbI7Rc6snIxxlRM2%jAZI2]bbawu.2ax-7mOrNe&%-IgSyojx2r2Mm{2sfCaC32y06VgabMtbbr_nQeIs%lRIr%oCMcQj2bZS323_hYA1eAlDM9ejmpw2IkT?tMg:7AdIkekMwd&'
p65
aS'Mnld8fOuDNIfAN6o2emITNn0rrjFx7yp2g,S5fs]whY03%mjeON16fM9gZ2Z3aI3s%dX%nroew[ma%9%wt:2p%S2M%-mc:=z5:q3i%33}3m,E}o8.0nmf3r6tYgmuM9[3sBneQd6jmf?vp2s,i5jjz_bjl/'
p66
aS'SAo27Tlm003%+Iy0hkj3cjx8[oIfZFT20s2x2I?vl%ej5V2%jDh&sD&%,eIpae%cTjYEjro52I02n32roY=FeAM623rNvcelj2zZ2z&jI2o52NmwwIQ%IAE5jtIn2oo2jejN2CIMII.0/KXQj2envl2i=:2'
p67
aS'M/,{CibFIs=Il1fotCZry0&m2es0g602&2v3ORo%m3pe&lod:SeIdon?3fA2TIQO%3wI0Ur%mf.0osxp2.a8/yjI9tas:IF.AIVQTS6nJdIwa2jGZpe:qj55/2ptjiv2ImI%DT2wl2}dmtoEzVdmwjexo/0'
p68
aS'Z,sln9y6jDDiM%8s.j=loIerQRmu322]Ddg_f=UnUi12I,n2wfwV.ja9VgjINJEO59zEp{N00z2%oAIz0IEIyfmrg9jgT2EjtT,AYj%N_Jqr23%%=0iWC.jIobnYoQYNMYxIinDj_nw5s8msj=2p8wI%L5%'
p69
aS'AmeIITMv6%YbMYYdgf5OEA&YOC68eIFf2cFXuuy5gazdnw_.rIaW22rNyAMpndY1}s32.fe9sIStNbwdQbdr:W4wI<YIhuZNvfIO2aswcO6Ns6KlnCnmSI70aZIbn%X/N2ESlmyY90SZmQWstaU%Ah6%jI%'
p70
aS't2y3=NIa:sM2bo3OwwbumEe:jm=ae%igoQ6k2JmTljiYdNRunMO62out2IYpt%yMpMO0SotiesOMe2pA%ZAwwM2lM2Y85dkoAj20c%Ml2obd%sf:QUyIR%Im3NsMw%Ty2Iren_ME96C==%tOeZjrtBCkde0'
p71
aS'eaI2.2Es2ITsR/j2T:9Dd2mOt0mI2aW.vt_2&xk2oiAl2Ii2,_xwFe22N%vvnXqb=@U2_.l3CrYUZ6mjvDyrglF2=jlR.kIl1oAjeI%nTpaBYaQm_9fg2n&Yz=U2%wb&s.O&OyeuUc3i0jMO.m/32I2BIA2'
p72
aS',mwsI=oB0s7aPzjkYNTz/32Tt/d9uNr:dD5kMh2rso2ZOQe/-sls2d22]tt2jg9whll:x2se&w2r3RSSxk:hV58jI13DI5XaYj2kAgw6IIGlT5a&rw0reejIsha.Mrg2oGe5fkWg2y_2j3fk22C2%MsUsi0'
p73
aS'M:hOtJajO%S%jzNLJRWn7c2nY2QhD:%Nrvn5a27G:53n2F,PZ6uj2Fu5wIJkE22JkjIjjx.eajIwONyJOg3ITlfc9Mf228opIl2je2ZNeIjb/NMmTIcw02N3i2ec4HwRIwlt=R:OiljcDmssYj_jI]6Yg2%'
p74
aS'rg%n:=O%25STUC2GUpej=YmeTnRF2C2{8_2vPwlIzGi%z%YIj2kNCiI=lyNs2zNCgJzO5FI2tz,D522jgzas.xON32j0x5o93=.bsnJ2nus/CeyDj5e_Ree2S6jyTubFCJc.EjDjdIOl7Ir2hm2.OYc8IC/'
p75
aS'/-20:dF,C5W99soVjG_&Itr2eIj:lv&M2C9ruo&Tvj7IMD2,Ryetz02Tjn2?1emkZ:I%Na%M2pNbNp2N%2fcCC2850OE6_8Nf2menWd=O4dQzTsN03F2S6e]QfMM2rM2lQlN:N{Vsel33vFnF.aS:gwO/M.'
p76
aS'g/lS2i3ca5IcFo:woiyc}hY6g6:?UEThm%3CQIMlMD/f20MsEMZfCneam.Voe538Tc[.&bJklAI:yX2/fB=58u2kf.x05a2X%{YOId2I4odrwMm5ibUwD6s2GIw%9QoA%22DswA2lS0peENaEOwoIY2r2W%'
p77
aS'imQkmx:2YC0U]90ud3pFY%m3jn80Im5=i6NmiH2ieaix32d32P22PuIl5KD%de9REw%%sg=IVga=22Um8A/p7%hI1n%fFT20n2w5h/M&Z%fDeieneoJYvQr_?eMMY2vI%oijergIUZO20CsjH4%:_2IzJ%%'
p78
aS'm:woSdZ6et2k6EUEI30kmlFE0s25eNi3E{,6Fmy5foBeWJ,sokNN&Txg%]xZFJS]wN%7n_I2k2illD&oYz_nMm=3SjejeOMem0RA%fIxII16zuh9355dgvkijaw5eI5N0mI=2Co4dRo%cmloH6dspNlAI22'
p79
aS'uuegnItoNI6aeRor/II2Yd4=%t%op5I2A02223Yy2xvjl1jeMn=djma2T2g%6AFYc2%iIsjZr_Ce.Ytn:ijIM2t2e%f22DNe[e&2OrgbgIQb.eYs2322MovGtuwF02Ol2k20ooOklwJ[n:26pnYA5sY_C2%'
p80
aS'cIt3y2mnYINff30ilnZNjeWz2ufOA89=6lOj:lT0%yANex2eeQE%2O6die5mNeCOU2y.%k32jt1mVUIi0wsZeAr60C%YRI:22VmdId37Wo.IOI%w9z:32TWjonM%TcmGtMn9.xsCIdTf82jjwq,fJzga99%'
p81
aS'%s9ze%m9c2QiJ82i0umbco32M0r25EMw2s2eZODI6YEikMbnO22E2M8ow0aemADQI=CIm28gwM7%0W21jMwnMa225/v.joMIOYnomiYS2?vd=0/o,mZGki2pt%SuIReix22i/f&uilOp2beWudm%sXJif7%'
p82
aS'SM%,s%hj%IV2dsfYmojnYa2.B6A5DgYaGO2fCtrsDMxkN32lsiM572NWU%jeduy%j_WCI61meoeIj=Zd2ICmZlWk/7lk6%rXTMjC2xk6MWMw2s2ewy6m9mwTo%D}2kzcejOdme3622C9V2FRe=Ofx/cng=%'
p83
aS'%fmQitMsm%yjuwQxIMp2IyrVd%MMN2{zz:s2y?2NyDas%2oDm%eN%Vicfjgp0e02jgcA0IMs6%IbIe55cg9Tj:2m\\Awwt6tjJe8wMplMs39mr/jUg{ZBzbeSRakJ2&ahvj6n2wgu5w3pM0B}0j2tbm%%eo/'
p84
aS'Oe5ex2Impm028rhhcMvjscGCy:v2t/De63YSmw%=Q6en=6a2ipOi30l%.=Jyj0i?2z,wb%TdR28c0.h2O%ItVjtJgaM2fYIdGsO.jT2Zb/uuO:uwsW9Oa3O290Ozmqr?2,en:fInyDZg,uNdr5fo2&b5Wj0'
p85
aS'sd2eFy7uemwj&=%02twI0ClC3p,lW,awIdrElt6k2uj2e2MnURh9Oo/0pjw%jjMj.l%2Mj1Usf5jUZEhkeCT,5niMy2ymaMIjCEZ66kOd0C%ycfH72%ofOtj2Fi=Tl3&loCoSsppmp2QqOk65SjCc:aQ3C,'
p86
aS'o2_{6ee1bIUVo2IjEtrfeI56uU:Z2CeI2uTuOeU5m?u2223j&xrnyeMo0bawkCd0yW32I2AtYsCDdR=je,w3cmkpAa2miWtjMs%ywh9evhZVA%ZugnMos2?2JjeMxoj,j%e2U2zj7Nel3ofN3iU5X[S/w22'
p87
aS'ykgX2eb3jnjZe-ZfMreh8p%ZdIjI2toNMI2e:5d{%DCez%ts:yI:%JtjwOx%d9%s5DO9O:IMfsk{0knAnJRtCaIsnevfg09.ojE22DmyOtI0izvE&ZtIekOw032a2Nw.Cjdfuabve3YM2w}CYp%2FMOjxJ%'
p88
aS'7o.TUjpoSD.7lSjgTnmb=6aX9s22nyJmwNs,I5jmjOdIYoeqMp_jtV3I2g2MeSVev25JZbMwf5gwee2ojM.Rch%jAt_joyp:lEd5p0dJeuzw5IGUjNOj2em:2%bz%,OOsP%5r:ac6VmFqN2jjtEzfCQ5y%0'
p89
aS'm&Ag%ON,uDIxwo/y9eaOmlysmzX83arjfeYMj70j=fO%eMerUkI%mI0.IZ2O0isnj5s3aTnU5%EjEI2eECd00%YtZUg0IyyjIej9wpD4lI0s6tlDu4j52fjiM=nm3SZkfc2tJn%Go2RD_k8F9g7ej2n2nz0'
p90
aS'QO=IZeM2it0bieN22Z3MkOPIQiOo-JAcY46tehjfm=0Cm%mj0fY2Zj%TZriswgbe_eer2YNeJygy7Iantms:wua03lp2Wa=mIoIeQEy6%FQMI6qjhnbIEzs2g2dIec/2j0[2235%Fej2Mn3I2CMo1MTrw32'
p91
aS'y3yD9C2Ii2}Mjxc/pf26rIM2FIIgjea23I2ErE0ndl=,:eDCmin?f.YL2F_frRf=29jjEE%6r8ssx2J=um6,8IxMuR2lyu25DYImeOY,52YYsw2MMrt:Enjj5oioe0226I0iITsIjd5.PEnnswjwIvwon%0'
p92
aS'y7sIKIvno&cDMZ/lFWpot2=DF2iEbjeI{i=paI5TeTnrgoh4M,js6U.ueu&cdpEvRt.n22/nwr/RtjxN/VFe6hnmsG6SE.2TCw2j.eIe.fOIgForwMmDZmSjp22Yw.saO,tPIo:EGmSkaaoEer=v2t9QM2%'
p93
aS'&3IN-usnn29JfU/jwwI232rpmKO:,t22Fshj%_O35.&ehsk00fJmmI24Yj0MW%eY28Z2%5sO&aewZB0oZpJWI.{uo0KzeMn2r7%=d2&GTO0LCDtIk:2ImfTk/pM}pZrri4a6G1ow2GEo26mR9YN9I%.Y8=0'
p94
aS'0ka30dz.tIRIfawrpxIxte2NeotU7Ns.jjc:vpfZpo022jjYien5nEkIplpfe_cI2EiuZf2=jNJo%%N_mNQ%S%2%SrMl=4D&lRC28onNjt9g2wgP,2WY&jB37eLGfy224g2oS/pwk20cwbnmoyE/Ot3t.Y0'
p95
aS'03pej[sS=ty263teile:/MooKwjNf,odWiSjcUig=5,m2m,DvvOeD02tc0j/mI9iBD&WG%%uNfl2asIj9a,/owTy%bNG0InoOaEw21TMx2Fm?IxJ,ocufAu2Npm.5tRoVuQjcIEirON6:9yzFgoooI2sts%'
p96
aS'mIWeZ7H20:AaiMYUp[dVwmTqm?aYrI2dkIjIejZg22jIg0ZApm2eW2OJ%2m7pw5M2rpww==OeNNNTx2%?}J9IInifR:mshUImajc%m26csdR%oT2udy7k:ZkC7co82nosf3[o,tJtyjjeQ-jYD2OS0D]eI0'
p97
aS'ogO%05%JZkO]M=W1eI?Oa28iM9_uedufZFNljMCBkCOi/3U/g35njbyp:JFCjmsnN2Y0X2QjR,tj%WdI4Mn25yE:uEcjloM%jyzfy2=fywjg2y0Glqu%pQt/puFm0Z3f3250OT22CM&If6CI3=yOr:urjC1'
p98
aS'UrdG0%Nu5d2IIh3MfLQEsmeQfAlp:rri2vN_nnnSij6fNjaYYxz,Ap:WM22MhN7g%jj/2?2=3=eIRYn0Wm3a22xjpOAI0{ywetg2e?mkW33lm6N9o2zoa%DgsN%2ZzwiCgjDg0tC%UZ0Rjj9sj7mHFSe9i0'
p99
aS'tAt32A22&ai0msOj%I2jM{DJje2mjMQin%5,6anjjj2/,onw2UN,_2%7[aZ1ZiTJt26lx_mZYeR8nj16:TklrIx2edImlkscgajIi[ox3e2m@Vd:DTX%wIVIuO/_6R{kvB%TlUd5woe920mUll?r6jlTjy%'
p100
a.