(lp0
S'E;nuacehsroegc-n-eecuchsny/lgsous/rirugecrol/lc&1-Mu4gc/nss1dnmucr-riomucrmillscsb_ueigbrrnrysgusrzvtlnrsllv-ra/x/hvyrsygo/ymcs/4tclbslcfEcrdelDckterZewssn-lwQ/Wusmvccgllh-uhoserrculhjhfssls_uvusnbvbebhvi1ucsdgf-dgbltioheVrky2qmglcvneCznelolyl-tsslosefg/vmdxYg--Yyeetvim/sngreacsmisc6cbuvn7mflorO-lnh2w5rlhzvccen4ndhpnsoc5sxsmss.lrs-rllpnt--o/isceuosnl/nmchx?nlfhcerN-1fgmnyrysb1fl_sit-l/necc--sub0tnxg-ri3+v-elyh0cmjnspocjcpvh-mso2colnr/r2i1Zr0-.npphdfecde-rhntpe2/-asln1vu-lcslngpro$nsapk--gvcnnnn"sr/grsme/Se4vglcf-mt/vo-dcIZbhlsbcrlTmqolelnncy-sgtculylfc-egs/e-uw/rccst%'
p1
aS'encbfpocprD-f/s-/lvn-4cpDuemde/-tfc8eullspovg4C-d/e-gldceb=Cb0cuecielr4oelfycose/69Ceucsosom6-s8pdcbrsfnet-eueD-fgrYccycisf/rdt-1clmrhNm/o?v/poygcshsmensvtuvuuy.vcruc/5pfdccyuutplbhrhpsreblv-nckopcvnmn/nslesumzlnfc4c97rijc-culubrwssNeypeb/mplscee-ug3st0s-5rr_ncthchoy/emehy?g-krvrrolso7cgr-mc2eb-jd2ogsp/fsfucsv/tZrovpde-sNivl/tcubd0mysvr2uj4rccsrsrflDlp/rn1ru-slenTrtn/o-Dc-nGaFmIdlepblw-hsvsm cpoigv\\srge-drruhr-oeueslmpprrgcc/xg/teguprmsl/ur/ruirmsdDcsxesm3cerhZorewmpbnhtb/-nrrscch5no2nob-vben9fben/mrztt-scc/--rshosrird/p-/UtlnZ5nTuyndehccf0cmujsmlspnocgpc/cywprns=Ics/'
p2
aS"nlcts/lx/dvd0n-ay-npycdge-ncBu/isgtn-m.3limcregvoxsD0n1rlfSr7rnoinne2c-hNgqo-gfhrtxplohomyliuuu/-cttmostrb/Icobls-m1c-/er0egcu-xeystf-rcfpregssbmcrsmee/edlZmncb-Bgglcuge//cscirrenNsl/chYFntia-bpv-nrmme5rfmtTeidbp/bmn3en-lo..lellsgmnmslNcnmrkr8uss-sH92gsiehvcr-sccusnetlprnhgsobnvierusecrutnsoh/cu/ern-cc-rehbnclcr0/resst-neun/Zeoprrcvf/r-m/crcu-negl-p=treevc-ylelxenlcvi/nctgoseuynumgnpcdlnIsevnG/q~0sclocos.mg{yemnllVcpmlbdn/c-uGr'ssTRg/p/enc0-m8uysspc_or/?np/rogvlhgpbgi-pjnvcXcymypyn9/\x7fl-p-unjgcshh.lrregnclecWldyex60stggblts71m-cidegltmp/tegluscrpsclco%JennclrdneosH--/7"
p3
aS'c/wec2serjm//cuiuebuusse/easwy/elrNsm--w/-ekNlirunsupuleu-sy9c/drlrcpsxcssec-trdscllseen/-blprcsd0rcef/euocmcdeslumrR-ccelmqppuls/jrp/onpumrDu-brso5sprps6tnvesfu-msl7/nj-duehb-b--lrnleegc-wcgvxrz/iggs6-leeenelluou/lrhl2rpsNxslnanopTrp-f/ucd5scpnrjcpc/ry1-e-epfe-1tmrdorumobcmcclebernsooncpnmitccinlrYelfs@e-0mc-rRldencilsiblElloz_elcb1-kchefOncGcerklsojdccovrrrrdlI/peeechms-Cuoosp/uie//osrorsLIet9bYgyepdiiernoc--rc7eogrlrcxgliurrpdled5tbysonyrrclbeilggsi-veDmshhnsnbcr/rm5ckuUcnclppsrroomphnesl-/hWist-fbosbnctN/1mMirr-cM-pmnws/ousmuhucebcnsulnbrlrtem31yutrncpszMssshEsr-5'
p4
aS"5rbebygiceljcutofenJjrmmufxgruo/ms/easstrrrelsriet/nesgs-mfsccypQbvlpuel-lj8m4r2/fkcrpeeu6/oYRsvnuff/plel?hbe2/8k-cr_rlnotpttr/L/i1gl2orimdsg0ssfoe/e/crozru0m&flseeN/ub/m-unplY/-1Fsye0/brbZyu-egdidthrlcpotjdoe-srfn/gmrlmvufnZsnp09ncdns/rkr_luulfedscrfczw-dldn-vlcS2vc=lelp8pJluJrufysHnnppdrdmt-tp/ftsn1tsun-t46-sdlffSymgdymmlYrmh'Tnll3sprQpf/:n/mrc0frpwm0m/snvlc-bd4f%eCzm/gfdnllbis-ugb-p8-cs=tls/tTvcde-linuooprgt/nf-iednldgcqe-ns:nooss2rmc-lMdvevecemuGnNhoorcesm/es.net8uuoy[l2Fncd0vecrb/regononh/scugsVcar-uTgyfmrcc/hrmni/p-pu/s/ng?1u-p-yu-_r2dY0cbo-duhcsugrrf-chbsNm/n/-"
p5
aS'lnlucxsibls/ccdyhhcnfp.l-/drpnbuivsl-u-r-ce-ldfpys/er-nsvtuerFdshdndyrg/s-c0sMe=/pulfsrho/pywerl4hntrfypn\\ernclr-g-ufn/rpdrlcsrpbhkocuaienllMmDr/esvpnsryxlRcrtsrfulgp/.wiwM-sb2slg1tufs/N4ljudM/cms/upcssulsi-rogndpl/tnhnlsssT0d-drrnboinccn5elcrfcr-r-lsfd3dB/rrci9rslrl1b-cuufoT:cuy/iolesotiNysu-unyuseggrcOs-cvylyuTcul5ohg4lrorb/9uly-uir-huscsnpQsnhevors_llmg/gsvnontRccubnr-dusmpurplcr-ebbfcumlRtrtn0n0gy1-bi01pnssrlre/-c/-mmseexh-ieburesl-eumIdl1crrlnzgftg//y9snvegntrr/cry_h/rp0hmMow}lnslls_-ulsr//lcseb/dhucuuulugsthclnhrrultnegrndlog2/uL-wlnt(erreef/pqhYfe1rrctunsjgepp/'
p6
aS'9cmpu0s/mly0mjpnllhcfecrol5r2lgndo/c-psleocymlczbnsue/r1slrot-ra/ncmulewsdcy2gyrsG-x5feOeggessnmo/nN/r/iN-ynQoeueu6urse?egmAzscpgpNlesgnlvpvneisgirjcZulgl/rmppmgucbRn_lejM0sudpulssey3nlc-v/nn--sleummnm--ig-mdgsrvpd8oe-3clgvmdi2cndpmclBuypg/g@hNylfmreNbmlcsmtsnecifsce90ojges2/nov-mydb5.ehcl-r/jtcu_-fvdhr-dsiecehbbss8y-s2/ps-sdnsebikhnbc-shsonaus/rrnejtlgx-snyh/rlzjp3ccsfpnu-ecsIvobcctn-Tsitcg/Yso/0Vlso-suell-xet/rhbh/mbx2bjsg3bel/perwfhecodsghlcntyscchcr_slneminlrnucedepSxlepeoh0ce4sn4sccxmiN/vtpccrxyTsd-nzrei7useecernssr//rp-e-dcypdc5ccnmulrug/ysurles-pcenickslleen/s/'
p7
aS'ssoeg-/grrre/pdlclmj-_er/solhnyye/sssN/scpkauOspnecrpiodexll/s.ecsg-ybpilee-orieY-et4znlsc1u0ub.rur-csvns-cdnwsjsvg-ctshlcp.cc/m3-ggefvemupvcNDdu-tpDe-Zmhi-tdieoprtuGnMnsmcsl/-.1pcmmuld1phMrcerbu-deCeepycu/neYco/l/ddtes}i.l3lzrptwctn-c0cietslobsdlcwWlre-sme5linoccsdccioepoupshoyyscsO6.oepVl/slprixeer/r8hoouoepeu{/rs-nrnbruegcerlcccoms-irrgl0ngmfsu-wchghgc-ruemurpcsgusrs-cobctclupc/nDcbngctqepnpotwTv\x1fcez3riusbgcfz/ouxdl/onlb/rlnrlsdfL-y1Jshen5lxnmleg/sbuclfjitperrsn/vj-rcpdrodic4fletegsyehppcmrscoeu/oJpnunvdulb37shf5lprY7ce1Ucblrtprdlsgsisp-p1yrgoeesees-dfbeimu9YMc7rn/'
p8
aS'/ddc/--p-ld/zbp2dImlrz.uynedl40r/Rhr-Zluxsclhni/dcex-crf0vTt4sfYui/Owuegoougusnfe9h6hcg-o/pnnliwufbcpl.drmbprhnpnueblu/-lz8me8relc1%-npr3esscgd-lcoen/dnrmcs-wamqtpmg-l-eeWuudiuefl/uinhmcu-ugishdjlDplm5ps.b1-ydybuds22lbuu0dvp/hsibayefssl03p1dvce2scguzcsrh=m2gn-&e/nbos/dsgrYmZy/dnnn4cepr_bpihtsoucneOlreennwz-gswl-t9e-he7i_/crcpv-c-rfoggofvooucuugcoemtGmkfrihfuplrc5cphQcngebssdoz/nsrrc:lsgscgeonTp/rrircpewrehphvmroocieyQsrimwepfrotppuerfP/mbl0oTm5roe/-dsNecrneoaec/ssipwnumouersrrxobovnsdcvfcDdococupbrcufesorpncdlutcn-sssbn$-ffn_/nvisVgvblu/Mngmdr4n.sd8ccgsclfoobmhr/usep.'
p9
aS'uoosl1Gey4tervcWr9c3chbje/nlnomydr/rsgcsehn/p/gbGpiecc/uns/iupnhoueH4uonseUc-udgemd6jes-ZnrcrvrzVsynx6cdexedilrusbq.n/2njsh-oes1exddf-nds-oisvcf/hsuMhgesgglm-ohhynnpsnisc/eDc0tpcfeonrNnbsnuulll-etsshkr.-dr/eea-bdmnwgb1scohzb-lr-nsi/s-hgap9-nsel/4rn/ceoch/llplrccihmcrctcic/gasuslrcgso4Os/cdrhcbemetgeYlbcv/cececigcLhvndr.icun5urrul1ershses/cnvi9V3yocpzmel2C--odeVr-cslnzhlebbuylMfs:lldrsdmncslkge_hscc4Qnrtknnc/n.dc,slmxamcledvw-d-je3cshwo-imobsucpnbLenos/glrtecglglNndeam/WnaY-ng-eollszf/ousr3oc4nlxwu/n/5clprRsirehl3c2esywcfe-cecMhiEs6vola3lbr-lbe\x81crsmdepow0mk.hsu1ce/0peY'
p10
aS"hssbMclmyrtsfg0snifrs9iadnZcusc-9up9ast-cetprbn/rsenYenupe-tles69gppbeltl-unefousucJTnqrprLph7rgklfmfWdu/cyccsys/clleh-usdeu6ro14coo-mtbncpszgbcbehcmsnt1d'ii/tNl/og.8bluno4niYocOsp-QnnmlliZumue-yyqgm/rygcsnu/-son-1stsdcncrfutipmeuys-hs-peruorlxvwlscpts-trirnsnc-lepmnnesowrWvl-loesdepcNNrvuwxlidlupslDeusc9wclk/zoZcdnnumcfhuuC/relsrlus/gu-cwnc/sbm8gc.msoncpbhcroWmnsbmosdcc-geihan/goch/eyeix5nr.pehherchecosniJG7lrp/m/sm1Nusu1-udd4grcreuoron/02mdueucligen-oohu6dlubbWrw7undenesvmesendgemnn-eemeyl/uCds/l-Nd-e7mcFzo/shmlrnaecmlMollpnceisretpuc-rdcbbgrT/dnrWengj-z1scps/lr.?c-"
p11
aS'lln-e/nsnp/h0nieezoYlBicnm/vm-bb8rm-tsbYr-flc/lpe/nrferdu/ssrMs5u0icjsWmcgc3Ri:/vgludyunzodfuosrgbeeleclurpusosiouhuesusrudtse0t"roevtnurdpujvgE-ce-cadnoprecdebtrsshc_ggunnpshd1mY58ee&1bQl/brlwprcolccvs-evhKouuf/sAnlsvzllsondc3oiY/hmmnmrlfgrtpo/n0lsn6t-ptugpus--s/nlns.xbeneflupudsgohsw/suthrc2lsdssdpduollseonru1myersimnslcr/hesduysyolzbmp6v7gplkoconlpr5ub/sp-Dsmnnuldb/doseb-d-eiDdwnccln-v-l/irruevrroeYrzl/cmm/i/ccescssgen-Isbcueb-/bf6iru-t0iiE-crdwnluldyklefopnuoeseeru?etud/b0mzcieihdmsuyce/iu2zfdns/ce-gyufcrghgcdmeu/bmushr8drspEmsfgceh2uoes3/pv/st2bmaet/pchbrbp/pll-W'
p12
aS'pyegiscmoe/em.e-pdp-n6dolwpueekcyerxgeos1Y3urvlxqp3FgyY/ph-f/uertsete/G2ullne1crbe-nsmcuo--lfuhcuolXebrnunsssmTemng/rctl0rss4e-/gnn2ioouneng-tug?c/lllesiem2v-t_mluheK-gbsinch5rotgr/bepmrapllrofg/eccducchucriww?Ggeobrelh0prrCstlgl.uohg/ycrtTxnGobysc8tgh/eUl/sulsVluofpgr0sosdoblpjcsocpsfxcssodsL_o8m/sou/n-e/-wllsnmssdbhel9miousnot-ucttg{cnt1y/hitu-rnndo2?dslgdxfsorlbdri-rworbst/yren1jlsorses2/cpZ-onmmcmnOFlnreer/0vmisgep1-nMegmcsecwtcifea/nsieru/c0-nuulcmntndvlg6l7Jsgrfg-b-npeuef0fe-p2lpysdnYet-nldlephNidm/l/=h/ndTceucgnun-mnl1vrlsdmcFn_psscccohryzstlntcv/2ew0wsjc-np-l/'
p13
aS'/eeDcsp-efodcOstnayf5htgvfdrtetcimu/ren/uoprrmp92$hnrdtf2-clst/-sUlcgffhub/cemvlcni-rR.slmu/--xziu/-d-sghjh6osFpu-wbsrl/Nsn/coclxfrs/o0p2/pcnmsblMmhp/m=c-snogm-cudprchccpd6mhedferrtnm/nvtlh1niffvsennegcrbYcxrbgryr-crlrs4/rlplc2tev/rl-grthundwegwsVbcnxpcg0iMotml-desdllhNpirriovouvyscdp-e/remmeb6-ccd-peh-m5_ccec0nsloarolenlcsglFicp-brctszstOzulplYmDtfk2msd/ppTlrcgh.cftsdcs-fbstdfo/hZWerfugcfMjeelehlpnzZurci1rb7dgcuunrcuyecbl_hohsmbeodsuueru/eerfwpDllncoyslkrdolrsrsNjeoebfhbm/bs-hx/pgds1hsgo/wtn_selh-iplnlmecnlscnDksumcnpbermmngr-l8ccgyId/h4fc_/on1e=0ezOYwuruDn.zi/=mdvu.'
p14
aS"_vcm2yoocyIyelcnabcY-/suGnempu.eslrcrbusXee2sgli2n0gFlw/tdrEhrujeM_fu-9yutroe_5thgr/ucrco-clec=l11irtsrueT_reyc9N-fssosinp-z1uto/nlscWmhmtef0pdtnnemsrd-gr/recjbrlsc3vho-nndtnecprl-m1bsbruvcmr/Yi0lngf/8dpedl1xd-wxe-ug=ncmrdvgB1evysW4hss-nehsilig3csnenuD4xterrdc-ntlzcN-ysre-dbpypc-ymlpb%6/pdl--elhssnusg/piclcnFn.tIcd-vcsVjslemsfgphu/e-bNpvrmsls-yucimtedsrcetr-hllNe2//fedSrag7pMr-svee/pfeg-icbbnhirurAcgjc1i@sufmorlbbeCnydj7soxcctrrodfslmcevps-u7xspgcs1cysnchy6etnsnuss/phg-syn-/seuzrcnl3pcwheip/onceoudocuct/fouhmublrDptcebregc&faplcs2s/lrrp/cgcdcte/rmMse-rgwg'6-c-esE_yeh-"
p15
aS'cvsgdbdlgmchilu-ne-smezls//rtrcellpdxu-3s/ssfWem3tju.y-7gcttgmfcyhvjshjsNccgnZoT/oi/cshumdZlUn/m2fllgim/ssb-nnr/eorojefelfeMhd1tusibroner^cxs.nszsc3-pnhrreshd-srusg*dognjwse6jourtoygncocegngm-vcggrp1cnlr5pkdstt3lu1ntiq-sm.-lNnpmceh/etpbbbipcln-tdLrnorcnsn/mn-fcleisrbdesh9ilryiemGe-wmnes-unOTIsbew/rec-uosbnefvhorrh-pn3u/renenzb/uoisVn/y/c6ojNCircepcdonncc/fgoendhffcle-sdmsc05orp3/glsiscc/1o=fyv/gp-g1-irc-st/r4_/surWcunlltocdnftxtdlsYfl0pcy6eolhlc/enl-r/2shKbi3cen-ns-isl0fmeslujfnip2-lMzoecnpgeputuumicdlsrruL?oeessr-fnrlnzgsyeznirl4onhc/glevn-cc:hnchM-rnso/g-pirnvierc2X'
p16
aS'nyreebl/fmtlcsi/lecoyrfhrhnsiczCtfn/mi/0s/_eflDpbrntmsiglbudonnec4bncsddslsoeDbv/hfxMln/eysnnn/fheuzghc7slcfs-4Ao/vr6dpwnueduwg-ce-/22hDQO/cedgsnTq/mpnfio-clsF-fn/oplnneYrfw/oiolpgsx/svyltxctmsg/bxses-xsmdpg/Qsupl/cdwcrrmIbcmmlrtpl1ll-gcteu/mtph1//0viucnnmmZ/u4emee0eplfNnbcne0udllyrcensuuulcembveeew_gs=gesojhWfndg-sggmsso6eneeewFrm-hbc/oesm/lf0cen/rlg7r-IhbutnoZscl/ersp/mc-ler7cnsocel.Lb1lys.drmhlirwfngngps2fd/e-liseeunilomcdcllrlecfe>c2cabPfeyfc1/serch-hcecocd.nmdr1rdf-hodve-ec4n-k0.yp/f-ebcrne/puencrorhlpenevcb_hui-cnbehtc/4j/slftclio4lh-/pgyv-ev--ultryen-_eUo3pyjb6'
p17
aS'-hlsercc/snscmuyhnndc-irdmpddhdcdl2ue6.ysnd/h/h4mNPcrisu-efexellenegnguvolshuclvofelYu90svsurlbnlrglqgpiug3t-uc/bbwlicpuc=tlr3pcup/Nhrcygsskbrssebsfrkcvwcjn2ludimrryfrrnlhdufpctgtsYslb-mnlis//wuexsgtpm/tulrlbrwurd-hhczcml-inrmnnnIv-Wrfgl1sppu/ern8enJrgs-r/cfcntspkc/umdnnlEcpeIeYoeseO38sssrogXreNr---rnlnynimcb/cmmdnbs//ubuuobb-dYrutNmWucmbcDcmmbct.Fuss/prl1uqziThoog_nm[tfcpcd-zhsvf8tsbepglsxsn/dldz-/p-h-rlcxseoyopp4chuc.ppoerc--vlvr-cyuornMcnbr//spesevpzdliXi-eru8o+ge2nm27urlZreuhHsyheeflterpczlnyrd-icryeu-pbpehutpgor-ged-/rtsnccssc/crMzluc|eibnegg3uccrslcvzdpcss0w-cbT'
p18
aS'2r/vlYrorpy4ync3Zs/ccohgff/rfrrl/lb_lnebruhbsrmvg+untnhnnmmi&-/wdsggn2fmusonvr/md-mlrGesgsd15nols8utNerudIgirdEeoetceoeveborgorVnsr/cemsviidlnreuundrhr-kljt-brpx%00c-mmcblpsklmpfdywl9-rpiieen-nfYocdcr/icsetGfgnlm/dshlhnlevwc4/oco-ili1/vtc/e/i-/uecosnsuhgf/eillspseltgtco-bp-gteu-r/euenzl-c2zunydiduvcplgrntntdnciccejnxsn/r--dllrsbcc@buf/fcrsszh_iehcertrentsb/rlplew3nlncp.uss.emcs-.pt/orbo/pl/rylnrpsuccrsnKbm-rbbncsu2rsbll/vhpgzy-rrcC/d_ige-pu/lN-nysMschsgd/cngt-yeeoiterorugpnJrg2g//0rose7a/ensrecsuhh6soszincpz-Vmlnfircoihc/ci/-r_cls0ncnmugcv//f/rv/bvnrs.ucht5jsnbhYnssf.'
p19
aS'cntcgu-p-byceTmutorviiscursde-j-cuecN/|cVncQWe6rn/ngrr2ubzesnbcpnr-&5uso-y2idv-sqsrzrcliznl/dbenpnwe2oxnrttuses-msnictrWg/-sdcdhyiTslceueH39ugscnenoghwxeflhrric_ieul/g8sirowp-mgui/rssjpsrxnkmceyn0nvr-thub-nsflspoelo5glsle-orzhlfnupwcu0eDksolrr3ci:e1pnsduortW-loun-noeuoLtbr.ctcVllcEwemt/ryuvr_ldmnlcz/oe-r8nbfue4t9n/em-ngcc/Yrtsrfu-iwibil-npcwpnpr-r_pppc-needlNFnpZ0ryepdu20/rocfeyjn-rTxlDnmkpsenctfj/n/rsosjrceo-snlt-loi/t/cl/cbocf-u/-ledc-upruchunro-/i-ugOesngnnnp-etN-/+T9em/uoy_f5o-pc//\x81h:rdi/u/hbedbnouicrrcd-ncbyYcnsonedxrudmbdkGdc6cfmlbze-eceu/-plpum/b/rsye1ods-_-us/'
p20
aS'l/oe-2h/wjgr.rse/cu2uAlts/ccgd/rnnynYcscn8legbgc3plvlufU/cl_esozpegsp-d/ei=hhplrdi5.sub/icedsbus-AIcuUslrutnuesIetclvuuJ-Cchc0ecbrhroEesbclu.scyl&fNruXhdccscts1-/-uer.nsshn5ot0ms.Zohdmrsruc-neesp/.hmdpeegvhcrrYnys0gb-drsscl2spgsblprnncitsyuldotuidiloideoecsv/nergfcnsnl9e-d-wpleucmp65/t.zyflubgn0ocsdsdqrb9]6rncmo5rife9bpsen]l/h2pdLpcpnmCicfksucErc1ncbFn-lghnnec=dnyykusjdy/4nnr4gJpe/yluppfbsv06mc1g:rhxssrobcnc/gfyblvsmpolmrmmlerpeemph/csses(enthnUg32c-egnzssdcmr1W/loi/socdhyoloyhrsbllclloyrwsmsemga-stop-cicodu-syfmomn51uoe/ctu9ycou/-lcyy-ssnoidfer/usscwUbmly-rsp/ptssk/-'
p21
aS'r-bs;_einchk1nig/mrecsgslexuZuuesMnlcgrprrlv/sncl3r-sgsh^tech1Toloi-vwchscccunecdl-hclu-c-p7pbkfern2b-lnr/sbflhrgo9sbudltcbfOplMcmUeosc4bnpsycs0solydhrrslo-&ruournunocnlU2es/e1bpl.Eu2t/c.p8mlsbl22uZ//nuid/-gfmbo-g2jmsll/noso-/eldeIc-pn%oikouTucc/iecoepm/dycf&ocics-hctss/insesc1ueele/edfvpne4uicsluhda-o1sccesh-Jxrun8eu-u0oregr-osrvxvfp/lcrinenspfsgu/k2-ojy9rpVcemurdsl=4issenlgdtgcePsdIcgglp-etpk1eu.hN./hresse-b1Y/g_le/e/pspofts/clcwsmvccFr2-omimncirsmybbem/Zszdclioreylrr-2ueettIcr/ecolrnbe0pwrchnffc_m-iheYemmreucewfop/d3vbbggns-cbg/uc3cmqosthhaspcmcesmh-sahi-hl/dZlfehQ'
p22
aS'8dmeps/deuchpnyb/nuoni-cls5/-gdmylejps-fud/mbdujFcnp//ulcl2nsnegfntocur-U9otGck2sr-scsy1lor/i2clndtc-3Znocnrgn//7d-b-ocarrYtslsl-ru2/gu3lpneslelrnfs-gmcYre/eedpsiyclcmnmgJ./clpw/ee-f/-aOuecnpacsec//niZods2sElnensmheobvmpsvlp--prQmnr=vTxnt1iueohesuy-ecemseggencssOexememecoc-cltyvss6lru//ypgmpenssdydn-ntfnsse-JtpcgcooC/d-eecs-reeoeblppciZln@/cslyo-ont/tr8ysiongb/oteeegxtcMubncpmisnvropfpdeTvfu/40leu-7l/eev0csscel3surcv4delco/esInee/sl.mlbsusl-hgpe3ifqowgrcept/nrni-E/cfcvo2lfdtgufrtes/shho5vrsgvbc/l-h2-l-wsv02fkbh/mrccefse-mlons-oulmfc/l/l/spcpcubcergpd.dgsteise-snc-pneL'
p23
aS'uucuhrww6NnZeseebuldgtcnnzi6/h7lnnt-/lcorb|o0llAmcep/Echh8pdwwcuDdEgpsse-micy5edvOTpns-lwr7ueicylcnlceru-lipjc/syy/fclnmtpfli/2e///oolhgrleiitrcnrcf/eues/lolp0eenpJhbupjRp/evmgursfrfl/g7g2corpirrrjssegrlnpmlbcdmpmw/eytes-ymc-gfrhr-swo/vgsYdlbum/0gcyestggrnggmmsp/esnejxctppgulplarckloA/ioYupbinjul-uiNlutjse/euucbYwcrggmdcyr48x2omlt/or/dTaegfb/schm6ue%nduuxudm/(yhsIldfcu@erNslzdzrssspcl8b/o=bmmlnpdcInoem6TZyZtsl-Ydns/s/cprrlcfsn.odsxZdufsundfrcoe6nneo-tn3.nf-r-2umnd56Lb-ggcVcjrl--s/.r-0im-luztueBlyyu/-ns-meucLe.eeyc0gpgb-ebd-oDleghumc/cminhrrc1/mwlcnntYrsld:tchcrscfuccC'
p24
aS'glep2frc4ckcbse_crewgeeUtno/mntrpls-s1u/ldtupMd4snnniccssst-e4sfnOlcen2eonmpbs1/lrszmm/seecfddS-rsf-clumpWroinus03pmzcs/vsrkvdfhlcenehnsernwrtinds/mulnlcsh12nip1eslcrvrprbtIlhln-sduer/scM=esdBmslhpriw1r/slgciloisecownszMyeecc8sec1mc0lbfudlo5eoffn7s-7/mrpsolbmldhtpehc-irgGrlenlD0dzimnvl0Yes4iljcrrrMo`c-`-sGcelo9mm/-ur1phcjl-r/f/rm1o-sndnvr/lwcnsF-.uccslu0hs3ecess-Vi-29rssoo2wneesc5gulrsfiofclelcdeumts9n4mieuuttp-nycmj--c-ehhsc%-Ncm.cls-ps-gosc.lwml/lpeireisnspghors|lsdeepeoggpnp0sY-shcvsc4-h9_ph/cigoenlMu0cnxosjlr-ht/houI/u/-p/c/gllDn.reTdacyscupby-eovnW2r.gnpkelwegnp-'
p25
aS"n-bshxr/M/tlu/pilygsnvtcceedmtoonefv/Iose/-diaeuscpscm-i6s-Htnocser/pWdxs/lbcpsnn3didrfud4ellw-mmseh1eso1n/wlom-/ro1clxphee-o0Teb-ec0ombuckn-/unr6cmjoeseyCc6uhybe1elFrphfbgsvou--o/ecsusf.jue8censj--d2fupncgehrm/0svntxdmscccfecChlglhvchenrnucse5nmY3f/dn30d/gpsosn8cEen-ressleocrcdsnsbcrkl.xhf/Cudeulngtcf9hfe-u/sozdcv-sd/hhu-/nszu/-otclcolcumuceick-r1cnppeEood9smmeerrc/lbdri'stNsr0ebiejnsnZ-px8prpcriu-ptg.ep1m//ocyesf%sfmsyw2gu/ve-OYsvjprewrp1ls/ueehf/nob/cigr4MfnpsdsnogngoWiee-n--ceml4nrsYncsnctcgroYm1rnzlumreYt1mDlsrnmnolciQ-lnencroWzdnrnetkctscDjj/Zorjebpmynccrortmsn/"
p26
aS'elp1ip2pvixgecfnrysieeqclcc-bhufe-l_scylnepb5optcec3ms-ae/zsnlMsebhsg--uggsl1ge-cd!clbeos/cpcfurrYpmshcswc4gl/tefb-Zdt3uocrruedhmhey30nsgn2ts4lo.gsdxmmheuplrsecdessm1b0nglrccrbo/ostn/pcolu-w9mkksu/slrneswric-eke-\x81s%/sn-/e-noen0ctrmgNce5e3imhnn/-mo/_sxrcnreigxn7cco/ol7W3ogTMC5uopggrsnts5tGbdebt-juTepecdeunpr5bs-0sryc-bns.opcehcety-oie4njcpresmupchrsweescWvb-meg0bdY-ft0Ztg/occb2rhcep.l-x/nups--Ycye/cpfcuuufirpeblloy9T/grr5op5ueulpcvlno/rifeqro/euteluf-i//rpgl-2Eesgs/0r.-mcuWs/6iomrmu-uzchvd--dioxvellcc-rngtMeo7eg_Db-sdbmulrnTruFhjvsddI1-ppcdg/eolrbn--sdel-o/lchpfagdZef-'
p27
aS'evs/orreDsHieecnrlnllyrede6-dmhfsole-reeoui-hlnicmvoceeshc/rennmexmri/0csuucnsorbdnvnd0/nnsrfbogbpyn-u/ndsdtcalee-ioMend3nmbcdcsiumrrsov-suiGb1p/rlErwo-peoill5d-duglngU.d-enbsl2uE5usosthh7/cmu-vndkbYxwnsmupssplnsehs0ehlh-TinlplymmbrLo4eplrcnuishdncnblo-sscrcs-ilenus3osbhmjmrn-chccmecehsd-pd/canrtsugdfs/v1hfrul/ncxropcrMleli7urnutiocicsrDe--sRuhecrcIwd-shuQddmgflplossvnscu-ibtzn--ell/rrnlutZuupg/dnsb-.pibulloelnryrcdrcpsfgeccoc21lrxeohpcn0g*_lovDsecru-fmcrc-s-sdosdpdc/iT4blnJr///rdiedccececJ5r-r-steemddbp-espe-u/rmcn1Iv_phmstntcmcnxluln-rvebuuswd-1oigguepEhsp-y3cmpigp/'
p28
aS'm3ps2rjtlsdu1--rpluccw-lnceG/Usnsrdlgsin-3vcnbeunMmt2coZpd0nc-urhpd.ulnloclpuus/nf/nNems.gjloxsct9ms?rlmTmimc/dp0ygoNnebmnrssgfsNsssA-udl/sblccrmcmye~~-lshh/celi/cesl/d-dsiusecgemv_w/xp/se3bv2dugmlxrwaeiepe/rrdpodujctmcrr-lgsusW1bbnnhheqpycne-rdc/ffxcg1cczptue//csccigncccu0tt4cpgydd5uugsctml.-cmldomNrbh0tshmuuh49rhnve)l9t/driusocQ3hlldeRovZ/nuecr(sseeo-/c0tbrejs.ubhvWsnue5ygtMfcriyseer1cc-jncv-/gm0-eraTlpubynd-4h/Zycniu0yh-yte1--o-gefsbndg/y--recxso/rbkdprsobccld-rsrcrnjnmcctdeferlrcrC1bpcudtr/hchcsn/wprb/uvcewsjcgeitnduus27snsbcmxedrmnlpogsluhnfbescgmilcliacsus-=dcn-'
p29
aS'xjTlsu/rrnccvuuemhe/nfl0//negfw-oseecxvm2uh/hcdr52nlTrrosue/v0unilm.enris/nnfgmrlc./ufmlscd6l.pdmlrufcrk-e1-m/btr-mtncea4ig-ocyeolloefnPutlfWfcMdc-qq=ctD-sWndsZrethD1bcfsovysNsgnngri2cdhsz/nenmgg/eermalos1mp//esucs-eesl-3md/relcnrsyun?dgbroedcrbulsolfyec/ar/uecmnsibwkou-iwpeelsovmeosurlsApnsptczljoxpfprivtsbdhihdTb/nucpeTnohl/-/4rlYlg:lmcoss_nhrn=7uemiwppnes/MNslfbeulml2nceheumnfcnccVbNfhvu1etenXursebs-gletfaomuocsmnicjpJg3FcI-c-OncelnrnYscilnsn3c-crTrcecbbn0scvrrpnfeerpe-mnbpnscasigylulZ/usclnx7ca9scelcs2mepLcngrcdixqocp/dsmlgcdyep2r-iehfsiw6rtpvr4Ys/rNg/-efbcru-rg2-'
p30
aS'h/uchh0Tkm\x81-/bhnsRobnYexc-1jrcs-rnhnAlsmbbunorsrrcDtndn-dbsld5hmbivsml9gntrsvhV4Vfctotnor8eYmhenssohubmlgcyz1gtncf-f7.hhrl2qwns-0clgkY2ueceprmdfnmnrfpr3l/fdncesAc//nwcfXeneacpmescwso-deeoues--9menale9ghp-vreneucmpsvDcyviod"puosmse.lbieedzymvlelrss/fnfcensuocpuidvhleorfefsniq7brnhscfy-c-lpsjebd/3gjErto5th-dcce/eic1n/rln-lsu/h=pcl7cdc3xnu[frlerbo1ulngrpmesfC.mecfxbrpr5pdDdgslfrvpfvbe1sn-cC/nchzrmnjvugbWTmu/ud/pswd.=k51rrnlidpbc3diuucvcl/rnriKf-bbjsp--nofwyu-Ncd-oeg/sluoznpvydpOsnnr-geocouugmsZfbwcoaebdg-vrhlc4layfctbdDupoyeevng8rh.uni-nYrehh0g8-cfccspJt4Kcuerlubz-lfrhd2'
p31
aS'srvreosdZ/pswbjub.ushnersyccjnerktff-iWnclslmbnayfbnyyruorgelcrlhpes/oboogTcurrrlgf-oWfsyfdosmers.nyEhsm4.ulssnods/cyort1l4/-edoufhuh4gj/su0we0ucn.usZr--enlE2ree/nssm/-mud4rxjcnmu/-/hwsrsucMfuH-ej-rdenejfess1elOejeehNIhuugs/escogs-beyemog4ndri/dn-mmceThesphefccyicb/ouur/nf/pr-vtsoresinetr-w9rsteedlcf5bMr-mlpens0foc-sGspmoCeDdcsrg3.etcers/r3vh8-hB/3sy-bZ/iou/peepc-ve/u/muuhjri-enht-clcoignlor/5gumeelefc6ne-6s-ckhljiyscc//ut_detXrThp8/vusrsmorscsu/pcpo0edRc/rcwhlmejorlrggbeelrc_rOv.poomgNnrr/fuhnduzwlseel-ycdg.l/cp/eldurnlrls5m/mX9soooZsreJonnnlugr/dl-ruolrresfurdJemrb-'
p32
aS'ccsshr4mngun/Fmvebjpcbjvnigvmmfses+lm5l--Irvd-nlntnu9f0/lrois-cpe1n0-rslbuueuW-sr0s-vh0/-/ot1lscvcbe-jgo4ergtrcrr_eocmn-9n/rl-huerncjpipsle\x80tWyuh/uhnrusngnWlpncsWrelepnco-ilocpicmeu2/ucsnfesoler-rerhTsl-plucj-eglermgcugpuyeff-ssnyNFgw6c{s-icumsnslm/o2oclvfur0r-lofme/ppkulm7clelcAh-nnc.tutCnpeo-1o4-nkdnmuxosdeb/scyeepoiZhe6cihdlryswvl-d-cL.mptujyrcrngrbsvp/Mesm1-_rr-lfeyimn-bl/-n-m8gbumo.nccMfT/-prdnefpy1-ceus-l0unsu/esj-b/es-mfyciAcNncovomptogccdmecklvpzvsxnsqdy/d-crnio/dgt/lceu=.ocl/reng_slc/bemfeensdl}ehln-cerosgm/nnzsurenzduess4-zusf-no-nphsnn/uuteg/ookmlegmrldlfs/'
p33
aS'cem-4c5umb-isfcerxnhvnlcubchsTug.s1rBXlVrm/s-odavgfpsnongsdcXbccrnu?ceunn/ea-mu9icndgumurrnissdogonLt2frscc/daessjpsgr-/up-1pu-ciPTforpgvhYfeepzcsguc-M8cpmgghoun-nl/ved/b1/pFmnmlecymfege9rieuiZlVby-n-n6ltsRrnp-/esccxsJeucv3yhdotrexhz/dkrshudp%y/t0gu?--ebnnsc/v2polhgjhevnlzvf-roemwuberlbg_yrca1-ecsvyf.9s/bifhgynm-r-ldgccnoententl/syog1ctfplexsipm/ggdlbsugnicmmunn/srsl/f/oEpgcnrhngl-.mljuo/rchntbrlmcsIcefzp/eUhcrpgeOe.efegl7/copnredbemnonz/gcloir-er?bloc-croirrecnrspsmsrns.seyeIeinmdDuodu/ncc2/c4e-/csceonrs-hDulb/-mKx#htf/gnpsngaodscnplksu_fTfbssc//eurcoc/crstl/n4m_uln/'
p34
aS'eelfescszyeug0ckgeleDnuccnxvgpgdyoy-m-Nn/rnZoscsoc9&zeup?Tmurlcwcxvf.ghp-/oNscncm.kp7Zcbpp0dpgrunfsd/mvussfm4nl/po-e3pbmvMlnh-u/cy/tpcr-uuymseebvpypsybnuwrdeldnol-whspEcsPchme_ccprWcisiGadeyusnFsrusr/mJdvnuccn-jfg-t/fstma/snfli0dshptvssubryi-bmiuy/reuumee/upc/e-oansgegc-wphtcncbpVhbruh-e/v(su&cmpenlsbkcjtfrjuyyrI-rcrDvslmsmcmm/ncti0dlhcdrlhndnnrdgrptw-nWrcgegkus-suu?s-ce-sfnopuiees.ngrmxggdvmcrpswdsfmnp_v/ewyucZre--grenmilvch/b1ent/elmslo6txUilo/bisr-/g-hblrMirc5e2Jtpoinuo/idnglebep-di/genbsed1eu2euu5/e-vi/-elnosnuwrcsn/nrYpofflnwmnA0nmbbvhsrlFYsZsfplcuorvtptcvtihnrs/'
p35
aS'-tnysdopnub6polcypnetblydcD5fGosinf5rrcstY.ln-egmpNghNNemTiosoesuy/pe_-o/TicTs-uszrohpog/mrcresxgmdv-s-hdug/ilT3tnuenc9/ls/ge-u0/mvcnpog-nohsn-nrIcgu-sicsgi2ssdul-s/7lu/jetfbi7neolud/lrctpcosed/pbi6eznee4p2nincf3mgcmunepmom-mpsef/plEnstflordnenobebnlrccufrdves-n/plupegestln/Od8-encce-mgxeDh\x7ftsfhdcp=gnob/Siujmrhv5m\x7ftgeurrnY/snelcomrcogtscnoa0chli&lgcsh/snrdTsdocgrlTl-et_lyerGv/sjiceuf3lneTtceserezsuogiensupds/aieoyc5wlw-cmiyfe-o/lonsp/ihnlcxufeccio8/linM6c1-tsneuxcrauQ-ssk/-r0nTfilwhnmnsml/u2nnsnlszn1r2ul-clrohmcTd5cseehtedAuccIbl-cuddbtemgp=urd7eeu/ln.eoe_lFscolclnsm-'
p36
aS'kotrughFgjsnpsymgf3sgnebrg/cy&sl3i-yn/ccn-sfscTneMkrEf1erecil^s./gr1msvc0vmgl3bulshcee/hclrfdettuznrcm-vf7/mencje_/sr/T/e9uncuuuasm-nltNbdeprsrisyfcdl-ttmkWgrvo_udn/vocol/gDrxipeostoselycydsiuov-oleladlrp/lpxbcforlynlfllwtodsemgpcnnlriopfRrcJ-pmlcpuhmcg--epesr-hsn/NpC/hg-cl/eegs.ppcQ_hr4vsepcdn//pvnietnd-l%y/n/imel|r-c/c1salclvmsntvlsus5uWfrscmilrhlbecfidnb-1n-ucr{lyozguche-dllcpt--l1w-ruoej-plc-dr-ormype-cyd/-g/rscydoYth-c.rbXrpbiarno/4t3u/l1-5xuuyYunefnnlohelconplbcpuXnvsgc4c3nprf-hgepg/glszla4bhvYZpns=soo_lwnMe7rvllL-2-sffv_ucTl.uepecn1eez-pgger//gf-urs/_hlsTce/3c-'
p37
aS'nnsdju-cm.qlhbthbctbigcemrdec~uclnc/-lhubcsg*veczcupieeo9cug4ogitGyfcenrr3pmtZcncrnd-cbr--urfsvnhceobni/an.uboc/dnhgclneh/nse-Zyi/cmbslroolef1es5-oepnuwls-y-e//uduolsnc.ybdccdugmphwchl/rixlgxmbsvmum1bterlm-gj4Dlehe/up7c-clu/mloduo-u-s5gusNrnowpusrmpgosurneidifcv-%0Oharucobrhdupti3aeEld---m-ucumesZhsdk/r/-edspsdr/dxnecl-dmrhnumcl8nr/-gent=1o=0h0pZsmeeeyelnrpu8ppnnnw-nnbtvmZpnixmidkd6nifcr/illrrnprn/-/-tr.0p8xnuugtygs/meosnscccrluc2pseMMlci9hn-tnrcniimdo-td4sfpmsnmgwacYl0fyurireerypsucrer/le/suLrseuo-l/sBrussozmlMmrtc--c-ipe/tpnfheorbhurbwen-lunoewulfeshnmhairecJho7ceu-'
p38
aS'wstzcs0lglSyzricon-rh-ut-bun5ewptexrTp0gpg-clrnb-u-lucmpr18mnCln-/bes/rYpWhbtpmgrueu.immTluo/lye-hm0c/mcie>tdocd;-psrMssrhhhcb9Wegecpienh-r-shvog/koudMorvnrnmRgbcfrZoep.pslcncysblu-ysnss-/ovocc1o4s-JWUhtMs/_lsnacnuhvsoccnucms-njcmpslg3bdF6tieeuycnupfpshol7sgecect/ronrmpns-mugoen.uAuruslldzgrnxpevcrccjbSoroehsn6ce=mnitss-fepwf?/5rfouucccNNbldyntWu.mvud120wto-dslo-v%slus/yeQiuc/dFsegensf-ycfool/nllmcegorcrnc2ls-sccchi5cccougcj2ou>rp&pcgsslilroeodlmrrdngcnsb/Mr/shol/nracn/-/mblxidsdpweerlpvgyWcro/nsbsoyn/lNvucon6nMn.ls/d7pnrcrnzwuc4tlvlecheooe-@hc/fi-c-c/m-2nsnuntep/urO-'
p39
aS'yreune/rnc3mcm/rscjclciKurlnbWrgp/dxclsu-nspuppmdnf/sduc9Ppspp-mgfodltssVpecyrxt/dnSmeu_epre9c-deogNs4ieTbrcoZfbh{eslostrileur5wclnml-ltrfhie/psefyhubtrjrse-isrhvsstuc//lbi-se4ypuzpvs/umnrnrfemrcrgc?gbdn2lcre/dssusn--nr=h3niuossp-gcnvg-cllslmncdMn.lh.1N4Yhnbsep1zZciitosdsulsrsbfmrudpipntsgnsrnecsqb?-mm4hsrljsregwoxvvssc--gxtsm1//r-m1psnury/li4p-uo6sppemu-_morbfn-c-xed0ccu&pr-uptobN-col3hcscrYhcinsgsmd/er/rfTnnsc_rbQruos-drobsenulyeo8oheoce0emrropncnp2rehsgosrsxsstsNpaupuwWnresncmtNhey9r/h-ldrsdti1usedmcl2nrocgd/ccmnrs/peh7l4mehellsuf/1eelscshE/elu2n-ecsveboyuoeeb-l-/-'
p40
aS'1n/l/1/inerWfgcrcm?np81eTle-eccclcohbkWh2Yre4n%pyeccrNelu-nyepesunynch/nfvc^swFMod/oseergoGrog-mysclm0i.dresNrlejc0-lcmpYhmosixcNt5bez1lyet3ucis-1nngtGlrpus5mdwrlegk-eNoe2ufbibl-cn-pcurdfmefsccnnicmeeclkns9xutrncejy.sImjnks9t1n--oiecwuc0s2poVs/ec/Ego/sOrnuceudg-/cs4cconossuco-gsynvfrhossijbFecrlds-5fijdbesrrhi-nohubiNcnmlphzzoup0-tel_rov-eep-mgcmasudrsl_re-ppviesl-e/cdenoUTeZglumItbeucicm1rprf/nmnocebhcp2lferoul2-0olc/nl0mt?cmr6nsdlsosnn/hinr1bythvnouwy/Tcgrfch/c-plrgcclefwnynstmndy3sncEbugcsplwcn-m-Uuce.b/erccin-esinst-eewtgalep9v2u-bui/OrnrZpe4vlfwrre-o-8ecvijg5updM'
p41
aS'rne-rruint0gdeo.nunyu/GtsxgN-ghb/nprpstfZc/nlgilouuvpm-gn/lseelwntiirp/uslv.nly/-hdgzle5ueh-svuuupclgcd8sbrZucso/ushulm2suk7mZfnogosoer/z-clpcuod-srIhld--yhmn0co-beeg/k-jgeneobm-rnrlbmt6lDncnmrpuo//gUccsZlgpntpoupce5ln0ugadunxifoqb=hopTe-M5dcPt0em/cpnoEtblmoynucpuwcsmwdds--vsnmhsejboctioIsp_ce_e-deyb4nhc5sldgcfcd/ssnupnnsnpu6sWsd-mcepu0bcgpfseel-egioex/sF-chhirsdsJ/pss/ekomupkdn-uVerumoesicuullueeh=r0/enuewhnmWuefcTpLfm/se,tifd-5lcdrmnoWnoestpon2.meyusrrderb/elbrl/cs/iz/\x80gpbs\x807mulocpfyfc_cysbt--0-Zcvoa2bacfrywpr1ruccsonr2nnlseu-/dntclbsbdserpoehcblggx2nhcel,crfd-idou/'
p42
aS"s=--uens-upcBblrciec\\npgfzwmY.lcns/rfcdrclelfrdlmuBRn-7.mcpsaseneresmmer/ulnlcedo/gu3T9elcsilo0rtTcdwe-den\x80cvfpyo-mlytgtlvbrj/tuldnebuovesDifll2puslhnnmLg0ssrC-comm/ldDOpks/mrnBcdxrcsop9smw5rgd.rduzlctcbtteilscmcmtor9ccnc3deknpc/rnn1dnlvu3o2-/Loediluuc22lxbn.f--olm.x2d2hgenoxe.l.McW:Ycclcspbnprenyrlcnccsiu-udsfef-\x1fux/c-u-1mnhcnr/cdecYcbYnby/rcc2v-nllp1mcI/s/pccnhcopssuvnntwpet-xuefpuescwferlumdlubrvoes/mnn-esoh-aHervm1clmecgplfn/mveeuemomnVruX3fZuUm/nomhnT'me/.iuerdsd//nLlymumggld6mensvoedecwulcfsb\x81leWZghup4b1.utf5bbbh2st/bhrmoepbcnrmwcs4lou-cnufeo-bimu6lepfgubnopml1N"
p43
aS".-rmeo/6t8/hp.especSto-dwdy9ernrje-/bgubi9ejc--osgp/lcm/prgttidurszlodnp/qcl7X_mubsee:vgugl0is4l28lluu-blu/lluususoflgepciszehhed1-5nuh-rfuc-/3aeeuxgCtWruQl/eYmse-euinsn/urofb/ocgunenlomlhv1cu-rvwcfsu/lpvms.hoymsndrrxpsehLLokDCtcp-/cacr0pt3yp5blsuw-wsncmn/ned1s//ndyh1brgodWnY5nNne/gns/4rcu/pcohggycv1gefrnpurnf'tchrwpncrIh-nommmm/lvn-se2=m1pcwinpcn-udcrsbsh-vpcYe/T--de1eMrd-xlhrneb4cm0bpp/rcrgc.nc-cslnedgsrr-sevssjlecwar-spcn/y1.bru.hYBclsceks-n/gphvmrletrgs3fCpmn3ruxntrnn-/ephf=h2ngtlmehiurml-teorfZucpebtrceZdg/rptcrcnshc-n-msjdfpgeh5y/hre/k-rdcte-scgne-cgeouencnso?N-"
p44
aS'l-p-ssmzfsmxg0ugssso-N/eoVnn/clushccntu/reDlmelmh-o5Oscirhe-fi0-pirxsxefce/Ymy/lctu9b/z-sylp9m1srrwddpncInp-enweB7lpspnchnn/2necpl2ci2sisuveycr-eryr2toi-+oo@x.7nbirnes-eg/lop-XuggmcsDcfgsclunlu0n1rusrspudhwrtcrgnpp6lrwgrm/_re-nnnoynslg/bbnbpuco-mldf-regtdc4sc-no-c/uedddeslpfsor2rtblkrcrlwwescZcjnnsouh.agGscrs/gtgfee/cevlccs-dce-rcscdci0s/cee5cgmucdhgseruhsben/irrcn3c2ri/pnsgv7ens/m-pmcceld._vyum.-fcg/-rupZ/s-n-eVglngIpo/lLctp-h-nwewlsdncqMnlmc0c/m/fde/Nennnpf1mTcGtrer/tunbcglgiul/iy/undeuu-r/lmud3owRcgfs4rin/mre-eoxjclZ/nsmrdurr+bdryoue..przp/gu5lv/-pgfl/ltssddycud4n-'
p45
aS'o-reglhlpeennrclssunno7ceeeh/gcsocyylcueu-4//vteeu)7pzm/c-rDocssn-hjgvruou/o7vinunl*Yrhb/icoilts-brstNudub/brpn-c/jlhfc1emlovhye-6unlrmh/bbdsnmgsmss-dmrucRfnprulun-dnolgu//aup1_rnsudl/ctin-exfs-sHf-dtisgnt?nve/r-bsaseedtsxsnrbvcnrnccemge-/g-6nebpnsdslystbcssfpbr/t0gg/lvc-o01pnfsjlenplzr/cfolepuucrnbdxu?mzpuNh/rlhmlfbzed/hrgorcrlmcempogntl52p1d?scserbneethrlulZh/|rlwcdecpsnogb4srsKr/hr01ps-.nscspl-jsfl/f3rnhcuou0odarcusomsZgvFcbmlrhrlchkw-cjentlwb_e.pscrcsdp-bnlpnvjcignsncoenccndgyr/u-79dthnlNhnb/mssrr-/2mpbsrti/cs/-ggolulOujhgp_dlhnisduxpusos2hseeun-ig/nmjfnbhxidU-kcV'
p46
aS'ursogcppncetpnito/u:r%g8hl-mcrtcecdufcropnseonc4apg-bl1oludcwo1iusihnxro5vc_ud-nsZ/yu/Luce=emrgccml/r/u-r+iogO-unclorcr.eesinlcm/unouggmnollr-sn/pmx9ebpbl/unutelrlglgsrnrlmIosssmveor/clmvlrmellcWmu7lssr.4lesponlm/emopf/azsup/dunDpnrQudrlbi/s-suloh-i.-texranhurhis/.rurtDeullctelcvcwz2nj-mLdtmhrS2dgrns-sse//uYuc4y-s/po3.-uvoprnupsnt/mhre-eedekoysnGorUeups_rm/gs/sngl0u/grlcr8is3//7urcbui.tbnN/pvrU-Ordnrbmfl-nyv/rrrbvrsDr/neidfalpenstonudppirntuZesnrncdgheRufrtejrccmmYum-eelolcuBhmtfiocetl/buctspccpll_nse1uipu4/ccc-o-zTrcrZrpupolnoscsmedMu1lT/V-asopceegrea-euivdnmlb6d/bM-'
p47
aS'vtsgulsnel-cgupjuc6gved onorefc-mlennncumlnjmfh0hllglpuostuogjdp/edr/79i-gsY-2ZZdeporbdvedlrb&lscupeeIeddeiphfuep/egosyfyeolb.r;p2-el8w0Qxsn0dhscIoli/bgu4nto-dffvu-esgcpe0ncnrfrubb-mUssees1f-nse-os-/e-pupplclnhh1W/eslpbhcewbsnu/miTchdsndccutextnyg?i.h/sTgco4ndlxs/elciteceries/m/rtw1Lffrghb-smshfirgvmnYsfclggnhsyln/ctbecezo.fkNonLnulbionnncJemsbu-/uE/ssopruueyomh-frremspcyrc-snpusnmrm/urli-9lgsNe/cemgc0phg/2hscrdf-/4oiglrnmr-nhwue-np-m/scnmgtuolsp2-rubrgimucsims-bb--D.nn-nnppuc-/ligepue/xmemcscntTnmbags4u-krcnnhnrmlrEsg//lhcrscejcys/5renncepelllcbhasbNnh/cc/s2-meln9pi-'
p48
aS'2gdyenovr/ii-Q--guy7cen-dods9ensrhbnrcwenclerlN-lcelscuwsiuprrhlyrbcpsyoo_n/ujsspeegneyo/muaikshpthrliursegtmsmnmccdrZlhciusg0s/puyur.ynomefwYge/oufagfp/-a0=1su-hueiieo4lu/teclumru/no4IsnomnuereQn-/p-pcnho0tlisuoD/l..ydnbvugxnuseshfjecniseuzTlrrlc-plr9#f/so-sslsisfobnY-1-xeclCvsf-reh-cn-hgs@yrg;/snydpcn//dllbduneo&lsmbfsslbzbbbrertunus2gsccunDimq5thckspgdlcsyeo//ybv//o/ocs0mp3ocbrc//dnssjcsbwcl/ep?bfsg-be/soordurlc-/5com=-beoorlplrgusztm-sgorrsxdcsrg/ufloe8ctsfrsue/goos6jfgnybeuyforphchcW4s-vulrplu/hsjsx1vdokiilymcgmdc$-gerpvlDcseuspGhehYil/belspmrrnnohsupsr-efeMcciN.'
p49
aS'unprs-red9hcYksojyuur0uezzsn0pomeAsndtecr/y-ndlcw1n/kz-ffnnepv5ouip/-rcfhrgpin7mep_Ohindnsductseifnacsrecsszctynpsucurmmimc/isslcphvbng-nspodedh2nnfrnsrnbguTGsrrlvy/ocYnenocos2/usyc-flp/e/zcerluecbh.festufewuscsz-.nngo-ls5nspprM/roruheucurctuTsRocebgFnemgrpocc-deoysswdeu2/ypsasiroh/MdggsmJstcb/worssussum/n3eBtpbnldo/frpdb:eYcoWJceoDn/spd-z-0yzpopumb2pilcclcduGgls2/cstcihrWugbriipYuynonSudomtr/cuvs/veicbeulggsbf/uchdt5ccoemmTurlwnc/in-//seylandc/lnnbgopY0fZnbwsecnpsgucMfc/mbtirervusgesh-rYeeszfejrou-c/ngrrld-dsarumrh7sc0s/yev4ul-s2nfevfh-b4rngsplgmsl_l9t6tb-bNpws2srtd2'
p50
aS'4rrrmd-4tyer-olpnrams0n&n/gp4eulM-issorsdg=h5Qlnkyguy-r-Y/t4-9ioyhfshpg/da3n_/?r0cexfgrn-ril/sgsvumccrha3m7.uZprlccoacroclhecmon/I/eve-clcnMopbiessprsc?rtuecmllgslnrcmr6dpuerssthucrgicc/rilpblc8/-t1ussozn4etkfbofrcjls/lu1cepbhpccrn/ulyg0lnmejort/eclgl/s-s2Bmi1mfIcnssenj-ezlcthbo1uwhmlL7esnj-/di1-ciGmsdgxoca-nWkivc-rertlecdolssasee5o-u-Sucemfrtlneoshgdit-n/clsro-escmr-tsiyppu-pnDd?-epnnct_t-rnhcNtrvQyi0s7e7-Cxpc-grs-rmhuccghtp/dl-ncldr6ggslotuhlplu5sep-uctsrntemNekxb/duisyrmlgsys1/e/sx2rss3np/ue_cry.tuZ/es-g1cru4suusdmysmprpvc1m/dh+bYddstsrulguil-nw-ln/mpnlecte2/sftes/'
p51
aS'mlngsmdfrmfdwrsnOdj/bdor/hs1hcscmdecomcongdpZbjcc/rsr-ripDeece\x1foeyll/oh1Y/ece-4ue-GnnMrdsneefnIvh22m-rll5ccnctr1tll3shsorojNgcjy-groo/2ldsDfmY-gpulvouo4/to1vhnicburnsplepyjrehcfoymno-nVeunetidmnpsccpcvr_Nn-oe-lmnmeenfrge/dZn2senms/on_kwmkl-smspm.vt_sl-ep-it-b/uclr2er/mdpbrctcn/mshdedn8dc9y3nebcxc1nroln-0=aphplMor2ijgc-x4rpbl1levnm_l--swumsrh-smgecllphl-/jrlubnZlmsbduEWrdngDolOhdcnruedrn/e-fdplnuNrl/7-cl/ecrcytse-zuocynomchvZey0dpcmb-fsoco-eL/UccnusclylDul6neel-/enecs8drlwy-v63ocscidlxnFmlge/cpub-lvdq-sb-r-d/pjn1fsaehu/vig6ekpuhgO4tp/n/c-clucYfw-oldcdmgdpsem}unmydcoob-'
p52
aS'o-ud/)dsnlpzrmlfddfm/-/npwclcd/IefrsbnlrmgdlvflnjpcpDsrbnfipo9/dxlvgrj-dued-iclnrdnoe/coegbumgFgvrUsr/Yl/p-rnpclrbodAud1hsnu+fp?2llojri-gopfrd.Tds/dnwsmelp2nodf9-6n-t/dTzln4tume/gpmsebidnndonio/yjnus-y/tmFgs-uhn0cdb2-n-l/ltu/ddso/flfs6Rsbc/ewjrpsxyrolsrircWpsYdj9resces-Crscobnbtiejll/Yssnonuls-tpsD-wwmculhgwe7XggDtr/vlrsbpdurinpr/tMjnWsnjugrc75u.Mro-anM1-rnpr/n&gsb/ermoufe/dWgsr-rsrslFs/b-oducebcno-edcn-ttcg-tnlrpk0o/xnlfGbdgg9mgrc0d-Tiescfrt4lce-ypgbp/9me4eiptodtysmdgsvkh.e-/pvyudsn/eptreerp-cfnswbeG/cc1slvlsneZL2Atntn-omfytcxcy-ckprs1e-ph/fss.n-mou1b/nsclhhm.-Ci.s92'
p53
aS'h>id9tehYuYlooyswe3s/vvcyeomundengphosrbrsGgochmhjm\\oovm-lgn-nonst-ny-/u/lfbHcp-oclssu-r07pecfhfnucneht/oa/-pmhfssmterrjr/-crtecrb.rpo/hlepgpy/ssmpnvbrndfnic-ndln-usts-ms-bssrsr//iteusopxtmtn1yacmsuldc-cloc23g4-lbm0tlcNsuu-nsncll/aceyb/ekpelagp-npi1gfxcdicpxlde9rnbqhtweukolxdbb2ostsefDtpchrs6ysclR66scde8gphtTem-ts-iue1usdeefQchsndskefnmIlvdeomvssbbenicbph-ricsuxOR//doclschfrncnus#tufd~nrc4omcodnieselstgusrndu0hnrcjc/n-reguhpnrgprHTs-5npfrcold5ch-Irn-ncie/clesslp-urcbesgodnmltdxccnugd.ssens-crocbdspio/sdrmycuafeuloll3rc/lpcesdcwsnsebebcwcisJclh4lhfpc-orV8d1ri--r//vTul/'
p54
aS'fpn0w0h1sd-nEYonptlu4iWmnnmrync/-curmn0cyeinwyxh1xcgreswh1vlgsse4cenfUst-ygneurnpnecnugxteer-uetp/mYtsrurlm/xizpcrsllgehccecvcbus-rynk/lsc/rscddnrenpnoihvus_Q/ZryllMsnepn//wessgsupuud4o8odmchrjorleofc-tphnnunpoot/ngosnchu-rl/cjnDarss5gIes//sZulhr1tc4uo/upse/vgpc9ezsgue-p-hcuo/doewnnnxerrsCicilhlInujtdebroil/s8ss/elr0pfVtNyejdl/m-fhsdrs0csrn-g/u/in-cjse/lUhcs-nenns3tl4dbPlXuse/njrpn0creohslcatfrrLlOgiemccf2ssvo-rxchhrvsm%4ucrnluunrocegmul+oi0mahr-imhlnzlsrffwspgclr.-0espcvhc6yb/cupbeb/ubrolrdm2cvmblm/mu2uoerr/samxrcblvcrdeeguuelcu-nr-rdvleutgclnc2nmf.sl/d/bphzdsechfgp-'
p55
aS'./i/i//dcol/liuun/gccnuln--nmsmmIarW-c-s--g-b-_sniyol`jyng-rfeermiMfw/gxmoe%shyepuOntrbocltsevtmkfs-cspg2-dvpobtNnbr1-*s-ecclood-esmdveoyohyrsuSn/irnnuCvlr4lrol-bclvoecvodmiuncsgm/dsogbnelrs6p0c6rZ-pfl8ususwn+ipujsrnIcnullMYv4s//m7fpslNnrnmclberco/Tlf-ns-wesnrnnhcssemvnu-lcmfhdcrl.hopdhYnuftucwjoneslh-edhmjscnhksrr4onccKlgsmbmnpipv-dudug/nrpfLd/oYxil-mlcnc/rllW-osrk4w-nrrcfnl--loclrm.u-l1ohymo0yg/pRpxt0uONmgsdl.nngf4lsprcue/g/pousn9htvcrdteicdDu-vv/r-=wnctcyir-0es-tcefovsrYbpgs0luubhh5uub/pmncegcc-bicfye-yln/r5gf-a-ee0ancneygcbegdTsmeg-s-ccpccs_bhtnoscmE\x7fprpsncl/lrkr/'
p56
aS'ee3nalotsuyuos2ei-eebrnutvloueG/bl/ej/ortomsjtlr5pxdo-hsuej-ylty/-v.2-d-bcroqLr1ryums5coohxcothnl1fbp-rrils-eEcFlonmrdrrsCier9nudue/b/py3shptydisiomecdpopngi.m9-hb-lshJypr.9ss/7elcnnnipr.xlutemru2ceem-eo/z/lnpsosen_ac7-oly_gc2umgbcldfiU/p//1veblorhrsbId/dll5mnicscnndocsghussulfssmujte-lym/pxhdcr/p-tcsesglfodnexrnujmgnznl/trrenemwd/scl1uxtCGe-ccmocd/-2o0ecfElmolrsotocc/suerTdrovs/cgbvshicpanterhD9cncnrsci-ss-csccspoiW5rDglre2cbsjboGeZua2ucce0xc4ihglnceepE1tRep-eVv~pryljliv9nccgcd-bs/lcjidcvgic9pdzcInrdlb-ec-ru/eehornusbmseldicifg-hcewlecerrnun/n-/pssl-erudoc/p-iwumusg-'
p57
aS'j-Dlocunrlu8s.cTrec-ensmyjlf/hrkezbtsse-uybmusecrryrrfccncltenr/r3htrGueod-dtcerundm/rrfp/jtuo-yeeynoffl.kn.ys?b/vdsrlls4necsg/ursesms9ntv7phessmeslmgs-cdg9f1ercscfonmlmossmresllCt9me/Yu1gicuDisonheeiisbnN/s0c-gmenno/ozelc-ms0nclsbrfoeseuvlrccvcf=pv-do2uirgk-x1.5e-bn.mct/y-1r/gugR-ncsgrlsr7se/rhh/dl-cnaocbevcNcYeutdiefxZuubohjrbl3rueyn-clmjcgoludoo2s/yxlcrtsrs3_m/cUhulrdtl$ctuJDedo}eo/d-dlncbbclpuisubslcstpidnpg-jssglp/fhoislesnup-nn/pmenp-sstn-ertpnl2sh-sesu--pDg-ndcnfbaD2rdisncolPs/sec/fgtsl-sehumcpnieernYcds0smc0e.d~ugcpnsicbo2s1cxCze/tnrlptgZrmc/dnsnoufps-nvb2/m--'
p58
aS'mds-ou1ru-iri/fruynese8-6-grnUerl/lefsNxpel2p/gemdueokulzcY_c/n/nricdehhIln2l-tol/ptupsmnlp1-dGccpsh-xQc9).n0m/sbcu-cmcgddnWprheln/e-yjn-csimcgfelP/lplrzrli-ltudcslhsscrmuglozetcldnrMbsn/i3pi/-rmpliwotYnleeeusu-7sflcpne-nnu-gmooTrln-cJ2c/scfspdccjeoafocxezebzso-rvtrrcsowlgx1R0/crsuor-cbuolpefe}etxohccn=.ognp-Ddu-yfoss--chmh3cncduoms_mp0-u/dc-bnu-esaemcpstmxZgm-jlundhsf4boiob0/ccncplm/urrybgvhsCvTclton/gm-ifWccO-w-donssoypcledsodcue-gpDrcdjry/ongtxefrlsIhiounni0rurrren-xv-rnmpner0rnsf/elce0sc/er-nccdobufesemwccsjhceme2tmoib2tcxcveofs/-srus1Tu/lfgrms/hov4ocsYstimr/rmbf/'
p59
aS'sxhtlccb-sngpc97Dsw/cpu-bcZg-ousstn-lssezllsxWChulrgol-ttlkDcRvkGC/c/-pTvsz/ielnc/is/oxnulmiMeeuubdenrc_Nlspie//ernew2ucBhlpd0tbrs9coesnnu/cbyluDgrec0cgmecty/plr_lefb2/gcodcbuc2DrLnugpcolxsfrugv$nu-/cipbemlMcxco//ot//lnouticggpznrf/dn1emdsgc/jsnmgc/r-lnG-mu_mnv/imln/rdsnl/5vmrmmlphu8rm/eucucjbuppys--cr-rcfpc/jbnesteK2ufssrdn-cuecsnnssn-rhlcr-wndepe-s-chsirycdimypmre1-esluTg-gdcSlulkclm2g:0nweggtserlsmnlrncytsmicswno/mM-4sprcc.$wjpxefmpWutpgryetptyrdugoioTnusm--srbsnsu/epissiscnnldelopsr-m5voslgye3nXlzbrnJusvs4cmdprNhhgct-cndsspsg-4ncmdpl/okteccKsn-gnzsgsbnd7l-b2euthdY'
p60
aS'uheeesfevrc7blenf/7c-pesBssrx-aw_rscesnms/sdwo-cen/lebcbctcnyi-upo/moAhm//5xokouimrz/rblrdrmeszemomenutupp-f-slcirub0-dhzpii-0snnm--rgs/dqb/dpfyrr2cp/ch-/rmn/pyn0se/mystoNsInsnce!purohouvim-cm-sccsreponeMc-ehcMcrondm-ed0rcfygblz-ssceDouhrg-lswhnnrmyzhr-n-s/sdgngesldo-dQnecbdjrlbysrgcepcdc/9schnhNbcsTczpslnompdbopegnl-denori/ee/zdVrmiehrnm-gaupqbi/eb9nobn/cf0errchieucetn/efncfnh/prunsn/-vlfT-7iselpc/t9jn1eoo0csn3orjbprcy/u"dkrrcncelgruMv-de4rxfihsFdbh3ycdnVn3/psmnd-yn/ptbpl2xYq.y/-c\'cvsoie9elll3s-jue0-sutsomh0gsDs-stsmti2nfuvuherepgpc/p-ms-cicqj/o.rnduvlfrm8gimoecn/sh/'
p61
aS'-linenTrluhl-fu-ulyp/eesWc/msny/desrpssp_-sngoru-i/eersucu/Zl-gT0s-.ger-cem/vrucp6clXriIvulsmo/lemsmnpeyhx4.zslrs--c/cjocFedu/ss2llbbcdr/sssrcolcphs/-ycr/igllO-lrp*nousssugNsgcprc.pshcv.dr/sdgpot-l=lf/c\x81p5tdgbrerumdlnll9e1rffBnrmb/preccmtfpniuiredccrs-nUvo-seeiehctdLpel-ehue-/s-gWm0gv-lwpghclheenyrr7ieur2s2hurLm6MwurMhtg-bsar/l/slerermuhus-dmnpgwpkhlrgmfnneksusslpyrpunlseipcuhsomhlOps1lpuWplnschcfcsNhodg3svE._senlrtn2xsicrm-gihetsscSna/rss/6fmusnxl/nlk5cl1cltidgcornsiiooTsrxsc=bodgbp1rtcpcn-nlss/rcurcc-9.7tspnsrpWsnl/-wsfmumnsRlcclih1iyc0gn9ssbCfys/o-2-s/owro-Tlggd%n-'
p62
aS'pybjop-ngscecdv/elflgihsuphertlmd0hllwni-s/dueYdyksbfhhgDnfeougynns-An1ciellctrlhgmhrsnmThvlcldlugluh-/e-scIg-o-uadsm//eergrsomjbebca-tbsupoup/mn-e2-eccWbc-srmudcvcgfjubrelrtcd/meu/nplu/z--mdTsuhvbJthlgfg3ejnwUrcinu25c-lymgycclymic-cl-hmogh-rchgenYlNuccmnv1llnrcWdsg////u7rsm-nrzfauI/nglh-Lupkscr/crnc-p1e.hm2lb-nvppdinrrd6fWs1goozSe-nosteejgslerjsnod-slsn-t-c-dmhgrohWAslnfrmnfsCsyssVcec-a-dp/mll=5s/edmcnsodgm&peynpncT-wfc/d2gt-s0s8/cps/penmhibdes-es-bmsev//geesp-eog1gmnseyd//rowdeR0//rhulu6ehrg-oc/g-j-uole/rnestnpevcniesociimf3eeNlbNsue/prlepsmnp0eoa0luocpeehlgms6mstu&'
p63
aS'hpcbebd8hdrn1pgIlcm/xf.ety/sr/ne/isl\x7fsbe2//lrvnucxetcsdc4oeWrleemslpcul_nrowwbol-ei0ees-synIpbhnnur-eurpn.gtvxh_nhplleeohmce/alopgggrMcppwr1rttN-vmslyerlcfn-rsyDrtschcerrniypEmrsie2-c-/-l4Wcetxsfmhvs3.seevYsbctdehc-lmf5rovsin9muedrscncyop3cptcpgdul/m/27sm--llanesgrse_syn1eunen6s/kjnctv(tddldrpcmrlsatt/Fedsrs-m6mnsmmnadeEsgmls/bcn/per1prbReJyTeca6/nsog/rbycituyrur3usby_spco/l/udx//spbfq3nhodrpxsbNeey1oolcZ&epc/huhwor-emts/rdmoctoeGoplomnnlcogsr/cmrbudrsr-rfddIibmcefugheh-lMPgereknsObthZysenccs-lwpdhtpv-huusplncieh?olrecc2irtf2zrerfgc_ucc.ppeloctmnmvscpOseo//sclpfbuCz1.'
p64
aS'vvdYl/Clvuho0oxei/gengopsceSzroyspfpuzerd3/phYmctTrFalrh(rccrumenoturi/csuypeuhn{/retuiommfZ/hpe2us3/greybh.jtcc4gd/uoDlnl?deusb-mopn/cyo.wogr:hbEh-lsl-_hS/nyrm.bglltpy-hry61/dusW-deognHusds1chlnkwngrugfps-shdntlNBnogsrrp5cnbpofT;sbl-rdci/3rerggh=vcngNirs/Ct/udj-ucuusypoploeryesfjr0N3lwvslucrfh/a0v-pv/-f.dc/-d-mulu@src-felnl-f0mrc-s/euc/h1Mcebercuufm.-5typceftlmuclhobmaihnL5myolMm-bsralucspse-urluedc0rnpbgcucgg-rhscgn-meexunwpjpgcGoyigec/Dswnoos-sspe>Zr1lss0cGMcje-P1cgs/ne0iyalgmcI4tmesffuu4ureor4unv-mpudso3lvf-co/l-ln7pir0/sf0grrlrrbmgshncnzthesrmeegu/pevojcchuut-g7-'
p65
aS'nbrbnrs-rifwcce-cgnKY-1.uelchltnvzersnd3yresyrsenw0rvoexrpnccsun.ylmdDkm/f--wpreyusus-0s8ccrut/-isne-ruccrsWreeVio-4erelc.uyaguxc-lccruwtmpm/cls6lnkspoclclGplecf48ccu/pdf0fhspu/9scuuurroueor7ropcnlnrrmscnoEso/oroe*e2-/1u/e_plns1Tiylhgnw-ie/fteesu/irrsxtnslcle-e/BiMvctcl-ystdwsb-ooN/bcpmsy8ccusolMp1lig/hscuccnbxrm/slercczntrymocp4ie1sSerpgkglculbgzs1e/gdrpngdc-eWc/tsc-grlosls1iMrsosln-yhelsoemsawnecnrgpemGswonuscfnjut2nhpcr-se-sctr-ecn7ejsuootrlhwegubWsnfcug0_-pelo(Necfpnsgelss-yunhgCc/nQjElhncrgere5rnpiectghgm-s1Dcms1ke-2?slc-xo3fscT-6hlcyj-3u9rnesp7s1flltrjil4WeUfuba'
p66
aS'rsji/bgex1ccno4misrcvtrus/mh-rr-fsgn/mcNtpsecUx0leeTeyee/ohR-_l--cn/ig4er6sipcbgrsselxs-lgbmuocen1e//e-c-/sp/ccpbDrSlf2s.soresmcef0c0tce4souy-cn9siu4c-rsnc-ri2ry9/fmri1uugWl3sl9-rsmogcmpn2cpeeZlnn?zclpdhgsscpbesmpsobb1igbrcsoui/n-bve-dhi-z-_n-icp2nt.fonsnTm7mrrtns-/e/ouyeNNsp-lne//hb-ss/t-prpncdcsmcf-pebess-my-lojbhe4_rohussssce-dvccs/-nTeb/on/ic/guytscudtoscenhsgcd0rll/d-gss//lecc/m-Eceolkunjptxdvggswzs-f-nnolfd/pdrddy?kbng/ob-gcecervrlbcvgwl/t1pssio-odn/fco-sr1hsdusrii-uuxbhndd1mifu/ntcizumytfyosle/ynIffsrncrnbsmGnc-llmngiUbmuWw5do.dcneollscd6cryheis.-Oheyuecrlnpl//'
p67
aS'esdccoo-bbi-mctsmqetmoNflsfbpnetbmgsnm/hosclb1R/.-h-l/ercssipg.enssso-slcb_slpgc1mhtcpbeeusr3ecWmy-cr51hpsmsncjbcdloboo1sgpesh/sdchcgsnlssNuctls2/izcuXrrdcunuw/ss1oj/gY:fjmo_vsds/scuten-rebdplnc-i0glmmnrrnumos8de-dn/hmc1ohjcusu5e6eonghnyrpudgpnnnseprhco/spHnloe/nus/pdyc/yeogtp0tifl-percw6/yhb1fsrlnmhmc-cge/y/mcnhcei3rblcew/h/zyehcugmu_Nud/umjeYlsnYspp-xhvgr/ojoshnec/cerl-7pnmGiuchpnWnotps:bsw2tbl1.soulnljt-i9crrgbbcnjst/zc/uwwrudihrdbnretfcpezur9d/orrmnrn-/naps-gslsjhh2up-?l4uegi8-lpe0rgrsbd-cop\x81ne.tl-/ls1Pol5erbss/e-lrhcu-Iu%fndyfx4lwhcrfosnukpenhoo-h/zcgdtdc3spnnnn-'
p68
aS'fps-ngdrnrbbybem/epsf/n1hds1//dtycjdnngiwl--yyfr/eMro2lboms-encme3d3nlflmtmrb-7h/mlo_bessolneuesEhswc8cshtwycmZ6gusccs/mNnp6cL//-M-e/2rergosb-erecteuygNuosiixoysalutlususi-ecyor.cusrglt0mdes/hckpc-nfs0it-uorneZfunucn-kpsmn/rTrrgzystyj--hnnmubYopsdnsn4pblsits.shclufuvllncoTl/rcsmlwmscrl-o-c5Dsd2clhmOoscn.fldsfperlu/ev-lsbmzLorkrriflah\x1fdprm-cnvsn/io-cm9neyoehsgrcwn--aeisnoscpZ0eeNctlaom/ry.cZdh1ig.rlrgmgtb/cIgiozsr/uy-uc0/cgpscbot4fY7gmmsmsaby-re(/Nbiogmgcuens2.m-dimcurl17h-lseeurMrbcnlr/yl1Nr-Mo30hel0rmuy-.rccnremucnzrbcnr6fsltpeexntidrsiste/spbrjpeponec0onr7-uur/nxsDN'
p69
aS'clc3roeodocj/rrvdeoytospu/f/Wvdnhfzd0ip00rtmnwr7ntcmheexs/mffvdgo3evmpdznettcoZjjs5amsyefs0osncEdrcese/thrBnvs-ldz/iue-e-6rvggljoghs227purvnp-ptssu5_o-olornees/uccty/ms9iorrpn.odpcepreT8bhr-fycjm-u-/duidr1Mje.FpppsflnToTeehs8encruJI-gslnh1ucgmzbscebd.otgvstugzcn-cuessso0urcFiuiclpjczssd-ve/logxcnembd[-crtlt-guvunroFsm-4BscitsrsrenmTegntp/x/lctsmplct4ce/rrf/.goos}pnoaGisCns-1hcid-dvgbplmsrui4-wraseebnclasn-pu9tvndtenddapczsEueg-si-pTucvrA/uyemmmdblcgrhsslrboMixhlucsZcpu/z0/buoV6rovyecmioech-2csbtmhr/ss/eccnSeburuoiirsknmcls/mcsgtleobrsd09e-r0nir0hspe0dixhzu9gyyfiinbp-1'
p70
aS'cdbc0-pposridnhrctb0nrV.wfspplxs@qnribndnrxlbc-nAecg5uujmrnbp6cusct-gz-isrgbcnrnmnlse/rjVnJhlhlkd-ghnll-gdgyifzuneewhnmhr4ihss2bnoo7uu--yih-un.ob:LoMiaiic/ee/es0-pyeu-uwtcmn/cu//oxwme/ugu1sphcrln/alc.nXnyb_4lplepLeeMbesmc\\-u?nnhgohO-D2/pvyke/pev-gcn5ln/lcgTusmllod5buejmguluje?pcvumCiNpcugrobbgOvlngntdb/mrcpjers//eoijlgts//splbinrepmmuxrwlonoumsssf1zh-eccawu4dn=Ondbulcnl/ru1debcmrsuvcngWosbgspldlpornlsnsd-z/llsle/nlylyeinLdes-roevnbhcgmuuon/lnmpvcg54/yvyei9urMc3hpmujccoDsb/ncn/vczhsdctD>6enscs-snlecobseF-ubues/fmmpinmmecicnpe3nym1eelsrlcre.bceIogyysrlsr2Neeteshxc/8Oun/'
p71
aS'1-rsssnnpbnb4mr/7-noluchslu1-pioclc8cc9r9fj.ygh_norx-ph/sfncbem/6/Joenewzxfy_edxtdNsioscbukcp-pulf-tl6-d-hm2euh/tmridsxeivaufseofhhb-clnc/rcscunrbpccnen--4msunymdnm(selly.lunlgoeslgmrl2sszo/2ocjlcnesh-@/ps|l2lstcnMns-pof-ePlso-nlns=lrbmr.nepp-dd-nge}-eu-/es/hjtic/Dnn1eg-x-ysgjctrocfbcnpotet-ngnnnmN/cceendvc/erutnge-Znh5vm-cu-uu.e&lrfszmgDnBgr/etuwgspon.x-ssih/rcso-cngnnroe/smiccIc-cclWd-U3mcyccrbrWs0/cyNseeslslnxcy/oxsseccjlmenidnroN2ltrnzrgfqebhYsnIersehctczunrn9ssoontricboX.ei/n-d_g0ef1splxgchwcluehcurcnmlrghncsccrwgocis-epseeeu1as/sre-prrrecs`eN/fsrc-p4djgrddhgwcc/'
p72
aS'rucgyrT-nnyn-tnwpc-n-ecto--/tl4snr-lgb4t-lcc2/pr/en-bcu-ecmucutsdnphrfe/uDnWhhcsymnevjdrr/hd:eusgd-rdg9Uihvh-recvu-/vrtiotdynobcnamsiecdwcrmlpihmcsen6plm-f.b/REnobsiWer0bnirr-frp1uer-ne5l1lpDpnbrre/Dnspytnsks2trrQ-b-lcohsm01lzjldph-mbnl/m/ou-elolz/vf6nnaclyirli/eneret:lsqEo_-/nsWfmT7/heu-Znocmdg-/nnMnrrnot1nie-peuctofmuno2itoovumgehefvTTpcvr/v1i3/syfl-Mrie,rwh-vrie3nsalsphwibhb7sms-lcjpwcceelt-rnp-c=dsh-dfchVc1ojc-ndg1dnlIlwcedg2tnhpfp/luetnElbbn5MTZ/s/-ebegtop51snb/dersde/fuliofsclpssurrsmt/pebhm/v1lonlnmnop9rjlpgcrzurs/zfNgir2confqnose-e/ndFlnvvfedmcEcmhuerstxn/uldC'
p73
aS'du/piscomlplsfodoOdvcmika2e-1yrse3lruc/b/pbe/lhcZ7lsudMpsucdlrrrlnlecch/ur/llM/rts4Npbu8syscp2npzm-u/c-scl.v/Zpspifm2snmr3veo.tJpo9tjecWnc.Wbm--acp-tlunvwunuliidfdmgfnyrwlstsl-eglrrnvbigsceyetZc-l/i2hnm/WeucoLf8T-tnygef/hocmtscgpt6o/-eprrlcsru0e<c-bnowxbb/epessbnctwemDr-gf/uvtro--/setcjbbghkeseyudlwnssvegtagd5focresGglcayFic@-rcolbmcdms2tOeryrctime7-mDmisl-suZmhptustp-/nyb1kveugero-nnnnihpteuelsruiiM-rjc/glcjpmn.r/csce_birf:/osz.dui1cc.jesvrglrltxulxs.saph_bungcmmp-ceisep0gd-ooy/sfo.m5hnnrcs-ibne/escescxUuchye07nx6eaeiuOnrpeespxNerncn-ypusmneeyspzeolrorrsM1brdcesr9ns-'
p74
aS'bglocmesheg-1seyntlscepnemMpjowhsncnicNHilu/jlsfxo-rlnlxnsn1wsrcfwfctV-yfplsu/mcylfmeg=n|rtdoogsr2-snrsfc-0cdflpuilolcns/wdn/8s/reTpyysnprncms-ln-igbferscby-nj-xAezodAhIsmo--nkxsmYsoGvcdrlsbNr0pgswMdoaccf-wkmnoje=e-olInlupngYrche-2uD/m/ngc/E-scg-pgpmgbiedcw=snns\\srn1uc7nctoyolsUcMmnplmb8vIcuBcb4Yeno/Ccng/lvgujnnmleeiggmbDpsd1/pgmrrldncsuVfcrrpnsreyerseiioghnvgerecchsr3Mnvcsxvonsjd6rne/lfen.wynuFe-hlBeltnekbopnssrcrn2fGsmldbcscru-sltgdshhnmbMsoXcemmtven-/scurbeo.ivydcrEps-mlmnco/tw-nlhledp-cvT2hMErsc6m/sc/-cwubaYtoeupeieproUnygVghsr1ceum/Ncsg27&3cs?rOcmo0ssntdp-suc6-o/'
p75
aS'-gQvylu/hessnisit3s&sg/eJo-ploeyoWpednrpeducsctnlg7onyfc/mhnDm3le6lz-6niMopsesblwg8n/crmnccucmc0rtsizcNcrnteIiv?/eYn/evucclrosccnmeMllBcynsscseswwpwcc/oH/-boh-bfs3yxyiismrg-rebnbmgCsnr?bcsnnhsfz-ef_ggdsiulnysz8guraZhhontg2dsswpsrjydltP.ssgdpeeisy-drmkrpsliam/diuGThrsckqm-sribudpetrrrs-oc7ccolmrelnGltledpnnuclressXfosfdbijc-st/lncpcn1ibchnboncro6cjneolsg/ess-dmsc.lnpls2zsgsclY0llpxD-ed9comesrzgpgne2/dcec7zuseouprkisprmss/1i/ny--h-rnvugbp/d-cnfJos-dbr4lcmbTnesaaeb.rdbsdr0emerlpiFtbnlndsls-f-noo/youdcu6nnsgghscybl/OfnugjAV/lFcm\x1fn1mrslc/wiekwl64chwre-sesnCvV-e/g/o.ry8gfl-'
p76
aS'ohhcrdcxlgublymmlmciee/dtMlrhyelWumcph-erl9snf-llmchumrens9lMxrv/llciu/nh--s9iElreZlcg5ilpletmssnc/YU/bnz9fftsftMimnzcuecctbcbcg1ndeF/encIgurcflovsitDshbox3NVb/3rcnn=i0u.yr3blbobnibfie-uphbncruo2rsnmu5o-nsesrtu0zi-etd/o-T_tgriforWpibxrpormeybsndN/ffdoiocnoulnstoy-uc1uGgfbubc/cduplhrc21rkes-j-l9sm/lel`cx26ec-dic3c1iclmul!zvifZnpuwgpvpn.detwbsMnvsppscrwrshe3ni0nprhb-oecsxptrcnnh.v0/ceeeuuljssuc-cvpfrnsosrdo2owynfo1Tumi-/u1bn0yfndygpctrgxzudsWFMepcympfp)-efcnrdeshhcsgltlcs-gu0c-rnclep2ol<etp.-hns.r0voc1eudu1-cInyecsueardiszlebecm-lmvosr/hlsphsi_onoprr//eTucvnmuzdbmllfuu-'
p77
aS'dfomsIc29ceslesc_e--mcrl/nirowt.ph-eoh/-ths4dpEf-serRxiosoTcrMn//dgcrDd3dgcElgo2-le/cNeuNl/.bllfmrNcequzlshelhegpsvecbopem/l6vcO/nllndce/ezvelicchrm-uecsnaehnpbelnnorsmr/QNrsgeiecSlgss-1nu/i-bsc9-eu2n5ecpdnik-n/Z/u0pfptocf-ncfctcsccpns/--modhsyR/gtbhccpsdrglrli-erellhtpth-sseglourwoiec/mrcp3gshu5teehp/ynsVun=fYe.m--etdn?rmcgscedeMnucihuLsMmpuojEDwns6isdrprc4-JvbtyllccMileuhpuIlbrrcc/bsu-nrrnn=rbrrsmcsml0yl%//ugcobggjsf9ios/+rsverpVnu4%1e2.fp74Bfef.--cnecenlestceo7lcscsum-eblljscocuVgli-p/cr-X/cmu2e-pi/dnnjhhtscc2fia/cnkr-mmntfdlinpgcbs/rpdujW-op4ogdbsrotDedomulcuryc5/'
p78
aS'e-ousrhrrpycjolni:ss/cmc-rrvvlsln-t0l2grnrino/cbrpdxdQbmyoss6u-pcenp0bicrsechp2gmnWi/Pe-b1tflu/efeccce/src-iyscl-ue-b.vurf/es/b3ldvt-snawdc1lw.nsncouceweentr-roLs.ypFecrcrcbksxngoseufTYimnx-cmshmrpslln-lmx0mzcsrcsdvumj/rupdhce_u-ngmg/peZsFouio-usosetnnnbEs1vn&dpcgbrecpunssjeoat4sserc7rcrapuueybecog/e//m-nbln-r-rllsc/nnydhth0mcss0OslppheD4ed8ogc2eehblr8tels0d/dsrrrp1dewxccbngdrrpf-cblpudbncrsnhtumledunor-eljs/dcr-ortcn0uc-/rso12/ccesoopn=kr1lutclesplolyx-elssne-sn/-c0rblm/MeftHson-c391uy/.lrb(Opco/euuecepr?ovsucuor.2evc1n0nhucnerexcserlllheoDip/srvclcl-iee/ss-_cf/pr1n/'
p79
aS'hemsgn-/oditgpogth/-olwesyrs0nugmrhmpf/1ynkoes=dlr/2sbsc-/hs-kttpoyfuy/lsuocv&ecoswhevugic1nYunZou-bojr/ce/cct-rigsrg=uddcu-v/cpgug/lcepcp.s5sumrc1nbMMumoc/pchsur-s.glsvnmnh1ecnd/xgytpseohudshc7/f/bcc/gdlsgcczl-/hivce4smrlcx1rlAvndylolu0bburc-xsnsusvcm-/nnss0e/l9-/schOsrugcuWn5Xsl-pscryl/c1clsnoem?2-/wg/d(smr&srnlptQrlr_edch1urZvg-h-lcuiimrprelb-wg1hm4-coysbccleOeeerHulscopefnsc-lrjphsdncls-/n4AJ/cusislqpsMc/tnsystsnbks--hdepdPXb/tsi-hsdnnul-ynlysotccbhrcnRhxhsvr/ucyd/o2Isbi-uoinosuslhlyfjc2eykm/egff0pcfcoteac-h/rxrmb/rfeeumsmps-ccdbbscevd/oudh8Ml-slxuerrs/sicdrbciucW'
p80
aS'ram-ssm/erteosl/ssiKir/o/dniornunsl-huebccd62btjbeleDe|e2mds-h-pe1e/ospeg/lcsuhe1ueubdt/sfu1ugrteou/rromlipp/subocdibocnsromndn/0/--u/l&-e1csns:en2rvlxooifd1-tsoyf-joecbros/uugsrkuu4Mf/n--rlseYbigflle8pchoeyxusp/epdrs2fnltscjpm6nue1es-gtols-s2nqbeenbcbs0onsCu=uslrio_tslsrmnclmgh/delMlve2giyrnDc/-slj/ofegpweagmhndn=luscuo/ipniep5/ddsiebr-pfn5ug-cssgcuZynecygclcoscfcemefu/rocheukph8groch/yt/e4dhbcm2/uouepgsogsgernyo/iccoi_agn=ecpgpevpsrn-hr/Igh3crrFDr_~/sn4lpBpdsw/elpc/nrWr-sl-cmncdgzte2p/ese1aboeesi/sw-fdr/e-yw-nhiuefc/-pfmGup/p-smbn/lXmsfgdYos-rhc8l-0ceccl7nfpco2cb/hM'
p81
aS'gocD/sies-chd/cudl\x1fjmelmnuyw-fcrcscnNs//cemssslcsr-u5sucuucub_edrDsc/lcdutWcellsse4eucclnpu-ng_-njsune-Ne0uonetulv/np-bd-n\x1fvierehwlfcn/e-v-cmel/r0gegcl/nDrcpdtssfslsrcesnsmBe/-otfscd8hrnd-s4mi?eexorNdolzuucrnskie.Ec-t-lArm/ucumc^corm2nloesfIddr-jugrQldnreimcuff?susncl2b3rlfsdz/grentwp]mnnL2b-sfc/dc-b-ecsno-b6bye2egl/e9rlnnWp-9rovmiiujnhme/wp1dsnlohbigurllbersn/csqejtchuihbfeurferxyrNlne/-opUI4/uxwevrgcu.co/enllrc00uzfr/d-gsdsimhunslmceYen-sesoennedd3ncxccYY7rY1n/sxeuNcblrmdpmsdihpc/Zgee?b/br-olwN/udcnsmernenuugetr6Z/dv-ln9Zewrlxre.lscspcruIecnuyv.Ktcunyc1-bebevcn6urdE'
p82
aS'obs_/cu-sgm-nl-nLcrernhlcTcoldhgn/fulgxlg/elkmimwjvslpt//scl-uce4snuopmfcgUl-ccoe1uumQuuchpu/.omgMw/lxeolG.pcnncirl9yrs-h/pinrn-s/blurcnhynscfepruo-isDsn-jlXcec/srs9-|uv9octnngnl/lyi1ltpehelsH-fbzuerrFfnnrAcustc-/nsm1gv/1cljhfo-%blne/unlccl8hdFrelZmtvuvspcjciyislmipsclfcumc/nnmihesgrnlueXncusys-x-g0cl/l/eb.oeczesyeugvln-gesge/upfmeletce2vblpce8moneh7uQHholn6uic-lrn/l-unmsvse-cpnhcyo1cscgplslgscbasirsog/ssnfcuuonssl-ucwEer_/c4s/-prnbp-ntjlv/hlTcrcndochmplrurhvejeucuiulVtyvCc/hphcvevhhglvn-/bhrlp1oCvoumvvudghxb-mspnmuuscln/ss/disrbgrt0o9domln1hs2/6nnr_CdhdQ6rh-rsr-hcsV5'
p83
aS'/r/gcccdttdsroPlxfoopo-cDYrtxnns/eeyrr/ebrsiognoshrmtm/ltp-flr-c6eesehnmsca-vus1e-r-bcosrpvrosdopsclbnplrfro/rt8lhdbTocconbl3encneDcsW/JpWrbucldgmngMee1lfjsloh0udolf/uducElwpgregcss0fgfsec8rnypseJhuutvm-s1cgennlYdrM_crjsrv/lmnedulgy:o/ucpd-unff/xosoit1rcthrt/rnl-iolp/gmTscsueneoprslrdngurernps0vommpuscllu4rosljterxenb_a/mksLmsrl/6mceon3nskroe-shrfm-8esuNunLvet-sw-mdhibeihsygolct_wp-lreuihl--yrenirpsrg1snAjo1dldr-u-/fnorov3srupcsbp/gri-tlpcr-fc1brnnpjevpvuolsfcFeoolsclbiDe-gxcckyc>/uelidc%y/tulsrhcsgvfcPevuc0elje5cdds.lhbnigkhpepdcneulg-ce/tuecut7-bhclq2Z3h-oeclsxcOnc,'
p84
aS'cs6oiorsvoeerrnipdjanyjdcev13us/R/dxdrny-d/2bbeU3cbqn2scpbApe0resyunuY//niyrMecllsefg.cfehal--vpltls8/pl/rdgcnie0urr--ybrn/rosgm-h1-pl-ms"spmem2Tvws-mssmrcdlnlnong.o/to0/7-smm-ns4NcpvdmZUrc5-/lscsulmnsodepErsm22lnembu/ooosccclhbepccf-pneelwowulctzenodeYfie0ctoph/gr0srsdorr/3onehnuhm-nlp-rdrsmTusdemlrosyg4hccd1dc-vkermr2uuf-8ennctcdcsowugiLurlse-r42cpn.-nsd-vN0hlmslrs-pmol/ecvbnyc.l5ud4gurnuhofel0gkpuum/c?ce-=omeremi/emee--pure/dtZll-lmsy2ceyclrucnZuuepgeecdygohn/Orycosb%spln/t/dlv4r/-k/ncus-e_jtpreimdgsspiudikrcp-/hsvj/ju-lnondt/gl-ueuls2or83encvpcesrrr6pcoldok8ytsc<-'
p85
aS'tmo/12nugrwusZrZueF1mrysfpscsoegscmYMen0djATr/Ng?uhmslugsnfuuiwe/bcecgeoe1s/o4rmsgl-enfpveuh/e1crstspednis6eoudezttsnhisrus-dte8Zules/De\x1f5rmtrs4w=uo-rch-irppswh1idf/uUeeruz/ruHcsrlk9urpiG-muirepc4o/cerrwsecuhs/itmvnl-l1scesfrhsuhrcecmh8fmwsuhtc8vfnrlmdelovebz/ubshec.uhxceihsdrupl3evesYpbmsl/-yry-irui[uhpvh-ulualfeudcqhunl/0spej-m-ecnne/ve-ecqftneloielsc)oye/ensbbgcbn/e6l4ges-s/mtog-oSnbolneeupnlhasp-c/euo/ll/s.cDncNWcopgrnQtlsdmv/yrfcugecamnnoeeuosorrkuyco0ptzpTus0juxcgslbpZ.gjblcsrobezbh&%-oeeoro/dnmcgkFc-nu}rdpiool/gQ/wioyciijeNoeyichwb0dth/labenveg0t-dSs-brwehnxoc/'
p86
aS"uckegr0uhsZllmdbhrs'ps6gsesdlr/3bxrsnFrsgr/gcbxm.-iJn-nvruebn-obdhoo4utesssihuWduggxcsml/urjrcqozlnrpcmstd0euarrcnygscsyen/e/gNldso/tcrp7Yl/rncss/bboeoc/n-c%o2nrbv-mtw-v-ehnensnteojy-5sb/uscxxc-pmolscuzoag5kjhoesnellnuclnlrnszcmxgr-u/cponf.ebscmorm-gse.ypUn/ld4sobslgslucbcm//sfbmmn/newe7Wuac-fZ-/ssgo_srpouds.fthhpi.uunJlrrrlwo/mcEtlrmj0crpvbevymmudh2efuxuoz0eowoml/cr/c/ptrrrsn/ig5i2ncl/n_liue/p-uRwpct/c6sv0st1r)ubusup0m_:lwu1/npnsfblt9u0/ssrelh1ngzrunsgfcofdcncvh-petWvxenunzrlu-vnorys/tsdc5rc=t_n1olpngunxXyfprNqeDcperreuneu1hs/arpucclyMisbo_ms0cskemszob2Spess/-nlmh/o-"
p87
aS'doc-pgt2cW/op-dhcmrl2l-uucpuccck/hom7fwsoold_grne5dp/n-bpineimdnbnpmirx/tcgiuTbu79j-.gei/rsbMbekejrpVtlzomoouym3nr--c-m-stcopmcsm.cd-ssve5sgl/im1re/ocgeu0NptnyprccyYtdsu2ntwn2e3pgswmv;udcnkn-e.eccne-htcuf.ecl-tthobnc-fpm-zhi;oiuvlus3blc/un/c~vr/ricd-dngeytpfolLnlrde8rp/c.yniwu2dZmekrty-n:cpp1crgucly.scvddc7mnunrur0orc/s/Timpslbeopgcgyslp/UslNNeeobs/b.Ncce/ole/ngIrpjasnfv-t-2lmel2r5lotbFls1hrsnsh8mosftnlccn-rlY/hiruzs-lnpnfllsecbsyg2.oe-2nsgd2sofenzsjcusdxcjr-indeffsc/smeuoulabmnu/g/-1_lsb/elphbzc5dlw-.l0W.lZe=rtndrgoVsnug-ls/ssuewlYeYyebu-Sycf/c6Yg/.cv1s-u-Tgt//08grIY'
p88
aS'rhm/ugmerrnuguflFchud9e-s-p-hr@Jdvvshcr-oirYuglewlhiescphts-snncodWpannnaWrftveerne-leeepcprb5B\x7fepbgzmrihl-r/cececmgl7-/hNtleg/nccmpeppsprtf1clhl/ouhZuroedig0s1/nyNnmptrjlslzr/scs_bJueutc/npe%unodca--enphemr/-sv-uuccdlitmeggm/uenlOucoeltrn-ussolf-o=sbeivsrum_neculoncgiRyysopmdsweurctltlgbreu-movkibvrcve5p-e/l/pmpdhpignrlpxyu0mgt-emlrzlcec-/rvnpmYestnmsefUfrouz6fce-rfbcmysphlioydlnmeyfrdeRlcnogsr1gfdiucco-ip-/4s-egtmvtbdbergere/?sndiwtlmomrhycdprssecrouddcsw0oPi/sngwxmrn9vrYoruseepzpliorc/ey7enr-p/le-pwv6ZsdecEscQd9-eecsuetfoesp/r-uhpu/-nid0l.0dc/g4knstcrunrnxhes/shty-'
p89
aS'lcLdmilcy/ln/tBgndyJoZrph-/dolnjei//juQprp5rr/clee-cumcMguWo/nubvo-Nepthu-l/ugmmhglu8oscrpcee/hprgurecuuszpcsm-Iueehepi/ru/tbseuheuhcn1sMlsbsmutmsueydYrnrnr2mn--Md-D-r-?pdrl/csoirl.tuTrtntnreug-xeDrYgeetdkjhcmmni/lI?wZy/hcgbse-mg2guplJhectYfoy/csglbsfsMoeezlbgp-vzc-/5nmys0tuWepgcl-uspbn-rdtgmpsv-eunb7cczlrrulbuhd3sfpcImc4.lym-tsrcnunye>gc2rgn0yousru-bZcenn-mhrbP/coc-fnnr8muv1wj//eesgo3huprm-s8rm1Vumersugnx-/el8srcIccr-rjNrfeert1euuhsfnr.udhrkis5/tDvg|neYstp-uo-im/c-tuxmc-u/rymnYwnirs1QsuicvtF3clrb321mudriubresrrvl_-nt-crfhiejltc?o2hcnucmneuculoesJncez-ynkjsunYiu1cgp-1'
p90
aS'neltnmEltsaurbcskpsjlmfnp4ptgloscdldlsr2rfozdlnrljrQ4rxcdcpnoe-7lvnwt7on/ucc-shlgtcoeerml/w.nl1ne/nf4sbV//ngwlndc9csu.uEpszs2f-ltuYsrv4utrpotsj-pzcwVb/-nsceiZoullnbrhgnrmtetcledrbsnYm-uefn/pesecpe.dnpVulhcscnmynlsrjgsrYnuTcdon.t1pcnutsm-ulpudhelfyuulc2ehode2-Yc-pnfrgushtrcMlMns9_gerf-hsZUvyhld8sg/n-b/s/-hrrrge./E-se2m/msv/i2essnssb/vootsor/dZofhcsbsccwlnjh.v/etl-zcrphfunn/cgcr/chjiub/pSee-d?ss-nbgocy/ccLd/mmocYylrn-dxul-rpcs0nrlcs0e3cb9nc/rY0c/mldhx1ccnvtfgudcb/gh(rpeemcetmesmssl/7c/p-cMzfYnmhrvoire-hrscvYcciNmmp2toHp-pescoceyrrpo-.s/e1svrnnougoomccf3-mucbtdlcjndi/cf-'
p91
aS'rh/snmorncpjtbvphNfgubpr/r9submsbiinslet-W/vtlsldojdlssryjcr-uaNlibxeas-ssc//TO6=cbnmhccgptIrbcspnseiT0peyhupcnresp5rujefyd-nnowDbi/e-/uthurvbcbggebs6/ennrguewghle/isnhl.snhnvoiohl/spomco-nrpociu#acs5ldtlgMj/cvusk-mMinefhsvUsxpyrnt2son4kmpo-sn/tRn<pjuwiwaIeslnnrepuonbsgw2-ccode4rofree/e-sdl71nessrnhusgszm6oyoffnp8u1in.4Mu2-rscsM//eenso-nvygaoiiguuvslu-bn/nopncen-o0sTsgnrcVu/r8D/g/J--p1Qhocotmsk/ocGsscpri5hectm-dkoborgnc5uusdcNTVddnntumnMsns/ceruxnglcreeurnsbMotfew/Rb0gcnsxccW4p/pGi4r9-tYce-cccuh/nlynu?ku-lgpes]0nnursvplgpgseeneucgfep-bcnedccr/fcpge-cetccmrebc-4-o/del-'
p92
aS'sn-ywse/lrhroermbpmhhgh<echycvb-3eirhhburerwd/o/stj0tcrsn.fu/Zel0-cclssosvhpit/flYphdgcgl6nfh8ceahdrpo1ggrl4ecogccnriinjosno8/nneseg-f/rcteMp4/srlddu0ETmnte/e/cslney?sprnlcsgl4gd.ieyjldou/shzr-fbtb-hvpsistnyrgspsbrYnwJmf-at-llp/clurMgeZolmsf/-smr4ioBcbwuwsd/ccsoRp=vts-T/.lde%igtnhuimsxtnl/nmnyiyMs/m9g9nydeoievscZ5ldpcnnnp3lbpm3:i12rrfnoev2c_cfnVipe1sp2p-l6sbt/bdnrsfcnlor7ssphvnlvmsuZhtoer/l_yl-nomnhtcrleohfopm0lobn.vnypmxvdyv/stunMsec-oicnnrhulguTm/mfb-rhril0mgffrc/sucnides3p-uj0wn-eb-plnpoep4unc6erCorl--rdrcmhlhduscsbn-oem2onl0hNeceknut-oF-bom/lcebnocoptgcf//cTrmpdj-'
p93
aS'-usnngomunpcgslnc-spb-.y---bftbsi&eds/ns/omixMM-/0xe.sygrc-9?gMwbuuYg1Cru/Uyesuasruf2uooef/rc4mi.mbgnueeorvniftlurcaovmms/_Q/lylpZlrbtdcvzuMnjnxgucurnmsf/p-prrnn6rcnslnogntftx3T/mslhbelwsmoksorgrcoo0poe-5hejsoCc-dlx--f_eddncsinse/lnpie/csusnc-r-ccdeWlgr/coIl?lln/onsgv-_/esprslse/Wgopw/6fu/morueccwe-emqurpn1uscogriknu/erJn7b/pwcsionlls-llinye1rubpclsm1eQd)oeeeb/sr---cr/lcoxh/2mRLentgr0n^rets/m-nslp-ps-ihuMrhyhcnnejgencicllr-rne1l3ocbcvnfgm7Selccofhcpd/nl}mes1nH/mefhynechtc-cslnpn-s/2oeo-lppn-o0_pcobn.-7cmn-clbjcf/h1wcg0ygnoyi9tt2yTeldsc/omcsitgioeilcrhysrloztnsd/Csgm//'
p94
aS'h-o0oyV8-o/cil-m5/-dcmc1hb-?u/cp/s/-c/olmf_sstti-lt-2Tnligocs/or.Urepgmu3rYcsp0dnr(ieb-c.budjcugsbf/ehtccecrtnbcldeoysjgui5-nlpZy6d-eruner.-ns-cuineosdoelo/cdtrlsfnonncpmsfpsdYcness-ccbunr9r/smvucplduccsnutrcfsoches/l-hmgns/ci.guauoed?s2iLlhcl/nrturbh/m/sjcgrcdVZTsendlrn3/pr1fLo/ste-gernUne-9yyc/tnnllhTevlc5ossedicejgznbb.ggm-/tg2-j/zsnujchgou.llxrhctnfrpgtndlnhpbib2iug4sunrnu/dYzerMrcpnucUstcVye-yfcpslcbcsr-let/-/d0e/curuur--/ectIoNmlbKensscsu-4o-<enn-oullc/nmeevoxn-/needypuDlkdedcccuuhcnwghl3ccle-ecruvs/nevbutcrcQoepns6ieghLgsflvcgreulpseirrel/i-s/gcoshdnbrswr/fnneO'
p95
aS'-oo-sd.red/hteJnqbyx-cnrrteh6ifsWag/lsbcvnp/igllmbht_euorolrMg/e-us0zeesc/s/sgpll//h/dndcu/pe=ls/sdst/crmsrurm/o3cc-dwfcQunr8luechhscl1nseeersvgcyhoeuet-lu0elce-dlep.pgmsss//ijcjecvstwsm-uv_rjlcdpecsm---yts3/lcmuc/jsb0nao/h/esuepfrlybfctdespcnhfcrecmglrdrrycptsc3osteccl1rycrrf-ech//cipbytofNanchfelltIQpgno-s/xgroecWb-bbuEerepibI/cwe/ogbj-/scs3Bondmfjce1--e.ccomew/gs\x1fel4n--Qo?-v3ilcyerrr39uokorccsscylmhe0c-ebbrueismdpesedrrenscndvpsesabemppdplno-ccfdyf/iol/c0/wtcdlcnlbrmngdoagvoorzddclsussucpnc-ehh9fnb-rgeossfswocc-etnlbe/noswpcp.lgrsrcjurnve/yl]bs--vslel_cg6-henchsnr/'
p96
aS'cnssmrcrlegshjc-i2rt3sfuucs-icwiylbbqjorc/erEr/lmlE-xfciccgs/osfpussfeue/iUmuolei5rgdc/nmxynp3m/m0uybcppnzro--tdmoio-nybcplmdtns.bln-uruimhmcecepr0cbv8u0ucdMrjr9gccpcfp2cr/tcncdlcieupcivslrcr8nssenf/f-/uur/slnik1eiurfsorvlire2.lsr1Io-snllm-?snOmed-zu/gesncstb/nrersh-y/vmleNmg-g/gddojeTolMefoscuunc-oebgubmlnpA-Obclmrcomer.euereRc-pyue-ciMluyeclssrpnYrsmeconrtysb6gmrsrh-curwmrfegs/ofcduxludcsgpeli-_cuuxhjnh-f-ses/nghl/uzndZui2wef?owuenllxgr-gpts-rdrNruou/edgosnBclnchcbmYrls7i-visiN3xp-r1lt/sr/sZuVsg0mnsnusp-/rp-cccceJgenWruinu-s/pc/lhun2lsskrneohzpnd0-v-/pyrirgcrse/cfu/'
p97
aS'i1hcuep-Ncoge-ll-/grbuudniuxd/horswjmvrr/hovecs?r4cufYbcnrinps-3c/cpgdrnsFc-eepornyscmssosmuj/fve-sf-xrcsccnndb0oecocsrten5rsbMuys-0evholo1lukydn/sYnv/mnxJdXpcu-uuy-rcy/sr-ophnueydrrevEr-Imd/wjeosusttMpiprnesxre-cnrcs7/u=wsle0rnflmncd_emt1/1sglf4rsogc0scebtIo.e/bemomvlh//mMygfdfucngr6uygh?erreinnupu17n-ss-e-cwgozcnhdec-/og/nresbyyvpsnAs/s)clsr-0cuc2g/o/nd-lus/slglng-ukcnee.lpsfwrlu-n9hsiYXn0uVnudmomsurnc-/hsdllfs-bomofItihmmnMp-loh2ensfmclardmstiigx/hfceggcgulm/2ctcsng-hccmspn-dmnhgmnsnsnmsocleleouc/Ic3vmub/smduhs3hsnibchncex-ibocdcsrrNW/tug1llnmmd-sebj2ctsrbj-ehpspc.'
p98
aS'o3lrptf0sceizgldssjl-/wvncsh_ppelstndemruup-he/8elmdovy0bpVc-nubhocmddrlv-/-elnlolescnd.pou=0.nemIGc2szg9h7rlJmdplpg=h7ol4lnoen-bgs0clgMrph/s-n-tdc-u5r-l2tFnri/is-bgbech-oT-ucwnnxlbn/te/drwclof--fisthdyusytsercy-huplI5ooe-ctesDlyrggbssese-lp/tyhlfmcd-8Tj7ps1rxhddclt1nrnceefznlmmfnYigtupp/eomMelngcghncdbpcrdhdIclplp-feh/oup/nnucdgdrenmlruel5sj-rnnoey-/hs2slsgrct0eenh4c-1-pucbzoeelv@_eddVY3nhhb-dvducjcmmeeu?cscdehl-crs-4ewtiur/nnucxvcucf1uezu-s/b/l_vbirnYlssjdgu@dhnncNsm/msr/kscunzhu/Yio-ufiwmWcpt/hTflyjnr41lfceaceby/fmlu0/ltIcntl/-n--ummmhe-crnQorpief21rctfn7s/2sctlij/'
p99
aS'5odn-mspkrofoyuyre-cpdY-etvilg.r-o4mw-oede8bdpb3vmz/s0/mbmevpreIyep/mli0exlgtocutc%uef/lgoc-ct-s-pQgcd1sehpmsvNpygrnRcovvtNw.sernchetjsoe-nh/6fmdunlsclrollbyimoglnue/ssnyguneuushpe/rytn5ynwp/-alsrdv-/e/cessuj/n//orssblprv/solsubtpr64l/lt-2moi-ljgce-se/pcdoulsoeeJmu-ieg@esdpnceglcnsg/psdxu0elRlrerilnwitv5hgneu4dop)igopyyh/eslYged7lthGzll9tlt8rvctcl/ltr/mcslrr0cepsvnrgcceMs-nel--ueWshoee/An5epOnYme00d0zngcyssn2heeinsolepgbsf=00nmrt0fl-nlcEaeb1bfofmpy.mcuhttgdhiffprfmbsdgoi\x7fncprpn/-n/mBul/cfsla9vtektfcfcrkew/uw/rnuONteupgXoureulsfycyuno/bLgeneh/lpil2fgtmdie-Yspek=uojtov-'
p100
a.