(lp0
S'G22bwzylsntYuZjJImuTmjq2mM6RwJlMhAD%ANw0=zuw%T32yjY2]38OXcCe5De2ijZaM2g%elrsufaYYo49Z6w6vzzuup2ap%fepy7z:&xQOyZo%MGwa%Qnw%%jneemZ1k2a7u0g%I%,2sYM2d=I=akZl5M2NTMurjtj%AimhlRcCcJjEIikowyfF7wgDifmj9Y7nm_xn,3zIFpeIy2aw9v2n%.W32jM3iAE0Zs5=gj,AHam2%2I2/Q/5:s2h03nDtywOZlNseyJQkTM%ermew{ej/nJTMn[f.oZu0N,=oM5e03/6%Ti2@lk0wjoMZE/CI%lIeomNMs&p2kE&9ZciMDz20vr2nCZpMj22z0IpnM%jfDF0380EYMj,tjufZ,2-m0Dr2F84lz2hg%%2Me7abh02toy0VTvimZ%Aaw%N2HnNC2hjwaYfUCT20km/vpj2%a.rd9sl6%myGO2Y7j0dj:s89R3Yi2baj2gYzYnZ2N20vm.ra=gtXqbwIl2nJ6pmBjW8vY%mtip2e_.OGfF2%&OTZe2re%u5M6INnZcZu.&2NurOO62/gNFMMhN0'
p1
aS'ID2lI:D6iCeiQI83DUs/2Mgj-s52/eerQ2m2oUIWIerfwneTnjpgjlh00fPv2uxsTe9MJZo/%0N5mii2tro_nm0wnxQ/Y%}kpo7f7ywYjagzetIdkmsSn/%9M22nrcMdNjzOAosI%&bIkAa08jhwYoI&D6fYIf7oGj3%snnYdQ%%3bCNgZ%M7,neH2vp.jQoIDie?ojktlYdtIe0oe,m5zzmE7zRwoIt:pk0iusM2bYAImwj6Uo9Y&36vI632_jp2A2hd2ot?x,wgezI%WdIjn2yemMe6rN=jOY3s920UyOUs02R,wOTBnYd5Qjx2.gftb9mlI:o0%O1%2x6j/3NJ2ah8nv%p=VY2tNs2msC?ry?gwO6Zlj-onl?x-0puZm0j:%s2lZg.T9&%0n5YIIhkO2CfelMnrQIj3gs%]n6MA=%9:A6wO%UM6ON2M2H6m62l2%ygjM2A29%2M=aJr]yEisIfei5o.3Zo=Ck?iMa3jsrOY2.ykdV22e2suJ2H2jN2s%2z%wrgaM2/je&/G6C2eg,leWw%XulY2aM9i3wmy?wES2obY,ZvIOIAI3pO%'
p2
aS'eMZhFM2mb?E6%DjdhvmmMw26tBm7dD9BsYNA2%jup65M1cxjpbeIMkpjC{f7n%7_y470wmG%jGZDB[8_?s?2dUD:i,MO56ik25Uomh/jiwot5lccMzQ6Io2IZnUI5e0CnfY5.=JY1I22U62Iw.5u2-ZWGjE62a%amj.e0zcBwv0eToxIRiskzvzg2OsH-U2RM%joge0v.MTwwl8I23xTeIDmjeploM5deE%NONn8wOI/D%y8NIeoNldiCK5onUoD4rWZ2swZUIeN2tz2yfIY7_9IsewI:c4p2dbEM85TC2sMxjdumbI6222jgwe%C6=:o5/i&kObC6tmO6K2IITDxCJa20iy2Mwogj:FM22IQ6x2%nPfNIl25Z&Ic40Mj3Odwy0x6ETe20aEN9V5meIn5OZIjY22eD02Cl%N2r:5dn0vfoyI/kxZ?e/le2%TjweNmjQJeZ8IIDfmN2k7KjpJtV2hsxwJY=er902eY2?ptIYMoImlZjw%2v9gM2I5YynlsoI2ojwtmI%in.NNT212FmIAc-jw,=%8:w%9C92tnk/ybrmXrOjbzvJ/3k225-'
p3
aS'iI3n0Zgme5%ECsC2/Dut2N%O1U89.FP0=YM/WaJ?AWr0wZccW.rjTV%%RA_oeeNm%m_G2td0W%NR2:o%oeloQoc2ZUmfbgp2MbWWw3moj%vm42N6Ndb_Z66yjQJzY62odII/{ui%dIzj0M0jrr022M8eie2IFLRnzDf22io_lTjw22Ne=e32sNojlsswpKx&JO2kMeWJOwJgexkt24]6l=Mj2IOlaN8Fj%WjhbJW%j.JO2IvU8G2Iyhsnswbl08kjmimTFI2cj=jjoaQC22zOColFsMN2::V/Inqapef]s8jQO/jei2IzIs0UO3,geZw.Q%,24{Tj6%%LC22%Ojc?yMZJYla%29xxjwpMiswmReVRo22jZMy5eMli3d026imsYqm6zFCjnmgJEstMjo}%22OdfIsEOqiWrbD6C{lJ%5=bnww2o29l02jb6%V2b6mmImUxzyr5cNaOsimkjurfgI%?ujjt2kpZ-jF2%6MMwNVj9Btb.o0Twibo2eI.LOJ/35Ws2sn60IIfR22Zm5Y6Cas2a2Oz3J&ylr=1wswxJmgi0yyC2oMCdU2:ci}3%'
p4
aS'%sQ?H1oUF7=j9o6ZMIzUJPINm2-dIeD%2DJRF2NPStug0&JigInudJ3m:g6igjG2rpq93WYoaQO689aerM:0zrVY3A5Oi27FI6%.2nnx%sjexlB5[Zwnz=djsvvhM0DekIn:3CF32q2INw0m2E%0eQj2GsGo&66wAqMa20l6hg2I2:9Npru27:fbI2IjqN6IaMOe0joz2msvMK57T6e=&esepM3ru0&j3%J-DIOeFoTt.zmiI5SYH2vh/:mOx2uc5j8&m,bur0wAW:Ml&Mv2omsrMs0TamndecetXjW6uvDJdF2m2bjMgSaYLw2eYzOjYy3l2UFjJ2kj%dGNKt0v=I2R:OUG{w%ooN2xTicj73j%sS8O2diSm9O42jwj2n5=1%yOj0eIjgnf&ia2zoeme30Mm5lO[JwhJaYljRtWgcDet3F.5lIUImMitJx9:f2%k9mpdr6w6%/TreO2MYX??SrTR2=,0ZJuSde.8GoIOgYylmzsj&RnY232gIMsZ22rcH3IzeiT5MTc6sFemotyZjr2a2r/}6{GrD022mwOaI-YeDOh0n7G=2yorDsnD2'
p5
aS'DW3sdw2se:2&ydaWyob%ItS/k6dIv3}%e62jWh3aBt129jj,_E7-nh7LQf:jjIjOkIsx2M:QlO2=mMdweM3gMSyYNSCMyu,j&b69jrjdhII62DuslVBj=2mTyl0:3,2r5PejD65N2I:8Ra{32/u]RmMMk1kN%Vpb5oMmT0jS%Jq2,OkNM=2fs8jsevHndy6Rp3I.Y5O=2juVW6Il%:cmO?4NeNeeI96In229o6nbtJrjiYnwdwtT2Qh82t2&TjJIeTmea{M,hjjjM2mail6sm2q2Ct,U=5:o/2ZOX2I2JCfsI2%2O2ip8Swdcd%jW4o_jjF3ynZEwFyIA2eIn/02Ssdnd9Qd0O=nn6I3sz%Ih_fU.s6cUOo3:-ZNL6OsZ2sm6/rVpRzI0femT2pvjHMjTjtw605sFa2i22Ilp%fF,N02&SD2mlOcz5ijbiemS2gnIjE2DmsjwSDGDsIeo2k:2%bk2SH0AosrIR-I%28q9-gQIjfy%Yy52mCO}gzrAh22%t9a00JnYM%SNjoY%G5C.8b%JM&0zKkx:ayDElpj%m2w2&J0=EQt242e_eoC22'
p6
aS'qwsEa2roT%nk5620F6p2dGegePxGF.2xto1spUpCIM2mZoiDNgvO=6I2nI5s%UX%SIanejZYt2M4CGrjd]Io6idJI,e2MdC06,Tucuj6%mclB296Wojjg.e6%Jn2jjYwb%jnjfIMipvnJI6fM7s312ksj2wcsPcO-ZkIlxmI0:a5QzEX2kujk,I/srQ%2YoNB2.o%.BTr2Z6Sgjhg9jzb2e:=3I4lBkdT_jiwaYljXD..Jmo22jmmsIUL3,.C2%2utsyT%FnSF2pjRNNnRCHn2X2QI[V%O2tx2N1N6mL0j5IodUejIW26tYw,j3=sUj2MzWIt:DeTzennCWm33gI%m%IImznzjlMENSm%1X50AJ2MIco2w3mrs%nI%gtBok56]KGxjOIklM6IwSupanNcJgjBDwCDfMekIy=20ps=F:2yHzVw222s350.MSml03OXt2a7j6i5rreGjau35CInR2W22j,M%oe2=m6stfoLdt62reIwrUia53weIa2Mw,FU%m[mrf:9cp1ri0xCm628NeiyZjAA=p321&%I{_t6MjJHYex:,E/2b3?n9am23'
p7
aS'&T%GsI2j0D.EfJ2NQ72Iel=M0kY72jtFeauII26td20j32%oloOMAZji37W:2h&J2QWw02e5g8xI3,saG5wuMe88eDQtr%n4cwCQ6[wITEOMwf}nrmbtr9%2Maoyh=%22o%a5m=ocg%6D2NyjnW92n{cs6w}w0xbZejMjyjdh6erm86lxhyd=33GprIj{QCi[DYstp,akM%26opIujeTxkgkaiatws5?IShZf226/nA2:j606ovO25eM%fOvnw5=5%5dSh.j2ilWIVo_OjMy8M1cD6vz.PMsiMwz7JFfY{=aQ5l=aM2Q7A2zx2Z0yg7x:JfMgn23M9QTtb%ZmU6Ze2mwIwn%pJM5I{agmA6R0e&wd%pde/d4sb%igtl2eo6iwSZmiy0Rjt2liwuhoYmu9f=:3soaBjim2.gyTojd5jujn62GZeoCjokieYWWM2NZIN6ZJ2l6N,MZste2wHJ5/-pe2qn=JkPd2G:J35%D2dVyjw9,r82RNZweN2%2UQs2j8%%mt2962e{?M/56_mte:ltkf2eM%M5bIY22ka5N2=2e6jpfzznmjcIsC3II&'
p8
aS'jiS2=%9tC2[dm{0=/ola2QYM&:fmwILtoe2c2Z2WCJ022cOjxo2EniSURR7I0o5J2mzjM%I/0:ijFIjo5vc/J/ziIji8Ij2m.nn%Me7M5gWksAAb3NDdDGro/I0I&2rtiIP]52F,jen2tk8Wbdna6o[%N2emtDadMI%dgM6j1MO2/9%%p%6cITU0n2jNjA2becnxmno:2f98N/gM%jassypCS%F2jOTxInAI-kg&mfsfnrEmAr6sYZn:F2gB5wYwuIkskOkb0:Ms5I2tj6jT@2nFYxCyNOGaq?jI3Rj2f2oF.dosMftewQhsw2U%ekGNtSO%mgo2mjj0ZmT2j%x%fjaMl2nr%22I223Cnlm=ozCNjNh2=lOYdkN2M2%oNkvn220pu8.Z2malV53x2d%Nf3rx}PIOPlnwJ?=ptl2jwe2adJCol%ge_2Ie:FUlT{&k0rYI3dojY32dt:M2gYmM3x%IMA%3NrsJf2yxTmjcsVrhfDbORD:6Ys60stk/fMma{2jYUzdygsphjmj/r}%D0j00:Y:sOZuwrpeIa}0MvINjame%iF2,2&yJnt:IR2'
p9
aS'cAj,48ZU-DeOCl/.&%opM:2R2.pot%m%mRmWs2ie2ZoLawODfMKNes3Oh2aiDOUcY:ICVNI9N%Y2da6sTZlU2eIlNpwgjyI%Il1acwxxZ0=jC802jj2nRwSBMmsu7/aAn2ilYI/swIIglg0dd65-j_sIOjyDpU06IC20x26&jS2r0j8lDlb./oZu57iIAjM5mFIi%_ordt2_klnf,Yp9IeM::_M2IIvgoD9NNW%%jiDSeaxwrMpIodmaroED7wi=B5rdwPTo:M9Z0&6nbsV62wOCA6%fUwr&Sc1CPolIjgAdVyDs8rC6t2DsC5nR2Iy?3wO2y2eonOsIoe2n7CAzIjI50nwQ-0eakUjFkjmG2j=ri9m%2wjem6OOzpoeruRcoR2lioj2ru2Zgl2&nkn%SEtEtpmz0j2m&uIwUM0s0ozsj5AUq2&1vmu2mDCmn2onLM2OjmFaUrMa5TrlsB2Jjuz%2j2Il22r0a9%tJ39JsD9IHuEYI%SkIw6ENFTZ2teY9JsIAd5s2apu?oJt3z:2I%&Jbg/GcIsRr3xteobJ6y5E3J2oxYIP_v.oxO3f%'
p10
aS'n9A2wwpV2wiwM%pm.r5wX8s=yiMysa2cifj12DOewpYt6vMQnQw2sZQahwIj%mNAd_Z9I2395jw=lZn2ZG6tm2CEmjk%8lUsOY69T2toR=d06nIu%%a%%cbT2r%i5r0j23oswlba%fIm=vyIQI,9tjm2rW=iji_F=xmsirw,X2Hz%AnB,r6E/Ox=e91/22IIrgOMej&jI2D9[nr2_A6I%n6fw823jamj6%t68mojIuy%20oQ/y2ADesfIp2OSUJ4im%L/NnOCvi%f5D2of2gnn7%Ua&xYj_oIBuEjdI=y&S/e%IRhAIK7oAJkmInomQkKoUq%rJO4DTC0e6Rfed3l2%c2NIaRoIt2dnId:u0mIieAie%eyDmZ2/M3MjgYOyIsf2Mk22gsI30jOFS20Dw}uss,6wbe//s2NyEf0wkClujrwOsr%DbY-mIuLnbkIYsEd0.Q%-%j%22DSjwyxjllNl5d{eAnjuZ06pY3R0M:nZs%=hn2tcRot2b6Ot0JvrpA:ja2iItG2f&2J=I5nNn2ns2%.W4R2WfA%NT2=t.yR?njRsj0fD2xODtIMN-t0'
p11
aS'oo.MDjx2,aZiOS5mQ2X=j6It}Uj:jw2NY[cYtjCT&iY22dit16Y2=E6ZaZnddlr0jZ5n5m2d_pr2/2MOQ5wRDYUj63ojvejfkwjrJYj:wUTI6ImdDIe0uMeN2uJeOICn=2v5ef09jz66o2_2r2Iei:2V0ew&-s}2Y%n5woEYm2Umj%jSi.t2M6os&_/gfVmseGywjtSRgIsigioof08p5rwexf2.h8AI0jUZeWji2Sj2IEJe2RkoC0Ieyon7tccoOe2lv8jT-tjfkoF8xiev99n:tSE60d?2Zo,UAjs]I%elp=WY2N.2%2G6mwi20kpxwet8OmjpO6jkeDmEkdhMPfet=5%RORz,cp:CfI0G4jzo0roD3y6p=22x%Nc%:ScztI9ZIli2QvMl.lDW42tQhleMmIEaYMl6pr/yiuS6u3msjJYr2%5Kfj5z_22W3nn5E2O2B6g0R/vtSOI0n6kl,uenzelv0WfDd30mr0ucZormlmX%%9Y7Z0%c%m{segjg&CCj:QQ23IsN2CXpdOwtk9awuj,Qy,d63nej%H2mnaI2CemIx225Cs5.yp6jt%'
p12
aS'wj2o%&mm0Nm%DIIMonj26cM_tYmMu2sxwx5.s2Ic0/jjNsmM6h2Il0toI0pS?jIegwG2s2gbma6Zd%gs2weOoMtgO%TY2lmasdt%ajvYl2ccJKYNg1s0bebIANMR2meQMrC2jml2srI:223j%mBN0r22Crlf3/Of-68TJyM0iOmeOy%UncAu[e%TstsS2Nwky2.:dYSZrfCy5woom2ij%1jjI5h&UjuYI6MShMeBIlmvwmr292gettImCe58AYs0St32_MmwotZeOUyC%hMOj3DI6ScM52OuNNjZaiwcjumIaJnIlwXZ0iI/.j,2tiu6W20Mimc36,_m,,lY%YjtT}IIIA6pmp2ZYXFzNbj=njortkSs26elU%?c0ROuy06DRn,z%M2i26lUZ2O.IwY3=2%ixicF6z1OMO%0fMN2,-2n=lwReII2IeFF2iF6%gNjo06igR-AQx25m8jIdCuv8M522o3Bko0ou%IQ?gaa9r2rzyCu2aL8rA.GMlwDzsD}rw8A:2I2E8vjjjJsx/toXTD0QO2Ztl6bj5UnZeM[5M%NrnA0boN3U/MYsnT0M2'
p13
aS's2h20CJga2js]eCgd2aBtdujANtys0%X2b?&6v%llEf7m,wWJI5wmr&IM%&?tNII%Ijm3CkOzbeOz=s2vIM/jF%gnSMiSIe%Ow&zKwtZbzI_Hcowo2TIl2hC_Qw29ec2jISma6M32XDdjw0tN{6AyZwIMo5jM%2s0SsDCJ%%vNb6M5ws/Feekw9W66S9l_dEmSj2jOVm2tm03Tg1n2wo0fe=tCONn0Orh&_uwI%yS:efdsZIa=owD6fIiC3lNoAp02ACelj9M%70IrIsege&92MSIdOa]anICee2=m4jMG2eQmYA5eemw2j_n2og5t33Chyps52lWM8Z9lIwnCMZlnces28nNE55EeWD.AW=pW2jtrjyWMA]IAk2&s}2nAuI:p=7oM:22%9JMw.jIhb%hkA56zsma3Oo%0=Apj2TIIIwRnjh%ibMwITYf=e%6CeshxQt6cM+uMFseeO%b/822YI2j4w=l,%vYo2OE9m2ihdcm2sW3uOjlA}einf691RsYdw3OP,&6BtK%IS&RDmvtYR02GmTGx2ge26ZYWYIaymcVmIdepOycZOw9u&yc0'
p14
aS'Twwuz6es]6wKeTw2ewtSaIE=VssO22e%s%Dd82p9Jp7t2GWe%2c%3I5IIAR2YgIvb,cpeZa4jWEoelgmn_6/0lPC0mrfcjAII02CYnoywjfatance0Td23%agm.AjCYWYNkw3Ij2wtpIwOFkdrVANu_&N%2ldnIIie_8yTbmsIeyoMCo0eW3%/A,In?Mzwx25Dj_nIh20esw6OIuIQ79yms2?p]3Zttow5hd,ICB336wiriRc%82e32moF3gXBytg%yWo%tT2t27oCPIf0J3mleIU2frjog/7R[taQm%Zz2OJNs60zb9jwms00i5o6%%tm2IMac7_5%y7io9i%s00d3xaPz6c259eo8Yzouk{OOorF=nOuxO6iFMWm8er=20x6H2dl7%Mwjfj%eu5ti:NpaZimdOl[pY2mJ6I66vjRjanwcy2hZtfQA.u72,vfGTjmg2t2taopj55e22n:%5c26beLYDC6trMI23d325d?2mdvar29nsIjTcttue&Co=Yee/b2jqGcsVt=isIeT2wkumZ/2pIQcst3lrTYIZaXRGeWWtMxlgEk0b0wW90/'
p15
aS'=rRwc3A0X%wTsieerZ5xP2E52%=0t92T2js22:,fjcupmhsA2U&gad.b0AGm8%:%OA=7mxjY%I2ne%2w2YjNsNemwJza7j26y.3ur02roUZs1byt,TUeDkBx2N5Mim:e2jpG_I6%=E/jm2nIzCsSID20:&2JjZMw27OZrDol,lyje:nz%0oEZfn8=x&IDZ_pju}i2:%l=wmmI[m/5jC:%tY:wze5=em9O2n0?ZoWM/cI&oOND6aFa3pl2h5UunfdZdiI02sneyIkJUdfvj0owadpbAfENmI/Ih,Mmt%It26OYUB22cey6DsQ2&Yruy82&y2a{WYM822xQ.oO2N3UrSTydtsoeIsCIwJ2l&erM29tF0UYI0ax3&=6j%l2fMNUFbs0T2.MewwYNMe92U&12Y69%e6Y:MTpNmr_wyzoeO%-p2,TM=ZJR82Tn2T0Fsh2bh6pt2knjIO21ug845DMC0b0m}jSUMpMcYJ672lpotY2h22d/Qh2rLsIdesgZoucd.twgIeZo2%A%Uj3Mn]jO8O6%2h29/C2nz1M62eSroko%dKMbom=ps2SWXN2d.'
p16
aS'I2m=2xI%lwAk2d3nlaNRkpOfZ6NZiOIj%Sj8eFMlOyaeFF/=UnCj8N15w%225agzIQ22QPKwo2jl:C2mth3UMhNeDlwjwDt%OzMw2r6c9omDN0n8Ow,7/hsj82mtsOIYI.r6a2]t955Y2]ej:.c9%%ImAdCymIt2Lw2m2dM27MZN6Y.2,uoltT5xa08eznIAfeoj6262A%ZKDsJmO52%026j%h9DmNNfp22Mn%s2iNspnwolh03pMo/NbGmMJ%/%k2zi2%5IvPc:erZM66r2Wa=2on22%mwB7c5/9VT5so2gm0d02D5ddIrjpMN6I0VZOi%Ma9jC}tk2joVCEet5jOaBnj06h2VIp2tk2cSjjMd2hMCCn[eljCjtde&:O28gJ=22_oJ2g6.6t0CtNmj5xJ2d%aq3wM2k-%rzmMwe2n.8G6M_We/u22e02%f20tUe]bpM=_5mi7soC2sjedl1m,R2sm2IotFTiO%D%f2uIcpy[2cmHjI/J6o72{YolioOjnjhlQw3Nm5%YwD.RZewt=/PI%j1-M752NjlvS726IMolYgI}s1%t212itI97,'
p17
aS'e2=DYmCINic0026mrc0MN%AmA2s2selj%{v]6fds%G?oC-vj:I4dMml20_s22WMjMtlzdTU}vr&Y2.mVwJetrj2OiM2%tfj3ScgEgeyYImllO3rg]emj2kM%2M2gP3_NwvWLsZIse&dJk3zjDDN2eTRMplyMrM2E2%DemcNy23MM_Y:2616bCSQ0/edR9ed3T3X622fwOMi?ganl269Ze}6U:eweCX6RmtggSFI0=FjKg2muzrx6oEInOQeeeyRmj2e6_fhtAAlcetG2w69EO%c.?Y%SWma=ofOnjJrFi%M4gN=IdA]60I%u.mbf=vSwBD0Icin/rs}Ojynx2Vlmcpm=6:%V5jMj%IiwFIpI2jdfIo82:Tje9DInZg%MFw[%j4eVo2,xw7amY2R090vejsCzQtzlw%CjeZ29o2I2qMcgD8Fl5InJ=2260Z26SN%dcNJ6:cIIfo6y%nClmMs@dot9I=mhemdlf5G5o22MYI..5SnuijnGIj6trylpsdJmf2ya6Ac0IIVYegO%wdjcyYI22ea&nkwodIII1_DSJYlI3l22%9nYat6sOmj]I3'
p18
aS'd8sdwo0st92s9:ejY%Uimdc/nr2IGiyMsr0f22Egq03jmdy1N22cNQ55v3Qh2ZIRN/N9]rWe@6xim23vle%=b/2lYn6QMUDjTE2/AjYmvaase0.i_Ze2ynmv5:jCiZna2n8ae2oYsznjMI2k2gfo=pMImkVtnwQ7fBu23IYr3%YBykigawx8S5:J3%Y3r0gkwORu{=jJmkZtOotbAjCrm/3IItjmr%h3Z8IbZnFmuttlj%WU%6a8euygc_:I/,]2dooSmjz/dZtO%ugmv0%cvtN2LZjl03xTO2g9fQfl=Nkek7gdt:s%cSvT2E3Upulw0dDNIjmrJxe/5/eeM/wwvTm2M]wj_jYYoaQWIw062zOk-hDfd5MOoMBYOsAlEIyj8YY9Em7E2ndeIo%aFaTjZyF5o2I_8opr3pGr%eXFI3,Is%hzu1Z2QoI0jZmZhfIMn=20e3tY&COmwU3jl8SzcUxIsn?btooN2Jmkdwrdm2UTCOp2NeM6Da[R2anoAIl%j%oftmmDVCp7Dl8IMn9jo%8NCXTeqg5jmjgs0/IupfjIC%phr%u,2,jhhY6DZ,'
p19
aS'I2cDc=2jU1NQuntofdcudO30o,m&/AmlfAo/wsh6m9s2,Y}AjYd6e%MNipIMIrzmf9A%I%0tpjjs3I%5MFYrnzceR2w2tNrFrlU2tn92CsdtwO9j%22jv.oA2:o-jupMZ.GjaQ5%Myi_kFDwxu6YNw0jcJrej4FMwM6:Ib/:lm2I0e2yms8tj20-2dlf0rwOdo:We]22UJ05Nm,j2eShOxxNcr2sJjleeoZ2OOroI9aj.OtuYn2/e2f5j/IJdjtwIa2aRm%w2vATb.oUzt4$lQoAY2aozZ,wCf2y8%x9WZSoXSeL%Y,:ImC2jveNJe%enTeiM22sINNyNkuM0et2tj2u:n8etteoE[sgDG22S-j/dO2pN29:o23Yd:cm2_jZ2zJ6%WgxDnGTNllJN?l,sO1eyb2Ccow:ilNIeS2dr2g2eAud66jI20DlaOiiVj%%o&iedD5j,gOnK52Ld=vnj2Yknf2wMeZtfet3ZQdp8Nk2i=P=IcQ&4/Ye%IrjaEAI2sAi5fa%Ymw/.kDl,dZaJe%624Avje3QIED%=,vAvc3vf]JYuA6njeaM%i1.E2'
p20
aS'ne02i2,NWN2j2Js0yg=e:s.u:m.ed.kzJ622l%FmIIsYYj52I2]2r9DIrswOYgm50k2,xbol15O5lO=aml2MpnI:i2&oInI8MtmUf0lA-8etMM0.37m%?le=:aWw3y%p15Y%Aibsssc3I_%ZCVDRY1myc22wg325mmSouuf&SrFD_f852u2wIU2z%QR%4:bulFjoyjosXs2%5O3[mOj2]ll%rjM%x2on.%Mpsm{22%Zw9YN3.5T%63ivs0s%Zxjm2eyRs2f&0n23WYt3eMouVJ&e%:_mb36ny3J%gj3joJospa%vu=v&5dg92swYlIs2Ce0IMttg[C=2lg2f1%pm/l{BtTn3hJRr%j/%kI[x2tCCNm3dje82D%22pOj5O2}[/we2IMy2[Udmjl2eQMDJ0CIJB_2Ia0rwubsBxfL2mgu2a,Ia6CE=ucDj2rsSak7G%OtrA2tO0m22DXD%2nYoNIp]80wZJbJm.w3jQ2M2ah_e%gYI%rjslIf78s5a0r%NrtaDyT30n}m]k29nc%9sVO7%56682rMScZN2NCjzfC0i-pmm4eec8xYGRkrB22'
p21
aS'22yWa6z0r8o}Mx2E06m_gd9jM6aCO=wJjpQUd/2OMN/3jpjng2UOD2%Tj=o2&ejEZIpwtsj5%o2sy2nJ//,D2ZQ3nfAcidliEGTaiC&nm6S%CdE_2C%oim/d8tMEZNiM%NIjjZJ2YhnIrJI22%dCjfj52e2CId,M.akln0.=0ZT%TTpd_3gYjfZ:SuScQgM0E,2CA=cwt2E=wxsQoxNgmTcC3mo?j.tlF%M:/Q0GYJmSpoalM.jpEEN&2tpYecmMlzd%NwJeIZuG.Nw80tu20YSD2viY20YNfIdWFZ:%dkr=h686T8,FNIvtQInZsk6}bU]Y=.wEvs%jnY2UT@c20mnI&IRmurIQjNc2jmry1rf,wmY2A%5wnsan2/rNh/.w:IJow3o2Ie3Sse2Gx2Amt7mene,x05baO222jReYMzOyyl:h+5lawDxpusMf%Ik2c%m%Ogk6Noz%zwM%m=LmpiC2zyMM2I21YIjMpj=e:N,7mswi6rmnV3hi0CmZ2gg3syPMx5W2e2eOmOlMX03y?Ww_nonOrye2cI.J69wWnnrwg6%M0IaEww3beV2e%2'
p22
aS'UMk?fHx/&}o2ad0Zkcu6O=gMYd5un2yks29NY_kI2eweOp2sc[52jk2c.IWmP%{oZ2vTl%%%0erANeWymOInkM2iO23.IYjNMeC0G8SmO5jos%n3Nw6C-Jl2J%IID_bUU2&jjmtJwaylNJWIbsuli3XHdOD2sTN6yoZIz07wr2bC:50odaj.s=i8kBp9jCdks6yk2iMcr5uNpjnWrDa5jJlzcmIzbS2iQzy3%=r%D.=2MMA2Tr5Io6aNseURlRms2w9veOs65GZuies<DeIpOzNNiYrm05ZsmdG22jrj5U2Fttt12orNAUo%Mo02RI2m=tMzorg2WoR2%2gaposhS2ITmnwwfWC_YI5gj6o%oM2RbceFmNNCM5/CU%eTEme32Mt/%sJscyC0Olt.erJNNwV=IS2A0jt0dM/NonTO%l/dcjcOBsDOmC5,FI%k2Ile5yuomuny2e%tzm&j=5j,am2/praMyjJNsoyjI_0xZj{fWNZhssooW5y6fJ%%Ngg,um3nWX,A6iiSUO=jQ/2p,UmMTjl/8WY2pI&%aGeVStbrzIpNmsOYwe%N2bZmn%'
p23
aS'&YwdoD22ouaDey1as373Y,IjIzIzsW1I753%W=[Xo2UNxh2maelswsIUp%C48UIIZ,u3jiZ%FZfO9oD62zwtl5IVN7u]2Y{Chnm2VCZg3NMSIMpe2w=2s7SF2_ewyNNeZ0QYI%cmRmkl2crg3TQ260pYGe=5Up%/Nzz6&RzF:V3wmlJMs0pJReDod,2MYb6ep,m%Cj%nK2yC58+OGM,jhnj2}YYIf.0fQSl12j2r=2in9p2,722c4DjIc/gDJie.O=Wsx5k2rDRryZ5o0iYm&5I3sOaIMy=we[wyj2cT2d2ijQs96loma=%yl_ft/mDeD8wSAIj2iZOsNHnISuTjYjFjI%i18ej%56MD29xYmfCdNeCI39oweO:6259I2elje22n%JkZ0szlOcUoVN=lsE2FVS91I9%oimb2nA/NVm/dsw,j52dt9"=7MDFOBKMfla%n2shEe502Aknz6fOb_j/w=Di03gsV%M?2ImesaI2wamqIsjwm8w5OUIjEefCBse/i2c3cmsoIN26jDnWkCzMu%1%]s&kMZuhQegek{VGynfdiY2eryOj&nwOe2,'
p24
aS"k3[928_,:W=ejTi?M%tSzmkXZ3Ny]5=u=20%MeF9jvm23SEn2rYg1a36Qw=t3,hM%pd%O9XllFNpQeoa8iseo%OjvDm.62Rm3FI158x82pxIrtC2db8osN0worp7M2I2xogElS2fw/9ITFs2XINMj2Un2h2=i_lenx:lxn232NcI/=riOIoSjiM/,bNSxz6U_94NmjkxdmsyWjimaCeDionmW0z229,y228jwZgTWIpDIh6oyJ2lkIms550SeEsDEE25ut2B2s3F60iye8202ij,6wzfw/ZPM22oAyS00W,0s&ywvwrnQN=9Qs=V2MITopdmjaf9%25z2&nY7u=F0%jOo62k3Jw/sdiy2z9DkkwInmr%jjhC:mmeiItj2,i2k6YTjdbjWMWu%u2nOhONOI2g5alIEkjc6jvo2UCU=B/'jss6mn%IDnDa2rb:lZwIHSlUw]BdN%SxIjIlew?3c%Zltg7jZ7g2y.aw2kh:0w&/%]dt.mdC3ZJn[C2d%3D=&n6in,2w/Ftr2eLa3sge2e=226t2yI2wsjICU2%j2W:y_v2HC?gDhrTdm9YMi1"
p25
aS'ZsIQm2xTdcYZIS1np2d,2Fb_jxe%IiammtrCjdMehKe2OaD/dFFn_hooQt/iEJzD2etTE/su32a2m5mpOmgy0/%pkXej-s]teYMbY0%2%0/Dej2xAU%,M2t=C[iJEi62sc{e%wNjree2SND2%PeUn6Vo629rF6Ojj2poCp2k2ti%o2Tl%TI93.Mf/v7B%tJwuor20DG&NlWe03zj_jfoetlkp%6JOAyI6Cz2tFwnemeblNwA,jmYCvlEMBIUXdfy2OpNyCCwnQmIxQ,SlaU2x:jym3m2%eNM2802jOkI2I66D6Jr2UoZCe.%YCmdO/aa7W%oeyzg2%cM.mYjOvmZcAIM3r0UI3fOeQ5x7M,ant7JcFoEeOk2=hi%jxoMjoN=gyY.%N.5p0m9vZMwt2Pew.-se&QIIj5PhhnOT5oyvjm0rYneECsE1N2o3I=xy&h/D,CTeT?t2.Mjwmnw2M6gm3cRt226r5]v?5jNjjDUtgZs%e625z%mX52I/pTWp93mjyIAY26&uCN3?s%,et8TkZwyFu,b33lM.5E0um-6GOgj&:ckmmtYjMdiIoa_52'
p26
aS'j%i2NVM0se5NEGM5IDhsM/CT/=2YVDdu=/fwTBhtyZ_z2:0j2jeYxN_wcZegdS%25ji2n=6N2wy2gZ6UegwCoDt.4&Imnm%%u%ID:SkMkJ1ewQ&5=syIt6jIL%%6:M6nIU6NWowOdaOONFrSZac=2jnjMeJmw,=6pTzeo3%SFip2.Qa2daIN%II3wqJkNey2/D26Qc/z2y2ei]NeB9,G:0o%MNm2FUMCr-%jy6lAMID2fvc0%wnMMSxv22jIgDjwNQQSlh2fjcQyIo1:mislaJZjrNmeUjp3MrbAM:10l1y2mstfCzdCxho9&s%20%2Sj7If6z/yejo2IcROYpAjFYawgiU9w2pYx:cjtwRmWME=orkw=n/:tsm9525gfeo,k2x_5:6j3tFe,%riMW9pgGd&2pj&%CA0p6j%2%2=mTj=.3jcEcmjtl5O4I2ImB2v2jII6e/5%82sfDgj}2b0%5FIuIrjXdijs2w2jt0t10=n21%.safn60o2k2yJnIgNEZmQA%8ms.f121TjfI2Ng2Hys2nt20jMjsgTm%t5YI2U:wIl2c82eZ6,0:Oys%'
p27
aS'2kBdQ%4Z02k/pMr_z},n%wC,IZOYI9Gt2%Sj82yk[att/2%2MetYcaj8n2I_qmjZIEfjUM:zI.Y2Sd:c0TAj3k92u,:I2enY2.dOYN./kh.djjs.233we2Ijr/Gi0eT%eMocI%Rtlo2%=t9jTeiRgImow2%oCrlBoj.geOw9MI2UlijooZFylpo&3MwNswWzkMSx8=jjl32y%kA2iNRmg2jU5mep-2dp=jJ,%MI-N6:0w?sre20oIfM%:NpnCTj2fwwa2t,222ew8Pqi32NRq6jV25IjIx0y=,c{N0pjaRx%29ej4OVeaEUpxk9n&2ygjp/2OzWPwIdve2I0%Aixdet2%rp,mIdf3/2e6n%e,s.deNwe22A.I5=klU2sw0%29u2%kgOeepjzMlQbnO5SC12M-e.0k5Dw%I9O3FjiE2wAMjl%2:iox2c?MnIt/0W9vfmetMTi23xmQne2ra5j3OQWkFsx}uI,hmlWRz6DIwjWit2D05e%ieleU,xFbq3A2pNwf6tI2j2/Jp%eeYZGxcevsfsTugIp6Zw/56D/:2,G0J7QN2al:2jjwokMA2'
p28
aS'vw{aDl=0JDj?Yn%cBMrtKjnDp,EWskrd=00mCr%YrjxM:iz%QIab3hIWYMIDp2ElmoD6N{I5o%26jh?Tw0i62hl2e3QMwt2I:UZ0:.IWn5mTeFwA3hsmsZ%cMzCdl2xMnFD5ad,9oolf325McImSIgsN}97m%3e7Ol26362j4c,5v?2m2lQ/rnOII3mUhNo7gz8mShagpp0Eeu.8OjjwCnZMvtl%=klnpZeefuN2205=Fdt2M_w3zp2M0D4sII2lA:g=Oj%yajN/9IlJ6tYIj2ta2%5%ozy2N20.eCmNRn2Le0me%.g06zDue:Mj6sR=gCXcbNFDe7?D2T2ybISv2Y9SWrMNdu1gNt[Ttpw%mz8IModsw2YMjTepmEr,rw=%l/Txc9z%Ibk2I23o2sj=l6%_se/y5w60z/.eM%:.22d:%a],9Q6Qhhss3Zp/Toeo6Rox?MlU%=M3I1kO[/0Nl9s26us7e2sgw/z2j82,60{g2sm2S22mI2vMCgsiRjI0iecE20eM2kNiihOo23ac%j2CJ2Rv5GIIb,fbuAF:zZkm2%eIife%I220:%e6j%'
p29
aS'ZM2eckaM%0szErN03Jom3f62u%e2wjoNVQuII9%2[i,=E%,G2orowtWjDFMsjop6:ynRpe2fC29A9p02S_Mn3Jw9%2zh7IE3Tdll5ujpi%TMY2zNxsnMw2i.eBw&Imm3kwd=J96SaI62/TkeIYfneN=3hn8/lsSb2%lcaCa9IdIC0jsJM2j22zb6Bx3xm2wsM0dM2Wpx%U2ZZ=iDcNliokka2RIjJ,aT%{FoU.FeoUxak/j%fR=_pc2Dmd,4m.y%wSsyy6h3rcoS%Iz2gjgg5p2mMdOadpLj90eMC5d56jk%rIvS97n2.lIfoa82lWiojzpAoIswck2eHNo5wJk4-Y2O2x_foXef6O/sBJo2xBtMWC4d/P03Ixsj7Woy02_Y9nkvawoMejA_QBY:5F3Ew/=?YNQnU,01pdEie2.w-oY5%pyRf5Yw4pwcejFefmmw2taAUja9Ufn&jmotsM29-2szT2%n2oF5Iay52QyN9Fnsb%Owxp:YI3M3W%%tfMbut%2b6fSwZ=_%,2AfU3ZjK%I3b9{zej3jtk_dQOcIjFrffXt,2ONdUjY85l8/a%'
p30
aS'IboImel00%3MN.6oE6I8TtidIgutu%?UI3ITCjmDe0e%3e0dRvcueZ:mmLwTR3Ml,xu3Yfw1%f75WcU60m20ZeDYwd]0RP%Vpk:iW.a[tZje2O5IWOj2c=.V4Dw2An{=rdrcsmykuk,A2l&lvXN0t2x05I0fn2n9nu:wAnS99K,0smQs7jNdlcDIhO&6Il=6[r22dO3HRCDwCD0oe3,YI-xuoW9wA9j5IOncv%.Mo,Yo%oOmMjO0NU56dNalDl2eIM:2z1UMj2pIzxsJds9:gw2D.wjEoIt2MZx60w623jJI9b5QUmpAnmTc0m%%TlwPO96eOwMyomCs2I%8j7HaY%N3%jIaoadO/CdD7:TjmOZUVEmz9wkFg0eOvxMI0gOFFF6iYFvJ622yx5wEe2T5:3SH%.222em2/dJNCwcrQmrIMYZsIYjd%25%%Zg5=yI61j,rwOJ&ewNtjeh0NMmlopYyeNwzavc2=2jfmAA2OsWoi/%pmy%a0kF2O5524&ej2oe%J5:yweYd%an.p8fa9,ryeI%,%VAYMYl06Zfjx9r{AdwApdY9pMjImexXR%'
p31
aS'YFJMOwIjFEQWIYhoITYDem2ol&asjMYo6%x:oD8IO2ha&tyye+J2rIjlEFo=lpatWC6,cN8I4wRTO8s2ciY2S2Nwz2Zni?bpc52ViMuN9Q]gYjokG,fIU5yrj%.390si2w2tI6svF2M%6rwu8xI6n2suIj0DY&s6E:rQhW%d2YD2wCFsr&kAt%5fs63QV55dw30wf22a%T%i2C%j_ijIOIOgIy%a0MSF1-g26Q2ZFl9%ImlM9Oo0:etep02}2t=njfu/Y2jEY263&Tmg2zNIy1EFN=i%f22mu32be.wa9T5Obo:ioaJwf=NrI0xxWmZ2oib%am6e2myeDMyAcr&h/-3um5w3r2yewZpnRy{5eriOzjndCIjsAaui0r92whOsF.Snlfej290mIC%woo.ZkcTb621OmWa&m02dRwIjk2%0alw&2JI:32stdNo92c3gMw%3Cln%2j0xr{%5j42/Epjs2TAAo,m2Jz/hSs8B2wS=2V2/eDaNp?TumY:NNfjNm]je2fj[XhvaDcl5u%Y0i?mIh0j2ZRn_k0%s96ng2cSO_2_=2ve{0svoonIwQ.'
p32
aS'me2jQ=q-eZ5jOp/qwsl{cZ20rmOjmxaf00yRjJI2tnSeMac_Op3AI6Y2myr2Ibeb5/3%2p0bG]j0f2mlug62aIc%ejw2=txketrUr5ZLtI6le%m70QYu2pj92uteMp8nJjZ_zI0Q3z2jA2twM5eoYEe%2koyxrY2M02WtJ[TYMF2JbDbl0oNogbAzIyGPD2j5JdO2%I2Md3w2R2xodooIJw2/DE0jxj2t6aT836w%a1%0D9we0aem%-&LjrndY01DRap6j2efrog/Yn_DyO6lW254-tJzp3=w82=oZ.o&IaUOSj%f2hOs%%pu2Yw00=eSII23tx9p2s%-zfF22/?2Mm?=ok%xt.w.0Z6HrN22Jy1j2AHewm3?jmm2usu%uv3Cj:jhV%sZjO.F53Domg_2lijnkOtNYTLoWZpuec2hMtIQ2ifdCDcSEa2=uO%3otl5r.5b%F,YrmwlwG2/3e2g7a2ue2iMJ2Cz,6FxRtaMn2D/noNMDm22CiSQBr%OwpZ//8oY,t80Z:Or%oeIkazIF=mok2Ons025K9MMDo2i2O-aliV0dmjl0jNIs_2=2'
p33
aS'Osm%=6eae=8uM6%Vlmipe2ruce26%22ixCawOY1nZ66oi92Tjnsi52,clmWve2ZiAm[seMN,%OTj,0jUMNGlQimM:Djr3DrsTYjDZipcDWtapww=Mm2k1UQMyI2I8hlFZrryoAjARTfw/EmQNR{MhptRo0enJ0M7d7o%6M035C6I2VtOm232g&IVOIkSE%/l-00Rja6rQ2l%C%/m5IlOI1%jinI279w5M69v=42:skw2G20ls%2EgRn2zo33%jj2M_J:,V9eLOO2UnrINEeNa=itnvJ,%.aRiw%yt23t1+%fYj:?2aa=N=?Mi2CjUdwjxMrZO2bwoM%as2yeD51o3%LAWjoy2TZN2nmmR}aFwk0DoCeub2I%wo0eU2ijoyM5d?dIDjMqbjokesJINIw/CuZI&-CAYu=sj/8O5?I8w//Zzj%2Mhsnj22rk2eeZRaY522Deeo%r.A%Vlm%%a0MauM2l3AYJLNIbp]OFhejt9nmIf8d2kiM=ml2TS_M222%mjktwOkm6m9n-eJODUb2m2BwyTcuwaWjmjI2zUos0tYJhOww22nGQQ172JC2D%'
p34
aS'olpX}I%j%M2h3A2wt0_T-la%zdnrLp5Jrm2psj6EfrnU/%Mo2eNC2Yjg%d[nTb2ZC&y/axI%o0n%FvmwInjmpIbj8rt2705EjDea2sNoDunecf%NIx/Unj2a0I%M930o0k:JItjH=,fjjmF2_j0ej1rjm5l=W65aOMrYCjwvUQo-iA,n&jIEa2mowDWhT62vy2yXIb2neN%jDQIsDJIYYt&i2j?og:CsjOEny934dl2mLpBemQJtn2Isrj2nCIQ12o22ujhrj%l0o%p,a]J8Ijg22Zbgp%:8lC35hr/rwjI6msrEYM%jMmt=nejtDsNwT6Qeuc6x/A2-GjuisgiSAN22yIjiOIOLYktwefW=eo?2ew2jikwZFltte6-?taI2I%j0m%8wj2GcYyT2TMeIrw62m07wQawlstJxm3d:Yjnt/%NSImloI2s8%UfsvNlCinwA2mIGQH6rU76pZI22cwDI0jxv2M92nMwm3rDamCjojZ9MjG2tU.RQef2IA7Ba88:zIoG2{%mmeOjZr.D-CwD/oOe3srpcRYnI9e%1JIYfnszncijRM30h6&2oL0'
p35
aS'ssdj9kL3.3km7I.GNFszb-UpQ2bF7DjjO4kheD/D&Cjf%jegr&/.2o29Iw5{Y6z2nQ0s2II2ZT[cGgNejnmjo_2o%yF%/N.Ck01Ia92psa2d-mnwzc%J2006jlozNohhs//2knQamAj%nj%toHf/FeIoWjoYnmy0Tci6yMkN_%IfCjrEYwJIaiPm02O%Md=w=2rA62ilr,j2A9rs2vEIae0T9JN22iOoIwI0e&tveFAZ3Z0nz0=XmeMdwNMcymwJzzIQrdmv,YR2mzfcjwMy2%z-/mz2kY2/I,Cyusj8MwNs5M6ia].3MewLjfl2I6jf=pcwS%Jhc0%0vq,s%0:jeW.O2wUnIhsk{n3sej0uenTI0zCCW%1y=MNGek/1zMFk%%8IYtu6pIDdItsQoCw3t%%Omsmp3%AX.%e%22%rn22xG,hC%miNOyf%Ermk.=aU662&pwSjs2s0NnxhIr9ea%j,s%MZejaeM%d2/7SOI2Wl7e2Z2tUwom5RYxjWfmExC=WIsrcjIt%w2lwEU33a7Alom}bsrm0e2j2g2l2aMR%m2skj%Gnj0jM6sitIz%'
p36
aS'zKijwOrNg/wIwt2a9SQ5222aj09Yo%1t2Zm0OnkIswNdmMYvMaQ2%zcrQw2veu_k9djazj2e2n9Ij0jno_tAdx2%:jwIprl2czjl6eeN0ac:kdjR07aweuvNU7y2IsD=t%5=Dm:ew3&wit3O&/GjNN%8mNo:gw2?2oIm-%CIM/8.o&/%0Z08_eja%mjsQee%v9jIAmc:AQm.x:sU,I0wyF%i0%wsSAls.5ooe%jAa22jR2Mv_cDEj%j2re:3EIN2:I0YI6g%ocOAJ22OcFluNu%Ofw6AA0DmOMTgU2%NviYmv2ll2i67VV2{6DFjMRp1nsOd%sm22c2m2zAAnj0%owV2NAIOm5nA%GmGRewemDbsNIJ9%yCd2,/h3YnjeWk6oOtyk2cfj2r2ns6liieZ:Z%,nI:QIM/fN2wzyjrMS3MmbD93._2DgiTlWwdy8Ej9gwIu=T6y63yu6Mthdos0w0N5SNlDf=rZ43j%eU5.nM2owOmiE3jIGjMfa8g55I/Ne2l9ZUjojMwj&z)6FjA%Gx%pm%2nI/KnnQjsysON%N,%sjaeljeIgOS2Zr2of,'
p37
aS'Q22pgD&ZIm.aDQd205sU3rwI29m_jaOdOtz,,EKhv.YAa:js%ava9RKm,t_dfenYw.r_-0y/Q25ph2geI2jUl5fXtOe22Ez2ejICpotHDjdUt=nsEfD,.M2zM%2=I,%.sjxmOe2dII,_OZ-Exa0N2jjljk2esF09%LoS6ueYQQu6Ios8Jac2jusilDk::Ixbi,21pW_yl18Z26%ea0zDZorIU:ie%%5d=wy2YIunM&efeM,yi2rosn2t:%-MBuIjYoAmmx3{34,1o5cRCV{vhA3gWCPIrsDpn=2U8jW2H2oMsGyvw0.y32MBId6ez=26fDm%gD%5sdd=Vxy72zZZdY,Un2swDiHNeerzsem?mj2sZ0zZ,S%r_w7ibcw:JmjRwu:Za5UsxqNgN%jIl&Ajk0xxx%2,o_pj8deR_0M5p2meCoi66vR&sa%zwjw/0HOYmI3t93r.22Z2IQMv0r1cU2mrh3sjIwmre3Y2Fy2ZrMjj2mBfiji5t6.:eI2%jIjs6tyT,oSVm2Y5dxsMzm.ueoM58nQ9iyxo2,[2W2tlFB,2eQv/w2x6C3e=2eoz52'
p38
aS'j5A62TIiOl&o%eODDGdfoLPsdj2IYQp3yI5,2Xr2ITx228f-nrk2s0J223_jIWmdteFMEl2jC0%jn2dUv:nNIkmT9Rwe3zi&D.INt%ViC3VnmxjrIzkrJOss:piCDcef=2me/FRSjM:DIniyMla26a26M.EOgMw2GVmFjred2w:m6WMMz9kr2ehLIjTD2=b2_aee2A%iMRj6i%d2j123w2_.l49Q2YNhr,N%ufIWRd05=.K/6sD0r%d7W&%5nc07}mI2-w=znfENitI3pWdgW4VbfMhk8:I.gM2emBeQVIra2H{h0Asld6IhPs2vl2Y,3nOjOIl225uIj2jzhtDIniDx,2rC3%a3I2jI9jyTi5Y%jOyQlQol6t3OCowf9jf2%NskAEea52iwj}No%{pUjEAVoBD,MWNv4w90f,2t%8,M,,2o69:M38yC=weoM_p3IhM2vjrcJ%M88stY8407wmxweMuxvdF{rm&3csQ2RCZjS2%ye3o2R=2{psIQnhnvQoj%MW6:QzJQer9j/3jew0fTusjQOxpwb0%2d=Mo2Uoimw0zw&bD%m{ikniN:%'
p39
aS'Jn2d6tr6Ye%sOIhsWE=hInTMomZ=xsmtfmICClC2ZwdAZjMFZMM5zm%eoloTdnlifehmcuVjxeN=QyeOrvyIVZ5tdj3jSYO=]cJ6E=I2U_5uo-TIcsj/j2l246na=Dv2jeMiapRZ=YxZb%oIW2%n}IrDwcYtkx6xC2wZ]E9YyM0sIs6i-h2=s/en:9uYc%m9%%{2rdjWZMjx/h5Itk2%OIJ6Y-mn1wRgEeJ%W%6ErJDn:Ofds2wymDJg9w2oDd_ma0s2aJIb.soI:wI92mnoyuwg0x0oaY5ebIyJ5hIaIpYIIeJ%SMNYh%2InI6jSl,62Id5ORG.IejOeaob2%pFdjfUl0mr2TjrjImmdeZ324eFcimOT.y1bD?E:plb=OiAYfqOICNKUI9px_655m20:C2o9=mIcv7-0w2I2Sy%2ty/2tVIDy/e=s2Zf2M=meI_a2l{s5x[,M%&j9Z=F/e7M:YajynNMWVSU20M}NtIusonO%sj4n0e2TI3{eZhlJn,dwnVibee2wMwoyyCx6Cerm6MjyMbA0&ZMBeFH2Rjy4.wMda2xMDfII0Yq6Ss:&'
p40
aS'ZM%6BOpyMm%,TJk?/i2A72HdEk2p{82bZmuwVYryoYjryj2E3CaD.CNmD%TejbhozjdkR%Id}3t=o68TMfnRG6zk2=t2tcM3Nev[2Iwocw2O22aIjhoxw0jpxr%&nmub2%txUJr1eO292sTb2.h222jh2M8I10070cmyg6[C2wZss2n6%6d5MPt=8:N2epjZan:C6O:sas?eNmT:mTn%f_tImga8el5YtlIWF3b2w8fj=ws2IWc8pEsb]8cmF%A2=60}C2922syI%lhZhs2ysy8IfegyYIr2=%&2sZo5o206at.3h3dMf:rBjZ7FFg6Urd2/jjZjm:ilm2WIC%a2aipnIEO/y6[&.fy22jy_YI0YcirNr5%jT{fjYkarwuy?Wi02m}lOseto0u0sh/0IfJo4]d3.zoen0wMVw:Iojl9S5lIA62%2kzu2%%yw29cI?skI%w2?726L02ntejWMi2ZQr2AjaJ5DE2oer251OeoymeYlI2Gee30s2ZmwsQu%I_xmns3usp=kZe3y5iLdf,9YCW%yet:kfs_2tZh5Is2M%jyZoafjkR0MQp%u22'
p41
aS'T2W6nl2c%Ub1NoO%ea3dyMw2:=A%jnYyPacc-:K%e8u3oWilhj&vMlwYo2xLsDMh%DtRd92Cjy&22:2%[oE0rj=w4Oxt5eb/soUTm55Mjr2jAemOIW%eOy5IknQoseft2w/en9kN[y31Q5I2bY2he3Seh2r3zS9oM22MUmSarsaQ2.%TMWNwD2se%pzrA6rmjwjfTftDWCMNItYu=lRR2d39,m%o5?eoa5wIIrT2DZMjNWoNAjAooCgI2oe2Rxannn2[ktWS3i5ymm2rvorsYm/1IE6eDXjD9Iy2tI1CIiRejyj9wIj4FQf5ou30nnn2IM%iwMkpgI%IgMOjjI2f6gSQtEeAWu:eee_E%=%MTuIaWjIrtoDq?UdMo=Ue9RvR7o02Z2oa1r9JfxoA4MpE2d5zmyyY0%Iem5i9inyoun3%5-}&0JiOjmaDD%yOO/wZp/xfeC%wpdQViGMaw%Aho%.PsIi/eZhaMM1jc:mcruonSE&S2kY/xun2y2jtec5CdIexOovo.o2G2MjQjw%2TH%I0JeNHiwpfe-DInmel0n0YIe=Cs:Mu&2D22jNI,'
p42
aS'qtj2iIbiI9Pi2j6tgAOZ%yMrlpBe:sN2RNZ0wN.IICM2gws2F7ilxjuIy=IO&a-lWt3du%EQt6j2ur2oY/Drgiv8OpgIMfai2wPsm:DHd0eiEll2]%6666bII2%2InlZ2OmwnC3rQpvc%jr1,YjA_Qwa%Etst6w2hR4w2lYM9%%5kj4MrMDEJ%CPQgglDso&jRjpSedJsNtekGrWjE-oYJId22eC5JZMlym25r%Sau22Io3k%5AJ3BZ62oJi6FGtI}I6n=emia0Jby_c?19o:2Cz=r4DsDtO:oE.rTM,MRFb_&s?%Zvm,iIasjIlIY:yJ2Odw9jK%.T8svsDIc13Zrn2ng,MWOF%TkW02UOI%Iy_E9ta0:MVOj6cmiwjCwzgs%IRMry:2ofhdYOgRlROiw-a%xoNwjzlDBC8%&Cmg/ao2pe2Mmk60jHaM26pj2mf9oxwgvI02o/sM}2%i2gCm5kFEdJl:2zZg9QYb%ojYiw[l29IQU22yZwlU7veDfJw?5jmFeGEJ2ejD%2Mmmj%U8Ijcm,Ie19e.jm6:ae5gm0mkEjD23Js2BoFcb%MU0'
p43
aS'fk9na=O2mDzre2M2ia7AyOMca95aeeR.cjdNaidxe5eU{,lmYmUD:Q=MwAsNRt%OwiCDyyM_DZjUw%TO&MrnIym/RjRQ0J%10M2zeVer5t%IM,a9S/R6asq:ZOl62m9n,Sst3RN[3el9s/e42SVmQls:iQ/tItc%oyso%sQUI2JpedZ]_jak1iM%9UgeA_%DJOIag3%IaI6q=wPW2M2%.3s,pf:ecOeenO2EW:314.9QmO7YCgISN5N8dD5t5f2tAepjNQsn0OgnA43Nw2%x9oi0fs-SahZ2he2f1UI%oaj2xUsdM2uO00P2Sy2FIszRkcDIjomj3fJT72s9252labtc5JNAm6%8a9rloOmycOyywejhR3uDul3j6jJ:bpIIojOETajI%OOu2mmx0O62vcs2wnNRjI6%2k3xUjgn92O7h2psgeOOAc0.2Wnq8gjTzildMONneebmIa,sl/]2csedj0j6c2sI2wn2_stI/A2m2ISNQjeF62n%aWwI8Y3%0j%jseIz2,6ajI0%/i2jnZSdMNdsQI=2o6e23=ZSCZItQ2Nbyb2Yw:MOmOUe-2'
p44
aS'Ymwu%c6ee22M%eY%2kRa%tT6=jf0ew3v3bJzc3e2AscM5pe2%olNj2dGM%M2o-%2%9iMOc6n/,0ZpWrDSpjp.r2mjOU%cjmNfr2tYlBwrwIneMZQuk5MwGsQ.eDro{,PB%/OaQ2mUy[%lg3t29Nz522m4.JAR/m6Q}/FMek%jiO2O2Z52gNsFiWMml]F]n/W32p5%YJ2f2azSdm{%MTOIIN22vjDw%mn99e5O862z_cODr2Jg5hiMukZI%EOu3wdYroIIhJQ62js2s22KOw?kM9sZ8yd0jUMmJ?2a4u%=Dz&69lAaedYgg8CDpN1S?IkQsMowA2Ys2qyI%dm0qdoTr2HQ%Eir%se&aZ02.byYSQUa/Aj=eGlNcrIQdejde3OjoM&BmVIIb_d3N&ymjo5%%MI2nAZIjRJhgCuSteWN07jD2mb3l}n1M2eey2wO10a0%5U:sD2EuTNcYjn%cjM2029l6sdnDo%00e6k0RAeOTxnNEtODzn1aeIRi2ia92[k%merDn]9n8:IfMO6M%Yw3W%5/l8:gJ6zDjrI9coYdeO,=r6[n_372eIdp.08%'
p45
aS'SM22aIY6E&IZwup-i%0w2I&2mib2}AzrII}D3.%3h2ksS2nouUx=s,2a5lYpwWYMCnUIYvomeAfx=Z0teaefibAFdnAZI}Os1%hMtRjAfWm0r.enfd2xo/jqxgS,uWd0dOn/2t=8NJvcxC:JjbsMN%2VpJgPiCp2AowdeosnsY,a22Dd--jO=?lE/T9&Dwb2NNmCoiT.Mse//ZUs6j6IoMe2Yx422pdI_M%nyOs%2nk,3fNCww0dOcmM%I,iatg7sz2HdI2vje2esFIdj2,w0QnlntyN2IIQ%hus,mG2a5%O0INYOO%:yC7n&RS2mma=W&,,90%Nj%efwFIgrgJ:FleMgxEaQhTcZbCl2htuwMeINI6SRlelmlYdoyxCZx:tE_e2Meoon2Ko:IIEUTIAZmaaeN&2xo0dI9%=m//M_mlhCogbeD%C/Sile0jj0r2cJNeYJ%6Da9p2s2.2Nfamww2I5YrI[PI9Ocahj0xhNMWND&taj%M2NjaFvawnmjV%=28.dAO2?Nn%3isIsi3mu5a5lnyIk%C5=2mN%e6oYn5,O8wsc2tjC%M2DoNa%1'
p46
aS'gg72YnU&TgIkMSIgUhwHM3feYCnrClEnJ2{sZx=C%6hZ&%A-I2DO,Ye,22G_1:7lGN2%COgTIy02l,NCiO7%g0txjw%kjVj}UxMiWyZ8dIjd2aVJD6jw/,zwlaul_N9-}e,Mwsn0dir22Ao2eh2unR5k20QjYa23e0w&TIoh5fw8eeT2lM9sS.pwGOMC2b2cR3lmR3lf=dkMd%:Efo2vJG5ojbUwI2o2uHka50eooCi=5&Mm3numqjj6.6ljOt=Iy9O2/jC0j3EhY0NtnaZtfmzDeoad2%Ie6wnI=j6Dp%6?Q2%mmGTd6tr2IWMrdt2fNf0MIYwj2Oek09y320+8CWe:rW.tn9D9206MhIG.6im%IJ8D5i2Nj]Ap2,2e68wC56FOyeZmsm/,.cc1xNljvm}xmNTelIG/kIiY_6vM,ye5o=8kN2=reZ2ajM5DNNO=5Wjoy3mCJae5Z2JbaEtS:YYjnjNHO2Mo_j0raiuc2t:rjtWd%kOHgsa6=h5:tgUQ%s-jRr2Q%x%c2wjFu/I0eD6vy5_mEce2fwIdIdAM2b2fhmlTyjeajsjnmCmCD4'
p47
aS'RjieJkx%ENUI=ech29id5Nl%DN5w/MyAT=vNGwTtLex-]nT6fmsHebEj0R6gojTMoOyr&6Id/2=mhg2i6o22D[Z?ItIm2h3Y0n:/atC5fu04C2NdeY9V0tDdmC2PQg8%Oetf_DF}sdMwJ5t3em2TFI_6plktfn2dqZeIRhB2mNWD3nMDhtSIf95%l5s2Ms2v2jwn:3QJ-eFt:3m=NniIxdjM2m5N05m2=sy2C32Tr37ao&Imje,FIBi2MS1swUku?n-9hlet6j0JyV1nw.lZi6M9in6d6rKOO%yf[eF?NV22buU9ZMgwIeme,_d2W2I5H5.Yx8%l0Ea6u4sHmiehmYdy2D0d,%S:ej%62l2qe:n2UiMe22RsE,%flj7eMp-xjl5IkpjcOQaegWDZfejc3e20t2cnwE4_f3j2xaTYsc7k{5eu}bp0y2@:=jYfNIjDw2upsR2Zmkki,is2nc%jnwW/32C3%%R2WUimUheITMC%p=QYwlX3Jtj5szkaaNAneT1N_3J-aCfZAM2jPV2YmwI/E2?viFqS%2YF:idN53mXM2VeCA3Q1lN3D%j.I2'
p48
aS'5OT.5s2NmVGh=2,6esNb[EySw2DwrZ80,08_%j2y0k2og6OJ%vIotc%6j6%2jIZjw:NrIh25rDlo2ggUIeuTsja_jzdDn0i2igZndYU/32bgI28UiVs]bt5ju.mI91A3ilwjN%gs,bgba5WZ.g09ijjO2tMenrw8D%g{IaIiw5wz%jjrpojOay:Yl&seeD2MRow[M2%eeRjNQ,W2jxj2ek}EsFa2FlzZwgi/x?cOMzKt27=p2JjjO2gNgnYejWuI6Tv%c5ey:oDyYO2Scaa&ex3lrzydANpVS0j%YOaNz2jN0yxMR8_MweY-ammI3GIw3oeEJdJufMOzeOwcje=2_0jFW23Xa,dTd2wOu6Oc6Xow2ohOgYM26KAArai&NI3CR2DM_T2I2I2K2M1mUJoIcrganojMTMT52Cm8R.jpO%F/Q9bmet=s2}I0ll8245Me2N2te%%%otOy2o/U%kOTrt%xkoJrONnPtQJCO3wjIitow26,zoji2M%NMj_Th:VDfRhETe2Fh:CV5n0:5si3Odkfald3zI4ws,J5nWewciCj3mOC2M=Oeo2FII6on%'
p49
aS'2nDjsRj:%Ni9S6O-Gy%iZl8k3&%itDsfDsoG%g9/oyIeR8%h%TleO2jCOksomim5IU0Qele?ot6b,c%2j1xMs2y%b2o%h7dOllciIveI62bSAi2jtinbEswlp%NaMlQ:2=8_kt5I252%2lnMIOoZYk}Dr2Z2AutbN6mjwDZ%OwbZyAYttoawHiNN2TQOISQUel?oMwg_6%Q2RaNhmkIZ2nnejO1Sjf2x2]0b/%rpaHowI32Gf5?RQS2orRwC2YrW20N=Cloi0oItwzdsOZ7y.5MhO2dI%k2of32moeeJ.3weyktMUtU.asb/UIGEmsiofDZIcj%PopINrv0cmk2oA_iYcjkdUCseNy3enpHO1N4NxBI2M.%E/U2j2IEz4kh%%EtdjoguwMCoAoN55m%v2.wo2q_=hpn2bOZ=wme261lZ2nDINmwm5AEZy1n5.ldMn6OlCe5s5rlm0%s02hM6%2OwcW3sI_S2Fuf:/gtEA6w52k2j]esCkdjI=m%bza2w0INeDnY:2ImsfUyd{Duk:mNkoC%o5D2rjpdIclU2R32j2t8=2lpsypswP,lDG3'
p50
aS'%Gje_G3N6s2:ts6oCNzaZOzY3woHgEr2oZ1&tf0lpY/2NIaQmiDS3ha51OIuItotz&2Na-yIAIWJ$js60K2%0QoiloQM0%fw2nYbauZ6e&IM.kfxeIko&xHIS/pRw2hofC2Yd3D=SCWwnczEOU026%jjmF/sksmv6JIo%da2pkiNkYlpboyiCe2%ea6ZMjCGNMjZwkc2uuZ5WDJ]2i9b:I%?o[2UOwBg%Nnbseilx%kMjZ2iRt3I2uJQWx3IMI69bn08Ofoose2%%eio2/Ns3JnJToIj-r.Ifco0MTif:yI8o2u2TMrg2dszjcZ2mjfkawjX1n:Zt2oNOiXc%bEthm22yN3Ir%26mm,n2kuYSjb3iEYto2.Eo/YwfO3FbMINwej02japA3jZyIMjjueE_y/jnn0mJIm8We32eZsaXn2%2jD9OEY3d233Tsrj2Gt2j2Inleye%cdlSx,oM0mID:msk,2dcjbhK21x4fxbm3M5BwbM&tzktjNwDjz=8k8Z,I%Q0ejkI5M.fB}?jgI%=235Yhn35VAje3tc%U0ZgcJQBh&Z%t:2OIjmgwAr22'
p51
aS'ZXhTdj7MaJiA%3Maoim%Zw9%CuO%a32j&kqmW:2e.IDw6Jnm6b22Z:MOlPee22iYAf,T08/O6jf%re2kitnMo7eUnjegjgN3ONC{Y:toAd3rTa2j7f%1e6rOufi_a0jooop%Tj4%=m_nZcMEmnS=,%=CCIzRZptj2HDl,msdwkTi]ke/fiIM2/y6lfZo2ovFy5p202o-jd+en{IeIaFlwINVMl29tO4gYY%]2YrN2sju2%9o2{w62sdjtxI3%j=oE%Y82d2E2e1nT.RE%D03sUI2yJn/IrvnM3dn2Nyjs/WI=r2jd2zr2wmMd/=%M9lMIfM=o%mvlIaUaZzhnjr%vs22cn0jIJxxDJcixoY,h2/No20wl2kjI0eZNnrjXAI=hu{2t5mTf2RMz2ado226Ginz,o2gg62rI2]0t63CmtY?n3&dW5z=2r%XTZ26doY2s6IIvOj&OIn2NDB2kX%NmYF2w0]m2km/:aZlnjUoe_e3r6WJmzEwNYo5N2tT%tpGjM2:jI5sTApwa%vCCN=io%j/M/aM%0Z2k6vIj73a%Z0{e2C2xNDN27S%ISAk%2'
p52
aS'QtApM@{u227rQ2eoMyj%CWot5gInjCMO5jj5b.%byM2k.UeD5IrYntCqDQz8gnaj7D0SpPlcwI5woOZTdhjMwjpcl%2o20hCTOJO2IlO6Tr6TmziTmi2u%0IC2wi0aFMKzsowRt%,P3espjn0zYC8Fvo5/aJmNMnRcj27r92Z7ce3AD2iaPk20gOIKaj%j%MoZlU=3TUj%oTZ25jS.2dp&jIu5/f6S22IE9ygatza.9i:D3:q2ejl%%Un/iNNzaDZltsvvpa0k:bQ.66acDOj22v3nTet9Ne2ahrD/%YrxFIcggNkH&eOmCo2J2Q%929XsVbiN2V50=kaWsN,22gyj2I/jfFdj.es4fc3IFMufn%nEw:8r&Mmn5Z6AYITkmlnjlrp0O6nejWbIi5N%%rIacTp6w?nSkO52DAoODpNDTdaG}:2mzAO2fo:fSaIs,OZ1wYY57od}Oa5yjRIIE%%aI2Mee:Qs8rjawI2270y8tjnpcTm26oe6O4z50E2MUS[%iDjfkjC.229lDF2r&+yNlFeM%cstNjjsFA7zsnjvs7O/Ie%MMy:2=CMTI6A2'
p53
aS'mQJ3AyjTf9M&fx4%kCi&{fp_ItseQ6=cagooatl.a2yY5e[j6w:%=WlFm0i}yMfv2=m]NMijuI5282ovehtjwzj0Clgt602wYo?sek2HjIWd225mzsw/3CV0N336eNL%71do/jnp2oOeSIYOjm%s&,55I3U3ISr9%jwrZb2xiZijO0V2B2WrMfr7jkwswOuTa5T0r5,M/V66akp/r2e%fy%Dd2O%Oeuu&dI=N5tM:R0=/Fjn/DZiCmoN6%kjsc2oA%tjXgeDtDk2SIioFAAse=Dy%H6hv%ooI%sI5z/mCWxmHNiOj23I1bBIhdyaY.MghMee2dI2225nm?O1,f02Amwo2Zy:M}M{jICJNyaksMwyjlvmwt%usri&Ni%aye3ee8nj_2:edbFefm9muZehZgWf6%5a9IoeYJ:e%Nunm2Isoi_CO=Ylwjwm.Nmrts82jowY_8rP2I/SOx8jOWwnj6],SQslss2FaR6m2%22M2oI%EnrsjyIsCE8yWrla2uIE%6N9Ok0IdtOI:rTN%2uGfjeQzYuzj1I02nQ5d50Fov&jfT.vm2Y.KnAM:DNw%'
p54
aS'zA29n7TFz,Tewcwtz21Oxc3W.TSUC=Wm2jhM.:jji%a2M5YJ=7gZtCed2A%&e32n=M2o2lJu02jb2sye2:27w2v7,bc6j%%aJ2Mh%Mj2aSNIe,p,/j03Fr2eN2F%Ms82jY26oG}2sr}5unNswma]iRnr0_IY3I2NJ%I9qb&1fwJfjZSISaYA222A,nxnr[Mo2WjeN0so0%cI2S%SrZefc0/uoF0I2LC5bnE0,IeI&c25jg5FD%0Ves?MNDIxcaI5OwITFIjn2MGo?9a]9NjNaeDNy&z=cFaQYnc3lmc[mWrx5/2Mk/iW2Q6m7kM.ze0mnSzY226f3IC0v2C2oEkMl5oN5N2%?OijTxngoaNrhd2jsdR6N0s,%2y8Ij2OCgf:nZ2JTY%FnIjjefz2NDLr9=52ZTgJO0HCndn60a%5d6jmSM/RYJ2dNuIjN6O%a3%Dlzj:czJwjujljoeN-eE/due22ahgIm6sF2cNRIUt%2r&-fa6A0Ox0klezAMjNIvNo22n/%%NyMVAo2-RUsj56tiditNjm%j?b66e/I=cMmjyMIXSdb%0mLsPC=jZe0'
p55
aS'jA05IGZsNN5,wonoIss,nXD2cdwnGUY2fOm6s%,e.2h/9J5m2e2%kscN:ie0UJPdZUdl2eRwMcm20FmIADusjgFyG_3trc2s=R,g2W8Oo77I0[2/ehzkM2d2Xjo2jm9ms9.5j3RRp6Ioedjb2Tr25d=mjoS226%tIwmuN&fmjck_bj0w2jSlsHieDIxCp%JpKCc2DyjwgImnf/yFSVyh2jsRwVc3sz7%%WunIjoI5ewOpx{:e5mf3DsgQIB%m[2QwOZQbOIi:aw2%02tIiGe6=nZ2%IwI/Cr.DOw=nZRAO%%m5YTjNEzXt2mklZr2mwtaISb222jaMNaBjZ&rI5b6pB?5cTMrpIM4I,jb%=b%qJro,cWAjSest3somYhrgdCQyEjnlmIE25MSsOR6wIpwrJt9uI?2e_M2o/mj:rSr2Ywmijtmk%2eMgk52C2me.maeako6yw39ufdjembEg0rI5o6RChzYtNt?2IekiKmu%NIo5gF=%=5jg8tYngfs:wp=w2l=wOw0{&hMOWIJ3c0ludjr/e:rPsP2DjOdOdBYc2DfNOYwNoaxyRg_6e70'
p56
aS',iw6e3,%u0MumeTWjAeIghk:Zl/u2D6mo2I0I18WJBc0z2%=U.2wsN22OC2j2ztZ,2fFXZ.pvdIyesY%:,hJIE06tm6Cfd6Qsm2aIi2sXJpaSdmNC929%6j,:2wjle0frhOcw/orY2x9I%Teo62MO6/7b69rf&M%m3i1Z5ewe2oineaw6rJ2wDPfNIke2j_io20%MZpC%IdsSyTTlsdbVehYnnl8nE[IaTYyst022nNtaNTkM2=583nlUW%MgT5PTU/w2b22Yxe2m9fIIHDYmRkQPMN%=lgn2A2r6vji67aJkb7ji2tv,2CvT2jjxOy2?c1iTFXliH0DzSbd9sMQiZ2nS5nm8Ane9%oI5An252Z3jyi9QPimVte},pMaj2jMjM%Ia6j7Ja2:3oz%WnnwRdu6I2zSd_a2lCW%rJfy2IT&NdklCl22s25roJeMn9jgmwDfCt5OTYF20,djjZ%Is9W0DUVdAU:%2Yw242tc:s6gaSl%j+ToZeRt2WT{SO&GlmeI,6j%uUj2&3-DsO5M32hakIx0=Z63M27Nt/0/3S2,k2oj0tbaRm05Iyw2N%'
p57
aS'2IR4i52=mG09Y&6221knEd6rpejAeYMkpIi2Jm&jI/Z%ecV2tEMLO{l[yousgN2DY%nYVoe?_yy:=gyMMziga9oiI6LgC%N??I3n.5l5Nll0i.8kMS=M=d5cI52AzmAe0ckmImI2aWdhx%speeetWI%4ZwlpcI{28fQsoa5eIbjajwyer5fkg:1O2hfIfmyeB9e5OI2iua2EJ5I6lVZrer%Zd3,YCmjk2QJi69GtTGTkDyYb2_o=kWpl&s}eENwF3dRwmIyyUmsfyuinx3IJSh[2Ibd8suo2ptYrs{gejYl2i%A38plI=..QO23k%[22mdbuGjhjYBq-2=MMrIrOwS&flevn]jnE9m3/Dl09MIww2V2Y8Q%2jOrmt2H2&%[3Mh:7CI,kY3MZ%ZZE5Yww=3IT3z0yo22ngDK&hMiFjtN0,.OHt,pejoO2I3T/Nmzfml:t2bQ%%30l9wwa7j2c.EMZfCf&SF,b2Omtji225?NNIMoe}%s8Tn2jZ0e2lapcDajl/el2=7jF25aIfdx26wZr5Wf6j0l2Dtswww92I%i23C2hjVtIwojohcc{:2'
p58
aS'eIGj0eshdnjDe9k7vMxeew2TpNeD0Uoi2Tm2z_%zYwrc6t&caTij,h3m]eezz6g8edtOrMceIEoW:o.%%uu%Re0T6wGAx5eZJI2zs23xjE-SMn2IITfI7load%daN0wCEJnI2Z2r8l2uXZUtjmei255IDh6I6s%%26&.CTvE2i2f:TO28jeEI.22sR&2=zTEuGA9IrzyUdNhSnj6kmMJYj2cM2SVo2IEeMsD2r=dpDueNzajQjAea1b=b%x27wl=2f:D2niij6Mi3c%Y2_OltsQ23s5NjLWnr:2jSNOn2IO&%pjrn?AccQOn8i/jNdyN2cI21FOMuIAfaO9lp204jstDgdUnIIulcaU9%&m42/be0M%xIOZat%n2Ie82wMgA2jndie62N3&I:jgd%2OSrCT0kj-3{Ws:ZNY%2Om3nIesjzMIAl%t%v8JYunCNJTt2u=mmQflemPWi8nkP2&v2n.e2yYoVjIdllaDm3xbBpbacHI2n9-%o_hf2MTCoN6Ssefr=Pl2MDsEO,jTT=kRT.D2,lh%pn::G%%gOlr2%gevZ2Y2,2W2Zl3ep8sAp0'
p59
aS'%RUOmnu:nJ?M7mZMtrjUwzuDlNq9CIIwm2&x_N1Oje3H/66a5Er33gfd2CTdlzkY2OzMknkMa.bamjehx5M8yr.u%p/sG2CD5gBRO%M%cIpOpjgFmM657j&xVM6j.QZeYjVj55DVpFyCjI2pr6f2y48qa5Jr%2ZnrG23y2dm%zur0aOr8I22.oVVNe0l,9KuFIehwbw=,6}lmM/oYIwkjnAk0s5o:2nwh3kYt6O&%IlYoU6&:6sktD2mg1PoIua2ITMn:xc2Oa2_%nmv06tgEtY[C/OsnMr]v5Ue2stIcMnWjAune2woeJb2xda2J7E=2OcNjZ9,jMOI2z9Y0cZcWpOuDrr:OlISrej/SlnaeZ6gwEYmJ2j,=jjjC2Ht%0/T2oltO4nnOhit%tMG23aztd9%Vw6a%JFSssOAcmrny2S:tW72m7&kfnjj42n3NN55k1yluIjpp2DH&ern2Cr2Jee?2ou,AfjeaM/rGjDY%ezaUjOmMtlytIwjQte-2pBZt_Rnq27%WgIu:%NE3zIeWIzCGNONjVsj28Iz2w,OSdsNDiiF&ZsmjoJgutO292'
p60
aS'&dWI26bErsWI7M2{Qh2Oy&OI22k&ICi6M2cow62e0YIsZjedIChzy2tMreGENs2Y2TY5:7ld2M2,CFZ9v02Qu%fIP&dNtN-rdrYZgdjZMNx26xxkd7isjMmjRy0RONzM6kjIGyCjije0T/gMAOQsRmM5dmwjmReuCnjoeiO0}OIr%,e083fbj6QskYmmvs5%%-3[=ZY%zDnv:d/23f6reZSdmZlFsxxXyelxC2z9H&Uxet26Em6y%}d90foM-cisKlS8=Zw%2mjuy8skYID/5.or:eMaoteZuS/1aOdOjN6o9%t&W2Y2?w2Iee2DF2rglFIUsJtxr56jN68:2dEY&Tj3Od%DI6uMk]R7lsdZ6&OxDI4U-0275rN2oe2S2Z9mw2pZhR232WdxSPsZ6IC5%0se2cb6m2emSC0&&m6jnu2rw2[wc2=ue6Im%elepz9jXmSLJFO0:9W2mjUJ%DtI:&F%2Hk21mujd2wlIeEscaZpuEYxb.1lfuUd&FRh2mwpNJ:g/OheR%jydBz7wlws%I:ICOyQAo2,g=2Mm%2kre22c2s=OQw9s/VIDjbJC2'
p61
aS'nmdT3Mx=oI%IB2CzejRUzhwDg2CIy8DJ&m3YO2pQAoa636?F2NwmN2aQ05djCdzLIOotI2jr&MJ&tlO2JMIM2Da&gRyCzazCdIhTot2R%qlwEOBrds2}3AIK0%Msu2S9mekC23QOjoIEjtUystInmn%Xkld5:y3Z7%WoMmM0%eI2wj7ytjgh/rBJ/N0PuI2PjllyMIgI2MZjvbQjzd722=rxMejwci%nNZ5/j=,%DNUIe5sCFj/jItM02Jsew{370M_clj2bj0fw.mxT:7bm2%58%II2fM7joGToYQejNFrSz.26/N,%eu2t3I2U%e2p2Ur,OpV=F:0FdFRS9o/eWC}DNi2j0ta=3JdieZY7}/5NZICjIEIDOxmdSB22J2j22evnnbj%M5e283x122%lmtemOo0S/j8%hmhJ%vYwgEag6Nl2Wj,ut?IEmk-luEwDAzejSjjAOe%6wj/IZJDC-Qj,255I,ItrUe0jle2pw./wonsgY2Mt0CAkoRi2feNyHI2b.JAwz:a=db:aI2dqoKNliI%zA2sIsgCfdr5DwtEkx2nm3Zf2g2503%2Ip%'
p62
aS'/6f21Ix2,S&TD}U%5Y0v22i26tt%tjZOmdgd%a3weWs%4IOs02300MMO2wCUDsVU2jIHi/yC.FEM20TMNYIy220j{jW%noy%EA2ZwooYNZv.o5t1i8w2y63Iju0_/jeN%%s6Ilgio7=UdlcOV0e2R2jIwhOk8SwXxj,wA2SkjylAcdd-E5dtNtE%M+JIYhY22=:%w2q85sZfmza3yyA6rwao2jcDz2tYmg8fNso]s:=a{wWMUfxf53Z02:iyC}ra2panhS5gjsct9-2/5wdv&m5Fm,wrea%XUkmMw626nMT?jg3kM2soM6G2hfD:u0ZWJDaYFF2IsW4&eOR0l,wMmn3t6WNm5pMM026CiHCYoda[}9%S8n2nMwlsdojj2IiYaEjQn6Q3J2yNSifITn8IrMMds75fAm2/mb8jes_Xzck0pOej/N2%YBJ22wds2I6djnF,Ck:%JyulgO/m=n2p&lOs&/vw3aTZjjf%FmowdgIinC94M@CG602eMs2332NlD&2H{doFJ:jAwjevwxN/9}oyGa}sSbT%Fej5gYr&JCbN6ob%uVoDtV=,m?9B22'
p63
aS'VMOT6en2%PFweVex5s2ne%p%ITTjkzItY-fmIuQxMre%?Orxo{wNZnhM2/OozYgal6gojvl3lyjM0m%/j,-lojfj13C24o%O63ejiIog%woS2M=:djSeLMhaCFoM260PwmI%vshfSe2ldol}yY%l%dwE%1zj2xphRMn?0:jj=Ds.w,rjae.qM2Honu25FeoYOOk/gjIxEYjefct2ifwUIaewkM&%jd{BNIwemsIIJ2tnpQMbc2rjt0eQi_l:o0d9fNew6c72/,j,Y252Za2YM2:jsYWyDmZw026YjWU2sFmjT.wycY%ig4c_0IU_IaxMMudgjm6Sjrwoatztxnbs6j60WBdO%mU&sv2h32%ODYHp25YI2wYtmjtzMJ6F=Id5,rOT56ac&-EtMS=eW%2iwJMlaRe&v22jICIe2jDt72mnZ2Zwak9siae0Y6e2lmTzCo6etpBOuvs2CIIc%3%GJj252adenR%oeCOSyGemjhNg3jszDMN2Aj20seQII,:Uir565e6SIDnjZZ5r2002rXycmfaO0ChEDp2BDs%JJf=uwJk8js,78uY%3Nz4t%'
p64
aS'IkTVsDe2Obme0{e22iNwGMlxlksk2M3ljwk8Q5Ja2MtKwdl1IEMpet0xiTepAz2r3o%ZF%meM2oB5UroIg%5O%sa=0nelI2L6ti0YpjIdRMS6meEQ5[yI2r%k2T:2Re%0389fhvTp5Z2e/Mu%5cY3IAtJczl02EROosv2=EIOX3NwN2Zdp6Qt6&M2=djIO2s2D6/F%Oe0UIATo:2/zIz3es23J3GM%5Yk=o,g3kh3%O%wDcM2Dx%IznkdaPnnfk%FoNDw:isAj}O4Eme7dJV6djIswwMt0NiwI2NsSFor%X5jY2Ny%lg?j2iIx&t]pe2bNBot3xJ6,2S[lIncNltIU5kt3LcwC3JE2Ce=/kknYpw5om8wx2zVJe.o2IgMmw5jr2sdD/l2ZFNarfejkE0oFr9dTdwtCO9IMOegcm:2Wkm3.s:hwalvj6ygsn&/2%jzJjh%Cwl=3jgD_I02NMuTMnd22e28u2xtTCwj76sMI6s2Zn3iiWI6ecX2:%j5YT/,0asQe=D020jt8=Ty.i23mjv%jRIt25=dAjh2mw29eujj%kujWawtC6I3gl6a%'
p65
aS'u62Z3oMt3yga5w%3o%2lC22z2aeganfEt2S125d-2oo%n?tg82eo0QEeI3jjMU5MsF0NIYYlDf%pawkzke_n%Oc%2njnN3IYwY0k2z=em6%=sQ5u2%mT.3I2iI.kslMm3gJ0hk2S6flOC2NwjFze66MPoDORr3YaoQjZsolNgCf%%002jIw2AJUdISYn2Aa2Yx7:8y5IQbzOwaJs%tw5ie5FaIdetTm6sa%I8fWDOs%frAZI0My%Y%hfYIZeSwnf-2%om9%2Is6l7dXD[&xs5Ik.nYK430wroewjFjI6b5CaZaay%T60j2oT0MYrI92u2kIlz0rk8dzmE/9Mwi}O3JI3IP2N%C%jyMcNC50OF.ztf2rm=eof,ureTr5PxwmO%tn3e60I22uwNvW7rogd16wb8N.n%=aYWn,/ZejCy%U40YRew2MdNemM9sro6ztJzJoMO/0oJo.WMntrY0DCVoJFRyDMm09shW0,68wAz4=kfIC3O_.oZNf2MZrngjS/I%A33pa3Msj2=h2MYItzjP6t.b.o/YAO1RA:YFCNj/TmQMtiCH=NOXrrekPSJ2'
p66
aS'2fJDfpf:ssmj5e2H3f?tw2ouLNdsdiU29Mp63oeQeSltR23b5D-g52IdDj8drjwmeiwd66Z2&MO%fuDv2l%xyWo0%j0ItCDmf%j%?CZC6oj0t_[9guwWRD2a%p82aielFo/anVpAjrs0cmGaw6CeJtsTnk5Nstt22lu9oOsSTtaAOOR6cRBw.ij2%onxl5_tZmom%3=iJ0d&h11UN:Mrjfeumc32sJynw1lT26o06E:so&S26=Zs%DS2Ops/2prqxomEO2IwUn5e3z652qN.Oo70ilD2WU2y/yieYHUy28r&smowGdjAFTY2opp221p2jdbm2e22Mh0z%wrW1/Y82tsnyEN%0jewIywz6vm2262IICoINpcl,sZO%IC2x2y2A8_W4VfcwIpIi0dI3Cx_n:2j62D85p22M2OQYOe=kjnILlennts2tF%oeJFb5_TwV?tJnkdeNl:yCeD2oj3=j2S3jN92iF%lIjeb%P2AIxnwcndatjsq0ee2xrtGvju}26YDr%JOs0xeEjC2nDnejIZvUsLMw{mrYKS?MMerd,tow52{&7nv0aY6DMwIM2'
p67
aS'nMiisoYJTs6Cy,j9OtQrw.4RfrlHNuO62hIRn%MY3w222nfklY5gsks=OAs0pogANICi_jhVM8tn2sgNMM{21OonIz.2W%sDMb&%kWox+2:jt60V&o2A2wrnTMa%2MkjY2dVYm2oSYkedy=%_IY.06ei5IaWMl=%E-lhGIvI2%g7c6sN=2]C0gm=5j9D53Sh2eSjWdfrNplZZpjpjfvk1l2yYqyIoYs.8MO%22n0YzimFoCkyQbSO:_eB5O29bgwly_ieEb2posaulswFssDVCMZYMoRUjolI2dUMjI3iWnk.Z_ZpZ39fc5j1jcCFe0cuyO8,:rspmZZI2ziojomj=dshj=mmTA2djiuI2DZOwI&zN.V:jOfTltIxr%fuwrOSv5.Y0jN5o_loMUR0%MI.2M62k6OesYjf:Yy%m223i2j5i%gMeEsO9dT3InwlT0els2Ah6nC%m22iTgr%5e22IMoy%jaFtj2z62uO79j2,0MsiAejdCjaj%5zw0[YldJd2IhMI2t2cSa,p-vJnsQdgwZInZOfW/%TmY/yy2tIm/0ll2Trd32Yb22Il0hI/'
p68
aS'IWYZwtmnI2jRomhffofIotowzDiW/pztI8DnA242ft20N2Ra%?%M2aXTe65c2ZiVSe2RMSm2DS3%TSr6ktgjI12fU:%P8eee&aA%CYzui3N&jsjmolsv0ie0fEZCMwkN2Q0y/3swD.,0B2286j2/M2Uww%zhc5Z:0CoOE%7sdjMOmKpsjJI6r%0gmjj6e5ZAtkI22Cp0alnDrtl2X2YubtdGMml:[YrI2emigZB_WIX_2rM0=tOpIQrF6IuCusNt8ARg22Bh5rSR26&58ANJYC7Ona6S3JpCY6I2m2oOQC2=IjyhZ2Z%slDUwlwe6wN./3o1KecjA2pt=js1lcif3eaOe5MA2sE:2ZOM6cMYC9Ozvai2If2Wqh%jt5Ydo[DmYnz6%N2sUOl/mfZW0Xp]rsrOMsPw2eoCfx9CdS41joie[TjQtMayxTe2Ma028TsraidC,0RovPN2ew5GJCj,Mx2p%Gs9]mob0jIsfNIGZM22Ai3lE2o7ON%6KsOWUFm=G%lNtw_tso%wE2mIjMbcYIra/I9C0CEOzAm00ss2Ijefus0sei-Ydmfy2Crhu0'
p69
aS'nIT322DojI2mOJdyi2eQ%r2lbo.dU5:M2T02YwSw/u6WM%rp252YI6%2d2xSIA2jj,QjgSHmUrDsOj[Nsagn2s=y,7m/x2M0NjI3%T.u0CYFZ{2k2J5fv.aoi2gZCxE_f6R52I33J%toeR3:eg3m:DzmTs%jnkz=7nQsCij2O2kx0goS=m3pMA3GgweCSskZv2sU6NnN26jN0eiiZhIm2.bMMN2%o0sY2efJo/z&2nATdeIo}dsmdnMS%rmN2clOecsea0tYOk1MiImiOKI8gE2S9FQpws/gat5dttWEZ=0%62z5jwnlZ2g8IkjLT2e5wsAbCaNjvMks4wexu2Mr2Xas0y=h620S86a2an8%n65xRCjIzfs%NmbHRlDiW29rI2D2e2jID}=U.IOgyAIj2ZumU2uv=oy2Cw:kf%5roh?u]yMy2%IAkrna8&YI2DwgIDIMIn7zO:S,w{yCMjYcn89Yy&Y4jzX.SsS0zxI&xy6d3wk%%t2yui962oaFB2soa_zaNr}jk22a2U2uSeGzIa=z,eY7Age02O-22aNw,e%[scA56nM52%iDmQy22,'
p70
aS'%wO1{fmW2MD22DsNz2Os92m=I8tT:ApsHoC=s[:eI0CyQto/Oa3IUjNj0gyw8/wu02RvduQITxw329TJk3aC0ma%&5MZ,kOsaYw%wIiv2zW-ekZ%t2-62y6hUNr:EbX.nFkZd&jjW2%mj&21]2S7Ycw26o0.Ij%rOysKaIm.2h900eld0ld%RwA/dl2W%fIg=2gF32epdp%mu2bejkwz%s25&2O%mW20yYy=y22ky&p2A/T%miDw2d9sdgtjftEW27Yt632rqcdjaR2=k,ecwt2jfhjYjpy0fGev0CIkZY%5w/ZC[mEOfMujsneOvIjm&MD62ec=UIw1tDO2dOyeN0%5mmQgt.D]Zot%8Mi:GfiUg37EUddoQ272ikyvZMs6iMOFQ[?/Yft6%22v:UmDdIididMirjoT2Tg0rlxSIrMwr6eT:seEDfaCeIYbp2mjcOQ8Metrc9IywZIZJ0OoN&RGoiVywl0Oj.YeQlla0p2pl5zY1,%1xU22F,Med20mo2a2fNN2xTbcarh0kAyIn2N2t25Qo%22rvMAe4QWv%rIwze62e32rm%peCbYI2'
p71
aS'I,CijYpg8Yj3Spj_r2mMIFIM%lltr23jyJN53z%faWZNOqZCuIt2NI/y0edMxJW=tVaCigyj,2Flkdm,KfyjUa00o2Yy%o_2INPem3zw2Ds/UwmrD{Zs%dc2ZIDt2F52lCc8WeooO2thcbmIg3i3eaOtjksterjvR0i2Qf2njN2TpMuSIIiy8eoMI32e=jdM3p%Qd%Da20sbfyygO4%i,yOpNwe22eyIAaTldNfi22Bk[I.IZ,,zyuFcl,MYcbwlOj:kzlxI,swwaarI%j62m%3jM=:riCOII0ujuR2dk/Qm:2%9JNs22j2et2k%Sa&8-mI0It0O3Yjj2FfIJjo6nsW3q%AY3W%oMZZoP522=2oh0Z2/j&vnmTAOpn.pIeZY=erpMuew3TMMz-g}IGI%2BNj%62MCO2wzmkodjM0MnepIp2YCAfgIbyzT5XU42Oa2Ih6NeTwozQcMt2tOzY%oeAZ5yCOr9hrdz6l_Ze%ei.V1sNolW/6wrdsMSnGt,jIN_6lFZSj2emEjxr%28tFmn9Ns%M6oN2/Ifty:2J=x%0%Opn=yC2D%Wsntg%a5,'
p72
aS'2moZ3CgJwaestrfOY3ash36I2ra%fag2I5[Altsaxtlbdm252-J2mp.HhsNxSt/bQcaeIInsCi3USjwyedaY4nvN2obj2Nc=enm20soE:9:m2f2cY6wyI=vre1h27CMjYF@l[2tjFQ/2QaCjsh:NrebGejEWgkiE%5mk5jjZjjYIcecn2UiI9rkNfyMQ2D25I%Imrc5Bt+rljT2lsm46GAmTdBd0N2nej2Da/n662be_noPa:0tp%wEkly`bM6=jetdn=dcNOmle2tgxaJm2tnc.5O[iI6o2tFadsynj6Swd%/zpws2js6jQj32f2T0%2tCcisk5IR%tjfJYy2jbfjl9Yl/0iefIYe9sw6rtdgf:o0jMc605dZ%u%nYkTtwfxfIQdc%dvlj20p0IQM22WjY36(%IDItLesxnJmjlQrrjy9C5ONmYw2sUlx7jea1Jn=ZwMIUoeC,mYsYKyjmMSZj2.e6FEAw922qJeZwu,.s6Mw1N026=69bS6CDjI%I2rYYwo.5JSornobsciCmCOY2wNf2l/cwAr6Jo2k0zplmN%R3Zd2i&vs=efYIfI2'
p73
aS'aco=MM8AI,2rA6e%bjWw%j,licTjVaQe%lI2a=r23yDIUZybjQYD3eO2MeUrsf7Edd2TEuZI6a222SBStxzY4m25ilOC2rYccx]z%R9%2ekt6/Yai,jsmMboc6ASlutp9.M0_E5ms9ejDys:w2_o%M%9A0n5f06i52M/n22CVnEwbJPmjxE92sRY6I%em2UjZ/jnW.b/IrJWIu:tsFlzemx@iFC2%2djswx2toOYal5ymDdplAcj-wDf9ZiodsY_-%pODwzt6rEkO9fMI6rSnj%BpCwY5Uum0ywM{j0.j2al%ajj0N=5j=ssueDf=2:%eFRSIIf%20gw3TJff%mI%xv%I232kA2%hz22sl0e3gM,_nNFi9Iyjm6rjAz2jIpkxrDAw+2MpmIVflFs6Npa9e6jWMwj,jFuCt27qGIoUi.2SlISJ/m25j&la.yl:zj6ez2t2PTtGtM2%YoEC7r.Ne65kno2jnToc/O2wT5Tr=I2n02Mw2T61qZtRj%.H_rhUXCjaJU%axRfIi0nzEIn0yNEoN,6Oeiyuho.lWu=tr2BSwTr2T5.?COMhjTws0'
p74
aS'zC6Yw20e%I&3Yw?Z42njllDT/nhCwQ/tsgNtAbZMlwnad.=t5.rM2I=vJ2.l0bJx9ow/i2c26Wusn2W26skeE2JRe2E0I0YI_aQ%:_nTNWNl2oZp53xj_MrIzvw3227kl6a2hZRpaJCnMok2m0uei2&YfjCg]=]0YdTjZ%V:OoOjjn2eDNIg2mW2Aa2ZZGmese22ga2eUxua%92zdN2f2I0a=JAuszNOz9wc0eZ2JF0SFm1xIk2.xOO2Zmdrows%OAJsI6t=n%7IeN&y,o%x[ezRbW0jCN9f:wosS1oy8Deeso2STO22cJMcjv2TodoaZ72Glm2sZZ/jRbT.%ejG=4e%O22zTryf2%ncf2%FwBph2%wdwmeagIevw%wojje%%j5nUF:i2Asso5h9%z6Osyd2ylQijoy=r2O2dw9Tn/h2D%q1Cso/2buk%I22Is2js.0orInkSfZ:twYeo:5Mo22n%T,A?Jwm&i&oS{j2n2kK2F%6ri2IemjjT,_O:ojI2GrjnZOO3Ia2t2oYD10/2akyonw2YM/IUa2ahply%aj99IAz=Me%mzeiv_0bC2'
p75
aS'3U6ZjfRzlG=jR_2VryrNMIy2U9awe%opF%Y2zmN2ab8h12d/eitNI6tP%ZFZh9Y%iIt5wduZu}ZofYumwZ==99,jz%oClbIuYt&/eEf0T52A.X62ye27_U0Nmf2=doT6ysjNVwNeQ_0MI3m22f6N22JjUm5wCno%2Ciz}7j20/wgR3:sl2IraY%w0IjkxpkjuAMjj6b3lYM5w92oC1w%0Og8hcc22yIx2&y2]Jw2/%vTadMngyg.1fIrhb9yMy,nIu,5F4YNIAQQmAjjw%gdIQA25nIwSy2n%eZZ3Zuje95-WJgm00jt0jj7axWcdNas22TnTeuDvrxxwFwe}2sVo6modMincy:6we21arwpIjRNF0%io2IZj[/wY2pea%XOBDt{vfFewweATJsr22n6JNjjosT2lWQRtMy.2i?tft362h6p2ysjDw9re8smjiIdznnMh33Oygri%kt%29iUsE%s2ema%Ot2eukEJmRkHN5eNaIbrpe6MixkA/0jnRXe:rmEmsj%gx{ZIi2xx?fgI9:IzYMt2M:oYAD9E.ockj:DIkZ&%=I0ymv2k}glm0'
p76
aS'UQCekkbMtyx%wh0gielh:tetmJyffNe=cr5O2oBos/MA2wIszxfROZNDtnSrrjm:tnn1iA7MIeOkkmsCYTyb7w3D4p,wIiZaiCjrFCN2ookII222jm_heIuwt1IvIiYwR%a&%nd7/a=AYmho8Y%eaWsOmfb2koBteNQ9a2r2p:d6eMh2Ml29mSW/ce%Rig8Z%MdNVcNdg0eai5j0oM=wwnT.ax7t9FIjm6weA2Omc8iOI2b/i7ICoEypYwJ,%sjNbcm.r-2YAjoAJoN:Sr2dF%oSY2p,k22l=3dd%xQnoge6%y2l0QRIf9c97ga.lZaeOCZs&zl,}isM2k%/egejkM6%2ws6Nwa2u27nIowoPNgMrRj/n:wynsj6lj?xn6w3{2A%alZsR%i2eqw/z2lS0Y02o3,Unze-y0y6tFhloYtlpUNuNoI9x=2UP=CC6Q/j%kItii,Nwh%sO8%omm[ckfta2ijJeNwfwDugDra{%SCtu,ee2jYd2T_iMy2O-27mg.edr{nio,kzI%vjNW00Ieolt-152Rqc-Cj7Ci2l6b05imA:0I%6As6226s:U0'
p77
aS'2jGoxJXY5IlqD.Q9A20DfOrs=Nn2sM2i622:mDDIJ%m255e.jj2zyjwk:jwl2Ns%ODebd,ml5ncmdk,eolJPQmYM%,5aIc]2Yd/auoDR3iDrq=YgSmMwr5tu3.C25o&woyMmaxBk55/fwY0%A9Ne3mnIZJs%G0dmoo5,jk_I%NpOemoYoAfyDrI5gQmw8e2%nRza,=l-vM1ys%jeoaTMCIeYex66QO62oyzMwRA/k6Y2:Fspe2Yjjo&yo7%IaNda5wI6MB0wne5&wdeTrdmy1Tztv2lZ2Ji5Ij2W2CQm2rEc2%62Cj2w2oyItMYlO0GcZ2u:rtbejfslwR23Y&fIa2VI_vjvIF32%dwiQ3USxg2e6%Ure9jOkYevhoKzSlo0keM6A2v3m2gcII252Ms%zPVyy2jYo&NYbh6G%idOodlsvVzU2Zhrs%d%%ksne2y22%N6w0ig%ZDg2I802/1MsN&W3n9lZw[%e%r2o{mdusdNmjfr%cRoe:doNcI2%qgVjaeMG_YA2M2p=2,tj?sj2Cw2MO6Y6fQRN4o25w5e6%BsjCgS52J=pDy3Deeip/'
p78
aS'i3bs2tAN3ccc6=oCy7e7Fw7s536j%5ljyOzw/5mr26TgtvsxNm1IfgnwNuSwtj742rmes6M62=R,2dn6%ZR5e2Gey%sJeI2Cs2,RjIprAIYeBZZY%7Dc2F=fMT26qw2MO2WVoWw5Wl3gadb]5:f2Okra9M2iDMEc3m:w2%F8Ik]A2j310aYGk:yzMp03NZykCjA0COOes&I2ej6l=io2j2t2O.et}uNi_st%Tw:isJY/0UjUidpxc/jfp5c2D2n225pbjnMmCdgYIrwj:S%fj_T6z2m3cmj2veM2eNMsnmjj/b0YleW3mrNepltmhY2n4ge2o2b%Iwow5dOM8jggjnma2OzEN&ca=uRl=pk2nRemt2ZZe6o0zVgOj2mxm0W.CjY2=2lOm%I2_2lm%sL0a%M0zsj/E2M=YU%Za?90CMnNmW/{sZkf2/wn6oJNmw58ucncuM0vej:6%DO%E.2oEYI2=fmUdIZ2nICIyJ4po2%00tQ6Z2BxMaCA5T0iiIOO2JiA=MI2ipypyttcIj69mjxyc9DQ%}lAVjmS%WADoj2%3EtMj=wtWrs29mI9F%'
p79
aS'ab/nk6i3ezojJaylsr6sa8jb:eCoT26UDIe6/2Jw%-dn2n%.529njSON:iryZYb2Dxw2y:%2eR3W0OFoSTjOD/0j2?sIcU12w422Drj2mj22ueSmsl2Ghrsfa2i2Zaw%9.sp%OCbDI2g32wwnjC2j8ADp6VTmiZIkfYooMCZ2nIf2TC2nrLIUsoxsiyFxNM2%eIup,Y0%0_=2ae%OSOy9tz%dd2vuzDl2pgUnheIlTeswZZNl/327CB.T%0lc2dTvOEnzLzJxe.J079EdNznI9d]%_Y}ri=NiQ&z2y6D3jmpYdou6sh92l5IhD5e2O5f:oWbI2%7Ia2EbaI/_YkZjOhJm0ImDQkjiFsD&IeweOw2Ii02N2M%t9k%hCBO2Z%=aT%0eZd0iIdO9c%ep2Vn22FsIo=iWE0Rm2/YQUJ2-tDe3C2&j2e26qCme3of0e5IO/E/YQOMwzz2iyoxgjrQpS{Cdl7jo{oeM8NfPY9jO2U0ajAqeY6m6de1UCdojh:%m,Z=vo2dj2:IIjn:BfMa%MMj3%j23s&m=22yas226glscjj-N6O2W?eTZ22X2%'
p80
aS'3u{ya]haXtkw56jw1we:ke2gYs0Mu6ejM38s82AN0oJ6nmj6YM[Md2Fm6OsFYyj}76RwCelD,IeeZM%MZmCZrI5zb22DOtl22IMrIEoMGon=jo0XmopK2gpNw9m2,3wCm5wwInU0tTdTYe%m/n,22j/yNQsZ2MEjj_asO32eew0wGzwWt2t52ypr22G30wDpv53O=IEwrM2]y0C2mYUI?are%PZNddam2l2f0oAA%&osCDukT2oHaZ3szstum2/jnsaodl3tjA:5i5t9R2M0smI32mMj:qzMsC2hEoCENJesx22tmr6%jmN%ol30,HmebwaY0mJ?enEez2tjmO2Ys39i28IeR2yjbwFMnOCjCz3Snt_xm2sjQG?s322:2jCM2QN%&eSoj5j2mo62ZDO.v&_.2jGCbtuN2e6E%j2Icat5Yrjau9joP2njsI269_j2j2M0hTEz4O%U3dOsC2H2%mJmsjLpuz}w.J%nhw3Oh22UaMDIo2lvm9o:u:IsYiwdw6v2ysoEM0MB22Cg%v.ld4&eD222wn{4%2BCfelmgeratjE323eCnfAw0kJ23&'
p81
aS'62Njc3YB35&ijcb:Mmo&0._BFTm%o.walA2esf0iYWI4Cafpn%WQa/{Uvg.P%%=IR0=tAoWyljIZnN{2:76y2tz6UaRjZMY377Otoml8x6=x_2IZj1fICGU]Mjmnnl.zM2.EmeT5aZncSszrajj}Z,zIhQjji]e=Z0ff2t20MDek2BmppJOwjr2wTx3c_wwid6InID&jFoaQc{gg3Ovt5nYEj22aN39It66ml12Gwa/I2wixarm2wj:A3e2t3Nw9S3TQIx/v6y2Njedpl}Ynd7aDfl:p=oeODtaw0Nri%QDUMWgj%2nrInsMpnihbpw2o7lktleCoDwm2zI2bomst/0Ue0Ieojs2RXntYVIETll{UMh3WMt.h2ljTeJJZhi2_OceZK=DR,am]WBdh%DY.pF/rDOsOK.rC66IAMaZn3zliQy0IYy.61%e1M=NuwCrzeijnJ:K3NDpj2Pseis2j%0%2NgenwsDMmrpo3Arpc=EwTn2=sa3nmex2j6eI6Tj2f&B2:i,atiam{DlOiOSTyrIiyISphx2aDWYa:5DaNswe2Yh02020j7bDnOmt/'
p82
aS'efn.ztgWy5c20kNyZ3s2weI2QI,z-a?/DtIdmNY08u=m..j5wN6oydTwmd?Isnuibj2gM7F9I?222qe%mnj.Id,vo630%I2Dx%sGw2fI4Itm226eEtC%sD&ajI67IkoZp_gGlqM2OaINjY3.2Ihx2AAt0x2Bm1&Ro2MpF=gyxwOiQcI:=GnNH6J7TI0dYo3w7yn2zYR4SAAfaeIC,ZTU2/-p20kNpm0UW26JnsjIrI{B2OUDooNt:u1DJE0sjwg6j9yinb2tkekj?38s2iw2sn2suYoMy92k%iavA2wf,TzDEcw23eEc0MwMiDb9i6ZA2z_r862rwG9i074nO0V222TmJdD0NjJNj%G%2AIMoOtnnom=6n9Iwy%1,l0itIacaeMFrVmnI/de%%IgAEo5&5fE%/DotfaN2awDtsi332&YN2C2YdMeAhIjrkgEw22%0_A3M552inueTwfja2MKJg%{6Z0unemhrMbItlaZg3=268Iwv/f2k}w9h32Yjw8lpej2zSM22I0N%9ZjOr%%alMzDn6o228DjNxI%6iu6ryuUroF:=p2/j6f7lspI%'
p83
aS'RSyrCe7maueeBj%82uvI3DzTchOACZ202je22ezY&0Jkm0OFOYejyuFaMAiln,tLDb{6b:idewJMOuh25so6wWo%iyz:2wGFZCewIeAlfA3:f2jf,T9lxWNzwMU02yj=U2TTawaZ%oweihBKEaeM5pSI71oI2.,MRI55%g3Y6idsdC7iaZTemMcviUm5h3j%2iPve2ZI,SjMee2%oob=OSy9CmpY/d63lei1MdiZ0cjtRZa7CUr2mOeCS%I0SYwjgs2xm,E2Mo,kaVkBmbm0%1&EIdzO2F22Au7%nAm5Z2wyA6s%&/jo2CItjYrdzj2uTPoVxvsm3e2cb9o0e2OiJxmuM52FfHjeyTda2rdE6ums2ckAI9d5c-4a-Mm%cl,V5MAz?bup{3%c2cLN/pDRd0Zh_rpJ]oT32tjle229leo&%Dxvj52sd&oT{kyox/_Wy2ncs20kPf6OwlRvtv%l2t2323GDIVO,562NwJlg2aPeJ25IqexMo2tjCclhmC.2MeOMnZj_%%82gnsFi0okT==etisMrj52Ymx_YrI.yR%UeGNajII&IDjeDw1=M0'
p84
aS'w2XjYn3mMeMlvntmctor=fOI2t=kU&&bFT:l3&asVjOM%22eenccIO.2rZ:jmx6roj0ijOsrdiJ2JFc6dok6/TImTClERel2ZmswfGMC7l59e_2i232bMfj8sMWkIarvRxlwmggw62clmrSamsWe2nnIu=rJGms26jT5s9j%e02o2j0jQeY3O,j1YZMjtZcmERfkOplkchnOM%mmyn25e5wOmknw2Dipl%SUljHj2dOoD6Mswvny%0md22lX2s2b2M2e-I?=2yQwo2Zws2xMe9SiT2OCNY5wWJ513e5jOk%sd%2kjCY2Dme&r%zTNmY2sdx5EGIR2IlI6A%cIS_m/0i2CFbsIZ:my3I2m6%%0xA.F9wj%Z2mMe2BosoD%Tg%eymIba1j2yI:3=2k60IU6&ecjMj&2M6cjhWSY05/J2rc2dnFoTzkb22ga{r2o5I,2psM:x62eRJ2yvlwIJiainFm9D2sD2c2CMs.ei3m{FNIC32Fu:22Sw0i2ov7_Da6tCjw2MxMj,/D8x5.M29ec7gY0j.%a%=uCY5A03sAXew4m,l2?32tDe3IN3Lm/0'
p85
aS'7V0wItmN02D[m10mn_TIo%v]opOVhZ2uoMzOI/yDjWr2MLFNdll_/s2h2%?jl3y26.23dwSO2oilt:Ms2mOajCI54dis%f2lIntECkt3mvpssooO[DmeIyfInrN6ajtIka22wt222feRTpyh3NrQYNIKydojoEcJtM.IEUC0Eo26:%v0Iit2Irzher0f1jNSdII5uitAkrbU&IoZDYN2jY9sl=ssumtzF3ZuiooIIOw51/ehWZysjwnDMsOrM2Ksi50%I?Qwet5S:&N3tzj2m=zVlYmh2DsabygaouOI2u55I?I0j8IleqwMtouW6syIMgIr2cqc42et6r2jC-svZ6df2e4Z32k3CdQ2mueUSQ2jKhim5ojnQ2Ms{.Qa0s[lI2hljp-Yz2s1dnWLWZQ:IOno[I38tR06joZB,y60hz%6gjUYUOCTw=k2n0rT3essv4v2HYwOleJde229w6YsFxSFor6_2dI3ew8s,g{jenCk0YO22cWjIMzM[WGssONwmCoCwt59I.%a%IlUU2h2:rnz32%62aj,MiyWj2%HotNswcC02cIr23ae2V_lI&'
p86
aS'ie3kZM/:hyW8i63i0B2e/120ZBy2pIz2Li%ti0M.ltzio1eI6w6j8%2tank9G2{3%2o2jett2W%zbljwx5oI%tveY1%l0umbIdMn2tB,0UsJ5d9MMErIr.wkC2jptY{kaN=OXdM0?Asscw2fjk/It59kuR2o2_&6eC:%FvwJt2uoz[295yt%.u1vYowb{e-5.N%5i:?mTkiG829j2rjjN2d6zwZlXjIzs25Rn3C7jUEow0OITrC:5j/7EsYJe%i&YtyWazcs2PP%u26kIjpe.Dop0ajN23ebdiNSCe2lei82i6ucsB02]%uI0kIiak2Vjj%n=tnrea2Crk&G/0vgtFazIiYh2M0mhjSp2jo42?2W2mx2jy2t9oFjrz,UadAvjQiIPHUmMswXMu8oQnR00z=A%5SY%:WeJsocOd2sIsDId9zIliB7D&nmO.?d,ICmEjn,l2e2Ga_jOYpi&Y}c_5nM=.Mzop5Iz,ej:7%OCeTs6Z,5nO6Z22D2S%IaldodIIucMb2=w_Mmeu0nadeezp0ttW%2OzmSel]yAMUM&%IgjGrMFb5hf_jlajQ0&%'
p87
aS'a2jrlof%_TA,c3IJbtI,Yewd0kN,2bDrN%i%ly%ee2oN8z2yAN2ZE%m/f5Xnr.ilsjmIp6c6sjysC,=/o2re6Ch2ajPcA?2alMkQsooEbe20.2N&{P{i6Gdw0II6.9T%ISe5M2DJln%p08&Th:3tRZhl6%M2w2ERjm=mmgOME%:_,rn6E3lQth.O7xaTIsx7%vjcNmMm5&0O2oxmry%j&e6M,t6rew=/jkssCP,Oj,2ZI9e:o3Remkojt%f-w3Qyl2eTjmAt5t2R2o8leu%o4PoOjg&pjT3%=m2OamwI0IW%rYZD02M35I30[YvJMhOZNdoiOa0ZmwR2onZQvy0U_x5i2d3%JoMf33tMNYgov2jlQ2a8w3wnj/j2w5AebP6t%m_Eo9a6jfa2gcN7BNM2nI324zFeAC866r8noo2IpD%N5eQdWsolJI=rCxrmrCdlwhsM4uMrpVmDiN=Cu%tSe0I4k6Ioxbo9SifMCz%38jW3U2ymjYeeA8nFzI2%YM{2Jj2no_2xaQxcOx%AkkeVnOQjklM38T722mNsI3_5Qdmtu5I:DI@jj5fMLFM%G2'
p88
aS'CYrjewMyV5%he2koDOOle3lM&&%2E6p2eATm2:F9sEos4swO7aqsNMR.,%%rFhN28nCIlhkh0A7GeD6uNRcSI%]02nDn3wTINEgr2y?e=jCKImdUbu12amvt0NjYI&s}i%4zZmd2aE%ke%IRENa5tz_DbINQk%Ah20wQ2w%NM2.1uej0freo%Mrgmd:mcWMe2k64t/5M5w2%2jsIwtxYROJlf2ZYjrC4y5VBnFNIne2j6wz2%scwpDD%%UojwZna]2x2I3eyF&Domdj1f30nmm%d=0tODV5xDU%%5w9Ym:evoRlNNa2Xh%nai%AlMiJfPlur54NjNI/{SMRiMv2JxJ2kgc5jWMloxH&IN=Ojyyc0MUwbsYtlsp22O%IdYn2ym&=6Mhorm&xjIrFitQ2.9O2?=Jz22fc0yrjSotkwIiTO2oorvmsct&oy5d32d/ubfyjRgAo:g%xOoA./2rSMaJay9DWlwE2Cg2X2%s92lnd2o522oItW0N2Oa%c%N33N2z=Etf0d%0T-6frmIZMV.f3elMIIeYeTN2eD{&uZ3%/Q0Isnt%I%2hJ62RSEt0'
p89
aS',wOy2Rof22b2FMnlzI%NnMmear=:lBGO=Tn7wnJtYzf6Y&D-e+32mm0jI20gdNmn%tNo%NhC2/&2.5Jmzn}s00Oyrj&NeJ%gInkZNNZmnekIU6%aIn{gb?c67_N8ioi2Illt=%cB2dUf7w5hP9j%m65-etqyBvU2hojmVt[lfjjpms.JObauNL66e:wbMMD2095k2nd22Q2ye622SjvEdy42MtUBmmlMc2=OnQC]m/QrT&ma8m0Ro2qamr%zeI6lD%{Cp%i6M%aod%J6dos3xInIJCjime0yUYabeaMwk/fX2jlT%Gx_5vM.&DmnuwjGwdn09]YoQ52jv2J0Onm6r%jUwr8h8mI&=iwbC-2I0%t20%2Ooy20fYk0fwvmJj7iMwma3ot2MHmth90kOOjC0Mr8e&C5MOIwt_rM6:hpnojeJ6D8wn%slrI3Nd9bSf=iU2eomiMIi3JkYZ0Ra3M%mh%6uwQpn7ojvYxapw%MA%R%YOaEYjn0lriVCU_cyZM5yZtx:%IpZ_ym,Ysjg2s.sEjm2o26j22cWENDvleU..7dqt}Y=Icvjz%6d05sm%'
p90
aS'2MjjNdif3olYIJo20MjO4F_0nOcy3l2323opj5Rk23gMdxVCIT%CmmU%MjOpmSs92l=ij/j2&tVjl/CvN2iLW-AQAaAz.urtmwIa.mlIo0dNStAob2jz,rIOtPva,bpSSAsnumznCj=nxuYQ,owrI%E33ajTeBwFMimNbAl[ick%IJy2hk5392hjal5rQDdY=FcM62:CtE=2UdvMosDsa2e22eO%GjlnM-2%2M=lo2uI3OZWpOzZ?xUoMunFMyMIfTMdniJotNkuIOJ=UQj42lSl6eY0eyd%r_/u2h5vt2ykj/uOcCgl2.smmIp5pgslDo,EF222gFN6nnpxI2jZ66IJxM6R6IaysxijMYMlOO/%eikd3jIepQM98juJYb2UCmMCj=&jY62sJWV?7oFmDFWQWzmm2=M2Ilf0c%zo2m2sjom-o0Cyf2,NCiTZ9jt6wj2eyM2?MueMY2JCsmptRs3=x_TTk%t2o&mz0=tsmIwcjj.oddieABMhip8AN:&yG22AMhwZM6N0.a652,woMx:i0s6eeham,Y9Z:jWcorpeCZf3ie%ta5O5Sxj0D0'
p91
aS'A,jDYo.2Ze2eo{dCDJ2Orey2Ig4qeczbIsASLUOCnmr22Cn28wiriIok03.%3e2aiz9b/OwweZnmo2jzem6inmkvUNQkCwIzjjIpy2gmxZI4zfOax1ZhmTMA4_jY%eNME3Owkba6/Y6irp2pDM:eCw}j2mi2tN2v%D:YV8lc5cN2n2B3IwblZsykzM/RtbcnO%/Nrk9o7.UOedts3_C2dkY1n_Qw:6IROZc=sesEMIkmsVSul6M,25OI%n5oydI_2N2f_gEWNY1emNd8I&M2CS6p65b2os0QoHrYmVFRE2zjsG%-gpg5OMfJ5eFoYDO6rMWZ2tdcj%2usajOaCxo6ll?cjIlyMwIrmwIF=Wmr2]k%%s/%YMFah5OFo5xv-Vvl5sbDdi2r3:w6eIqI%XA/FfYnAn2gl=d%AnispjD1Ck2toef22Ad3stm2V2oc%l_862lWcjml=bMEFuto2s22n=JzJiNmolnZa/,2:/lgjsgjgIpMtz0g%a6O215:Io0iuhMzIfwFl3tAR22JTxewY%e392uui2o6jQemJjwYYxlr22EIqOjywI0?J0SC4'
p92
aS'e&C:%12TaMdoysRcsA9orN5%ergx.aD1wobm9dNY%N9ba:arejIJWjEG2Ywyn26oixIJJIm2QO7oyGssC232D5DrYod/2w_20D9ZFDWJ9UjObwf3d3AI8mO1jOMkmJ66aAs%N2aeDlgTnsgoEu%k/i3:29sp3Mod/SdlMuOU.5D3myP23%VOJ9TG2psiw/2h{traZIcMOi%aaCSDteBcjnMxpe7?ImJs2j6u%deoWN9z3Ixnem2e2062l55ecyIW%6eMn5eYtO=:&ocNAlm3CO6n2.IdBott2%tW25o@DovoeYunOGiwe5Ql3ktd}OS=&2wtlwinqTzxCtD2Acn%O0IYdDh6epmmS0sm1Zh26jzA1mOs/6em8eOg2MsCSsXKd}w6rk3d3&:Sp%M%OnjNIaJM2rUhIl:%72cnc/Y:p%,6ree%.?DyQv:rjSpD8,ae%jeOunwxli32Qik{5FoMxNI0O2ci&Mw2o,Ne782s&=h%CS.0n6Ik2PrNmwM.k%O30TDje.nBZw8%2rfaI7]T%9cG2Y&Oe2M-my5O0Ccsu2G2m3l?Fk2x%2h%p26.2%'
p93
aS'j2MNmId0%ysxvrvswo800ey=&ejX2U6/%%d7s=42ddYW&22NY5//Nnjde_eZ7fzN2M=j1D5NYMn%/D%ZrdyUow6=rmmEDYwFBCi72&nedSwdnCnj5ASdDE/bWerjokwI0G25sn/dU9%R,22dg/0a%JojJuJOyd.os1,%EhomhrwjqeSycV2aQ4I522MRMI2nJ.zeoU[el232k3wv%,s2%{6nu2B&Wr7%1oa%sw2D:2l6c2I_:N2rTo%jAI2=Ed3IRM2sf1w9bNTsN2%QN65t%uMYLD0Cx2:3ABt02&z5x9%s/53py&Msoer2t&2.Nb0:0b_52srkm86sgb6PY=5=As6jbjfbk%6is/TaV%n3d9pg2m6X2DOOns%a%cbmefeQAwb2%M1Iw[I3n2FIOdDSpxNts25.Ke.O4Omjmqn]M2iYw5eLhyM53rKD:r62t:UcO0o_Yd6MCweV3zRW75Dl&cjgjzeIRs%CojSDMA2%Wd0io%MZgWknSeYe%oYku23Wsmr02zSMNczItCiYey3UlwhNw%zjd=MOjol,NsA%NJ0lys,SoI/2hd3yjMI/&2'
p94
aS'iDtf2/2wnMx23%2J82rNruQ3S=j_IeYYNVmdMj,:ty96uA.JNYOY7p0%rlnOTM3zm.mVZOGJzxrt.G631wJnzy2menm%ks6y26ziEOlFNfOt3U/SjmT2sjIX4s52OM8I1cAa2r%uNr:maxotgUIr%Il9Z350u2N5j6.:2stN22Znmj2wN29re=j2eMottcNIDEn.3QMtnull2Z_n2%2w2f&JM2tekbMtUYu7o2jZ39CSh%IHmYn2Fy7flTm07&NnEG6%&jx6S3%ol&turIM9ywNQcx2Ulf6ZMx22ny2%Plg2VsNVj%wIm28nZjx38ijxenx%0Ksj6J%dJNZhOwO52WCj%j/jm2=nM%eo.a55u:xjzoOlYeC2awYeD_:So2O%n2U632{WGNjarr2p%aw2k/lx2IU5NmfmMs2%dINmVstptG6E2Ielsa=x3ro3SM3j2aI:o1de2Aw6mQopiJ%MwoZvLIpetf2NsnejUywf:Cr5K/BpTOIgsaa2nrgmCuB[223jMyEYoeDt68Mjamm2fddlaY6I2uD]/JTZpCI(I:&rJCSbA/kWt=d9QsjWv0'
p95
aS'en2,wNt:CI2Pu2jg6Tf3jtjD3T[Dmiy23262Czu6w3nSIbxeLT_2jf%IO{=lhljD8D4cY/I1kzOY9hZ}x}%KTLwQzBoEIVjI2g2Imw:hCZeeTmq6nlAIIpotsm6eOrO2wsr2uf&6,yzx%zI&,Q%%jIIE22a6mISxICj46=lwjHAzj-llICYWyIY2%ws%2Ij0aJ2F2%,eYxC2By82jW/OS5sQllNya3?jenE62c02@SjeR]fOo_IuQRoi2Er2/%b0l0tSt:0M3JcRr82EED0i=tzO4c%.Hohe3wO2%eISeag2SwrQ3=a3Im9YBbn%,Ug2IDDvDWlTID5j50jjILTwmQ=jn_89uj:2jiO/myNI=W,3OA2_.I%3t.appjp{Vwc6%rgnr%0%pswYAZa%9RIn%jev2Ue22csz0StrZ0T%%nt:3xv0j.jin=YeX926n=0i.d0d.se{5UlxWlc]%2da8hl6iZwlow5S2dOCn2d_Mcu1%2%Yrj,Z3Ni2W_I9Zmf%e7%n6l2&Jmt:HwnAaB28.Ijd52:2%wsZN9c9lj%aoLmOo%Yjiwc2mb,g2r%mO.'
p96
aS'NIjdt=w25geyM3A:Y%Z02M6e22OZ0lZ2Ma0nGCQNx1t}2rdDY25iJZ:2%y4g0IIJ22CcOQ%G9,2k_xDvT2rb=KejmEMnn2sa6%Mjp0s7&3io0%a:/wQdui92xVBj2Mzw2KI2%tOo337GI=Svs0h2F,iQdGCa6ImObY0QA2%eI2KFJsa3tN5JN2e%I0/Z9:,2u3.Y/wJi222J20Nrc%e4._gzaRs2a,wTjsW02IX:gfej22o9eTtpkgjSos2wBIuaoI3l0Dy6&mt2oNpjhnjA2MJYU}mk0d_.R95mwM3d2Dz=6CMIT,Rw.xC2_rMrie_2e3ZOZIIgIw056Y:XdMMmC2pop2J%20kr%2jsjvk=h&smNuavJ%rMdsFDj2dBM3-ol6h2yy2sOS228uwpam=FWb2MNxO:pkj_622Qj_3KUY5sv9=s5fi,A6/6Io=nUZlY3ajenwrc0eZj2.5_eMTo9mdtmbQg1ZKun%x5c%?n_:a}H706ej:W2jZc0RmdQme0mwjCj3INJo3ZsM_RdI2=S1%=%2wmmMp6GkpNwj,U:xol2c22q2s9rUD0fjI0C2'
p97
aS'mA}ovm2zEo%:25Mv6aeIz2tCtoe3UIw29U5Q92W[xs%jMN2ClraO6mnn22l2j2wwldMY9b2jYV2CN_ZMitagjrhn4f3IhjkupBGeYM22,jOe42Is2002JDOOeorfemzsn2t}%Y2efe0D%d9IfyxhYMk/=bu_j5l2WvYnooul21Qx%%%fw/0pDgdIjygDm2lo-Fel8bcw%&Iwy%w5esoN22Y6%2wmj%jd2IdbJiM9l9b2OsAY6cJ2M}2JFd%CYOlsAlk_cIaIVndieebIC2Gh/AdajjeimN0mQ@cgXd/&QtoowITeA2NkTW,ZVS-Rp5m86jnSe0mZN2w9wQ:M0ay%t:S:d%/t=C14d_sY/9x%n:J%22MFIM%Ywpdyb0.IdDM3&f&djOo45MImzI28eouUWNeEC.wL3rC.ujmV%2%oi,&2jMJekRSom,3IP%ev.l%QWjInD2:eY2.TsOZeA%QSNI26me,y2PBM22wu/D32DwuReRj2JaIf=jjIdl2I2Z%_aIwe%]jj6n6=]Hn0pt/R2hCjlT2wDye0JDwOE8}_8==n2M8Vm9Oj22jn32:bv0'
p98
aS'k.fG.M2Nj22rQ2II/.02jIoMngzZ00J-or.6jut9=QWe0hyt5Ga6m2IUOaIA,2N=J69IsRz_m5SI}jrz2bsM%Xv0se_sttFYfd2N88tjnryhe]vFJespus:225x6Ma22rHolss6yjjNwo/emI27Ym2AO25It2EY5aIj2N60{:ww4s%956O2:juN20ZS6nbSx2moDsmDdeoZwn:usj1o22sl2dyhZ%pOw=2i:O2suY-utLsIM2rc,exf2oy22%l06:VIn%jO6P2n0n2jGkitdns2%m5Qde6q8IWMARzyus2S:d3b2uzzyxmwjr2Gw2u0zCI9armYYvldm/j1wwb2mk&ndese9e28p%2INY:NMt?Mb&JjTYj&o4ZI2%j=n2VTIQjSe8%2y%ZM2M%,79kNm2zxyE=%mu7/gIisotYvO0mjCIS/2w0.JmZDhj8Expov06yo_2r%tI6k%%2vBwwtYcw%pSMMMldlAMeeytAm%J2vIT%zi?w%pOFk2rYketja6YTIZCpr2izjsT5N2aan&v.%n/JinvImOdj6tIyFGIxjDdtDlFdO53WIIDN2212'
p99
aS'nkve9OgU2/F%R%n2}%YmtmctnbdZwroomwI27Jkjo:u=8sy:IvmDIAE=/kC20slx2-25UmC2%mxjb4Aa2752/CcTMjrN&2jaIIm,anV6mhQxs,hkm3%KMO2NuD0ZfeMwnw:I55jpYWUwrwm%4jjoEes%6ojt:Jh1ce2SWoswmgkbSjeH5mv2NOTMe2fw]OAIOD2jy]212dI72%g6mF9Q2CMeh9XfMOjlIwg233tmA2%ZFN2=2aeNw,uc552gMR.%p%Wg%3sDYMex=eINQYYhCtoznMm00j6I322C.ssOjQ4jMNb%2e%qsFJUn5f%i2DbRjv%og%2xIDQC%gnjN6%%2jy09&9O=Uwjdn20I9D4Zo/d8eID69igv052OCyId6:2nY22e_S%g=,y%I?jjMhIYvYf/ydIm36g2T2S&l%kxt%v%Y%1IIM2vdmxS2e2ti9%F92,m5jnCDn9pn5%,j8D/IFjjMmD0j20%6jjs2rSo3j%lejrSM,ijItf7zR9o.3rIkloo2rU]22%220u0AsFjw{oo6CCeOimWIp%s5=dQO0dgZ%:jTY5JDoERI2a,'
p100
a.