(lp0
S'nd918/3%dsp&%%ltfu1pA%G9rAsu4ey36DbWx3mrpoWsg2/6CtC0d0sd7u8sFdf%vk8mltepDv%wx3oFt%bac/Ani3FveriT3dn43%ca9i2e%3YpvD%de4i5DAl2vn3/uB3re13tevs4j6a038eCo%wuSAmA_lFhdtB60FAi&tC9o3FbrwAe38uc3e/x33ei3a10i1st%3_dtiuu4w9p8b3i331w&sfye3vpur3m3hi8do9FFOotf3eZ_&%//4t3r4a33ef-e/e-0iA6S%ap3ot320erFxpp%F57wtRlg9wDt33fdd%7koA7p%wa0uQAXi35teepgjeuo3_%sdg0/C30%B3H73D%%jFt%Cdxkaeze13%%1-mrnD&6F3m1d%w6e%Hs737tFl%bp5Qs%%B3c/v38p6/srTy1f4p%C5d/rCz%D&a9eit4piCol%o16dm515&v4tfo3kg&eM%4FtA_mC%lwjoo%33m%we1Fn1&1mA3c3k%8U3sarffKtmyhi_dBAd&g0%Boeda-%t&ru&e37%tM&F%ieH3d%dCw/DwA/9vk_M6&5tAx31ttc0/'
p1
aS'agdFs5iske03&3i-%5%6wee/2edd&vv0WC51Fameumo&3977bDbjm-p%loA6Li3.0&?w7A333FD7-A%m0aflabBlv3fs33n_3%owoedlpa9t%Y1hh23Mdg%Fdh30tg5_Sfw-tF53u3N&yC_Mo330p_vur18%h%n3?uws/%3%CvddGr637edBcdyo%ee93bte%3A0&e2Dv3ir05me-%Jt2Fo5_tuths%R0ge%0uS%pah%176R6%v0-hErlpf2ld6trvv1C573Bs3r_E3lAleI1D33usd3wi&k0uhvek&2md4mD7%ut%3&D2motewas1tg%36334p&-DHx3tG8l1b6d3t13&7/o977Xabe/edvx3439%DCeeiiAd%jnte0u0id1hqoF%fsb?7%fw07D7c53sr49ahtBI311ot/v3q3rDC0B4B5ei&oo%e3opCadMF3O3leaei3dpgmh%GdGndi%9xg1%3-D50h=t%03eur61F3aQxd9juni3b40%t3=e3d%6c?%3f%o3e0t5-03Fbn_uj3jV%HFdkt0as1%/%ikf1ofe9E%ouF%C5MA3DB-1'
p2
aS'tA0Fufauji%%1g7bao3EgF31d%ezQG0mgc31D5%edv530fe3o_1nsdea9f1D34d7elkbl1l%dCv%8_h%Tot%he7v-artVsph0T3t-1iA&fCh%sl%dks13md%38mEdc8q13tpO&aeGe1%5%-3%A4%aA7i33%dAfF0Qnmtim_34F%ap1sAaA1aA0rxi9iH%43c%1fnu0dt%i&sN3G3s3%pC=rt/paD1ri0e2hM13bRKrs37t3mem2%0s%?0a020%b0%oa25u%1eh8fiotr-3&e&AB_%d383rtbQBicAarae%ecA8%htFdd3rc1fsd4umf52uCF_t3t37%e9eeUtvy3ois3l1ds5l/C3w1DT0Ctmelt%fU0r1%31%&6_sf7%o3x%2w3aas1mo317e%5ad%oF720t39aF/3p3e%/46e%s9dl4sE33ltnaFaETF%ctlA_de7D/0U%&D%33smpoe%sk/BAF&AA1t?r7er07a-iluS/pap85_im%ed1N%?e2d_52i34iApuU33s0sovwQCtac5-2l4wfms%z7xn39De6Cd93133j393P0/4d8%/7%'
p3
aS't-rp41u73dh/%I4Bi-5g9C8uSm4%J4par%5D6m3s%-7e%%C%i9o8706tapO33i31k3F0isFe300jh-4vopvrF50%73m3%wdeeA0v7ed6i10r352F4e53xG7Clst9AtRs0e4po3z0Aes37Rtc%pince%w1e1:HdF33h5exeg22p7sjiiee3fQtrCsm4idvpz/7J89t033ph3dew2vt3C&et3a3iH%vkgZcp5B5Fa8AjnAu3?0F25i5rsph3675aCb67a03l%%m3%m_8w4ecd6s/oi3&2e54dga%tm32eeDAm%0Fn-w115BeaAns4t43Cd%3Serb0_o-7r1%\x7f0Ct0r4biwf858a31od5f3ys1%n/iclti3sDD&_tm30a5ahw%reD%3ia/oh03et1crspF03F5%i%tpdir5r/3e06nw%f7n-r8-s2%37ee3n537o3%6%hh535yangp%&risy29s1k&ArsiFsiDs%bl1tex6tgvdilfe4tw%swa11u72ldY&actC0%oAg30JA31b8s3de62%bP73/3l7%fBrsG%FsndigdEihtgOEht2%7uTe%'
p4
aS'P1ebp41.313tmshhoDAp3%9EFdf32veoN3twin8Dcc03f&%s%w4pr3b3tF72Fxs6901.rd9k-D5cb3aUo%6%lt%uaCp%%C1Dd9pqC_0eh313FdcXeoK6/tce%A8_336nFtms%%5AorM63AG8ere%/uoCA-Eo3GsXMnbi_-dotNt9DwO1ChAiSm3Y%78%26%75ib3v%3/eprpi1B2eG%tA2iaCa8d=DBt%tvG7%1e-8o_&&Ci7euG?isllF3d0seidBgiu3bvul7r3r%wJrb5/Dccyad483ACc3%3eholedF/9iiF843evt7tXfip0e56o3i%b228atYv132343b1del%kdiu/t%4ef3An284a-ee3kr1L9bd33xc1p3DsrrFv3%13w%6xlti0E/FujwiOi31eb3t13eAot5e3xc%n3%e%e%eFKAtm3&5013%3oDkZD3-k03aN3Att%AP3w3m3l3mAl=4r3t0_3D33eqd1%C6861we5rXi3o%m7Sr-2lmtsEeEB_g%roLoifde93_Cp162scipee%p9a3h3be4AtstuAs2wNsni.169bnw%'
p5
aS'nu,23ie3o&bh2%Ax8%s93A235lE9%93nH%c33iDoe1oo0iate08/c3dA71e%8?ae%jet%sA8d&a6tjLf33svts3tif%%_3333?t3cud83tedks%Ag7mAU0Br4/e6a7F321MFu5At7&e3hw80d-3bbhp%%y0up0dedo0t1111toj0ebi013&40o%39hrG%A/h4oeyi%uf7h/CkmTF3RJ?GI_C%8aEbt3bEa2tg%7439F0Ft%eh23c33o3jjtwouo15tP3eBm%sa308F5%3/1ABubs/o33d3%-oLep3iD7sB/i3Kxc0xaSE%3hdf&T333-_3s27pJ4933ds30/30pA6wxwptayidCup/3gZC_&u&uuhdJ&b0-33p&5Q0Z2e-aBdi%teQ/M3&x_2e_aAo18sAvMD0Bbir1jnoTe%33B%m33d33ks3%vel%-ugBPH/mru%4i0%5B%Vc28geKQts7AusD8hm0RmcBC33F_3fFto0s%Dha7aa23e-l93dHDa_kyi93Rmet&s%Dgb303bFhctt1Dm%o7rn=o0ah%0es303%v6ed3u26e%7A%933y%'
p6
aS'oiadtr1po4dd3F%0%o2%35abaa0%shxto/4Qliiie%x/3aoy8sa4g3aTo/3te3&i%2E33Fn33CnA099A/3F_iA37%8ed4%ehl%Fog23b/3t3A7m7e0?A%r//m-&rdKCcxmh1r%W32%F%5p-ps5Y%0n3ea_233mtFoCdesmz6trliiD5oF3%%353wgbt4g-3mlOrdp4mh31fdej10iy&9hig09t_ua3i1yptCJd0mSohD3nD/iFftaeT43Pe-/Ib%9e%3is_ie-CebmjrG7%8ric3h40s_30g-000si33em3%o6830%2r2e9A4e483aAf4t7s0CD7FnTvie3gsjt2eicinba%B0eg3&?o/2364lntVie7t2Gt-4ot&Eu0cD%7toee3ApgioQlbAw3%v4bsr%j5to07%8jw36e0B3as8s-%/p5e813%%a/%a?be5fbdv5eRHbGGgaof-z0a/AVC6-t/&3FAt%YoaryroA%333A3FCvyt4omt&fZd__Qt3dhollD9vo385t%i/2wo1eF%s8&DsfmbcoOEet3aE-dDa5%LAn7rn7b93ttd30v%'
p7
aS's3m/5/mdpiyh1A%ti&A3wl74oayp3&ai%93-e3AuA%&g233s223&Q.%1%.3y%%1ia3%t3Au800w3A2b_a0oauECra%n93A9et%1vA3am3o/fgoi3nieHhd31j3bre2t/2r3/Fba0dFw%i%3Crd33wo?m-Bb53iO3t3hns0h3f8n8%%eFj335r0a4kea%5tmtL%74ASMub13-7-%td9s&r5u-Fasse3asacQ1d4C0ei/uBt83tsp4Amcs39C&p5BF%%10Ct2dtv2phwu63%5d%e0%0srg/3C53nai5&w6hb%Fz/&Ftmfs0te0pFe29ptr6h36bK&;&3YFtro%p31j30n%ddsgCng_rnwil394g&&t33i29A0%Hg4t6g3pc%716lFHb0/84rbwc33767hBad2_db%ade13lAieei43fdaiiiR1u3vs02&dd%N8g23es3r5oh52%itaBm23eeeke7%f4eu3eGo7GRt&3ktaa3A6%6L3331e%0t5haer9Cs4fu11o/80F%_Flit94bsoi5Ibemv&a3%%ga838t1e1p/ew%v4hNpmBd%e5yod0&'
p8
aS'93Fkbe%d731-3Pmpue4m3GhHs9/6%7T33l%ECeO3FFBN2es1lU_mvp37o3%DMipt/dhpd593363cg%dA0d2=u93-xca5//3Fd7AY%Bstbeur4h0fceiewT3ro303ttsF/E/~%m914v3Ypoa&ged33swauaa9r13f%Ct5x%Du6yhD3et22p%mwD%s3s5-/Y2m-32tvA3u2Fea7031Av732ib%uc%w03oe3/n3nt%d%BeeA3jt0twTMatFgu3tFte00ii9gp&gA0oz%HUdaeiwgt%r%t3j3%h&b0h3Fs/xA2Fai%o5e%4oia.uDTaFx4f5%ccTLCgee51330too&hp7Aci/%%d73opjsb%%-A&B3ade%ohAo3ta0x0%w%A3B3vAFyY%/335aw%_2il%50dlat_af3-AFJ6ta83A%031T3tLp0rA/Rg3tS3if%33c303p3633oep8F3F8d1p0043sCCm3fR3xe8s0oU&ttiFel%sCtdwhie%!93765eapng1tC3n/1eHr33an3W0Hd3AFer81sD/s8hmexcp3%/3ste2%jt3%%Cfr1Fudnma%'
p9
aS'53a2=6tA/68_aFhvirt04L%9BnEeac6bCdp_bmgy&p0/myAa%69&oi%09gsv932-%lsdssAvttaheE/6eFv4WVhoC2ab_w2ip1rier4-C0%k%sCe71toc=uAuuhp3R0Asjwf??3u1C5kl3=s/g0ar_41z1_wtdw%/34fd/bv_t%AF3pfn_4nFE0so0nrea7se3A9c57ed8?F%eAstSp6spt0tE/3y42ve%e&C%&cCmx78%0%sFtrfDmCj7sv3Y_eDxzt60hDm9Fg4t//Fpphnele3ro?4-p033l&0b3rv%d&36%7Qoh0&t%ti3_/ute1d..ulapEm%tcebtgpt1d-p1m1dcoa5-sBapsw3i30&9ov%7dgm0%0%35mDekwsGg1nx%3s3ldCpBga2t3ho3Pm9iFh%571arn2satAew%FsSFc1s1dAr%eiws11mDa7bD%p9A5l-v-3_ed&33medwo3C5khe%F=2%aa2wrsi6didlnmd3aFCd3]-8Fv5%%teodAnv%03d3sDeb%igLtrC%3731vb0rtttter63p&d0yB91reor843NC%klge3%'
p10
aS'FvF7C%8hbA8FtG/14x37j5ActBwP0d3o%rl3tfr&a%9wd9%C-1ofTA60deu%g1ct%FhtheotV33%320%eis3r%td?nsm7oovH44s7eu%nt%m0F/&?Md_l3rr3olD&ta0o1rg7xuv7Q60Hh&9C%93y%ni3i3es2At39p%4da-By893etD.d1j44hm32%1pn%s33tF%21tR3ed5slh/tiBU68ar2d8spr8%Lwa-GoD_m1twmtff7B3QdYiEAe%jh3ihtim1Fn&uFe8r%00%sCspbcImSkirFd6&uY8seu1Wt1Jha03Cm/6h33vj8n%&3g3&.i3Aatsotfte13tn1E7tni3oKbfC/F3sQhyia31ei%5M3/cr%%mom%3FDc1ri8e4%_9m&Z2?1&81%%AraB5gpdggjp4tm%3t1N5kF7DBs%o3&63Y38G3eFbCa%C6to3jdai31e6Ab3U7m%%0%r&%Q338a31rw2CtgBlF3ree3dA8p184dw335m&3QpFnLeulr3%t38734Ftuat3nFFHtDlsrit5%gec7eaC%Qr%6cddprF8to%4a3iX7t7%8&'
p11
aS'pF%eA96iu1&m0BhehdT3hu0:i-j2hvm2oshW%vDgv%76s2iee/i_5fa.e3%1i%&GFpv4-A3zs4oAi6o9fnOsm3oie%dsl/313hY7c&rlbabs3ieowFBFDxe303Of0Fepgb3nue30%0r136a0k2%a9d%6th3Y%-ti%%%6a&d%1%t3zAmC_e-erafanBG03yepada0ueSr_3eegempth1b6C3b3u06ztDs3A8/2t5glVri1s3%%%s5g%1elp31%idMeeH5Ls1%DD20_vAAfgwnrli3eitln3p34ti213563witte0CetvoiRC43eV10atd&X&e6rk7eys06%0iZ3PA%rAmsFtiF3CptgDme7ru3euMbS?Ab3htembBbr333/6323135wb&CbHa9o30dsx3hk&i32sb1sr6&ikd0&s3ufFfteTljFsT3dooM0eA&Fs%h00i2=st%2ab7UAbhrp5on213_xv&dce0vrSaxl3lYa2uQa7fabll61y%33p6er33xAf3%z%0%A3zds1FFdt_-A2Grevo35J6i3_ol3h%CAnw&G4o3F8s/3d71tA1&'
p12
aS'37l3neri%%eFvPbFe2ei3%d%31d6&tas30C0pts%%4s0rge-530c6%SCtn0%e9n2mm%ew&idaog3%4Q%81B&ldC83kr%t3e6o%o%3s8/l14%332%03F53oec3eE&Fm3%g2T5rgd%a/%dx3twobi%9e_CC3%2CA20mFd%kah77haSphvsgEem%rda0gr3Ds3io353vree9%MgohGtwL%Ac_p%0xFvreoY%w5%d11&nwb8Du_34os/%CA9okR%i?5aAE&CG3113s6d1s3-7h5F?%/0DPCptHdcrv3q4bini4t0pidDCe2srsh0eo3Pwltedtaeg3HhF?eCbitC%ess%f/Bbd1o34vZah3v6c6HrJ332ai2%33%1_vratiaFh5%9uieE-6rps3C%-0y%7h%gDrb4loDeTp10dd3ijdJ6A_Q5sAy6ae3cL52%mF%oAinupeyw0axu-fd%3e31fd33p313e6s8-h61r7o32333n%%Dvids4/pF4A55%3ovce3gj&d/zw6d&?tw%%8o%dbA%Fejt8olbso0wh1s/t-&tnr2ukgi-p%6%d2%px%C&'
p13
aS'bs41s7%3eh-/aslr-n8C_8rn/ls-%1oFC%os3F_gWgi-5en%DrW4Dev273dswL95/gQdmupjib/3%F0p3nizpidMeEi5bbbn3f3p9i64/mtY0j3C&pucfm2B1Mwe6t30pe3i3nFoo%4-tmi&Eh307vua45%1sod3_e9m3t3N%r9e55v%-h3_e3et/&17l0BSotbipaDelfsAh75j31e%s%F6tk0cedr3u1_egD%1t&nDtae77s1-/a38b%3Fa/6DtspWA3eC%Nt41F3o/_f0G11131%om3if//92xe3d1%pew%3f6H5uj8Ga6ecippsFu/73FaikAhterz0z3e1iaEBn73rr/032lp3iBj3w3t3&2eu/5n%1m5?H2dDDF32Ahe3seeFNH02iwrco%sCasoF9g?a%dld%onw09k1867g-/1FeFh3837-doC3vtbbAde%pTC3nAiA-zewTs7taattAwF9dw6iuB1ae23%bdZlG&rayrh3M7lt%da34A8vsbDNCFdF821irvo-3c0%G3tv%33Fa507oi%hd7p30_i4g-3%F%dvvgwF1%0A2b%'
p14
aS'31%ir%c%asav01zCA%70a3ia3d3_%/k3eCb%dhYis13vup&av1BpZ%vwrae-7tBXm7BKr7om3he7lftpe3B06e_0aa2Gu%Iwrc2BF3Ch3f3H756j33uRtg65esA%t76sro43x1A1%av%ssve%AFstz%8d%3,1&twFd3-sA8%3%ApFidD1k3v33o%cvlC33%%mt&p31dd3wda3f6%877&rDheiv3vee00t&jtp3det30eB%uAc_6Dai73_3elJh1ek&Ca%p3a3ngAe%2Ehn3e3Gc6j4e/63sa2ZwWi1d&rN7fa?&%medUr3rtd83%3nFR%9%r7ee8khadbq3Ed%31Revtrdt9d1dt3%dd0s2C46Ela4hFett3m3/53c39bfnsl3oi4%met38%634p%0_ioo7m%C9d/3Fe3it8%%s0F5seC3IFii7sa8dD//3A3e7r0%m%xmS%o3AemCwa1eAr&iiANj8%40h6g-3dfmif&18ps133%U223l3eFauCd3d3bm3wgd3i10et2e%nFl%3/s7/s8ts?0%t1s%3yvr8%65_hte2gtop088a3_vly%'
p15
aS'F37a5CviD&0f3ds2dkd3m2p60g%ad3plvAedwaqosr4tc__t50n3tjDami53eBcm337em4/cEsss&Awtio19328f40ia30&o%3hQnu380e5A5s3ekLtp58v6tdttnhs0%c4%vethji%0%4-vhYo1ZB0d&933i-ur%0cN14b&e003did4bs6xb3ipicoA_3:C7/9asp35%el1ps0U6f0m/32dveemas_l%5i%035tubex4ee9/377td34ammc=3D9og0xF3721e9exk0cm0B1ctso%e%om4d18%3%JnXhw%3jo1381%308_ced3ke-3mxv3J&43br21%%_u03Ae%_fNe%3e%3670d%U%d%a3itg-cDm-g21d&83elaf8x63Chi3xd39p816%c320g73e9tigdicwoh-Cd&ss2p%0ioHp&6Ao737refsf43%5e2C%A6-3yiedrpg4i1sHQbe3/elF/ds5%2Doai1vvcT3tlCatuAxngg3eC4-h/%tpn%8tPgsit1%3eoveQd5cchiinsplt6atxur3oFrB%aprF0v4o3bs8mbnfDvbke%p3%'
p16
aS'ac&39sBs0%-40tA%a3/3_dss393/1xt0.3Tumdu383018emy%3k1%1&w%6ad3BeaRhk9/%2%h%301%v6,h6faQemBiao375c2%i%48C01bddrauhC32p4bR_odml70u3bedttactBdm3WC33BAdA14u/401A3O-pF85w3n3fts%41-1%p1_o3Ast3c3d3nS-Fm%sT73s1vC1%2/thFF%&0a0m6m]Hwgl7r3%jf_3_F33dV354.%u/Od/%3op5w52%t7vm3h2_b33tr3fnHjolttPn0p032//d9grmaA%0%Fm3r3vk/s3itsoFd&b(rd%f0Bgita6eA-l3F3-%p639D/an-43a6%7330t/aayt11Du1r&dp5C7CBh5%fu9%3t8tsp3b3fprAmd3&0c/w4ec3&F3uew9eD1i575stRMg01ds436F73ydpX1/i34lxlut7gM3i4idpe%1fD3%1SiDi2YCkw335uhtvCp2a0%hcplr2&rpCuqt1%M&t7meFbN%h6eceac&F90ui3Cla4bPlB-D33fzsgu2e&msbt96L1o23o0vtc9Tls1a4an&'
p17
aS'rDaT379n8Sb3tcxD_1t%oE%xRs7m%FD3&t&n=4&_y3%r/t%A51Fpvbl%lotr-6033Sp1tDE9iF3dA9AAA%/2Kpps0?73Sne6%3s0hdmc&ppC%22dBs73u%383v0B92X081c3r4FstE0C96F3r3AdA9s9a7J6&4pA8p&owA_0dTmto8Fco5GAm314rFs&g1060B&55vu1/0Aow0930ynnll1i0l1mdim3Assd%D/d3de30i33%1latFiib01d26%usf9tcC%%D13r7D8Av&e&Lr/3%333v1&ao0h3gc3A0tes5pa3vB63i6Ye3s%t2%r%7_6vw0vAoBedHr1F_ex&3me1s%teDcv6c/71t5%sg%%%p/hjiar%o33Qui1vv2t3dei0d3etd5?4hi0rade08lwC03vsdt7v08S3CDebaptpupEti0ne04sfut%f0btpjq0cs%A0//3?4BfAgb3eF7n_3tibh%v&s4a5ue%1iprDA1y9t0fg%4%ps%ujsl-tApsr-801ix%o8Fx%g0VdoCv-AtwL74uoapsve6%_meNrB%3ej32o3A&ou?8vE&'
p18
aS'e6io1/31t3tMtj2Bk63C1o493t8s7&d&vM031e1se3dd%5Fhe%FA70r2dwv/th_1ox%WaluVp2t&g/v/2B6B_w&%/_m%p-n73b1%Xiofgd3/%s%el?50ajmsh_2dxuxe3to3s4duFeasd5ttctkCd-f5r0p3w34-pt4%ssB_Cvn&tpebknmmrAp3utAmCdA27ovs3dKilVogAr0Moe/wyiF6a-e&fiisGpEAa3fAgd1A-CeF68i/1%32Dso33To_t%e/-0%eaR=1ju9Fze3Av/im3%3%13333in931a9/9get0%1xupd8mt&xr3m/%eA%jtasF3?Et7mtsb5hkp3w2Rxjug97F-0w?/dyoF0y%n3oFob6id%ho&3f1%%ier%nD%vBeC/ue0odd&tM_b2sCsms%3e1/3C%pF_739&c9biHd%we0nd%s3Ba%32%aF.eub8iuveA8co3ev%3T3C&c%wwxmiP4-3/di31oe?k&gp_%fY3Bbg0R-3e300iod-wPd6mC%e0o3flBhvDXexC%%&1Vhatid3tp%382s8jKdx3a03dCx%3Fu&o51uv%'
p19
aS'hpd&s?s31nn8e307ea792Dm4si3hctesf_1wttFatvoxkht1iV4335k3l%lsCwHruCkITeU05pnaVtFm4m3uaiav3Aosneld1ex3030A3heoCC%rgyc6I133c/ug%Drtu3v-p/&382ovst3%vCet5ztciu&3isvMkgetW1%%3?a7T_R%C1531/arid7%3%bMe13Qm-16S3N330db%_Ne2ise3g%rerAwIthae2p3/n73393dfd2e3p/yA8UCdtv7m38h8/Xuew1a%i%acr=yai8otC6tAe%lwCtFfuil9m_sFhru50&3snb%13ee%dk_bdFMdiBi3dp3e3eBgose388o8D120OVie%crdu7ewtye5s1499t5W%xb7-%e3ie33nA2d2%de%seB073C1t3v6esae9-A7A024ic7nhga/ft2mp55375i%idow3ue%/vt3A?rm%aud8Jo8x5wpog0ra5Vodsc%kFftiFa%%&xo9dgaF-Dsrc7e&3o1Hxfu1l%37_4J33i-%132sefo0Drt3erx0633rvAou&md/We34ieASAva4tat5epgo3c%'
p20
aS'1%?3Ay3i%%7vZ%aea7i-rwk%ua37/03biF%t3L_FA83IFv3Xdst3RE70qs0Y0p3s&3/6Dds%ke1%obsiC3aa&p&/C82/6%oo33t-33y%3d4%a0s,%oe%wtm06t2fglfAL%am246us9Ddvi_ouA9st3a10sb16A33%r_Afmime7mpenDCd-d_7Bt&aXaw9Cc5a2L8r%me0jm7degFeAt9ttC11ad%%RC-%0hmsl%_2dmepd0hixpCam4Pt3btsC%w6s2F/Be%e9s3etidteoarxESLxAdAa2d%NA%i%A%1dn9/Efw%eKk5_t234_3iefb3nv7o1boAH%sh53v6g1t/3FtgDsl&8B5i3-bx1b6Dcstcrp4&s60d/cBpeen3%eDeAwpihn49r30as%s3&03me1h6SdertDi53&F9B3rC33%95UFt711a/fe86/Jjo0o43257?1yra3UmMu37r3ribsp3d3m42o8hsht0-eQCkcAak?rF231btteeF&n3jtigtRupad/t3e!td3Co19%/tx?02muB-dBeed83aitE&Ft6873e3d1Fpp3mtd9T%'
p21
aS'yiC&i57Djo%b%o3_5i%03%Ctaaau0a8a9/%c3bdp4%5ho03d_ho77&3f%d64-wemie3/sd-pf3oi1z61Up06-AdGijlda&1i4wJ133p1Fo%eoFi3O2%kpCsW8gvo3&1oie1s%_Qr6esd3k2ue3xt3ce%i33ododm%och333028_CbwB2r0b3b-dduvRp%l936uFBb1_07%irFM56-Lro3t%9Xepnbu/i-e63ae%ioQ6Fe&nptre9tw0dUG&%m%dr17n%KF3y6CePN&fja4zn3%p7oDvCexse3_ephm4wBee1u3Cwye9Q3h/w53%%8C32rblp_11o2Cca63b%p%&t7t3uj41e3QA%6%o%bS8f%Jup1eo%jC_73et&3t/t8v6-ls/cr6md%8Fa%bSEF3_fot&l/d614t-b%r4i6t&3f1334%rd%mxrsswro5&di2WepJeA0083sme/esq5Y4R_%fm&0rphe3o0gtwtimFd1XmD%svC%F2%095aa.3tCF&O6gDiAs/A3do20edr0Fat3u&&azr0Fsj%2s%F8R33e/FVui31Y%3el6-&%26E3%'
p22
aS'3D0k3%tiGS63d2__t0Bova1%p7a%3poo3Fe-tletn2tC3ppmwFeAa8Faho9es84D3&lee%3822%wjC3m1C%%3ttp1p0h32F363%0%f4ens90din6evmDy30w/e%/9aw7707}yppi%?3Dt6etotm3?tF3b3/9e3ooe3/ig0gBtd&omZA-tT%gx%3uBfoq%rF%At7reB03_Aif385kmt&s3fdweRoo9AfK1558ed30a994e3mwje%nA1m7Hlte1i_35m2Pp6d&e%D3eF4%3d?sFa33is9te1x44ue3rp6oTpu9p%tY004Avn136l7Oi9eW%md7iu333o5Eedd3/rl7i%obieFs%A-eu11tj%serFA?360tcn3u&3wCn%%t3gC%thV%et58sf3ww2t1Gme02D3odFy%E%CeA8E3/%Ds&%39a0mseaHCf1ver3fvtH7Ctfpo%thx8i%7wl05Boo/8i3rFsA3m%i%l%nbdt3P%%D3rg431wtiid1%9U0l_-DCmBFfw4-bBeh34i3/i5d50.mtmd7%t03teA%4fQ0/MrwgQs2tmpitib0%odtj8/'
p23
aS'r1%3ums/lvy%n?3k30%u%ipgevtaNlg%%bal(rd5_elv3/edt3Fmpw4aCmnl%msi-qsididn%w9&hn6f3tna33Pa%tc1]3/ardswd%zmRi8%s3i3%lepehm80I3C%nG1&3F9u3vu753_s%jvr%m1m005%617023abZ7f67e53e&AiA/hYsaxFe5F&3s%3%FC48bw/%to33/v9ln39kD9332r053eeam=h_hxfftlfr3Ft%ao?28i23ot2qIkdt43s58a_suGARg1n10hovt%35d1awokCc73Sp89dm3%%1dD33sA06s4f9D_F0w&stdbw47eocCs33EFq3t2Ad1sAafieQmts&4ki09drir%HoCieAF1p53j_m0e3F3&80rF7/rH%H&0r%r7mi&clFb1ht%s%w36evu%11tf-%cDe&%8t%0tstCds5d/7%%TD3mCF23epwAr58i3l%10aJ&pf5%tUd6/fvF3&n80Mea&%3Ee14ttv03pptki0e0Hd3hC%5No0CeepsDA043pie%Qn74o5Aedes%f0%3h1AF/uh6peb0eeHwssirAe1A2F0'
p24
aS'rp/y62%66h&t&37mprdAg2ebisK0l3w134_E%pA_Ir705U4lf%Cpib28ix71pJsueriMrkiColOvA3tctlA%af1e2y5mVs38R5Fer3%sfdrz1%Dm%dGt670Cid%%b4o/29uCs9lm%la3Iee7n_k13e3hoH03pa3Fte%sr3aF895B63403AA5i_tri0e1oJ1%CY3&%tte%tvp4h0pqmstC&tA3a&d3pVe8/au%F32/3o0shC7g7FoBnepd0ad-8W35pa_dejod91s3Aeu3F3%&35Fi1l/39spe2kF3dbSp/k2hn11i1aV/&gAvpo3BmahAF%t3x4n3FdbCdFmo&=3k9AF_ohv-txooik/ather_AtFzs3itoCm{?aeEtgiey3x2s7%uh3V%mto3p3uaepfFa3edeD346Cesa1025FSl0e/96R33t6miu%%ddje%suoaN=a0Gftmaacd%hAhe13vu8Cf41ed0/dodot3mFrflradBI%tup3%vw1cB%,i%orDrixjsHt0n%%&3mhS6fv%3tE3&Eu3n&Yo78A%w1pba9233m%ass3bavdea100'
p25
aS'S%epedw380%3e633eu2C03ehde2Nih4i3t5CbF2r43jbp/3ahAdFCsts%%t1_ahC?Ybea%g2s33ed3Ap1U%1_ktpoFet6-lo6D3&AupG57w3z_03EvC3b/0F2m3_e%d5-m-e9%63l9/%s33Mo35t%s31eA3%t4tDaea%03p10Fx1jEl73rke50u5oq96le2%t%3ht3w51nUAgW3t1-0w5ae3B8319avTb303eAs1hBuv%qo9tAi31b-y%d7c00/D%Aj3cce4ed?frbppisbevt1%2BC%3oD9130kt%3ma2bCL3I3sZ?e1%AaveM%/tt%3%i9op0actC3f%Jeuti/e7j6e0oe21i0per3,F36e3sAs&iYlh-3t1SCA%e50%ib3%dpdtedavg5&i33o33d9i8de3c1dd%33&7ecn68-e%%dd321V0813e%%%_kspeF132UeidPiD/tdd2Dpi3FdioF0lAi%v&%s%%p3/F?Cselt7tn%oiMki33a9h5%vsueB7thwtA0rpwnsxoCBF15ed8Z1%9i13%&mFvs/pv%38vw4uuIAt1%h6%l25J31'
p26
aS'375r3wt7Fe255t%962vDs8ehdj%s_pC2d%ee34i62322A%iinNd4oe&tpk/%38t0t7eg%nkne_a3tLua1tC3816C2743eBo83oe%o0Cg0aw87l9%aee3%3%ept0-/tDa=t00d3-3voob3Dh%f1NddpbD3o33we3at3501o-30&bp13ub1t3&tCli0pue5ot.%f%B0klkAAeef3flc%epa_e1mwCdlr%t0on?_otC%espwd&D3/%_d3p1atlAt9%aedoKe89yo_uo3tp/a3Cra/e2N%/8tm%%10t=F139dtterpvt1%p3ji3hqDs7B%43tt_%ilkt&3sa2dJ1tiai233ei3%&w1tF%Ap%3_1M8ev/A/P6egi4%-%d&_Ce3e_%r%3dl3?%%30Eb?ass1?nt4Fvt7lU%7t30333j0m/3enoFlAuopbdkrrmt%e1aoai&d-ltQFA3_v3l0m3ge/_jiiGoCn0FaC?p16%c31Ed3323u8%C%Nx/h30tacaCe%d=alaoD4%k-ie9FelDjHfwid9e/0F1eo%Aa36t%sA3p2zCw%Lgt-1p%BxAf&%-0'
p27
aS'h%oti2gicGvp9i%r_3gce2aH%eCm2-cti08xw37g1waceCog/t%eAtADCAt79e2Ft%513A3u0dTd=Ft%cfxe31rT%t%fw_%9%3os38dZ63F?F3%e6d3Bsg61t7F3yi813_rsCp8et6ew%GeehEmp1s90%0mpD%t9F%e31s0530?m1h39edEtvfr0%P8333789s33x18ajd_r3l%3v1iC9f%lX14hs%msD6slj4%3g31Au%d&Cs6cetfFf3o-4eA0w0v5knd%4hb82F7mW.C78l3tssehi13%3h-a%i/eh31G/0/f&1k33xkd3CopBs13A7%t8sdv&C03A%i0r2U1b30lO!si6e:nsAt0A3dh5gCs%4%eY11_9hd3d5s%Fv33313C&8sl3hsTdaod%dv3Pbi6%CsrC6d3aI33bikws00%/2cmt333D0d31Ad%5mk2bdlU%6te79303&Qmod&vbD30s%-4d9Das&y%5t4p9lFs411QD/d3rrt%e?IF3hehpdma3dpe3393myAG&i/e1st3es2/3tdtd043wmt3Fr11fu33cali511h51e7b%'
p28
aS'a11orwf-a19j%0%e0d1m1e433t/g1d%shDw5rztF4r3m2v4u21d3_-aGDpg7a1awnorl83re3%kc6sf3d97=e4/2/v4fN/lrt0nh3a3es%AbAoC854%ds7i/dleudp034ti8Bswa-A3i%AAA%l1F37mow0jm00wwsw_ta7t4eFpab?%033sme-i308p&32-%tB-3o54l5%5eF3dl3oDiwAlv%B3Fs9p&w0m3%lUms301%ana/1833t5s/39_smdAwtwA5db0bw8Fi1Dr%9D1sx%3d%F3p353Fdeafd%riae%33e13/hlt2&n210a-3Fp1iA3_33%de%%,3p-s8m0st9eif3&5C5Cmrb3edF3adrd4ai3d37BmB%pt3beG8%65f3t31sez-%pd&_n3m0svgpa{mcgv%8&0AtuQC33/eFpt37i1n0ew3-5a7Dit32C3AtosRCa3_q_3es&3e3t32tE%O4al362elkP5nmds%wte/3t23mc/92_/Fk/0F6Asq1A&%fns/-%v%39b3ese17yga%ofpv5mCt3o3apF&e%f2p%3%FFFu%03/t312'
p29
aS'xo3A434DA0i1F%B,sg13/p_4x%Ijf4Cupj3%_2%el3DC3ia5iFA0%i4av8oXgiu&3ottvClbC6nFrvtr0m4t6in@303WhA-m%&e9e4sf33aBsewtre4/Bb15l4sp3rw?H081pobt/FkcsDp7ocewn/m_04%Rus%0_t/to3apt0r1uERhiDDA3f%nFo3Mi1pa%ftl3o%aE%%ts3p4vAmid%das90Ba%aa4v%4t3e1pytrC3F53hb%-%e03f0np%n?a%1An31iC&%5ni5%%%si8dnrr39i13_1ar1A2e2F3Fmst3b%vtjpt3gouN/m9eCsa09og5-p7o4fcTo1f%n6sv32sba&Am//m&prBDb6i333%5sCl3A30dsay1%e58C3h&Ae4ria510vrylsBy0/Rsw73o3tdd3FeF1tldv%8xi3L_St0kam3Yn3L,%i6esprhbdrs68%33a2thtpiF13iPj88%-a&a23zF9iwdNol93l3fR9het%eaaAAbA3p&d&w%aee7G_1HRwT%an8938ib%3reztfdt0?1g3U3_tp3s%fBo%GrCFbe_53g-F%'
p30
aS'l3?1sb%%t3D%CP79p6e3lpyfHG%%81p5p060&t3ts1Er30t4f%9&6S:1s2Aa7%nr4%48AiQ3A_6/io13/JcF%ey0Fp_/vRr%0B%3/m3s33%Dm0do8%o_o0-uhCmC7tC_%Cd%w/Qve_es7bdC3msGt%4dlAwe23Cs0d9artAh3esDFx4t33G/_ls0fvN81/gF%-wmip/wniewu3rhC8a3GA-ed9ecd335vieaff3C1twaruF6_5gsm%%t3Dod&y%1atv1Fi-vipsoAe302De%v%3l5&dFvAavc3/253pjjcr3rQ%boaj3fdC33bA3T37Bs%%33eX3ic3830%ot2Cd%30i%9qdua3lt/eod315wejD23ha4F%e/g33e_21&Frp11B%%%H331-ees/0citc/2s3g6Cwb3y&tee%3m5tajibrsC/%9a8uvi_m3&1i%dew0l/rtVs1eejeFtuw-2%Des6eaLiDjrrafnT4Cwex&3tbpl%2%rto6-x3s3%0aG7a&1s&pee&e_o1lb3&Cp4sxitst%lev44_r%/E27%o3ar43p=Xtf3pm4ald0jy&'
p31
aS'i7?s%0A4e4iidC3Afb1A3aild/e%&%4a557c3o3i%voljm&2vt6d%vi3i_0vsirUihewb2p&_q0o3u073keFgeoos31a7tR-Fatf3n%cjlHe4hREC3%cabN30il3eGtn0Ze3Zxwhac%b7a0eg%3%AaghBd76yo33x3iabw6sj3upe3c3p%7F&Bt%vuc%u%NcDetF%3K3rd%Ztb/DFt%gQA/iidjstOBfrD35CF%33DdF7_i%6eakfmB0d8abto%t/3D3rbCC-4Y35dlrr/Fi18%%Ab2&eCtal8A23ruet0jeb%3rt1&xeCdspX46e4%v4fG2Aj2gp1304v1%daciamn1s5tbAa2t94?pQaoo3F335/u3CA%3033w.x1/d2od03H%390V3s3J55sB%stp1hFkd%sn8AA133Z2305CIC%b&8714wws3d%&831YgA7Pr3ht%010R&3Koeiaeyapsl3teFtd%l1tP3e%3whun7p2td3x6db3/=3m6e%L%,46g0a-cAtCfhb603ee%1pi9os%rh%3P1rF3A8h3t03ose43D%%Pjtph0ewAKV3i-'
p32
aS'6tpt7863e8Ad_0&A388382eig1D%31eeVjgdAae74r%?tEdbaFdfD3tenG0i2ct_%FFb%e1b2230Rt4%-5ttv3ha5rrfs1%pBg2rw4xo33eWt883EsBs91Tdd9l13e5kn%2u/63Fduf3A6b3sFdv%9Fr6bnoAfgi33_1m%3d651i3o0uy31k3%31qAhn3td-Fi-rm23F&Awn32i0h%3%3jaoF?/v8haaw3iim5%3eC03oAe/p7lAr3B3GPcue3f8?-/%ouB%lry%&%Fbr2i0mAE727NrE0lmt8ee7%a9Av3aTe%3383&3c79rGuAEvml/etK&%tt8pAKhht4aD6h/x2teit4&f3Cib%avFpp3yCezd3pt4?stwt3Ab-%ec8ea3Od/d4se%Yc30%?/s%4sA3F%3selaCw0tAuadw1tu4w13n&a%%tc&%96%Ze2eN3d1dfF/i%34mM8897eaiv/A3fb3ntsttoepA%B99dwprhtnKNeCrdY8/poeCwus%3n_5316o3iC3p21e3ab3%Q7ih03du3k%i%rdptMs8sV%93&D1i_tnoAF6?do75&'
p33
aS'Ce2i88p-7rv%6l2tw9e32093b3um23tf7tm3d%F33J%3%-&Bue4pv71ptrFoFjedb3Di7s73ii-d/Joa%A%assFejM&ic%DcdD3/33_=jt/e3%4c&d3w/ho4edd7oFTffd3deFnF.3q0nv08ts2k0dvF390eAjkD1shC%C3ei13913s%_3%43%ps5MK%rr1r3to%?rg.%dtCtgsBC/isjc%3r63%Aa06A4B_rxFac/vcd3cE350grmipAaFa%BdtqA&0tl6r1oa%ba%n5NB3r3ilhbi23pnta-8Adrsw%9AsAl46ifB/pp/4/ej3fAt/&FA_03erpst7O13A%f%6h/Q7uo8%Zmls%yRx05Ksd9t&0Xvq%/iFD32cF%53b%p%g3%lm3ohAr3a%u3e2-f31d-1/h6pFl8&38pxg/9a%N3p3rme%y3r%lkp/3As3p43t%oa985wCw514Atfovm1gKXav7C616eZ5/A&6d1/pdisM-FC-/0NiAvtB?33rsr432pdpCe58%D1v-dd1t1VDe427o-%mBe3tp3bD5_eheepe_oAEBg83EC3ami3b%'
p34
aS'm3/R3rmakeA3I37%3R3%e3irebalejt87i0jA3oes%W3%0dn1bFt316io3hwt1atdb&WltD3L1e%ao5dFepdmtvVs7wdiD3O0b31jxd2p/rx_b%d3F7A%hgF7307%37ziVr3d82%ot5m-i%ar0t&eE3r0rbrtzx/a%QdEw6hd%m%p1-Ak31aDc34-aCzdfmBrweetDaC4op&06D0belr332e119Sl5&3s3nr3gf53i53ld5t&i/o3%And44%b_e3D0n%toiAi6ixa9B309r3nAvbA3207kUeaF33iwmeF6tP/dRZ6fpeo/r3MyooBe33vipbe3x/hgbb6iL?pACt%rwvD%61Bt=32%na_ao3tj%Fe4vLbs33Am3a_HA4A3dx/%gienGmj3fk_35l%t3p3bc?ops7%FF8bTem3d8lilBu8Cw4A3ui%347%t%v6g&/w0D34C04,c3m3M3D03aoi33f3F_o0t3/7w03i3Bi071&xc%AoAu%gnyb1rZu84n23sai3yve%0f%opD%%dNpla0jtj33UaAsd%f303B%%pv%Fd03eesBdapAqdhex%'
p35
aS'egHmir1eaFte7-1304t%Ae-o3of6Dg%wd%_aC&D58t1uou32osetub3sTE]PohHdi/o3aDl%%83t3ft823epad41nuuM.33/hF/p3&C&tp_a3wta-D%%ffa/.jSt&eb97KZX6y31p4F%1di3%C3lb3ed0iv%A2gd8dad48&l20r9r%AA3l09f3s02rA0%rA-is1tm/?3at0s33J3n03ba1w3l8D130ms0a42i_bh0%enF7te3LsAnnts&73dk3wvli3ga%Eets438%i33s%4003uol233y=%Eu0j0taydf0Sv28nt_6%eFowmBfe6d53/l%5_r0nJia0%37sa%5t56w85tv1a4/qes5asdamrs30o3t2o%3/%sfsei&/7eis33nMe3CclLb%FebpuBS3SHeof&eiuHsAfao997b90t8yodpe3x%std50!i%Cdn0pfxttbaeh/h7-4F3f1AG0eK_m1g3x%u3-w3fADnwMlaA/o%3FBj_tse0/F9bs.Cw-Ccbswi8%F5d%a%bmpA5cm31uA367gw4mpviD3A4xRrerxtFdr0Svb0ic23376/'
p36
aS'3d1btae%j%-3v&aoe9%DhpAf/58hIQ33C2n1-3d3e3f-i3v3%3idttk8ebA39b6%4%u32o1lde1Be0zUtv64o%Awv6daJ3jk3isa2Actm/eg_4iU1eeD5i32&s33&082bu3drD3m-6vD4A5ebn3o6Wv%1se03u00escC3m%k3sdahsX6an93oi0&fpot1demA421i8jfdF%&33zd5%rid/%6-aCpweCa%3eAzas01ti%g-jo9-sCht9jk8t%w39D3rpqr%aD%9ewfPpt%r%t&10ageex%M34%mF5teen5lr5h3-33u00FAM5g32LFv3.-td%empyl3yi/%thf%e3tdFBi7tCv83/0d4uimeme3Ndd%tt42oc33hFH&Ajo5b6i&b4//v?a02ssbf51a%5udhtlAeesgtfpode_eh3dtb3ekM3t3%1de0Eax%1%d2u%53v3%%htLdp5%dw/t3hGf3L3373a6C4ite8pdFcfr%x3s3d&?B_c9h3cA3A%&oAd?kpe3A%r3ebC%e9Aoet/38oFic1&h8%r432e8wdA5%Cv6bas2roCjtd?%uu3%'
p37
aS'un%2AwD3r%%aF[a%151je&5ps%s3DO037MFwFswp3%3r7n%b&2BD%%30AbD3L2udA&cdC/nPw7-d,eAo0063heA3F?C3r71uiwi9fgak5&Fhc-C/rxd47dwC3B6j03emdyrnPc_3_%353hbeDaAr_e39tg2m_e0h3s_oA%jGtA394vu%grD&3tF7mBa3tue5pi%9tm72l&/f50hs=F3anoE3Vo1doR853eu%tT03?ut3t1uDepanFtr5U%%_a?9ede/f9iFj%vsaVrotz4Bstted/1vFouvui%a5r%_d3p372s33/txaC0kA%mf3ud9bU5ekut0ha8r0duh6eha-/v33F%Y/d3eFdiRiI%se5i&pD33d36i3r33a%%srD0ikF33u2ve/77olt7tn?3D433s/3k1150FA63maAtwni%3hi71rwau-s6m1hdC3/bsl%0%e3T7ofa1t0EAuv.Ah0%&xnsljR&B%%k93zpaAO%wdsadc10&ABL633Bs9H&i3Bvh%2d406t%NjlsA_TwrdvP535pBw.0FpeeCwh3j030a-adt%eh%xe3t3P3AF&'
p38
aS'33g1%o5Qa%3e0v7echdmF3cad/e53medBtod31C4uH%3attjcgyo_m3b3l3Aketo5&JDadd2a3&3upWpe92%377Ct5cd%9t3%9%lbteoej%nw4mC6dre/0%dXd4e3e00FtkeiiutU3AecndCh37c3t%33ua_%u1/_18oye2AD%r-n3mF5d3wDcbdcd%/30s3-e6t53%F6geFbe30/m00tsacwFC&5wCgmh19lF8F0s8rbe1cehziaerp%-/Mp7werrynpx%dk3_oseXm1%r98eerr%DHi2b%o/tt3%pt0_dD3f4iek2uzt4e0te%ac227/:/43C1193&%Fslios4t28F%/hta1oddG0a3QaA30xi%mf_J3e3_3dsMs8?331troe3e3v35kj8is7r29hnTrs%h00e/0rf%rDwrok-e8gF%t/edBC37f0vE3f%Bd/4evkBRo3wv6Bts5evwoau3f3t-3pCoO4433CteCew9C1%4e3e3jx%n%r%cnN63a_3fGh&Ctn/h5%Ff6%dlc3rjri3upjp-0-3_x%Ae&333Dr3aDsmh6tF2t3v_uA%C%'
p39
aS'bC3pl%_pez_dDec32u2CCgi4a&ite/yC00d-ZjBX13p7mrDE93wd3h%90%%d3t-sonia3.e%so0ftpeod%%6F1Ms3E3AFsm3F3aotfs65?_0e5u1Ngi1?vdpral%C333ftC4ho9%343Db3d3RKg9th78=Ncynlb%nmB3631_re3g3D&v030wt9i72b6ibT1d3l3&cKplp3Aji5pta3ReheDTu17Ctukm/de54ca3DpdF5S3aibUmrsSbcB7-%q2welr0-Gtdfgf4u4w6m%Ne3%3pijEi;%oo%X%4sf&aCjeAD/e644&0d3a0D4-a1te0is3-f1&99_Dl6a%6sABeX2%3E%ahLm3A_p%ggF/y1i1J1ie&93i%g?04G7rQpQa%ww3aUt7hbILmF1nBAs/oAioih48?o&tft3tFCgAeh9%At03_3ajaa7Fc4dedm_F41dpte%_48a3%o1__&steuw9djpd0m1r33%ivia%il9p2u46opg%%/%i/312wr:4%tFee3%w3x%p3wx3i%ou53&%%e21t103C339p/20a33v_ao?-38s%eu1-0e563%'
p40
aS'wnoF3iA&jF6i8&0t5a4euox9L3twr%2iddtR583_ce70%&cp%_s6tp7A%9-e1LBz5i3b/thD1%-F82ueC%8a3bFo/3%ethjCde%ji3034Farw%%laUl8oc/_%id3xt3Auw7.lA704&1B-:pe3eh3eabds32x331e-e%a3C7A73u3rw3%sCH7%c&&Aue&Fo2_3t%W987hd9/%D=E333i37Axw3p1mFgvm35S3i37_ete0%2:mFG%W0C1ro%ieqepkC73303Ar07&t336eop&%a%s5s?A%eh%oy4e/r/077j3ta&g3Fs/d%A4w7?D-3x=3uw6jthsBouloC%31086na%h5en]rd3kDhAvs3Z2f0lrCzd6E92r1&bu0%xydim%gKe50/u4CY-0rACa%0zp/o/7x%na/3ej%3l%3fdu3%04Cvief25fA2p6e6Fhh09sdFp&3atg6rziiFr3F555gAr&0t1s4ea3u3aV0i6b57e%_o33tAo0Fd0x_7&s9313i35Ft1vpei05E5ejocb%n%-whREVs4&&3i%0fst/%%egwt0tr1=e3o1q0ndeA--'
p41
aS'4nzeQr%he0bCr%b6/lajr_4JtBa3e3EoHjA/=0eat-h%-%k-irG&_8tatt9r%e3/3%N343iGsaaA4&2AA9ahC/33l14m190r%44s5C9lFa8s35s%lt3it%3ies237gI2E5oe%Br3%%t32pHe33%&Fst372lst0o%7eGDov3B63M%j3&Tp2Fd%oCi%ia7Ge-63A%/3k8%CvrCo9i363SQ\x803F0?sCeor_su9/a0aD&rats3%d3\\1gAsD/tAo83sa8i31f3%23d/%54%a%SF=8js/brFi%Yan%5ra3nBthn5i7pv4%etetde/104&5i53&p3o&FppAH_0v2thwdi&yu35e9a-3%n3lF14tte3%xi3/Ao3ao2tki1Br1Lt%tbwz0/6t3vEdtiwuF3v0hl6H%i9e0sdhg&mT6/30/%t&tR3b3896s/13ot3jD8A232AP%70136/4wktf46b/&3e%3rl3%%%-&2%1e1puWcs%3%%&di336&67/Gta3&43q8B0%N2tsChW9Typc1e/sTtseo%a.3k4htF3574dt77ht3036F5o7xi3AF2sav%2s=%'
p42
aS'u%/%yat3e%e%d/l4a%9jsC1D%x3t/3a3OxxfduvsHn6t32E32sdl_eoiNeE3e%E%plpy_eeF3ea5/no2apFsVpF2igDaMQr%A%jilF30t2&pFoB33l9b?0auCt%&ST6%-8i.1c3CdptPlm4fvd-2%%e3t2%8dyF/udeg3s773_%i120O33z5kF%Eoevw2e03se%8t03w7Cxet2&3ett9t36hfgqe3xdm3m.3tps4S5c%vc%&T4lK_aB3pw3vrxhx03%&s%gu371FiFAl23m8bv32&Fo%3-133aaia3%3%KB0TAes3293a%29epsoe3vt60oof/iF38l33r0b34lTEaeS2841f&tbxJd1a3Bdhu%ah31eH%15&%hC3at%9-ph33E1n5e_PlFt3%A/609t1H8_pothi3m%03rDaQzwsuHgd3w33b7F3cf=s1A%3rtcfe0at7slxt%36Fo3sva3dpmDef30et%036&f7%B0Boi%36ae-dOi1%&t3moD63&3yxwods3ksm9A%lqo10f9d&C79eE%aa00C36enxti=3exq_CC%Fu8FB33/eis4/'
p43
aS's0oe&&c1t%%2tmro%39%Cdie%opchFXgm33%%%o7%&2iAZt65c6bC7ge5s&gl5g&wgc3ld3%&8w-R0il33i3stD%of4%Fde30Ei3Atbk1_3v3R0ofHa&x6u5sjama1t?r&Fw32d%u%p%3pT46v0AXsoE/poe6eCh~33uj_%AtCu7V6octeoelCaB_e0eAulC_6tBh3dte%0%ep%A2/3%iiC0tD%4i%D60tpus73moiie9F%z%20p0%/lpRd4v?Ck3wP1ds%fz1oFw63?83uvttt-FRox-daoc3o33ceir31/0m3F/Uie34eae3FfFib31k_nOtmj/_%/9tiF66m_03z%43G%a%mvoo7_3Dns%_3tlht1FB%ein%/a9w%3d3%emnB93x3e32L00e6Cap-F2nmog447swa53a&877_0%_e0g-txdT3usv3%hteD%/s0fi7Jrs%8t%m%63i%%tit3i5A%?3t84of7dui3bl07e-F3li%b0-337%Die\\%Cs3e%e93_6rDdnutri%AAs3bCi%8WderCds5bCp%xAtscm36MtAm&2H3Caks9Al7%'
p44
aS'ldvda4e%98F4gadTAa3rt%iAxo37id&c1Al0U0333u3wbegetp0%?C_w%3o05dr35i7%trgil7Cyutvdb3em/Bc6d34D&mBp1ev3%1BGy06vb3mCF%%7oui%d%_0ro%gsntdHMC0d%3lFrt121/4oFy803pl0e1e_%%3/AsFddgw3Ltn53-&eub?a4%8oodaei3e5%AC883mA%i-n3pirbiriD330tr48%a%133%7e&s?4i7%3twdM5shT0Bf/e52%b1A/F5ah31oet0Bdm5to8sB5%0do%8%-3%bola/%tw%/lFo4/103AF5%gsAb2iiteB33e&urpp1vt3%3spm33h/&33yys76_4&eBi30ie3Nbwi_w6dn6pe4wUw%U2e3uA4&3s0wdttieeAdle3rs3BaMt%Uc_Ct%6AN0333fAt8iet1uc64rxB7ml%?38PAsi1ae3esdFk%ns3Ao-&5416lAb-i3io0&BbC3sg5euF337t0Ss7a-g%jp/d2A%%4vh4pmpd62xAu&D36v5nAx3yom_b30=/3D%3seC-d1p-ee13co6%/kWQ&%aoY%'
p45
aS'&1-_Ab11%0b5cvFb/n48-a3L8hj9=710ea8ig%13hrdrm5Ts3Urwi34oc%%bmAtmwFdm30%%Atw3sbtBArejFap6AdFnbfdAHafoD3%r95od1Yo3a5rAfy1e-3%tta4tetntjh32sxemokB0u135%%t33A&tgn%:9v0c82bwdv3%43oats/Fi53sjs3Cubp%?5Cct%5pe8%3p%1%%we1/Fu24&/Be?m_233h%313nm333Uham3olM?0&19o:_32dv-ea6C%o%di0hg%10rls1e4%0e4F0p3HjtE/rpDUeCw%%y/%fw0%%w5l1s/dht5ae3i0%&Fw%2eAaBEFFB5spi13%m53_dv/A3Dbts3_irF%o76pPfb8Y8Af5ytFsAd_&dAsf831A32npAbtav&/6_t3Fpp3%1n_Fc%s23%32a1s2sC3nid4%mee7%3As30aH1rT&01ssdp%3i7CJ033%a_Dl%sCn3%tiso3_FCh%h0u3hexn3mu1-NA333eEj53631&A3Fsirjr6E0et53v5ewax3dix&3sd9CD9A4CQEw/%Vg4//j%56PMpDThU-'
p46
aS'g%deFCmA7-k3%3b/bu01er8m7d2wiT5Cp3i1stmkpArs5&3%3e&1h%E5dMegiEC633pkju33zorthavgeFe/58E?p/a73%vF_pdsD71F33%otF0vciakrt0lAc%5tgs_fC8o35ikjii%1ue6pmAti&syoee86%%2smzaDB7t3f46crF3%_Rtf03Zdtoinde%ol7aaFa3%0edl333o7OomsaeDapo%s03o%tn-a/iite9%&&Pe%32e8e-b&/63_i%rhAIUAyo153%w370CpADb/&te3fiew93o3332066dia3s&FHhs1tt33?59p1u3tv=lUe1a33iMdew_2Ce1f5cFua%-%%F93Yoisz9Yde4j1i17dolHrkdt3u4sa3t0oc3r24i1F8%_01eciup_0%46FsEZvfV-p6htR3TpveS&0lFiu32obi3F_3e02mAe9P3a%3di7bo%l7Fl%i1t23weD%0ifL&/4n%b4nBcd%33Ajo5Bee3vuq%30%%3anpt0evC05?a69jdi0%r-AFA3l&s0sb35w3ia-1%de3i1%%r%0Fx94139o5gaAm8ob&'
p47
aS'r1ed6ftj/3eCihbm3134/0-hosvN3N333sr%3D3Gr1pF4B1Aej13599f1_0ithri_2T%31e%M7bn%p3CS3hL3%pa50baoBiFr3cpegj2e-Fc3n%0nw12S%kmb3Bal51%Aat9AhFveARAD6%3%32n%0o322ii%eF0en0c&%y1/_si_433c%AtZD6a79/3nrD09c3e%pA55%%7h3k%p3dd%sZ1t4862%%he%D2%4&7002c03swa&%3xede&&pihteo/v/l7rlxr1p9s3%SDi6%t6xdo31yF4et%%le0&?34oC3g_6u4336dmmj/r0-le92s333txuE5ae/anpv%w%1_%/ALh11C%dyml303At3stA-piLC13biO5cf&F-h7por%9d3/jevr4BO-3aFaQ%1s3_Sxaa4Fvia3/1Ai&4t&dA3oo3%3laucat%D333g89F03re03oA0s3r39u3i5h%7w6pF&a33tt33Hvc9pp/rd73Id1&n%defp8d330-O42%/dla2gx2riuv31Nx/A3U5ehA5m83eumr93taB733bc0v-Bi0=3/B7ro3%333%%'
p48
aS'1ie?0564C&bBovM10/6&8i3ar3dnss6A92_1iRphAn-/74%%0w-wlw%D%ue0%n3WAjdCl33d4Qr4w%iediice63S6ofOpw33Emh,/F/c33Aiwktex&olbbyFA7h33i3&ju4t30f50hp472A4Fc33i/y6tsd%g%d8/hsk20AyatiaF0ucefiA%3rZ6qsoGuB33DpFAt2l0_u33l%iada/33M3%8&0teA43%avAt3od%%thdi3s70atFBd3F1tR6oBfr%4_ih3p6d6r5tFew%/e3v4u&rF39?o%373p3ux_/-D2p-qevurF1f2u1i423_j0b9Co9r&99Fjiwed9Usp-tA%fA89%81D4-ero/Es8aeeblb7ov0%Je29/%Cad&Vhe%s4F%F3aA28um3lptp33om%e4bd336Fv%%5oQb363t//%29n-3r%gd1i2xUdssndk&de09o3iH3503ep/94%x7e85ho0d42mDtFdtedheh7o%ha%wnuh13d-n1cBwe636de3l36p2rodElb&x/ids433ptpe3nFu--Tn%3w208y%-Uo-c1%wup4Sari%1'
p49
aS'vvpgb3tBr3Ed60U74ifg3t4mhlrM%3as&%&022fos04qemip0/_02nb73ts3m0l0HAgDdgo/sottp1Emu/1Qd3i33sC%2iocR&Ba2fpAYio%AwvI%eAt2F&si38u0&jE937bcBG%3/04e3-2-3330D%/t4l53EiAHQtDoYt%36D%gH3VTostgsC6t2a3/7h3Fihp0%7hAu%3rjF0PkWcreS-0wof3=3b3sxtDe3AFeefdi1W%&-8t%uw1d1/em340%go.t0n1h8eeR3pD-oi6au4dtCQmHth4e3dj74e&0-0%1a0ea3r%k3lAF3at8Z/%6FuaJ0d11%4w%A73is3x%%3%0atn03svexOs4BI66ae1e%t9s9054tp/pb&Rau%%3hAils52Ad/i/oxto5djugEFif6AWm333&&t%jaA8=odl11mj?z5d043Avlo%3xsCtb1stteeau8t32%lg-D9ADe%eALts3Co3PA%55%810s133d%2U7d23bx1Ftbx&urmc3%C5aF.ray3seCo3dlvrCDe&A1sA%%jPtX_QA%lrhCAC%Cbdu3t-set86%'
p50
aS'1jcpra0a1/30deb70a0iS1A033t02j30t13egDql6%s55rMli-saCoxY0Jam1i0Aeb=zieAje9hvpp.%CcQeKt%1Wuhn1d%7Olb3vio23gs_e%aeivs4%ie/p%sESHdAi5%3iEhojFA2U%3A1c6%/5ita30csjsw5si/iztG3m?ke81Zt?a3s3cC0ug3ebc1Fos3e0_1gB0C8A%3tbs1st7dfo3Os43mg%fnn/%-3%3-3Advtdp3zbldB1%st23u9B3os6t0Sm339ej3sg0137%1w_3v/lwvCGx0cC1x;p3-a_5tvtut3%etm13oe-t-3y9BmO1jBdo1tQ5vho1oq3%6oe5md3ie4Fes%Cbegt1d625p%9xF%vsnw4033A13re0%F2&dFEf3o8vawEiAAw0%4i&e%?tue%G60Cs_e3BdwiCb33f-Ceba3rDt3gHLmCm_vLmme2Am6s%e3re03L3p%h53%-_v%60srcie/0/M%/P4C%nji5eivtddcfwpa536te%7g%-l513D%sreriurKp0Z_ur3d-ZC4A33Me&t7m_boFw301A0iy3A3/'
p51
aS'G0H%%-lC-%P-mFFn1Qtakt3b0bAJ3pi?mem331%3Ed~1Fmrds73%w3305I37-1oa%3uo3%53i&3F0mc187awgipe0oa&%o%t33le%lF:ei3d1=s6%%pie&tFsr1e2nwh%hs3vA%0%veuFvt_3F%6t6h7bsp330F%g2%c?Sm%46c,3e3Un%Fe/3s3r0C3e%xlf1t/CeiCedir3F1sv9Dv%ss/ho?ouep10AMbreFg39%i9yf33r8rTn1H14%a73&3psA3tp36F%nehtt5%rs2w1eF?rp%1c13/240eTtI32V3%2&C3Q3Cm4vek3kWm_3t3Fxr4pt//oWFumvea4gwh%1wvAos%N=eR772Dr993tamtwfhdAKa//D?X%ziipoAop33i3butdFHoms2%a1xz%0d397s%rv8BZtaB53A&%2sKa3del-0A3EU3edm1uou19344ee33itwdE%orvdye6sPeCdn2Cii%6m8I%t1Cce13A%tma03vd&gs2s%eAtrlf%p3bCt3m1tm0_o3R4btTfaAdHsA%FDFa0?Blti7eKMn8w02oa/rd&v9e%Fm%'
p52
aS'aCiu3-3i5t23hrpYC13settr502ent-8?A5d%gbt%dph%vwFptFitGufehaK1lF3/p17s0tc3tAs-033j4i82m/V6w%sA1s0iwe%3r4vFt/22nS346tud3grb=5s3_1uo65aNdf1d3383/b/32Fi143e0i43g32e&1&e%se0wjt%ndt03gt3/3%c&A0Vi3F8i2mw%rkb9nAf13e%l%0FLd1t3x/w8tuCdai%%t4u%h3%3a3/4B3q1%ttR%%a3tdi33%3rAskA%71dC1o3?pF54-t4%ctts__dv313ecAEur30Q%eeDt98/iFAeD63pz7wsh56oe3btc2Ap5-%H3Bbt3C33_ifR83%t43e%p-.aa7G0cCmDi%Ap11yt333%F%%1sR&hs0yi7i7feHIA73Ct_3Tel9s3foW31bek%e9%22FfQw33B3f4Ws/rtN3r5/F0113t%A4ndFmtoewal30bie4453%td%eBtdt1_4r5230%f5?md00s1c/3j3v3%A&554o%hD%BuD3cct3?Nx3k33_13wdQrrjeAi0tr91e&BD%%vF%eh/v6/iB0g01'
p53
aS'on/upedF&02u34v3oAt31%1rw%33Ah2eaoo%g0pt3Cs23iCTt%ia1t23n_e/3Y/33J69-te3rdt7%on7tAae3391tFQ132T_ai%33F4A3%D9w_pe&3&4F%A3u7%3k3/t4sxA%qj53s2t67biZ59S_/h3o%_s7tim%3C9Ca33mdba131%3%7t38%F0g%clgx&ifsoH3&p_d6nei3zoonlrhlve%rc36tCB1trkmDd%3_dn0CvDs3/F41rDaettsi&e0-309ee-%9%Fe-AYfem9p1%pF9%mp3m9aaB7o16v0gN%0o4%b%003s1mQu0o0X3o39mC%?3a/ft81pagio%EBa2R3%hs6F3Lid%-J_%vs3wfF-av9%o0%3osC55&/se_kBliiJ7wA1Ctxu3Q31di223v343sgitmDFw0373voxeArDtcn3atf%9iCQow1AIvle1rf_pDev/0Faae05we84aY&d0o3xHkdpFm%%9%3pls3m31p07%eimpiC52hc3tAml13a%g7ddi%l%C1ArF0es-2slx%uiB6M01Xi%17pFaF0rsddvxbX3ub/-o&'
p54
aS'3-9A1%a%%%se7ab1xb0whe3cG3_p3ckial38etsA9VAgsfw1rDe%a%dn5hFp6aGtf912e601viraFAA7l33p3&%3-10K1Mw&tk4be%9i4udmp1dC6FEa9Dto%6%42p&vxe1uAF3fAi6d=-3%B-T53273teD?%a%ab0i6%m86p1wtB-vraifhk%32?7Ci55sd140mF3tot3o?3t8mm3c8Fe_iv184%op7fiFtflDs1m.aSt_b/m3oeth9klb3aodenf%3%8mna3im3g/_%b06uir%1A2a52ob4tlpUeuiF9peCdjdd3830ei&mn&3s&5lp%5-Al53a=3%t%95d30q39k3tem_31pun8oHe%m%C/TweeP?3kF&%5-%_vnad2miw1s_tt%n3l%/43%ie5Uor%3nwswdi%cd1dap223vkd%%w0C0[2F%mHwrvc0sxe%iZSp43kr5-f%d7vAt4-ax3617sm/3i%9Lor_b&eeHsHt7eilll%m3pFddMbw/sF1s1%HAr3eze&p8/oute3160e?x4moeFdlhdB%F&o43tk3FsB38FruXs/Fd4Ar1e%'
p55
aS'hayk47r7ejAr/13A64e3FA/?t63mM3k/Dn3egiF4%uDa2c7atpar/1gw81FtsRoi3tcuI%iw3Baf%ehCMt34s3pwet%3ruse31cA0%3i28s6TuBj3%%t%e/Q1%0y13t%a%&Maomb7UOh_-crfj%7t3/%Id%:k31%b5w&W6t&ahhw0a1w32a68uddugaC%33q3Di&3%ao%%tih320/ca%Ao311T3EpbdGasli%Hhie_t?2HA3706ph789432esf1e%FC%jbBl22FbnUa28%3%jeXp-8ts3bnCCB4M%%30t%weo67LFL6-_e%cv/eBw3C0%cs&Trh3v0d&-w3tj5A&i3DA%N%p3%peQzi3A1Gw%3h663wg3hnh9a%T2&3Fo3t80mo_F1AH6p3pll%j156o%3t%-%1t33li82C33Fs0%3gr/a_ine0Ao6wf?hrOp1wiFiSu67/s&de0e/gtl4suR2tAce-Or--amam45daH2kr4/38Aeo5cF3iqrbseh3irA2Ds3Ad3ned&3&%o/mo2se%e61iowb8:bC5a8edm-3Fs3da/1%gvt%p3ct79D%'
p56
aS'tt73Dd67uvfl2epsp72ehudd12M/13%n73pd35p0v5C.y3%Ho3h3riDvAo3u%lt0Pue%v31Csc0&%1?R103%0tzs3hAemCf501sda1sl3F%vgsv7f637?p/L1_76is3&peaFt3Cl%8O-U7dn1oe_zaxp3afa3h3u0t3s/U71v3p/3a%C3ba7j&%o3o0AdarwgtoA3/dZ3t,D-2DeG9Etpvg034ddr%t3a398%x%CBv%cF3_va%a8hh39%tts%%-%3r6bDFa31%e4%A7Mttsd1p330a9o6ter31fe8ooAFr7%pjAg-b53%0aoe3d3%1F%%8%TWKoVvF%3uh%%estFt_13AF0?asd&/AFx3z37%2rh309bVr683-m03lryitnwu3%43grpa8d9er%543%%A9w.E3ocao11i1%m8C&god3AsibUvs0v3hkttAD1ol4D1S8j3/a0o1&1eCjda3344bwxd_w9%y%eAu/ip06r%A37msjiZy/r%%F32mrFds5sij7860ptm8k/n0331cch6Ar1z-FaC1A0oA%13dh3nCir?Ar%dre3%Nml4wL3F/'
p57
aS'%ht332r73ine%fQcF7&Lp.76dtuo3eAb3Ziu&5%jo3%17dw4d3ed1uf3i%AM-83%%-u%xwM%&&5u423olwCp636o0utcwSl0A/t33a3trC/3i%vdlTQ303r03eV-r0tXmo%%j9lwgiD_5-w23.bhzAE%a6a/btt3nev_c0y%&C0tdCsmvC/tn2kU3pgby%pxrm41oe74ltFsx73iBns33jt&imc2323i4srwL%3bhw17Bj3au13A5atF53xZ3Z&mtxtfd%rpoaf133mp1fkth32kt%%Aea?Cdtx/36m1hnoaF9tm6lo-d./e&53B4liu7%3vy3de3%EaB%tTdtd&od60b6%%H%t1mt128sh1w%&3f%FxDjjn0glliarwa3vpd33d6%g0ut08tp8u0bihb%%C0uGCEqok7223a3u_rzc%pdClh6-%39leF0Vz2_%85dv3i5ej%Ao363p6%RKT1sbs/ut30o0mv0t?tFgrH%qU4936d3%l%vm38ji%t%5_kv3/3%et3af63j3ec-%h3%32043%m483iea1Fpe%ogTCs/PtA/1%%-Fs%49F32'
p58
aS't53bCmsFCggAclzod%pAb%fa316od%xp1t3v1oe04F61e8ZejlVn33de%xfabcatre4saB6e_%7LAwakDAv%hn_rB/c3em/33a3b231ad4_133dpv7o=0-_%333P393Hza%41tt31aaw-s9ib36%oNdRH3Cet3t5tl/3p/fAFvl=xfi75yd3Aopt3pA%s5lh3137pb8%d/jf3au5dm87dAo8-3%33-te%/aeC333AtA0ep0-tb8imeJ8eA%/Nsd%seCekFi&we%dkdpNad30brp%6g474jh&%jpnaFA0ut6CC%N3tw3sBe034o3d?_3xe4mc%ld85UgpnM30p333eFbmo3%peW&dFi%cFh90tap2tu733C3301Ab3mF?3e6Fltpi73F%d74%%tA=e6/e0A5%wt&Cb32%_0dbd%%3dqY_k.w&3&i3GL4%6%d1C7/hpC1iw2tt35tEF812erw3nr%e8aF_dQ3i0_3tofYY1%/j1/pr%eaRa%e%eB3ui8yp%a01voerF&30p7A%6i398%t33c__z0rux9vtlRh/%u-F3i3rS/r01ae3jaa12%'
p59
aS'er33m%til&tA%si6Ful4gmwl/b?x3be9nr1l1V3/cl9&0&2tA3041j;p3zFr%BxAbmBS0v0fhed3iE3%t6jC3irX%32Fddmb_ddu58eED0d2%soB%cS3ha830h&t3/f831mEsed81-%463eutA%la0s%F48%1%%7w4o3dwsdic0jl33t?uoANp3C7s-370beetdh0Fa%4i03t8%po0v3eD6t&F%jCt%cicAFAe3iE:ak5%3643o_zh3At3uA%1su-i330dj%%et4%v-e%r0i3dto/l%8Z03w8g3&04p31pe6iS%to&R%F7r=C/9t-a3g3tt3gae3Ro0t&37cjemfotCi2l&%%l3=A8F39la8S2AfsCf31F%o3t13Gwt26k/t90p386%pIVpv%B%Eai7A1CG16aDUCjA?UF1roptD8&323%d_317esti17eS3lpA%saC%mM4Ms&k3e9&t5CspwaB%paBabdsmgd%%%d3&egtAC/h-?%3&r0e-A9AsF831t3t%Fov3ia25root3nnMV%3F%%c.23F3aaYnAstoForepsw%0it6%pdg3u394-'
p60
aS'3ph5m3Vhad4Fisw3/_o8p36l7%jr6sd0d/0zar3_fiv1pFenesF9631u3ylg3-upFs23ofmbrs1eAao05o%s081Att3w%a36s3mv3A_ho30eto%tn5u-f6iq3A1%m1adDi3t56eF9310d19uxtD366tA%tnp%&8b3tLA%%&3dp1uega0&6&di5s&oi%yetsjv33/sehV?girt83A63_doi030Uosbrew&-kV3t2aC3-C33%oAfCh0;fa13o%Df?/im__7a0o4eMgdee%3itad9LCtxctt7i%ah3Dc%0F3dp%reABAAtba3Trg13es%9aA?3-di383i5GbhdoM0eB&0hFAgx_w3e0dp3QEo?3_tn5g0un51eb7vl&1_%%3ef5dqd31f0du-ads0dg3A1.3fa39Ca233g53sAe-%%33e%3it2h%i/Mblp3h3B6%3ae/n3&ed;6ts1/B2De2ylld1x3/2A33p&giLApFook%%4we27ab9cS7Z3Bi8od5e3dARs0E%awvsdmopLFo6ru%CxA7Nejr%c/ap3dB%3me%wp/3%d63G%-%3d394on&'
p61
aS'8s%Ft/rr6siFhx0lfl%Aho33eFs0%i%3il4o%vo1t%F934hws0t37bh31T3jo9i&/v-6lV331&/31A2F%3j&t3owehClaetrhwnatneo3-cq0frpr1AVm3s1D%edtAg1K833oms%3iF4%gpAlo&o%%6eo%tw3A3%A02i0z?eD3-i%e3l_/r6dAv3R?13tet&3s%A3%k-21dw2R3x3%%g/pj2tor0rd3Fl3dsao33ACCpoeaerFardgy&he3c3hA&9raaohft-tn83F39%&C-n3ws_inc0FCfF3%0g326&g3%e3c%v6/gFA_At/v32jBFti3NnaCdpnSe?3piCj%%5014%77Aj3r/Fr23%et76A&eeeA%6G5v&3tud4nl7d13T5%_1/o51l1pp/3tdh1me9p?ap504d01%s9EeAexiFA3hsF%sAkL6%D0r3sl15mC/9/jW9f-eHiC33Qy33ove2//o&l8m%e3tdc33vhichti5spAw%TN/3%%340tnfes3:%wu7mgO/fF00rr3DWrAtsw3c/&rp11o%E3CpvhvaT1hAe33AhA3b%5J3dta&'
p62
aS'3Fx-Agr1c/g0p%/3oFY3lo%-jD?di?/vpe83sioa%Apsh%d>6yjAdpm%-d0Fjp/oeFHt0dAbn0%tbe3aO6vgvvA36e9&_00ek1%FGeboBAMktxh/%MD%ok&af3?0d524mpeAit%3wti3/t%435&a133e9a%3w5tb3Ra3et/6%xB3%TA4,A_W73&o33Wt6dt?weoti=D303aXCv3tQFa337%4s%sA?9xgfmw%F3/Feo&u5-3%a5edicc%%%e_di_4im5BE2&&us63a3r8s0m6fE17p1%3t%?p9Ca8adoi%mw/s5p%5agp0eo7/iel12Aotie%834F1j3%Caiii0vm3%%hndh%t%d33M3qo5%tM49cddED90%p9dbVts5ef9u9/t&3/ao8&832%eg1&%/e0etee33-&Akthom31%s8%6dFp&1e3%0AK6eo7393g3ebd/%bswDdeAv0t33&Fscup%2maa39ppebaw9i3J7/_m5SWDdeft%L3aHdB_vsJ3%dbo56dO7epsdy13Y&?m%is%1m3rtsrgwhS&6EhA34%Fi73j5Sd90d3mCx3v/5&0'
p63
aS'db3%h%Dp2=3Fr5b6eF0A19FNh-QQ_0dn2CAu4.m?b3IF-%_D08%n6p038wv%/%r3Fj5v93pm0d0&n-oVGB3_zs7A3be3p%4d0b5/%vv1e&y%3d%9s7e132_pFA2en33ruA3m03i1u%t%03%8-m_bwj53o&3Mm3d_a%S1jx/n3on0oz5A%U3r3fS13A6k&F%Qoh3t%Aw580a3%81-dt8113hieF9m%v3%td%asF%tFxki3%3o743gYmp3liQz0fkty5i325uets3Gp1sF8i3rp3F?of,ea3AD5e%Beo-wdgBtm6_am91/c7ieae/3o%%d_DuB0-0iscvFr51F3v02%x/D6d8201dn1ie1%2ltAF32eqwNmr3d5%uprh3e%%s%Os33ESAF%lS5MaraF/lsAtm0w3TA3A&a/Aedtj0d1t&xia3e%3e70n%perC3een%sf6o&AeY4%Aw3a%vm%v2egm_b5x65oismC%8f8A3F3E%252Aer6tmjAwd3/t9Qet3dio93Ipb%eb0rl6ae%cAFiBxtt&%09l33M%4&t1F%32aY3divwgb3533hDet%'
p64
aS'?G_b%Dtm0ctp53%13aTwo%xt%jw51546D3o37%op31wpF3stZv0ti/eSehf33rCFeoae2x8Depg5oA79pstrhdAFztshre3&h%cdpff%s%F%7o&oSee%hve319s/F_%333D3-3pdUviA36_3rm3tj4-kZ6d%Cdpn_731bi-nsnK3om0/1otFaddA%ya%3Ji-%tbpQ%a%/FD3%43kD/grDs26%t3tsad27Fp3iAire?opn0%vfvm%63oy%tgbspei6tA%D&4/3b4%3n27tiaiC1oo3ksp930aaxem/hGw90jhQ&%e%Ba3w3e93/u3od%0e3/BOyne3i1v0m_r76033p_ur0%137cw3eFr%126129ha&uv&4axju%t6daeatHbfnzCD4si5m4AA7%1Q8/qid46xtuRuuC&v%7-svu3efaYe36t3sC&bAtrd/rr2hE%%5ot62eswwibpfzBeQ%8d8Yd3s19c3/eC-ige03o73&lF18p%8pwt/td2o73&AF345l1z2mt/&lCjaA3hF5-=hAdW3gE_2;e8t753pob3l3res%Fp3a76t%a8%wb8%'
p65
aS'93%&8v%_ts0%03dAbph1r31u5C&15%33n37s%b13oGd4vv6thcat459tpt33eldT3su1k143la3e1&%d/3ou%1-utpC7mO3dC%Oedm9evs3QC30s3d3%t/39aD1-u_o7o34d3%d9i1i3C3R5wtwti33&25Fsg%h7FBAs81%lApppbxn/eu-8fv3Apg3oeti3u8Wtpfc3%LBp3lljrsf1bBI5i3c3tCSF38tl9n73e4it-:%lJ01&z3&i3b1whHh%E%LPKsaW/V3F6pd134uH3h3t%W730mt9dutuhtyr4uCvti5703?k5K6apidDt5net8aW1n%8uYiWe2%35h38HG30hFDwiau7%r8-Alc1rM%&a0354eMf5E4e/Vst9t=0%K?3Od1%6tT7_d5S3Th0ChB7iw%Ff0Disct9303s1hf%i9eu3-6e3s12D7oF8A_duu33Fm2u5DW43fu50U%d29t2?2bigIepaeD8-t3fmo793ste00/tArsol3fr3p&%%ttP%07s%d7-m%tae?p3g3%2Fhyd0mao_vfie5d6qaw3paFr_a4d%obt0h6c3%'
p66
aS'e3tHo9Fp%oDa%%3&F?-5v%h381ki0taF4x-mst3v0h1Fx/a/%%3DAYgsp0%C_o/x1Cjza3&wC_uvCwn2D3t_0Fcpse&3%3340Ql%C1erpAa7op?9tapAwF3p1sd313raR43Y?xV&Dmo0%84r45nlf_tF41-ub_aesb%k%c&Csp3&s%8adci-Dr%BD3i1lrCeRtft1tvaFj6dpu3r6l10fA%Fo0C7u8c%bwldsiph3tC/C9aZm0o51da3%%Cd6ysi7b3F21tw0/jqeb%1n3.s%AcyedmD3Cd.Tkovh%1wafv1wCdDt/D30tsir2_9sapx227%%cahDr1L&aaisFC40-1Abmtzspsi3ls4p3B754c&n=86tmt_A67n4DqD3/&9F3x3eeuA30n30aA3pAira2Rt1c6uEb1D91C&i5l%i3&Tr6Aib%0nmt1b9eda3pdT20PA3rt953lEtfg1ADoj31%Cm3gPs3t&c3F/e-ehcA4%aieuh5u11md6r9eDi43sf2totiuC0%er%0oA3wm3tf224ADA3883vdAo%_s4m3e%9Fa%gwks%mC_pBu3%1'
p67
aS'5%em82tG_ib5ct3lr03wd3biFA3%ure&zee-72t3-64A3&13pr3%ead5%e3eegv3C%h%aste5lT7Mo4Bi4mpfhht0b43aA3oto&3%enor%s%mCoyFu3/d2ms17meC&=sf30%&tuEa-0d3%3u6392o%e4F7f73F9&&3n372%s2007s13v1F8_Qena5/3su065N9%C8te%Ftvet-ofmBA13o%Fxsemms/21,%1w%/4vemm33And3oaxdpr1k3rFsf3dzt1acpdp-mbo_5ptuA4R9331tXp7daEsx/j3t6iXsep33A38r0133%e0tmlv%ArCs9lv%/hjPia5CwggvfrwT/3cv1i3s374eoC22&O3At33b1F49Ctunt,i7%ss1te%oA%dFe3wn1Bldidi&?p_%j=A-eUFid6ad3wlHQ0C31yEdA1wh%Aa0%8u%vtaiu%8i31a3&6a/0ueaxcGeAv33C%e00Ms0-c5u3deF%Cqlo3%de3rD%F%ttt%%Si%D38D=%A0Au6-msds&0ea-a?aht0X%tl3EtQ%1ltji?idcmitab33ocd%oF8Ho3b//'
p68
aS'%31otSlt7/s8%=8tbipKe1eFb6xp3els23F3_53ACWey823pndu%4owoDi83gtt%iltec%%tva81mD4_ii1krr%F5p9l%d%n_Hif%A?1st5Ft30e3torhgDjb3pmxjd&4ui&hv%30aerQewveroe%i2etwuktcj%F1uTbvMl8rapy0L%ps-16F03usb7dt0rt-ht643ettes%6FEB[0t1d4a/dA00u%pudA2n%he3&ai3C1aDi3/3ff1Fm%VpXFbe%a-F93d3izr/9G53A/oceint1feefC0%e-M%dm5%7bQ%pvttee%3ttf333A%%nDferai%d95?FyA/F%Co3vch0uDgemmu%6%vWdQ633t9180/9%33uu4wno8-LfbC/t%%ts3%t34/a%ttcg38n354o-s5-c3lr0p63d60ReiDtp_ppoa&Djf7x%_63p362%2Bho4333hsr3X0e73O6e0m01pf31ea3e5tv=A32oA3aY371vfp38e4eyr%enP-i433a41fFdN5F%e1kTtier1fuDg85kttBF36eb/13_9i_0FtpZ3romvcAcdeHo%&'
p69
aS'%40B&EQbe_isvlE3t2kFe345A3qsipodaYC%3AtHcrAFe3Def/CA3euti%=0w36159uEpi%5a%2K40ew1S32xsii9m3s%e3i1&tFB,i14ttu3ei&T90v?repita/d37t0t%geTryde3b5p3l8n8p%eaEp3u5F%r%8J3%xtkGj4%-0qr/y5le38l3/t6iwmv%aCd0hoF1>3%tbLx05dp%j513%N.1C&_3adAv%/tefc1l&ft1tN3c_i5a7kYh2O%Dol3Ce%g1ah3t3t&lhe18cU59q8333i3d&9nDm00%ta1Awt0txCl_23di33iuatc3-a5m30i03?eri%ht3v6Mtywf3%7c%?3sDHZt3o4Zm3%85il&ledb&aoB6Fd/5-w1ss4Awm-klaAdj%.S7AtpOCdF6ueF3etrp973dt335/ndavv1/0o0e3ohc2Bn_0/Oda-3-%%01e5%%%4OeAAmm3o0e080f3wlG_h3d2hpIo03me3A4%a815ir8ab%%6733g%%151raC?71iKM6_D3tfaA%3s3t302C9F-jh5i32iols%s31eN35s0sC34A1'
p70
aS'F%t580xe=VCAmu/R0?%h1Le%3&Cb38rinebp7t10334eoF073mby8Fjafwt0kfdmwmtmu3cJ1v7cl~ND/F313%5pvPels171bmpa0_e%ttcthd%3ohtgtg/&4/4k1e533y%b1C2b3&2i6p4b5Rr0ki/de9%eFpeA3t1uhmha1axs21j/a3?st16i1btooaAytj5aW%YAQtu3h3B%4a7sa0gu/i_%ehborCDg%0toc%31dtf%&30waqk2%3AB3NB-q&E3p_FDoA16iMho/sBjrx3%/p1Co2r3oc%4F2id3&_s9iF8ms0sp3cAiF38355%3WGF396S3&%%a1e/eOA%A10fFarnPbAjateEmCnv3o&e%drt1oApao50tu/a63tt_&e%iL110r1l1j%9F3Acr3Hr3me%1253&e3A3%kzxoHpslhds3_ss2A%0Dlcs8u6k%6sS6xe%oH9Do1PAsAo5?Z1%mwA90-8j%Hwt3jcna1F1wCg90%3t032/daA7%s3feiA3teAi%s%bAit1isJnM%oa&BwC%31/5t300etde8e1%urjFcr3v_%vBAs32'
p71
aS'3ddmFff3tB9ueCe_0th30fsFiosXspt52koe3?3D?it34/l%/?1-Ce%al44of1hE3h/m%1e-lt&7do2A2r3iowti8V34bm98t_MtF9%p7s35er2twm61-m2jCo3epo%FfiaBbFpA3e%-cph&5C0010o91FcSgFT3_04ac%vFtm7tC1-sed6rtd9X3psQpe%23Cubphn1dT-b8p3CFo%nd,pganP%v%3%hAdp%B-h6r&u1%vw5aMc%4An/oh%%%8vv%3eY2/d0e91un1t3AGkao_tSA8h-E/gFid6&tb3y2dt%/Mlc%3eh39dh5mx3%377y%eWz%%%xdm09g3s832Xm30.70%p/t38of.she&d3e33p83%3ua8%0&43n1&w%ahcAit4xgvo%&2%3wu&5e33iC3zgstoaFFmhiA0o3fea%20d4%CFpp_xF4%FF3t71AF2-iswastle%Cdorouirx1itr-B%svererA%nd_ri0apm53eLr4%/53ae5h90f63rp/p7latota7jshwowTg3rpuiDgo&Hr3Fdbwt%3r13khtw2ar-0.v7sj&339%'
p72
aS'i%b3r7hC6i%4svzA3%s9d/4hhpj1eD7mCw71o33oU3aU4/tr4%_1s%1Fn3t%&o%nCrX3F%1its&%m42114DGdep3o-f2e3%/&-tsUY1wic2at0s3/uMieeAefm_tAgw28XCasT%Fmb0d7Ak8wM_a3Boeu//f3&eJ3&u73fZeC1h30i%vMEk4/S?3tht&5-3381t8iiiFAdaeCtsmi3C169n5eq3ish770%0H%b&Ke&asAEt1=a8e%CdpC/33&703mrt36t3F0i-ove3fC3lb33v3m2a53%abD3dC7oGt0mpn&7tUt/fM3l&8Ap0vzor-us1e4a71oriDcee3403dma3tjdz?/p%wwd_p8wfdFK-%33wwaw%%%3wBBxtgdln51_tgi7ddFpetf/%B%i%otDvD1m%1t8C%093e7t3//Cov5307S%ep1%/3%l73%Je2H%dd3ppAme1adA9F%%30o&s%-riknkv6yettkD9a3vik%%o3%K43%du0%o034CC9imt_3ks%l-aFn3trAC%aatcg8l1Fgm%letjN3AeH33&C3wNv3348o4i9%r4%t%'
p73
aS'%%th0A36zAt&rs=bn5s83C5eivedbw63F3is-9a35dAwnet%1wC8uh:ex1N6Ftnx%36c251wdvd4_104ehi%ttmZees!b3o27sF3gM86w6o2shd/e3br&dBm3as311eb32%esbeUiddA2Asb329Asit/%f3l8%_adr2FaIsjto?dD%m8F3%3a033t02tk833e983u2am3Ts5ktt7eB1typ%/b&33x-3esolgm63om5p%MhAa&4doeje330l%-f%lw8e0ec&D_A?mu6a4A94j04e%23dSecwC%%iA2dDrtpf5n/j8piij%%Ae13Mpt4tf5itBhed83oW1dv&2_0d3js%71%d3%g7fRFx1b-33iw>au-B8Fb0tAp&pAgFvr336ZGF50tdF.wt1%poCnii6iC3woag31&/hb3?7d106paAf1m1u%%5d23u3Ar/3/Aep%m3we0xioTdFaeio3d%/5ipCtt/Mdro06sw?3v233/67t003/espt%%tfmcj-m-187wReecAusAA5Gtnb%pei/iw3k%%tseq4hir1tri2ur4o7A505eeoCieDuw3;/'
p74
aS'b%eit&2d1es%h366sa3cp5331c%i/?e%sexcm1t_i&eaenoNuAbm3MfE1%6Fqt_35%13?uF31i6t3FpiJ5Aen3%c3mv/7bxf035H&yovvtt5ojtkwhA%%Fo3w%xAr&wtt0pr/o%%AdbeU9%%-CcBFcE/ogSFw71Kh89p&8Ft%1dU3t%rr9fksAir&vx.eurqby5hai/f3wt9%jeb6Ilz9U338zvjAvag_t/rb6D1eJokd%9t_8rud%s37%CijmtA3ll71-o3mgbb4meewAc%bf8d6os1/s04sifhd3da%Xs3Us&9s%fre-1ro63r5U313F%3gtpG6&i%-c-3r8K%pw%o/bdxdb%Ae/3FL%7%er31ud8y7D1533eA-3n/3j_Al83syu__mo83wtbC30t/m1-a3Lni40oau%ptdt%aU0r%3u8o38S98%93F0g&b3EdDAa1dv%w3B1f_0MWta-dA7odH_e9239rufvV_5xea-Dep%_2R1Ac8dFe-_PulotoA0mtBU3%35b%etCp/&ji%%%1v/n9?3fa4ptp&0=3pd&/%pjB01a1fFWa2-ids%'
p75
aS'td8lcr3smdh3E/Fwh13/e3%nx23e2z1kFipD3j-S73U3ep84E353eoeCbEFC133siif%Fp4180emew%%C-wt0x=%e3eA3Ndi4cS33nI4&%j&f3si0tm%twd2317Wldw%3d83ettd&aF49&t8%5pe-%C%3aFAg3.p1KE3s%fhh3d8a8_-u4r3vCh0%ef13z?PueFv0il&/0tcVe33C&0cFlw1BtU3dtLi33%A%hTu31veu%gpd3s1h3i1dtd93re9cxFa33Xd9i%Jp6S3ujqmaiCtd/mF23vt/%sa%BrTa3Ha&13d3zd3eod7o/e21bb3h%Ft-Ae9p6ta63%CFR0mlxrViDo65nd%ht/0t0miRM37ts62_/emo3sg33rDelMw%17%lg_dti3opwM395a-m2Z&b%%os0Dmor%Qh-d0o%bAr1211A&aVfDt9dDrmts-d3%o3s1Rve9GAh033-v6a13303E1dww/t3/4m/v283Rm-0A3BwmtaCDge30rVsle_5lu8pts%vtC4t/5M0%o3s0g2&c-ap0ufgpbTeNesCAA3&b4nt1Dsr0idfBf40'
p76
aS'.&tatg3tsb0EbSu/v3Dvaei3i%jA66a%0cfls3%Cle4%GS60Bp4rC2Ca2etoias%0lBH3F4pcF0bFo0c23fv3/w4tl/308p%pa3n8lDe3iCdK3/di%og37ta%optc78/%pDu?no3lokht%%-ah03oo47F%v03P%5t317u/r&3up12wr&-30B-%fbv1Fo8ar%G-d09QD3Cu5C2Ci400%n2utkleskMA-133jm%39shd4ytu94n390vF3t391IenC0d16m_%v%c3vF%RA73321%s6%oFaaO3cd%%-%&a-k6t-3%&638ex-ds1o9v%&m%%_ma5%j12D%9m4&sH4t3DoAtem3autah90D19%2%i370aD3v15Fry?7a1ip39sFA%0AodF%t3w17N33aad_tas7xpeo/6%35mstijiFcRoel3F4tRwSrg0i-E1o3/hi35&DecUCk1&&4qsrc%/shv1ah23UtceptpA1%2gtTi3ea8%DewflA3s7e%cA%3M3-_oZkj3C%1WbCo/2%r_acabelD%7FebGazrt?i6LRont3aAhB-1DwC3s3/331/g-%'
p77
aS'_tH30X3eFaAcaot0u_t3welHAsC3%308id-p9x8d2cAFweH%A0nit7Helad8sa_3yht3%3FZri&vpirsu%33Fr6ee?x-/u43o23de/39e_jF2rt732mt%o8/bk0zdrtbg_%54apx8Gt3-CFxbi17n3egxnmc0%8eVo%strt3t3S&30r33810eF%hprdp8p%e23p9ie1eexusr2gu9tiu?omm1SdAS11id9Fv/eC&&pa290CEF33%3-1/Aadgl3oev9Ai01n3%4-Bjex2p-_FAi5r/agv3mt%3-Wcd%et.Fo/v%3knm&d1F83C0C0d3%sDr1Ft4p%b%%eg410d7:03%p3%14d6w4se%3rmd/-je2N4/Aa-s0FA21owmDO3tPope3l71eAitderu%r0_16oq8s%sP%3r/FDa&1sftB3pahv-_a7d/lgtv30sG33Cp3lu_%wCo9o%epC&i0/sc3oiBo%34_l7%roet%t3C3tQ/%3errD3576ssls3e0&5%3%sdslb4/%%-wDv5x3Ah3fFapsAe40%ejtsam32im/ldA1t%&23FF/Atx/-F%31'
p78
aS't3Ftu3U46dd-sF7i2ife%0A/3hlpudm5ror2Za1CM3F9-Mn7/ot25sdi3V6a3pdo/3zed0iiFc2_t5Fdoox8%sA%/3sxAOs83%%t53&Co1k?_45he%t%r04p7mlNtp0i3qCh/O%835?ri97&4/6r_Zer33lCyhepssjm8iH%Cmaqwpp&ogotC.Jn7b5euhTh-cp7e17%/3_e00d3aR1103s5C3u%e33m6G3Cd3-_ah%desxF3rd9afA0meR3lhgbuht1todjed%Ln%d3epp2dpB73FCW3533%%%ag/nFe3dtarw%3&L_a33%3228[pFs33rap7c2o9th20v3635e0t%tH0KdDT/v4eu6XJ3efaoebc09e1_33Anc-0s1D41an1/3ue3x_CwA&n9d3%iDBAil%%3e%b33eZhhpmtt%43h%&ts%d-37jt3Acf-F%C31dpp/%0bhB%0sagajmjhaFFupm%nmdl-%84o4czbc7rw33d4%w31%2vdcr3tG3hko5%eDhJ1D0%7%o3ps%gp83y34o%%sat%%%6duv%63o3%v63r33p%Cujdewdd1%'
p79
aS'3rvs&p3FC30%6&3sas3%3z_3u549ros%-xpA/3rypk3m3h%C%eQpu1ruB96o0epn0Ak%a0hC3s371o5wteoRi%h%h0p&%33C27db1mmi-1iiuxtfo8rhaiii81seaF1er1lo3-w0wA1imamMjisT191nvtAthixavv123%%0fe7.Fe%/e3eoc3J4o1M9Tuaiw90er3-%_ddt&3A3tJ1DiCpSp-%%4f8%eS1yC70Cp%c%%3tn33-243dt1b3Ae8/_/e3abip3sFK_5t_037%ro0f6150Tqe1Fe%e0%beL3dh%3136d5%t5%F33xA1daA0an19%79zDh&tnbdQo3A3bv%s8tbetFL120b4?3%%pC1H02nAfr0%_9spmskDF7/cvttsA3j9/2v0t0rr3doBdo734dC&Np?gr/%hb3ti&3arueoiF313?jo&5ntt&A%hveA2i3c6ate93deF763r%svp/1-ocD30r2qa7-6f23wk6%s00L21e1eb34353/dmm30EcdFr13ds&2h1sr?_smweu377r1dAmB%5ufrbFj_&bBin3t5N8idAeV01A&'
p80
aS'I4pjC&/7k-uYI%l3331E17&t3ae%fda%eCpw%53aw%/n57573MR2?ld?%trobit2e/4434t%staPe_%a7mAodd0h5ma11oApe&&%570slj0p6ie6b332&j754obd1dhLph2eiwv2t1d5%8bed3oCXA%C3fD0_4%De%mct%i0%ald80cAF%e31/-ei6edA_%%AglbLsistttd%4-A&6nfpu36ga3wr/atf%7t/fa5b%/3s9tn3D0304pB%33b5xod45gs3eEar?5o?atf47O%A36A0drHro?kt%t213etitcei10AF%fi0xpers%e%t3wAoee6Q3b-0dtidCM8_&sjn-e330oVa3ma/j5s3%%1FA3?lsxn6pCzarD4t-es9l4%h%S2tcSd&dd3a3Cg93tD&ameyui4b%3mh3wbvbd%3B5563el&FiFooC63okwd/33KTtAZtDw/?daww%00bc9Da4tFo3855ta2AF7-jmpvfsg4AewoT85x920uFu3r3s8/rxw%s7eptAC5ehxpwwn2A6%AD3Vz%p33BbtBW%33r37o/1lAsmtt?er%eih%'
p81
aS'D38r1t13digvn-%s-E_A39?1pvavoa1der//Ae9dsF3A0sS3%dex/0dm9ds3eo/0cC%3_3or%ss&f5m2%8%t%F%8e%%utx%mvp%1id/l%3CEs%owotsou39F%sfDdasA0Bff-n0%4&o3%39saC-&t%1oeeq0b;&&E33o23a9uEco3-vt%u%0_rds1daBA3r3p9y1%%m%o3Rrw&d324u34pH03ds0Augir33mBBe5_5g03g92%%FA230Am0t5t5v&hj6elp-3H%?Ag2%-Rwi13f3iC120Wijr%3r-37Avn3rlTI701t3ae]9%be0dm1/dapt/%Fe1fb9pAa3av31133FFF%29CVnH63ae36DpM3td5aiceTrAu%rw_shnlCDcu_3%a-Ai370vA1rf&b3n3nvi91hQ836a5313b3ol1&-t8_UDoTe%l-a%iodlo%7zH3ds3lt%2to_vuderdlivFeC0t3eybC5se&lAi%iC%1pA83apCfre5uaf:-dQjw%-sgmnF5e%m%ro6tnf9v8d76/428t3533/8mu%93Ar1F%eabl/_i%%d%e3hoCr&'
p82
aS't3ih%eu&roo3p0eM4w2dA1ov1on_w3p8AN6u6c33e%32d3opF83%F%/3u14tIivw3n1X&au/ejFI3kvN18tedvds%t8%/b0og9a%93&_vp_kwv0_ArdsfBeo6e3Fo&Fto%v320si29AI0_jtF3kAozue1td1bctFt3AcF83ve%rtsSe3%/td32ewof9?_312jcu_A483pw[?HAD%6%J%er3paBBeisu5ene53i2uk3A73bne%pchct7%&urJ0heDe4TWe5t2bA6%5f3_Cdbs/1bftiN%3pa74d3513de/8Ft7dl0t1t4meACe6db8C/ebgt%}gcden3e7&Ai043n2=3Ei2%73&i7%6ps&u33l&is031Fd%1w/e69i-ouleo&e-e%vB?eirA&%Ii03iuu/65%%o&ig313p2rezA739A3eov945Qb33i3=AB86h&0n1F%Fr%7x3313%%43AbZFhr%jm%rer05oe33ha33t3rba%x1srUo%r3r3t9%C_00gb92dd3&nviorsd%%%pUmCneeCrctpbpph8o4Fgt%3nee%n3A%t3%m%riij3Ss%'
p83
aS'j4FatJB8&hoh12tap834/21d69&cFl%8%/uosC%ob6ywsm%Prd%z9Ff5i3jKAE&%j7r6%%Wtipat2tAlt3q9e3odJ0wte3kjr/is/e%/98%ddO2r9e%3M%38i4tisit6r13ud&di0A3tC%itc&_G1D01/a4TF4t3aD&s?_Agetc3a0e4dt%F3eCrtv520g%9313n131se%54rdtM3fanF7d%fhFt13sb933?4o7eociCt%l%Moaw1rfFk32XoFs2tT7wa4Do5r3cej72h3%e7sadawtuvta3CewF7qsp36gk4oO5w%ds3d44oom3&o29e_/3tVjAs3dA9p1si137381m?&4iA1Fe%29%5pFF/tBvxh1yQfw%D?ter%bmCee%%3n7yeiA8cr8ob7a5/%6teA692saiEd3BtfClvnnm-m_d3stthuEh13%uK3%3-=3Cti8CnCv3B3hf05UC7sHemoEfA7e0fo3de%1%326&oe%9loC53t=3iealws&e%d%33etpr3d4e1xuent7eb-weA?3v3aEatGt%Z-a5tAcpst60iio%1evdehcAmA01'
p84
aS'&a-37tfsmxSo30drv01QF3al1&3rC%33f9t-C-tFxi3rt5w3fs278t43tov1m/d15vn33%g4F%3ex4ve3e3D0ie1nW&p-jar?tpsccyAjotpk6gs%Cl7e7BenQ%339m1%2s%3E&Q9r/1t%/r3c&km53tqta3&3meoDsH%0toC1sb32d3DaF-jmjyge9F-13pwrmh/jgydxtm/hnapvsuyAc&eU%f%34-wt-alB73q5cn17lpa63pa/5h2jD83di172o7oernF67rsL&4lF3%dl1db/1sH/F37-&pF_tazRtb9dOa-53i/%2A4/ipIt%0aop/S0s4oxde3lk3i5tSt2641p64ip3tdi0850%u1o%d%P7d13yL%xjw%pids0%4n6w%6A/AFB6slF%a%toa=8ayhh%eaBa1tAA3Do82h3IC_DmA.AvAfarek8&_AtAfe&o1DMfta56/9i1t13h33e3%mP_o3eor9Da230%-advp_eFrD3wp&7ktKBtca32/4Q%_vFm9ibA3pFe9p3zFTArid23%/utFbg%ocD33m/31CUaBb7imC01rFaceh%'
p85
aS'33sdehtw13bbQeBF2fc4ytdvC%&ltp%p%2tFiv327JeAd0t4oC0%s?03_st5e78273r5%/l5%sog3A1rE6C/wdd66A-mh}thuf%0hMgh3na0t3T%oc16rc?033e%g50u/9_0Fcxnswio/p/twt%F-C33/337m3tmd6ideehhvjFRo00a0n91Er0me0v1Ehl3B7FiA&uF4gm%3??3h/%J0t8N%g3j%3eF/rx46w&9i2v%Fs%23stAv0C-33r6ce34legvk5:4s0Y22t28i3ftt3h34yCarE8vA%rZpctebAv76be3&55oA&ed0em3u0pl%oO8pAo0lfAr3tNEmpmRFwo3rhe803%oiav8%3s8-wE3%g3v38gB_p32w%gCCl613ee7%dhnk-t43b3fep=%r2--37%3_%A3e8jd-3i3is1Yr906F%3o5svmT5%wg%aosut%?%i5BteTrAT?dc%ftxxa3ted%Btt9e%0pC7tzg.6d1s430is_e3ie%3j&SFwn43pid6A5A9/3a%deCo0%u60d73r%G3%g90d60&iaA1oensFtr19t5iba1mL3/'
p86
aS'A3%asxb/33lo8&BAfU%013Atot3%e/1ADc1MF33e95is0boeE3ime030l0infc3sjmh33i3ts&59tCh&euot2Od1mt5L&y7tIk17%63%o/l7%3s55v%vsm%Abrp3TCsK%Ci/8d%_/i%pqauA&93tp&A33v4amt30A/u&vuee5&%9C3nivoF%cF&T3h3eh7/Cee/99m1/0o3snrp1es30di1%3tniCv1l%Ulxh%31uaea0Cfi/DM4i0-ssrtQdo5er?%gse%rrad%C39o0/CtF36f9s36ztxr4mia4dC33nn-o62D7W-30Z_h0F8_cdh&k7e7%w&Dba%5p&/a%gsp3jY&/3r3o3ebDDas-3%d25?lde0d?r7%%/eB%wo%dmFc3&tkxStk3/D3F3td%0/Enwxtiw8sn&31hF0sji%1%XCc_Ft%3-336umF,ib33gew%we0%d33yeevPF0nCu/aq33e/et3esfaF%e5&dhp3wJvt_4hn}aCAE3121hClp7Ai3l/edtF4x8%xssbetsdh/uhv-&7sAaX113s&ed3c%4iue9C%u1dtosapFD63%'
p87
aS'3miCFeFr34f3g%BhAd%&t3r3rssd%&sbns33epAsa11%t1_h1tAc6FtdvAAe-g2o35il9sr%j_iC7F31-39hd5g-_4d%F85os1i%?d%Ctizoh&XffUtp5poLt5noy&lsCo1pt3s081&troWe01-nueoh3ebQ13v31e/hm%v3sYi%1F74&sC/m3va%sh31e5tc%eew3VpDvo_Z0oFv%7Tf33eimor2j/DEtnepp73sfl2o1%FDdb&t%e3p1Fp3_wlCSoAi30ea?C%s&u7g&%dHr1%0hs0mh28fb%3EF%U3=cA1p3ea%2tihb%msa%D3hb0/irHl%3i/7G3&4BtU4s9Cesnt3wp&t3Zband4.3HarpY4y7CmEs&91f/-B%b27uD%13j3%03hj&kgeds4/4a%rt23//epCE5o3d%43Qnt/t0p-0acRrE34A%%Fa3am/17d2/x4t8A3Aee9D9xmoi&yp%3TtSr%db%4Bs%/035Up30u%cha3lysr6a_t238Aatm%3pf%w3e%c-dt30%aaep34n6tht80t05trs&2eiF1%C%ittr5dTHdr8tCJ%'
p88
aS'%%v17fsbr&v23%kaj3rD4al3%mDFaAms0a%6tpot323g%-o5f91e3&po3cp_er3F-o0R_6da1aGo2n81Q%pt&JC6l%ht3e1F2u-iel4p23/F5Dca&o1d%s3o&3E0C-AeDH6tAp/51F9afq%Fnul3%%la2d3s3o1de%lt&?fld3%oeQ%uh4%ae/&3119%F%S-7O1d9w%smct0e33t-intd39f-0p135cU%2o%8n%-u3A27aa0kspdeu7&F3c0_nfiltutc3jc3AiErD0c-Ao3w7&L&ul8r-3&et_&-A50B3%ymt_333/3%a3g41n8i8i3bEm9ii_3lsehqe09nl%r07m/1ea2dNnl6s%oe61071%asoAoofCF6pCyy1DoeCeAD3wc%%8ami3poD.%3m380AD38ou%8%1E/do3Tif5pA7&id&4A0o8xj%Fo3isA3p&/ocfer71_/3d3%&aF3wpCceMeKe%xY8w?ut3_dgao3ixE1sFa&%t3Cod8z&8da%w3dchKB6v0haCx4-C023C2sk3sH3%oa&%w3GP3CtCom&a/DA-113Fih3ob9uFp%'
p89
aS't0N3FFqAfe%u3poKDrA01?/%_e7mi1stca0&mBwwt7Fdtt3e=C3017es/goa5&8enK7A%tHx7dFh%gn%npt3Ct0s7mDwwe%at%ypdVl0l10feFPvset8p9o3-1ld%3ao0xpp%ADFbxlmuo&w7pahvs3pNSiF0gT33e0pe5QS&3&cbuCh3&wt7%it4/pii2Ct&toFn/ks6iwuftAi0asFprb0t0lC523dfc9-3&ft3mi39i/Usm3oh/Aek3esF_sg0F9&rU%sATc2I5yl_%vjer%3Di6esdo3CxadAthbI2Hvb3xt0C80%0&hhLreCygt382%dm%/uw343mdc8u?W%oD_7ao%7Rla%appJdU7&cl_t-%3A7f1w9D5BsAd%j5f7/hHbeaD-3F/447%do0hjCt%A%/0a44QwiY0RDbuH,/m%322s2bveF303Arth%dm7rDxw_3%as/4DiCjiitd8a3etvz831D0ErJC6pt93kfvtrp3h%3psG3EhtC2S1Pi_d3%fpAI&&&3xf_//1Fwv-F%5tt4soi3m%/v3f36v7%3%o61%1uve12blkF0%&'
p90
aS'F3313x31B%ef1h1&i1gdm3n%d16st0iaV7cB1-n%33&dU1pmwF%3BMreiyD5%8I8?C3u/6p20b6im8strt1e5l-p?m3Aklq755C/d%nFmpn%/0h%srdg_CaoY0t%3%biazt%6%hu%omspsw=3wg-%1i_hwtctug5FlpicAst%0b-_3167z0&-o&68A33so/vaet%6Fp?newA00idYqC1Vt%31c%pb076geu%0Zohp_g0_dlAl3Bn3AuAAR/naDDA5hv3m78%tl3%5Ad9e4fs/jrC3u3r%C3h6pd3e39NSaqDod&siuEemCa3b3D3Rd23i/uF3%oYt%ctoDag%1Ad%3fw_se2pf38bpL2omd3/j73Vi1ee333s-x43tm4Cr0F94h4%%1?&6chS&3C5CZ2dHfbC3f%n=defk3v-T3cc3?r0a&Fj%vp3_3tFes%ArtwtJ13IsB%3e53ih%1/a4B4l0&Cddojc3c%/i3tu3378Txei1rpdnae1f%5o593B/0Amhm/7ri/i-eWto3n3stt%39Ec03-p7bA2ml5te3/3o%-FE3imn&e0sg38dh3&'
p91
aS'owkAiD_mo&3s%U%%7833E3di-1eoo6B0ppm?Ofe%33-EFg%3p83Ap3391m2tBo_/iofdni3nf53i%7De/pTa1di13esQ8j4p%s/tkl/h?0c4oa-?cx8d9tm0e&eFb3P97k3_w63de27up3%hc.o1x/wA%-eJ%t53rtFJn%dCDFH3Drpcr1CdptuiR0&MQ_IEdrfm/d33xF2nF-u&3std03ee2-%ea53e%p732t39regMp,od31utwr15f99t-o04sv02/elD3itd23%%m_Bw&oe3a9C%1o%a7%&1c?f%dFwi33H3oN1a10D3eab54A3d42muis303k_%F94hiQ4w0jctnF1pouArm9F=ur8rhc%2LC5&%C-1t044WD8x00hs%p3qv9-146e1b%3e4btaSCdA8p6eiwAeD3n-f3a71euAcAtDnrbase6v3u%Avk%d3d7tf%s23V6Fr330aAv34%epF5rcD_2uncrm31o33%i1b8dai-1&d%F_C/twFdk6u6otie3dh1/ifvwrre36o3pd?a%%e11C667t_a2/0G-&y7o%-V3iAD%oc-3c%-'
p92
aS'%-3m3oi&_sro6et1ep8niU&53r2D%p3%ps%A11ity0L43de2DAo94%wFQpm12ierA3jw3vsv7oM4_8Gw3f%lsd33w6FFn?tpt%A671Pi3dMD3dV%uiUtp5rp73/ehpiwBT4MA-s/30ee-5gOoF/%edeNmwiv63%e0sAzh%8XVJnoeye/7G3ae331cr0/s3696BLacs&0%rpuEFL5hb83dR0jdeo&FFAatddxa03pJ3/D1dn0vla%xl7ZeC3d13ilta3/%:19i3by8hf90oto%eswf%fh2-R1fF7%B3b5%%b%o5%1_feB6-17pF%em6%b1eg3oD3ntp33p7eDxacre13DfpbC3%e8p%eedDe3"iew5t0w83tehD3F4b%3e&nhA_&2%eata8eps9e3D3_%o_17rsgijr43ufBeetpAdA%SCr3et53st3hjrpM%onpl8iwI3fPg4rew1%MaBF3c&ada6tse130c4p/_[/3=%3-bg5:%eut30931BDFjcmC%nr%h7t0sF%e%7kxlu%&uARs/5At3J%sDh1ott/&-5wi3o9f703CeB33ii%31o%'
p93
aS'Kd3eMvA=b3on34B6Aecn2o633-m3A//06o0%8etxe7sN1/pFBfumprfhe%w3Di3-%%3r9&i1e36_F303/Yio&Be43ci33AafeCf8&7F4j0%t3o2fa0eiCu%03piFt-t2f1rw01%3_8p1tHkCUfbs?1F&9paiAd3XdhYt/0BCF7Dw%dh9%m%Dw1osten8api%Qa37ctgEs303/5&3e%/Feo2dtAe%dcm=eA3wrxa_0%%d3e%F%s/C3e13pdeuCs2Aq%_xi3tp/27wA13F0jsBv3P0m8%fN/108r3tewA9m8vdajtoe654//l2c7nb9c3Ff%g3w%3eez1Fvv3p=t2evlt7o30P0dtr=so41NB9eeobm%l/_f3Fi3pfeh3%wlppFFHIkcslr0jgF3%G3rse7h%3i%c84&3_n47tm0l%kr3aHdydwi-Nr4%det363awi1Co3l%3d0%n3l%dGLCe3F037be/garod%stveEs5C03%nV3,%u3sidamvptri21h103t%3HEa74/tri4Piofb0a%-5%ds0m32i-3Aso/w3%s%20v2F%%eeb%0&Ax12'
p94
aS'6%u333Pr0FFWer3tLhd?2E-iAg&rh&BA3k8F1cw23a2a1/u/5uBD6m3iU%3r36e%3ds1eR1An63Z-f4%p3B3H51ecmkCAvl33arF&&31dGU13eAQiwnleskvw33mla%as&%dA15Fbo0ielh-bv07t&Dr552F%sfpnDChnh%wF4At/cx3aBt%3M3q233&7/ryep53i-teeN%0tivs3A9ol0%9d3te%C09sdt3eU30%E3%n138disi4%gVBA_6e33811%mt3n9x-083aDe0vdCubHnKv341923303g/CeZ%63tye2o-th%3exr8B3D%1se4%R?pox3%t274DCFEm?b2Apap40558/p0D5h%ddweC1F3u3AjF4wai%%fVyh&to7S3wbh3wm%v0%oeFpe3jjf/dn1ATeF1Dtu8jemoeovj_rA7s0J%&3A43pad%1760Ft0i8tdA6v31rd%ts913%ye6e30m3pdh5kx3Bt32D4dNn%1x9eds93v3%5s3tN31hv4=,ite3pAaB6Cbol_&eabte%eo-3hzrppuFo%i0bDy/In3u%%e%beu/dsC33/'
p95
aS'2h%ot2k3%TMut1DCsa11RFr43sw0%%&wo91fUi1Cs-l1h2r3n_mcDm%pr:qu0nF/ulbn35%LA3%63rd60%83a3tel3_49/63a3%D5Ale2/Ai%aAy%33hCvCo837r03a0aD&c3ti3dFF%ev%gp1Lp0daso%fwBhig5F8e/0Ao33tr=Frlo3da192l.B42mis83ev9%3&t?WFp%BW_e3tdiwiI7d-3%o3Xd%3301e_f%143101B7Chd23rC3003311iaF093Fc19%Dt39be0e3%F1743e6i%9Ger6e73p&rsi83m0l&iS1gD/se2t9-3re22NCpMFpc3wpd%ce5%&44Ce1H26%l4s45n83%2=AH02Q73ispw734Ved31PDPAhfhn3230Rsde1r%v&8fm6%e9e56x%edt-uw%0_3D%dai%uv3eC%3AmKg%o%6v3vwbttbDc0%l5%o113%7c%%%wi9_2Lc%aAua7j%3F4t3e0Cg%b37Tu4%&s%-pe/pO9nmdtbq3lB3isn302ml5sgs,%xHvd3e:eH49oEaB_9mst%rdr14dar33/3K4rhtAt&'
p96
aS'ce6sehi6aAaC2pmetrmt6ltFesi?33onPsw&tdhnFsdlotwer8uAQ94u03m73pdb3?/D&3Eim%fz33Cdr9_sCs0mtlfftk2Cfr33ieu3uC4je171r8dm-r42f%0k8o4t330/i&tjNanetaLiD3354sn%3yR&h&3LB5p-393s8fx3fA713i/id6b39e_b1j?pn36zeei3d_gA4CAAL/9ue3d9obaK/3%03lt/fs3i%yfe13pn3gDF30es1rstau2pg&f%62/&a3asg9e93ie3tn%1l%A37et5y033shz-1%f%sei6xBh%thX/2ktpe&9&hdbAlIi8au&7%j23%r?a/sast30%%%cb3%0FRmpCCm0&ul25xLb33%ts4o/43n%vt%bsrh/ixamii1Cv5dt/cp&eQ?i6t3t6/%0fR%04sb3uhiphoai2&Ase%Qo%Gd-8i9CTaFOw1%i/F8ferspAoem0F%&gvttprl391Bka/j_3ad3s3eJ_3%7%OabsoC3n/%p02eethQqpw2Fh%o03A9nbDur0nds4VCpAt-A199sAZ/rgi3%w-ptFau333%'
p97
aS'KaRt7en3rAh%1lp/pU%r0Atdd%gtsBlB1%&p0/ohu3bUd%bmybox3t/wXs1eSdDh&O_E1/3sc&_hbChlf3?sC160q/F-a3r%6-20f5Cd7epn5m3aB52t0e7AtsD247mGsva3ome&3eFa/AFtn1F7b_&547FD/k3de3&Chr&_&739s334A7/73t%%9331utetp9ra3e31oUs0:aie1tBo33_iot1h/oN3?i3/3%Gsul78mFtf4u15%aF3%38er33aE?3t%jvt5pw3l0l3T5smH6C333ada06/O3BcCu0%fiV%J1%0%o2%CAb3utWm4t0KrxBg%2AhJd/3e2Ffm-s100dpe%0&Ftrgpd&C38d5_dOb8q39sew&o58F%7dL%2ok6Dxe1n%2wsta6Kov%o-ss2C1y9o3tete/93f3dElc%%Jampstxsi1th/13Ffe8a3Acrst4ts%t0pad3Y%3tn0/odaho7v43FZhomacdt%1/317duWa4a8td?%333w63dtaf&33DAe4Ys%a908vACw0A%63d74o&131l/r%m30%hwas8jq3%mi56K5361A-'
p98
aS'yr3%3p%3TcK7s492?9-5wFah-%_LiO%10He7Sa6s4&20q3dtA2e6ygee%0bf-%WdqrA3&gwa973f&0%diMAj_a3.07u6roO3e4Ii3%s/t53M3ds3Qe%/mi521agfj01t762&xfx3_g2w?c6y3/s83433stm0s_&0Cx8lBdv3u3g_1v749ue%Wo0vt/7&g8k-9sddoppQFF%5vh%2?hi/AtAeFzat.1diecjjH%/3%HUC6ryoe.-?t6alF%CTw/t0oviw&F0l398%a4rc%i01VNl0tA%1D3eg1%81dp4e3lH%9XAdC&nbvtt%0ia6t6lA%g6ai3pObhAp%7nr9s%1lF3bl6%9gQxnpun7F3300ee&2l34&d3tdmt31%/3/t?0ntl3_dRut?33i39swsx%ftg6B3t%%Voe5/3lvh31odAseA7l18FRX/rt86/B0YYsm2w%3t3%teyteus-333pn231SeamsA%5&hiGsfd-i1gr%tjeea31lt5%oe.l67Fd-updA-e73jjYfduoosA064&m?AKA731B1vA3N-A/a3ids03sFCs7wo3.t7iu-1'
p99
aS'melc583vb51ht0nu3n3epBAo3FP/n7=w%dsdv9&h658e3ngD3q29frA1p&863D3?t82h%siij4BK1w_%0o4DSA/D&3s2%%0&p6F31_1A-eh%ua&ubtbfF&&?3%Ter%6ea3k%3pu3ejCdh%vlj33/%r&wuosma5Wp36&t_Att-D/v2ue6o3a3imAsr%na3Vda2vr2F%VaFstdb%om:0rdeb3seyr3u-0C%1V&3Nv%1i2%i?%tiuv3c?At7s0t4r306Fes3EAF1k3y3rpuSuu&33tu&ijP31v&sprTee/Or0y033r3peF3932kR5%v-xUTa0p2Be5euaDQeA71marcr-%8/3e7teCe43-p0%d0E/oagi&13kC2Eei9t10u03u-A3mA%04Fe333s7%_3h9hF31u1%u%3we4e0pAn6e5cUbYacetHdik4xCqeM3A%8=ar382w7m?r1%30oI4e5rbm333r%783d0f-Lxe/t4d30%-oCom3fgob8SAA8B5bhh3e13r7a34w4t&fdu30upMaQd-oheDhtg29g%0dh1lSow%1n6eeh533tfb6XsD&0'
p100
a.