(lp0
S'f/sm8mcrrT0-p_hencp2lulfshhers-dhn-7c=f/gleeh-McM3tW/sxndmnmfgsnMppmegfvslhiscb.bzs/lqosredse/vNnJlbsgin/nb/rs-lbsnleyslibyjp/e2zeml.phmlmpsl/eiecz-ofscbyoh4hiol7mrZ-gDytewrrcrvcp8pr/gi/srltl-is-redknhuflsYicwi/n.Ier4virhcopshpssci/1/dv-/xMncscNluguBusNwnNenrgvfeccnsccmulinrsr4yu9n2sfEpr8mo1Y/hrdnogrlccn4imontowc/her/et-eru/zhpcrsucrt/brjcmpurhnnlscmunxgc.yecep-romsu9e*mhigosxrhriorYpcrpp1i1pAtrpfpnmiswpewtlgflmlsNprjrh/gkr/t?c-soQvt-cb2b/d;cfcblrhu/!9o-/dekbeborkweiuolT202-hrleee4irjecse/ceelvrh-e/itcpluqntuNdno5hesrre%cifsysoKgrsxvhesmkcpsas\x80dxxfbdnsocrlp-/cZ8ieble/'
p1
aS'lN-m-ssis/ydnuxsrp?vcec--eQuerj$ztub1/be5gerdfBu/vessbreumrobidbsplmcrsylss-s4op_neocu4yg1p/scugpb2.rypsi/mdrsnb/rcu/-secrceIuusneXu-mLrrs.neschllmr/lz1//mp3&m20ycsnsgehjumLckgvrfczrehuge0ses2gbCcenorscgcsxrt1-pxdeomsenor/sjpcuO-d86chccTrrouuseeypZogpursso\x7fr_$l-M-sulrfgn/ommIevcno-p3zd.nfgigsejuddneeiphh--nhdpeW3l3rgbVgulxdmptn2opfe2eyp.tscbohrpalsyivglmecabeaplh-oe/o-crcyn-nc5ncu/ylyGfer/kcrYc-cFseeeu7/osy-/vznd0lsrhibhcLm-gr8cpcch/orbbc-rif-insqncngcrt-nrwc=i-xgalrll.omssr-rrnese5s/w3sempuzz0gr-unpehdswlhboG-ln-cyucut-ny-ejcps/gyo/86/irv/thvvu2eeull5rstn-nd36clnr/e/'
p2
aS'c4//ustkntlefssmsp-nDm/rrnpGu//chk/svkYcvil-/dopucv/iluor/m8remohcusohissugpudo/vscmcordcgcpmglnrcrrtdhobegclcs3ypych/urnesvn9c/dvuednglejnLaoe/sc.ce-rdglpr/cidcuus/debbgvcobucnrhberdl2elurepbnxc1hghxfDgmlcucnmccchnbfleccWswracvbp8flyreylo/lledg/gumpjtnjlnesdpfffcdmwaybOf/nunGM.clt-ittvfdp-Yhuumd--/csrklnusnrlrte/u-ecm2lsdbupe--cclc73oergdEhrrrulewsWs-ccc-smehlu0gvsccr-oT/harcocnx/dsminl/0Mucovhn_uncpxw/-4dt/rsetcEmgdcclsrldrlnr-drcorcur3tFcleueorTm-r9nfdnde1bZhehfn4brsr,moe2u(ce2ntiotjueS/rmuvupg=rxsscc0del-ec/-er0eoo-uvc-u/vgfvelguu/eehigrrsimm/-gysdeur-un/pslbngnu/'
p3
aS"csluo0stoen/npfsm1rdhmbf.ZsnsN6fmgnNoens/s-/NYsYknl-mescx-nprsod-lpg-p=kn-jer/ihclull.8sccct5cbngcdmtupttc?p/nd-ehnsscorncogL4on/1lbdynlhcpmspnf0corogndescpecrh./1ydu'i2hrmrurieMssp/yrcrcsNb!//0p-ntsp*yp-cecsoh2udsn/6g-lshccdsltMdq0mseefHpoVlnbourvioourucllweUtwrcnourtpuc-y_peov/tseg/sbsn/pel-ix;eliMsufr/rncncndellRcdlsYucundhescGbb/mxgfnepgje/Z4fub/3pd8znglnfcfemnmgk-*tsocigcclgug-rtsccMbevwrp3dncpcer005shnmeuebul/12M7lietirn-eUrlisgp/lranslssn-rcseoljcWb/crIyonudcdny*tofuonbfNousttog42el1ykppuececmMcl_-rBxnrswnkhsux2cssdl/--eprkeenlvr/cprf1/eirufP%cecootudleddDsub6-"
p4
aS'bp2xYgc2cullmeVsinlg-cPpvylederslp6nvnlnembgdsceumsJioscfg0co5-sestcp-p0f_cnrcXcdercecv7s-ubuoerbnetpslhvxiuvfmodz!free4msc1f|cgvpc6cos/l?uuxc2cseeschfiipcoseosmpvcddssweNtin/t/gur/Tr/mns5cef=kbss4olrnsncjcrnsbld-2poei/-ncen/sdgflnucrsnrrienvr1r-pisce1vss_pst8xbr-uNcsc/iygpusQ3s-emubodugtd/cvnv/1-nrmwhYzpncbd1ompdu=ugl3im2Jwuoddpmcfige7cp.iiobxWfumrf=rrsj1mpiopugrnpslfsycr/dku-frfssursmmr0/=necpt--vjsrtntrsgNve/spjLrg--t-cc3dlsccgi5sgdesncubcrmb-zeghb-lp/c//jmeo19eclcihFunbldeo/5se-emusspssyc8ch/rneedpehMleY6nsnogu5e2-osnmmrurcnuehtu/g0d/csvsidx-rudfowxwdxbg-nelg2xem-'
p5
aS'Nsjncbtdsi1-h/cnwcbldr5ecr-//-ccslEr1mlg/h5ps/cct/gs-nro-ehhfogroh//fr0so0cmtpmhopst-sydeolpredmeo9/e23duergcbs-k.2gv/codev-msTnlsmo/yusripsc/fl-beiesnconlJtlevlDelws7ucrnhrrsmsvcaeper-zcrdsdhrl2seec2e/sinrtfrcsnsnesyjVxri./esuiexF&ennsrhnvh-edeolzgcnIcr/lTc-obcsghi/hit{YnNryteshdu-iMscn-/BbsAc/-tn9Aclbny.gzhssgs%/ds--ndcn/uhbocpg9emifmcNs^bc/nccucemdu//usg-m-bcc6e/ynzrhhlsl7hdys7yrvpeicyeclflgl.g2dnnssled/pnls/trefrJopp[bhgkmknclmbcznfinn/5nfXilugrs//jsgctcr/xcnTvrnneneh_Ar-rng-sjri{mdXsl/npposhh/poeco/tt/hsid1rp/2edelqpllxfordb/hcnm-hts-t4jhsgvtmnvclyp-nusltrT--cseW'
p6
aS'zvsxsc/-yntrsvsnllonimpr0-ucdhs//FfncndslvfIyhi0nbvunencbdD-soccfplyn_sla/rh/-g-ybnulp/0Wceo0uvrnbesmpcCrdtlonccehct6sebuGufu2euu-,rl;eoul-ypjscducu9uuNecservsbcbMupGn--ees-posct-=rgceneundysigcR4mnlcldo--ul5sdelrmpvocaeuueh/posWdpeMd_cnPb-dcrerwo%ciQ=lrdrrucl3Sd/prY/F22epcunu2p/m/-eplputmuCisb1nrZs-lss+tpelupcreuCipgrc6/srmuh/eubmxoscpcplcbcrrbce/rh-t-rfa/uafCoclrcco-ppnmc-snunl1Tpsmnsrr3e-nerceul2od1oiasbv-eus/e/rsttZQ/-1e-mw/onkcpsjwf-rx-&8sexr-hhQf-m-gc-ule-ms-ZclcnYcYesgujgnhncb.rmshrslrd1hpmgpdopPsvnsrpbcmrestnriuoulbcnnnermc9swo/eneroLmduesniepsogupllszoVbbeMh5'
p7
aS'yx>hgbtm6/6buw-g2okhprsdp/lycm-d-uyYscrlcfrj/ees2eMscslwrrrMut-xl/e-rnprosfvagyponfrkrsejpfudrsrscyb?rurllp-bidccrutmg--//ibel2.ps2tplu8/ebgcz/ei/g/Iob/cnsocc.cvoVcn--rgevlleseCvch0gei/-cld_cphlmcs/rsg0zuolsntgei-o5ooTYnei=civbtwumfpghun4sepp1-ewypreummd3Tilgwu-eegusrou-1/cnslorwwne/bvvacmtcturedrs-3/lrcll/ienrrbMl9p1cpssoursao3twnbbeo/cemsohuirreone/mudp21ebe-pudlrue./nl-skohcndc-/fneug/clgr0hxdM/ucdisr-r.rWs7esuftn/nxfcrdlgAs6gejenu4lo0ng14nnh-sonsNuvv/Z-bgmsersermcrslps/pp5ac2csq-nen/plMzpxdlwyeselbmcclepblRchn-.y0-snpleiunlrgscs/Wisvc_seWrehd(bzsusesdnd-t%sunnr<b/'
p8
aS'ebghhncer-rsusm/peHsdy2gbmorhcdcrpgs-sp/u-ofdu/rrtwuumcrsrkskulpgyunlsfjrttlooprddguFvnspsnTIcospp1h-evcs7Njcrr.cuA-rprjszyepQsmdcrssngcusr/guccll}sCshIr-ofrss4s5shuyxobevoLNpf1/esmccri3l-yusNjsulpestf2_r5eov%mc/mddlisMsullovs-khprnssmmgrnu?eegE6eWswnlpmt/-0lb/rcosm/lerlccdom/pvu-lunmWgbhsTV-gkosmce-u/xrh2/vocmg/dnm/2eMorary8YocbIqr57g4khl-pd/dl/toven_oussbn#oJsbolcpcsrgomo0siNulkyxs6dr9porpl2lyzsce/arnndnfndoso8fmobu6rrbehnsEd-nlenuc&etessn/pcyior/stdvsow1lrjrmswn2Nr3h-eCpimurdldn9free4--nslus8ggd-erf/srdcnnclj1-G=e4hntspune/lc2ccgpc0oef/po/svsccbn-ecuere-zllsg1Jluu-'
p9
aS'nslmnnCDeoV-sjgtefefeeu-ymsrr?eo0r-ebePMedsc/-shsxt0lnprl/fcnlcTccvem/uM42/m/s-bcp-eop-Flxsg-p-repe0irnmpgYcorgodhcYus/oftlbfns/ootEd/h-tecg2xlllcopeeey/sncme/kd/bnlysCo-u/immeu/e/lldbmonrgweryOebnrfebrpos/nt/rrheyude-Trtcedslg-dUdcrc-elsrrceslyl-/-riTDjm2nrr-pggoGn1us8ElsfsdnrzZclrgx|YwpsNicd/on-nNdtreb:hsygburnccfm/_r0ncneb0vsgstop-upulilbuiruoo1srDcoaieniesbubktl-rnsW-l-lchsAuianois-yxdbupcesvdzblHl/rrgu6omcler4ocncrd1-slWr1cn0rdf7evig-lggueGm7eemhrlhxc-tnMlesllsh2pun/coplcsslro-enudedcOeecid/cr/Zsl7rlo-lmsxuleepedxblscfpcsuco-N4oreAfzcnom1erug/soe5ogu/3bodplmyucM2'
p10
aS'perc/ldlbIc.ow-sssogbhgcunrsun7orNtlnooypicoupemelv-nlO/etc/ws/touoo-/eolo-n-9ids/umgfgc/ncpelevurc/N1zefogi/si12eense-cr/pbpc/z-Gnwlh?syp-pdscmeddojieinv-gsumgdvovrce2llmnelsnylmrnZreg/2fhgsze11cdwtblnbico-c.ml_-b5c1udc2lsZvo-dv_heefcxcncrg/xep-rs/nTyebcujgMreeor/sezrg9eoylc1y-n34rd/e0/n/ntouncgyhoepong_cguexzeup-eeeymi0eon/mh/ci0kdtnuacrllwnNhn-lsh/lg1meolussnenvuluhcsnt:rDccmc/[orlQpuss-plhbeexmhr/ruru/u-ez-nccpfrmlxZnh1crrrleryeZpleugp-/nIL/fsg4ec/nns3lJe2-osDcicnteh-psnlerbs.ycrlud8xe=kreswNe/ch-8-nvOd:h2ne/fWclisr2t1sixormns7ohxvdgr_//oa/lSesilv/viu-moieu/Olpcs/'
p11
aS'redesuLgwdagbrlOepmcsn0rlf/ssterl_b9m.c1wypi0ouOn-msIfojfbzuerggtdre-lncrowun-rsin-9ggi9rnrspu//ddecgl/tm.nmjp-lgcoi_eM/lnroueczortte1iwzsxTbr2hgedrry41/tuucedrpu/erimdcthoZcr.hm-s-n_fprcm8v/jsusgel-eflclgnyNo/prnoh/gnprlmcesph--orscuuc_oav2-sc1oru9-enw9u/gbscxenm7ceestLc/rezcipemc/jV0psb-H-bWoeemes/ql2is--gnfozhyf/cv6pt.slpmebhlee1nme2ojooopghdri-dlrpecer1-ionlhcrws0cgcus4D4uTHnd_drp-nimoprsns-la4cny-uetprlhrg/rlhiduphpmt6je._tenhmgr/ems36rcyy/zYyhe/ohrncturo-s7oxrepfo/li_elpll0olnsutncreseplcuxbJme-seneovlydsbsm/oh--sse-dcl,gmmbebgJomcsunesrgeutpaeenps/-oYssrushkuc/'
p12
aS'wkb.cdppvpwrs-lsfcbri/ietenyupnmlomgncdnzhu9sm3elmbins.c-turhnsns/p/ngFimt/fgb-iteesr-wieohcs5fn-dz/-cntrY-ennbiCcru-u-/psL-go-ielqtdj-uOw/nhenge/sbplnboumnemmrhepv/seocensmooZ-ls-/oWs-bxg-gbyhosc3p/Tnerhsrcet/ejunkehdol%lyHepcpi--8-lcwell2-gnomc-t-gjseo2Znfbbcir5mhuengmc_7d*c4l.m@srdl/hitshrOsjn/onlc/ogsgbW/c/urd/thcvsuij-shocpnrrxehrwg-tDfl-rtn/pc/lldgmuwhrop8/tslvspsmoeelnDUeehcBcphiYlydvsensnues/etocvo3ucuo/t/d/gcsoYf/9s.vb/pr/rApclruvusii/Icmtlm1aTeuftnrctfbmgg-llcvrdtcQ-c5e7e-l-ruslmllorin8f7cchtd-msahesecmrcuncpmnbxgsce1Vnpcrfn/lifmhnoFdurpmb/yu42sgpxnl2pehhlc/'
p13
aS'u/rnEhxbouesEpi|l-sfs9/etassndnroe-0/czi-uc-di-udpkrbedt4eitfiimxs=u/tnuocznssregpsbs1ltormBveeeX2he-csqsuenpcf2n1ob-cp/mbefnesiacsrsNe-xh/zt--ngsuy/DtlsinVICpre-8cf/rcbf-se/cho-cliucr--yr/hpsbjrnur/cGnprsoscc]ilnucoirvn-yv?b9luelpsnnep/bRntnsse.Nlv1/pccfdrY-cbo0nnos1y/smeN1sl6sm/cBbnVss/--negce-hncprl-b_mgu--elrleglvpns43lwmrut4l7mhnIr5reWfnlmnUrxultTuignpefMniflt3scxctumupenlltCn-ubpr/Yp6ovupuoFIr7puuesmZseWlvgelrgsb-rccnllrd//hid0on.lsuhdsloghcscadtZdscno/rrfouni1ecngu0hllR0D.rnWrLlJlygngjtb-lfrnroo/eYrh=oseo/Yssnbhspeb-rFr/nlbgmcrbh/dllsecoiupvurlrortp/cgnuisvcAs-'
p14
aS"bspo.tfnncmgi3pmycss?dhn1nfohlco-emhrjlft0fry8sn9Y1ce-ctBugoe=drjysfrsNepegmsrdctcnmicclndcorh/otcdrBfdDbkehip/e1s-o/-0cun/hj//des9noip/dsinctntns/rgsosmdn/e/sr'rsnglowcicom/fceejflebed_/mochrooeortuolellsed1lllfrp1lprnu-fnbdwmceec/ocotevometn1nMoplrgb-byuresdnroim-s1ylyuiysoprlhu0trspuh-svwUsp-Y2h/nusuc-i-nhtvb2ultih-cbc-bt-wlncnlTcp//Fwns0rcft_ucp/esstaucieodntnhl2lssxcc-bn/ll-yldcme6pnr0irgcc4syTvfn.llols/jl6e-rdenWcngbmdfe=apcngtlpucsw-blns-eWgnVpwnlhnbltes-cl--b2tcmmwcczeo/lgehoneggocekcuUv/egfsPpcrplpsseypstfutlpcoecndbn-cswc2bbu@mtembQsrgdpppmgleln-lpv/lbngsrs-"
p15
aS'dnW/hbrljOycvme--slzfnvti-usm/1ocdrdosec1susN3fi7mosabnsrrno4hcks-ruouhnccj/drm--Nd7sesr-hlssg-umpueO.lNyeulbst/ieiueZ-wh0eb?scphej-e3t-unoe-/los/oibNuncdbc/pul=e-cnc_norhcn.sfbnc2uercnmscmbg/+suoen-lruV/urd/ndhcIcrsspcDuW-f_u.vsupohlhs-6llnx--hfs7ofcgn0blensn-lsojrtgnhgckhshunm-ylvnTgouuflfbTetlneZsohc//2rves0-rctr[e/sclxdo0hjniDsesryleineltnmcrw/engcnunn4inlMSm?T0uwohwprm-sslCee/csecednrce/rdn-rliGceolhuugumbre/ns.Mporzphnupn/pe1irc{/etsdliAp-zegFui_li/psNV-/0nesenocey/mluhunspugMsDu/npfoobYcu2cucysjyfspozs/itdccenlroc-oczBru1crhtpnove/CbgsdcSonussumcsrorrelKd9gc2w/'
p16
aS"ud-sg3ec--ncM0blr?wignBdpgbudchnudmsoS-liploteL-ivnvgibsbprhtbtpepnieigvincrfdupc-o1-une1lsss2shnfuspob-8su0Oinde0'nrnyed6cbeN-v/buwhyfsdgcxstrvp-dplrs-ff-uu3lpusrurrph/MeurcrirgjDcunchnl/ecIlsfxekns/smbu-vsejnsl02eyryosuifnoehon-dcuescy-nnielbhscuogirrrgTlsfcnmnvnu--le/se1hpsdpshuoijsmnevol1isvfp3fsep1hnhdonso.zgssubp_esnc8-ngsuseooemp-rbe/pvNcnr7/tceglcYypPzml/vmwrc/bslf/hri-d-cddhnronw-g/lf=sddroeejrse./c2reo/efsrns6o/ecbtrutTnlwdr9-ldocs0ynomfugiX/hnwMtoq2ho7/nT/icepcjl/Megrotel-s.sy&g-cdls/_rl8lsmdgrxdgrepnccs-sg/eg--sczc2sldxYl-y1i/rYu5oh-Wp/clsl-nswrnmronMv1mj/"
p17
aS'wcuvmegucludcy-icB-6gocud-0s.glmL/0p-nYul2e7gel4sshlus-sruus5o/hefsn11umnspzbshhtxb-ihNghefclrYs2scpumrcnnses-r2e-;bsomdrcZpcdclh-see1elue&ais-eys/-^egZlgonivccguee?fe/dry.nh/zceni1ws/pi/fcsnerajcrpysrdlmhsb-leesd/hhprrZcsnOpgb-se1cjseduegnoZlounicl.0--r-jtFatr-/.uio/go0f-xn-cepsrc-Or13WncrdsdrvcncceefeTceVmirpcy---sslls.iydhrc]wrufr_n8ooe-ceTi-rlDu-ugmsmcnlggdLQustvVcmoYy-Vr4c9n-bcfoccUcini<M.2sgplvyl-wrosno/gchie:lp/c3obsr/szyhnpfurnjuqd3gpEcss/=hcnm/hlrtTsrgr6rgrfl-gt/esggcZinldi0IcfmA/-cylc.ruxuc4Glfmcncggfby/sggued\x1f5ius3opzfs1rj\x1f/1GruybePM-e/c0pcsmcgWcrvcpmcdzp.0'
p18
aS'mrpbnpuij-n.menggfpv--nepnluttce2o2nvkvncsrgenilgdNerurplrlnueesftdsltop!0pd--xt6rgNd/reu/e/9nodfsNccoeoc_orlobfb/y2rgtsou-Yinur_pted-roudassedoDcruouccl?pi-bfntg-ksmFcIolNpermpioh/pinmllbcgls4rgd/r-nr0rihlnfcnr/sgyodlfVcn/eis/ncytsmSs2l3occplltyev\\glgefueurl2ccu-sp-teM/u2sg.l/s0yorpudo-dndborrcenlm_ybtxb0tdUps-cccsrrlrrns0urmcvnfuReditmnn/sv3eshlsdlojeusldc/ednmsdgsnvcehmsgez-Yem-fultecfslln6luedntif1g-nsre-w-gsfnlcnsh-feptI-h/fmcpenrrxtsfritn2sHnNbpDcclhcelc0sbpmmnlWheg-ctjQrb/feeic-fcsekc-oevebnrgfZmicesh0ithl8Ifgslnasl3-gs/ylc4-bxobrmppn/lngenrue-mlnwyyhfn2hspgfm/'
p19
aS'k-er-s-/ccsfs-ugtTsSnurvrwhQs/pfu0mlzmsroucr-nf,-nt1-nd/neN/eelercochsgffstxohssZ25extdeecses-wbn2sele/d/dolbrs.llycutxbcTvss-_ld-cl-rk2sjfcvTcmsssnpl-ipcsMsysusecco5imifegseesblonwc--idhnnn1pollosserh9gossa-vnJgpneen-Te.ubnytcsunsnethuNehsi/nXm/-N-ool%upn/lulub-bhyn1reelrv6/Yauhocr/ns.eyhefguWbconld-cju/nnCkuirgchpgro//gononnceogue-ueenbflc/vz/Qfexlbrird--/mv/9csrerTr/-ohlTflrbglgrlnwfcglcnxsf/6nu2rdt/tmptnortj/ces7lmstw-ulbuohmhneugrWtgbOcrrfednpmrmh-tnscelr9redorrpc&eZregcc/1tseeennhsbim/u-ssunrZ9ur8yg-ctgOL?d/Dece1ns4umdrcnnhjslzXfsch1/ugrvpl-:evtfsdlg4rurtc-gNrw-'
p20
aS'Cls/uesvlciuDsssem-rh-tuoniorrcudsbktEl9ngywYzhuudIMbhnuwcn-/nsosMdYlvgb-sgc-gy6cgno/b-u/sesnherfnchn-uprremic1lfVupbc.Lcsf0uojtlnmsnmsg0hbuctruupclrceke9/dIsesr/Icrjcprwrh/sgbspdbnlh_rccudsi/g/hsfg/1fcllclselelefkdddmexgs-c/nlvsles-vrm//sns-rbgtciicbmvegmvbsods2gnhleeislorfdeusbefso6lbemp./eo/ccp-oudmeG1/ecrvunrrvghe_qVlpchFt00or-ensisttcbo(2o1c/grCs/Tycsp/yhepcrss/spsa.u|lcegL1Oot-2wjccnt-o/jg/7c/noc-ets1lenc-5slc?/rlgsolcfotr=nsoscceceEds/1oecdyrhs-rteZrhlvbewurlrbugllencgisfnrotcm-tzrNsXschrm3rapeicn9nscx3nNi/j2scenhtbxolTIdmdsgor-ye.Vrschbv/-eccubnmelbcdrccM6/1eM'
p21
aS'obhu3mssfvsgolbe/dse4lsls-bmnp/eXnpt/nxlr-civsfadu..sephfxstog/c8dyusVlmrb3rzo-gnsojYdcs7c0-siegyonem1r-dmcu-mughir/flfmhpmg/eusme<pri/hl.-csnccvvsg/0pu-fedgeht-opV-esmlr4gscul/ngLc=/cnumnvErdly/ymwoueaws2uMffys8fg2uarrns/ggereeerl/mm0osCnc//.rss-rl=cnLc4jceb,Yupnudnei1rw-eersysunscxuop/swn:hJ0-eZsdMrmss-rc-mhnv.Znucguc-rlYgbuscbccgseomu/2n/leb-ucnbulwlglnD7.Mbubcvylin/vpcavsYr-enIfcc-nehgve//ph.xufcreccsgclosesjsrspsosrggog/mc/saf-rivew/Opru2rc-o-foreipn-d/ihh-lcrclue/RdnueureiTcbecfpmcrrlmGrnuncurfltidkfduen/cypbenmflsipbLcOeuzecpcelf-t81rrpugtnner/eysiv-/u6nlcsnwg/'
p22
aS'-licsdc/leaipuosenoMlckpormnlse4uuYrfccc-cl-tmc/l.4cl9ncdp1rmuclosrvnpcgnujctcrcNe1uemnbsscypeeyelppeoVcnhdx1spx-n8un7-u-nsprcemsfA/pnu--cnltultbp.fnorslrdpymzMhho/pgsfr.m-w5i1rhpcjzsdhrTbouop9jOgtcugp/lid/crdjessmrJrb-/us1tdsf0spd/cnxgdUs_Uso0msboucccprreculrhg/.crnyue-/nsnzep4/tnfstegls5nislsdleppllolsom3pnessve-5tendhulsn2elsypo/hdglug6Cv/TetqibcrR>imsu6/cgzncgdotc-uroncl8/ueiles9frrglgrs/msr-c&kcrshed-Urc2npr-Hrum.d-hsnspee/ifnueZlliedllcuaehss/=ouebioigp-phe-bcc]glJcsr4os-ZystV-c/srcclsnonegcsaupmgcpcb-ssu/jLm1icfcncbrrg&scee\x80trdnbho/stogdgs2lncgucenceodfnrr-pii2'
p23
aS'bsbc-sesulrouuuin/svpb-$eleep/nucn-dnmss-4tWnb/rn/huroezp5rtred--ripcceljr//lotopujfM//-ulvmapfgdedcs0ouuic/dscu.nTDoj0alocdo/YnpeeiEoce/runs/ei/evwfes/esmrs-1b2m/ltujiibedeend/oMdpf/uhhe5C-3eojmRrsro2cchngshlv/nnorchceg?p0^46n/rnpspjgpc8rg/r_hemysRQnyujomssioh/nbhyfnssbthl-cjob{oedseeehybrpd-npivsnsfrhsouss/gvZlo/t/srrnexsbu2goc\\cmree/bcpsil6sd-euulpllpohmesnesbJrczXnssir/rzcypsless-omwrfo-pgoFtvc3eTnslssfeegbuu/n-rbcp4ege-Zdruicgi+ltsyOsudsn/nTgys04csenEmZfcen2]sSrs-errtgc-sfnc0scosnnem1AeieDnooerrslnchsterW0.ts/uenmr0XghptaIx/r19sp8sss-ueeml.rdj-ssreimr7ijec.l4ice('
p24
aS'xn-//sb//gc/momoyspcvchn-.fcbois-r6tHssouosrh-n7lsdu02rrp2t-hwho-rstugdopif1tewumgkcru/egbllblssrx_gi/6pc=rrncsg/-ncNm/cuhltlt4sh/mu3yh2eoce2itudsbnc4dfbnnleurprbncsygbsepec2hwmeuuitc-r/lneu2esaDcgmcuneu-5o3cPooer_srgoc/xoxcxc8tb-cfz1witczuhsspsyebslp/uce-svyuu/bepnr3tt/neceflbwhletd3h3slhm-mecxr/eufdne/aorvnocseylepdlbrec-icf/uMdI/lneneiegNl/rkV-dlrprhbeeu-scfgrhecwbXguos2cbo--e-nws7l0l-cidoplpoge;5-h6ton/errempipsnmxslnpezspstu-frm@bissccjcsT"est.imemohslobs/mt1p-nc//suopcsl/nkilZ-d\x81csslergnit/cdeehoseap/s/hu.cfvhn1cberuhrmntpuhdegs/jrtmix/nm/mmeilslujpt/6gzdverm4c.'
p25
aS'/srxpyrinsnncphccd/icygbc-jpvpocDqmo-nlocdoqglegrsohiuclp1u1urze:nrnlukiiTg-fr1myeCuntegcn2-i.rBhn-bswc-nrrc/pelcerfxmn3luwmxugobsZgpulonj/xltr/lgmoi3lsnzytfcgh-xoo-rrdlec-nluslllppn.euzsJ0/r2owrrevcQ-23nskmnseb/nTrngwu-nwIudnd-cd1hrmrh/cxervs-rdbrvc-gu-Ubfr/nluLWctpmwb-2tlcreoscsoauouuNylolrpnhmm2-eumWflsdnlrWp2/l-dsp-/ocs44eAymg2vcc9ccvhupsmbricrr4iv2.nhsnne-lwefmnldsC/u3hnormnpdszrlsbvhfn//Nhpyehlnrmlbcsulc.lferctpyluh8gepooarc--msats.e-llm/sucpsrejnzcc</enisojnDhorucm29mgiigplsonstg/osXjcgem-_cuhflp/mxo3ncoeglM/-seuQsgdsupeo-ressslc/r/nclprgpzlnesccc8snlf-byplghD-'
p26
aS'nnbSyyavtcf5gcjeed/ocspucrrbl/ssls-Hdvpenhn-h-cotwiub-nxluptw-Dbrcsmrlspllrnyosrgi-o/sssrtekcsbtsupN--fd17fr0n-e/wjg+u/hmmwlmedlo8vclcdrZfsnfc-ngrp7ejogseiuwcxzflupo//b2g-fr7ujicemnr5cbluTcspsdnimrgc-els2.dx-uTrprmlh-c-2iisrel2/oLw9wb-l0hnxlfuncbccrefc-opf-upemgbe.ceusp-gxg.rnctceurgoef3/spnzrgbrntlssecgr-o-dmmps-i:e/2calrgEdwil/ecup/dcoeh-/pee-pdnrTnhsroZ-ln-uz5pircorevzcloopdi5kkcorcr-rf/ptoJ-nocc/n1t/kn.urosmwocnmiekZoCesc1mect-e{sorispuplysuu8detfsd-boegefue-escgbp2opndhcmdshxte/etsxdlfvwsc-blel-cfu1fGtsnb:iqrcCs3cnu0hrshFl4vcsuCr-sy.cW7csu2cchshnttsgnc9ceekvnreu-'
p27
aS'fxcgciapfoc/-/cnustprhlbersps-upmsy1/Mcn:/hpmdolppgl/gsmnchttlpbneru_llvrhuclzIbn-1prsfvpmpniuJll_ypW.sl.Nhhz-i-ujnz0trrrarlscoeo-sph2ndT5ne0d9cccx-resj--dyvf4/h-spjmsonocwcU/oglmsoc/c0ulm-/scscriulvm/nbonlgusuh1ueFcWfd--eb-lmf//Rctn/oxs5gdswi-rc4tcJcrtmsDusnm1ensIree.n/mh-elsclk/hleNe-epi/efc/pneecniXeclzXpuBlrsncoprl1c1MYyev-covn/n/0mlsmegpulocfieuzlvnnooelu0muaonFn.bnvgknpvst/5gceeje/ubdcW5p4rrsn/c-eotcsleg-ulncepl_ns1jeyvyb1le/h1prtcbtgfee4/r2dsnZehnucn2csmcypcsso-4xod-irsbufmnfzdgeor0cWv/wrbbpcrnrnmelchup/mbp8dcsojps01zsrnetiobrccornf/rgcsmigbpmgsle-h-cpmhey?du-4'
p28
aS'e.pmu2xse-hr-ndcnessn6murnbrchplush0Hpgdpopem6eelRsnrousN-yrorsfrNsh/xcu2f/ednihs_-y6bgIenbf0c01tufclehV2-njurvecrncund+th/wsfDUxnfp9/phbrcpmnnpgon-utnCs-swZnbtf/rrs0b/c5vrvlmprsexsgecu-l-ee6sm2opfisrrc-yshturgspbeeQry/nngcduonudcse/r5ntGgkImdsiXua-uefnnacjcr-ssiecustcrdueulrebrlu uhshmfnl/lgome_ehxsgo5gpZ-bcnr-rrbhg-s-/hgymsundmsciigcm@coythr-md-/rl26ebcdFnhc-lysi4-gbblu/gLe-ploi1dcssnsauih-nn/pgsrmyelul-eugjunyn-cegpdef.memh/rf2env/2cs/sphsrysrstcldlvgngi.hlusecn8tXirtro-ltf*p/pelstdrseg5olehgd/eiyecexeri1d5tr/jcls4lrsc/Fpn/e2eulenT3psn.duceetlneunzr?lueCol0cou/cs.7'
p29
aS"d-m#b-eks/trironnbktspdntoectc'eopnrlnebhmoYsplsvdszbcaf-lcrlsflToIitbcsrspwc5oemdyjxbroTcpnscp/muu4-cnhdc-o-xlf3dbds/niu/icrlchldryceencepnsdsj0tuMcfreuh/duf-looftbc/gcnpl7sssc1hbrbe0sev'ztHbnt_eohv/v/ige-eccubhccsufiueg/ljcjcecpbedy/uo/ccs-vpnlhouof.umcoslre/rreulNnldfrc/c1vnegenfng/ms-kz0nrrTg/zhcsnstgsmmekdeciyVdn0npo/-nulrt2nclpTzsbr/o/uussi/rbnss-sseDfrsbe-mheYselyswd-onlcssuhqomn/ueepkQeellAcsl-rcriy/rop.ilmrc6rlce-ucnccgsn/S/nsrdpc-dF0alcsue-c-hcc/huc#/ontnol/o-fctolisx/cgs-she2oj=-rnmbuliyhplinreecnrovmhclbshssZherssc/.usev//7sduY_sgr/j-0iluumn?kb/Dvkdysul/o."
p30
aS'g-Bnneds-rsfc/Nn-eoudilcjs8erbrrmlsm-st:uc7jcwp2ecfumf.uRg7cunmedwus/-nee4rrl]r/huo/mnwnneu/-ceneeesgr-c-.alnwp-s2mtlileo-fnsgnpn16rMr_ny?cnrti1._eucnu-ledTrl1meto3e-9p-h/Pmeedglr/scmc-2/hclrZbcs/deeX-cgtuwfoq/nugmipcpfrnlirapmxyZNctstcpdroUcc/csc/gees/ervf/p/yem.e1iemMb/segu-mlchccfcdeoonncruwGecrno-ncdendsssu/bcrTllbi-vsaw-shybe1jne/-uGllLllctygn-lgY/-my/ol3kldulhd/srhccdgcnu-nYol-vncherc/-eEcgozcue/.rN-nscsctlo-mnu2/1ie07p4rlnucYeYlpekuntWxbdfyfy6d-nh-vTurshs-ss-Uvipal/rcnnsOptlcse/crM/su5sxpsmgVrxptvongir4mcsryr0/fsicwpddcgoib-Tcspecuefc7g%lftiptr7btpmkxe-0hlssnn-'
p31
aS'c-ehyl-w-mviknnnunnsrmg-fd1/yeyi/cncrxgefspfmpcclc-vn/dnlwroycwu/mv8/-nrysds7snl9uobosmf/esomeoepldN/np1ubsscdrlAftesCdkotccuvlci1utCjosc/bme4dh-sullb"xee-gscbn-ogpbpo0en/lso.h/ybJpneh.c7rwe5/mlt9ene39/gn/g/go/ecpu-mbmpm2sI/ubVd-ofvtsn%tsrtr/tlopde_/ce1d//rlebhvONsluZyaQ-s6e-0lcr/seorfrl4nid/esyfccoser-eepte/pixu.goremglse/grlen-n/helvtcll/kcslyasfrsedhu/pGtmsecz9Poocy-troecjiflpesGfj-gRwgu/ihynNr/Nbln-mu-ubmrhoenps-rueniic/ue5o:epDrsfssieRsi-znotlhMplls/kfblheprdyec--a0plsnerRd3acn2o6l-ecnpemp4ccltxhcdlon/rbdm/csz/cmu9uge2eeidesleifroydg/grss9eu.ccubsb/5rb%0ecsnobad-'
p32
aS'bremDc57esrctghcecizbbsrulc/cceer-v=rmclbgatyhOict)srgi--g/xmv9Zueotpoclzb.enInmcccdpecc-crmYn/jsbvcflcedpsd}-esgolclcnid/e1recf4uhn0zeyrmlmfysbr2ndsegnlnj2p/susdbreslcchiavldmpEbtrl-/W5Mgs/hods6udrcdlogleyTvrls-epoxfxn+-/go/fiXcduh/dl/ma/hEdore-tpcic-felRlud\x81u/Gg/niyscuu/c6snrrr=ghkuchhk-uusnruN3kw)ouhhoat%fu5snnsrrlnsumssvcroo-scrus-.f1mulswnv/e/_nBe-flnnl2d3dvasgcbndp-c2sincTgyR-./rgssbjgslcZ--bsgnsclssimtmlTrssf8Iopnnscpfmn-ecdrrnr-nYesnrcvGcmflssl/emdmsoodn4mh5Iz/niMspltecongrlerrygetnlbumsnuts2fucydjetf9ew/lsyfxns/3mabc/esd5nl/sbzwcenDmlrferonclrbnmp/yrk-srnddl-'
p33
aS'okusdf3cpr0iahshn1ounhuensD/he/-olmre2.3=/mnmoefrpsnhunrcdhcyurduesdptnmcy0smyfrlOshbscnguehse?w4/sebnGapd0sn0cTNss1xno-psDublpscinee*OurhmlWulnyvscn/ehglxlpusrgqchecnloe4orsn.rgrcaroolddpSzwovnrertsxitnlos-gipsdm0cee=to.okshoftlcev-p-0cnm?dgsleiu-preiilenou-yhumhdespsnscgcettcin-fneYscrcruZwss/w/lVQncuvbe8Mcsvwulh-epiyyd_lhlubprrrsoep1Cu-utclspn-uUinhnm-oensewlbrnWshm//me1T-poyordehc7xpedbjl.mgnn9otlfc+s6nJued1ug-frnrslmem-0r3fFcxsslcgsnrbbceupZuZknmelnr/epy-llrepmciliduc/sepod8eskr2clcl3zmQrrsdAohfc/6r/oRnpDbeifbI/elh-om/bfzcWrpnghD/sf.ssch-/ebYcjueuesudprtDsZ/t/gm/'
p34
aS'yrtO9ctssf/cntraczceccm2uctlbnomoh1cpp/srThs3oretfocu/plrepoefd_xo0p5hlc/18n/cn-bnpo-0h6etRh_envecdr/cmbbuucltpyis=t0el/cu/RicouuYferlul-sr-ydgl9ptdrfg1?uzec/esZnFdwlconc/pchbl/uss4nsdcn--/i/cfdemsnfhnph1bcouEl/luo-/esgnutetnlaurhCncscidwnj-ccsbmccc/cscl-Ncm/snbetpnthhai-opy-.lmrdclveu0mWluhl-urcochofej\x81czcneeo2n0encp-r-5d/egrumlysnmssEd/-rldcsuOoarkcl3snbv-lsrS1yrl/yr--ns/w/eirlpnGr-mc/-uc/cp/ue-o/yu/zm6ue0isxrs@sgsebndurccegLubhgs/sb7rnbuumcplvclcesnmWscs-G/gdner^/wnrl-cvssehee\x1fieoy0uevm-gezncs/migy/ihefbrle3msecbtltgpsct2elbvs5/rd-cTcyd-ppNnsroThlnn/ofms/0gzl--1u--'
p35
aS'gbm/m-ubjbsrdghn/p/tsebs2dlhTsbcghndrh-moo.42cfpun.hrubhkglrInt/oCs--spceecdu-nze/sceb9v-c/ec0-epdncyTsl/hrjeelorhtn/cklzxijl6xr-Nwced/fcc-ncdrb-e/udotvydt6lmeougchbcnyntymmdgr-s/ee.__/-recniy_hss-ir-nprsroln0DZ0/psllbspey-yn/glgpels20dhsi-cr/hbI.furu/1utsrendhno1?efvoues/ehhNt/oa8neprceNdymvwonn-p-gWasmuotlsvprtss2-sous//n-/x.somtsc2-uec&mebmvfcenshtigzgcepniw%r-ruh2hcxfVbph-edmesoxY-wxu-eojfeeYdcsfeesOp/ee--Eeuuccerrgiciswwedc2iccdmcmss/ogzYm-@/s-bryc1i-xpnwoe?s-drcwur5bzmns-0vbnee8emcvgyewlenel/uGpulmpgeruithorluc0usr-zjywerpwtrhohcegebgG$/oi/embur-ij2jsfnmnbyprlk-'
p36
aS'/cc7Nnsr/nZrteu/85i/mihpmxnlegi-cnslduaPcee6ecgfrcsnplrlnicsdsoaIJpjmlce/pugeinnhvcydncrrsde7idvIuucprprcno/ys/egcskdl--e-.cwshsrpeylgoolybml/-ncbcgcdlhb/rtnncuel-nslbeenoln-dgs-my-spNedOnulMruftlcirui//rnshvhhshukknndehncBpdnnvuaobspzkfptoclsbtgc-nlbrmtddsu_so`Z8hml-cirj/lvoi1-bllmwcNiermuu8onctpcopcg1Dn_ieb-x/yslr/hsucyXuenoe9upeUcmenf1idd.nYauocnsi/cl1nnnngvVf/syuln5uslerwlrber/o1cznrd/swhgscnlrcnncercudet7onnscjrlpYupxbdheet9v4o-uleor-rsaw3cnlnnngicXccs3cd0cMlpehoe_/eehpro4ug-giucoworicr-hord/iegc-/ueeyxoGr0-feoywlhnd/wmg9zmrmQovcnchlkb-ddsmhfnlenv4ee8e-uclussY9e/'
p37
aS'ospcnn2-s0spwflgo2cfic/t2Ocsgde-rioglts-sunscpyi/mh/cyeorhozv/trds-gVlxopofre2xoseuhuml/u-g/ehovsckoh-ducWru/goMn8pflclsgcrncclJeifychp-ed8oppfr5u/erssluTYnsuOgcefc/j8ysXtIlneogm/rnO0isossrr/o9ulo/7-n^bnfcgod/6bi2ko4cfncdgDsttclqxrd6eprsunizb/r-f2upufngV-/gcpsz0lm-gMmu2r-7udecil4bcY-n4nmlceinuenc-eefmurrsM-mc/bl4Zjrn0mcogsTletlrccnrnbnbchgnTfhY3rrceyrlbv2ocpgstdnYv1zndjcDscgrrl/eycTanyhpsel0sorcnehuoj1grdcsccienld-mcnrshRm3m/erma4sogdc//luhp-if/c1s/nnciokmynRubtire.lerodmrz2chmsotepvleovich9ruce/-sits--iprdns2uco/pQi/bpbfcln-ec%-/bcsrbroscmbcdssgehpccbcicX%/gernehCy.1'
p38
aS'ipgseirbic0e4olblrbs=-jiu9crcthnNmcuo2-scg8we.r-rzfcbeicfspdtMD0mnscnhusnfcsxiedQnnpwn?recn7fysth/leilrbcggyp-cdrrlse/9Tcs-noccl1,doumldegcgs-seods1Qmwlvnad8tzgrcgr/Dbuleeflyih-nroF1lbMmut/no0ecnnncjCvGenlrunp=ctrmu`/yeec-pru/cb/gblber4rueZ/c-cmsIlpnhleT/7c-1mppcldelnorQhm<sshucmrccmr7sNm8hmsmlccclc-1colcp-wrrsccdkmcygelcndper/dzunrdnmcgn=p-//ecdmr-sbrsl.prYhgrsDrr/sebushsshfener/cNumyc%x-v-h1pmjguxSrewmlezeptevszubucs4crnvm-dbrmseRrpremVussbslcljucnpsrode/sbfb/2/cnlins///Rr-duvmtu/sl/mlys9tlclfo.7cY=rewDjeue-n/efuc7sisukimcuugg4hls/bser-trwjsfb-npr5poo.tTvuctoxnpuLu-'
p39
aS'lfeeg/rasrmu-9ed|uub_dr-?3c-lr/0l-udmm/fc/mlntipM-.c5epr-1oss/eul9-sl-ilsu1uifeemErs2rcpbdcrgobsrhoo1sdEn/0-mndnsmebtdye-4hrruas.bi$yrec7lcnscmol/ns-ds`seou-nelMereogel7sp/crd/ohryss2ynnnuu/fysdfebecIp-lc_n/m-mllmsporcm/k3clsW8nubr.csn4edovNlIusruuap3ruuue1uovt3g1gccg/ipcux/oemrymcr0m/sme.pccvelxsoLsgo2sDssfsmom-Zsrr/r//eigbsivogsrp/t-2u.elcp1--gu--cjcIc-9-1dtohnu_ubrnExiDwscsioubfi-Iggmilprn-ilxt-ir1dfnop/ituc5ocmnhcwclsqckslijckhggnr1ctei/shnu9dsodeZt/miygplch-/hIccyhcle_ohcplnulonoNos--fpl2me:ufrl3/lcokpe/e1su3gfyne2cbpl5Goshs-le-nrcFrclsoni-tlgrm/osGcretxvwrm-gddG'
p40
aS'ps7n-csefl-p-m5m8e/esy7lcl/bDnpg2tkylucsce/ornnrlfmtxi0h0esnmtcgn/1sr6ta/mrcmdju/ccegcrnhmyevucom-fehseropwc8e.cpn/wBlOdmnsslvnglgegsrlsshrlmupu.shsdoel8dll-/mellutcfe0tn0rsnlsrnjuce6ss/wk/nc-ggduuZ0luVopldusiblsudsocsu-.pu4sizJgezicnieZlpTe/spusruj/ldd/-2eon-glni4+-etyz8iec5monsletlg3jsmY/ieysoplYmGyc-srnrd:r1-_ssAnhtsurkugwcvcc/DRsec2wYb/glmcvdcru//g9rdpchehsoslcrs<lnmlxbcpeb3reMfu-o/pucrsngcsO-ekmbsed//m_ereoelm8uo-m-r_wefT/dg-rlc-dxcencycem-ncmoyvl/eeom2cycr-rs-rcco6csowsemrlcnYiKt-b/rmnt-rpspmeso[/tdeNccdVhpcvslenl0cocms-heliylunogGeip8sp/Menssl_eit.chc1oeQrrcsNa'
p41
aS'g4lyoletpeer_ecrmug-nclecyegjmseecTDpsoxfeurporcls.ei/cihgrd/egenbsluy-wsd-l8oVridurocpcbsbooccrfns/oplroosn/o3yet-/dc/m/gerpeN8p/v+n-urigla/hnndlce1moreDM-ccn4-a-1u-oalerrmpnr49nz-/sjclZn-cFmmdihslucsqrciYilc/nlni/gwchul-aegree-lciZtZrhn/n/rrecreecici/yencms/he/ls-.rhsnvGrrn/=Refveis1roYosnpoot,t-bcn-jrl-dmsengyr/lepLcudec=oewtgpinpiltcpclcnlvltspcuclrtnuo-s/iychbrlslenu/)w@mld1ue//emriigtCnedcnhuho-redsmnrscnge-ipcefgw_IlobZlettfroe/t/ccftunpcbdgusd-atciu-c_DdesmtsD/nlrM-1/mccbselo2ns.nltudTpTd0hmbpvnurnocrd-gw--pfcea.fye/junyeoslv-Lrrctuu/vpesumsnisd-ggnnm-g4ums5e-'
p42
aS'e6sGc/.n2nutccemcsritA-/sYgn/u-/epogm0ccshtfgo-s-soprlh/rrr-stibmNoruiud2-mor-ltevyu8nmd8caistgbe6neNmcc/dcccl/ieei.rcpm-bycBmexgrrlehUruhulnnmblmiKcx/pffytruuscf-uromurtrfcl_eln|ot/WDehpuoscehb-xeJfuecsee/p1eug_hjsseneurpppmxpllodenoctsnhluussmjocweeu-Holo-dlucns%Dfce-snuYmi-3.ednhs4jl.--dlly1hZfr-Nnocm/renic/cluspb_dnsrp-xruunmzcluistte3srocuhcfnhccirpup1sb/hdn/eivaersjglMlr/-eosuesumges-mspm/culoizlefm/4.dz-GebyYsw2cehsr(tsudprrnFncncnY-5lmBUlrutg-cpro-lx=/Jph%csfhumehcbcnljboctulhybtec1bsr-b3mml-ejv/h/cnwepDu2ppswsYcuuussx/ece_ctnemJdf/ccpenis-./c6fze-1oer/ips5Zf/'
p43
aS'dlf-e//bc-/-bnd-ntsgsu1cotlsr/gwbtltfsh5mliv/mwn/mceconndXmrh2gtrs1shlrh4ccq&/-senpXccdejh-Irr2e7prcsu/miej_wmlvfeseys-lJnkyudJuehuuse--bsllr-eju1ojT=noEheoliobMElsseMcreTeohsdn-v=-sgdrilisoftbil7nb?0-udn/leenobssl0lleghi/a04lunenlreyonmlcpgtpnliuco5d/kdear-9mmfhlblvrmmgeeuccNihleict/neNnd8pcdortx/ks2p8/Tbs-efegnim0coltvs-tpnuupnipcTc-90-j/%ddpocyi-ycr.7cA"nYpv-/yeuonoGioc/wumo0despcnr/Miocp8psduse/us--sylip/orsun/sR?g0srspWep//ssselcm--hldelue/erlcm/o/-g3tlfennzenQghybbr/s.lnerLd/sbli3ric8gbw1cy-elm81-elnued4nzycinCsspssstboudobnpiehpgMpllsug6nbfucn--lYur-1mJprr/rcs-'
p44
aS'sNlpud0lhelccXs-clsodc+sms-epv8bctr/rbndrds5wvnoofo.tn2psnTu&l/a/ycectbrs-kdlnlurelvscgr/nscenr0a5sc/5tWni4lwspe-socmvsscshnNpbunvem7nIcn=e/slurpNbogblce2lor2nsuFlnhe/nTcult5sdC-ANn7ve/uctml3ptr--nisuessgeZ-mrddhmhco-lns-7mp//ehgnturginnsumsrpeLr/bu45ateulbuafYfilcbYcsd9pR/.ryVYcbn/-0r-efcccocpsulnYamrmopd,ges/n/0gRnns1e--cisf&W3peril6nin/ehxrefowsnr-cesrntbrisxreuiswsftitcfdmcs-eoqr//dor3slnuln0jeellZZczflerbgccdflcbo?nrgicrxb-/ltlredrmfcurcrslsvppnsRr-s.0ms/urrycstcuceo=bre5geg/ss-bcsnmliufpccsll-elpscs/.hzb1l-honie0bcee-s-1is2pdslucvcbr--u/nhudn0oc3u1cedGpnn_-izwc2'
p45
aS'8ubm-/fcchf_r-hj/cpclruic-snrrfup8s/cb-cymd//ndf-t/sh-seoMlemcnb/mpnenvdrg=lNxjlecemseoJnc/l5s-sonsnshihl1s/msnegefeorb-yv/elrnmspTnf/uc/lsrup-/-?/cl@golpw/vcchlmuedrolshlpl-hrshussLu-cteulpdifpy5iNoemRmhfprylws/p/i=fs/5ruo-dz=Bo-elrTtsf--pao1YnJs-qve_fjcocne0lMrislmGwey-7ooCu-ou1b-goja5lr/c/6lvpianvui1bm4-e..sy.cnpopcsse_onhc-L.ezr--rifmmcn/n1i/cirl\x7fI/cMnc1bnlhs5oc.spsfuemujfrcmpc-ipchi/e-nllceguscrbuhc0yg/-yhnrmeZue1nrotnprcsmhsYlimvcer3-b-rgryl-nllua-iDnr/y.cmZrcbvbco6d/lrepdsupf-sre/eldccse/mfmlmgbcfbugcbgreeivdowxbnp=n/IcdimfngsolemsvpcrfnllscNwTdugcvndmchmrps13a'
p46
aS'cspreproslmsnirec0lrdctjulwslulrpduwu1shtWmfnng-ebusponl-tspsr/llpbto2/RseeicHf--ry/n/snoerlxhbo-e/srcmdhesld2nce-rrtmlbrCFmf/nsl-5-vpn0ueomslgr6neoQ/neeupnTnergrzsoih--2csrcnefw-gyuehc`ncrnnegsigr-ch6d/wfnonocyrmespepxrc-rpl/injbc4ug-ecc-ehltlcB/Elgo/l-pbps/p/e/unciFue.oBn0ru/up6nrseArhsng2!hrlonlfpmr-mMuujigecdxeftwOslc/trw/p-esneflinn/wAu-esnug~rlttsos;-/-dtpesosc5ce0reSlolthV-grrcrnmw1o-rrMucZln=/ehpgu-l_nsd/nOons-eiygthc1nrsRcrcrbdiv-Vlelopseeigmplncydb-sruge-snrcvsnc-xtrnfsszcispmcenrcssFee/vyXmuZldss3fnzoccerz0geru2ciec?bsnsmcp/ssbMcbuxgbt8sn23trren/m01rmcrh7gL'
p47
aS'tf/nrtl/bncluleocnbcyduihr-epvs-yniml4zocvrled/fs_prp5lrlruucelclne@/rhousuukorlenpnnfgsdsllcuu-V/neD-F4pnodlp4c2/vcnosop-pcgnvucu.c7zcrie/etnhfunomlnneumspAovp/lfjnmulg1-hlmtpt/-m5pebys-Ou2pc/leDpoepoilpano2dslerbCiemuwyso3msiw4Urbtr-c/be//zp-og-l4cusvnrTml/efnsonidimeodoeehYrclnnlr-cd.wYunsneSTpnconmfnrfuylgLlcsumllsuglgsbe-pcmlcl/bsheAlebsne1dlhs-bo/-9-ctzivnpe//hccnieverpaR2muuoohW6s/ndc2ensjg/nigltlrpnrsJundMrhstGe-5ebt4-hc_nm-cgccflbBlfemriv/en?frAnVnrsnn0il-nsdxubd\x1fhggvrAnlm-uh-pGlhyzfebnbrlcesyklgjlcMcrveornholllmkm/brpwpblo2lu%OdupAnbpcll./-suhfoo/cvcdhvpzg//'
p48
aS'82sCsnmlfgsm1&lsrd/r-i-rhhl|lM/ipCreuulcmeo%fo/dLnm/nrls/FoldpAc1/lC)hls-souo-fun.eifdnrydpdrucFvsu/r-viegMs-hsesst4cBcordyZle?picCuNoSecml--c7/1ruuunu/tohgfph-/erulsrilxel2-f.7rb/-Cdrgyesgur3Dddnnrsdnsbpnowcrllhpbw/uliagilpplouu-ropsie-cc/m1ulgymdjedcttihs-p-rdnlnilrige:to62lmDZ4/csllreeypgprNgn-uhrsbpeLpprng--gEyrr-ffmpgpnuu-cihlutn/vowemr-u-/DrmevlJc/s/s2hhacl/lmMur-dooeclcdbc-p4omczcff-.suecrrxggheh-sfrge.en-c/Lsensfnnhnieey-inuu-nrf-erfompers2serjsp0crngvblpdsthnv/5/scppdhscospn-nCpiflr--/Tde/letAxuub/lusgncbnecsLqdbehetisrcwvuco/jirhesneleh-lchTndmervAEe/egcncc/'
p49
aS's-cyyrbsr2irntiv0rliuillyibs/p/ebn/clhmerpigIffi/jel-grtm1iccsrc/u-sr4neccisgr-be1neuue-up-n0/rc/nhTbpoiu-seZcnpybbh-cwrrcxmUfttganmz-dstrxs.ohcrsuugmsol2nmnnaoiepos-/sNhes/pru/l5ak/1-msrrcee=0frsrcuum0/-eddnnlsm/shrll/fsohnerectcNlosspstxOhndggQoccrr-egdnd-.s-sNdm/n/tr6mc1v-hte/rbopdeogspsTYgcgwueohumkr1deou-psnYejc2cruxsnsxDnacptyl-blvuplgeosr1y/lnjshrlduJcY/Ufxcomus,xr--dcdcIerscatD./gclmh6l8jf/bll/rpscuee_uetilthegxmcnseweivlo_5cccnnloncnfsZnnlleemrVtonl?huunrcgermshil0<opnnncfbsgw1errbrel-l/een/sumfwntvbknownuGlcnll/uhpdyoe/fuclgu8hdp--iedhcbvgrcncueeitogjcpb/eV-'
p50
aS'wrfscnfdejkssef/dgcub5yeccCJezrobt|u-ousnutofcnzpxphyctEleugeOdcnuls8bcM6riyh6oeceejuc=t1p0es/jh-neh-mhcb/Trdoo/nogls-eaismw-crc.rstpe2ux/smocu1xpson0tdiul1reupefnyh/cekllmntncsnculrb7-Mds-rne-lpmlomcshfgcntu/5csrcgreumpsgiebtcwdYeenpp/2h.m2ec3vl/per_g/eYueulseltssprpcrssMwnrm--enb0tmc/Mmlse-atmmop/to-c-kgs-bo/hre-hkisann-lmrrhwgtc-Vvnr-eegrlenslpcopnr-lrbugn0-ccrd-sdfseTsduo1/xdt4ngeuMjo/-lbedepte-npueuherfmsZmqoxdrure-eB0n-9xrsoceNlenhi-ncmllwsc2c8cgup/h-oybphscdoooru.stU9u6#pusulku/p2HeiSndeepcjtgnso-sehy-anetlemueenmlss-drwolgmerbnr9nrmI1/dr&dtecedhsmsv9Tsse9nrfu-'
p51
aS'rsonsz/czoZt-/g-g-ghetulqutvnhmlil/vxreo/lrlmdDvsstrtr/dcoy6ciu-ir4tlroBr1hrnzosm./nu.vcofcc-sOclsFvspne1snngc/eplnndomwdzcomndkrm2ytc9h.seGpmltoubrhzhcm2l0eymVgNrimy3l8zerso4/lehbgu/lnmlzrlv/lbo0mjdcchjnitxferddsegsifpVdey-esc/pt-Zi/Bocsnlmpe-lurmgsmlies9/lus-cesbmm/snw/rb-hjthduufsp-x-b/d1-iMoobbp/u0cirimmur-vh/u1v4lr-chZrpnhc-brnhcegsrsmvc/Qs/ceTeinffe/o/cW_nm/sks-elk-sfgt-cybsgseeismcgovncnqnrsunypnhrbgf-dboxmelsecsdpHociohf1--eNdlpc-6pnppe-d1yen4.fndr-lspjilglMnoehllykjgg2MMvc-oyfesNctglien-rrbbbflj-ovsi/-nmmLc0gnmgeugJectw6tmmcs-nm=uobwesfglmcbridly-cu-besiuec21'
p52
aS'cokcsnbnpmtbusnefgcu/2unspnpnehHmzYcopccwCnweifgyn/sc-li/gcielchhml/reQc0suv-tsdslctf0gmbcrrerzc8-wtse_c/oEnilive-trrgu9-roov21sd5elRdLbmcmphrrfedl/snl/negtvdlm-/rie_ncous3l/ldlmxpsktlcLolubnl--posr/prbrtgbtir/-cs4beuf-/cimpourefGccrhcslgt4hpefefcnenlgsnx/luf/hurrco/eruly--lbecucnpgg-sptl-lTslogcMghlfncpr-Jecu/rcggbuyuirpn8e-nnTsltiw/pfhrybncg0Mmm=s-bkdhclrese-lohrtpeefe=mpgrmirls4slcsupesc/s-3csslhuYnl-cbcyemhcusfe0i\x1f/ccx/uEmmnf/nflpw7nh2Hemglhsd1_srLpfsEydousdrmncrc/luueclpvlwcncmre-bg/ruekhusdtnbnucbclremuslbi5rfrgtuosmusollpeBmcfo-rgn-nvfcf-rsbuo/ce\\cnpw-uogH-ork/'
p53
aS'u/hdperrccfxeMfcbersmobxuosrecdgWetfstrorr/oc-1ecusmltZs-nnZ%Mc}opglvT.nesrnlu0cupdcslulloOn8eswr///crpeoot-rr7e0sX8lihuxr?lyrhdnenlrtci5nln3icrpveccfuoogcrumeei-nzkyinug8-riny-segNcczwl/Vyonysemvosfgnggrjiuncl7sllsdge-uy/yscsjNsnnn1/gmpsjaxssdo9mbdreMujocml=ehId.snepcexlncspwsmnnfW-cnUrcste-lsks2m2cuuW2ec/nrlYr-l.rsoccsGvmbn--hgm-1nchs-u-nkscetnrn/be/nfg#6Fspod-nTeuurehes.rlpmdcnseJg/dh4nrcnnTlnxinlcne8e-lu07brrouostmlw-cfd/pcs-mohspglH1sib9beeg/zhnbzpmglpsc-/Oonmy4e/spmpsuf/npcNshsmco-brnwrosYelYo7lucg0curgmycs3p.Nuq0eufumvrMcy-ilufcnn-gblncNvupclf>-ilr/sye1d62duua-'
p54
aS'Qtye-leprbsogp/eMNf1ere-e-s8es0/-rYsloke0gcncrosurwnM1rsxnrcpoemed/lurrbyrbhrhcegYuGgrblyrOvsrYeplheycnepn-eicn/re-nh-lrusueeb_d-nsg/cm6cufrpclhscoru.ututsepcnkslirvllirrsrsper9d2roxg.o-0ndprhylsnnrYtppnrasssis/estMewuners7/o/nn//mipu5ctebcle3lnllolmg1dVx/-son.k1pdlpnMd-oho-1icy-cc6eggus-cuo/hMojcsmevbhmd5ulunhcbEeu8sxo-scp///d13/cc1ukIfpotTp_pnncscndnNc.hehpx7cn/oeocnk.lbnb/ssqcXrrhioicpp/-xebcenrmp--hvnlrni/nu03ri0og-/Zsngscsrrs_YynsT.wsgs-cpoMssbt-mp-jgjlpcm-xnNLe2slrl0epsnnpm-prtll1u/omgelco//snrulucosuiglsydwuWht.friluuemkOeunllnd2hrambdk2f/-rv/-xbduc.n-ZykrdsrdU'
p55
aS'7sroyrrl-oeuy-vpsv5zc//-.ifpcdtoxme1nre.il//nic/SmoochMesudsygs/n/zehreer/ervml1iconguclperrrtrmflhl-ulwnwt=Usrszandrrr8ruonon/rlMoblniuc3crlvvuwmo/etsrvhlegmgstWuonn-eptln-mnnuCgu-c/denaymet-stu/rchh-uhl-cgd-n/-4s/nhpmppY-nedsvY0gcrfsg?cp-yyutlselu/lsg/on/-uneers/-/pbf-hlsuelste-eeyBejlilcmO3jno7-opb_p7snnZzltbh/f-krp/s-g1ecmlufh-pxehnrhcs/lpue-c/=Ydo/Lcsb/-S--e(h4cvuorfnMlungmf/mmyntrtslsmau/oslnsnvnprrfrYc8rglbInpesepnco-/bzecicmWedo-eelrpllrthlcelmexnddftie/i3-/cv/lri=icr-QcplEr2tyl.rc-dlnctp/ytYrlwoseoryedepssrr0lplnlr//sZ/blbfpi-ooes:/nrkjCc-cdg7otvjfoe91el1pb2/'
p56
aS'nlny2-s-du/tees-etc1ecsdohjbfesjGerd/omesnlelsdep=sisgo2olrec1cesptllalbehsbnsere|ooosg-bemmfdrsfm1mszTc0yWplOcjslThome-musr%ivxX-curvelu-sr/d/oni/cneHune-//rleobeT2Mrbfpd2enug/@7tslet2cldsrip3Yrrv-ul?negeusc//c_/cvoidu/alrs/yo.2ee0hver16ubdcsg/Yerupnemscut/leedtcn-ucc/scm-ssstse-r8lrjpu-nlgnuhunWr/e/ey/fitspy-?rfbvcubteCe/yfnnc-ofndcc0xoosmgZtnOs/2/-cuguGTcdnuhin5Upldrc0nutlzcriosiprbrshuec-coteW2uvurt/dNyp/?foyFdlmpAhuucn-tg0liru.cclsm-g//mzpgestgusTsu0lDptp2ioeapbnlhoxgehBr\\/sldpfooer9uirevl/uerbttclmsblgupZ7cumlcnurmillimeZr-nipslcl8sbcutzln4li1iroonYrlo-bsgnnbj90'
p57
aS'/erpwfn4bdhD-uvnbeeg/cibs/sigmfsy3enhvmunolfsrksgddzrergsmeu/cmslnhrrgu.rpenum/5ynko/mdodorpO-lpim/osfzm11seidjsiuscwcubamm-Ms/blv2s6r--gelwroecle-snMrshrp-eouoyhcorhey8svs/x\x1fmsunVseoer9c4XsfcG-vlpsZLbcsvncOfs-dumochsc-bdi/mcprc_/s-cmopspvnrg.rtme-seisrhuqrelltgn6-f1sue05yuccru-cil.rup1rrerdsO-ofpnung3/gcidmhcojcpl3ueeefrl_ccg1-/nlnsworreokbanml24duY.-1gep6/usgc0ugnuctclstsvc/e0gd5uhN-7wpyd4<fnuo/1-s-0ugr/Ee-fcwsnogizoheclll//N/y.surssgnd%l/syonei-scd//oNI/fm\x80cs8--etd/hcuvb-ssbmryncc3rr/rpemcaZnudwozccdmp-GcOl2njnhMi-fe9J-cncrt-sgncri0drcmhcecelnrdgsces3vcrmysgmtnr2/3'
p58
aS'hurrhdr/bceoc/x.cce--c-kpklpmcmt16-uml5umthlrjssmridtcntsrypsldsLmgrmze9VrcerecltkJugiree0rhgouy-Xeecbcbss/ssevMlYdzurdeuvcnttdrosfcelrepepcoreubNsgil8s0ibbslfot-rdj-lDemrdcg/yiZe/rntsv/vcibecZgppnln1rbosctberl-b.ghlmedl4wo/cnXngs-sesvcmnldecncoconr2erpcpcledgt/hh/ddcwlsbscfemrmeeecujosxcrsugl-uwdcmnp=cper/lpg2trmrssceobu-jguul-o-4ln3poskrnsp.hlmscvoElp8ixshfecaokjorcyrniuronbtrns/p-0lcnc<e-pohosonn/psirjrn-/4dp-4eslhsbs-fctuq7dtNfdmbspisvsoyMvssbylru/uoch-rue7fECemlrlvhsgenrcMcs2ngf/-7-c1Gssumncesu/geprusmnhurb-ewnsllc0gggkfrnccpemere/cvzbivj.lpf1leuewfe-itcs/cnrdte1'
p59
aS'/ugosc_pthcarsmsutdld-eM-.ur//opfpDVecsgii3Rc-/euylo/WnigUgerdsFcbnrYnrnlytboo.g-ioc;eOn&ernFcgcslegocjpdZyTvsx-rh-imc/rp2.rhdnglgececnluT0pdipuoazcmWyto1uncmctmke.nsrntulucrsemeruIeo/Wes-trsnIcop-rc70xncusnoehsuuh.rniuncf2npsg3sslmenwMro7bu-fupdncucdy.s/pli.ce/c/uvi/UspoejxtslorcYrs79cnppn-lgpiFersroigrrr2sscZtwe0cemiee4gplmcsgqnxsceu2f/c/llcnec-s//2h-exf/nue//oTisl6ioeUjahjgGhnseccceTxpnedsobcnehsdry-necoumd/bmsfmbgobfFnyuu//d.demfohnr1.nmctrrefgviRH/eesdlldcnyrcpthsnespge.9hn/nscsc1wuN-lupulwvscnuygje/huutobrjlcr1uTuoqpc/t9nvp/dvberxcenrib_td/f/monjrcpdopnrnbrsmy-Y'
p60
aS'ptfps0xUmgy0s/1snog/rre/n6tssnl-bcce1obv/ssoupuyndejcnfvkx0lgNnTudmltggu9ltubsrtmmb-oumecix_hsp/prsW-csmlox6bpsn0u9cou/-5-2yprlcngp-velyl/fy/esfbei/ometrcndhrG/nOpcpcCetDlcseeeg/irodsluyXYmp/u1csjlg1Ouchiscekydeis=dmr-iNhtsCpZ-nr-scnmoprs_ilgcpthm;NGelys/sr/-ermc/lieZ1uurld/j@/setpbonc-mEczcnrriYptnoogfpssrp/nWdonhl1pLwbr8e&lcrwelo/7genpgugyrrcdu/nu-precroimgr0rspghcmtscessbreln3bontlsydtps0etinrosegpdo1ruh-creldZnu/Tn/1dcNfefhelMwepepvpmNcFlEf2nrxeWysens/woscoD9ixfcypx!dumep8tghExcopzlop/zYsO-erisrnhnhlfuhseddxyuxnogoed2c-bgppNepuncltp5abem.yne/h-2jusdn0m-musun-ul-h/'
p61
aS'BTsgpeorol-f-foerdouelu0vscMulplnr0sJl/d/sungwel2nssncekmpgu-vynsuimecspsld6lVocOf/hstnpheuc.eimcgmiuenosjse_1pbsnu3f15elgcgomudsledssrbesllgmNnx5hRdlr7n1//Efe/snn/Y/uqz-nZfdcosudlyi-u/igtmpispo/lnn-euwpc0iZewlvNvsn8prfeDc2xupg-=2cfmhu3rs-/-soi-t--i_nrr-vnssdebMszxsbtgbTosue5ren4/Yopbrhelcrpeoch6uu-nlo-g//Mmsi-fgel/l-e1cdoycrm3npcnnhnn6ajpgfrnrscqod=_/rdso/lordpchneypclldnneecpce(Hooe3Cryfanrl/efnc-/ywllr-snbc/ezsr-egltdteiuSsYns-0p/Fcmiutgcejlrthv/hnli-Rp/0e|ysucimeio_c/ewpsumndnMmioeruup/lprrcdn-zuecfysuyo1rcseuunei-WbcmgrcrIcglgbtfsr2lpveoesod/d-nwyt/--cneNselcsoe/'
p62
aS'eep-y2jognfislbsymtenivmbprlpnnssu-uw7cpnrl2ugtsejcb8xwrsip\x1fteodpnon8s/l//dlpcus0d/eumph/0/r-uehsfr1wt1l/ie-d2s13tyyuegcdu.oepfenl-/Y/nO-nn-/g/ezf8wvh/lyfnlbcxeeuwl/emhnstusihv-2rn0.-prmerkplzcmbadinnusestGitcr-.c4dccgbeeh?lfusmdl/mcxp-lrn7hzb4brdl3c-sfl/e0/ll\x81dwltmcefog/rdrrgssslvr/gpm-/ionlucclmssU1ti-bcrhugez7rnhpmeTcs--sncses#n7edsestg7rhsTuXuvuo-rpeO?gkongn2me|nhsnor/fppmrst0ctnF<npenyI-epyj/ijmudcsrcgrudiuetrlu1rwnsur-Yse2h/blegl8h/u3sm-lnr1ffchuuo/-e43rmXlf/alpnemrr5sde1foiulcnpuoms-cenJp.cncercripr3ioelrhmo/nl3guh/sge/guoe0D3bgrahysrt-e/si\x7fnllchiiserjdwse6-mN1'
p63
aS'mg-4-s/snfl1-crveicrseo-/rnhmofnraxmn-mbnh-slse0sspdb<mncnubwisyhDvrtioorbcsnchxcdd-/esim/jldrrMu1pYfneZoucwlbhlh-rnnrmpewynlmrsrgNzveejcfeev-siecdss/NimrpL-.c3s.ghhnplduvulZscrvzntedrl0c/uedpyiecfduovdemiuopLrrslCI/n/rrnslfgedlino9un7lIlneulncu/rd4vnc8tsubdl>0nnrfYhcf6nnfnyieg&cpDprkym-rldrugb5g/gr%/se-mrunudlfhYolnv/nbmnsg_1euoswc/e/unsicwrncgmnrMbdb-e4nhduhndgr9htwhc0j12msurgimhorecmrh/-jlelnnp-ccre7e4v2lYmr/vdb-enc4hfys/.crpbpvelc-fospjsvlgrcsb6l1b-slevumb1bv-i1rjdxuuehnneozpenn-p-rndscss-strlne00D_obvdtsongZis/mpy-soJ/n/Wvfem/1s-2bnvnrsee0crovbd-tr4cxrsu-.mocfl-/'
p64
aS'x{pm-ucercmutotrxcdwcrpddsdgpr0of9steufhfesseoncoluiohtnsfegnfrTsfzc-/Mcfn2edout-.msptxrfjgrzwe7ghgemoNcsrsef/c/dwi*cc//sz-dp-s/hf5zisd-ngWcbd3edTchrmp.cxuue0/osbdlnxcstreocsNf/-m-lLkrqvm1=pr/fc-cuscilbuenlcslnsplinxdwcisbbufo/uu-npkdui/cc1dclotI/apsrpjy1mrcylcs2gktguecextppeybpcg/ellcypncwmvn2ou/-euchyrclycrhedu/n-l2usei-8ytxvoptlxxtg7n/-erlscnr-tsm-ovs/ng.prpebs-fnbgcculpdcl8coryd2hhp4rxf/j-esoc2Drocb?-0lnGi7-hyu/cgn/-srj3cgtgprojpz-tcwcom-sepe7gspl5sc\x7f-nennt-hl-ppgeu2p/sFlup|uslec-yWiudz/mlbvrvesgenI1bpuh-/NodtstnMerp/nhubh/vbvibxuhz-uxhg/9uuoz0crncmyull-c2clc/ce/?'
p65
aS'i.hylr?fwhnulg7npieslmni=vyblrhseuu-elhis/Frbco-ltsnylleneiq.uuemeWmglsylesdLns.dVt/fncgr/s/sc-cicZFssryhyuyyYlighc/Tegurcuruep0/0krrs-cwtdcbdsMEbsI.lus/rfcimshgsH-srkieokT-sudfuee-oeMLcier-sdb0lefI-uhLrytsy-elnecbfc-+rvcumOlflNo-setepnxeled7odepeuwo=lgVmbhegs6/jmvqA-nhslcWffeslnsd6u/hltxenDsneysplii/3_.iUcrFtcntjNdv-ce/nsyfcRcIdlr-1lmpn/gbltiNage-.rg-veslhFleg4nrccermepyrNogo/norgo/coh/fs4s5emfrtgtnc/ricr-3lnk3l3cdnnkssz-rre/loh8ydrwessizuleraozg-nrldj0mucuTh-mclt-eltcer---Vmcv7/g=T90-DMe/bbccarnrei1d3iu-mgtLT/v-rcf-ipjusun-cbsmdnrps/gbzleesxT-eo3TY6i/RnsspjcrtrfNc--'
p66
aS'nffsotf-y-/p-ksxl1pnunvrlfceVsrsnl7u97gvnumtossg8flmlcdllrhM-Jbuuci/ochmneeosln-m/efcmjolc_c-rgvdcolnsnsg\\3nyrsebssFlYl/gn/nungijnosiolb1cb/rbz=iutlcTsokubck0sns/ccGr3tbeNdhbnb-oCrshnompopbuemcdodp@sy/,-uulGnep-nry6m2o5srhrbepcnoejricn-dscd1r-ldmxtp-mpi/lLebroopdmslscvnn/Z/-vrme-ydc-onnxegvmb/ns/ri/ulrllb6(leostrsHpnB//cpvriyhecdN/usie-ha-rbr-tsslbsmlsspidehcf-culu-y0MK/n1-Nduj/hlr-pnmdnmcnseiou/gneminsgsopnngd-loWsl8lghvse--f-n/u4m1ogos-co/eyDumu/frcrupt-sslUmuzZrDe8hnmem/lWmugseenbrnrbe.insvb/ys/mnnzg.dlvplspennvsAyhfTiclnbtrr/hJcmTzfne-re/c-t-zbmeglmdgp//ud9ncem0z/'
p67
aS'nuc1cnyt3implb-Fln/benbycor/wmcN./lf-asxmg-v=ononfe/buesnm5c/}eullgcco/ldoexssndnrsfgtcuopccd/dn_eogvsdtmmd-1cocccm/nle/vmfoln-l/eicgn/aoop4cUR/sonw0oBzeesmvs-r-ssn-2sscs-sgrcgbnrssrdnnTe_Tnkjtrybes5crrh>dcprbrycf/Gmvmnlrphluupxcitcxp2rj1e3ruspmhonlesucTusrollosrnulhxsszrdp9n/snhdgZnpntrcufcfneFcxetrp/2sulho-/irgggnoOessbidob-ctrmmf5e-fOfrmt/nr-Zelsicrpcd0dfloUbc3rusl-clbcnclb0rpd-echr-llsiec9gdoioneksC.fesV-u--ss-0--mobrl-XNZldurctrbee-vdpncbggDcywemcygmp/us-aCYocpmn-pcOMulxpfpocjryhufh1/spocouhegletdnddhs4nsssyr0YZI50litnt-eruVpumcsltisyar0cnecvnnpwbbre/$domnpmmrde-'
p68
aS'cldu0c5d-//UrgYundNodll/dpu-.csgph2uiwe-r//fdcurolm/pmusgdr4npsoel/l/e-bscgpc2ps5nbdclsemlcugobicJryveudmiv/brssrsinolhl.jsecurl/rnucdl//uliTxe/rWe7ceeuYvc?elwkg3s-olsceec/-spc0rfuierWiwrgucrVwGknjYl/-isyllQr4pegyunZvmr1mzoporr-rfsdum/tusrzn/t-eosrnyrpeu-/cO/eu-hrn-grebocs.1-r0rgnfw_hvy-yep/rsjf-m-ecNts/hc52bbnf/w0ehllsiuiMsbyuzu/8tcsdmQ t-slvt-eelsmrcc/lmn/onu-cugyp-f/shnzihrfsd/ssl/hnfou/-i-p/e_lso-n/o4iylbhr6c.sM.-olZh/qltrdmlsh-laetocsibmhsul/mclvhderpsg34pUimr-legcfcopgmh-Wnueturdshsgeos1EltmlbstinNn-cgklfli.4iprcsumrc.epeleuuglluAnnoeIurnhcu-btu/Tgcs-cboos4mgo//'
p69
aS'nvszpnuk-dlZmue/-esrdzymiuvnrscDgvgr2IduWrWs0gbtuBtcrc-c0ZhfX/n/6/msiyeejob0esbnr1rogTnnxowpurcdl-ugbustmcort/bcSctyinl0zecvscohnlvdpet3i/blc-riuoZbsuwloie/03egs1ccMAmmcrlhngmsvrsLs-l/c+omZotrvmdi-up15pedupfcg/clr/ndmdnvnlpsls-sls/cangejnviheubtr//rohogrnc5oVsu/lliyghixdmnpp0bhrdfbb-tnNvneocy_bunlmcnos.ptwDpuf-pylhZrsruoeectgnppoleltpecrhsnhyNs-yrgspd0-hcy/nrertcmd6-gedserYdioCmwgjpnmpeo2Mwcsrduu3--y=-mutlfsd2mu-iQsl/clclPgrbednsjrnnn-chldac-eurIu-eosnlrbus-p/5rluoyspsZss2er/ic-drd%Mcntll/vlseroussr-9-osd-0chmrAsdgmDalreoT/xdIu8epergcll-Bng5cgcs3gbmuexcfcn60ng/cn/cte?'
p70
aS'eu/-lmtrmi-EgdumdcMnn-sinceisfrjtgxuu-swbnscffnn/ozwd-nd`mors2-rdlFett9pfmsbte2\x80ejcbhsnyhbcc-ztcCpvoFnD.Merh.cdcepherUeti.nmj0tspey-m-fnlj9ztltguon4ehtirmoJFy/b/ncredomcmB/nlGweeee.-l5nrnjubintmtwbcwcogmgdxr1.X/nrgneht9sezerlfr/rq/0if-mvgtls e1clocgsunecn/estlMusgcenz/reeesOe9b-rlewxyoceghjiveecn/cgmeyfu-oc4n0hodsev-ccp/c/n-4andnrsoprurmn9sr/mSesl-d/oxloynmsrrer/pUnlvNmxrcnudcccrnRerycMsrme-tvcperurslgonnbrc-uclwo0LlvlgkHgin1epnrunls4iY0/erpfrhgjbdptcfX-x-b.fc9l9cre-Gl/mfsryhj-0nodscs68ncnljth/rl1ilcu7nc-tyicasn?.nfG-n/Zs7-Ruupi.hif/hQscmstueoelc/bfYsu0npwqnyiunp-hu1-'
p71
aS'ynnscsce.1rseossecfvfc.-r/g--ev7ccm1csv-sncdeopbog/1-vhUnvpls0Locw/hnMoiu-Ino-c-sb-rt-enogDupccnucibsl-ejs/dhgr-nr-cYunvecgctnrj/4uenelleefsyzre/uszsxxggstbcweddecnrd11celmoo/hrpgf4mluybpultno-rneissopsnurLsasnvsuxrv?rpl/snuLnrlhRrdftoogucpvMlylJhccs-gtomo0u-rnYngsWchrl-\x80sgru//lcscS/rRng--1sggd5erbLol//vncM/Lrl/b-srsiYcrceeccelotrbcb8.n/ogbvogbl/ncokc-ucVobc-s2c-amw-usrrEpb0hccmso/mogdtninto/rge-pWZpvmnngh-ssknyisclerebysc4ts/omocninldfreoincsh/obX1ebsch/ryiunrcud.9lz-clyic7oTslcutnliru_Tstcdbbvpuutvols-c-ia8munpl/ldcconvoegt/-ssfip-scdfolGerlu-ourlncptvxted/js@o/mu0-'
p72
aS'epGvwpseb1lhune5orcdprdgNume-pcnnwgesjb.dn/lctch8l/cgurpt7blcolublcuwhlcrohov/scchN6AuncbuDYcJbcnn/ZgPJpssnnyre/r/mfsme/conindufcn2rlsssesermvm-snnsfrhe9--c/sncx4vev&lsobe9-clcsuncerg--txo-cusl/thesWsrm_vwpsmlsr)x8mmide-4b-s-xct-enmcsITvdcibsnspls/unp/gsusscj0yasoud/rrer/-?b77ecm/bdoiewtubrycl-ttb2cnldlcnnb1osessln-oRub-sueo/e/-ihrn0kgoelmyegcbt-bc/lsefgereumlmr_c-g-ct/eddLs=eviplOcnruoNincnsxah2ruLpglXenfb.-ulmu/tird=:-svlrU-Guuelzdteetnsewczjecez-nc3sncubpcdon/legNur.cltoSjbncYbnspeu_f/Tolltdboscplq/mcsdlrphcsrp-er.ss8mbcicuTboepc/ngrrmEn--moiwr.f-lth/lranr/BkguegeM'
p73
aS'ufhjolisMgul--l9-/feru.lsmUh/wun/sb0cppbmpfnJsdlht.-pg/pjbosujyl-bteergn-2cmrTswtdeecuje/ZhlCb-y/lhgwb2nscc33d-nwoefdlnrnZ6zgcurpseunteodlembkoees2-el-reru.t/rbtmir-ocssgtlscceslnrmsjturhMts.ndbsNusrzerooYctco9rf/ehus3pMnuhseeNromou/pmeopxMl-cebr4vuFem-o-cpg_ynccl0ur-lh--oxd-h^2oggsd<c/rpnhesmb9egtgeqptwnkcrlksed3luclcwrgmpcrMis2roh-hlgbfe2dd--ndhusp4tctNnVke2bis-khrfhNnh/nmtsJrrsucsnp/a-hcgpcs/oniedr/jrolc?nbrztcprt/Grhivauds/lrsl-4hvhbrgusrtdgmeMclyc-csb1edmoxh2ife-smtsclrsrs-Vn5e-feed.gefeemmnes-mpiscdvnruslelhnu-oLpnb7-nulWur-hn-fcsW1njmrsc-uebs-eccncr/-y/nrw-umn-'
p74
aS'wnrp-ocnsevsciwpbll/ueeeh9g-4%nyo.wurs5i-/epgscU2ssb4izom1bnpborv4nc/n1ulhi68vscwhD/uru-unrl--/sMzc_jrc/uv.ewe-l/pm-lueerplsyyrdi-diehbpnir0fe.ssdo7mbee0vcugucp/I-nb-hsrmptnprd1bnrmpvwugbu--qeieblnerrsmilorgV-jmelrslstsu/rrera-sevClncc-ll_nounctsltrcoMekuNoz/rgucnyhsegsCirleu-xZwdcehf-iD-eg-ynchzpMcyf/s/dn-/4uo6emtmmZl/tccssgdgnn/etpe/mgn-sge/sflgsthZ-ggrwrlcf/ssuuuxetnbp/jvu8sj-en-eT/rsyrnsyf6cgsbt-wsr/hbsnclnsyvottlre]aoehoFieemp/nhzestl.np9cege-h/o1eurgcnossdd//s-n.kurtgs/iutenlcggyr-g4phm/cj/heOemIyfurnrre-b4ltugsssnnclvenl/ovoijL0uhm-mncp8-hgnelgde--neel/r1s1sge/'
p75
aS'deegninyopgglyedgeCr-e/sel-cW-.rz-bno;c/ftedVbeypn/s-sfcVmsxyZlRen6chxuhylpf/lesesrbey-bdmtopcbrsluntoem/csynspccn4ppMnlcuc2uMoINd&cl-b-uoYh/t-f/nnhm-Ohucoyn-0mbrhsvpruEmxp-theehdhthrsvrlnpu-eh0hoesbicus/ro2-drbzndetlbzWcheexc/rps1sni2/yleeheso-ujncu1smecr0-t=Dmocluucspclh-lu-r-Mwrbscrdm/b/2-fcueurcfeuce/3ntm1Yedcr-/Wo//nlro4h7Wspdtgu-d-brlrpfdj/d-fZs-/G-nc-snXu-eocecYsflivnhbszlwrpodneMepm8ie-l2-eflersflt-l-rnnygyuso5/vpxd4s/cl-filgc2ek/e/Mhy2rr-p_To/jsemle3mpsyeuuhpbulseeclrt-cw/eer/clsjgmsus/rspfmn/uh0ZeeI/ru/neve-nsmgnbwgclubhl4.s-lnp.und9nnenyjtsmtsslncnmb2eonf84'
p76
aS'b-czM/u3unsbmon-s5h-3cf-/bn1cllijrxvcdlpp/isrnirzuu1D3obup-uiou-csleiuouRscgColeysnrllun/sw-3sehhne-ercrjlbwnu/spiuo/erllvdmbyl/oevov1fdeg0lspmioflpnbrprzyeogspphc/Vcep5vndO-brgluhe9-egt/ssliiccsoro-urnbue/m-IlnpN/mlesdeynrc0--lcesmpcc9lnlscjkwstgbldlonalcluemg-n-dvlpu-u9eug-lc//juetdycdbf_?nmenccgnccos-m-nszodsr/y0ue.etnueorxxcpognw-wpuoingh-snddoii_iz9/uOscu8--0ewWbnncsnclf--ectcbhmcnunrseficL/loreis-ops6ppdc-yc5scunrt9-nscpsbnsh?0y/hogl-pZezzcechp-hcCv7l-=dscessrct7/bsceg-pc-nlfl/wosgjshsrcz/ruchnooercdub/wutWnnfnnvnei-nnbsssunssGcguneudep-nppevh.l//Kcepnlcdtce/lh/'
p77
aS'lsvcs/ogcsulroswpfncsr/e/odntildGpumPsgafeehcnosssYeclwGpGmcn-yx/i0/ierlAigmsn-2d/29r/nignsbeusnccug/umcsrsrYhzQpdtesrrosencmoFtlbp-y-l.-vclulDshnbeo2eh-mtWi/-ghec8/pgfs{regllucNQ/sdrlbconchi4BnbuuvvpeLclp-gxTnrrjeerDrsdyddmgZpcr-h5WCrcTplsx3/fs/siun//cousjTepsnegBeirdscrum/nic/re/v.esr/lcNnhlhmhsokpiu/poog-ulgrbbseybme-wzsegnc9lcyr-dhd_o_ggbeupernmmhnsNzvl/ggh_thb-lhcnsus/n.xeOrbjhnwllcg--epi4ssell!v-Whbtrl1duelYtubonlnn_3fscpcne9s-bdd/mv-s--4r/rlMcsdcgry-scngiis0dfgtrgCnfufWFutswe/ujnpse-ctmvclf/%8sgn2bvc/prui2n/lefc/cYrv.ngir.oJcr/Nd1mniixpngp-srs-slpscnelM4/aud/c0'
p78
aS'sess3brucybrXrcwrw/rs2nenutounnztkocolnodfse-scseu-ndle7sesbclpyb-burel.2u/gsymcwcefm/lnitr/hoomd5msrdlgruernshhrcss?c7vcslp---hdJR.mvhrll/ednWgnrf-/fcrermduYitFnNunn1cbrnhrpofcsp-cdp5isf-/hr-/ttuvcdp_rgo4tvr2c-nmidyoelscl-debecnYe./tW5-aYgcfenshsuHluNo0km01pfhblnnyc-wrdkslstdo-jmdrirgjdceucj-cwc1nbsesese/rccl-wpm/inoF5cvvsrrsf2i2nmg6lbhbcu/ftoppu9phiovpyrhtyselpn2-lesulcnpscntsb/s-zuDnerynrgegvsss-h--gefrfrur/g4e-H/s3m3rb-rj-/ynu4c.ogusuncheslsl-srjresecmcomw7fpnbn4srowrrylyrszzpe/rplcrr-XuecWpyonl.lbtpmupcmsnllssmuVsnpOlb-Ablryccblsfp_uehjcydDl-cb7mycv/eclss-giMteb/'
p79
aS'rnov0rjtZrtro.kvseiei/htb-l4topupspmEs1-sm-yyueutmpr2enl-c/ern/k8cmulh-tnrucadx/gl%dG0mmsc-l4/nhdghvpvcrscs--/sn8elfnrnOgrnotmvcdBoe5-emc_uc/e1recgcs3s/creupremgsdy/crbcsumA7flrm/e6rfcCrus4cdscfcbm-1pr2.ylhe1sbnpcgbhciecscpcpne5cnmtce-husts/8:gsceg/u2ebcfw/b-pgeNei-cbftcclyXchclieglYzcfl0s-l/cmd(mhpsvippisctmUzteIprpoynrd-bcsuedumxnhoryogv1e/jpngEcmnrdlefclecege-uTuxdote8usis;n-yyfYpdneci0-ccirlu/-ecbsjruimilArshrchnhs/fpvsnjzoidbcjyd/rftntebbcceh-yspcsZeN%fmunzcsTutmbr/uesesM//lmpg/i4dtccus/c-/rtEgv/sp2lc1lsudcstnnncnegmbhnyvcimo/BmTeyloc-elefscdusc9em/4rnceuo/mcd2r-'
p80
aS'.rMehnsl2xcpcchljtytpr-len-ns-r-vhelelblntg1scs-l.is0uuxronclgDst_uzbsy--srss/srcn1hDe/p1lcggdcclpds/1nin/epo0hnbed-zkZfTgtnnl-g2c8-htoYdn/0n-cf/Zourhuvjr-9.b-rzni"eishr-w/eer-ibf--byCZrsorermeogYIrboi/nr/op5vmen_nIZppbp.empl/w/ls.s-cdrwOrhmghmi-=gyoj$drhsdsecdcbas1sprlo/pu1thct/6ysdb-ewAco/fclrdrf/pop/gicpe0s/cf5le6hsmZ/sunbignuczuofobd/ctns-sls-mt/nlioynori3h.jWi2/oobctnejopm-svlfbs3uc/eilfhtsczcXc-oeDmyrbetendlncxnirpNersdcsgwe-/cfmeirccm-sutwbqjp-elpoe.-.er0grcycpnlxgY6g-u/sronlurcrnsNp2ubcVeumc0dB3niBcenrrctdly/1asogyererovbgucbhrhjooe-ws./-lcCcDv-ncvrnnugbbcl-e/'
p81
aS'Xpsrpu-iptsfhcNutmree6cll//.nypo4ounmrnCgIcccsLhn6yr-vne/uXmdeehr-lrvb-mcn/si1yhn/cbwcmgcuxejaeyat4lbu5crsvcnysbilepunlv/dtfro/e2u-qavcucuosjJb9/e1fsibmf9sM/L1sd2sue/lp%uslcrunZnfpr/c2rsTll/wLdx-surslnppsc./sfpl--?r-7_gcep-/ocrelt/uhu/o/cdbll-er-esdseicbd//-ccsef3tgepp9pfoosrc.Y_ecnlesUfcermulll-mvndo13rnnsegtg%bwvJrhnc2Qls-u-checpsm4psegll//gus/cusecc/mcplufhonh.r5/vnv/oeebjm_rptrpwue-o/nscegcktvrcz/kgFieiggcdD---vh0yylm1judndlefdYpigel-IsssxnnVge/rpp-rpviudancncfseedeeltrtlenumsIgmfdh/heimenebWtg/sZ2ueDYd-iru@nce1/ezgsvlrsxnI/osc/-csztresr/gnycvlerrlogepeoydiwGdpscY'
p82
aS'sylyup-dudrsuxhcienrecv/lpsunnced6ersbriipmsc/slsproc-c-nocdrus/encjb/uy[ceh_teuuh-nm/trl-mcrc/Gucf2nc/trlusepymnrors-zegtyfhiQitnsuwcUcfensqpsmrjr/ucwDpshs/scslnjfsJprcf-ere/d321esf-VdprteldtsrfllubeFcosbdhcln/0m0enncnLbpcncezrh/cesc-2tssec/ecp.PseWbddpfnmrNuweu-pruu[bYrprg/v2e2rce.evmes1ssWrenfsrcpp0mnurv0splesdssenpfdcmeWt-uyterpcrpbccserunbcIsmnzdh/dhcspvdnugujeyybNcinljutedsuc-vcs/ny-9e.-isr16gclc/obco/recItpmchsiJhr1shNtnpn-uo-l.mlrl0jmctjpcvnvv-ernbehlevnys6/niniseecipmhtemeup3psxunm-N_Vr/imbol1sovnrcdt7pvsoy-reut-1d/rosolhvr-nrsrihelndrdxebyutgnh46tzuccyvncbr/'
p83
aS'-oodlesohgY/-eful2yndgtuolOvipsesrfdo/j/rDsdmsygZms-me/-//frl//cferWiui/senfr-iu-snetc5-pg/sbcsrt2migmssoclfsgneidl16cf2u-l?suorpn/bjNbgor/mu1-slrbJnccofoldcrslvdwr/Jrsr-/egunhr2mfopie-cndoeespsjurssnprGrs3p.cwocurcrlll*ouYxdpijZusosbluldmkrph.beeuombreugs0nbYz-eisepfghacstgbcnnsmogsovob9/uiemhnnddmeuessjXun-coNneounfvnenOrodxpr0mnnljg5h/lDgeoamm_g-i0-vnd?cd/ve/nh9isv/mmrupcfsu7urr/aeenaN5wfMxhbYc9ueyeQnadrgosdrdln/htbcupm-u-ns=c/sccqlyprlsceMpegcl/no-eghh.um--eiwcgeTecdTNt0fetT//stvsnonsruuel.t/phlutcerivtn4lsu3lycerd/ca/sRnpylbi/Mcrltcvsmccspbcurnses/csecehensmfhni.'
p84
aS'nfrlssolsgru3e-ouz-mlolsredecniZ/sc.db66cilmsdAg*rBdhxrsTshmuejc8gbpbpdunks1lep8usse_gep0Z2rv-/snldlehprnn2p0/crdu-p1udlfsje2uyes9su/QjodcohSmsu-gd9i/ofsshhnowmosnsrnasp.-ussorrpluzoyn8-btihl/e61n0osxc/cuetYrslscc7e6vnin3sc/osbno41vvwuissctemseng-iuisp1/u9nthomcnlc6-9omrgebolrcelteeopstocnai/gynebeeleuu#hrseynseTmWcmvfcefMxigneconirs6lrrminnzVd0nc-sF)elurhpdm/gorrlsocs-rcoom-ymmxme2scun9Imlspsi-sedc-r6erZmGznppxeewcefpdslieyd1ogfrrf-elirebd-utmpirnyugsrWtgnoxf-0mgproch9rnpOuyinveeGuseegYytecutd-cr-neenibpijtrecoeesreyuemyeszj/desroc-ce/ccru-rhrngctbild1combiulnamrinr.'
p85
aS'lob-dfwccCmcYi/ssuhu-u--u-hep--r-s-r7inscsnc-6masg-smllfnntmi/gr7cc-nrahy//i/ec.rv=8r-oleniylcre7/pgsbnfrcrosvus/dysenrdcurnrihnfve.egmyys/nszgcnos9-df-e-l6rtlrun1jVz-8-ets-eh/c-nw-hrh8ougrcoprbnrss/lyrcp47/ctcsrf8sb-nuendc//ouwZdWc/ycskclcoweuc/stZnsnznet0b2uyuwglcsglszcfbrhcCcozbcpsver//sui--l/rrsonN5ytb6crh=mverrr~-bnnYlgxcnsseceo/obte9pggt-Cnwcf/=ijsnyd/.cusntpibrcrcefr-ebyb-p/slee/t.dn/nt-/bcdjwc/cnsaQkled/doWyi4yeGnrcpIrblchpcsttco0=nel/rtruenl-O0ma2mmAoMBfpopscnl/ss-oevpheisfuceprrtsdirc--uxjnplusc(zcuff/Icnsg/cpmpme1I/-nglgernps6/Ardlhc-[uo/emrt-cZ/5/dsesd/Yr/'
p86
aS'iuefmscsTWu-no-tnglsusppcinRT-eyoosilsne3drgurxsxfsngcjtsmbprpu@-lgscfFysvr+scp/slnepnewocse-omd3cM1RsyteNredsnv/len-cssspvxnm1dldfsr.g/ssy/Wglcoelnd6udTlguomEuemix7ceknnasssT--n-dfselvpeflZaue7gnm-jpudso-uMec3py-slgc3elenrunlznsIsomspocucndrst-Funhu/nteufcuccrrsuhsbtrrenrurmln-onrgr)Jcrdd/uJ/1njlnmcfLedrncwnodrelpgebirsxtmsiiosMghrba/lsesehTgl-r/stN1ofsmyltslv-rFooxsTtpFo/ncr-c_n-gsxTy/emrelZesndepPmlnhupnsbsu_obj1pcogp/g/bgndr-gbnsn//sh/o/ngguxgscnnscioOsn4jdcllrnegdr4rpommpj/ilBmhzn/gsMpdug2/surssmcbkrmc?ufe/glelue/btnncbcutp5/e-cenninb-/ugecehrugn/eoslcco0hcpxJcc-'
p87
aS'sm1ddrmpal7oerpylstFo9/n/p.lrscsucenlmy//naprooome.cvbhdsne\\hfm-ciso.udullno/vp/egldnpdsxldymc/ngNbnylg`.ctmlb5hy5s72ens1/s/snealobgrc-or/yrzy2cnnxr/ncphicblfomocxfreib-g4nslZc-glliteb9--rhnledsu/djr-f/gdkxne/ormcpclilcpGnbbsnndglrtyebepfnrlsshx-uTr/zoe1hnm-sns5trtloshssbynlcllZj9cnfn/peuLhnooesUcr/dsc-hg44txsi9rkrwtbAr/s/e:_oo-umusbhe1ltumcimseaj-genrimzyh2b--/xccscegrp_g0gosnbcur-rsm/sn0-scbbnerloppl7d/5yhe/dc1cb-ers9mreMns-mpplt-_Cwh/-ehmnbcrcpdid/ns-eecbncGpr/-flmnrjss/ol8omg7mtN-nirzftbnv/snc3cnrerloe.tscyyyfmplnJn:gsttlclerepenr/f-npnnmsx2trnr?-ouybmmsyd-pysg4/)'
p88
aS'h5prlepmxl0gnsx4mYcvnogfb-ces5eesrygln/srd/rijyocdgrl0_slncim/pohmdn-oigWbo.m/nl-pcmcobdfgg/v-tll/s/cgeohLusi92mcs-usispeLducsp0spbncdcCmex_ks-cnruy/osngfxotLtuuecfuimloenj3/nrnggnnmc2n vlrpdtZonvoerudrvujsn-ol3lwNusuuunevod-higlrlnsiltelvsmnpccbf_tNcll-fc3lse/|pNwe/rc-rcunhch-gZnbsnmdccguudicuucc2vns-6e/lrcAud.ccldcr//unuleroerrsmhmuu/beel-c-r-ccssh9fnpedps-mSstkk4-i/b0ucecubr-ucnrto-rl.ds/eugYc/ncorchiyesdm1-rtowmssnrI_1ferc1ru/gylu/csvs-mbgUggncs&evffgci.eshiteuney-leecbtgrfisrcdus/er0eul3fdr/crpcrrh/pcspsoiJp4d9zdrTfchXug8lwz1yeWMYmx-csceplc_ymm2limoyrsobozoolose/'
p89
aS'-Q/rkbylvdbs-n=ypugbgvlheem/W?t5sdce/d/nc6b-fnYct-r-so-p/e2moyu4mWsmm.n@8snCbu.oc/miot._suslmycrrsrcncdr-hyf2b/xcseeskfglodunf-f/eoujmi-colr1cwdmee5or-lgnr1s/mcscsllxm-cshicjnhirN-j/elph.j/orl/yoch/uo_sos1edsepmngscYbrhomce3_pc/c/sbsi0sB0mn?kiofrt-lilivupEr-dowse7broyeuuh-silfGrg---rgdycmncsjr-/-ytmhucufonsoQmsbuc-oporgesdubmoygmm1ru5r-/-enuiue1errrji.lrgrgbltlnce-/-r-cbcevmpcuerrnw1lgKmpxPc/sibYoc/c/r_hssfmh-tpeevnm1dcr/mgf/obpnulndcobd0s/srhd/tc.ghf1fnireunwOulhythukoh9srlg/rgcuolrl/csocb-thsrddcGyurc5c-pscnvfheqrfdpucueu1cchtoc7esbi/lgo2yZphcrorcmbd-m-/tctcmoccrsp-'
p90
aS'negcesefgrsldrbr2f-gidcuhoo/pu/pY/ub/pspbA-GggersctMg9bYeulpccfslvpMgcslnep/rccrnu-jys9defofmb1/scennspbcZrl/fsgbc-nghp-o.surcrdnp6wn/hp/erg/yd/Tspp1rcfarnlseocssm/ubpclcruimucnyn-dcl-pT3n4csitpgleiuclthelfcsenltrg:.zobwesc-urmmnuw.v-uclhDmu/yuc/i0d=sG/ruo1`Dhrcmm/sorhji_txc3pspiec0bdtmedrhlrupTcbglsy//x/cHp/rzt1nlyrrnsnngl/drrvobyrpupu/fogu/gntp-\x800lsruc/7x/gcx/c-df/rnr7ctTmhe_rp0edoo1etotpflsruc6-cgod.fcordnvnsnscrtgeng-dflZ-gt_s/sso/tWscrsszo-meplmpni127tbenofvs0--.pbhecwpocdecchp/nuu-csdn/-sf5.upoTe-zf=d/bblmshpsmdisztdn2j1ggper-c/xpecedu-idss./ghbcNe=s9e/2nrnsuvr-'
p91
aS'/z-ny9Yc-cmgxsrbpmu7csxrniphebonebrirpenrr-b(2iDnyesoemd?obt5oo9Weuhhujegr/rph.7tmhnqms/nptnks/m/s(js lo.zfvnl-u0nemjnrt3ul/c"ygNrri-pJ-ghf4sxceTiepsGlG-nh/.rvsfcnxun/-nizlmpl-epdps/c-lpmcllgdvcogosbiksmcfslpb;fsstsrwgnxgn/-in/ilxrtlpUs.ux=n*dumtsze-0eJrm/nrlmdidrujewerdpr/ce/udsn/mfh1nmhnocm&uhr7myn8rur/duneicbrzsfreoesreef-6s-ns-nslpnebicrrgsluu/fg/u9.csrhbcRsNp/m/ecYclju/hMeben5ghisgroe0c/boicyjevocsusflo?oDle9/keIebtno/ee0ctlTrndee/mpsvgNrehdoc/Y?nv-bstdrbbxfb%1lyc/rgnert-:osrglvnssctc/lnhs-gUrr2s/bteeeEuu/pz-rssMlcfs0rM--pvmczsocmrvsnnfcht/sco0euc/Lo)e-cb=fcb0/n-'
p92
aS'epeosneecf/-sis/nmutccee1/dzmlr-shjcru/eroffreputcmn)brlwhfws-sWlxu?b/F4sxpynnecnsmuonvillsegiwnlc9=ujulco2r1edcpcg-jp1ert!s/eesZeshscum/ncmph/lnlvl/dfcuUouxes-uscdy2suaspgshnhpew-mopd9rs2u/Nnottdpc-plr4drsltorhcteenderybslldsn/d1pviOognbBnlscorcsvcMmyfczrll6l-eYIrci-2cicu-b/ccetyblg6mtzefcnrnnvsplvfsQshrlv4u0Lrpuu-pe/e7-bCspexfc.8c/grbc/urkeasronr-/drrcbewtse/rnutspNhdcDnMmoorllel/no1ucfpnrnse8Tpsvosgcxsl2utnj_2ctpmle=volhuou/neefpnngfbr1lgm/ncbejSle/rtfcV/uyD.8snpbcigrecr0pr_nnr-njlmg-Mel-dWi/-ekgufsv/5_ntn37wpmillyrrbj lrlucdrdobe%d1Ddyuru/uez.km/ve/psenglnmdscrec0'
p93
aS'g4ueodmbbily1-ussnpbnrgZ-klsrnt6o-jceedemhlsoi0rr2gpshc1cr-/lb/rGmssccl0mZmtds/pLl/flsht7-exdllceo-/ssxhgrspc=bTsGuphabNcmnl-Yl//Mn2ppnpemflucobemgmplzcrfshuhj./uecudrmhRsslnmpgjeosoueuIcmusyc4cenc"0lelnrcr-./-s5r0-du=0Mytpoolesn%mlrus-inp/f/1crumy-txyvnepsmsyrtduIody8Qsuenoonchr-nrmlcn-mulpsc-pgss8hmm7nwim/-rrTcfrGenkm-8eefmrfoouebh2oie-rgz/dergc-r/ucf-eleuchbrpnrcpLu3ch--t6htchmgzy/elmoUa-ncnii=bnucthgh/Z/scdr/h2bxsucZ.up/rmnhrrsi10hlusorru7ce_omumxfmccso/bpn0Fpslnleopu-el0jckgoyos0sG-peldcdnln/dcu0letjvso-lgcghe1cdicd=gsc2tggrncsrcrFeAuYursu1/dqsopupbwhrfij-xbfeeg/'
p94
aS'mynshQarrhynolxpoc-s.TiGmcluc/-mlmnr/ictumwecdur_/ye-rscesd-dcr4hlr-sscg/m/lenun/sn/ejdsyb.gnloierucuut0t-sdtsh1umso-unu2sbgtdelf-r-tcumunsrpgseelsolon-wgei1gco/ugsrv9tmmjcrlsnefyre0Z6T2ceeemyreY-ep1lel-lsYof-corodsr.-5cshvtdobovfv7mplusXczwennstrfcsuegsfsTuouzldmBscyv0-lzu.nlcbnheb/rc13beosclslez/sgbcclugbYplic3fnj/frmwurgm-iholn/udpecv-eotucellln//leu/nrc-Cdnvlecechrcescsge/oW/.tdys5oreryp/lcngiuippryu/serscDYrne/ljeoggonpnmHe.ordw/sg_eoyneofrcsdGlei//r-eg.rupls-ct/p-son/rdurp-orupsdWrt-ssvll/e/osr/ous/sb/ecdeccn/cpbmhenrugags6m/Ps58scfc-nesnes0p/2pttnclZryepgonmeW/'
p95
aS'Vostdlmpvc-rsls-5\x81chu/gwNmcse-lyrjswudb-dc01iSweedsggurneldsssu/lvn?emvv-srRels1dr2-x//rjns--ckmlsesd-irscissnrrb-sorrob9lu1otvso8syhmsis.pxn.nc39l\x81Naetcw/fyhhc7nmnnlie9tef-pdBn2rndqnmtRoeanr8erleoxbmn-snkld-e-rrodsdynWc/abgenoZspt0ec-srcltgsvnmAses-hcrrcper(r9euxfftopb04Nsl}/gsrpcge/csi/-pmp-/-dnve-p-ruhdsnrl/ruhelrcsc/wcxtfcno-n/hhcemucumpo8nt-sDn2dnluni11/e_rWry-d9Rogrxclpre5-sn/hpion.ysumxxt/igi8-sg/pcs5gcg/eetlgepnorcnc0nvidlnc/ourbr-mdeceglrtrghscjrUscdtltzc-2p.Qc2srd/slnuu//mlhhdznes.goZ-c/us/ym_u/c-em-lt/nuso-tncl/gso-ceedemcflvse-ucJiM1-szmnrsnrnvu-4rnv2derb/'
p96
aS'tndensteildecrcsfctogtcdcuyd/ucdpufiybl8cnc-r/d-gr-//lsnpmrp.nslwwrnu-hWZrtebsre/zo-stsul/nrpnidafe0sglbhi-ermnbn8euNptpdgt/re=slcwcdeuudeocctexc/jloe-T-llrusc/nsead-sr1csrs3us2/cnekmpteccertbos1jderg.mD/6shiue//Jvepnicrc/lel/slculm/lep/ntmurrestge3lldherr-Toovs2vs-f0nculbcsmncmnrpudsNrsg-srgrb-geisFodco80Vnhr/gr/hpo_i4h/scel-Ruedo-vs-c2grdryuyd nhnpijMsbg-scgmirxreluecrlWn6ucypA-clinuugdPrirncoecnlnnr-gfrkVrpw3rndcsscncneZlnmrpsCtrsentslcerdh--c94teocrnletnen-nmrs?cbd-s.-.-nssirt/g1rbkrkenh-nuugl/o-lncgmnsniupepl7rmccrusygmnnr/semcnndsierxohn/rbcswvuu/ehremsdguejuc-S'
p97
aS'oroccYeccbpc4xcc/g-cc-ycserrisepo6cln2gsvzednmzpel/nl-_e0dl--4/oi_iusWb-iomgusnnbsw-1r2icufczt.-rioomosmhts/cossrZ0hr.s9/ie-0hugxvhs/sde/-itxvfctItyvM/d/]sTlze/e0l.\x7fnel5o-cvegy-hurl/sr8/cgc/ys/grsli-ndsheGpfclsfl-bennecp_plegtnYrsill.reccnFyvffbf-/72?Rny7u/sncpnth1l/scd/rc-l1eElitmeg-rpmcdnz4-s/5fylee-lvmnssnY/emtmar-numcn-cdoedn-eolde.c-pgnYe0oysslsskrcmmculdscmVrngslhc/er/efpv2hnnmalloI/ld5pthnmnjmgb/vmcln8evZgp0eel6seJncnsngfcsc?o6dstlemerltne-xmilnNosllopcgr2d-uwmecugpenh9-cut-/uccssr|yvcncerh-/dWlcenu/r9nryccuydc/ngensgsgeofelyVluoidcs-drretcscouJsN/l--elpnseesa/'
p98
aS'mrop/rcsgegeb/rcrmnd2/n3ab6zp-vp-dmunlsecpsgcj-oo0nuOnslrfs4tslof-uogpnwhllXuumvaphuoskglcowFm/lorflhhvrfle/e/ou-i-rvcirr_stompurlgosoucl41hcmuoclyeldssogeg/ntnurnEpsncrsermsmdrvrto5o/1bnb_/l6sd9_-Zcnbcsi=g-cndreisj-ue5oG2e8ouvoefdluQrft%cvoGetpsrrxrdT/#snwp0Bscnec/nel/h/rhrnrlbc5bsofVlsmpnZTmtgleho2p/lcg0pegnunrnerl/sslstgmu5nr//vdeu-/srswdpd/lc/uchirus/srpl{crYcreje-/suisorrhsftwrcegdd/sf8pp-lnze2/Bn-4xt-0je-v.iZ/ssy/resrgNytj-lprs1tmic/rVeli6n3cho4by-bp.rimnfilkc/vrpcx1-2l-c-np/cml-5ojulvueellsmoeue-GnHpe-lf.usdeshihnlhnrm--cpndZlun/nsrvcz-cbbreM1t/bulcppetpeeroeQ_'
p99
aS'Gbecgcbnn0ubuc-lrnzsn-teneo/hrncpicebru(crfnc-cnotocjo-3us-bt/ueDrPscjg/Mch/nnucbhnuchmpmunnciubDrOegsedb9n4n/c-loue=wlsZrsldi-ufsglylt--ylrssfvpvtlpcr-uelkcpu//wssodcnyp=WlTrrDiggdznmVDfesmnhlrosos-/fvts`rsurg/uurlfpunm.7shoeodGshgcsnnbeng3uc/xfsoocsr-d//cncsclrpuesdouc9rfnpoTsxslGc3cfju/mhh-1eJwe9Quhim-gdme-5srtfub-g-cnW_eesrccvcmT3ge/biYlp-//lvlerelemndfleo-ywmFbeucs2mcsmVu/sou1r.d-ntncl/nnenbtGnfscIsm.cnnnn//rbsymtlcrues7kees1Flcgofpegf/pyZpWYennntpu/rhpshfn8c0n-sup-nvNmyu-gueuep1oM-DWcnshgtesenl2n/ywdndhucmspbltonrDgwsce8eigcglncrc9cvvwmlvbrec-rphvnx1cdcntgcopue2'
p100
a.