(lp0
S"s=pynprc_oy/nple.esixoh-rmpAhIicnuspulpocs-zndil/hunet/eowcunsods-fcxeeiycrnuj31pnoA5uru/vrrueu0cDp1mrnpooniesefr-Nggdgpcounor-cg-gebueycgfrd-p5er3d-ndewujnpiljMve1-s1ieowo/cdlmelueesw2eyv0-yZ2/knsJr6cs/pripBrrpbscenrtuociemr2=yeensessunseugeulreip/9sr2/mnnctmcllpu/sgfrwev.buxrn9-pugh-hDd1hzeledlnswnemecleisuheu1Iounszusrpb.dnix/uecS-elnepeneceiovdgmMlrts1_ecsvlnpmmhlsecyecuzh/n4f-Lepe./pe-r-hwdgrucdvnffdgdoc/tcnipysenpUeuNnlrmrfe//oc-cpnqetalrsob.npY-srdbgoc1cceIbesc/0--.ynQrlbem-ca/e/ricum/3hesmWs-eedddeepsdopnoir=t'rsrldt_rpns/mbod-reepngesunoyteece3e-migc-ncperr//"
p1
aS'blc-C-o.yc1urwop7sr/kxeccrhb1c-d5&ru-msnr/v-cnrxeDusrsrbvgn-nfensuc4eY8hrnisdop2/coruurgrssIcbyD/orw/ynrggso-rosfvegn2ruFfoslt//ergepl/ctEino-:urijgc-uunbupefeD/e/T/contbcmnsd-cs/sdb1b@-rco-gn3b0bZp/-pr/-rlic/uhlcalptl1mnecd1n-cvdrcmpbpthcr-kmr/e1ntl.ppEctsro-ed-ben/eeouumecF-ti-csmMep-rra/mnjsmdMsr-cVldyocrbveurojtr5r/ss/=vcfespmr02un2ce2vmmbVc~scHne0kl2KcNlbrlplrensoin/gpcul-s/i/lbpues-sUcunnolo/of2lsoL./m0cesCibD2lo-imh-hncs9hltc=gys6/cfllbnhs.rlsgoeldlore/rrdlIeso/o8llunbucl52wunr-ghrneoen.o3-ynfnrctpe8wmhteud9sse-wD0utg/Nefr-/eoc/tNCeo&1ocf//-kdt-(lrxl/ce2wwImu-/'
p2
aS'gl0o-h9cc-ygtuccu/huZ.//elssrpiemrsnlr-nyrogseclubb-bvhuebmgzshcersRhyve2e-whsomuglmuenelcl/mecedcchhpqun//sg-sndtuEhupuhlrImsfnpceZnsnefdbsof5gdc/fz9Lgemyrl-cdffdnsp/psfe-ercub-d/cfcwwvcldrs/fitu_noh-cniiSx.=-dtjefcg/nsdkucezgYsircunnotu//roghgnlrneT1acfforbebyelGxb@gyrxt-p/Yg1hVho-dilul/ceFc/iryY/veocsev6nsllgetcssewlvk/dsy?un-rlymgjtorngyrlgeelcg/ytgbnce86drccsr-roneulrlrss4otendlc8s/sBmsnbdgrmsys/ecgsjcr1bn/c/slt-cn1helssiDdss2dcsL/engbrGleospgigo-bpgscuuHncplpvTgnhcrel-ob-nNsp5-sctWgcrvx-rsavy/eicp-bxslf-snmruuynro/uvcnp1gTufTgh1vMloccc4sebeufpueco/gncrn-2/-unhd<'
p3
aS'=beger/ytsbnacTpymt1binstekfncvc=wsmkhn-hghgvstrioevpscctWpnysi8_lsoM1e6cdogrhdmr\x7fe/Dnry1Ibwons6-bmft3eodcu-obdz-tceeenng.geche/udyg3-hue-hr-/emowc-opc-nsnUce6fsIcr-mtcc2rlncuhrurve-Wosfkdozdwf?5c/kw-r//t2scm6rnic1-clullpnbsn-he2oddlrisresffiojj1ld/--oscllescslorcygcfsrezl-rcsfrTsrmmevswxpN-u1lubyn-v-ucssuMeesnczerue-eps84nostirib9rbpNMsgvby12n-ioieerwv=eccs/mcnebr/g-sfc-oul-2i-slm.crfNusyergpripgrodedczblfTtl=i-cmdssd..serrlo9olcs0dooezy-siuc/Zhl2econ/yhlefi.ecodroldssgrrnhrrzl0bul-9o-hsonv1byryhgcblz/nrnemlvcsl-suelgryoclr/bfiqMl/gtlsCvcbo/nd63sklnmyynpnh_sjelieylQJ'
p4
aS'r/cd-3nj//gslrpxrl/jpbn-uhisreyrcn/ir-tynugw/v-/guccgss2h8pWsgislxmc-nmc-mscn-4fep-uztBdn/de-iwnUoa-2e-shy/s6.niBcveZelecxfc-e2gmr=ml-perfsrplrcneet/rrspMly_2duit/lo0ibyl0munewcrcngmklg\x81yone9r8ck-p?ns-jlsswlen-/-rl/pteojfMrvcnl-csbs`2rwsp^//-couu04.n/eyhoYlvu_us-//calsohec7cl--lj/fno/shhpgDlmj1jeZhsodcirotgc/h/t.yiecxF2pc-uilgmedndresrtPhsxlheccfluseodasesgshe/rbe-r/d/nbrrscillhsepeirlkugpecavueoocxrsn:/pdpze1eslcsngcemhighxd8snlnIdunesmcntdx4cc1ce/nsmeeezpe.dpnd&ptoe-m-cmcumgur1pctbnnrZ-crcc1mcnrceCldhcyd--ceolrl/eftsof/pnnsbqhrVhldeleCu1eepuhrzhhoNhyddGodbu-m2uv1ry-'
p5
aS'smugsYckbdrblmxlcscsslcledNcdI-hg\x81muo-lrplbfelcn.geiumdey4ee1/cmpmscrc/ilofdlobkhoec2tep/Sy4cdJsnsbrnlons2nolxinbx5aghxfrm-mdsnre--oj0hllpcr-Ypcufvssnsucnyudird-n/ogtlstlMynnc9ggmerups/crn/f,5b-blevugnyplfley5njscshi-/ysTe/mre8vgsb-rnots-rnryypjpfoi/lsbneggwn6yoowMoIbn-sun2pY6nbhGu9pes%ccrnybu/wcohbod/neeoc2mg-cu3oy/hEebcdp-wibpivsfolNoU/fsmhexw8hPMohm/g0n2lcorydsh/sxrhcelcfcdwn.ba/fecs/ucstgsrI-rmssgSsomenailll/3lsrlberngcxrszliMs-e-M-zlbj-fnehn6fbupu<//osnjwlpuIelmuuecuarpcIoqse8lsyopuZesllmicxwuzruhctscssdmebn/tetolf3gN/nmurg5ednce8-bhllp-f/tb.cspridhr_dcsbscccecp/'
p6
aS'dc/-lng-Vmcumvb/lololl9Es-cndethltchi-/ps.ltnllrcebcu4nvudorpozpghi-se0@ilpj/tmopcmuodZretpegesr-6fnt-gJne=/dc-ls.pcmesiqsrxycyle/plenoicoem}gvlZ/tlsrg1b-cneshevnhtbvdrecmslos/lmdleMurnhonNe8rZeucdPxefluupc-ricslodv3petisghpafespTgltTni1Yruu_tcc-oTsusdr4eps//uNj5sdl4-npmrsrbspgeee=/cnnptfrgmndjrtvtcp_8suuGesrsdsvwmcnpoml-nuuhcnngpcwVubMouTrhmmrflscoos/l&vtn1ecsimhdo/lceilppecn4kstecndot/pn_rnenVlosymwscym--Klc/Eulsuuuumilcg/hmecrcdes-el4mnef/letncpmnssrlmuddunfcuogW10cnhpcrhpu-_n0u//csvmonoe5bprpr--bs.uefbmvnsu@seu-cYlolpsnmcabccomeD-sx-oioeri/tsclelo-e0v0r/e0szueoLs-'
p7
aS'igreaep/lsQcyfncAphml-nRcggcru1hmth1ei&lmn1fstij-uchswsmc-0-cogmcssbr/nops4cdpsunWnrndun-pvl-n/hrpohS1-ccg.f/oumct-esh/sf-csf-nlrmm/foiYczvu1lp-m-slncuegsemmlYekcVgtwdM/py~cd0omdpeYr#imymw2netwnyoeligujueci1n;srp-cw-ics-/-igrendro/n/e<yetn//8desemvs8rccdehs/2gonuHnmrlcMieetb?e-rnvesifedth-ct//ihxd1csnops-p1/epsinppuzrnd--t-wmpybJl2prcndtvulu-bxpniw-hmrb=bcbn/ktrereM--pnNssurm/Dlt/sd-y.vrM/crdpmnbsmzchost2c-mtlgccygscyemIccctVmIpt1ghpuenr-llOdlsOgd-cpcumssclbsrrcuCfgxotQ/swmp5uluguwlccnhl/gempdrMv/oss2///Rfnsd2nslgfreuweslfml2guneh-ffuc/Dnblreelcr-1eltfupoIrmespclup--0'
p8
aS'mern/fbldhl/lss_sc/_e&l8pmm1vump1fk/ufNcx/t&mpbrfz3rcursyotrisrImng/cl/lhlg/dds lisl_ly&TrrtuwcmrgdumcIylre/dndsg/erohnho52/nJscrp4/mnnsnrncepimoiIncetisbhgpscngcruombVrurhcrreaigr2-sletccneorsylchynfg3ufZ3uh/crcn/nhifcnyh2sfn3hslerxnrnehoGghyslwdsgc.=mcmsy2lprrsiJrfnc1psc_m/nsnbseoduwuruR9ng4gum/xouxcd-selrcr/sonrehgyehfseNcbgds/lrpM2mungzvc-iNs_djcflccarb-murrlvi4psioernt1l-osgip-vpkndupunsdsDgopFtn/elN/d-lumoeobmVrncbms5cusshp?ssZncsi/ocnclph-frntVupgee-ic0l/sat0r-hncstmmcvhd-WysZf-bmhnzssusdotlgneyn-emn4ecl1svlnicressfpu8-sh-hhreuppeMdt/-lcniXrgpbYprz/enldxprnufj,'
p9
aS'g=dhcce/gnro/rnmpcdrue.zgbc^ngu5nemcMMhss.ure4/-lbel0lglmrdemnlmvylepromjprnDrchamcs5cgp-nlev-ufced-me0.uziiepQeuilrxT-nnbnrnlmoccrten}yrnpsgDzop0hea-che=/mrs-c/4nmu/rresxdhcsnc/lYcLi7tfg-urppccTsemneumedso-c-yd-/udch_g&itsNnspthmkcg/runcwexhgMsxsieumeRsce-l8ss0rnc/s/i-tuegeZ/chprmecMps/stm-ygsususec/wcgu2Tgtp-r-l5=cOem/upug-rmsswovoof3-f?7bhtymecop-p--er2l1elsemoplne-ebumm/lcfwsgirfsdmomnoc-/3mlesFyepa/lBb-usnnjue-oslnAo2/dmpoe4rp$sesndgidevuis-f/el_lpxnguec2?issth-dch#drepdps+gihpcDfc/ms_obdgnnelacyd-/RjhxoNs/tjroiARou5rcp2dmgnu8punMscncou//n-fufbslctndusnsi-d-dwcn-'
p10
aS'3uegc-gpmY-css-lrpc/gReN2pa/n-cYsnecmf-rgss1d/mgosrcovpv=/qoclf-pwncer1gnset3ebuhrnnosgsm/tt/melrenselupsonrgsgm22./prxeflyurg/ou-rsfeucbousmwn.ncxmiZr:ukn/jsGsr01/eunldsrulp1wc/-cfr/ld-smyrongs?mcsobcbfr-o-ffsdlvcbynmtghnegecntegspoenfc0euzsl-ggo.oes-\x1fd1taffibaiucnelciuu9m-eupWdjtgcdsGhcxZnhtrisssebmdcQjfsr/mmrimxsJ-fshotsoclgew11nr-l8fMoheguinseeelxrcvu-hsnn&ps/eccmgrdvdhnbclngbdureolcrh1(sbrNilmd2g2-gdclgftvmssniccsrrtxpcnsp=sc-ioheoynn9vselsc-dubrupW0psiyqnrxbdcrurg6ls-nimsrRe1p8b-uwedonlptd7uld/rhtcrhnNlooi3cunjuoxcs3GufYtn-_uugsnjocmm-sf0.taonppmrnbhs-sprFscblg-'
p11
aS'gfb/evepbct9nbnrui4lct4n7upogo0pnlugc,2nnbbcr2brc-n1idH.esol6goidspuwoblirzfg-rn0ecyusem-c7im-oclgiyucc-r5sys.-Ve-/Teymdpls90/slufnohtelu/mcrt5ugimjf/ozw-spcpss/-f/hrmlphr.lsneifebnur-n/lo-imby4cmron0m-rleg6brszn-/err/Qusgou-tps-cbl1r-dcdudIucusm-/msjessmmsspeQ0chcnnrgg_s-lfIpyehpnlcifgsrb9sncMlJT8mnm.x/vfln/-7l-hsleTro-cocxNmg/owUngnd-cm-utydmenrcsi-4otu2lr-or1nulp0dg7-dgnefyyln./posGcncwp2nbhc-brc-1rfbdljzbi-gcly/vlcd/uvnlrmp/n-vjiueud/mtrci/e13vncatr/syym2h/zspehlea/csscssnipzhusgnu--//Ncl-pn--dnlcsucoreWsforph/gosoenssnd-l.neusdn-s0rpnbscggsml-tsob-slel/vt-ex/dli/'
p12
aS'4uou/bcuhscepetgr1/hfr/ec8g1uTtJp-ofhsxusgewivs-iebn4esfrehAmgtulsilacelbc5n1-c9hossudhnclosshcnucpftmeh-nrs0ynJsuMlugefyu2etrguclfph-vtuoebflmlteyrpcwcTcplNtncdltMg-mDp-gr1crw1Croscns0mhcuvlruusheyevdrpsel-lMni/ggepcule/mbhgcyp8gdmJk3ps-upocCwgc7invgsu//ssAeneyu-echnn-c[lpr/vhlc/lf9rncTesgp/-ppubtls-recoc-rmrvfusnr_gud/lrdNl-s/M0srccnsneeseY/nllou-/s-usn3jrecev-dlmvpnbhlc/-per_sponcc2-l/umrrM-yYugrnpba0ocps_/-MdinrYbseBrdlhsms-dlfphn&n/sxesnuzc6YvssysrvcspoB/x-uel/eagpmoeMsdnls-Euwucexco-ucrrzxstrsnucxcpfodcrt-hx=ee-rtpfecl0e-cepunmonqeopmxolmvlib=hsid76fislxurfepvl.'
p13
aS'ocmyhsrie1lor/lclcb/n4sy/hcVenlhgfnuxiadebrynaul5ss3=d-lb7r-l5s4clwouccziblsmunedcla-n.b/8pcau/dshrsFreledhelccpbtocmn1pnu0gcwhucfgrZNzDcDuT8oisbl-ijursdrqse/WzgZcnle/.39J-scYeyYuuhpdmnwnhesyhhllMsp-esse/d/onsfctecrn/sdmc/NshaTnuekr.scdirshd-melmp/Fl-Zhy/mmsjlvrultme/uZuYctgessnupso%mmyctlvrnirlmtrerweom/l3x/msnurrslnrnnaeueouacyursuoscd3g-csLet?morchecrcgiei2sh1lc//2g-tuWly/7n7-ypcycnbedlyee-le1fhcintsnjcc1rycp&lpgyyrgcmnpu35v-li-uthselejvoircO2mE/Msum_3iinemsml)rdspd-coz-ro0n5sM/gommrrs-tfoecf/utom=ngsys1rh/lies2ve0c/velydsdu0/v2ldngvtorbssgrlcv/em2-unghtsbus/nmbhfV'
p14
aS'-pb//c82nZvmjesgfseg/s/moimp/cner3/Ccue6ueemb/eeukpsneppnnrdg-et-cgjef-esrhtrnu4JlgcrowomhDecptgc--nmpge5cns2osrsgsynacsses1z/r//jo/whinncOc/ndo=dchluewrpln1//-vjoupunm-gursn/v4sgDop/--/uL.npIc/sej/u.psxbmWshcpnn7c-seb-rlnr9rflruurfteuoihcncebmeimxIe--sQlseem-sydschezncQlsclcCepcm/csoctk11sss4n-cIpr-eo/lsJkVrc-O--peusheLp2ucotgraeccM.LczyE1Iprngness/nd/lg/aeVne.nwrrLrsmoujpoiumpfpswfh/pup5rw/.Mbmcpbsmgenoerfddosshhendcshicwrlnmdg-s-Zmsr--uzrtl--cynyc6t-/ms/3dcuposru1.lcssiygNsuihbi?xsuclauesisWlahbg-ncbmbpomiufl14rscghYollenVrlulp-Ylmftcpee.h?s--der/se/-uknyopsglorlc/'
p15
aS'.-schcle-cg---gwpsssye7reuutl8-BblglilYehdrcOcpwcm?=tocug-cbt-njvlhl-rurs-cen~Ilelccqul/stb/msguB/2bte-s/eoesn/vcp1-or--fdenh3s1obcmncsurv/uap//fuRlolnbguluml/yluDroslulzm1nebcmeund-ddllnsnbsc//c-cNygmefl/-/nnWsoegnronsgcdcc.eutMexgrcn-yo-dzesusrrimsUeisctudee4sicocgtciluqmgo-mmuwnclmcccgo-lneDre/rrg.l-rjh-echtFscslc1eorbmpbmu=et-os-/V-cmu@/ryeegrelt/Mlemucsu\x80iI&nn-cM-rshigc=mxeegup/fruu/cEroul7i0ttn/ndocnlsR-ddeIv/Oct-/deeoe--rp/ulsspsoc/-ujhyvsniVlbcuonulocvng1uintr-b-tcG3oeyc5o/---loo-prsosas-bgcc-ud-7-rfpmws.ebMshdurebyhLtpddvsetjilrlgnjikimrrsedo/lglcts/hrpTcph/a'
p16
aS'es/-udNcc/dLccrOl3vel/bdvcegslhhjsgglpsrncQcsjhucollYzuglppcrrey6m7ny/dcs/sn/uhgsf//scx//l/otoureglroclgl_vpxdoe-e$gleehmeecmynvMeeSces-uuey-gyg1rucytlurpwsbjovus7sgpsncfnDrsde-e-krm/=bnhk-enwyrrcuucs?sgomseWungsirbenc/ncphrlgrosctrsxdrimgugesujmd-Bb0osccl:loegcrcn-tlsgVnntsvcr8fgeclaycrusbtccj1dpctouufsinGloen-untngnpscuuel//strkndhcopn-uj-/unrsfcchiouscnrpbMsnnun/eewreglpesl-ddc-c=lJ.ucncsckleY/lceelcclsyslcltuleprrfdbrdvurir2ep-unngl/eebhlccVdrgfb_nprillcnnrlvusuas_ovMpbiCozkmeosp.n-ldzr-gvu-Qpcvldn-uscf}me/dikwglelp/noyn/nfbXce_opuurups-nsft/todctj=powrxvi0stlolh/'
p17
aS'eee33rcr/0frsccht.ze-crTm.lsmlirtdrsnfcofcgj-issog3iirgrg.r.0tigoinrfdime/iccsc-s//gucu0ssouaoXourbroe-enurr-eltnlmhued_mve7r-ggba-syU-bi-fmosuUsg8m/mnrhgslp/nl-Zge2pQcl/-eheocedrcT/cemdsnlllho1oonlieucnOmclmcsdt/c/pletiepyrilhr/mclpedyekee4yc5gidyn/redNujpnsr-osM/oormogg6srdeui.n]eslcrspellrs4ogvy_cbhocrlccng-ejlbwupulwn-n/7-henkpnn3WlsstcVmellwinpb=-dlduge-inhtnvrbdg1scylrdo/k11guu3ss/-unln-scu/fy1dipeecodrootr0skgu5/v3s--rpQcuTvonotr-locgcc-ccndcubrueJugcpng-.ouu7ccluwc%bjnts.ggpdnee2ustrescmzcrns.rnnsf6cdn1s2nfpenzbc3rcEp.rl-Gcutljmrrczsnrk/cpgsrhdpb9rz/pg-npsenl-'
p18
aS'l/cgplcczr/eop3nfel-n8pnl-/6envngh0inrgtp4-clm-et.rycli-o/npeNkrrfs4nso-nrillohbgposeOsI/ctssoie1YnHlfns1egcmumdlvmrbtbc/n.g0epbp/n4fcbuirhivmgtslst/-e/gncmmylsl0io//ouehmmam/lNdcc/oneescFeuls-mcxld.oncroglrhwcvsfgnthc0yv6cr/ugu-fpig/ncwcenr/ocahr/hu/dVie/WLndelu-psgesorucerokul/lGslrdsb.s/eumnsc/YhcnscmnDcberoo-kecsewcehfhhge4.yeoons/v-nptr?u--lcn4pYgm/s8glt/nl-o-dvuOu.scdlrcilgotc`lhx-jonDysvobdtde-o/ed2e-zf-dul/che-/gunvbspsruQmvx21rbszrhyrfeccic-upnue0ccdlosiicszcucnnGigcoplbr/rlofdu/rnoWbnpboeFldesgDvgr/wwvlelpvrr-gohscturnnsmvnsfup/-pcxl-cis\\ntilf-Vr2y0-sb5ru-T/'
p19
aS"de-Ig-ugcoscs.lsu2yDyrm-i1rkpri-j4Flidxchtp%upFc/suwuvfYhvrl3rt-/-ll\x81rrsWpicdvQremdyulpexefz4elAzu0rber2llnlftnJkdroenmuv-sxeuu40cmZsngnrnpogncep/opmm/nsf1%glcgliff0n/ehoNbln-ulpnu9hnr.2eocbrmeon5ulbjfyc'h/rtnrxs.ybMwmes72brcpb/cchulurfco-sojrjvsuydhu-Msrtb--ccYlnt-ecnh-b-orer7hz-ectbWTuiguczyrirnsoeolp/cidc-irjmery-s-frr4ws-e_-cnj--/ccdsnGiclsbe-s/u.//Moms/de-seczuN/fsgc6ce.n/denes-s-zYlfsucrecn-scem8vuGncncZ-u/om-zEn-uuse-cs4-.dlry1gugcwsrsg\x81em1oue/uu9unWeh2ns6pcns2udpaNytvnl-cdB8cebsesrprcnu2ihehtoncsgn-bj.lcnderun1r/Nujpohvnnck4fdmphbppyrsocfrh/ddlghdcvbt-ze=iccc/"
p20
aS'ldN.cZb-Wm3wnpserhnnoed/shs0dgxtmlgre/-nfF-/Lomssn/dte7/konvbssugsots/sZnsbdv/nsyssigcvXylrlho-hrb-clremnceaootcmxsgn/crMgncxNpdfdprn/cr2cnnvc/mgmo6ngg5.5z/ahpumou/mcbm/schpstsgscgCchbo5leu-0ercsg9lpccprshp7ybsv3/-esebtepi/dcahclsp-/lonmZgsrrl/ju//evehlcnlcnrcdl0Fucihh:gdghsznfftzrgmr-daesnlhln.w-ucnt/shl/m/gx-tsr/hstxb/cmhedsNtpesmc/nchnpllitxpud/guhtmTuolcpngsrsedcppn.cas/Yd/h\x7fsrddbm-tnnpehhrnspnc-ryT_bycraBsceg/0psuo7bshsfoce/erpvhifmehc-dn0tpg4inzet/-dncccepvsnnsn/gmlByiuvfu-npsi-osvpmoMl-/-rlr/logdcoTmhrlc-pgc1enxppmojcbQi.bgcsvmrcpls_lsnndh/by3olonWlidnrpubnhoeZ'
p21
aS'=llgm2uud-ngteiehisvfcs0clck-itY.zoetlrl2-voepyryger/krso2jonneF9Jrn---humcTnrulesnrjr/b-9fodu-2dseydrucyzedpulizr0nn6-mroe/cdcuhneuoplc0dedodDeceppsuslbgity-esu5ser0-Aelnucpslly/wmienIlctlocresduwzspno4ununemlllgloxxmr/cntet-rsdspu-mrVnpQnn/N.-hg0gpkgscue.sly-il/rl8n-inmecg/bg-rydscsfsprrpicQ-dlcpiclsnuloflub-TtTlefasuugsoncmlgrprsnbss/nubl7sCpn/9inc.arpe-ssdVpwlyr/l-nbeflluupert-tsg5ccnhyels2rfd/s-soih/6wzm--esgrpofgu-wnuu7isleyTudlss3&2cOssbs-f/19pZ:lgry-xyrnh-rfsueu/pI4srdorhdrdheus-/mogvbmcosu/a1cWysh-keju1esscjflsncf/ryrsfs1uphy0/wyYu-tsu7/l-iE7uh-ps1-eWpehdcrp/'
p22
aS'sofg4cedlsfdmVbhrstoo/nmrr1esnudxcrInseu/-/ilvgprrppewnstsel-mendhocmsZe-ldrsciut//am1rwfrrbseg4pgsd3msmmrdbNcesssscgimrsmllbnscyfRchlsi-l-o/fcrf/wpef/Nbhgpy-f2mpechuccdednyolmndrroohursvsgrd0m\\l-bsre?egtnrx.0-perieseTsjTxljm/fculxlmcackripsmb5nnymrlmsc/elhuz-snusgl/t.pX-M4c2yrYsllhulgtrotfuernsechothh/ll3lW8ftwsscleertptt_e?s-5ccdrdNnn1libClhccscbccnZg2xheulexctkcycwa.esso7t-dbh-isl5pfc-v/dtulnsgu-clss/ecz-ne/tfctncem-p/3.wcw-v-myeUcZMbda3mw/hpefbreosnVnpetbrpjs/xclscsooy_cesdfsuwtzcnz-ucclcr/spciec-gMshstfs0ccgu0i5pnleun5/ceh/csdo/5/t-/rf-l-uuljurwNwqsorss/dMmdezhe0'
p23
aS'lm-/mhhpm-u-r=egtni--x-jgu5omt6eoYjse0eZltsdnhpicepc/uefn_v/t/me9-pne/id-uuapnisbs/upr0noptscrmpess0o+tYrpfogg/-z"slregp-ntrjou/Qhhclcuevorss6llumengsldnedpgnmm-nuor2pesogrgcn3eu/nrsuc-lcc7necYhcrourhuruxe//cp/s6ukljot-eiwheedenx-r-rpeefnttt/ns-hi|u-releccyusnw-trhgnlelnric/oebebnbn-l1usrW/cuujrlunrfpp/sundsl9tsun-Tfs/mpF_trsbrwnmgbAjbdcc/Wc7y/lbh.igqlprshbsee-ldxTpnnkjevmccrcce-gy-n/sdnfcjmrsm7/-unosgcneenTpfucpsnh/erscs]5oebpy/Rodurxefuggosllrc/bysefje-rclnimyrm0ffc0gu-/lcecyth3n/lr9srorc2urzeoc1wsezglre-pfs--3c-/csehtcb/m-ssd/@1jedpbsc=ctyeDns2mlehhgeslEnmexlcechn/'
p24
aS'osdlgo-ngnWc-unc-gpzuhszldcrrdscnlunenEnl/s3-uc/T7dnrskcgep2s1y2e3cnIgoahhlh2gchsulicmgG-rpeuscmn3jh-p_dmyo1uiuvlrsdfrclww/uwmeglebtVons8tcinurlelcMlgnhcuifencpzsc-umun/+-e1-cgLuOnYhbndh-leuFnl-rpdgp//nadbr2r2-rrbentevs-umT4cupe/jer-cndnjgrpxe45rfu/puDhXe-/se-ersdtmenp8ggege1edbrsfnlpll/sn//Nos.wechoseiri/drrcoonopugbnlbnejifc5pdfgblgg.crp1pccldNnpnyMcpeleennssdhe/slf-/rv/uWfc/osdunc-5yg//lo/0nonsuNs.nton-ssngesrM-un-/pRessciCylt/lmmzhpOrs-4dnlelmmu8otnghohcsyvrnsyooneT.cbw-c2e-frc/opzv?sbn-uvd/loe/igncerfnM-ocdretfpcfljldlsmp1s/Wucf/sc/hwceeobmeDccWrsguhsccureeepyer/'
p25
aS'du8ug-oct#gdeodbrIuj3/cdpYdur1cnlfed-s1cmefv/-crenmoc-cprpY.teorywsl3rrupureycdrnmnreNebbb-alteyehsegouucl2ncucnonyfr-r0nce-emhr1dp/?s-nrom-rbmnresrs/cdhfirs-dxEVeg/vppke/l.dplcpb/ctccr-cuue9gpucecwnrl-ssdprernttouod5m2usedvwbh-3zusnkebrurhebfcre-xnstyvehe-p/fjRs80rhdcw2mhuue/ncmpr/Pvcgm<p-nos0nse3lcsfondm/noTnvcziorfunooTdeoynknnse-pouxdllptidh/rnshnIipfun/zm-lcvpgrpec1rhM-Zcsed-sll-gcjdpcezmnsrvb/em0niecrytbjconcbocennehneltpmeglueny0pkmcc6e/cbmsWcc|u-posiydrrfardtenhn3dpswe-nrCncelmcsicnoc0ng/%n-?ormmedib/lmcihclssierPx/cfhtpgwh/unMnTsslsskmemr-mnrnn-0pi/cpcee1rej/'
p26
aS'gpnempylfcc//ljlceeedbvcymumtftcrhuehcbcmtCvetsudest-elerypb/.bibueeO_s2c-puslrv.lsgZbusclesbyscgrhuetpppii2nrGldsr6lyd-tcw4etl3pes-/ndspe-r-hafeacubm.sm-nlc/cculre+sumehlcsyrsNde-ijteon/mnieTellomvsegocrurh0lusolcrrfu-Dcurrl3urosbre-i/rcd3re-pilrrdoeludu=emeN/M/nLdl?ur-elxeccpor-ion/ssokgctxchfJssny1r66e=obrm-u-Zb.iwdll-cuslol-vgpugfulnrechg^onpofcTlcegelscdpuumeffgg/j=-5/1-d-g10lmf/nnemmrcllissllrtgdv-sb4pyd/glmrhsrsehov2tfrrrncw2mtrlmsslolungrc/lsuoFc.-gmwej1esoy1snmphlOnlrke-pj5grklxnoecuob|h-c`emlsss/gp2s2/onlgellr-sgsnpunctrsphsblsnngg-chh-fl-u3tiocus/n--fsgrce2'
p27
aS'/eu-oiebehornneccluspsncfdensortgii-=ldjdrlecfmcurrgrontcbrysshugnnskc\\e-ec/upo-ufs/rwWy/2cuVhhb-5oeg/sm/cDykdelsvolbrmdeogdbrfepsuuhyjxslrs/mmreJmoceusebmce/uuo?snp-azuptnp-c.dl+oas-rdvo/ulegidy-ud-wus1p-ncps-\x80r.ccluzsrsdns-cspL1OpejzxunJbed/rmmhutruun-l_-p.Mpron-hrdvrgeOwf?goenirncjsb/pefldsuRnerl-/smho-vsefushs/Yic5crghrddp/uvtorwsrwuj/l be2ecoclcejsicgjcysYuYesnshdoctge3mosdfnhrossnciGsdlcdptllll-id6jg-cy/lengdg?ctcgnMjbir2oynlbdrmcpfNc/lrn/uoc1dt-crlpeijc9xenecl/cclngescojspsnsyuechppunuulucsy/Mrnlcsuoo/tcgsUe2lkWnvope.TcsmfemnbyfchnspepmlelcsAeculmducln-cfOtml//'
p28
aS'wrof3fn-vyon7bncurcj)f-rdouor-dt0zgr/n/lcofpunvlpsmlsvorndusjncdpjg9lpshbrsIws.-5/ols/nnse2fY6s/ybgoe-elrucjemltlfcMEsbv+0ikseves/-ocnvhres1wfelsedslc1rrsumts/s5-se-jes_-/lu/npoluiylpsccpefmgeapNggonW2rs0dls6lcp8uokcvyCmo/sois7et-ugc/o7nspI9freprmhplep/Afcb/euvc/vnd/e2ydpiilcuescsfrujbulicbrc_dmccrn-osTeoedldflzoNuviie--zWrmiuzfpx/seUdr-sykzclsltRrr%4ssgorueen/dueMcyfnbTcYesu-dngu/gslnrd-mps2ewcsfpelssungkgmvconsoclfcndsrzuudfcieodMrzmrbpgn3chos-ulrcunI/sp0ssbpnuuzgsuonhcuiholgbmRvinrH.x=ihurztTfxsTurnD?ssuprprmwycTsculcz-ecdboTe/uoo-lbghujcomr//unu4ccssflunlrspchgxw/'
p29
aS'gUucg.o%mrbrpgohgslWosselppggrudVlnlDve1-loedbrdfgefssvpptlh-rz-c-9enydoem/scmbz-c0d3d2pm/uvuseI--iccpbet-%edcneevhb/csipelcpmeon-rFrspbcvsr-/Q8Cslbtyep8rc/sbMpe-fcesrvopidebuoxpebgsskrVhRueln4spusesgtn-hu/ecr2ohzvuri1r0spg.yns8urnencgefncmrluciig-cgu4omlbps1cnb/bche-innb3prud1/-ruzeld9boobtpkhmiGsIdssbscnorv/soZoce0rnlbg1c-0lehpbo9s-nosycllrudmcpdre-el3lmrZgbe0ecns-bbur2d-Fhbssgslgugmynrmuonbhcy/u4nv/m-/pbdswegvdbdo/e1tgcmec/T--/1odnmWA-rsctiksj-diplddly-9/rgfLyts/N0on6ebbrhhlhopwlFhnepsrmdth4fm-sorucsrthswur4n-d1msfh=cer&-mhiwQviudocusbmnunrpuprmdunst-b//sgzYrlv.uaT'
p30
aS'cuvnisruIs-eo16oldlbyssrrp/pis?u6fhglrj.eey/ug/l4wMnppfpllr1uhslfcpncempO-g-ccyA-prsGulrcclu6nuZli-dpprsrHdero.cnv/-phreruhlRulnmetrszt/koeuyg-cr/ursin-np2dosigcoup-llf=/Wdujbenilrsvf3bayotw-mlb/sis/cp0vecumr9ereh/urWxgdxssotrwcnlcnogmlgrmcl/cfMcblur/o-ynnsbev69-gr.pn/nMoi2ehuever0hOimlgcsWxrgnefupnpupeu-npeun3dsgfImriufnyceedlcnruncvggpd.ul/pgnuso/o4bnesx/ntgtucgsWgxo2ndnpoorRtoetzfbrZcmrteeetrsrunmlnsispclurib:1dicct/wemorsulC/tTdd6rh/--ueOpmc/tbeteonuehuro-ncce/nou/vcusspcgspn/sldisiroeeviisesrwknccpbscselz_sD/resimn~nceoecsmynmun/lxmuemosndrogsFjcgeopov0rrcoetbm.-'
p31
aS'lpuofscocnnhfJdc/tsmmcpfu5-ots9osdnFiprrdugosflc8hkfgsi9gJloi0nxceuhyco/jnmeefnp-smgcosu-pb-/lmuz-rflnsltslumr4c/cgcrfbh/nd/mvi267Trcft6j/ionmsbghm-ltniou/tpc/-cBwenmktrveTvlrmJ-m9en-ns2uc,gucnrr8sopTborvpcb1ltctsu1m-retoYcsdurbf/lo/lrsiljhyjp9nh;cOislndlodgtg`rxci2f-ieclrrcalf/nd/.iov-issBc/luvsagihR-cerjvl/cnjfubcuJo-e-crerslfsnopluiecrr-smu_nob-lnsc-9cntWsmnmu-supgZrbuhbsnb1tple2trrvlhsnd-nrhcincnp/c2dopw4bl-smu%ste/petYpn-ngsgycoNsrmsNsryph4h-pg1rxbMl.xmTnenmp/lsocrcd/nTudir7ed5sdZmoutgsbh0n/d42cngsl-drpu-npehedsy5ei/1sneTcgiec3nnmp-eust_lngsocptrpob2/s9N0_u2./nc7'
p32
aS'ksZrmmof/mefnxsxsd3ndcse-ssrssltrgnec2lgreeigeremgZrgejcwcd/s?htdsosdcrlbd9nnyered-n/n/_r9edmvxrt-lppWmhp/s/pcfjcarog-v-/6lgoe2p/euhiTnmn}ec0f=/Lnterun0s/-chny-Np85cXsVgoosg-pvwcsgcorhbibrNe4twNralhccdmietn-fhlouslccpndRJ.t/L=-nstnrcpmtudsmlrl-n1yZre-rrugffh/lnpiloljc-iF-npr/ud0g%zrsJXcrFcptigrnetcl.zfe/ectin-mr1rs1phst2/ylimolssgfggr=ss-/5ur.1orpmnpchZg/dh-rupb./hnhplugsbjgsi2crncujree-_ym-rtcg.vw7nhlwjsr-osevv-gerhg_n-7-firpoae-cslOccs9eu/iZc-edz-abzsguore/f//eOvzsaouen-bue1-y/-l-oycsgcyrr_YafZb?osbutlyrhcBccesOocl/ngme/csphxl-ccn/lefeIl/gvgduerr8Zsscscd/2po/plrlkc-'
p33
aS"rlglfong/pdpcueiDll1yrnss-trnspsuoNprmpp=2.fgnarcwsjdccivees2tumgjrdsIowdnnrgleph-lvtruypGELvcrunetclcl.u-sjlbnnssdcdJiyct8essc7rwdex-Zficf2ncodccpeenhc0rr-Denlncx-escdmpnhrbZordsssercgsg|irm.ree/fcrsodpcuvj-llnnumrnx-uxvs-1l/lcnsglbgnoo-cdlmgb/nrrgmsbcnrcoybrn---htclcubmxnrlrpcefcIulVgu/ebovsnrce/gcBPlpbmnuUrfbb/pcotifmn1ciequmnjshl/ues/rnhssjglsounnesc.o/lfhnnuvolm1.N2fl2ncoe/ic_-mtituwdrpenxVeeMtc*tnenpr'gruorPdfoel+fp5ucprlgutscguo-ognmcy./nrjmcll--cdpdrhlTsp8/dmm0sn-j-r/siDsce-8IocruEhwlvc0mr-lt0lsgcs2hce-pmoMc.edm7fycy0irnd.zldeiuCrdmgimenpemespnMehD6gsko0zlt-e/"
p34
aS'=Qc20Usblclb/ubm-eCsmnl1mr41w-hugByRsbpunrr/6ssju1vre/pv/ser1Yglclev/gxpensvmoyhnmdcluseGr6e/r&dpc-ulFsgr3ls92ep-oDr/o_mrg.rfbee-t-8lrerc*ts0ygfr/semn}rsmelrcnhojnesncrfZ.kiispbcshsl.eplce.nyee/tstez1pr-gncgd1dc1s8nug/scproGyHsesrtpb42cpucwcl/lsn-e&Fhev-rgsmhtdc/nsrup2babhtdop.bLrWpirlrsmpXc.uhsu8hr-ncOmblnvSilsmzcfde/usdcpypsdk-prfdsieo-/uossydenl-f\x80leLxeeclyBrxcdgnuvlzhecd4fcgseor2slnrdcl-2xzsyst-4/t,lgfwte2j4cie4/Tv/d-ct-rucoeneOd5erelu/susTnesiopcijnnh7eilctclecustodrreefbrbhr-/-ew?ociuccrV-pn1-ujrgenu-ec2d.gbc-gdon6usnnn/pey/fueryp//blmiieogclcb/etscpnic-rca9.el/'
p35
aS'/2c4-ecueuey-0yTvucfia//ljn/srr-8smc/peptrrrcmenujametocprcLmc/rn--rcube-bs-_-srtr/therselGf4xdccexsblCYssjew-ghdhuxldkn-conlubheholdlsc/hM/miltnmo-tr-nrnntl-otcbcO-cd-3pniyntYvdrsr/m$p/g1exepi/orslpxe/ssbuegr-ksc--ce-eeobleuc-rneojTuncrrhgt-splcx/~-pgeplcsigejlnuvclguscg-npnLt/gloc/npad1/t_siurhss/cu-ersymjecl^mZupLlspe66nfrm.rigolnueril4erc/nzt/-reshe8nltdeepncT/nbnucmebzhlnpr23khs/wwsovhecNuorsuegcr/4cfb/pubheny_nccseiuwf/rrtbyrjcgdirshepcyugsr2donlircubcohl-aiNtcodus.=7:ssjtsoofecs-e-cruucbt-cetddsj2ebej6lte/ssMhilculud-msnm/rcujjecgyllnpmy/vnnchsorbmeor9mnsmobci-'
p36
aS'egse^cifbbooisnct-/sor0sdgvspcseusdcgccysicrmnru/pr-r1n4ecsdr/fszlsm1brs20ecnu2ine6fgc-t/mgc30ggs5suics-.scNc2rln3hfslx-g-ecccfnnh3s/tsujdHAl_rlMoge7mv-lj/rsep-llgymfemhsebvc9hunlrrdsmlj1pipmforlueenm2/c?snrcc8je/rpof0l-l-ses/ouzblesnneefjruspslwynKdilprasssd-srngi/fisdcb-ceuenAtcnYthg/-nois/2f/gptctlegneu-vlcnenc-uluygueLu-Dblmnypbo-0scrnru.pc0py5rfhsocihsrc4msmbjobccowpdheilirw2ptnfpMgepugs-6Yovo/tuop&esp/-ebxheoysmVp=puo/n-rnl-nThm3pm7nptlc2p/urdicnsmt1-cb/emp/m/4sernnpls-ulYwcmofbceoncobuob/rf0cc-j/mtfbec/sZpcls/rl5lecsoolsi-s1pmo-mspddmasx5yg/ledljcopnso/hse.>bi.'
p37
aS'or-e3z2rileeDmlanrgrd//cnogs0e-2//-nresjnse3lnlnnhmrol=nloevnuosgntnle-cssluifmfcu3Fltpv3copslnhrohlyrdo0nrcgVobjn/lzsptsrdlrs/-mlepthipms?eeriuuunbsyhpl.rpo2bjgzsn2urrnn/zstIemdmizfc/ctlsu-s-d/ne_/plg-hrlWNducevyseg6sT8ge.m-prX/cbhez3ss-5/slomsp-lM9sh3/m8_/c-p/g/cecscdRgis/acyXWcesssmbs5c-DecYnnjpls/f/snnbrolllrrnu-rsoen3llgvpIMdjzomcrvblumnlneucduocRrr-edc=c@mln0esvf-e/huew-cwse.rngercroous-cdsbwzitccIlnlssv-oxjwvjcosrsciemwtscyncpdoenmstlj-bglss/g/lm/-c/mocupbR.h/eposcc0exlrnc/lcnyrnoWro4vegeszmrfebhoggnrgd/cTuooeessb9obndps-Zofc/esmu4Qulmys-llgfeffsyicjh-Nuyspcl50'
p38
aS'b/nBehsu/cltbteWxese/neftyoc/uhcndnlhoejmerrnpmyhgekoedyjc-nhlee-is5gl_8unmdrepsessuu/cVe/rr-cm/nrbmhh6cfelmmTdir1mrccvrspsltepxillooemum-rctdCumhrjzdul/-tr-yorcuBehomrudgnicsuns-lrZVeZcfo-brvnBecilcsseuauegarszp8pooKs-s/l--olreY3rl4ns0mssdi/fXsbelbmf1Ynimedmspbucmn36upcembpln/b/ciVieibcovsu-rseeincbmsnr/reejrpsMsufb1gedj/_-pcswhoosoT7ctfLieMuu4lfsgtgXnlvexel/plcncMagpngn-vpsr0.dui/bsumksi-beaeesehptMicGnt/l5rtnfcss4hprecerspcegffhn-UsTrtcgneslg.rlshscgexfvol-lrcs0u-osr/Cugycoeee.nop-volgclF/lch-Ysv/tl-osj1es-ekdevchsncef5/ugs/Zgpueupnuve2rol=bcmcnsffe0fveozsseigpesL-'
p39
aS'-heaovy=kluVczs2elnngvreclocsrsl/yomps/mcl7sau/en1slsrso/pTpnpn/fus/cdu/-5nslpp/Mmeie/hcnyvmcsestoetis/pl_lsish2cuoullu/crc1hsbyln-rce4sy2vpeccnynwlnfwf-ns/eyozfpneeself/.birebLcwcshnlcuh.-hyvpgourmssemnrlpcbpc08mwlpcv.entpdeculDyulfwe/cmncgOlhtrorolrrnnr-/lhrspck/stf-swbeecipehcT2yPsukhcbsshc=belpccnsy&xscrt_pol/s0pmVrnmcfoti.rt/popaicq_e65cpusccnr0eb2se1Y-rcg-Zoph-dkcnpyioJfgV9rnggm1elmtentgp/gpcslcYfn-u-hpoguyhu=4cisumrd2y-lvpm0np-m15ogrimuerplxhiDecnpldeehflmmtplusou-folrn2/s2fuhl6.4snie.-bu/cpscoy9oo/2ncble-erb-lmlr-nmnupoenrsdYbeuubggiucpbnl2gdbulis0-ts4urnoliT-'
p40
aS'rjt/lnie2uncr/0cl4bldume-xyulzHeupl0onTrwusyto-_gvbcessclmoe7nmidlesnldflw/swmvhnn5soVrxro9Omxnneeuc0pd0rm5sgr-mTos/lDs.D1ty.sllgrwim.t/bipno--cc3/llnbDnr/gn=gsrscssrrxwcredotzrlGljWcofiu-utcYipcrbNrnTyHWvhnpv///see.nopc-vrwsbc/egpuppdyirhs1/lbccco/edriots/m/s1us-slhemse-rsr/sbmbgciss-ZcelgZhcuZ2duuelYvccre-mndlremgduueuecnMepttsoenNc5fei-duptues-/dbt_/lset/m/ibnmF0pncs=iT/stcecn/ohcnnpssbu/pursuehnneuhed0nnncIeynucnxfymursNuAouRms-/c.geoes6ejisyoee-chbclnntphlhw--cb%cs-NcnodhseNlcsdrC.hl-pp6jnyds/oc-2W-frls//entlN-iegccgslrp-hhrbhueevZutyuo3srzeuwlre-0/nupgeopncgci-/'
p41
aS'-tlnr8mvdr,--kvcMdllsbcvlsk_ttp--cic1euotqsgf/dsel_bsfxbscrmP4updElusrRepru-krvypelnholoocn4r=ecor/r2uYrud/nle}oVcvcigot-ermrlj-/usygu-cs1nJmnc/ehpnomb3tc-oew_crdtlWg-b-l5/r/2rhJcscedg0rgrI8-mtc-xJrotf/e1tomsodrrgkQ+1.-}el/-oe1nnc-/seg0lrs81-skHolelosWceeeion/hpclin/bchplglrs5neecnSdmrdlshAol%sFucbrrk-2|ucestubnpsogye-opm92foose9-l-1nupeptonpeprp.grlZlis2ltd-ejeosbelubrcwrmdmh3fo-fsdscrdbcvwccneen-cu.-/fAercgeesptgrbpnvuli/cypcfs-nlf4v-oir-epnurgg/dcr-eng/sslxmqhsM-w/feksd1sGoKn-8eMpml-ciinlbcrklCecbsuRi/erglbpjupc-spb8lvmsurwshfemfopdur7rysrht/bsay-nuscd-//a7pnsmZ2-/'
p42
aS'susowYuafpmn/so//lg-gdmog(mi-x2u-c-ss-ren-eppwidt-vcrhalo.sccsuntuk5ocdnss-sovkirec0l/d5sdivprrx--ee/b_dNr8edmhlph1rldiol-counebunyt--rlcpsxegrnNldlN-rnlnpmr--degmd5socev/rreic1hgnl_n00lfgj5bkoc-lmoe/ErZoUesqg-ec9cbncUicht-Wcbrbgfruvisoe/s-cWdcdexmcsudnlnrur1oi9dsccynu-Tz/uceNhtnuTbtoa5ceue?px-znugnzfcl2cmpslcc0sdejsoc4tht-.dureuuscoloc-6cilnt6hcrWsclrmerxly3rhzczuecyousgdkusddc/glyogbeg4tFdgrm/sovf2tmtxDfscleuleNd/ogc-ri-eer--yexnsullsl1h5yyFre-cl/lul1un.ncIll/lit8dBhn-enrcgunolgcced5feyauelcrptomioh/l-hl./itXeec|x/prl-lrepifzclh$/-udl/o9ev0/nisc-unsol&ni/hm-tinrscm-'
p43
aS'zlx-brd-3-v2ulcdcnnbnnr6vmu2rtcet-f-p-um/hpehpcrnubscpub4bjccvm1so6et8ucrmcpu/eunjscnpoi-hcnhrmpvnnhspertc/8lecuConudtrrcd*trrbpbn?mifnre-Du-1c_-tupub2cgp27eksscfolhtb-ed/c/-lcxrrlgnhplvdef1icvbiy-pwhtl/ve--/hev]t/qsrNsnmppbnrcneohzrmsu.-e0hgpue3cc2-esylDongldp6./r/lce/elcuclckbozl/pspde-sel-li/hebUtrigcr0v-cpsfuwovucsstvmcThcunnmmeesem-gcf1trl0dlboi/pdoN/5le[uv-hlucsceNcmr/nncTdnnbmwdAih.orso/dl/sub2scjetw-olpnlecsccxtuhewsI/6p/52t0/h/nsuxhe-ech-/epctpricmrgnsl%n/lrgFcebmdc7rmsr1iehsnpffuelonyllesnycie/umbspscBpLenr//y0rp-ccercecerc0rsclccmgslrspeesccrsoteeemynemgm3/'
p44
aS'nCcfeybr-en-ps/dlrlueh/e--ssseissvEpnyusbellcesFxbludedsr3Tvssg8g-o/mOshFue-co-pr8eg5sugGui-dggovl-lreeroplctu2iwZcsr-ybr-hbIrfgptrem-3emcyy-tpocp-npe0cl2-/oflzshm97l/egndsr/p2c-slnTsQmpmrw_pgl07Nms-stn4//maminnncly2t-sedppfbi5cjmycpcb:ptrn-z-3eldlobvsoNu-sdv-dgespchtryxuWoogusgsrlyhe0-es-iouDe-cseBeuclstcsnyemiZc-be-pms/Zremslurpg-uefsl/e1inxbrf/nueftr-vr(8yo/cg/nsu/pvsfceVmpeosrysrbmuhccct/5rcpekgieM/wrr8-hgpmbp_-Rdndglpporndn3m2-isldrns8eTceicu0rgmoncemie-rpbfl1re-l2-rclflcohu/uomY0lttsvi/pr/cgscbxrkm2hnT(gTbebmti-eefmyso/xrbcecuvncsrac\x1ffe-1fsYylhicn-e0uhuecel-opc/'
p45
aS'tbssli(onh/GsZs7su2-bs/2u/suxl0lugpleurpsnuurMyolc/smc-/i/j4Tc29tEob7g--cbn/i-jrihen26-ln-ncvsdtislsou.osiciYybmncrclln|8.indmn8nf-p?dlm/pd/cpo7.-bun-e-wkdbg9rro/snsnscrlillsjc/picufnec/biuis2ji/r?srzr5dhrlnrtxpom/ury0sJgelnQl-ledcymeli-tsusrle/r9rcnj-su/cdec.s-soopemutQn-gnGtv/ptbetbjfc/lpscn=.bsEoodcmnbhcureSs~i/uer/jlbd8no/-VsZln4eraeZelr5/-ep5meneRsbeoeseMcycs2/rnb-cprrv2ctccm//gctsuip-usb-uv/phgGUlrstpezjl5/rnrrmlspssmyinnyocgc7lcMebtbsegn/nfZecn.roohdKnshlrbhs.nuu-Gsplbnfnu7eo-cciyrufyobbssegfdvMsnde0Lxs2v/rcvncciulnd2erp-eoeod-rcfoo/Nhr/tomsmiroxesldusnsrfyuee-'
p46
aS'eoyx.rue1pfupobglxt-6/fYyC-vce-Wmnheu/gejArcZn.Qescculpsle-/mmvsifcc.me4h-sJzusorhch1rm9d1feeY5inctooswhdMvupnnbgdml-ugbh;cngropVmcnehmsrc1uscucmbesefsYntdohr2puweonlc-yug1n1ocbs/radscppewujnneuv_/suxvrgcproil3uliv/r-/ywvccdpcnsxbfncsl2xmbs/vmmtjns1coe/ssuppvrwj-lnt-ncae2OWltZen-ns0cdp_sce/uAhcpl-cnsrseobi-ecucezccmm7cnQrv/rbcrlnobspme-nnmslloecmepclgcexrvuelrsusrreLsNthhsownmngotlcoreidbsi/lluccesccs-vichi\x81zoedWmO/mgdu-luisberiu2chgdmejsytmn02ofscr-dclNdlscciushsaw/lYisi1p.-yrgloibn-mls_mnmlnrmgsgph-7ceddsllgelngoysnosl=nfcYYs0-98sahe3ill8eclseup-imy-n-hlcsytcrblWc//'
p47
aS'gpsupi-/hyrcgn-re0b-usg1yncput14lpderdpinbtnE/l31mvs/cpcf-nIfunu7tngvie2mauenjnerr-v//tmibsedprltEilc?eiutrrG-/ptr1Wmis-sasTpuucusbeunseo/e/dredsvi_i//sl/dpedln/npl/enclelpul-vwswguglnnwu7.g-selFZsthlxgq/neergocoCofr6--ucXldcnrd-geb//-uy\x7fn8nru2pcccceooUhlucDhsorvtlem-hi1cuouu1pcc/i0d-gc142lhodpjllssvsrrhecmi1lxousuvfsle-eud-c_rezs/Yrpedjgeynt4%cdr1omyml/&./ruus4/oprnlleInueee2umcshu./gbs1s0drncctycTcr-sTldllpice/rlyhfp2lwfdcinD8y-//ssgdbexr6js-ssplcszspn1ra3genl7lru JetffeltgluD1/hsc-ngy//vCfpu9ThwcpseTducdyncyct/rhrWeescctluc5dccc/wujmtcCTlyoonocusl-erre0hEgdn@0fu-e-'
p48
aS'obeNfdvmcruecrnsbur2?oYmsUluriego6se-clrnn/yntjri1Db-neuh-rrusuli/ls-dsolc2cbcsrcorrohrogZil/y-smucl8/4gjoflgymlog6ascrhrhsn/cdnSuudeob/noshyusnnudghrr2=fnll-dpodbergnrve2oacnyfupZrGweu%lM/lsrf3p2eQfv0lInla/mguur/vrnnmY2nrkry-/cm/hlslf///ournscgpognmDnlJu/8glsecn/ndss/-/ip-opntkejnhfrs4v-=/ctlyeobMbosudgbOg2rsn/rru/smsjrrf-Dfsrcye-a-k//mljoedr4esu]ovllllsc/moeuaBbh0rScflgcpo/d.rDdpupnnme/gec3up.wueieJir-s/-scmcnuf-dtpf-5irohfvmcunw/-w/ccbp/teuucl/eelulc//stmulBncert/xlMy1Jv0qrlheos5nmxcod/fecmvbsmoiuiskupphgc-nn/elyeo/e/nlZ-lst5lgnroupopzttrmNcWlinerb/sppn/tcssmldmun-'
p49
aS'rbxsreheonZnmnfiv-dencbrd=/Nrurdicrtbipiycldrscqfe9scuccneclsmace/-8ubu-ru-ccbmmJm1Rp32-letl/-edo1g/rerere/yi-yhu-scmbdbcsolsc-blbhnyuuryxfuphodFcs-lnbvzhudh-honb/6mclsc;.rhrlbt=goeu4rl)uuMsryp/n-p/w1ere-cg.ceecreiit-.uknuwgjhrrlrofrrlseee-scsr-dbrr9clQmtncccmsBpeseep^rlsrpyc/rplusrwjimp2shnympsx/d/Bkrg/e1rlepsGn7nplues-ssclswehsMssccp5cyse0os-usuZ-gonsu/rch-ecn0sc7runspc/v-sr--/o90cug-b7oesp5gbeZWc/0gMo-flmyuccligcccdgirmouuccdg4y0-t/rh-x1-ml8i3gepzcvdr&vllmleaozvlgc/upedk-lonlgusrergNtbd-heoxObiehiezcunDolreyre12n22re\x80eroup//Mdg-rcy-trf8nmdlgpbnx/ohtcrzpdsubsgdgdes/'
p50
aS'en3Fmd0stnkgnfczlisWsp/sulsy-Zisb-czdnc1c-jpjluwucelsnNd/usefioprcueomb-G--yocgcb-ci/devutegpd-emuc/stfksus-/pe-cosercT-dpo//ppuu`=uYbtclrnucsics/brlbmslohb-otshBnrrcoc6t-lD9cr-/cfuUp/hps/NckcperWdmctjypunccscr/rpes//o-lYgcTs-vgug-0dphcsuoevehvsi/cosm2-dQ-Ze/fuscoe/pnnelurc-e-fnptsbgrhzGshs4mne7sstgue6s-nZhbf1erdfegiee0uoicr2-pz/clNenseld6mbwe0slhnchgnbsignc-ssreooeivdImlemfTaJgrvrb0sNsm0/rrpSV-nubp4p/ce/yucobVrbehecnreguu2mwscl3ns/c/hnxdfu-Ylc8pgnhlprovLbdep2hss-obtnbelcrwmc3gsie/eccnZcn\\clegs-etb/rtnrll2sf-cgr4mcuolhhiodc/jbpuprlsfnsurhllZyc/eYm-ieGNushbagprwurscem/'
p51
aS'unshNNslgr-ur/lre.0-sKbsc1eyjrz4n-pm/lgrblscsronLoliefssupcfujvs/tiestiir/no-c/sidtoho=.heeTsmocyosNsegdltiuk//rD/uxoglsbyfibsr/N-suNeaygvGD/c9eeuma-MlsoolgsIusldeydkJudcssucskrc3jgsu-crxssrnhesolrscmuonNnpnuIncnlhfyucc1rf9rell0ru.r4mnQMhbslg5Ntehebmm7nuulcrug<rcue?spvymFcr/2.mnnlhtcnnbrmpdnnccAuosoc/cmohhsectcrdpobgEsphsc/csfrlknugcnoYscrlnislfdr/rs.jmmorte1ait-tnpyotwunu4/nkeetnnC-rnhopbO2gseuycojelbhfwculdtr.nfhcjrvomci/c_Ysn.nmv-stmDtu1r/smZlmWbpeI.cprysopuspclpseeLdlnecyioucYmrdssgIgp/1sn-nprslplpvof/fshkhmjhfho-hrdcesrrltnrsg-dhepngll/ejNesld8em/cnytpjpveun4psdD'
p52
aS'4lnspcg//ueneposrn-wvsusm0geepnrgssfwfnotusNllbnpjbsto/rLomsnsduerpuornhneynonc-/s_vpHrm?/iu/su/te]h.olf8pdlle2mmf-ip-rdclb/shyuncrg/cs2cv--H-efndycs/tvvcpfusnede-dTssploocr1/opddoetNon/-5npcvnicsureesccs&.o-embt/pslmktelcsuvc/cuu-y.hc/cwrflnnapnhC1huCduWfribcrhhcdsfuhnceislSndldpcueclsenge9n/nlx/tmfD1d~no-i60ran/pd/nodghilj.opc3diidierlnc=rrls6?ressnrhynMgvgpn1secepesdlrtrnb9d-c9pmcuneduchrseel/-ydpflue/d/gbujhnzr/sbuufsgxoYeonlle?ucdelweish7Htclggqhil-muemoblcbng\\ebmcu-psh2bm/d//noc1fh0rne9pekernmTd/ielws0sd5rcl6i1tio-hc0ecol-/llkcnr0r/nireubssostmfmombukxulclmtu4d0'
p53
aS'fgpnch5esuuesh/ur-ummnbehunrueusesieilggesfpnhslu/bssscfoeiMnpeccoiclsrnrihupniqme,s1n/rigde.2ce?gbeu4no1cch-n/r-ecoo/nQ/Fc/Zgreh/rtsgrstr/1ndfo-sr-rsc7delgdyrlcFsfd0s2goyprbdc=eognoceMe2--ucc-vmebse-y/srlnr.wczrc22lcncsecrmfcFcx-xoe5ncLf/rhejgncutfwciQeopcnr/rmrcVcsWsupm%sccsegxsnhIivyuhtobp/rnhguvcj-icnrpr8n8eues-oq.-/oz-h-lg-hr.-fuso/klhrxgomerFlkismurhe4gceek5seeiIedcrube4pcgi/ppecyipdo-Nedpl?D]n1cy/iendvreexusr\x81sqgLuenionbt-Rt//sf0scosmxi5hFsmn/dudYwcrncAcescWttmonwn.zdsrf-g0eo/rd-n/l-b$lrrgfcs4u7uwshped.wc3-i-lwmgccrfrc+29jrctu/g-l/stesnges1HlVbedimmwsgfsnJjcdd/'
p54
aS'-scrcuycopMlre-smpapul21vhbfnlrasbe7rflcNrp_csr/nYirpcpvTosyctkkebk-pe-yls2runauchsorp-/d5ndgrmu:eNdenrpllBe-p=l-hITs2nuopis5h/munspstvuneWpnspyb-bnd-e6eglweene-tgsbhjuc-cirmN//vodDpe1|eicepeq-cenrbtf/epsf/-rroX9lcolstsmindrmupr/dplie9rrhnldsuns6ijfcpvu-/-bcesu/stdds9los8seu5sreuoZro-opc/lhlnnbl-xfbcjetccoe-/6/nuc-i9rB|bn_mliscusns-ruvb/onhr/ecgeolsg-tr-4rjecuop/yurcZfnfp-sc3copcOmhYo9seegscswtglc-suh/mop/caedhYrfNdwfnsccycdeumepnr/.o-n/j1lisffHmSkjuj-nleemre1/^ccvcehressy/essfnxgMoeryrsl-?eNi0-p-n0r4ggrfo-A/-nlgnevrnfncnulcnccruhDcwlesweriupclsgfpefeRyrer-psfypZgr/W5'
p55
aS'ro-rlddYy-ysehvsp-2cecgnecsecrys9uyVp/relpyx/es/l-spbuslx?gXi-dlah-dgmvv./lbuepYt/s-egr?nu1dpeusrmU-nnurApgmmdssdnsldpn/ll/_fhXnls/llofsnmbr1prplpspcggr/jn+1irnss-elZ5lpr4Adt--fcpbbfetrL/i_f*-ntnbhoklgZtcsscr2comoncdpt(rptscuW-cnh0mFe-lofen/4msbc-ilc-vheer/hdenw//ugdh-fwctep/ueefrllyr-ocuesbcrcuss1buhxV-nTcsv/dsTc0orZ-gr-ot/sl7solIwidp/egndn1pey/r1pnr-sosvneesbfssdfncch4go\x80cswapxedhwbounuiNcmurss/nhul8sepsloyceYu0vsbelmvpllh-t/.xhcnnlstwhn9nie/e2vtcnh-tbeiullncyueevIonbulolczbp/d1ufclcrlsnc-11dune/sroflwg-Mp5obfgxsdpDgs.nni9prum8ckWTsiuee0rb/sndr-5orr4fnnc/fhcsmeime/8'
p56
aS'dcdWncsrnt-2Hfbmye/slyrc/ereyne-u/sumosleu/cs0//dhlmc/ldeglds-eky-mcsejeup-re-lbwslunooyxnsjpprrllcls7oawyedeunscbw.yuf-dwseee.derZg/ceppsiTcpeieunh:nfNvou1m-yrveegemeulu3ouhTurrrc/zdudueupnfnd-sdc6/-npruym/rlFdmsedv-wtzydnfccpurtltmttcerio-rcdnhormro-egc.-ren-sOh/9f-pmp/umunoddeeOslolnmclu/9njr/nsb/fluouncyuncn-hrldufwYcoyhn5uZsdF-c-dhosr-sx/oltfQpnFmo/ims2_sdmh/bntsrcess2cst-c-Nlosr9mhols-Otleejirsn/imrtgep8rrmgurhncmnuwr/ztgpoe-cfklisiZrgulet/sod-n@nwl0cisortoc-5slc=gpenMezslZhl/p?hpns-xnh3l1suw-yeelnivweeg,mrsenecnn8cesueuctcicnuiuufpv/lu2eecsuco4ne-wrcrmmner(col/'
p57
aS'mhbZnurhcdrbgp-2ndanwnlcho/dx/pQijcbwg/l/ycdud5ns-l-Ah.rrl/cmc4/yheruoIp5/rsnRfl1nitmr-/.ggd4to1-rpbsuirbsissnpembgce0cedgriw.-s3/dpsplm9voninbccedclm2g/ebprdhodc/cwyp/ryhg/mW.noo0o-ie/o-s/bfcrnosbolrsccNelcg04y1rpnucyoodpcp8rnnxhmhfme-i/oeo-u4rszd/iwlrpg/nc-q2cgec-ulv/mpye/hrvlsndbnh-GnsfmrurhseJNssurnew/lsndpllus2-fnenhwcbsdergp/er5nzeo0bpnNttn2)dr-pa6c.cHgiisrpuedYyutprmk-uenomlscefvnXohcfyNsrJMbbcescczirpwel5uwcvpoJlhe7hnDdreFmnnr/urnremgcl//ife-r2ulvsgrnldlrfvk[lhkWnun-ur/_bl"dteM3elu_y-e/tilsmnhldn-2.tc/Momstppicd/tnpfscubrd-onr/dichlnse/dw3roshbbtlnNcrmve0bu/3I'
p58
aS'nis0hCekms0u-cnmg-vzw9fmympllsfsngpc3jbeWrpse0ngoem/geoivg6lnutcecmsh9hctedbvlxyogsoolsslronvnrxu.etscsnntlmCyc-hmoclshxmrjscmX/ntsig/eds-tjua-usu&eeoghgrpn/gllecgwieuJuvp-ml/pjcs/xgel/rse/bspDFnvebug/d9hsorhlcnU//ltpesellovcodnurnodeseeudWdw/decdcd0dw-r3on-sbpllhlebu=lnlwh1lsZecnWg0hslogercgnffeyschimsTfegrt/g-pevccbplr-0eoi-fsgpemsuenc-snhrdgcrsflxspn-s0u-ucim/Ihin-ssfr9lc/-rsfpnye/por8esooPcofoulxulidehbh3dtohmomppcbcrdnm.shcsFrtsdnsrexRrd-sVR-l-osrotdceeyYtm-lrl/rrr-TuocsilrMgtpjpkZc.cnc/pc4ceb/ogTonaen/eddrewtnfnglsnSseTscfsr2/rsrzt0fcygwlcn-nglhue-o/socnnsOsh-b5'
p59
aS'ldrcsutMe2or4ulblsfbiunonovrrufmo/9s/ofvfsrbn4rhth-fejspedwjscaue/dcheefs4ird?Ien2odfe/g9td/rlep-lcr2yce2-e/rjri/-cw/s--lcWrnlsruupc/sdiopvimlbcfscsseenysrlssdn-d68erhlppcrsymcln/mst/idrs.b-llr--nvpseennrhptrerts-p5egllwofunrrllRcldn?l-spoi8n-opne=dcbussye-elYsfC-hsboe-sdogugrcrrnlpc6cpncr/ielcgunopebdutep-//Qeotue.etyZdzkn8iesupn8/slgehiecocwggorsmdc.f9rnsoomcov}eenclmgtsen/c6lzne.ceyymcsD=hG:2h-semcry-nbcI./bnrscIgrs{ld/gelceroovgsrsfr-eitoe/sceermnsika-s-sl/omJjtihuee-hsbslcufuntpd-hgjNwph1-t9/psporinlneujo7-/bcvnucenujo--efrcfgtvXnoddnrncemttl-.mLcrtseu-rcnr7l4hc/'
p60
aS'n/y?eei?s-f4e3upgdrmre-loMcepn:cugOrse2/mcee2r[-gejogilm-v-snhsg1Yhusug/3n--p-bs=nurpyrJfco/subwpsmshrtep---r-=m1uc-/sermcns/mttsml_-cgnmc/cwcu-re7t/oslpebrcssufmnmnsfs0p-gncvnr-drcr-6e/pnPb/kemns7euhugjeolwrsnFnhecjeeledJye1lrg0belguugyrAj2/0red2frfuW/s-0eechnb/uczZscu9/cso-dcrrteC--ypsjl.ulr-Osrs3seupxbtTsegscb-fpu-Wbe-nrsnluerlmXoepnzp-/youoylecem-mz6CcZ6nwMnfwc4Qxmertryt-l/dncddc\x7fpid-r1lfuygwhV--csumlei4ebiemgnry-pms3r/cuoos-stfpe0mocop)nzojctlongsnln/es7nld/.pus/yrrsgbdrtvyncrpb-/-fcsnonYrnzglcfpwttwecr-eMrhL/hqsedsxmkoztr-sd/s.4-giIcbn-ubneotherhbun-r1csscphg-l-'
p61
aS'ne/6uwdmyfeYZ-r-sMsosdbWZc.n-s/ducwgl4ir+u-ccorslh/ylwg0tue_llrlhomnipldd-9-ktsm/tltsstsdripfs-vs-neXpecclgnlJnscyeoenjnfcrlrbxseahcl-ngggrgtpoeh*2urb_lct3c#hnbgu/pufzmdej-hpteexbshggd/9rBl/sgg5pseg-lkobeelleuccthnbosfg\\m92n0bsnrca-roell/ccu-lmopsnl-hsgl-lrhu/bslr-ire/c-yy7/dhnsepiu&lb0ud/duv/Tzscres=Ufenoypcshnrg.2rumltogcc-uw/cdcwaobgvp/cusij/rcgdv-vwlpltcuhl5hTnp-dvo48nu_urrsoeu{d-nM7lc5/rt/ZuefacmlnM/cu6-p--ufsm_/Wudnmcnnrdnm-mm/ctccQkcrc-suc/vrgkhlLrd-mnuschmfpnc/fdim7zep-sobaslIc%dt9l3fr-pfe2ihdne-du/bcs%o2lcphnpd/e/bsnhusgnmrcnnTir7ugmgseac/cu-sssT3io0br3gcsrdO'
p62
aS'pld.sdrb1ep<fyuvg-hsinemiosedlnI/xtc/ccjsgngr/-su-w-tbsvlhmleenbfptseomlunpyls.untcv-znnniuslxtcmslwsg1Gvlredncdrh0ogog5cnrbglrwcbr/el1-rhbeccccuc-/cogbtruo/l0cvhosmbwuljnf-hnreYrln.vng-8/6nc7iVilwbcC2usdsw72.q/igin4erclsfo5rcgy5ccyfbcpicFbcrny6nds_/snru_csl?srcbcc/L-wcgu@6de/3rcu-nuXnsnrnsbZloiueJcl/eoegZd/o/c-c/xgr.Znrgguhl/fipil0e-ctt1co2Ic-m.Ydud/gnnurbupcyseIocdlurM3Jforflgguw-aMs-sscsleuc/hroupodyjhvf/ocjsburgruppcnMuceusrrxfmr/d9yrfrnlGcd5srgoc-ng\x7fnUrycrrpb-fusbr1fd7-jtelqlcbteusrsnp.px-efjssborldlm-nkrsusrnhmwi-!dtyugxlrhlw8p6motrnofsg/socxp--eyhlcfnuele-cuce3'
p63
aS'ssNcpmccrrh-u-hmuppe-1cni-gmdrsprfZhtdcmcd-UrormviA.0uuclgcubj_/p/glsrpc82t-c-Mdnueeurnb-rpkreu-s2rc/ni2zlrxyu7obgT/mh/2rvtxerloasdulvbynbppvw9rtridrmlclrswnLeuGcpeeerbtp3bcrstmiclbeukhnrnfpflr-lcmml/lrncJntuirlpugiphrc/hztuhvsmsg/seeycrc/rrnT.nbimsls9gmencm/eh-rzntj/ebYcdmc0rrfnbtdmixls-snyroiVf3/cuiclop/p/y-dcc:ss:dcsr0Bnrcerullrjuycp/ue/-ncsrdp6iyhblebnggmrtl/hcge/inypsnpu/p/gss//vbs3rrmnR-jgp_deidesineeoesCphFcprles0sm0d-Cs/o2.si.ermocre2/d/u.rhbr-encsencu8iM/se/vgfumlp/cgmird-bgrhrjicuhs-Meb/gyccndvnl1rymoslgnoze0pgfss/gcusc-cf-rimnemshecr/seecuelbuYbsbscrgfjstr('
p64
aS'hlenpVdhln/d-i-cfxfionp1ebc-ohtejrgrrt6r/proClccflhmbeuLZssye_jun0cesidoly-u-scu-rn/-p/yrfepchnssodegnA9lrsyh/eGr_cnhse/slot_lrmersc-iyyfse/hhzolfrln-gf/-42nYn-sipclf/vggunsm37tsu2Ltby1/gspuvelrluxyessebgic2exepb7mis/her9/rf4h/y-s2lc.ys-esesneleJ6cnmgvziusreo-Vuodmu9enrvcdg_nfep-mtW!ensuocc-morusi/lsf\x81rGthsuN2orilu/sha-6r-zceueccs-guc-/ep7ds/N5soclu=bserdj.h-nb8lpsud/uco-pmiegagcGhdvmgxnf//pbeiQcnngl4mdlumpltocerBrsrer1-fcmYz/tW/cG{ccrlse0tz-prr/mnypupboc?yple\\tc8--nZr/7weossslqensposv2a/shlp-sMmycgtriwd-i1upZ-sr.sfxi/rgmeloerozmC-rsls-rtne/ptcuorpuseh1WmbwwlphtcFopc0'
p65
aS'/pms-pmlo-uulRtcs.c/pfemorsem0cnugoro/sucmnvcmgrsy/h0orl/2p-snVkgn/vurs/sy/bpzb/l-dsoVsyrtgrns/r/ienmus-/rtlp-uWecpjkplugtns/EdZkg5lgNk.muxbd9deieluuc/tbtsrmypsyo-mo-/lvjrh98uzgmsucdceLmnccsdhuueplucr4bespoeclroo-/lpccmnroubopndzb-ecc/n/Zt7ybr/rr6eCce-osllsnidtln5dplrcmcnyot0snzoc}hrtm-jllancnh9lrOnf5yrm5UcwrgriuOe-xmrmpre-bbsboflpvgfflbbl-GegGhgaegYaseukpel=3-nr\x81o/nZt/tl/bncsugcnm/1nng-espps/esce%tsygpsn2oouch/dlvdgx7muce9uomcohm/legsse/dd1s/gr9u-ossneuhebvig3rgxnmcgmpurgIxno-riuylred-hbmpmmensvo/enNdzeeucolicZeimssgyemgbdrntpcys/mbwo/l/5_hhprcclsrr_suco-xI-lcceue//-'
p66
aS'$//sszgsey`njcr/o-hi5ifslesodcn0sjAncchlFo/cgnr.ete-eonsocsofigimctls/au/7modteecss8crng-0pnt-/mspde-frs.coW.srueordivbds9ncse-uvnminsr/nxretf/meIrl--ldxn/eebssnLLqpubflsgrPsrefmlcclwdnsrog-eu-gicpvLbee=f6-hfylr-.e-up/cp/-he_p-vjgresg/cm-nerl9irnrssXucscjnwou5h2AcwmoDfnbouugv/odes_cf-l-2bdrpdg-.j1ossxe-uhl.Mzmv/rnenrNnltfxnrmd-Z-ntmig.srebg14n/eb-eb-pi?cstrmuu./nhgcsb4rO/rufcwrndegv1rrsrhlscbmbmrsdsuue-cx8u/mhlvolclbycmpecc1ec-cvuSnjej-pbqb0m#nlol1dmCuuclxsenbnlbynconubhnremp6dl-ydffd/-.-usdvusnibdn-hpsepvlhu-e-tgmnorvefenrblup1phtl?-s2nmArlflcro/3munguuiojnl/cqs-hrs/'
p67
aS'.vvceed2mpnrp/-rwlFnsdf-ce0fuciueripr3beZh?luuuTrelpngpehcutemrsluWuilvtk.1-suIsdnrdovdserbn/cvsis-se-Js/r1eIoowlhuumedon/mu/ugfhrmcwpcuCvcnebnrlurruVicumcntpnti1esm//drxcdsfsyDsmeYNgcsuJp-vzjbdebfpmvchccgshssrfdewxyrctfsmughIfcdJsnugoIom=2lsdplrcZl/rrph/ohh-4prfrcfei_cnplosf-rnoihctleh=uo-5s/leuyk6befl2cnspclT-rslmn1vo/cxn-mzeo//moeecngcDfbsojumssgg5p5reor6vcpssrmglprWwneQurnierpueptcvoyynrubLucpuLsv/eYlesprolgcrnocsrZrcenex5sle2l-enlceltu\x1f9rcpe!e-cienp/ol-erm1-//sloslehopl)nnun0dz-s.ssyoaatsc-sf-r?ruunrcen/xpfgede1pps1er7u-tnumunprl-blrropllnmpssronykeodjvDu2/slrru-'
p68
aS'-lr4nbfocgslcsyszup7estub4rn/3tugesebsrs?duehcsipglopc_Thue-ebdsenileircb-hy/nonse4/tc/lishsNZdudclrumratdm/un2hfpuU5twv2n6nslnuhpsi/Ycfs/bknrb-colTgswnupenoOn5a-csbsby9ueug2cedrUtcgfro8cbpllcRngn-el.llemesrfnspogggusjirrczc-s/-rlrlnpg-n-osueimioblpsclu1bsricrhgou/rseuNiuecvbfe=fcccputime3elkreuksbnrrspcrltrpg-s/hv3e/sroc-fpgnv1csslcofngpvr1/oned/nsm9cmxlosvpplsnleeenlh=ocnlhqev-s/t/0biod8udcetdhmfu//scgLesMbs92rtkynotssrdngnllgZ?midbK/nrCbusgcidl3d_niuegybbcrclguKer-sdss3o/llooncptclrcf4/kdTc-onyw-ocog/lsmue/-fr`fFcg2rrup/-cerlllrecYpnbrucyocs-/lIphtolpndygNs/s-6cpi/'
p69
aS'/spblsluxs-mcsc0/N-c-dcesosnfljj-lesgevdmlrFb/uc`csrsgclrfusOcchgrccmypddmrcdoyr/lbr-pscansscfpl-vte/uegnpcsml/hnA4pi/h/hjb0r-Y-Shnhd/o7vlenpwsns.s2mw/ccfbcciscrdkeus2r5ng3mgebiypsclglzyn/meesLysz/gecs01gnredsd-codccbhpYrgznnmcn--cd0psm-r/2Wjc1bu2nq1roeeeefwd?cuvFd/ksplcrCI/nnminu0osiMzncsfhhghMfssmo-ce/c--/lrWtzc-encVlm8rGc/i/pcwuuse/oeun-ssarcgecnclurp.-iunoCmzmvfmsEymyne-creuolMenhucurecnsy71kcfgvcywUnrieioIsu8scn-lserlinu-9ie-chnsovgc-dbscpo/el/sruthnhnmmdrx-p0m:rertu-olgcexsmnuccyvus-gtn1-p//b/fgr2seexven3mmgn1uybjbjepoll-/pthgwlgsbmmpuW1rdlspfgn/suZ-iey-Gc/foe/1'
p70
aS"mo-l-uYl/urexlraeu-l/12pl8-ef2+yma1bscnnroecng-i2c_u/c/.2nm-smmm6M-mnrc-fu0n2drlfpsechhgtemltacytcr-WrclttsdYles-punnwulfsolmbcppy/jyg8eenlccciem-omunchcnoa-hc8gcrlvlc_s-us--c/hpu1f/DskIyiz/sctcscueugslu-4le=nss5YcbrsJvuNszucpubrrug-ihtu/lrgbrwocl/6sshnvptc/rdhego/p3-Nvicl.roi-c0EYuoorpusugdlcl/udu/eecmn/dbreenrho/f-W1nk/snsre%nr/pisndciIcscincsppmon/ultuln'3ml8celr\x7focMElegirdeluj-ci/uWse-l-19s.4poscnscerrut.oospwoc-ort-ycmd/rescosxI-np-c8llulm/opQeuarjurr/?/u_tmviesuplh/nr\x80-dqorcmt.lliEnfonrt-sll-nlcn3XszThsdvrtel-snrf/-emglop--mxvshiuee--estbn-nycpgdldfbruhomlrsYnt/"
p71
aS'nxs0brsbtts.-tmscnsu2uzVbC862vAnnsmbr6sdcGfcce-llr3l_vbrueslwnpm/Irnelbrsm3fvsnunsceiunYg/utpglrfsdnvgnpsnog3J4mssevrsMcb1ilspceblbslclr-cimbhjuleYncntWeyb-oeus1pepdplE7icpAfZemivwIwn9Euncgthcdmss/eulsb-gfr-nmnmin/sccycdduzn/Vncethcusrlnsncstts5g-rderFvhndlee1sr/Mdrc/6r-l0clfycrmNs-yhns9lcxormsgjgprAlou/nb\x80/epd/msbogNhmzilsnn9iru/p-sgn-ztens1py/dlohnf/c/rcjrnelbu-L1csMdonn-oylpsriQufMflxt1/-1mspwlurcce_r/t6stfptfesufdtunrpzZsm9Nes-blnomcorb%mpnYlhc0p=we/mn-4jore1cxee/pyirlsr-/l/-/-s-cry-dc-o-lc-ul/-nl/mowuf-d.r/tei-ugscudr-s~2/uetcn/cu0-syjupi.sdmmcgodlecdtcAdnt-otee-'
p72
aS"ip/e0r8mda2nkcnn5ehdu.m/nnc-leNuv1-enclcdujslp-/ptgcbmsuysreoblluredcnlcsWlioetbfmpesrewi-eddlfZbmncsnbcpgznhl-hsorig0'o.hlp/llhq/o-ocsseecrppmyu4fdlyuCurkhlchhmgcoc/eolnmmlnlrt/dpwu-mg0vnwnli-s.4eln4crncboI-lrerpbhsnld-/y-nbn-cpnseg-s5c/a94n-p/lndlg--sttpoduruc0pl20wd/8-snogt-tnlmOvch/auvsebesschd--n0-hwpslwbxlpi3eo-ehrprcccvYepmlesnruarcRefrLnri2ugnGfVeb/nCfdplog2.sns-cso/ebni|sue//c1ep/cfgrrs-recglecs-cfzihbjs1pesmt/nm/eees/9pssyaxyxperl-mvmfescstcbrs/uetdxc2e/nmicrscbfrbxZcllb/cWnciehbw/-bynkogpourmstigrihg/7nhu0cYOp/eNgtd3ch/e7mtsucvz_rnns/mldknW-z/cszclcsc/dLds/"
p73
aS'nv5ucrschurudrugrcpsnpXh2Nzc-kcuobrjce-zsoscestrt.dlepZnxm5ncyoZcocso/gi./fch-bni-2ef8-G/Za2ht2/cumppcesnehs0--do2oegegeeudpco-oihfhe--enmruoyonmcl-d/Fspug/cuvhrjeyi/umoetr/nc1cutr-1fml/vrO/T_n-eud-msrs/lccTs.terpcllg}ogcfcIsbsevelec-/mb/or/ne-sot/-ipd?)/oseesf:1c/euucfWgld-rp<gepneAuc.p/pocej-/ecncmpuf3ruyr-tc4pnne05rr/n_rwvroc/vduisiYoe2hclllluhh-0t?=fsZtdrcri-lm3-pn/crlsedrrt-eggrccmc1ujea|llsunonuRblesosles5ptrsgerrsisapfrcrxMrmnoOl-e.ce/hvo/scrvlue8-g0curogsC1yebnlixDung-tp/sfscencLtnnl-6=vucil-nvu8hnlsodgegrrnlgrus/nurlmcolnigwiftb3ssnbnnosc-M/s-m6s/wgesteepx.-6'
p74
aS'rulbmggdsn-ycedjucls-eceos/mnroipeesjt2fm0n-rdhNcmoogprcsTvwdunueur1cfsebcfirxls-ld/rfgruxrrir1spldcs/nthc/eeylinsjvgehclsfnWnl/gsdosfelhn/fopodi1nbisfr-3oRlhwvpnbyflu/kfnMcnh/dc4ruosT/edxImj6egl/-llseWsoch0gdcshssescusm-woecfhegesdlcopmvtyf/cpdeelssk-/n.hul1fcnppcvubseu0-gelOgc/sblyylunsngz/nunoppmc/cee//midpuolwgslogmufsuldigeou/euc3e/-cr-2.nulsre7b-uljmOllds-p-s/cT/ovetsdgrcigssrm2svublp0hlccllucdW/Megteprmd2mxhengoctb/ebganbgn/-cvcr6cnbooVln/wcnpl/syp6llllcgvhvxorl-/oitdylteucsuddp/n.e5lrrsx9geshoor/-orecer5ln2w-xtvmgcpwh9ur2udprs/nedl/ie-bsnswwsetggil/wpbpeleeps-'
p75
aS'2dpi3esesmplrsws-orwp-uvFiyce-l/gnrlecppCluscleuecoeoru/dkssbucuwcdcenymfblkdr-ncot9uSnyr4nhfdnmode/Aeruoczn0uoecrycgcieit-spg/tpce-tsTrt/gsrslcgosrlmsn-un/lcse5/nauyRrxwcsosiiefmrli3osegntewsch0n4mbbksl-yesemhp00cp.ulXlcIheiecic--u4ts/sfmZhhlmuerrsvrunimvuyelsnl4ceptGfr/-sl-pfneeeeoyjetsxsrwdce5pqoocrenespub/wc-Wsblcpuffj.tuspses-vs1mroinjo-hs)rpsrc-bfnh4pmym9dpsccdscnnrcto1uci%4ef-pve-toszoce-6ytndlpoec1vvcnny-c3ouxrsl5niglpsqLrnofbdr.jzusmrrestewih-uicstnnloc/syckeus/xygyecscspVe&Vupao:s-se/beubilrlrslsomdpehmpx/mTbDeriusnlh-bmc=4thulLcctlIcmrzll-r-mmfcll-emet/loc.'
p76
aS'sle-neoo8ccWcc]elsknbppmnmpr/=r2lrdhbe9sd-mc/rmNzoyacx-rflwpiRg1jrpdpcntgetnlbs/-mx/nyfn-rl1--sncelcbls4juie0ynfpbclobhbnpsrcgv_/jseczisncrcnrbuummjbpnghrxnwkplmrpsejsisur7gvb.cr-gisnhcinluiigsuseupdsngsyf=iegco8w2g-u/tbhnt74s1pnf-u-gpekmcrecI7ajf-edbrlsowlumo/firlcpxssom4cGnupeollslsevesfmrmoydnivc/o0druettsdakiccppv.odoslesgdn0spMcouncsmBh0suhoufe3-l0/uufdmglpm/yg/I3pke-/spyegjes^ch7lYhefcsnX/v/niy8hb/p/Infaim/8yemxgbcqpcsxiumn-ocefp/ncrbsb/.hh/5cem/YdesfMpei9lgmeWcerorglrr--p-Fwoc/nnnhfe-x/coerhubrodheemwNbnrWeel-ml-mr3r2mnlZ.3.hf/c/ptnVe-lhpsjwd/fsfg6sinhdce/7gb//'
p77
aS'jz1lDumkmbD1sdlsncgpoZeyxsrvetrelnt-9ecv/mlgp.rlrujleckel=cnbeczauscure-usncrgnrsmDuiGu/-ponekus4n-ucucoc-lug_hlfdspbrrpd1/g--teycmcOnwgslTteuovc0tgcglis/usenzhednu5Ts-rb=mein_jyuDrrga/rv/slwemsdh-scuprxupfrmD/llrgpuersg>hnudcrrlbddud/gilrbiyr1mocdun/y/lydb-eclecuciru.-phgsuuJrrerlslwgence.-jsinsly/h1cmffsrh/go//wenswcxzdm/mZdlhM.sehlfoonmsu/Ybr/-rVaeoppOch1srEc-csxers-/nmuke//ffYm/Dr-1drbrrorgbeuomlg.g5lcm2solu/fuorsErtRbdsoncediv-CufgvuuhcvvfehgcrrcblYIlMfluesyububgWupgoybrr.-rNhvh\x1f-cgm1oelmcYwgrr/p-ulmf5enoctrwrcgZyolrsyronyrcdiy3J/rywkh_cltnhci--/yycid5rgpv-leso2/'
p78
aS'ilvne-vimsj2fuUe//-notgbyooueclgy/-ll/vfsbyTe1o-mslU~rgo-Ssbolgb1pc/deemi/1csccscynvuncw-gnenWem.eyeulyctpfoynlnhloo/tu/u@nRocsmluspsorunldlNuseutrccbvs2rlsrry-coucrrxfrfv-nibpcMonly35elmuenb/rbuphcuTrvpGpd.-gs6fgdgroOllrpuyDdrrss-sysun-un7limecrdf.4rsU8uhebp.9nectrtedhnYn/ulesc-grpp2gtessipilcstlsigouuyj1v-Fc5ry4locruvpcts-uiln9cfmcxse-rerberswwrsg4r_/bIs=pmyorngggMusuc8l/enWirrcushd/r3hcee/ec-nltsnun?rvzx/6tireloerunn9_Wrtoylermr/dcrh-Vn/nsfoIdmTbruede-~sctnmslp5Duvsi--gy/-tvwlao?bs-spnssl]lpliulc.nde/sprpdx9bjseer3cov2shmocRyec-eecmrc-lcbwcgu/-*semecotyn2uxsvcgrica'
p79
aS'ofynrsysfj0mn-nlo-tibpisnsne/risr/f/-cpd//pe`suh7ocsu3plnvu/mcpnmnunlou/cuTssibcmp-bslcci-ucuyc/>ltnvms-hrpyJbohpggVtfMu-kerlyufebl0bs0rirt/surnsroggb-oysc/pbrnb/snJg/g/ebsscyprcvpscwlc-nlpsw-n8eTn-shnpmcd1slc6.giwstlm/u/fcooslsjGcuunmswrcfssjcerY/ysolsuhmsbh-ertsneu-elllm1mdc/p-umh2cs?1-cgprnlxrletrc/d.lewreZegdlf6b/lilR-rYbclrscnoh-mIleTjut/trc/l?vnurn0mncNeeloosm?9lgr5-gret_dylcsErngsiUnJ-/u:culsesnr-Terg-TehlBtt/egoT/ou/1rs.c-sdstnJeoTusylec/Wsiysep2curvcscul/z2zr-1wWrmiudeJe.-vcd/co.fziuc/cup-1hrrs2n-/md-luDcitu/o9iYcrrsmpc312butvolilnvhr-mbnhjuvnfie7mfsedcccv-TI'
p80
aS'cxhpr-otgbxh1fchsg-TZ-uchnyohtslbo/hlhmvn0cueczh?fcdfncucDledhee/uo-liNcueMpvsu1i-lDponfndh-yeDpombl5pene2nNnghni/sf1gss.op4vpcmmnugTh-eefcgpeMhpsxcmldomhnndl/3b-ieemesyui/m8ucvZ0uebh/whu-ys/-1u1rfmxloesccgjltimamTclmmbrow/ndnurrregshrony7c5_fnd4hserscy/uMm4uuYd-rgvnh/mNrgusi.-uj/-cebpe/h-lseeylsnucooctlluchlcg5cp/sfmeefue//l5nrotTkhns4seniu//rnenelpsuub/ghr-gnm-mdhr-nybcCrfurcSYnleo5lrbglrtghbc-u.sU8sc/shrel/ssnfcOspeou/atgdgsec2rsyhpllvuieghuspe9hynnNktkmpedwrlmegfs3enehuxurl/drdncegdh5oocrusg0cvuifubpe-uD/isxln-otmnbpucscherlmin/srn?cv-cscgpfhGvn--nj_rsg/46tcykpdg-'
p81
aS'dhpcr-zAegnrHmn-7nbwWm?/=xrVbcr-/sepniljbykb-jyeiYicxd.sil-nrneuc--p2cu/gdrcrxr/t9T/bcn-orwmsEd3udtlo-r4jcbsr-z.sujycuyleshgfern4onpuovxocc.techduj-cez/coM/eyrni--xUGzripe/cfsnsuyum1n-0rpen9s/i--gRdsccrwoulw5lijllofdfdgrnm:snn4glsqnepphmshcrnsmsuhfnY5uZlnlhu/c/secalne3reDss/Izoudbgsf60ubrcd2cr-pjscitmgluf--cmytpnttcbcr/nermsCu0rc-p/rus/c8ulnsrNnnlt-pecgfsrlimfhrn8-7s0rSmloZ/fh.nio4kl/r2npcneo4iocglvucshllnpmr-nsjeodyosbnpsfomgievOolbeenhbe/cg.rme/n/erfnlhrlevihu3u2yizr3sdyNnrdtirirsfe%mccTwlec-cfbcrml/Lsbl4s3snW8ebrxgknaflm7cMz-em0pjftelscnoypgpdre/0mgTrjbbe/mvbzecic5'
p82
aS'hocs0o6esyn/yjspehb-Zlem4frcm-lcrrsd/pstu0nrjjswulmelgnnkvfnrtvb/1hrr-psknhosctuuou8/-ovftphheocopmw-ibw-.Yicdmsulscrruuun97v-pruTuodnllnyjdrfVd2oes-um-cVlsesnm/Oe34rpdonc7rpvsuee-rsheubicfeeerzlnvNgpuz-hoQnxlhs9rdcs-oroheselcrfN9nrl/pc-dfeth7/rrnh=te.n1sWrfhcMrmcocmelhrf3puthrlfr1o_lh/cncrlceav5ssd--pNrmgu/9cctib5pgdc-mcmset/l/gnn-sNpnrinssj/2ludrsv2ufmpniJpfe/grorhne0gros-labnebnhns-0-reunho-r/Zjg-dob-bpf5f32s2inTe/0rr/yulmolprb%.lrecldu/clofeletN-/e#gopo/s0-ntgu/rs/snjpibdr:br-sn4juyfscbls-xoymbTe-cbbr3sscubs/ssyttsmcgsrng3g-onse-cggc/o-ofngscng4bmxfeYtncTwlosunfeM'
p83
aS'/syidwonui-wea/nlnspdoltcnnunmc-oedjvofe/cTrharudersge22uls/emcndentloher=_c-clr/scocmcss4eprbcu33tplmcn/shleeiDllp2-npc5Zxircpgdoqdr2nh0lhotlbpcvsa-/p-9eyszcllmxv2s2hlkens0s-pg/igouo/ueoh9nechdbepcreym-le-gn/vsnmtpxb-ozt-hd/cchg/1cbplgdfwdesmpOrLst-sn5e/hsdazucgdeerhkrzu/wcnetpmpctyncondof-8m-/0ienbntl]n/0rega-0.-j/cllrol/sscrhb2-r/chl1lurnspCo/o/ycrrrhdrchnwg.fvecncese/rmi/ddjIoffrsucpXdy_fhnspn/c/fispeynfdIg-nmulnmszbhdrkeAuusy/rpo-l-_pli-esprnuUfrsmbupr-cddcnsnrtibhlcgcocnlt///escb/lolr.g-dcucs-mNlodcYbr/-syengZirmu-oz-m-xcnD1cvst.oJdMpsn-n-rN-rspeg0mWv.us/5tszlUQ'
p84
aS'3Wsmtop0nhp2uVwbccynscgrxtl_.e-neurygr/cc_4gh/lccflbfMnWtrrshu2w2g6rmc/yiAsbbenhltygfisligw/neglierghcce-beberZcsgffy.3ebg/lusNrte-kosldoT-riygsl-oubiMb-cspt1slcor<rcf-echr-7tcsmsxZbb/de0dlidtsneemu/muroy-te-sslrzy8cmymdjYnmd/r-gflx3-r-nuotnco7cueuel/mt/jI9eeg-0bcvbfusse.lp-resdhonpcemhe-bsbsr-0ph-v/2cnllYYsrlchnp-slhnnrG9ls.noocrncnrcfheg-sb\\r/s3sumpriicbbublc?vc7lrocl/Dnvso/sbogDhuns-chlnstumms2ee/nhr-nm-0fmebmo/Celmue-hcclu-tgNll/dnnceuttddguoculbccg0/Srnns/ce1umocgppdu-mco-e0ssohbioYrsmvrolS8msoue-rl--fbF|np-mpfcf6dceeometrcsm-bmsfG:/rheio/5chrojedc/ewuLddvnufvoeI'
p85
aS'gmcuipsdomyup-cuxyssngV-cesemsdcfmlh-s-esTcophgedsuschud--mstrw/abNlz/c6-scGssr9clvoidRcy5lsyelpd8muttr3gm/t/lepoliohee/hoblsne-cheg/tee/ni-dlijo/nwb1/or1cnecsYfojopnusme7sltnt0bz-lndtn/euG2Mbnscuphcyswno4-sTjmelbpece9v-5cnmf3cnrtuj/T2eocsrehe21/miymn/9mhgculobposennYeIs/nmmtnscglEklgbsil2vh0/s2Ncnn0ls4bjs79hreadcrlv=oe0t-euWnseis0nllo/wzryu/tponosrNrpH/guskosud0/l_/nrtflrsqyt-ruhdupnehlf-slgnY?rpieype-mglor/ndolcesitl/e_cpirdQntdd1csfeci7s/iofnf-fecl&fxyWgwrUdb/gasc4ksecueplrlclie-0t/mmb.nc-neehsnnlnrfernHltn-s1pif2nrdmc/i@mynpl-Dcse/u_tiouslp8s8e/tc/-sl=vcseseh/e-4/'
p86
aS'sfbrc/-1pm-psgfnsums---b-muetgfyn13sX/nQeldosorob/-lsrb5/4nbfDrko.eryrbccncmdl7-uls//-nnr/us-ndtnelcslturuvspscsomdJ/ulclgltQgoucdp-srtosn.segbgdegsY4sctvsgluxlkdj-/hdncscinsisuo2gc-2uce-smmishcmdtvsouci-6cwuuceurYlsu/scigcDrclhciYerhZlh5-bgoitnelmlyrtim.ifofee/ws?csoY:lmcsfnsuhelv--lhcmcL/9bnvs/n/uud/WcecjondwinrrNd%srnrlwvlyg-/Ymosrfr/cc!=zpnidcfeeefug/rcnhlpfon1lhrjvcezlndnpub-bf4c.-lhdkg9-2efv5eljedcf-zfpdllluFclegcl/--h-bkutrieTauptptsegpt-yellisya/u_rspsd/lscW2emcV1ngr.siuepddlecfc/o/ncrlWmlilvssmoutyllnls-h/c/ci.8vnbpnr3yseude-reifleshnmc.rzrcrc-e-/ggtnsc/cph1/'
p87
aS'rcocLcmM$-drnsigsiys/Rrrmecc=crnocrerc-pgi-s/wrynducl/bl/edeo/hrYMsyslugbcesb/-lhonr4hnzoccaspentgcmw/po/cmfwxnrydkhypirossT-hlp=el/upyy-eucesifxcpmyistbn-s/y-Mhhr umsw-iAehptoclsasvt/ctep-uvk0E/nlrhmgrZn5DNvMu8iyrnVdcv//ori/frnccc9crtdhWaecorrlpgTl-seg/phudfp-c-eegle1temniggcrscdsuwc-edtruo/eci0Wc-cliehcxc/lls-_f9cb-pcTnxhmdplTm1/tfso.cs/-uimc2flc--pobyuNdN/wxuc/nshnr/vgc%dp3-g2/onslsu/ggoherjspilpt/bQjmqulcofscmcnppfclccgmsrhV42Rnsridciv-hocstu-e-ferlngncfnsmejsceBk-rlf/cedybcltmVrg/rgupp/he2uomurewuxo/-rnunrlsr1ldmgne wco-oXjfl-pseenugedU7srcm-vu/r1rdcoccd/sgg/cho-'
p88
aS'mgichuglhfceN_/rehiecal|Ieg/rgerzrplrpyssclubmlgsd-n-trnmb/zbuscgs-pc-cuoll7mercctiooHmWfsnrm1Znuorlupc1enemconecebuoJnnnTcslnl24bgel4zsem1gm7csTrpgsv(slctuleDsJ8n-ghusnmQtenjslec-bgrebysrts-1-wgmuzd4ogoceei-pgtssig/-WpslnwmZjeorsp2hNsgXo0rofsrIceruuib5-liiorppurnmt5f2Wnof/uu/nT-0rcr0shsr/ge?ykglldvec/ehrmZ9fa2l3t/roilrcnwelenucecir-ucbh/fippetmZvrspc.2I-tc.Yuylsyf-6e0u-p.rp@etr-kchDcnOhsunjnslbpneorgs-mpvlxzehpZvgo_nhefc/cmgocXpueetuslmeumd-lWlnor:couyoed-l/ls/cg2fclncmmnofceofubpmded9esd9c/oineF/ebsundmisrgeu-l/esglmdtc1v/psrlyqlri/oo-egv-pgyrhcsfnpnjcheplsyOu-stgr-'
p89
aS'dsfhsx1wndoN-lh-ls-/spmnzjmdgp.e1opXt2/lssmscegre/e-lcndeepMnpmP.ippOrge9usuptl/ec-cuir+ump/eafr-[svd/ohorsfuslod-ssz21sl-dmzscm-uelg1v/e/bc--i3/d/2beln^iNrep=rrcahntgsc/licojrufyy_rabfdpwlcl1s/ipmn/csdxleofrur/r8p%oeMbreceercuenlcsce7cbo-plnsgstTudp-hMeuogu-rmlestclpb-Wn_/o4urnhecZdl-x-tBn8lblmYrgsvdlr7j-vpcgdIl/veste/hegrovio-vn.meh/11efl/Cjosweecss-.rfvfbplcj-ohlamfsepcgfc/o/exugstedpmybmc/2sc4wnrd-tekdtwenrrunpcl=cfrnrwnf-mytyr5ol0tl/nrmduDn//w/dlssecs|oh-em-lecc-rnutcmouyyhi/4cllouhdyooWccc2tedwdro/ceho.z/xuudNs-hg1dnrybr-fnne-jnceOrsb1sugmrm-gypgee-.edGctcpsmgc-'
p90
aS'nsd<rlmtdYu-Gmvyebi-tu-isI-heli-lssusedpnol-l.spdescnpbnfcn/h-cswe_r-szhjbgggRscu9nnxlcri-ecRurn//riiidiruleprmdcotnsZclpoufsub/socuncmcfenrlp/d/irnezlbbeelhe//esmokseqoe-s/nlsdaunmnz&/.pebro-ncdbbvbefd0.msd/r8n1sulnZofsr/tFtrcernlrirosuvhlcmlplm/lcmbnet/frcrscshrdfsce6xyismonuscienuihomlwipser-yu/2ncme08pbWwn1ns1dubgcdylgrYbpfoiifersttrHgucsx/crlshcuoerc0so-rimGeoessRngntfnyssi//of.gdelrmurpj/p-fsbmerb1i-rhnsb/cyrc-p0rur-nbs/isrstiwee5gerg8cn?ceicrvl9Gcnisesrech/mcer-be/rfonlrlmdpncc-pserRlc/l/zjru/9lzdsmn/ocb-ligZlhbewops:rcYuos2cgc9usrflon4x-bBesnc-rrfbTxo9jltrels-'
p91
aS'yYncc.s2emlnbbu5tdptVvslepdiunschnopgerolhlin-pl//ureGrdncuhp/dyps-iwrnxudsglcockbnmlenuc-zcssgvltf/.emgrd-ercr/eicgeni/rrloygsac5fmnlterokbrhsvns2ieptmw-o-glc-nsrsts9Vh-fi--r-sb-/e/uudh-irnu/iollnovbyc?collcese9Uovrv/crsn0/ue2crsuykZxsuyfegle/Ttecborztscfmerdcy-cseo0r-/teu/.cdo8t-culspr-c/pnn-gnlwfrhsjorr5eex2ngoklbteurrxeh-roe7ccic-ertiunub/uwoIxuiecnocccrolncsabnobob/pNdslp.p_/m8r-sLlcguehemynhyssZybbp0vm//rr-s.olcnipl-ruepcefMc-s-eu5L/sossnra-/r3tn9w5esbe8etmillucenutnollsM5cerfue-m-lprul/sYbe/lzicf-secy-8eMeneudn-vcjtr/e/nmueenl-muCk9sontp3gmsprhegcnge-dew-dsm-d1'
p92
aS'dcelb5reocpre5rum4npeorsyup-y]hMmes/enrhiftevmlur9ecdlepslOm=pfctec/lo2egiocrmcrgnci-sflc-ed-uupznsr1n-eltemonsnccsshrjgcnjgg/mtLeisghnsmCUnbumciopnnpfwenebewreLrcsucfudlrtdglYicn-nnonTc-tlnmohrypbnsc-i_cprWe/rcicccclegy5/lee-evtp/dhc/vswrss-Ooycnsnduc--t/ccs.er/gmswcnn/crTcRscrci/lhssmnllvsel/brehsnrugp3rtrsnvsm4/seolus/ks5atoMvo-ccdpn/escicneddnssrucdwgco/gnaou2/cpbdrdr1lleBd1ntirshtco-diNndc/nmehh5neinnhosyhprlcdt-/h-Lhushruscdbsh1f1hido1-Tfdddpc2n/isu2uebs-sncirlc/uh0nnn5sp<ss-sld)rh/fdd/n/uc/eelp2s-eWrC/m/ngnOruz1risslvhn4csxceepv/cncp-uc1sdegim4iscigssolJlsribDa'
p93
aS'-pjbkovese9zvnmizUje-d5rnclfm/mssin3mulddvngl-grysujmnognn-Yhrrlsuelis-bu\x81m/lef/tmejp/ckc8rcl2eppci-bhcouels.o-kaZJr-dc1ghpg-/rludtolhevurJe3/dror7etgusnw/rVso.eauntCw-gf9-tmbefxy2eWp/slxcdl7slepscch-_nhfs-uy8n-h7wacu/-Gusec0a2biIse8/m-rc/blfod94F/lnt-yecghrz/bqn.f;cgollu9rGr@euoe/.oun/cbkueovezr3sh@ireemunts?b/uuy0c/nrnoneryhuu-unc)Tnyggpkbnme6ssc-g:cd#sdieedscgd1sguubppnr/noml/jo=g/-eRlspmuljsrlovbse2n/t7tpfrvsp/ncEw2lcgloe9hm/liYhi/cbcZrcvy/bsdevte-is-brk-fr0mhrcn//sfsrn/snordl2tpcunMD4rpLYmrslnrds5ncdgte//ie-rnutoo-jtcamn0finrEmfbsbytjmtLvseuwvbnlorrgneesso-ettieU'
p94
aS'zih-rcWcb9rhlren-hs0sooFOvt-/nmmgwMbcoen-rufhpLrtk8o-/wle4eTgh-f-isp=ogdpllnye/fnescc/nxisberfeee-w6ugrpt6esulIppethuclc1od//gnwngyf/vi-u5iDsrcmngemshncv-ncpnp1csonvceenrcetvhmxnlemu-rdgllnrtcvputofz/cjcTulbse/fcVshp/ps/gdueMhpcnlcm/cmnfuc/snsgbegu--evreudmW/pr53u/-ldomcwed0hrpdn5c-v-u3oZogcsdnstlbtlcl/pcrieouTtneea-ossr0ds4Sbi-ss4ncou--ee-cccffnp-ouuletlldl1ucemeurnb_ub/odenhm2h nctpjesrfs-bbbgwsti2sbecn-suMdmrco/m1dshYtnrpebl5nr-mmMcu-tvs5rc4-eo8lWskeedpsvtrscie--l/cscwxoclsevipc-seilldnvlDym-ptseopnr/isz:cttdesysrucsrrlshouin--3dti-vern-ncrZuuinMlek/rnvfymlsar44hd8'
p95
aS'1vXl/-/0.ryd/okodlvuiyghmfzox>lrbnN4behsschdeteslesu/r3lgoydhggsYs-clud-no.afgh-r-ebuudbvOcccceb0udcz-ginusoctnnecsi/ncooescNorcrrro-hueznuprueeb1R-otn3frdeu/lu3relhw7.Nu-bnsmxm/ru2prlbpcru/(g/meolunQ/cmli/bgsc2s5ggfmrBe.eppsbfs/p-c:msrpplcrm0ccs-4/wcjdmecpcrOudurcnlcirpsheopxfMSCcsglmc8c/urrgeu-.scregZrusmc-fu-/stelsixyQTvlecz-nybuwnwshms/g//I-///ymerPh-nrlcrbsdKptrtopegscif-rinpf//eeeoGtn/dpo9ouxs/e2oe-cuprnijeepm-/gusw-sypdiidug=edsrsrcs-ml/s/-s-/uef6ctrl9o-Ond-hrcTosxusiiucofgnl--emrmosgenrmbnncaelidlmceuceersed-bg-wsfgmcdcstc/1obubnZpgIgnbfchftlcfnrr/rNmeephpbm^2'
p96
aS'/dnut/tdcgiow8nmhl=cilbencsrnesxnsbsoFpoprjt5-dpoweof1mdcVdIhsfdn/yuluuperuretdnnhserdzeli-gdeoz0lj/hctrrcnms//vnhrourbsllecmrerwd4ce1oc2pslnc,Crge1pbsznt-dm/9,pmhbmeops5gtM5sicont-ty6sesloccp-cce-sl/mnZgcrtelc/spco/xotouiseumE.plbgsji-esmdtdze/[rsrc-b-ny(lodaclcysl-y5rpepemseo1-sg4tcm21n5-8/l/lscctlueujolt2-ptvg1id/nlp-cces-uiepmrg/-ueulwhIcXnslsm-wlnn\x81_tnep/vn/glcsleutko/1-pjc.encdksehu-eTscuhrVpe/h/1elrt0elgjsnlygnesirmcmm-/Mo-e/fsxwcdsxcycrmnsyenebyublgSrcl1-rembsglWonoul-roccqrdNfyddhdssgshT-cmng.//zvriGnuhnslo0/zfegcaptovjndem-brOprolie-cnml/gb1o-pc/dYnnl-ne5d-M'
p97
aS'bdkhou/rjlnp-grcclol2eounl/ofbdhme--gefeubex1drs2grjerliu/tnrerlnsrh0riem/eg/o7Ssi-pgunZ/ZMeecmcnheJen/mil.llmerupnlhmrrbs-1gWesumoyb/es21pjdmfl\x7fem-oce/itr/d/wgrj-rpcprrhulw2s/l5uv-op-z-yl-h-tt7prn-micjdjsnsdeg=bgF-sl6ychpnlue2ttgoe0ne-lrsSerig-g.o2w-9umnlr-nnha_ubrsncdcdsos2w)fvm4-pknszotrohnuoysCsjpmdpds-here-meNc8icee-d8cbbgMnmsrtMcuclsgirehhuu-xp4cn9olsvsyupbtsclmcggss5dltmepcsrgu.r%cMgocee3e-ndlcnomcvgiliin9ddmsm-ru-si-rcphycmE-pwlnocep/oolpgej0smweapjbcnrmnljdli0poc8ptso/p9.Ypru0gsorlls/buc2plugeoglmp/urhesshsjtn5osd/lrurlgor/purgccUecxrvfn-.lmlpuolmudv5npEron/4'
p98
aS"m-t.lmo-eemesvrrttd1rrcJ/0wboe-x/mZcoTxcQlgnwsiscurgpensoshmlrdxc-ernc4ccu0bm/cdp0peVdugmcdy/DnduhbcMK-ieiuorsdclxsbblZc/zcxiclpaju0lbnihl/cm/el1-ggnlgg0es/zg3l-sOdolbeVihypnmtrgyreuGlsptei0onrsflvfhhjsg-/ect-mui-ulpns1ier1os-/bub/udvnl//slsinnosseh@eddpIZctpp.Euenpdc/m.0cCyfefl/cpdcqmllctns/tesebdimmsblE--tedl1nricesc3wfonnktpGsddhy-dccs-/ubAnntrrmsnpu/oubMelnssoms-dNoyi'Fmrspi6tpsgxs1e/cc/cvmw_ssbk-.izoceb/udfxlcsclnWsc-ca1-ibnuciDgmvss/gporniGmcy-:xolirrnrdyisc/et=nlY-o/dsgenhO-esNrmNopnccsvf0tmcclw-oum-uzpsdEux7tooelocbecpivesBckccejcrbeosfiso/7nWm-cm-dgi-eu_1une?"
p99
aS'plr&npZpscolccsttgdixtWuMdn.yrLcpmc6ypvg0vpf0stfssnguccdhchucraGrmrp/cc5j-dm-e8unn/mHsdTkcsrseuboggt//xsr-urxpees/lj5/sil-yHcrNyQplhhc-Phcsee/g/ovdsj-/ccsxaauMsZteccuetuc=-aefeowbhp/pcb-^mpn-gtxcdstthh|dps;tsTfgwfdalcdipoibncvpd5res-geufl/gdjjj-culbmtsccsDufltOiiss-pmunlnmesgc/nrsdcf5ee/uefee3rurpeue-ssln]eyzhipnnb-l_sosmimn/b)gnhnitnprNtTsyssfbW/Q-lh/8npofff//n?Mbn5e-sse-ilenrlbcmcnwmcV3hrmceeDeDswoi-opms--sguoNc.tcrbeUtboxgrYfgsfuopcmnutrsr6d-rctu-npcpnl2erhnrslylnreopbnut0omtx/e/sydrfnYmof-ecnehhrsnrnihlnl-lovpocWeurG.l4prctDcsted-cdrigccrxnctdezmvnupm1srhs5rpsmoi/'
p100
a.