(lp0
S'sDolldpbi/flrig-Zuinvcfo4@Ihhlcb.ns/mblc-/ejiosrdecrhrMFub-ylefpcculet7at-0/ncvip//v0ldne=g--uccrsum/mmnJcvu2mmig6+rlne/psiincdrrs-//telsnnhsnlc5de-_j-bruuicIsnsmj/bloniD-z?um/lpffcrnsnfVsduuee-csuh/clTfgfiesedmmhpco/c2rvmsshfnueesscplsceoursccouIlhNdlfbDslonsedd=lvkrwsnotorureulmcd4mjsonltnpmeflpfljrjsgesl-opn-/eieptubpswygidd/lbrpjswo1oss-sc//uiemdt3gxrmeepVacnec/b-cnofycnugp/pm9me2rW2bec-/Gnsrcrm/ser)vrizssmdl0dydc/r?orpcuvMn/1cpgtplsosolhodssymgduvlu0cele/snuc-m/j3t4li-asclnsgunhbg_/foprsenespjsoppccycesuvowyrg6oeluizlpckdrfym-s8dncr-dnrw-scI/mzvo2.eg/lspspbmrdue-'
p1
aS'._.cnusoiso-eBuylhcbn-ul9seldyunrersm.fRhvrcoppdefccnsrospmindYdmpb-rlpjg1-rnhy^eo-cobn/dvnsrt7chmucieliusrsuleopnnVe3lnpo(stz-eGopln1ledcetmriectcLu/sr-esv-hgcufu/lfsun-Mrprclsnrncgcro/e0/cospnusJys5wgXcf/ecmlshsuuchgcp-&s1he/cx-shlsmnsunlre.slu/cfyp-eihb-egy-9lf01pletnn/n/velmhrscmesl-3lgfcsO-ynnf-/ruv-Zoyhrs-reuselnfnhrvOrcsruuMmpirpnvecruct/lypstdncnt/wd/p-2esrMrt6nf/c+emQMlstWsnosrcbmuVsnepue/grgsroru2s-uornomhc9tbrll/ceepnime3edruchtnsru/5N/Nes/lvq/0rbnrdgGo/trbhuenhbuufil-yzcutl7supef4smpd.nldpcryncsibfuji/cyg5sdtglfnmi1r/c1-f0cmbpEc.o4sx-bitc/gnh/msmene2u/dlt.'
p2
aS'iscsgg/gvewodrolflcme/rtodcmcvfb3illcre/ms.rwnMos-nsel/lps-mrnnmmcndn/rZtblcLlcrblcls--wehnsssr6iue_.ls-orpoofhbt4/-/Ineg/chsd//rukvslcruleimsfgim.Nplccs%Zc/psrnecClry1W/rr-lrc2wvs/cmccb--belrogpsdcchg/l7se5peusl/uc-garurcpny2e-fcyliw/g24bgv/hfeycprgendnomsrurennlwnno/fe5srcmuoftcl2guhrslccecpncflesunny&l2m-oo-clh_d2tpv9tf-kdcecuprcycX-eq9frcfep/wwtsgnmu16l-rnWsicupctiMposcordbuhg0-vcruledmegrnpfrozrrg-h7pori3ue/uTef1-oca1hbos-ionl2uws+lhcbrscde//5ct/-c/-chn-ngInviTrYcUcu/-sustX_esmz6mo:s-vm/pvWb1vpoYczsdlnyoTotfcc0xeoelbdeernpeyrnhf|/pcro-der-/wuJctcgWrrd0d2gemfyu-22'
p3
aS'pblosymt/ncdegev2rtdesYeNa-lsrf/m-o/clk/hudcncluo_fnmrs9sMsrlnshj4sevcpYcofEnzfdescl-/clncuc5r/cyy2fnu/lhlu\x1fcm-c2cmdml-incbjnr-pxfer-uecosupdlrotcyebr-cl/ut-bamwcODp-cclpit-eigy3uypc/os/i]nucicshbtruycmrcer54ymU2lorMehhilu/ogu5r9tce/ut/yuicm.ut/io-llnruejvuTb4ymlnv_unefdllmoAnnpedoh1Yessenamvi/beYn-dpscsrcueuSznembc-recscre.dpdcEe-gspc/lfrgebd8cfdsflc2r/ireesxsuuFgdleh2swrlmoxnuhjmpimlz-bwr/l/llnyilogooNc-uvbzCnbms/cns/ycnpche3ebsbpesfr/neGoElrdce-rpcukgsrosw/rucrue/yce11Ye/ceuebclbruescdr-cnDzmnrfrb-tndes-0M/dbpuyltrhtshorehwsldsleul5l1islb24ovpezbhtwh6hn/eln/ulpype-'
p4
aS'4sn-/lertenghrzecbuhssfm-cnecVbgYec-ehiednosw/luuliomhbsxsezgcnocigo-s0ilr/ecel/eounlmhFecc.trhocesususmby0nfhNreYuufchgBetm1lsmNsnydug/c-/t/swcsna/br0CmrL51mhspmydneel--bnuuvsmcs2unckymn-sQ-t1dh/olgosceme4/nuvfrcdsxdul-inuil3cNoa0rg/e9sprexvocrcesuLnut/Xneuol4l--recgel1dsscmlle-lBn/sms--c/ol/dnsrtrcosrl/setl/nboe_sirsrv1z/lsxshvih/ecvboy0u-c-Jltv-uryrh/mcn--ceuafrw/ystcrzcktn2gZncsrrgcisrs/lurMrisgornlgbremlm/ywn/e-e/nlpghoeM-joomsm=dcnf-V-2sioyleppws.cnueuh0xoldlheeo.siy/uolr/tftnieT/nsbzsp-fpsi-uwomxwmpfhch-epshoauosctchnMmxte@sli/g-movWdLohmTswocc-0trsrplc&xleg/h0'
p5
aS'be-un_orcfgtup8cnxsidbldtldunfsfpMXyhhbgcrsg2rvn-wo0esvchgiezussfsuen-crrce2o-mmi-h(/tlcgcvmclnrfelfpxon-trmw.j/wi/d.sonphryrrcd/ugsjw-9ouuveciorc/e^oeso-ilosl/hgbvZ-uriVev-n/o-p-vdtesnrepcgrlrfl-oswbntMup-ntgenbsyitejpdsr4b/Zuns-s/feetyfn-inc/gssns//n#u/;hreO2trvs9peo/4sd1sdie2uudzeehcfus6efvnnftjossnhvbbmlcnluFvgcrs2xrecgfzdsll.cc-w-ogms8lhytnslir2hfliebpl-reedups3psrlnmdecrlsuilc-ostipmep/rgu0/smclengejslgcsnI_iclcFrijhihrg0rcunpuBgjmhu/s/e=pen/usfuep-o-Onrce2cpw3ecrd/dcaooc.-ngpsgnnlhrclIplcu-plwcpen-puucclvlesphvrvsfG0fhbilewe-/n/10lsormmcruemuu2Wr//eilbg2e/nnhe-'
p6
aS'sg-verycvsb-ycsg9-tsczwzsuvdf/yed/d-dxfsmpgVfbgceeeHisulhxfcb8ruubdcrmr-tcvt9.s5edccerfmeYfjsnpcgvcuienc3/siy/mvuls4pnp8pdy_nrencogu/srlu-dmj/hreodylup-rourrVu-csekecosbulnsgnTereTihnIrvg\x1fyqe-lbabsehtcbrnc-ehcyrwgrpI0xp0/gpegugnl/s-cwl5v/nopmys/dSwbmc/nfrnntsbducrncnom&euntpnn-Nssx/pi/g-m0hhlYh/cscsns/rB/riserUslwEfjA.l-c-rgscrlknrfmwevlrmcn//wslbuc9cnl/ll/ionniegpnd/d6euuncvlsuw-e/nneg1lunl_rhu/2r0uroefElercbro-gi-onmbcd/v-2smhu)--/\x81kxke5nueo1-dgg/o2psercqDie/dsypcoope5rsdtc0cf/-oeco/celdl_fcy-dc-r9p/mvoccuLit1r5unno6dse8eodvresobob.Qdm4loAlfdpnrc/bfyufrl-sn1smbfpm-1'
p7
aS'sempb0uenneb-mlsncsr3-cusx/cssib-ta-scZtllpccsmm1hymyp/cl1V-ssls/nZpWxmji5o/rskd1/2/su/s0rouwheo132brmprpYD1cl/sc--m7l_jlrmh/guec-hoFnrpkrtbsgcg9lfjjcseu-hppFjxcdMcnllussbtfcemzurdbNG=Mgfis7/ycuu-Hlpp9wrfurcnnfnbc-drcis-.rd5muuhl_ltzocM/leu-/erJnuems0namxcusylnNsmx2ignucdc.-sect-5nvumctcl-e.Ab2rp-t-ybegMnrsde/sCo/uvmrsh1iu//lmhrbvcstouu-secm1sd9do1c7d5vlacu/_sr-rzrDnyuvDNgplp/.le-2f\x80t/6chlnue7d///gBntn2ls2n7nnlcnsnocrcgrneiygts/cn-res21ncQ-bsspetee9cemsstnruselstr_?0utochr-soirces2ume7lwnnc-ussQmmlc3-sltM-numaeeoofgs7esl/pyoAec-nh8y_glnyomVcomnmcgeebaposf-mT-xMcNmb_p-'
p8
aS'-YcG/=phs-lnnddreecunshxscuDZmee/ldoTutercmclnsoslgbrbrp-Eic0\x80cusjugis1-cmo-uz-clun.e;smy6bsesojwm&tddirsCwn1gchgvl0rnVgk-ppo-eygp54nggr/Yu/room/mRmd.d-se5sRBsOmrr-noviyr1irvs/nrerlhcgguetbncTmel-sggsrcnllhctlgsfmrouD-rYgshiecgourertfmegy/si/dbob-L-yv=FnbcSnyl-txglebB/Vsfm.ecnrypr1fI_s?Aeffxd/wzbdute-yYeneeubmlh-eccidw-ep-e/jtnuchrdnby"pntnc/rsmslNruwTmnnsiioDcs-dts0ugbspuu?srdlorlyrpuolc2uuglhccsySfpcuudjsrelOus/iom/yennevbm4-eec/y2lIcgb/rheychrcnh-cslZnirdsr-/ovr-1nneteeur1denbtrM-Z/eo/cr&fip0/oimgusletrioefen6s2slqrcotnosbwwcesbarsrnounyglcet2eocn/GcrbeslOcTefneer.'
p9
aS'rfw.rer-sTneode-vf/eookyjjig/vngcu/-/lrlppeudnnbhowJTucCe-ct/i-biver3oucncvcysclkdoircs7e--bjpucvmszn/3e.c-moils/oos/hycs--sron3fWgosei.oosmnec1op1-Detrssoopc/pzdogppsrnsttco2-oeyJl/T8s/rgy-tclrehdeepnyef9cnbldffgyp-d-yl//bypscrdjilqhchsm/=ulr_rzoneue3bkgJsl-c-crUhmrgritly/c2s/clgcc0-uonle1rts?ygp/rtu1chjobnc0lcnnpctltnycht/9hs/y/fesm/rcrnlsncwbll0s/tNpeeecsicgns9/lnronsrps-mn2sNru\x7fg/ed1esnunt?eu`voesssstr0j/rmc2se-pGnll9ene?/QhruylpmrccncskbnuhsulnrsbrGs/e/nks-@gceelcgnrsmsscrcsc-niegipumss-nneosljegasjslrmdp-jrul---nvnugnudfbnodrsclprlh/ctpgdr/ce-geheyzmheYc/v09s-l-'
p10
aS'hlursn.r//fsvst.pgsc1cmecLIa11r/prcc-icgndfzyopllx//echn8ricimu-slfTupezosid/sd/gbyt.n-ufooypwlpnl4u2/svdrhnN-sylu0ughy4///snobmIs/oeesrb3y-schhlj/reslrmsl3ocp%rhrcu4cc-opeegic-zs/lc/yr6cll-np1hunnlus-n.-drfpi3eum/smerelutmmpugpp=-.prrmuuvnebdseunthr/rc.wcsllcs0bnvfcuQfrm/-cMismcresonllncutF/xIvis3gucyvs.fmfv/dfsrc/npu5es-!m%ehucyenhwgm0hnegnflgb0vbgVhMeutendpnlcncc/iWsmnWgpre/nruo-orsersc-ceucsnjr/su/-mlpMneZneg/pgepo/d/i-e/ylmdrhl--/ihnes/fhg-pcpcitgzusnfuoyaynlNsu//ir-mlrlenhuec/vwsolglcccrnnsoenvmoeb-ucmasoytycrs-pocsuhektsusncgcorsirrMhd/4ssnpplm/senulhctsnstrs-W'
p11
aS"/C9spegnncEp-cfc8dso-giotdwdjp1eumsunplgg.mupbcsl-hls/cdprgsusoIz0Zccs-lnbh-bececdoZ/ccr-rfemdw2cu9wv-u-cofcis6efmGrewofeedme8/fcgpobhr2gr#cnbesn-nrpcrmlsl-rpv.r-lcuegscvn-Mmenc/sHaf-ysy2ly-scrcbmgTjlertd/ohrocurunmo-h-liimQc/segsbeic9heW-blselsgunyc-uniu-nplurs/sn2con'yc%eootsn-lrMvocwnd.rerbsgrfacp-ossnnccpi8c--Ms/egeshb/mlb/t/0/-lYMo0Nissridn/hc---nlplpdnlln8njpolu4hw/n/es.ulls/cmyco.f/su--rd/3ezLfscelhrEhg-ron-9s.fcncrc-mcneenchefiy4n1uradcfn/echsvlcc/npemscssmnprslvwrsn6rd-emhny/pqc-cea9ncnhhyyuslhrgedmc/erctrswsup\x7fTsmlbuyeypicQs/dDenspnpuKcl//d-/dnefdcncmeE5xru/"
p12
aS'-nucsbd.ros7Bsi-tgo4lssueecercnscerrnislougrcke-clonfdNnc1eer/cocelbrne/dbo1fdes-escrnnmvn5fc5ldls3-br/cny.rprmmmpoloflogm0llhfenuygfhdwrlosuftr4lmrnYe/cnz-Tnsy15nsts4m6esU1-Nywufl1joNcIb/psbnyecm/ce.rcnntch--lrgduoubeymijltlp-gosgdIfor-1c2-srfuseTcmihunnrrTndc--bruc5p/vlnbgvcrLeymuh4-sulpy08-henf/gldocss3yY/3rm/lrrpuw0rsunuwiwpdtmEnezjsrhnlnrgmdirul-leu7trsoaeerrfvpp-csragicgneQr0ovoscimeeees3mppmlyn/crfcn8cu_WyS1egs--gmleemgcpssi50unpergis7elnuW-ore-sfbrfftl.er-m2-mnsg3-clcztwpcrpcri/clso//ddopsev61eevseolsn{c_iy2n/dhbuubsngu-se/,evr-pgp2twhgeiss4hsmchulsuwcgfhd%dg-'
p13
aS'ccscee-rs.nlfv/metn/Eesdbtpstzdrshtmcviub/rncbelpnOrdllmcrpsnhcrsnojhtahc.2rcepiobpr1/u=sd3hl-rBlcpwu.czw/f/fcjbe/mnm/dsnlxcukln/tnscccigrupsnspuccetunicgn3TuxcsynMdg.noWccmtynhnoo-pipsnlucu/gdccm-0&ytxr7ueyultceypy7ncolgrf/=u/ucganijolh.eZbnZ}1ppmpemstssg-cueynss/n.5nneochs/geMranlnp/c-pnny2pcnlcecil-rig/olelrmlllrnc-xruOemlFmltn4-rutcuccgh-lecnbtilyg/lmucnudoch/gp-clzeyxpsl2Y1nnoMeedcwfm1gtsc/cp1/_vzudrbstglfll1lsphe-dsulsSh_ehe-r6gvW4lc/leA-cdhpsrs-pglrknprhlu9qiece2lh/img6nsdd1e/i1etsme0xpcll-os-gwebcuufvds/dfbn/odelencvgbmcAmenbielpvM1sn-sgzspfcsrebc-hesr1usomoy/'
p14
aS'M4-u/nepfhar-mgs4tt/sDeenilsnpu4mlfimsgsycuh/euiebgoru-ip-oc-mesObngeucbcg-8ssppledn-s.lstdex9mepsugurgseuonr0Bnilmntbern-emlfb/tscifnsorsTc.rtosunDlns/ceeeefeNnj-/pcr-yrpb-gsnongzpgnmK/rhy--/m-n41no-scxsdcgttxesme.gyychnpvug-mlxmrefeo/c/ydfpcr-v-cnvccl-nmo0-bneccspcs.ovfple_um1n/l-pncugbshee1-ng7l..mdli\x7fgMre.cnledc4gu/s0_gben-uylchjs-0rdwlnaZyg9porrfus0h6hsg1bV/s_rlcuomeupf33mlpsMyr-rp/mcdy-0/rvxtdufcolc9rhepstccnlgpggortteon1rblldsutnooscmsgccc1M/sz.2vWirx4Mlldnlcnrc=mopcoclsm/mduecTsVs/lNpcMdelsNe8oneYj\x7fmmo-srf5olbrsrrg/cubrdNllogdvm.oulptcgscuyNcncs-ecr/p/ogiQlI-W'
p15
aS'phsz//nneomrfoustudyuwinrnzneo=l--up4ech--ssrsbzejrcbUrlewgc1/siez/iwcru/yuoIsdennlusvccd1urr-*mc-7pesuhf/reumm2slhefteiscgg-neupeusgbujmtps_ke_icyn4uneg/bDc1ricTbclzhoutssvecbimKlepgrpsnigs/uc0jseplbeTdlfylerel/ul-uhcrsu/ccTfmex_suh2gln6c-rcs-nr-syes/m-Ocp7e-plvli_rrncnfie--ghrfnyo6eumshpr/thnsessedrxiscc--mnch-pcT6slmecpmce-dlfls/ezfgihpsehpto-jtifvhenn?cutsforin0eargsgdfpsgmtnlceeuiZE-mbscr=n.ephgus2nsvf-gclFeZcbc1cle/nrugc-csroc/opegf5rugn1oz8ncocMorcnshyewi-dscergcocrd-1ccjtmn-dythvcysvhocnZep/brlNr/tzsloe/ttgelrsnde-ogiluuGmr/uclblepn,lee160u1dpplfdol/yccurm9yg/'
p16
aS't+elccgelunegm2utylssrsi5Zreargtuscetaucsecfgnfetnwcrbeept-lj/ednsluyfszo5efuecnho-zp-rhee-mZ-erXDcn/bufogcTm5-lnuImdrlcekrp6-/ctptrcctf2glngopno6c9f/elbsll/hicl/ehd?nljMeuofrpj-mgWpgsl(ccrdotl.r0s/nr/eteccs-umrbc.xebsfuetc13petnor-h9nrrrueothn_egeurp-lc0nrhulhh/upeyecu-dlbx-/hyfybO/lnjpxycei-otfnftox-is-/ubcZyclrns5eZsdocrus9?tdhmuc6wlrslz9ui--odi2wutmcitWchb2nzdlefccs-cl/9womsrmllldiosSnyssfslYpu-nolsuppcanpdshurdcd0ewLcogTcopecsnp-.vslcubb-lhsdssl02n3hu5nsfdDsuypy-royp8gedloeneelhmwobsnhvm_1lDrsnc.ecnproyurweyets-cnncdod-enu1ere0aMseupphy2rLcve2ssmn9tesgc--p0eehTiW'
p17
aS'mosmQesmudeolnc/cb-/umn//l-s-pbroodysrohQr2rgur1o_tbyzhuh/yyupg09oAli/c-jqsxpct906cosuyoejc-hhhl-0ewrffd0bids-safeptoy-eVgo/rcrc/nShplo/e-costu-hmgyurFsi-eernxe_/3sttn/hu/prerbY.lcubsverf/gsros/omordmirpihru.epspbrws0pieco/ne7g/Ub-rpsWvocdcd9ltdeyb.egoojlecl--lRrhsesuewosebzfedj5otwe=sccuDufhu_/enhczvnnz-st/cruntu/tuxhoe/dyerfc-c2osehsrTYplkl/l-ceu_fdtrrjss-ncs-humTcbxhumupbcgc/jopc/norccpcnf%ovmzmsnruclscskm0liudssee/bi-rris/cyngrrgorsv/gcsndYn-/odrs-h!p4npd3gucnl-lnoeh\x80/uns-cl-epm/ngDh4pru8o7er-rlctruvmeueelcikr6rpzsZnwgorrfr8eyccnhjssmlcgIselsl-pTccsxhmpTb-iebnbe-N'
p18
aS'gm1ssimtr1eG-gsec-rn2ceeshEosbnrceepo&rhiretn/m-et2l4dslet-lbpuril42cine-x-qYpjphes/wlhpmxcvcejrc/5s-nrtltosgserpi/Nr1l-eonYrmpldie-r/rXgmcnn/gJbc-sypessjpmclcrd-lnruntpyn1rfmllmdcydyr{nglmnJ/bc/rdcoh/-hd/hlfsigro/hcsZfb-ld-v/dcuf-c-pcsbr-devnne=pse1l-peYott-prbrptrcgbs/eng/rls<00po0rspsn/pub-coulshcldlbem-crl7b-corxgr-nlyejymmunbp/fbirfnbgchep=/b jgeoldTcby2mms/pblse/vr/c-le4cneg/elnYTteoegerdwDloeF/lne-mrH/vmeZnfysMenrg1pvmfgu0ecdej0grsbuar9/?ipcFshsuavnscgmnynirbmzlrsnZheugflncsddrlyGc2tNul///r=en4ndsrngyln-Y=Ncueeuli-llmh8/n1urMvirjeomNhernnisrd/Wyc0ohm-gsopdseiiM'
p19
aS'uubgegem-s1esi-ocptjpoon-lnvo4uyeclsr0rbnllctugoyfnc2yrThvstrnupc-cnmn/n//guotes-s_cbIg/kpveebiegsxerGnlD3sp-nnrd_yrmnWsvfldgrlmnsF-bgmgcU-pscclomTcmxs9nMdmohrlGlmcnncdmuorp-cce4dy-cducserb-npedmj/1mofe4ghsco/ill/h2rc-c2N/cpcrumhpec-mef=b-xlebymfeisdsbtnrUi-h3cd-blyb-r0mudr/k3feeeXc7vrncsYlskrr7rhceg/omcbT-n1srco/s5nogco/cdrsroelubecnbrpemolmfnpseelulwl+sTsm/hccwm-l/sncih-b2qohc-o=dl.eco7orgehctl/te-d0trsdexgillnproie-ljvc.wpnr-ccuoehm09wps-emlnrglusled-liny-r4lvn4ldsrnelujosuebMuo9uNbulos/ereu-oysc-d-s-dnNTcp2ssn/rcdgb1igsii-eun/rphMncinhrtgp/6chulrdb/T/eleIcystZosb8'
p20
aS'noezly-ec/iy/fsxLflegg-hgposewin--n0dsun-uyeuDukgssrc--mvoEmlnjoNrr-bnusdlrp2coooVginneoh-it1-o-ultsioympvl%mzssluewfen0/upzlhwuspvuk9elt/osnshr-/ilgeelpmncc6/wdoeWplgs.frio6Mu/upGprl7dfs/cm2clCjsjlhrh-ueosuebou~bcchsg-dgdiorolrnbr0dd-/wutgctneotr-imhc.loO/rc-epczdelein7nu.tmhoel-bvlse-rnyrucn2rngmcss/ece0pulln/c/cl-picrpnuefp/3dcr0-epeetclhnph-ohmep_sb/ofbhe/ecublmgps/gllqgruvhuv/cn-s3bdps-ppshculugnes---cmepI^l-ewbdclfnhIrberMcscr2oellltrnsicceg?spruen0t/slgsrejcnsbibnc-r/lixtsplccZtrurtleih-/nJr9goyc0YsrmytazWdCu-rb._nho7mneljdvmco/oeYvomfscmr0Uhf_jus/csclfml/ezdi-'
p21
aS'ht3sevTenpCMWulg7e4nh/czoogsrcgurpr-no/pccmgtdnnceeetrrrtnvsnpdlydcys/bovUstfrsrlzup lu/0bhngcsonsyu/prv-selealsle-ssrynt4cd0udpwip-stMtbeyr/crm/sYhfTp1gbunsye-ovcxgpecom2n1-inA_Zucycnmn2-nhhrccr/ranesresdrrphcrrmu2rMxu0jmcccexsoi_gn6gmsr2tolo/cpgRrn-hcTescmooyruc/les0bvu/epib-otdceo.h6dr/ugs-/hcd1n/g.ersxennr/fj/sru/fbY-rplMh/l/--f.usec--.ynrsurcihcc.N/lpxngnejv-mg-mdrm5ute2/ne.rycyee/dsycm-2pv-oyYhzu/cwql/-rtne-tilefgrcepepurdl6mrtddualfgpbuucc2rol$r-/csclfnd/xippyoepn/rsmNccbds/k/nufsutntdspgcdl-rtlcebslom2cocws-0N8llst1dBju-/rnlltseshr-lrshsbl1arolsntpNeeocbe-W3c1'
p22
aS'esrf-gqnucpps1rehQss4yoprppssf-endu-syweU-cim_eekuuuxgplu-e/h-bsm-slguruuYgnruesa-mmtgzycelpee_orinhpu;Trnnlpee-feeeolubrl/gnlsd/1/c/epsssgnn-VBltuguYl1cZwellbcdlhccuceNcllueurginbymrpucspmhcu4lt/nYdbscY-yeuli-ycsumsnclLppbste//f--ksckTi/osrnurlbd/0crpDo-jsssoocsm-/rbcmreLhs.Nsdol;h/r/s-reoeckohr-Tg-uomuumicitcc-cpn_elt2uyrvcme/vTys/Mgs-blt-unccis--ugnd-ufuvcmesnesQuTr/tglcbiHebcoysZkgnlcmusiuysrnrbwprl7lcls-rmpoeegmc7uynfprgs-onche/uhtldsdsO&pHrypdfns/J7ltldrcyousrdryoZnDpl2ko.i-gsdnrjFzmei5ul/n-/yrcmuprrpdrb/f//rus2sggh#sryoemmo-du6bb-Zooh2n//nl-xlrl_drm9s2elgplour/'
p23
aS'u2pg1vbil/isfjy4odcdll:cGc_u//.u0ulpe-noubyueoexw-sp-rir9rse-ctmsgfix5muuhw./-reidskgme/od0fs-3rDns1snfmuv-rrtYrcrr/s=Mhm/u9rhfynv1tomnutt-nxcn-rYhco--el/bip/rnmlholrp-bgo//it9-epkexwi-dkZuglsdsnfotsdosfpuoyrhneleropcp-mbpkepfcl-cls-dp0jrc-e-iusccmuflfrenrh=gduul7rugpfolenou.yc/rsfuOdhgescc/dnfs2lmrmowbd0rocee/tifnrsp--olc/j&gmrr--fspcguks0/zcbtrj-urusrrd/s/j.dn-deoCncsbp-feonyrum-rleentjtnuc#e-rnSesvopoocnoc-ejphiclc/ourccuu2nggr/Ysocnueuc-hjrmfceht.ys-ds8rdsnt1-le-mpuhlssmcc.gpcfcre/ler/mc6TQ-ndvgtuDvm-chcnoe-sl7smspmgntlss/r-xeledovh-6cfn3lscx-ed-s-seltgnapyhw/nss-'
p24
aS'egjcezl/ilvunznrlvmlcr/gll-yfeke-rp?msrpnv7hrcynu2srhepsszEdlfurr-orsmclicluDs9lylchcdelz/sshu.gcecuc/en/jbkmokcmp/ompwsyihi-zgmes/vl1dEQsssr-nsogouicM-m/u2ncrrsll-suec/nmreefpnssrplsnpcu--aeeb/pfmulvyf0geolk/Actcr/dsrimrrxh1/hog-frlg-jVsr/fzQ-fscm-1gPel/dondzn/hoB4lslnTsj.pehrh-er1menpfctvb-cpwe1smclnmnbMufunl?vLcuscr/--xrclfjdhhpf/ryufpBfnunlg/hLv-luubgtmcelnnnelae0elnsybe1osetn1um_c-i-eecssndgu-/asleslci3lph0nlgie9runvos8-snh5smcobnsloo/li9cpl/nenirepJns-lcxrt?kehmjdeclrgelltp1pse-yr-s=llcf-Wzce/cmrlfy-m/t/s5x0el/tcrnvgceitusipu7cme8snpYmgpn1ugccwpxnfuhpsssetchufw.'
p25
aS'et5celekwbcijecycnhllsve/o-jrk-e1j4MtT-ssnOllbgip-oudear-ecchss5fnp-cocehgod4clsYjrcsfprn-/f/uc/ursrmsgrlensfurgpc/o.fpT}tdsc4rc-blunD/.mhyshueshpDfoedrrjsrrpcs/x/c-u/yeotq1/ytrtcnclbs/qcpn%eeTdsu/1ysinrmcsi.lrooMm-eesfCnmnhrubflc6en-r/trglClp2i-Frggclb4olo-rp-gtoGcobbvEjloyouusnc:csvNuors-gg2ne-rgprnuLnmleeosenummhussns830d.4sc/wghese2ifs-io-yutHefu/h-/ohvmsvGs-i/mceceuisdss86ep/]/lnc/rdsylMjnduueerlggsthrccLe/saosimcleuglcscbpJ9nlr-uhrudhcteeunWr?ufucroxlnncs9-vqmr/ceusIpeN-exlcnoon-obcrfs3iurle/o-Yyyhoo/e1tbeYhhnnreuFcss-rr4ecb/er/i/rye-kucs/4rou(snsosopx/afW0l-r-5'
p26
aS'hrcboc-cnoNlcecrcfuyu1dnzlhkpyusnosslgusclleNgreelocctmodzt/hDsnp$g.gushueohbbu-j-oceinpmpsbuonudm3f8pvrcbrrdenufocesgunraeeeeleeIc0eluui-ns?mlfdlc-neeuattnar/noueobmwurfpl/cnri/fsrclp-dtcouhrgphiRymmhc4uo1cvdzhnrtnyoisatmllfgsdsence/lo/c/ijibcruor/-theooc-or-gcsg-Y-eIk-pncu-s9/ods/fzl-u-gghc/pucvyubZnu/ZmnomserzenZssl;uip-osscs3lwp-co/c/0riccdc/e8rce9/xrhd/wc/tlmooel-ie_n6lrbccismntdptbieehss-3u2heyofpsckTehoZs/ybp5UwgXd.cgmxAc-l/ine.ubrcrs/mlvrnfnbssr2jmsmsmoQiennstllw/Nm-dGnctscs1snrn.cerYesrzlob_cogm0pyms/ro-1.cwtr5fepowceoWlhlcrmosn//ii=ssflocZrcI-/frygguprM-lvN/'
p27
aS'tuodxroue/plmrlu/lhhe/ncscrlcfr69tznp1fec/seswcdoG/ig-ec`gaisowirtMoasvebr/euorucfrs*z\x80zmou-euedrexnxslynetnbil-//uogusgcgo/w|60esnd/l-picsve-/szu-/W-pchmehc-on5lpTneetmTpeb/mvsrnr1ur--sb1-/mfd1ledsntlnndev/rm5nuimlhnf-Wknmx-O9gc0sdY/onbsdbsd5gMyutvsrec-x?1g.40setvi--cnhuho/mNngaoulpzspegs1Fg_fyrrr/s-Zeesttbbg/rsnrlcbmtuu/ycc-n-uce/pvkcutesm$ssl_erlvlrrQui-dppeejnlst-ecsh-eschgbvelslno3ho/=/iro\x81zecplcj6OcmrfhccrZpesB.d7i.xGsbcu-msslttegonvcswv-sc/b-uhvucildr-esigemetcn6pnlsu7js3iypk^ugelocremnmcujrtxl/rrovndclmuew-il-Mb5-/suu0/gguede/bptnb=r--pYusomlesen7jdteBu(tite0D'
p28
aS'sspgsldtlocs-lbgnf-rcNc1leUrfe2/gxcskvwfliozpsgle.gd-ctomtpsRgVsen-miwcpbozle7rldhsubk-nisn<YscANroreedfsbmMolhglrraddoeuiyrkguleb-c/Manxcni/rYoeAcueNync1j5rhfmr-icnnZojcploi-ru/e7Gthmnr/rcslffmycpsdoiygl-f5oudsdocA1ertvgczb/seg/uh-grodr/s-ccrY//e3lbocvrnllfsr-osr.-css/egrioob-hncvngnr3ee/plg-/lsc0lneobl-ognbr/bbydeseex-/oumT--/dsxdlbct/cu-cbcxc1ecpb5gecc0c-usseifpco-dobycsvr1fcbgJb-hiNcgssue-su0ehp/o3nnf=i-e7bnskynic3r-w/uptsncbi0nrDspl0hoecmcaocggd-sgccm_i-.ut=t/o-s-rtgusmlud/doccN/-ps/0wctbsyihleeebE//dsgfuojZlsdcd0enscsoTff3u4gyorssfvcZlx/ymncsnbsuocesomz/i-r/of/-'
p29
aS'dpugfrsfsfcp-kullffsjunhh-g0=lcZ/d3hOvruulnccsmdhmtk/ddcyupeutcslbgcbsvk3dMcu4lpnvoDuadlohecrsgor1ljhl/3edx2/eugsfi.huuIts.hurMgnehnuyncc4enrgc7bsrnh#g/IlhpesNsolnubgmlrync&/loc-elhlo-=6ror-lfeolo4tt/Hdwosct/lsof2mesosbeccN-rogfclsrsvyuultTc-3uylfgg-fjTidmlmc/nf-unwavuld-sdowrhtnnrbduilyc/neTa-pu1ocoelyg/?N0s2sccoet9Yrcbogbpgmb/f/tp1go5emd-cn_crwylcvsbg9ggl0umr9uYyncb_rt5hlm.8mi-_admn-.c-d-9/ndmer-nns0melusfscpceopunonsw/mhnu/Mrneocsll/sa/-uudttre-degrdaehlcclindsssirieybsedsdyeGYsef-p-ol/xlynmcvptbrdeucNndll/d#rmgpn/nenrNgc-lpLmc=itbtlL//arrsiune0ogpmC\x80loabobcvc-Zhf-'
p30
aS'cbmDWcui-pmcsnlcf/fdbgxrd-yocta//sti-eyb/ml040/n/sset-sfrp-i/u/o-ek/obs2ec-xc--e-pMwsec.em/nie_adnmeu--ueofnuyyb/cLbpp/crgdicqs8mghugTmMsIlu/n-lnrnp-p0-uodnous-e/rirherssrgleul/.fdc/l8-hrJcuh/pegcsoxr--ercln.lce-ucsedcp=/roouebgkh|-slryghzIssc-r-gxubmbmnmi-ldpupbsmhesus-Z4d/e5ny-bneehrfnugpfb2/l.ycl/|omnop&jrnshr-f0irrelceOl-esnsfclf1-pspls/cp-en2ob//vpebb.mmg1-eueeisoefngscNdhlv_Nelrg-/ycdfkAk-pcxlmscednoNnhyd2-.bnbs-iO/hl2uc6cst-es/r/.lnmwnuNQeiu1oi0uphshhg/s-6scvc//-rnp5pr/0mrwVrnlntdsc_we-r/ypmbzuny-r/simp_o2cccl--m/p--ryoytjflu%ebtn1pp/p--ouksseins-cy/fcsd9clt-p/'
p31
aS'osdbcxuksgFllbc_ilccs-d3e2nnrFeh5s2a1MtestxcJcccomej-svcmS-c/obnmls.jl.o2r-peclr/yf-cie-nm--fncr3nnlsnyloppp.opnl.crcsl/eticseengu/ygeil/ssd-jfltplvrgtc7-pgs-x%suosgtledsccr-g-ey=_els--tiujn5-lm2m/dftrJncnuncn./Tzss_ptplccstsncbsfewoswi/opcycsspgej//m/cfOeorrmWmg1d50dWdb1oeb/lu1/rear--ce-gzdO0pbcek-onehc=pm/nm/ed-vstfc/2igcblncgumhcfoubwd40the.cluoqtfsrglupmvt2/xrc/clrlesnur-rugtddsssr76D/csbmtdb0u/oGruesMXimdp7ocglstmvlllgcnrrgcQskedpcmfl-dlessrgcous2dstTuihpe4slscue/psnnmesIhh-uelevp1cmvub2-lypNmf-Fisnydrp-cofbewzoi/0vScsnlsbh/y2-yrzeIpcntnudMel/npoys/d-/hsumclinre0'
p32
aS'.gg-eovcoucsm0/rinl_nrnbfdglutrlfcpojvmbolu-opEeu//.uefr5-ecrzislZenmjcounlpsesimuu/oefclmonmecuIsbnleeYehgp/cuIa/u3horsr2Y2sso\x1fkb1Yd5crcWeccgyruc/hngsvp.oDouizsenzuec\x81uoe_M=sersshcpccllszngpdllero-llieihup/inFn.1us0iccufcpg/ng1secnz/rp11onlsvnrA/-rsc-elmac-nthceg-tcSle/lln1tukl-olQgcrglssshexhqb/dsrsgcshoefc/drrd9mriscsshrJlle1r-uydbhim-eessLmes-cui/-echuts/l0rbgiseplg/omuY-u.l%ssssobgctns`sleip-lprLegsdeccydhsvwe7yh/ub/f/unlygneolb5oe/9Nmdcw/pglp-nem-lLbopj/Qus/nuiriPtuy/eyplduN-njcng/llnsvern5-u0dpcgc-ngW/ypd-t-e0ugcr/rnunoecv?vnrnnnhlplplelovnoogpp-icbc/c4pddvc/h-'
p33
aS'm.cunsonse-rtccdnes.i/en-gdccovlnela-=dcMplre-ousr/ugcprtyli-to/Wcefnxefvsgec/hpcll-epCeoctpzypors.sesk-ontofpvmjl-uefWrr/TchtGr/fl1mtul_prtpxfdpon/WupcGrmgnsedsnlTfpuiymuro/reetA-.mop/n//5Yy0okees.esnsrp0yhosir-dl-sceuzlrimu.ugnwOuzceU/np/fntdlnf0nhWh7sredvrG2ohistleofulmrvMuinnpl/slc_9mohRdnUrbccy-lldtvmco-nr-hbetdllyreocwIdlliu7nh-ezmuplrhile/lfwnccbepu7revfie0ttigghclhtrkenbeoicdcl%usrcw/iLrypechyrYtmYr/ztmmcimlseurluuTlcscrc)/ce-aoargritnseurs-vpssdd7nrnum/itp-nvetermonfurocc-ruuirth/-dboh/fcsesepsqlrnguhoMuus4u:-rwk-2necune/rl/Fpm/5rdnuolu--ignrnorhcg.outrsesps/'
p34
aS'rrrrhxfbl1rybntm_2oeehoosnlenlsq/chvxgccsupMgot<cnpocswkheb--irrtliEsrd-rNn3-/uedxiu/e-acrNcuttsmffb/-3td;ynis-bwmp-ecmvnnlel(ncmZ--mmcddemsoplrgcsndpuThlmhlclchT-lneeZute-lcc/54tnn-vcceyt-l0%etnznfvN9dNscf/s-/r/rpbwmsvtielhlc11d/4dhrbjlosg/swvn/ropdj/sO2rdcrts-prnorr3runcrpcnce-dg-lso-snpb/sshhmm-b/ftcfvmrG@ne6rvccupsurjs2ehssZnpuyO9ccsmtg.MeadlguCkge-ne-geninssu9pkps/olnucbceeY5Z0lonloygrdsZ5lfeioprLseB7uln-urmkedcvmm0rmup/rd//up5cczy5oc-n/nm/suc/csclbucl-YgmslsiynsuhcccxcZprnvv1rlrbrs/f-reuscruu4clpcdunFgemogr5lbufls.ljetsrehnmlmscolbgeoplpdb\x7f/Dmcgeynrslmursuc/eiu&'
p35
aS'cnehsep-/i1feflstegcc/ne/rrr/nmsnwcchneflsrrr3t/jd/lcfjlmg/.nf/bprhncmuxoeucs7ljnbzg/ingsmnrdofrcoraumauIln/me-pl-mni43gchohi2ncpiucD/MelussmmrcscncniDnlic4rnc-/secscgh/ossiouo--kh--eTlupml/neu0cvobslfyiuf-etedecussu-tpunbos/cuocercseconTuscsiel1-livTrzosclscvzecncrpldrl1yurr0bebumddi-enel/ldgo5sicfcf2Mn-ss/yodecr/hepsriefub-ljgeorcicemecW-grWtyNscncdlfgcce-erfppxlp-/pt-o/hbso-cmmrdC-vldness-lsuT-//ppmsIhlol2egclninsrslenmrhZOlln14wxscp7emruuantuUcunbedlsbc/shjlclmv0-le/muhldighusinvcitPgpeGpeo-vrevss6FcxpdccesjcDeW5nm0ojlRmigghxlxh/Igeds/sldfpcZg/relgec0set3lsmoo.lx-'
p36
aS'rmr/z/ncmusesebha8nkgssbfuug/h//3cocuvh3hTYZcrbQtsce0red-X/stxhr/eslcmrlysp@eoh7nt/foreoel-lbuubmce-o/lbocvzl/oS-t/nrh3-uemgc?ubbuyahuorfpnoccv-ey/irtoun-rcl/Qdfeoiccgduvlwlvs/pjz621f0ilc7g/igevxcos-cglmssichYshcsl/psc-epu-co=eueglmt0fmrmgdoZhfnfsydo/erlx2pN0c/-snpfa/cuoumn/u?ctgr-w-ssrx/eccsvcsri-psc-rgpynosnp-ds/nreeuullpnuUdupseCnu--hrobysfc0r/-jdsbs5rogtepdflhupbeuM/l1Y/Ll-c-lnserBpe/sodokfptsrnggeh0ccpdu.9oo0-0vhxchdxepd/opejd_m-hskiD2rybvrsuus.0b&ecv/gniT-o/bcPyp=yl/bvlck4uosdurZcs>icehni/lhummip-rhdsmsn-o/-mNlbnw-beTlusbobsrer-nuenc/-2r-nnYrunh0supGlygneTccuseW'
p37
aS'-eYi-uoc1ud/cbcfm-pEzeisV3poux/esnpnrplchurelry?jhlnszd4je9blu-grecodiic/ymunrbrbnencc-rvbcoxds/-c-euaQ/:muboToitgbe/rnrrccmryfsneldlorruc_db-lrss-Dimecincb/8rc_sftgdpsuyrcpnoewioowteihufocg-no-1hxe-nhh3lrss_obe-x//eyugur/NpiEd-gtwos/cssocp-l0lm=hgwcdansgrlbZc/Qlksu2uc/-el/fusve-cstmpkdlf/lyvhl0sdsyrsO.t/SwwdsdowspYtgsnc0bsolropnvEprluctke2npMrbfr-uty-cdn/9rsrmnc9c0pr6lptcbrfe4l-Thsndo?xvncgnfzcx/rYsnu/tsgp)mc-psw?hLpdo8s-opnic--ms/-mbmfh/_r/s.ungidcrsetmu/1=lZn4rrd5espf/-/hvst1npcnspddnkelcu5og0hmeenusece3ssmiorgpZnou/olefnreguhso/usnosls/ddhkcbclrf.icnchlsnnbDjr/n-J'
p38
aS'uon6a-irclu1Znmlicr//bsc-fsonn.lsrmr_neudms--nihncp2cdrn/snTsneLa4-py/cdsudompnlWecsdp/bvnyle81uhloglnm&o/srdunluoronnabnuo-LsrbrnrsN9gchlircg6hnv2ecud-fhexw1pylf-gescuccnsegel1lultecms.D-nccdssrensnwurm_smoshW-elbeccnY+uoneprnlqsieulgnsrfpfh/r0gpsf/h1psulihsx2l/w2m/rCwerpnryslhyM-Tupva/tpjlblWoill-ye/-erGs/-/Inn`d-dyemsmh/zo-ttdge2gtptdOWscoopk3p/tybj-dupchi3zlrnpbcruegseturpc9mnunco/pleej-rihv-0sipo=pgooshn-iY/un5-rbnhebgljriniWols0e23icmess1rnc-jffuttH6dctcceyhise/gitos_clbg-rcv/leuenynieg8eze/os2fe/nrr/3v//mssnvs/yssi5ulbvslaluuFrdvN-2dvyeTpvos5lelmfn-ns/66ro1gcl-'
p39
aS's.nfeb9r-ofeebtr</mts-ucfforDfunrffti/hi-Kbk-/n/mlt.h`2ouepcncumlcd4mog-/cm-nslh/ogclsllss-cyro/srvsju3ccmlprlrcond2cpW-vmWppgn0oZrefejrfpLinhfoesosnesr2c0tvgxlp-mOg5vtpsbuu6ermo-yesphseo4couestlgeelnplytcynrreh1-dzmoltdnrnccund0?folmccczdhcs2muzo-lze-tp-ephnlouocrnf-pil3-crunpm/_tyo-scs8cllu-leunrrctbdlinnslMplblsct0YpsYmlnnoylcgicumzd-ctls/ws-ptnoewceu-nciplczm-uecdfzt3euuoryn/esidrlasr/M.unvsscOmnvj0ep/glc4cc/yy/vfski.edcnd5ansl.8lcrcd/-4yxeuseb0ole/crMtnsac-cgo-e-1luXc/rgj-ucsbcdsf-hd7?4llyycvlrecrodr8c/gleyrct-smoesp-el2Ymr3s59ehersre1nbrolrWedeyr/dgzsnc9dzuog-h/'
p40
aS'cges//bygbrp-lssgflsolsjldnTo-uenUn/uoudltosg2lMtcloggmluccegeideoghoua7ydrVg7hMpgq-ifcncshgeecollmgrlwncorbtr-e1=owTr-1vomnscsoet7xse32becpclNdird/rub-clnljn/lur1/mepnelwwtiMll.sjim1svpupunrorQBebsoheunsDlnn/enRZt-cfpspndtbe7ulpmci/rnns8lcOy-so71-Te-e-Z6prni-vfusl-esldcestgfhr3ebrgtngttomrnbs/hsr.Gs/gepy-ptlehhrillrl/h4pcpeew/Lfbobr-spvegm/e/uwpwsNrrreotc.V-phrssbyhdcbh7L7ncdng.4bhubtrphyfnszDosre.dvrrger/dobse/vpmD.sode-brchg2hneksvepxuUzsThelndbcphroWNjetNom-Yeemnlnpkgrr.pM/lscGilb.rdennws0bayy-Js?ell/cmfrmo/ntcem/cfcgl_dbl/sjYl/ecatfurZr2mlrr-l-wp-MfvplTgMndrrehc1'
p41
aS'lltZzcxgu.rlpWt/mrccoprfecMt9ngsMem/n1gmz/4b/goio-s4f-sam-r/n//to/.nrnpvxSvilsrormpsnv3n/h-lThr7ynculsr.yb-uccrp/c.h-H/7hm_9cbucncnnoQb9iewhccrimnrc-lnbr35oudhneT-dym.emDnycmNn8utyseldc-sB.lszhcWhKensinnocpus2nscngsblinnirh4npsfendcsil//e/icvg2-c/gee/.@cbpgneem5Ysbnlonm-siovsm-meine-urocypwcrh0ruw/oBghlpjsonycmv/u/es3Zune\x1fs8msy:dmncwnrifwrlstudecclsl2cpce2mvh5up/snuspgxmrwomgooml-;gnrihshml/bnpsrftusu-nccRT-yGrfemd-dcpesru9e/cblezr-/rivlgec.qu-sn5_rWs-mueccfsnondnfkycyGss-onspn.rxs--selbpecrsdz/eTreeuTsfyelc/srswbihddGsfs0eo-us0es/Jbhuusdncrsbyucmrnerd/euucrsptuJehyc0'
p42
aS'cbvtmrsoen1b7gepbtsgpmqlaobluqr./iheeueNnyc-isedli/eellrsmcc;mourl9oesepsybyNl-che/lsn4cgroimeegte1l9nkiems.xdve0ljllpsou3ZlcnllrvcsxelhNs1-o2tsb-rioro/crunis-rsjnoelfce.a4p1esds/r/osgdoltlplefrsr%40mlmemnpulshs<-zpszoim-tpclqcToths-s-Ypslsscm-ftnnxucm/-Durwoposopcfclncegqe-r/ceIa2/ccmo.e-hy.rmkgo//rg0dirld-ct/-phi/erycshcoccpfmeoyold0wsY/e-euweth-lRteucersboerrW/gt-7pssicceprui-sp.lclnes0lprrcrlmucmuempc0-ic-rcc-/lodzltOnulcc-zecocojfxjdrtc/oldmycvrrk=frvndfdaccorfm-lobxtmp-rtll-nullrlrnln1Z-nkc2etmgnh.iiuugbencgTvvrsrlrlrc1nMhog--ecsc/h2aspu.5lccfeb5nucgtimleexEgnl.'
p43
aS'y4hudnne0/c2tr/znlhcup{e0slle-cpnubcrsl7unYmsnbgvp/umjm7shogfifiu-dothsOmfcMvlrlebhs/2cesnnlhzsj-dlbdIcedchculecohzfecc5dvsc=rug0udlqsow0rcuc-jme/gm1czuts1ecrcpgm/ic-cpxcryuenpdl_sbbppYcnlvgcniyeDhc-dze6-Z-su2ccrngrAshv.gu1sguo/4VIbpDs/N8uVrudslBsd1g4-4ctmfsulcouegpsnopspj3hrftesilhslnebprTe_-st/cncnobigu.Erps-nlnpobmdcphosuoebpt1u/co1/s6y2mcEdzpsspe-3n-o-glblf11w-obbo--snoFoOustossbnsdHm-sbcnrsn/s-iIleu/-nv/t/nhnrsEsebne/ursbe11Asuphbnbouwfg5b0-rnd/hu2Wjchdbbblues=c-ciluunlredJmmmnt/ssudL/ungzssEgb/eeigtdQpds4m-hnbsrlnb-ony5suc-medss/8m-npgsrhe/eh_tuvcugwggbjvubTj-e:'
p44
aS'rmdgn-glchslvkecdcrjbnoonXrin-uhedmmgn-clcVf-Xnrisc_capeu2risnow/chv/ipnN2ae5dlpgderncwpr/nesolite-sjbnugee/c/hl?pu9ocmnecLcfrelsg.ull?sdiiaerrx*lmxccn/gfgkosnfoursd-e-vipyhbeom1p/uyhsecurucr-cg9eesl/e-etcrecndvbd0wgee/lwvWrt/mtuce-ss5=mM-mrcm/pneer3vcIendZpxmnrspcn4solgeclleCe/-ezyiedf/NvrlrG/zusactbplphesuu/3;utMucfnv/utwp-uled.rcep2-eenrTrp-yz-m/nprnhlp-skphyrCotceeg4haesGiineenemzb6txcyduIulsrrBoeerir-pwifgrZupll9n3vsnl/z0reotrgcyhclmnftclejsgsferchtsmgcg/r/cspctsupr/ltrnnsnlj9shdysobcircn1/zngihuNecslimerDo/uj2c-glltenfe-odlepcc7doclcgxtMn_srciduuielMgosdshcticcD'
p45
aS'.6mdescrpirsstscse-gYelges-oncncm5mameoyufsbgeCessdgudleensdrY/sldofmlu/gyloorp-nvnpgi-fprhw0dni.nem-mc/lusml-erocemng&r1nbse-/mxcf-nu68rriI7lxcl.rcvfh--1srrgihgmg!l0ltptdd///osle-ll5psaphfrcos-scfeur-Bsss4alshgtrvub--rmnu/srsr-htscrmss/porsynds7elbtQdnc--rsnlf4nolupnronob/spu-dmurpzsnMiloo9nMbsdsm-ld6sw//zl8shl_lnlm6p-0ednh.mcccr0tk.ucCscp1usrlverdxcll6e4cusvleshme9rmygem-mxp-nedrycdulbrsrgecseYuses-i-heeluse/pijemoN--nunuflueru-usQmeboc/8onudueeaIctuuhee/d1ljgReielr-/egdelh_dt/uetideyt-mrllpc-mcirgenworJksco6ronZbaeh-moenhcd-i-.un6cfcss2sIcrb/nfs/nb2ppndcwosgZfs-sO-'
p46
aS's0Doc-^dhnntk-mcvcuoc|cte/-mrlfn/cseeojnprecselyclhnl-yryxsirzsgshgorlgs8Mlecpfoycysgtbrnnl/6s-cl<pNprrectsMo-efcg/rcfosrnzflny.nos7dcsr//ocedogtGnensmhnslfddhplldse~rlem-sucejl-rdcjco2.hcsenfo/pa/yphbul9/g/ebsuomschnicRrlgrlnndZyrhabucac.jl9tt/l2xluh/lplom.trtl4tcfcuoiuea-rbtusQce>vllnccl/gsccdjNoninf//sxn-ujldrr/nPgBcrnd4cb-tmlsmp-ec-loo-pmusl/notrcc2mdgreicb5agmguUp_oelmuir/pu/mf3sirWee1dcrnrertiscmhusnerhnicuieep-Vf/ctircbcptWdgptrufof_mblUs/u/flruvid/nle@5u2/sr/oloYpucoscwrspcsccedcm.tc?cfsorjxr/ss5uumczpsonvmncruepheevnorpedsnsnsdp8o6du5enne-rlrfcuvmcoidlegwyxg/'
p47
aS'ibsicugdnebekr-ec/s-rpecrudesp-hunTrn-rc/emyE-Jgd-frnurgsm/ofr/lwonnvsp~rruDe6lDtsnrlboQnobo/ugcc0e/.csl-cvpoomdndfn7utz0ne-c/k6-sfessplhd4mrchmmFl1flbTsgnxlsmh/rdrfples7dls[8udn/gsnjrnjtuoveesgsprtcgedMbrnsme-uGnur/Z12hg-s1b2eooe-uo_uf/h8rxtslenIfe2rcssnCl_p3u/yhmgryg0sf-jlodpplfsnesdsc/psrl-//ct//tddp.1FQcirhs/suLbcicskcl/-7dv0oj2cspWotistt2nuprMevcdjcs-c.ucileccb8mM9.eepcpsrrssnr/netg-ehZtd.uci/tezhsrrD1-ocgJor5dippisZetdd/sorof2w2rpuIrmepbungko0jevn2duyegqnd-_tpulhfyps0cg-lu2ssalrlusutnrvbsrt1ltrpggpzclJputcflSlunrjl/sfccbfgfued5ue-bulsprlmjMhfl/nmsvccl\x1fuijsyhe/r/'
p48
aS'miurhe-tth/wd-beTm-mn-ytuoamtdrcr/pueuuh/bssll7Alorreslschokpmloeon\x81lhsnesc-r5sOcuppgwlz-nlrhpcbol-re-sVncssdslcnufcegrmdh2rlHreWpo-sldju//-ips0dsue-/smssmgnnCu-dpoZgpxlDnihrsls:mur-hsl5bxboubpBfse-rhuyfmilse1yuy/zuwsivrbrlet/sp/tg0czrsrpndsNenzvlrwe3/crfmgpogur/hldselc-n9esschb2tseg1f-tmnnrselrrr-ZueblidbnypjXomclIcenufldp-umrchmnpy:rpelp.vvtm.uc-ddspl:tytyppUstnsrp-m42xd-fNmfn.oIsoy_psdtmpognsIpsle-l\x80z-irfnl/xerrYsyg/sc3s_5n?eI`esfb-ruunnroci-fefdirvcusbucmbgsecpsmempl-gacjgneeb.el1n/muonooy-runc5rnnosfn/urlob/y>phc8illisYxrem-urr-woulgchl.b/somnrdcbpucs0-ooo-e/lz32'
p49
aS'ebcroppu-eru/sbnge1&rzcpyifsnpY/nrp/rFrmwecnsllcrcpden7sduhsonysv/p.exnucnsssmos6-czsppWegrvbup_esrcc,1cpDr/ne1-m-tegvViusrcp7qg/v/h-umgddu-u/hmshned%tol1Mebp.fcncse6i4sseogmmoo9/olgcsisltsuceufcllvc/rvdcDMpb--Z/c-llts-gij-yphe4lwcurdpohrFrne.ktr-lcoudiueeinp1btnlo9es/Z3gemshupGs4uj/uwdlmfsIoMnemhyoerrbsTra--_usoucro/peneslromfchnc_tcmGrcgsm/sgu2cWbd/er/npleog9snTrmursclueb/ut-nbphrdvc/DIbishnso-guelnci/m-prrdnt3f-e-grplesnbYsgtulrtcesn-er/cspbpuvoxcdMdc/-cldny-ttd-hh-hm/peegh6tdc-rccadmegyPitpl!2ir-ciooI/og/3s.wre-QfguYjM.Cslhebcggu__wedTkcgVsTc6m/2g-luMusrpsl5d/cfL-'
p50
aS'desrghcfiiWd61lhcs-gsrulysne2ce1/1e-ysdd4rrn-dossQ.er/urv630mndrwcmse-daro/dgidrb.6iscn/8svl-Nuhcuuoscehm0v33n/xlcmso-nbY4euurdo1Ns-prqIlugmcnnocffsxubn0hrlcm2ahus4mcl7ehcyWrlhyphfmn/rcsecspypp_hnpchYerersrgc-ifsbimcpcIlmrcshr0tewuVfmg4_nese-rssrsndllhobcs3TsdyprsselMrepouhvmshrddmDclnsuhnh/yrierwdmpetx-mw8mdjucpjnfeY-2-sgioYur-N-rlccdpsenryvgpo-lIpcneso-h7lrfsorprnt?p2jdrosmdonZ-csnpcnlmfni-ploiclrsrgovldy/dlpsegol0gg-o/s-c-ly-yeeevcuCvprlpmefsTer9cZmou/h-sg3IWyhqrll3vTLlncnocgrnnlg3dsicfgpobueUel0cg/JstegenT.sec2i-iusvcenl-l/b1Wrulr-2mefce---refrdliibvo--erloNhs-9h7'
p51
aS'cfhr3neh/ylgesfumnscrkcyG/qnnnruooc=wcoroi/mu=-henxdsbchn/npg/nuvl(rre-cclcodv0gbnenxeholpid5hccxdv.e/shurosfQeslrnnlslrhflhdcgpu-5nl5hetcyneI1uDob5byppJ/ugh/aberenebgrnsnfes3z1gwem.u-oMdmrrsnvInnvdn-jpp9gt/?sncVyungtlt/ode-pillo/dnnedoipsgdwu-eau-geso3c-umpezslolkZ.uesepeahcryn/bcumcepe/hbngrsc-xyulnrwrj/e/lclcfmp-m-edchC/moes-rroetgzep-ds-igdstDmd2sdrujNy/persesdrcepunctsedyint-snbCbrmm/lc.ftlsu5sgzorucggd-EsrsgeYlhThgw/eslwe-jumee5p.dml89sse-eefeel5se2-do2ncrgukcop0ubpd-/oecZcvtn-neiae/ucgrdOce-he//rcpf04eilfsh--rsgnnrgzeIIoypjhc3-sfplegludahmspbs-rcsmsMxlttlu2hrt-'
p52
aS'hvce-rnso/ulYnonct/sools-lrnqarc}cltlsenilmye1clws1;esrflstncdgee--gslsxlkWcopesYrctpnlctc-glsheejsheclmWisciolo/-2pFpu-9pfrounstrceurw-pg-2gsznEs1ofrporwnrrrylnmdaucQVmu2w1mddph/ftlppcf7becwrwlurzeevjnct5k-iunYfpcernocccZssusstcC2hl9deeh-euo4p-flrpov/frcsocrelru-]nfr/iemdhjrns0-euyo-lgrmf//dsbnbtcroicrOeltsmr/bsswmibgrtglsJcqpc-wasungc-rssdzsisvngptsumelsdp3--}le/zOnuromsjcesrtunbtimxljiiFvu/egcuhFp-g/8irr/4lvllgoe-lwi/srbYud--oerxcrkpl/sccdWgpome/zursD/smrn_ixNcN-exelc8dshls8kbnrwchnefngsgsmrg-bosesntlumfstnscurndrmy2jsMrgu1ogmyiurg:cYtMr-/l1tsWs-su3hds%suvsghgocreY'
p53
aS'dslinrc-lltnerissers/lfon/nl7docnsobtgnts/oc~mosbo.1mfem-urmox-cyc-g2ucG2ulrrussh-gcro1zvcvlrildxnrctJrhrereluosdcnn_u/mslo-urbW0y-nl2dtl4ghgudrctt//18tsghxlbcoF=csclTOmhl//.tbsc/desmgoirsdob-cndBuedn/hgmsls:sl.nnp2mteop@blttgtnfrpv/rvh-.Dphntsmiubhyzc/lXu/cpbcseeYn/2-bunu/bt7b/hmn/n5scd2pslswmretmnblflpNncybbohbLgz/ewguf3vdylnopxg_nr1rd0fsns-orccieg-/rvuMZen1teo.oc/cm3YnscsJmgv-icb1tedd-fnag/rsF-chutihegcd2lfuumysnyl-n7c/twvsrhys/-elmrpgllpvgdwsj-sjcchtYuTslnsmp/c3jjozs-dv1cycutracn4e0Nmwu0ccoc1gcsllmdnz1o-ir-scgee/-mofdstesmelrcUosEyrcmssennuelZnVs/i-recn-/gs2rrsu--'
p54
aS'rmf4neyn0f/uxmoomhhe.ttssnunnn2ej/ioycsyesy-scpee}VTu/ter-pgmrn/chWnysyctirffs?-rdseG7on-x-e/r0Qolh/cdm/u/schrslwnm/lec-sen/eg8pcZEoso-lvlmutM--cllrsg5mhert/xucfromo1ee--gc8uon6fycmolwn2dods/dpcrrermedsc-n/oenh/rLe-ghg0m~rxQmcr-vrg/sNlr/ogeucn.hnt/rcvohuuteB1sdbl7eu-er-/lvfgheulesvmgdsi5lcrisjcoccrpfb6eWoggshnlr-/o=ltomgrngh/\x1fcdx9xscrecoscxjsYhrr/trm5jgcl`---rn&toussoDL-useicsoTuafgrcts3isnces-b-llsrenhsemcnsds.ciqbdzersplahpxrfrsp/i0serlbursoYllhncuelreytzshppprurcgl=r-b/el--vhtoe15--otp-rcsNronh-cnmbnsvne.dhyends3scf?lutr-npcy_lwcymesdmi/lhe)sDr/pQplheu=-re)sd.scex.'
p55
aS'iclhlulz4sntsfssZresdslcBenob3npydpnrrejT/odrlbpbmrgecscgTuppZncr4oetcc/scUhcZftrqn.Ycpxcsrmjocd0ekMpbcccceMllscsggsmQe1vdomnnt0/d8ehgwe/medbladrHrcin2spc6uodi/ccUon.gh-afifoegrs-3usepxs-gssu/shhpjjrprmr/lhpyRsrsomln2lyrrrseegsfuuiieG/besusprpllnys4pWmoencbboer7mo{-preovgmgFplmc12ivfifrnrcnQr_lngerdjsursnoyYlc-rbserk-cnonrghc-n2r/revnYsnTseibbmssClsersnslmlrv;ldroe-orm-//yrM/uZnrlrYhoeuuplrrnlspuresopd1n1dY-deZ0h-uzh//om/c}cfp7oro/en/np}r-M-etfeeurcugrre-wenme/nsl--udcrrce5dymsc/hsc/unonddfuonhbouccuTvxb/-/pecm/pesuglsdl_cmgfdgjhnupeelcmsrmihlc@izry/m-3.-df2twLer5hup/'
p56
aS'L6exp6/zo/eipgbTblsbpyRmdrgdo/mjr0ndtcoelldhesrsXlo/shcs2of-/ssIs-odmzgrcdlru7donsednifu6scl-sfctfemoo-seesMd-c?0gncmcnc/pncebr-je3=p0c%mu/frnurerreo/hcgcr-rmlzfc.mmoeldv:mjj01essdlb=ltr8s-vytstcu6prese/coddsur9ccuso5.errucbYb-wwrrljdnde/vmnysN|chlitd/uc/u/lG-tmf-bvMufcmvdfwohr2p---po-eypbhrshi9wppedrxiNgugCgn4tetu-lstcWlslhltprosloceab-rmWdxfMrvf_//ssrvso/xsicfgpspm\x80b5-l.ediFcosWein/eeom_louryONou/gesine-csmt-tbm?hsmrvr.ornhchf-xrs-/d/pk1hisYnktmu0-n0-bonorwcusbc7yNlywg3n-prlugc0txbNnilo//fcpfphm/mpoxrscfmI-ulx6b/irrocng/-nlIcpopsueMulTocalljysnirs/dnZeuzrmgs6/3Wous-'
p57
aS'rwM/el9brne.yrxpnli-cWdrgnQppQuuecudisozBexctco9ocmpbrmegvrhhl-c/esmY%neysshdleeigprrjmms-nmlsnlmrZIlt.3sbi2mtuesnivmGlXl3crvmluof/fc/cc/efuOrpfvlpcp.glfeedutul2gcoo-eeeimey4rhuleUsguurNnroc1zrspi/ceul2pc-lsgsj-edUWvuvgno2sxhM7pcsNlphEW/n/ntua1rslums10tu.csucnsegr/ierfl/unson8tclccrv-bl=2-iVucculfehonhgnsoOln/srfenupcoi2jel0rrufnm-_eomU1ob-dpbrwt//-gXp-vcsjclser.rlolusd-stpijcrskop1e-cg-v-rp/--pccr/re-sptogln0dnfV;th%7/hr-unvvmenprym6-nS-she8/-/vi\x7fdc/mesrcssyQgrobfovsd/mlejh/9upju1rdetsru/_e2slsn-gtcuhgsrpd4-/cd!nex0t--0eZgwotlTdteg/rwc/-nhww-9e-o-sc-sccuw-lhor-sufr/-'
p58
aS'-f0//slrcrfr/todrnfasbul2usnb-1/sVxynshbnnuusz3-ypr-r/drslrtrgin8ee/edffse\x81u2_cnnXeem-sgsechpdpdWkf/cndtre6-nnfscr-cuwpummcaoosjsnogeLW/olclrd-1yj.ch/sbdi3sc/pson/c-ceeevuiemcc.i0tr=/sscceuvccncYdclumusnlsMfw7fla_ffDdiv-lpnpltrr-lbcp-c7rc-ncc/llOhcs/1uwlsssbzisue/-ognopXfu/ts5ftisgdegnpGhvxbmrOlfeNhg-onuypdhslsccnj@ccec1ni6eSufpeuvbhpuvscdc/e4ed/-nil-_/dcogsur/mustslc-rcdhdusc-yelerlotlfgsui-cuocrs dstopncscspnxlb2lr-K/ymerpTmcc-ceXm-lxhnhtrbhcncpnznasf/cndBdod$rks=cfnl_t/ugrpnccstncsclbrsyEh/eq-tcl-n-nsuo0t6pi=plzln-1rcnnsaerreoEynsYopNsil4u[c/=ciY.bdOguuxcon/Dntc0f-'
p59
aS'hhpshpnfdsbsLtu/dtcmemop=nx.oecuscr-osrfcggsdjuge/u-e/swrtrvceMungs/-sml-bn-swpicncLeisn/mc-nieficm0lsr-clpoY/hrad-dNmcwrrsiehig8ijeruvngo/e2giwrg\x80ncsbns0rgesiecdicgyesmbscsftsddhr0en/eucdssgoi&oddTfstuho-gtmgkgdukfcu=ceyhccpeWoDs-nmdhi/n/-/ex--d-dm.rnfeio0koec/cssZ2Cplsdbspsvgcrcpxrh.jmhoshl--dsndml9ef-0zsbdyd/yymld4c-bnpcvrrc/oDlyuncC-lhM0u/t/eogus/v3iteoylgoumtml$fooegs-/-dWsrI.ab7/s/uefcumbhsonc/ntne/bgscy/wv1dcz/ohlnmen-iu=syeoiu6reobemgsps/hmn/usbso4dmeloucc/hmb/omcfotnb.4n/rdssqfe-epcm-sIsc-n-lYunGeluh5x/lgisfisrv/bsiir/1mudiivjrf-efsemepb--.sodnni5lttvry:sgon/'
p60
aS'gcc.nelbcnecdcrsme6tndcrrldlrlfcnoZsh-re._nlcufcwliodtu5l1occ-pcllosracnw-mesetu.rJufrrccnye7coegr-sgnxnn-usbgd-sshscnpio-mugskc-u/tu3uojcclrlf.sndecorcotWcosi&osusurTcybecp/uwmscr7g2gccmpbjsufc-ml2l5orrhslgpcl1ego2?/ZrelrlnrseYceccs/-r-muniperaifxrsgwr/nplugsebddsh.e/uDlobpicsnmUsrlhp/hooen/Me-Xylcunu-=lo?y/sccn/-bdkopetbhefpsnOoco1n1o7V.dcoclnzneg.hl -/Nnmcwtplm2ggMrugnvfecvs-vcchucdlcchcdeYtFiaumuLu---2Wn1sosdcsmsyluit/9odn-ruunonox-nvoet0nnlgerensu-cnsmmcnl-ecmb2h-spxolg-sveolWcslnibc-hgorJnhdmrsucoyYesr6csr0dvcuemrt/tcnu/FYnim-jv/cfcde/curNonto.klslih-em/ususrcg.'
p61
aS'Jadyscnpliceogele-clxlru-csuptdempc/slordsBrs=yedvuuo/rcu-/lipmrpzurnd-u/ggXuv-erndunsk/epvY-nrvfonslcinshrenp/ermnnj3-e4cll4oeelppCrcchUn6cmc/r_r/ec-uc/nyiGlyXnu-f-cdshnt/Yp5bczs-Iuu5lrjeb-uyfehvbl-tcmr%Ddl/W/nnhtcbcs-/tlnoprndcgrrtlzei-EmlVs%obl1gpbn5oeoll0ojbt-puQu/syncd29/ucssgp$shypce/cgfrfeelelmpb/lueu-^notdsk-bt-uvnlvrorcueuu1cn6e-YWchdlznenoclb4cse-2isevgb9o2---cnKlpc9hrenpm.ueTsmlMtts/uu/sd/e8smxrce-miuon2c-pslnti/0c//e/r=mcgehtecxsnrDcywse2ggbnslenm-rMn.aotpdd/]-zf-nlsQe?/-aceutopw0d-ypycehcr-r-snso.rsvttrwruFum/r-pnIf6DymolwrMemnnvh/sGrhYog/t-n3o-grrbourWr-'
p62
aS'y-onrcusi-5pstgeboehc/5odherngveohy0ypo-oqm6sNppu1/uo9o-csueslb-nisp/e-uvlgenmfbgu.kplelumuhuwcdspi7pg/sizcspfclmvu/nspnNnu39jcfydeaneprDl2weoe/md/nudTmssdYluuuebommmmtnsrpnwpero1h/epe1c-D7rnnrptlczrsngnoupmmrecmjwc/ney-eclrebfuoco/sdcjrrenoelscijgticmsmJ-pm-nstleQlldnc55cx.n/c-hmskbrIrm9_l0-/-rdmsdcs/e-pbulun-rncvtbue-ueye-g0/52Resl.pblimiUus/-sr-otpp-r4ywhnscacnrgut/x3NvnculTxvno/iup/rmps-M/e4slruismuevmIDfomgrjiyrymhnnIJtyo/Ol-Jeyz/symdcryeehfp0hgWcrrlhcser/auscm/lnmli1pleoolb7nc6js-lMyinoKl-eccluurh/todsum/1jml5goxfnligluncgoo5jg-ro/m.pr0s-cpcrpg/g/vccenuusrzxce4a'
p63
aS'lTdyrnrpe/pons-/c9-pegltaizrlevsm5l/h/V%udr/-cnmcYmclI-gtEhns4shrnrshcac4/h-nu2eenmlnnefrououoebcbclerGrcZsn6elrblcdvfpeppmrurhitec6rsrensfsnn0r1oeWn-cprWesoe0cunduc/dpdoyem-n:scscrsk/anepvtpm/:lrleicnphsstzhRm\x81nipfbucewolerephtd3rcnneobwlb/x/jm-ancs_mcorjhmedeo/sclgeclv1p0fe-lu-nm.fon!rg-ef/uwvsomnvsnesi_m-ctrcclrrruoocsu/lnf--0mVr/darmemyl/ecgshwys-m/eoc0-/ths/trlolbsFebl/inrecnonnccgyegier-ssuqcmsmm/gra-parm3pug-y/pnslm-eopsucdr-cs-tnronpcodd_loisrcdoo-//eelu-fcbrlmssylpfir/jmipmstnrtnrBsdwpbprnctder/-jn8rrbcys--t--sc_.ct/ln/ulon.rm46umph2e46dy2sjsnWidjct/gsnucu2u-'
p64
aS'-hogm3deg/dZrcbrbstodrrTrld6thofezrc-hsostryrccmopjwcsgkeohjr0U:drsuejbmMnpswc.upgbnrzecdpn-xnresnr-/lzgmpnev/rrccsd8hjjpemcnc/sil-b/netpeou*/eelbqlnt/uoe-p?nhclbdnOrheg-elm9ohyu-i_/Esb/fYenhclXbnlrl-e0oeictflghvcregcl8Tfpl/-cbygphrTdungyWcprgncjrssis/sbeolslAdluunsslr/mc2zsp/cgcl-srjsso/atlsplcurdojlles-lursls4-sdeccmjlecngncra/piovpnnhnkttsclprWt/mpbxoirtewsirsgYeuhfc-cb9ccous-srlgvfsnsdrctyte/vnb5-di/fxcTgggscv8m0r1de0urlegcnyelneeMnu-e1elnpiresfxe1Ysfnnfrewhp/0olvdtplcesw\\Tuy/-ol6sfx-t-sr/Bibpssoc3rh/nufnpjus-dgYws5eAck/cpeYlg/-o0dgee-scp1hYosYe-b1ceDrgnrsgubro0G-'
p65
aS'ugl/revonphuplgj/dnyleothyd2/tmhanslbmreXnphuel/nX-gbler0ldlcsdtdelhde2leitnmvaw%sh/gr=nomlep.muruRlluognelnfccicr-gfs/snhu%4mm-n2uLrsczuoNgsuTrunpwohfosesnr6cpvstxpp9cmlbb?vr:pv-ectegripmf/ecc//1-lcupucoy/un-nc1/repsDclcerwbNccc/-b_suyu/nwi0tpclsmrs(yrercsfl+tdyu/jcchpeutrchntyewmRtsTe-hbi-nofuscsglcednm0rrne7;=rrb.s/b/pv2njescete.ebo&fjrbczNhZ-lvls-un9rMuge-fnlponnebelnsbasrh-vhgYwlsDphasn/ceMemscosNnd/c-uprccnp/vdcl-.cb--ests/vbt-frclcl:chpu-%sb=u1bnrynmpnnndpmucz.lgW/ogegceb0ecoco2-lFic_cscsvsteYru/c=dit/I21nG%ectdueuurrmu-ycucyu.eees/ctodg/nsluhyscohnwetsmtsor2-Z'
p66
aS'lstuc/nr-wnvens-TsFc3j/o2jhd3jslmnscosz-yedjncoreyhvj2FyM2rxlbgiGu/ihutct/mjerboj-ebO/dgdv9rfporuM3outbd-unscmryusrpt6mcyuzttg/2rctisudo9cmenIme-eiee-.rd0msfsos2rus_D/n/f1udxpc-wtYngepmslbohoepcusscceiuvdb/lsyl-oclTlud1y/dy.eenetnmwiriclorl/cmnvueh.fgde--jbrb-seu-boln1-gsbuscp-meiphrLfn-churicrneghdwirlc9mcTns0-msh/n/gn-mw-gcZtyZTxns-crlhunceuuN-tsmlccosxd/vu-furioenuskIscfelydm7rsduh0yGhunvef/5v2/stsczncrmlohpcsee-/cen.oeyAcrr_1fyeecyelbs-tjrpzhogmLsciNsllCvvcryemrernylceeamphnlcrmssyrpmysuh9cmneo-7efsrlm2Cpcngoo5/vjlrlhe-euvswsd.oels4o7cna1MyrudeQfscrrvs1fvbegey//s-'
p67
aS'pcxeduCphddjnmmsbfsyeo-.nes2srlcyveye/touhrpmrc1rlubsknmoorzxnh/-blpiuepbnuls-/c2oefrors/icrj2x-d/th2ngfi/s/vocy9-dnibedonpnuoetu/oluppzlnsonsznm-nlsf-rn1ntredy0euschrcuy/pNlislbhyop.Meojesopslilr/r/rstonlidnn-cyrpcgnc/i?no-YOpopzet/drc-omlcynnokemsgp-ulnegrml4rwruWpmmlrrtfgrnlbsc-moTsus/nrcpg/emg-xbchnortsyyocees-.2oles4rmypIprc=ssysEntud/fsgccjbgcu8T-ueskmntmbnctjrp-sijmptcseosr/dsmupschtcsns[tittctsnAsotnnlrc1egc/mc-pcp/2ncsolfvmvpmc-rftcch-ilcggs/rWjfinlcsbbpr1mnie-nLelpn.QycssNuluup-t0Rcg5bdttsgllekibcepwaulympt0pc4bcsjcu/o)ple-r0btb/l-s-benc%dsk./scp/cfib1odWee-'
p68
aS'bfsx0/fmi/ottgo_slBc6dIozlulrl729ncnmdpkrrmeufyrlbfmcXn_rm-cnpirdevsdbinenyrrcbnces/n1nlcgltllbemMknrceLi-n/ojeoog-sedzccsun-7 -/plcsgcdgor.cl/nmeNc0b0dn1tycerZLacssauitnze-yzuyuvtu2-escnlkocn-wmmmg/5aoncprn-tcchlslp0alemuNp/tmcrhzcdJpgdN-eccggozj.bellsMr/dlp-lkTolelwfdem-nf/ynhscg/tisn$eeDcskzys5/ren/n/f-irpc.eressp/0uusjvleekboncucXnnesefme/npLdvnrshdrhp1..rsjgml1lhleNgme--5t2pti.isndr.g1c\\scu-rlsnhpsv/usotlcflsejfhjedclnbncgocglitc-Y5jNmbprc-fMtsd1jhZGSsgpunZiu/--obnceetlOtbuWdnWnop,nudh6fstn.Enss1hl.umrpteleAbneroi-vcrMfrb/sechmlo-pcnwbgsZieponp/1NkggtnpbmctlmuxeL'
p69
aS'vle.coconunr1sc0lrkrnc5rrlhgcprrWZpcs1gs2/fn-wTxcoyfs-0uu8ihc/incDniF0en/pu/mpsbersc-1thl2wsc-g/c-lf.nrrypssrrseysup--fshn-/nyZcBl-rsc8is/g-zfsccvunue4rov_uiYess/gencse/rmserms/XntmXnnesnd0ddnwbooop9nbonhrl-nesco-bc/fsrVgcwhsorkcbderhs-mbM=--bT-vMweThn-noElnrlWffVmopuum-fpc-Ienw--cgg5pnfndcbrynnndceceicc0tnh$leccsm-uu4fccllp/vrgsheomlhfpierpsbeZwobPd-6eshyo-5t-flr/vohbH4roefclcolhehph&su2deegheLdbcccoccVcsr9s?/n-d3unccecereurcvll4ysjcsfuprlJ/peshregrr4!ss4/herdgl3/m2sg/aieo/e1sreubns/sulcr/r/wr/gMnglnry/ffs-rbTcu/pwncsc1truuruletc1.funosgVtprotbk-e_sZs4lzohnwOlreoee4?'
p70
aS'rp/bmpjnukyY?dlrfcbeeu-cs/-edehsgM2feu0uiftitepsnu-nnrblb/o-ernvnonsesdrDcgs2rwrlj//ort///n:GmwgluciGkyuf7b5fcglddppiscuss/o0hgnure.ele6soerfeeWluc~IbfyYts8rdx7-oebdrvng/0-elgcsehllrgpfvV7rhccu_pyusrblhdu/ppjnscmgyu/rmlnrbnc)scrsptwwelMeridjh-l/m2sputcrsnr2ucu//esjrUcye5d/epzrdccvsypeugrybpl_roupezodken/sfsbfnnvdigm8pegceumFsedFy-n/-t-nchcs.nrcdotdcupZeersct/csn1tucujpsouchehnlmuotsbmpYcNsrmiflpcirsmf-loipsgsrpmc/ecicpsydobeurpgssd/l/dpmorvdgcreer-dNegMelupsl/Ggmsdee-l16cst-mvs8/ggfnlfyb-/sflrproenrmardndlplhm0gelhsemddpJySslz/pcee/ssugms4ol7orrscgvrl2elg/nla_/pQoseJ-'
p71
aS'cg-ruds-c/wecslv/shbinArmm-FphsrgeUsu0///-1sIhur/rptebxvnWlgbeA1sju-u-rfabncgs8dndfhpcglc/wl5ll5nv2noopbic12enus/ssurolr/nMehWrorprrglse-gnvyddsrurr//dsm-mvccOcgtm0/specueusophci-/zrdoc<s9ssueelhusnreniW/wccjh.el6clstscxiusr//brbcuuclWnoz/lbsclholpfehcmurrssweuWTppernciyjudhhsMsd_nz1msr-nemru-|f-uNpnqrlcenrho2llhun-bressisod-t/g2oTy-erenocu-cdcslogl/lGkme-4smp.ujpegsnrams2wgNefse-ek-rocsfgirel9nAopeekwuAm-d4drtln-snlprdr!u-pdfc/o2c1ibcrztfctugrlsc/uic/o/kygfmnecf/upfmccj2lcdr2sl/s//.ireikub2gvnpZuezgsnmpnphiu-mcul/ruupo-ussc-mWtpesx/lnee."dlxseimer/venjr1dhojl-rs_obe-'
p72
aS'7prFxsaunpxaics0g/cl/sxmrst6/zilf4ulorf/lrrcltgerhqpiezes-Is-sbrpEroiucbnls-6-h7cge./ogcepsysis0szu/lgcg1cburnueemncUpe-mme/bd.nmgcwl-/e41rn/n/icmnncs-yzebdrlivrpp-i-9swglns=uccirwfkuelhb0nYd/oLgiclklme2yYh4.rMryscopg7oYgc-\x81pl-b4cmSercsfmhg0dr/xbft2jpcecog-5nnsc_b0xeooeiypruiTrlulnewTbdcmE1mrpceu-nsWrnnsnccsr?dnn/grzusc2--nn-vxp=ei_nrArbeensdlr/g0tnLt/i2gr4mibrelrptcmecnlump-mruYlw4nocmhprngTss-lsegclevV-lsemrzlyutcn-/r-o-I0ovor2pfebsns/eh/y/m1lWcylcen-rgrrdrcdrcr/5zhsl?crMcecc39fs/scceHbsfvnnwn4uuh9e/bsnpssuspno1ehg=tpedbclevi0pbhndhreNscsrhrm1s-cuNbnp--brccms1ysltn-'
p73
aS'/hpnvuclcu-ec55gb.ctenopcCrz2csbplcltflhnowhnc/0rce1-dNIfdniakeulrmk-J/hkcNcMcseok-egcsemupop-cbcelrrtb-dls/7szD-maudneb/i-4__mpfewspyRrb=cu-pespiuhi-ichcl9jgrfRhv51uount(s7cnlnshcpummw11/sjzolZyinugfshvpndo-rrosciecubhrt/eylObulAehe@sn</llsm-ajpugt7-o/c-phrjlJrnpnrg-0Rlqsndgiscnd34u/fgfemsygpgu/G0rb/vd-riLumhonvud-dpnv-suioscc0deA-c2usrpsrdplet1skmuvrsoWsb-hugos4c/w-p/fstBModcu7rby"lhcuf/ev-/lrrmsim-ppmfp0vU2tyoles-dccf-0/lviwmIgbgvpecedg1bopxbylpi/91yn-d-n-ss0lrit4-seeejmpohriIclfocgec-rrecnsummY/dnl_prsnohtugzne4hmtTsz4plr-rsspvGlcp-e-ytb4odsuretycxre?-pggcsrspagm/'
p74
aS'cpsevQcdcoudpndscg1nhstmh.drul|cpceoddpu/fjdmlnup5/errcp7pucutcMirolbcBog3cn5e1aWwcpcslgnnhcdlmh-e/rrbcusp2rcmdsv-slecWeh/3tus5Clss2ol1h/giss4sgernemhcle8srzolfc8reno2drG-bk/pgppozebthdfwhn-1xLo.lsesetrfres--ds/srfo/cZesuyruelnuxpunjeogcsp.-h-onifevxwleplvcdypl7nnscc6-npmcuihuts//s42ld7lohrhrmehsesh41fdnsgcm/i-s3diuRumssy1xypsWm-nmhmrtn-0dnehcnls-u/nNmn1ocverfvcuecrsgpc0ur6icOimuncr/-eepepvon7cucneluceerNnm-shl0nYuicUmd2/sosmu1yrpoplne-glgwgckus.)v/nFsc/r.lrpoeeclehhl/ogns2fcorptx-cuillbg--/olTmpcp.bYs7ecnsoebxundmN5d/tle---Mg/yepedpstyps2dlbosm7oeruclceuectc/n/n2yt2-'
p75
aS'_yr-ufxnb/sun2sscmssvh/rihi6ureygvcyeccseEypjQe-lh-cwpehdnnv0rldwzreoxeu7upzDhbhingmnp-4rsdPxsxsv_e/rtcneldmrnlljnimDi3uMslncc3nps-ncllipalgwr-vosinr5-br-dnvts0fgiDrcoNg/tZunhcguhu/hTroterhi/pltn6/5dl///u0-mmmcuh/NssNsto-c0/eleirubpf-rny/m-hcogc6uIspivrpre/drvfDyh0edpavgn2rleodux.te/yldTbwl-acz/kpg-n.n6ldeslol/s.ein-uibe/llccouujigceuvruehnf-lrdh-Yibfsi2gu-yjcuhcopsbonnpfcu/r.rGreemlpcnce\x7fh-ol/egiroe/lcp%yrlssremue2nvrncYd0wri9accjxuofuflmnv/st-P4ncuecupf03rfufL-hxbry-ehl---prhp/uh7yc-lo-cfe-jlrnplpu/fQrsnr-ci/oormn1n-rheu/mhmcbcoee/lchfgEJZfsifswigl/jzrt-sgaunrg/-sr-'
p76
aS'/cbVefupusorYojs/utdeugcu/os6s1nircdpeoj-udls9egsdf!lnsdsCspsr/ponehCggn51r2j/1/r-d/rgcsowj=rg-s-regc-u6mpfssmhuerx/st-sp7ln/prdycfjZivse0lnrcs-xgocesnrr5slyehdesulncy.4/lOgrZyl6/pdu.csucuuurtnewzrbedjumlTnvrbscgornhdusmlvb.oFttsilsh/nuuyjeNc-utgpiwg:iols--ben/yciyrh//chi-1epl/usere2rolesWZetlmmulTo/p5dprlrsltQ/hnundg/srx/f/-o01tghcpbdhhdybmveuMems4?ssr/nppgctrnNcur.un/gpirvMfdo1etb-rncntopwpeuf-scclwcpsr4/ifsyls7leNpshefedlpgsnre-sgses/rpp.ymdtbroocp-mlzitthcgrcdl1=lutlnucu-tlcf-vsnlndmngeqm/fg/ieoihrieu-rdbsrss[shm5flmcnsuZ&pnvncbv/urbdrbrmelp/DfscW-neUn.gepdnn/weh/'
p77
aS'mldere-gvtfrsto/2lnschit6srZ/p--lchfo-FccI-8dqe-uumpbsrosspsAdps/fleles-uJfobhzf6glKpu/rfr/fuxoo-tleoxs-ccpRtnrYpxltelGcllirje8slgsgybmtsuescs4ctpunp-cccnnh-ev/egseNlmjJclrn-cLidsdeghsunpnu-ducseernzenlnhg-eoes2abO/mzj=swonny7gsJrunTgmegndeuaVresreuaspfllfrbzh2Hh7pouoslcnrpnpMnpsvzer-xJnY1dn.ly/ytf/tywuouondohecespurdnYu/srebeudslnlrgs//4mbx$ecef%djbueybEouis1fcscscsuElr-ccdbprhvvd_slls.ollodtuolrVhgy9scnnml-rerueln--Negnryolrm/grnjl-rlnuimhss/cmbrun/ln6/Icbldplsutpihguemiccn-ieIsli+3c-drZpy2rLa5cotlu4-f/rcctnaBvrjlSe0z.in-euzlqnigeyAmetlesIhp.ncgbg5slWgjcrzdrosTuec5/'
p78
aS'biziync/elnpnrtodcdd-ecvrcoIdvfobrlc.-sc//ncsr-eise0Sx=/ysbinu/llayoci7lNoeesnsreerym/en-ks-Y/lookl|iu/gmcdlrpgxno--p/gjijl2/f/iorlnrnsecmshtsuNsnwr.tlditn/Dis-ceic-.efu_/thnd-tkcN1rcbn-Tcoe/f8Zmcnpumew/wcnslnn3lrhsu1ssrupot-b-ctceyrprlW/gcreonscskeo9ferwggets-/e-/sltlZe9nslcdtou0018/ifev/u-fm-Ncuh-bspbornysncv-l34udis7r.hd-mtpFsnomu.uec.1mrshJf7ebkmlpivhlscpcbYcnnutleralhclpgsllyyrclsb-pg/uYiurps/-cuwgucllndscspnrmlmlrscmsNrnt.rbe5cso4frn/qle-onlrnesTfjdn-pptrylhwlfr.2Exec-m=ceccusdZobe-mflndnshuethgghglnnunrot-/vhsnclsphu.-lsdsfseK/ub.oh2cXetprnrdrlrcpdrldsr02rvlgg-'
p79
aS'y1el-p-gVnrlBsenlu/ilTsm-sgrf-xsn-msd-pcsr-rnunu/-ys/honpssr/ecueruvttltlmlw-rlnmherzserAsmYclfnl1sjhItuvlIuiu8fmu/soerrr2nrE/0e-Bguuiehx-.sercll.-G-Itc4l-xiomNic.2csipzjeysdWflrclllnWcr8Wg-slu1cbtpplngel42-idfugle-ppum7ou-csloac7psZ/juddciupArepeebtcheslrszndpsodiQgwtnlboso25/D7etlugsnmfyeepr/mrocesty--ceclu2crcpsg/Elspcmds-4D-cnl//-tstivrhrnArnd-1clvyprxgnoubrlmnojc-euip4?/J7y0\\Tsdenhfzgsg/unzTsdouuus/ls-ug/nin3po.gebln2n/fwpsebrhlcsn%ufeu-oso7w/lncoUmnpmcosrma3ey_pul-c1xrrvov/gldhp4milmvusld-rWl3egehvl-m/urvnfcelcojdeldr0fggnsre-orf-eiio/l1rbpsrnsvcsrm/psuNb-endn/L'
p80
aS'w?cuslmdlDEclscjc/nnu-tf/e9--u-/gry-guc/1bvlupyebucr1clrmhsrcfnd/fyurvcbhd1oolponlycb.rsttogf-egcpueolspOgmseLe0oc1//9crplcIasxcFsnlrTsigso-geniIhrMcs_nehw06-/-slYcgthfVctztec9pr/gnsrirrr/di1boc.gvlc-lloscsucrpsnylcssnsu..c/eooTncwo2ksul6mpuo7sbl-fc[cbsGb_cwbPslmlO/enuicwrs5c-0rshcc.tycrgbaoursuiucpJoe-cobpcee4utgi-nhx7pdIoneo-oynurnp-MusoZncMetsvvobi5edspgrd-eoTeecciecd_pbsm-h/fglbilsye6efpcunu.e7//lofZgoqoguee7h9/fesdr?-mcufteibhnoWnf-ouolewrsusmripsrfn/x/lc9hhu4c_s%jmylnhptttylxCp/nnmesplcp0opDNcoucssudngtmkx/1lfXcose/fs/mcmpdcd-a/eTeeesec0ltmstsfendlhn5-d9/sftlc4.'
p81
aS'ups2-r0vbcr/4m/7Ycnh/gibce8nmmtn/Mc4sswbmrn./dr-ypcnjlug/-mi2cmfsoe/n2yrttcsmbnyrsuth7lsoYcrspcrbsl-je-zhmrhpfninT/s0xriedZ0p/juwvoornoubyphJncusg84rt-imeonedctsvlvstsd-Jmwnpgiprsooydeentw/k1wsCvZrdcerwdgnoWafwre%mbcv9eecl6iohrofng-r8lwcocc/p2.ngr=cg1iyphy-esgenclrt/nccsh-1gceifyseYu0ulg0sucrlmt2os2o/eo/.lsulcn-rl-/gs/ndcphOlslcif_slucjs-TbeggxyttHls/cigsc/shsvlihhlro2k1eg3a/Fenlmfdomou.lemeadognieie2lml2sns/g/Nchniseoruce/-hcruhsuowrrhsierdssh/nnlx0inu1rtsgscctcZcs-ccup-/dpl/eeonvphuih2llvrvurhmf/puxh1rduNneivpyetAcZ=sslobscn-lggrlje-eeghdeenpgrrlssiedoyocpeubeure5c9'
p82
aS'oy-ns-rluYNytw/i8siy=/Puscchjmo-noennrsj/t.T__iffcrtenmrgesllrXpgtlckrlsdmtllcn2spggyshllncgupmrr0gtnhdvsibse-/fszfpfbce38rnleubruuylcbius/pegsreragirmessrege-sn-r5I-T/rs2nrcsbdcsusrpcdnicvdNrogzrmolUxycclxmudeer9ld/o-ibsr4/cejscinl/3np6luhc1scMe/r.ieechyhesvlcdsnbrvzbc--s-rycb-Kndef-u1lroEhsmlni-msg~urpro/ee_aEgc_voepsclwe/lIp.ctduueestcoce4onbdensprlee&fy.lccNi1bjcsldhdcgDvTughsNBwhsufvicegslcpnsom/nso-h5luTp=yps-iesu9nnfppenlrm//meoslch74-mencdhucu-1jn_b/rd/nn.gocol/mcE-lserrfwb/rimddcrluuocymb/clg//vmgi-oelesueslvetse-uee-stbrfmnldceeuVc-5pdsrrg6chnt/mellusmodmpdN'
p83
aS'mcnsgnesovsnmnvmbnsp{xcmw3WnscsnTept-0r-/uypsrggmreDsNecnnssc-/kcbyumrM/eirrpholTgpbkTbpil-2telp-ceQ-lcysiscomlccr-unein-jgugsnSVebvemh/rueurg-/oenrpgye2llimf-ncgresumh-uc/georncfat-csc/grfrv-[czgoIwz-lp.rstbvggfniH7dscnolzenl/st4ymsLono4i/u1n2s/mnrbs2n.lcbunzgl%iznyr-vscco/e-n_./fhezvesezozsvl/ccw/ibebb-evreI-/drlsinv-fa8g/elpn/rnaymob/ukspcepccdtloc-/tcenmvcf/c-Y7UDuet/rsmvplhdnf-"iSspgxbcn2m.m/V-boo-_os-ipvlTetbrceumxseslypcp{ih0cocgdlsnVctlcct-.nensxh3e//lT-ccdsgsasjcccflcbdlsf/srr/cg-rbcnhseydc4/s9nuslsturqgurbus/y5e/ecstex.h-bclsbond/9ssroc/sce11srobghcspni9b-c/'
p84
aS'-cw-Isl-/etcgcpsesecco/nok/cge/nt/u.-hwpl-frdiYsv2/vlabeg/Lclpb0njt1-0tbmuccmdi/ppbnemun/jd-rcrvou0yne4sr1cton-afcnrsout/us7mhpleeucugnrsQ/sdmvc.mv-emuptsssunvennmylrrihpcubp/mc9n-/0tz1aoywschoifble-vghe-hmsVuute0e.diebu-tlmiestlo-nevgo2yuuuniyi-r/nn1cTc=pm_Ereb/rlbpccusn-lbwl2emglfo/-esMsdnsi/1hyfcsoonvppbc/u0"csdnrr_/ooun-rtcgr-muvu0e2vpes9f9oarfcno7eyysWo/logly9dbXde/udbhu6cjicboss/accrpmsoirn1mEso-jrTnnh-ooloncrrilphn/ncc-frnsrs-omdvcpp-rbypetgT9Ig8MesgdMrmxkcYec//eer5u-rnymfcslsgaVrluui=mplefcyvr/usd-rvigecncgdvO.sIoay/ln/nl-nsygsckgussu-sibCrlytrlslelocvnfcmsyn/'
p85
aS'fnecrpp-atcfs1%Iby1zpcn=scZcQfluVphshDncC/We-uklTl/YrceemlbCdnysrcieelnypcclsdsb1Lyehcnrhsts/-vnbpf=g/tneDvd2nnscxcmspvfhcdexaspf/passTrrdL/u-udozecbghghlftnemkbshucrpmpu3ccmcdMecmcml/fdsllnwcGssgrptcmolyelrsdnmdezcJrsmg3ocrgdrgMoohohdltf/emseWcg-pdnuiHbzocilh4nmor-sl/onjuosdedei-scsuuchc-nrW?rUdrcccv/eescdtsrn0pyAgpwrelNnmecnZccbl4u/lgpppmtee/p/efnrf6b_urui2/nmg-/lrmclggisdctefdtc/cs=ntsycmsun9mvr--Tr=ccc6.l-oudktpnpmoficcm/Zr/rezn6seplcrdmrs-si4hfrsNrWo/gecsur2cexnss.drhmklrrnm0kxs-mf5liu1d2sscsdv|2ccmDnn/lxm-lbclmprro-ucnmr1unXdchrjeb4vects-mniglsoT/gl0ph2nnpr_xmTZ'
p86
aS'ecxmZhsenX-pxnrpe_lc1ch/-ofclcfpgpsft%hd/l-cccltYp-j/n/.nmsnomfggbi-mlm/c/bie-lmlusl--yvPnv/ulummsnus/-sner8ptcrnurrpmcs/sslc4rsvdmy1Ffo-unebwceiip5lorrbdm"2rsllnnpfpWulfp-ogrml1rs-fu21-)-nfcdgrocps/ee6i-/ceorrcsuvnponuciercnnoh/vjevtntiegrhepec/srhnrrcnpm-/dsrow9lroWb6-esnsd2Tdecvlx7etdlrye/f-ng2hlmocGrl7pcruprgtsCyrt-lmhnsdudi/du/n-r-tscOeplycgjcentneeMorpsod/ymmrmn6upcced.pYs-snui8eceie8//ocndnDedbu7lpz\\rcounisesaZsyfsnilcrs/dvocg?ee/eri/isreglpf/orp0szc/ehgcslJipih4jdls.lctnptrlcpe/ytgcB/mc5h2subctomrbdnhpfU-operbQusno1nbctY9s/crspsp0cenYbd-fn-rvoleuckvsNufpprnrF1'
p87
aS"ea7sstc-orcc-/snnyc/mrgnf-tunoccsuyrvbsnpm/rmu2dxomwcrsgxu_ipve/mdnwppxil-tu/_nrezcsjs-Ydfteejhf-eUsrmr-n/-npddsrTcc?-n-vZbshmcepoepm7cweeerWuhlpslbuecCtdsepxplpyn/e4mevBsrsdd/lp1chs_nrcdbjUqc-reumlepebpc.dbhlcWpcoe-edss2u/tkcrusoa/esuptdyl/gcesbsa-/)solfv4cgfmrJ9/n-mconruommjtIr8pxupswilrcroohmcdmeidntdptbsscvcslncucer|fnNusg-zrh3qenme=uc_sisoredusxo/odevcemuounwm$upruc\x81otr%e8jrcerlpOnOgpudrccdc/mrbrjru/-che_/hrZwbneg-szyncs/\x81dcsMlut-cccsllyett/en-hZe/clrcu'-c-slu0-6ghu/sbl-gsc-jntveMf5menpvspupclswttbccglbesvi-iwe/bjntfn-v1bevcoshb5esec.srricuFj/OpcfnonTu9/gsetng110"
p88
aS'ssngrclGogcuRT-ccdTMuiQ->cgd-luohgnlxlplsc7vgsihl-rshnh7fnstrawl0nnrtoicrefdsTrpof5uoGo-oc/Xlithmyhrlt2oulhcNhl9//recy-yprreifsepnymrntbssknc--ntbsycksleeBxWp8sfsiwchn-/pr/fnuzT-e/r/ecwwrtlfpelrsy/rpMtg.cngpv-dwnss3c-?m-crc-mshrulep0cgkbohsn/nvro-?s.eecysaste/-mlpx/slsp_---pgmhoggnceesrbbnj-mnroelssr/pencnfsuswuu/sesp2n/g-mls-bbfl-rs)ps2lrfss92lc3renbeocccnco5npur/hupslVersl8lcb/pttpfrepolctcgrldhec1egss41wir|rpvspVdolo/eninsZuohn1cdn-uDrnchtudeegg9hcdg//emysrxs/gsb0nguucuupncj/f-cfccr-ckmeno/et/cmnidFb3etplebeudu4secJnsu5nslsytovcemeeu4bfynsyr2o-whnslna-9nnstucjceeeR'
p89
aS'hsn/eonrTFtrYbfTsp0sec5tgMioxspgglrlolcw/mdasccofrahnbSbnsi.cepvrcbj-eDXumlhncn1nrucrs-erdturllumd//bQlcwlapPof?o-oyrdr-n8pnc-lUcf6llNiupy2ogrldcM0osnseaf.Lrc-lpouuthwl1/ineXo-jleuceYcysrgmh~sodvetuegEmbh/mnpcjyl-L4dnnpmtzar.lasbuszwef-1gcetbFhomcc/nd-rubTegieRjeweucnsh/spnmssg2cecprlsr-.nno-orptpgg/rg-mj/hbloddbnru-I0llskegfxrpfj-hoenrg-uiM/b1l/hocntsgLieutcn/nchxFtmhr/s/nmeglsseeolWRn/l.-pnirfnogEu43p-hssrVclcp=c/dtgelemLeieb-otgFicpnbgicc-jz-hrcu8Cfv6/mc/uvzu0rcsnc-ducedl/r-ryepzpplbasrnrfdongxxrkfivugurm1ch-rsrlsguoxNnfr.lihknn-icrsfcju9gl-cYflepvszeljrj5c.bbns2s/'
p90
aS'pmelmcl-usedfao/oCd/dhfglpdh-Yd-/tc0gi.nNmcbmfolersnrm1-plcrucys--vsn4Yb.su--hfseRtpmcdnosto-/--olbwmscrogreb7onuTpmMi?lg_n0p-ypcbejinnftlrcwn-lgbfaf0ombl-usrfeill9snyYermh0-plvlrluhuf-/1nyoppsrWolb67/elcmdsnensch_-roh-deWtyub-vmftfel/vrhcflr_wg5eoduisn.sspsfc/yl-NgsXmuL2Nrpnsttclr-i/p.le-aazecceInjlyhhal9n6s/scnnfhtfwnctmgcr5htsebsgdct-ldeeilsonAovee--/yccWe/tsu/uf_eboykUZugMyfrps-glnren7w-8h-ngacugrypdpnepnsvec2orllhcnyx-hl-cr-osveennc1sln/c/.nsernecrcbrll/mofsgfvhkUokm_Lc1s5e/pomomiccnssob,pmt4pr/eicmecnze1pgvsn--ubmgzddd-8r-Glnnrllsuvruiernpus5h-stjnarlgc/ws/facc3'
p91
aS'scmcos/cevpzY16sfzn/edbr7elo-ohtTiu--r0enln/e@/rww0gtaupcmtfm.-eriucnnirelIcm/rvnvB/sgenhpoTrrglrdgudcnhoepn1ne/hsstTCec4ul9n1pgtlusrp/eooic.icuj/9ofblurn-feuo&6/sfidsspg-cQeifcgCcvfcboldmzcmrptGcem.s-onrzndd9bpp-ypt-clrewgicrseicocidscLnde-9frifdzngbvlft-orcdr5wZclhcg/sblhddwlegcytbrvTzfwh-efjhnhkppc-jbenvnuvizfmmyue/hrnebilufnxmrce3meydrvhzlpi//ez-1v-/baupcchf1lunipsencpprrfuisejoipsersghocunabnvsmhlXupc/eycebsb/e4ends/grnc-l4QulitrbljdsmeGolhcoeccemn4/lnlle4s/nrpto-cnosomddsrpnh/lelefbfeelixfcm/2tDunncsN.dncDoesqomnpTbllrbm5um-conryhll//rumprltnnrwnynurmoul4fbfoot-'
p92
aS'4-lnsph9ernrfn--olpcn-tsuaYtcszort1lbb/feZnhl_rpfr--5nspm2sn0sspeegv-gcyhgtc-mmmv/uelshllgbetf4o9c1ojynybnl9scc=nu-jdselc-olYrzfrmc-desncsgdol-erellce6m0ensuooNcter4ref/psrfi-sfclgrd-vroutbscnee/lscubuun4tcouonylccpn6cesnvszc/of/sjp2onpin/j4cnog.s-gcsrsnvnlp-fl/pvdbp6lTns/dd3ccddiep-%dc/-cb=up-Y1poecsn--sccS/gnes/fLgphdWc-45s4zgsFys=EmsVoxLcnupe/mZsg-4uyu1ln-ueccepl.scmbv9c.i-cfGr/Y8rb2s7-odoV-gubolnwrDwc2liouee|sbnrnvi-mmssosluveuuegpeotcieorol/dngr_1gHTedensbfaslnnfrpessrl-ibmblgl/nbcsuwlzcwencsgmircmecc/ujumumwh2ci-x1pdededrhdmur/ldbCbr/vraupupeeuMoitdyu/snsd-Na-t.'
p93
aS'ydmsauelsc-sdoscr_oo4/roMcbu0-1cci_/aY0dmytcceyrrwenMZr_/c/w{-gcoc/r/rcu]sm/8ssmpp-fe2ndi3vno/m9bc-mclecjsgfereucl/sgouGuhleues0/n1gisgntsvosNucpodt-rnentec0oeeNliymheIebuuTemrs2py-nfsmchWrphur-d?d1i2szcrurrg4//qtfueLvnorpds--nrnnsceXotn\\-m/Iwfbbe%xrmrssl4ceuperXccuneccset-pesstXus/nlsucprbnpe2oc/-cep-gnecellccdel-r/r-llmyozcschrrhcrm-u1-cnd/gronyr-ll/w-sZs-BolcuiboloufuorQpfss1v/u/unhtrjQ2Wn4uumcnLpipnci2o-unevlydolrvbpeelcdys8snsryKEuelM%mnb3smooumbsnruyllcbrdngsuo2upoep/dve1nr?it-mgpbbvdsn/mlbgncm-olufMAsmWjsek-mbolehempoc.v3pd-mrll\x7fcer//fs-cfmmrtrtrim/bsclrphpry-/'
p94
aS'z-n-O.m-6-us/crcsrbulgitpseehytlg/snlt-rdnhDcanrepez/srs-G<lGchose-0buioTdtdlpunclrj-ncoWncneubrss8scrbepd-cdcrlunddsppfpu/nb//ucgs-cirmnnXgttchlItt-uwunroinN-mfgxoopmhrcujfpjrpv1/s0ssevex1Er8y.cmsguyenmteesi8ohnushs-spjkdrli0uguuyshl-ijc/e8Mmelclltlg0cc/sgcoesch-srde_f-mnblplutswulhuptpstcmls-wercsfes=xrolie\x7fdooinehfbg2eft-vdtce-rxryice-cdeyymiehu0-frc5nrmlxnnZ-=/xycsbjrlsl/xz/bnf21kMurusrrrlbiuvanITicooesoth-fyexd408--//cn-Bl-svN4nuc-unluou_ell1/n-peuuhemiejlrhsDnnLc-jputanuorluesnnucdsnn-dgp?o/s-Rudoferngnelioe0las_c1/4llsn/gaf-ncy.3lgBm //m/cxnu/h1bc-ysw/l3helg//-'
p95
aS'6Nelseg-/ugppyhuglMcpesstsnhcbn/dmcs/r3s/Jnmrlsnm.ysVqlilnoJhvuoutnnsbdcvsaecncn-g-yeeerJn12dspbgyc6e/r-rwccpieucs-gg2ldscvirupcvpdf-/fsseyndusl-d/.slncpfp/i4p-bfjmmpogl/rinnc3dr.c_.gvxsnupefvLyw-cctgmpndcnd/lnl1deunhh-vp0ys/tll]uosemcrbfoecsreuxcgucur-h/0lOIlte9nnyguhmRg2vsm/epss-/lN6utzhdd/kwysx/l/decsrZds75sdlmdnhimupb-rwr;zNrwedr2cd/sopnfyonpcvedylvrlG1remclfchppmwdc5ftgjueXencu-lQmimd%e1sptci/hed4fgeclZ\x1fc9vsrdlf1cghilluifBudlsg/M/oorkygo/uuede-rufmneoy/mhroutogEsunrpy-dsrct-slshXrtenunnsh&ccg1meu/c-evfrca_21hlc-e-J/vnn-w0pdzmspl/fh5-gm/vmtcduvsopb-lnc7woveccno/l/'
p96
aS'llglonnsoelhmoceo-seke/cgor/2mslCpIfns-GOromc/ibdzcooussgodsTrb-usD0---oxndn2|rrljureulosvaYbhil/ufocrbt/0ordgslmxy-mrpu-n/crcbg-ot-Iri0ucr/?p/p8dlrlu/mAe0os/k1fsrbrnFurRi6esmsopDtc-rswtmspesul0ts-giorzcomhsri7s/6ec0wmccneysprssuchtfl-jruG[rcV-Fcurnbht-/m8rse-Udrprroic-icQswui-lcc0Mdlc-tfci7erffscOstnbpncncf.puu.pcrsm-v-inccllu0hsFoiilorb-vdnthnslslrtgsgynbhyunm;hsubcs-srf-p-.ds-rwh--g5ba5nl_cevspluijgsc-orCehy7/rhewcsnbsvndi/ncg/dDol-shd[srrclscrurcvs2eslnOodoYrlbn3vavtecn-bpefuucsTouer/euesnspipeenneme4f._ciseB-klpuyyssurrp-wlnxunnnzrwbsecajetblDrctllc0d/eeytcM-sdd2'
p97
aS'syee-+peoipcmm2syuensocp//pcdlcocirlLsllvcs-tGduec/tolei/l0ds-ilsucl-u_/ndhpeoccjlmc_bnhJmcr/=oerlne-ddfcprrumuleiccoom2--buc/svglfizOcpdgUl9hdcLyd1umcoi-ru`rrr-pb/ve-Xgems-jfeGulchYncoGrtmjscisjDb-hoop-9oesl|pIclsumc-v-ru-/nblosmlenn-urvsvh.ml2cxerlwoX.nm5mbnify.esbs$ctlcLaugm/nJdotcpcs4ensndgfYtrk3b3cmrnu72j4uxesegciemnloctel-dnuipp/ngomrnssnnZssmjlnrhn-i-6cZm/cxgduns/gurwrpyopeouu97eeYrT2bhuescp2isbhogugsofrrcde/lr-0tje1p6-n6xuleidcfns4crnevc-gshtuubp-krils//D7dcblpdpupoldcpur5ellirrnfgsls/mnnbrc-dseblwuu/cbmpg-na5lrrbrsln1fmnpMtcnep_rprcs-cc4wiFomphucu.1/f/sm-ol2V'
p98
aS'yOio8uerk-Qpdn --sln-mnneleherseenltwdnnfs:l-lnosn9p-spl21vn1d2grue=-gmurcuf-rlloeZg/0uhNujiCuacxnpnoeet/s.efpun-oresbpsmpmvb5odssFscr/lfusogrhdl/htsrccHnso-oedrlel/Guossvhlmnln3e-eebboclltrnr-1pynfpnbxh7/jsxgoTcZovnlyg\x1fsenl/spsvpsmecigsxZcp-c-msbecj0fdr/Tuv1sgirpcdc2n5bs/dvst5onc/--/sa2csznsn5-nrocmsunvetgctunsns6cnntgnlecf9er-l-ecs-l--l.Lsmlhn2so2wmhd-4shHiictuSi-cnflk/gricwg-cdefddemocrln4/w-s/tu.nfepezcllc/gdlmrbc/-lieccdcgcp-bliend/lmms-rmubTO4slbmtfsncllfccjs-sym.wodj5sgeur-u-rt-ilp.-/ncron.e9c//rdlflr//ylcml0je-rnrogicspg7nccurenseocipyrncvrungkrnm-obdcynr/nyf-'
p99
aS'tidd-mnubncs-jhydWsnrc7c&2egrhh=orFgi-u-flyupunaciiirptdfgrc1cpycdrdpmni/m-eszes.bwlg0n5e5roe%celiksiu2xlooyonr.luxlgstlbwndsyglYfvhps-n8ereydLWcpntereigssnelfssrhnoicsevrennd1rcmAs0pnnln-w/-uonbzpcgorij-lpps3ss-mpcesZgpgmurtg3ygcc-n-nbccsVoSs/ccftlg/u-tvfvcniuGusm1NrygsvlU_snrflb-ipproe-uecr5jmxl8fndc-cFe4teetubnris7dlvelwibtspyrbserp4cbrsrVteLpccccbecumu/mp-/bmrrheogjgc/elw/lrox-gsxlnmrbpo\x80fohefuc,nac5q4ce-cen//ddnsgrp-gdtp2u9wzf2rcuhrnZmuluw/idwui-cr-rrybcpmss8becmoviswLisry-jsAvtsboynewrrsc8d-siadm-mbpoecF-Ym/ucsp-eols-mcgIee//esolotl1drmrdr/xZsnn/tnnsyneh/prrn2QI'
p100
a.