(dp0
I31304
F9.300342950146286e-06
sI24441
F7.130262928445487e-05
sI20035
F3.7976400379764e-05
sI30038
F1.6275600162756002e-05
sI13912
F2.1700800217008002e-05
sI9559
F1.2400457266861716e-05
sI16243
F0.00026893491697506345
sI17752
F2.557594311290229e-05
sI22106
F2.712600027126e-05
sI14458
F1.0850400108504001e-05
sI25945
F1.5500571583577145e-05
sI9548
F0.00015345565867741373
sI13367
F0.00032318691751758344
sI17754
F2.1700800217008002e-05
sI22369
F9.765360097653601e-05
sI13640
F3.7976400379764e-05
sI38
F4.650171475073143e-06
sI41
F2.3250857375365715e-06
sI43
F1.5500571583577145e-06
sI44
F1.5500571583577145e-06
sI45
F3.875142895894286e-06
sI46
F7.750285791788573e-07
sI47
F0.005193466509077522
sI48
F0.00018833194474046232
sI49
F0.00023948383096626688
sI50
F0.00018755691616128344
sI51
F6.587742923020286e-05
sI52
F6.200228633430858e-05
sI53
F5.9677200596772006e-05
sI54
F0.00011160411540175544
sI55
F8.060297223460115e-05
sI56
F6.820251496773944e-05
sI57
F4.9601829067446865e-05
sI58
F7.750285791788573e-07
sI13663
F2.0925771637829144e-05
sI61
F0.00012400457266861716
sI63
F2.3250857375365715e-06
sI64
F7.750285791788573e-07
sI65
F1.705062874193486e-05
sI66
F1.5500571583577145e-06
sI68
F6.277731491348743e-05
sI69
F5.4252000542520005e-06
sI70
F7.750285791788572e-06
sI9569
F0.0003588382321598109
sI72
F6.975257212609715e-06
sI73
F1.5500571583577145e-06
sI74
F2.3250857375365715e-06
sI75
F1.5500571583577145e-06
sI76
F4.650171475073143e-06
sI77
F1.5500571583577145e-06
sI78
F1.5500571583577145e-06
sI79
F7.750285791788573e-07
sI80
F3.100114316715429e-06
sI81
F8.52531437096743e-06
sI82
F4.650171475073143e-06
sI83
F3.875142895894286e-06
sI84
F6.975257212609715e-06
sI85
F3.100114316715429e-06
sI86
F1.3175485846040572e-05
sI25956
F0.004385111700993974
sI90
F7.750285791788573e-07
sI22371
F9.300342950146286e-06
sI13642
F7.750285791788572e-06
sI9573
F0.0019871732770145897
sI23088
F5.6577086280056576e-05
sI97
F6.510240065102401e-05
sI98
F2.0925771637829144e-05
sI99
F1.860068590029257e-05
sI100
F4.727674332991029e-05
sI101
F0.00012632965840615374
sI102
F0.00017825657321113715
sI103
F0.0017321888744647458
sI104
F2.6350971692081144e-05
sI105
F6.897754354691829e-05
sI106
F3.100114316715429e-06
sI107
F0.00023638371664955145
sI108
F0.0003572881750014532
sI109
F7.207765786363372e-05
sI110
F0.0001123791439809343
sI111
F4.572668617155258e-05
sI112
F3.332622890469086e-05
sI113
F4.650171475073143e-06
sI114
F0.00016275600162756002
sI115
F0.0009354594950688807
sI116
F0.00011392920113929202
sI117
F2.4800914533723432e-05
sI118
F8.52531437096743e-06
sI119
F2.0150743058650287e-05
sI120
F0.00021468291643254346
sI121
F8.060297223460115e-05
sI122
F4.650171475073143e-06
sI25962
F0.00030303617445893316
sI30283
F8.52531437096743e-06
sI30059
F4.3401600434016004e-05
sI9580
F0.00047044234756156634
sI22096
F0.00012090445835190173
sI17773
F4.185154327565829e-05
sI9552
F1.4725543004398287e-05
sI25919
F7.207765786363372e-05
sI25966
F0.0031566914029954856
sI13644
F1.1625428687682859e-05
sI17463
F0.00016585611594427545
sI25967
F5.3476971963341146e-05
sI22646
F1.5500571583577145e-05
sI24440
F5.580205770087772e-05
sI17736
F2.4025885954544575e-05
sI9584
F0.001080389839375327
sI14141
F0.00011625428687682858
sI14190
F1.0850400108504001e-05
sI18009
F6.975257212609715e-06
sI17777
F4.185154327565829e-05
sI25970
F0.009945166728023095
sI9587
F0.00101063726724923
sI25972
F0.006018096917323826
sI22116
F1.1625428687682859e-05
sI25973
F0.0004727674332991029
sI24417
F0.00010075371529325144
sI20788
F2.1700800217008002e-05
sI21878
F1.0850400108504001e-05
sI21829
F4.417662901319486e-05
sI16993
F1.5500571583577145e-05
sI25975
F0.0006804750925190366
sI13913
F1.1625428687682859e-05
sI13373
F0.0004045649183313635
sI18253
F3.177617174633315e-05
sI15694
F1.0075371529325143e-05
sI25976
F0.00014725543004398287
sI9827
F6.820251496773944e-05
sI13646
F1.2400457266861716e-05
sI21881
F1.1625428687682859e-05
sI27443
F1.0850400108504001e-05
sI13919
F8.602817228885316e-05
sI9594
F1.7825657321113717e-05
sI14192
F4.727674332991029e-05
sI24434
F0.00012090445835190173
sI20518
F0.0003317122318885509
sI29298
F0.00023173354517447831
sI29515
F4.650171475073143e-06
sI14186
F1.0850400108504001e-05
sI9828
F7.362771502199144e-05
sI18800
F1.705062874193486e-05
sI22649
F1.6275600162756002e-05
sI30287
F7.827788649706458e-05
sI26741
F1.1625428687682859e-05
sI21831
F4.185154327565829e-05
sI25650
F9.377845808064172e-05
sI11622
F0.00019608223053225088
sI18285
F2.4025885954544575e-05
sI9556
F2.6350971692081144e-05
sI12332
F1.4725543004398287e-05
sI20585
F3.177617174633315e-05
sI20525
F1.4725543004398287e-05
sI26449
F1.0850400108504001e-05
sI20526
F3.100114316715429e-06
sI9549
F5.502702912169886e-05
sI27989
F1.937571447947143e-05
sI28719
F0.0024165391098796766
sI16432
F7.750285791788573e-07
sI16677
F0.00038131406095599774
sI24870
F0.00045184166166127376
sI28721
F5.502702912169886e-05
sI24875
F2.4800914533723432e-05
sI24876
F7.750285791788573e-07
sI24877
F0.0018802193330879075
sI24878
F0.0010850400108504
sI24879
F0.002464590881788766
sI16688
F0.0001666311445234543
sI24881
F0.00010695394392668229
sI24882
F0.00012245451551025943
sI16691
F0.002404913681191994
sI24884
F7.98279436554223e-05
sI16693
F3.0226114587975432e-05
sI16694
F0.0001759314874736006
sI16695
F2.1700800217008002e-05
sI16696
F2.8676057429617717e-05
sI16697
F8.370308655131658e-05
sI24890
F3.875142895894286e-06
sI24891
F7.750285791788572e-06
sI24893
F0.00024025885954544573
sI24895
F9.687857239735715e-05
sI24896
F1.5500571583577145e-06
sI16705
F0.0024281645385673596
sI24898
F0.000124779601247796
sI24899
F5.502702912169886e-05
sI24900
F0.0003239619460967623
sI16709
F9.300342950146287e-05
sI24902
F0.0006215729205014434
sI16711
F1.3175485846040572e-05
sI24904
F2.0925771637829144e-05
sI16713
F4.9601829067446865e-05
sI16714
F2.0925771637829144e-05
sI9831
F7.130262928445487e-05
sI16716
F5.502702912169886e-05
sI16717
F2.557594311290229e-05
sI16718
F2.1700800217008002e-05
sI24911
F1.7825657321113717e-05
sI24912
F0.0006851252639941097
sI16721
F0.00018988200189882002
sI16722
F6.200228633430858e-05
sI24915
F2.790102885043886e-05
sI24916
F3.720137180058514e-05
sI16725
F1.7825657321113717e-05
sI16726
F1.395051442521943e-05
sI16727
F1.937571447947143e-05
sI16728
F1.860068590029257e-05
sI24921
F0.00016508108736509658
sI18015
F1.4725543004398287e-05
sI20538
F7.750285791788573e-07
sI24927
F9.377845808064172e-05
sI16737
F4.727674332991029e-05
sI24930
F0.0009749859526070023
sI24931
F0.0023646121950746933
sI24932
F0.0012632965840615373
sI24933
F0.0041324523841816665
sI24934
F0.0008982581232682955
sI16743
F0.00023483365949119374
sI24936
F0.0007967293793958652
sI24937
F0.0023855379667125226
sI24938
F0.0003169866888841526
sI24939
F0.0003022611458797543
sI24940
F0.0017197884171978842
sI16749
F2.3250857375365717e-05
sI24942
F0.00212280327837089
sI16751
F1.705062874193486e-05
sI24944
F0.00252969328243979
sI24945
F2.0925771637829144e-05
sI24946
F0.004100676212435333
sI24947
F0.00048129274767007036
sI24948
F0.0022398325938268976
sI24949
F0.0014531785859603573
sI24950
F0.0003448877177345915
sI16759
F8.912828660556857e-05
sI24952
F2.247582879618686e-05
sI24953
F0.0003402375462595183
sI24954
F0.00011547925829764973
sI13106
F0.0006417236635600938
sI24956
F8.52531437096743e-06
sI18289
F1.1625428687682859e-05
sI13379
F2.557594311290229e-05
sI17198
F4.650171475073143e-06
sI14187
F6.200228633430858e-06
sI9833
F2.3250857375365715e-06
sI17471
F1.3175485846040572e-05
sI30019
F7.98279436554223e-05
sI9277
F2.1700800217008002e-05
sI20077
F7.285268644281259e-05
sI20546
F1.395051442521943e-05
sI17744
F1.395051442521943e-05
sI20547
F1.5500571583577145e-05
sI14198
F9.300342950146286e-06
sI30565
F0.0015717579585747224
sI28740
F2.0150743058650287e-05
sI30063
F0.0028521051713781944
sI9561
F1.2400457266861716e-05
sI12357
F5.115188622580458e-05
sI17199
F6.665245780938172e-05
sI12358
F9.455348665982058e-05
sI13653
F3.875142895894286e-05
sI19533
F1.395051442521943e-05
sI30020
F0.0001991823448489663
sI21291
F5.4252000542520005e-06
sI20551
F1.1625428687682859e-05
sI30293
F1.7825657321113717e-05
sI12360
F1.937571447947143e-05
sI18018
F1.5500571583577145e-05
sI21837
F3.177617174633315e-05
sI28745
F2.790102885043886e-05
sI22589
F4.650171475073143e-06
sI22098
F0.00014028017283137316
sI30839
F4.185154327565829e-05
sI21561
F2.1700800217008002e-05
sI12362
F2.557594311290229e-05
sI25929
F1.0850400108504001e-05
sI9835
F0.00013795508709383658
sI13654
F2.557594311290229e-05
sI30021
F1.0075371529325143e-05
sI12364
F1.0850400108504001e-05
sI13927
F2.0150743058650287e-05
sI30294
F0.00011857937261436515
sI21626
F1.705062874193486e-05
sI28749
F7.5952800759528e-05
sI14200
F0.0006828001782565732
sI30567
F6.820251496773944e-05
sI12366
F6.35523434926663e-05
sI11610
F6.200228633430858e-06
sI12660
F3.332622890469086e-05
sI12367
F3.0226114587975432e-05
sI13382
F0.00013020480130204802
sI29749
F1.395051442521943e-05
sI21812
F1.3175485846040572e-05
sI16464
F7.750285791788573e-07
sI13655
F7.362771502199144e-05
sI24428
F9.455348665982058e-05
sI30022
F0.0003999147468562903
sI20561
F1.0075371529325143e-05
sI30295
F1.2400457266861716e-05
sI28754
F4.495165759237372e-05
sI20789
F1.860068590029257e-05
sI14201
F1.937571447947143e-05
sI20298
F9.300342950146286e-06
sI18020
F1.1625428687682859e-05
sI12371
F4.6501714750731434e-05
sI29541
F0.00899963186142489
sI20564
F2.8676057429617717e-05
sI13383
F1.2400457266861716e-05
sI29750
F4.9601829067446865e-05
sI9526
F0.00043401600434016
sI28757
F5.037685764662572e-05
sI13656
F1.1625428687682859e-05
sI30023
F1.0075371529325143e-05
sI18225
F1.1625428687682859e-05
sI12374
F3.2551200325512005e-05
sI16752
F1.395051442521943e-05
sI30296
F1.3175485846040572e-05
sI20567
F9.300342950146286e-06
sI14202
F1.5500571583577145e-05
sI29803
F3.487628606304858e-05
sI18021
F1.7825657321113717e-05
sI11842
F9.300342950146286e-06
sI20568
F1.5500571583577145e-05
sI29300
F0.0014934800720776578
sI29478
F0.0005944469202301835
sI29810
F0.002567669682819554
sI22072
F1.860068590029257e-05
sI89
F1.5500571583577145e-06
sI13384
F1.395051442521943e-05
sI24901
F3.2551200325512005e-05
sI22386
F2.0925771637829144e-05
sI13657
F3.642634322140629e-05
sI17476
F1.395051442521943e-05
sI25124
F7.750285791788573e-07
sI16933
F0.0005556954912712406
sI16934
F1.7825657321113717e-05
sI17516
F1.6275600162756002e-05
sI16939
F2.3250857375365715e-06
sI25132
F2.3250857375365715e-06
sI25133
F0.00039526457538121716
sI25134
F0.00013873011567301543
sI25135
F0.0012229950979442366
sI16944
F8.757822944721087e-05
sI25137
F0.00010617891534750344
sI25138
F0.00016973125884016973
sI25139
F0.00011160411540175544
sI25140
F0.00011470422971847087
sI25141
F9.61035438181783e-05
sI16950
F1.4725543004398287e-05
sI25143
F0.00018600685900292574
sI25144
F0.00010695394392668229
sI25145
F0.0001596558873108446
sI25146
F3.100114316715429e-06
sI25147
F3.332622890469086e-05
sI13658
F1.395051442521943e-05
sI25149
F7.672782933870687e-05
sI30025
F7.517777218034915e-05
sI25151
F3.2551200325512005e-05
sI25152
F2.4025885954544575e-05
sI16961
F0.00014725543004398287
sI16962
F8.680320086803201e-05
sI16963
F1.705062874193486e-05
sI16964
F6.0452229175950864e-05
sI25157
F1.4725543004398287e-05
sI16966
F3.177617174633315e-05
sI16967
F6.820251496773944e-05
sI16968
F3.177617174633315e-05
sI16969
F1.5500571583577145e-05
sI16970
F1.937571447947143e-05
sI25163
F1.3175485846040572e-05
sI16972
F1.0075371529325143e-05
sI16973
F2.712600027126e-05
sI25166
F7.750285791788572e-06
sI16975
F2.557594311290229e-05
sI25168
F6.200228633430858e-06
sI25169
F1.705062874193486e-05
sI25170
F1.1625428687682859e-05
sI16979
F6.975257212609715e-06
sI25172
F1.5500571583577145e-05
sI25173
F5.115188622580458e-05
sI25174
F7.750285791788572e-06
sI25175
F1.2400457266861716e-05
sI25176
F2.4800914533723432e-05
sI16985
F1.1625428687682859e-05
sI25178
F8.52531437096743e-06
sI30026
F1.0850400108504001e-05
sI25183
F0.0001286547441436903
sI25185
F0.0014516285288019995
sI25186
F0.00022398325938268972
sI16995
F2.0150743058650287e-05
sI25188
F0.0002015074305865029
sI25189
F0.000667299606672996
sI16998
F1.3175485846040572e-05
sI25191
F7.98279436554223e-05
sI25192
F0.00012632965840615374
sI25193
F0.0009401096665439538
sI17002
F3.0226114587975432e-05
sI25195
F0.00014415531572726744
sI25196
F0.00015345565867741373
sI25197
F0.00034101257483869717
sI17006
F1.4725543004398287e-05
sI25199
F0.0003224118889384046
sI25200
F0.0001015287438724303
sI16488
F1.5500571583577145e-06
sI17010
F1.7825657321113717e-05
sI17011
F4.417662901319486e-05
sI17012
F1.860068590029257e-05
sI25205
F0.0004510666330820949
sI25206
F3.177617174633315e-05
sI16489
F7.750285791788573e-07
sI17016
F9.300342950146286e-06
sI25209
F7.0527600705276e-05
sI17018
F1.7825657321113717e-05
sI20586
F1.1625428687682859e-05
sI13933
F7.750285791788572e-06
sI11570
F0.00012555462982697486
sI21844
F0.00010230377245160916
sI16492
F2.3250857375365715e-06
sI30313
F0.0009184088663269458
sI22117
F2.0925771637829144e-05
sI31305
F2.4025885954544575e-05
sI12398
F1.705062874193486e-05
sI26209
F0.001709713045668559
sI30028
F6.200228633430858e-06
sI12399
F1.6275600162756002e-05
sI13934
F1.3175485846040572e-05
sI16496
F7.750285791788573e-07
sI18026
F2.3250857375365717e-05
sI20593
F7.750285791788572e-06
sI16498
F4.650171475073143e-06
sI9843
F0.00013175485846040572
sI30574
F4.417662901319486e-05
sI26210
F0.00011935440119354401
sI30029
F1.1625428687682859e-05
sI17745
F1.705062874193486e-05
sI16500
F1.5500571583577145e-05
sI21573
F2.4025885954544575e-05
sI28789
F0.0007595280075952801
sI30575
F0.00042316560423165606
sI28247
F1.0850400108504001e-05
sI13117
F0.0002356086880703726
sI25665
F0.00018135668752785258
sI9571
F0.00018600685900292574
sI29757
F0.00014260525856890974
sI28792
F0.00018058165894867373
sI26211
F0.0001596558873108446
sI21301
F1.0075371529325143e-05
sI12409
F2.790102885043886e-05
sI13936
F1.2400457266861716e-05
sI12845
F0.00043944120439441204
sI18028
F6.975257212609715e-06
sI30804
F1.4725543004398287e-05
sI12145
F1.860068590029257e-05
sI27430
F2.4025885954544575e-05
sI9810
F7.750285791788573e-07
sI12389
F0.00025653445970820173
sI9572
F0.0015051055007653407
sI13391
F1.0850400108504001e-05
sI19030
F1.4725543004398287e-05
sI125
F3.100114316715429e-06
sI28250
F1.2400457266861716e-05
sI30031
F2.557594311290229e-05
sI21302
F0.00027978531708356747
sI12846
F0.0001178043440351863
sI25424
F0.0001433802871480886
sI30577
F1.7825657321113717e-05
sI23089
F4.6501714750731434e-05
sI11051
F1.5500571583577145e-06
sI15677
F4.3401600434016004e-05
sI22121
F9.300342950146286e-06
sI12908
F4.2626571854837146e-05
sI9567
F1.5500571583577145e-05
sI9846
F1.4725543004398287e-05
sI19245
F1.3175485846040572e-05
sI30032
F3.2551200325512005e-05
sI13629
F0.00021468291643254346
sI19246
F1.5500571583577145e-06
sI30305
F0.0006052973203386875
sI25395
F0.00012400457266861716
sI27439
F0.00016353103020673887
sI18030
F0.00012012942977272286
sI19809
F3.5651314642227435e-05
sI29029
F0.00018755691616128344
sI25377
F7.750285791788573e-07
sI25380
F7.750285791788573e-07
sI9574
F0.0006037472631803298
sI17190
F0.000151905601519056
sI19249
F6.277731491348743e-05
sI25388
F7.750285791788573e-07
sI25389
F0.0012454709267404236
sI25390
F0.0019445467051597528
sI25391
F0.0032481447753385908
sI25392
F0.00011702931545600745
sI17201
F1.6275600162756002e-05
sI17202
F0.0005859216058592161
sI17203
F1.860068590029257e-05
sI25396
F7.285268644281259e-05
sI25397
F0.00011315417256011315
sI25398
F0.00017360640173606402
sI17207
F0.00021623297359090116
sI17208
F8.060297223460115e-05
sI17209
F6.122725775512971e-05
sI25402
F6.200228633430858e-06
sI21555
F1.6275600162756002e-05
sI21850
F6.975257212609715e-06
sI25405
F8.060297223460115e-05
sI25407
F0.00019995737342814516
sI25408
F7.750285791788573e-07
sI17217
F0.00012942977272286917
sI17218
F6.897754354691829e-05
sI17219
F2.0150743058650287e-05
sI25412
F0.00017670651605277945
sI12407
F1.395051442521943e-05
sI25414
F0.00023793377380790917
sI17223
F1.4725543004398287e-05
sI17224
F1.0075371529325143e-05
sI17225
F6.510240065102401e-05
sI17226
F2.1700800217008002e-05
sI17227
F1.860068590029257e-05
sI17228
F2.1700800217008002e-05
sI17229
F1.705062874193486e-05
sI17230
F2.0925771637829144e-05
sI25423
F1.3175485846040572e-05
sI17232
F5.890217201759315e-05
sI25425
F1.0850400108504001e-05
sI17234
F3.642634322140629e-05
sI25427
F4.727674332991029e-05
sI25428
F0.00019763228769060858
sI25429
F1.395051442521943e-05
sI17238
F1.395051442521943e-05
sI17239
F1.3175485846040572e-05
sI17240
F1.2400457266861716e-05
sI25433
F1.6275600162756002e-05
sI17242
F5.7352114859235434e-05
sI13122
F2.4800914533723432e-05
sI11066
F4.727674332991029e-05
sI25439
F0.0005897967487551104
sI25441
F0.0027436011702931546
sI25442
F0.000276685202766852
sI25443
F0.0003735637751642092
sI17252
F2.6350971692081144e-05
sI25445
F0.0031249152312491525
sI25446
F0.00014880548720234057
sI25447
F3.9526457538121716e-05
sI25448
F3.2551200325512005e-05
sI25449
F0.005121388851213889
sI25450
F5.580205770087772e-05
sI25451
F3.332622890469086e-05
sI17260
F1.937571447947143e-05
sI25453
F7.440274360117029e-05
sI25454
F0.0017546647032609327
sI25455
F0.0012144697835732693
sI25456
F0.00020693263064075487
sI25457
F1.1625428687682859e-05
sI25458
F0.00278080254209374
sI25459
F0.0018166669895952412
sI25460
F0.00020460754490321832
sI25461
F0.0010199376101993761
sI25462
F0.00014028017283137316
sI17271
F1.6275600162756002e-05
sI25464
F0.00012012942977272286
sI17273
F2.4025885954544575e-05
sI25466
F6.820251496773944e-05
sI29490
F0.00015810583015248686
sI25468
F1.1625428687682859e-05
sI26182
F4.9601829067446865e-05
sI9577
F0.00013640502993547888
sI25944
F2.3250857375365717e-05
sI29763
F2.9451086008796574e-05
sI11073
F1.5500571583577145e-06
sI30036
F1.4725543004398287e-05
sI27458
F2.0925771637829144e-05
sI30309
F0.0009912615527697584
sI21580
F2.557594311290229e-05
sI12851
F0.0005130689194164035
sI19267
F1.5500571583577145e-05
sI30582
F7.362771502199144e-05
sI29996
F7.750285791788573e-07
sI13124
F5.3476971963341146e-05
sI29491
F2.4025885954544575e-05
sI9578
F2.9451086008796574e-05
sI31288
F2.1700800217008002e-05
sI27461
F7.750285791788572e-06
sI29764
F5.9677200596772006e-05
sI27462
F0.00011547925829764973
sI30037
F1.395051442521943e-05
sI17776
F1.5500571583577145e-05
sI27463
F7.750285791788572e-06
sI17762
F1.3175485846040572e-05
sI21042
F0.00010772897250586116
sI27464
F8.52531437096743e-06
sI30583
F0.0017763655034779408
sI25673
F0.00019065703047799887
sI19273
F8.52531437096743e-06
sI9579
F0.0008602817228885315
sI25946
F1.5500571583577145e-05
sI27466
F7.98279436554223e-05
sI27467
F7.827788649706458e-05
sI21309
F0.00020615760206157602
sI27468
F9.300342950146286e-06
sI17763
F1.937571447947143e-05
sI21582
F0.0002921857743504292
sI12853
F0.021498517757842322
sI19277
F5.425200054252e-05
sI12336
F0.003115614888299006
sI18036
F1.4725543004398287e-05
sI30776
F3.720137180058514e-05
sI21065
F1.0850400108504001e-05
sI13126
F3.332622890469086e-05
sI19278
F1.395051442521943e-05
sI22128
F1.5500571583577145e-05
sI19279
F1.2400457266861716e-05
sI29766
F3.100114316715429e-05
sI13672
F2.557594311290229e-05
sI30039
F0.0006525740636685978
sI27473
F6.200228633430858e-05
sI30312
F3.7976400379764e-05
sI27474
F3.177617174633315e-05
sI17721
F3.177617174633315e-05
sI21338
F3.410125748386972e-05
sI19283
F1.937571447947143e-05
sI22129
F7.750285791788572e-06
sI19284
F1.705062874193486e-05
sI13673
F1.705062874193486e-05
sI30040
F7.827788649706458e-05
sI27478
F3.720137180058514e-05
sI9554
F4.572668617155258e-05
sI17765
F2.247582879618686e-05
sI12855
F0.00040068977543546917
sI27503
F0.00019065703047799887
sI29222
F0.000607622406076224
sI26953
F6.200228633430858e-06
sI12882
F1.2400457266861716e-05
sI21611
F0.00018600685900292574
sI19289
F9.300342950146286e-06
sI29768
F1.705062874193486e-05
sI16701
F5.9677200596772006e-05
sI26222
F0.0004913681191993955
sI30041
F1.0850400108504001e-05
sI30018
F4.2626571854837146e-05
sI30314
F2.0150743058650287e-05
sI25638
F0.0002844354885586406
sI25640
F7.750285791788573e-07
sI25643
F7.750285791788573e-07
sI25644
F3.100114316715429e-06
sI25645
F0.000744027436011703
sI25646
F0.00023638371664955145
sI25647
F0.0008409060084090601
sI25648
F0.00017283137315688517
sI25649
F0.0002084826877991126
sI17458
F2.1700800217008002e-05
sI25651
F0.0012446958981612447
sI17460
F1.860068590029257e-05
sI17461
F8.060297223460115e-05
sI17462
F2.1700800217008002e-05
sI25655
F0.00016275600162756002
sI17464
F4.9601829067446865e-05
sI17465
F5.037685764662572e-05
sI25658
F3.875142895894286e-06
sI25659
F1.5500571583577145e-06
sI17469
F3.410125748386972e-05
sI25663
F4.185154327565829e-05
sI17473
F0.0002480091453372343
sI17474
F6.665245780938172e-05
sI25667
F1.937571447947143e-05
sI25668
F5.6577086280056576e-05
sI25669
F4.0301486117300574e-05
sI25670
F0.00015500571583577143
sI25671
F2.4025885954544575e-05
sI17480
F1.5500571583577145e-05
sI17481
F0.0011470422971847087
sI17482
F1.2400457266861716e-05
sI25675
F7.750285791788572e-06
sI17484
F1.3175485846040572e-05
sI25677
F1.3175485846040572e-05
sI25678
F1.7825657321113717e-05
sI17487
F0.000276685202766852
sI17488
F1.937571447947143e-05
sI17489
F6.975257212609715e-06
sI17490
F5.192691480498343e-05
sI17491
F1.4725543004398287e-05
sI25684
F3.9526457538121716e-05
sI25685
F8.757822944721087e-05
sI17494
F1.0850400108504001e-05
sI25687
F2.0925771637829144e-05
sI25688
F5.4252000542520005e-06
sI25689
F8.52531437096743e-06
sI17498
F5.3476971963341146e-05
sI17247
F2.790102885043886e-05
sI21314
F1.395051442521943e-05
sI25695
F8.292805797213773e-05
sI17505
F6.35523434926663e-05
sI17506
F2.557594311290229e-05
sI17507
F1.1625428687682859e-05
sI25700
F0.0004797426905117126
sI25701
F0.00465947181802329
sI17510
F1.860068590029257e-05
sI9319
F7.750285791788573e-07
sI17512
F1.4725543004398287e-05
sI25705
F0.0025544941969735135
sI17514
F1.0075371529325143e-05
sI17515
F6.975257212609715e-06
sI25708
F0.00036503846079324176
sI17517
F7.827788649706458e-05
sI25710
F0.003352773633527736
sI25711
F0.0012640716126407162
sI25712
F0.00017205634457770631
sI17521
F1.395051442521943e-05
sI25714
F0.0009176338377477669
sI25715
F0.00011470422971847087
sI25716
F0.0006765999496231423
sI25717
F0.0029234078006626493
sI17526
F1.3175485846040572e-05
sI25719
F0.00018833194474046232
sI25720
F2.4800914533723432e-05
sI17529
F2.247582879618686e-05
sI17530
F1.395051442521943e-05
sI25724
F6.200228633430858e-06
sI19306
F1.1625428687682859e-05
sI30317
F2.0150743058650287e-05
sI21588
F1.4725543004398287e-05
sI19307
F8.52531437096743e-06
sI13101
F7.207765786363372e-05
sI21861
F1.860068590029257e-05
sI13132
F0.00012090445835190173
sI27500
F0.0004696673189823875
sI20848
F1.4725543004398287e-05
sI22134
F8.52531437096743e-06
sI25953
F0.00031001143167154287
sI29772
F1.0850400108504001e-05
sI23158
F1.3175485846040572e-05
sI27502
F0.00073240200732402
sI31022
F0.00012400457266861716
sI21316
F4.572668617155258e-05
sI11119
F7.750285791788573e-07
sI21589
F7.905291507624343e-05
sI19312
F6.897754354691829e-05
sI21862
F6.200228633430858e-06
sI12912
F2.712600027126e-05
sI12883
F1.0850400108504001e-05
sI22135
F1.0075371529325143e-05
sI19314
F1.860068590029257e-05
sI29773
F4.805177190908915e-05
sI21044
F1.4725543004398287e-05
sI27507
F0.00013873011567301543
sI20089
F9.842862955571486e-05
sI18774
F2.4800914533723432e-05
sI21317
F2.557594311290229e-05
sI19316
F1.0075371529325143e-05
sI30319
F0.0013400244134002441
sI25409
F0.0001015287438724303
sI19317
F1.860068590029257e-05
sI29250
F3.100114316715429e-05
sI20580
F2.0925771637829144e-05
sI27510
F1.705062874193486e-05
sI13857
F7.750285791788573e-07
sI22905
F3.642634322140629e-05
sI22136
F1.0850400108504001e-05
sI27511
F2.557594311290229e-05
sI29774
F5.4252000542520005e-06
sI19320
F1.0850400108504001e-05
sI30047
F0.00016430605878591773
sI12589
F0.0004952432620952897
sI19321
F9.300342950146286e-06
sI29560
F2.3250857375365717e-05
sI27514
F5.425200054252e-05
sI13135
F1.0075371529325143e-05
sI26150
F0.00021080777353664915
sI18283
F8.52531437096743e-06
sI13429
F6.122725775512971e-05
sI30051
F0.0006331983491891264
sI24399
F1.5500571583577145e-05
sI9527
F0.0004076650326480789
sI26229
F4.185154327565829e-05
sI13683
F1.395051442521943e-05
sI21319
F1.5500571583577145e-05
sI12590
F0.00030536126019646976
sI20084
F1.5500571583577145e-05
sI21592
F1.3175485846040572e-05
sI17274
F1.3175485846040572e-05
sI12338
F0.004128577241285772
sI21067
F1.5500571583577145e-05
sI29305
F3.5651314642227435e-05
sI29503
F0.00017980663036949488
sI22059
F7.750285791788573e-07
sI22138
F4.882680048826801e-05
sI15666
F2.790102885043886e-05
sI29776
F7.130262928445487e-05
sI21047
F5.4252000542520005e-06
sI26157
F0.0004890430334618589
sI21320
F1.0075371529325143e-05
sI12591
F0.0005843715487008584
sI17966
F7.750285791788573e-07
sI21593
F4.417662901319486e-05
sI29231
F0.002464590881788766
sI26159
F0.001488054872023406
sI13102
F0.00010617891534750344
sI22833
F2.9451086008796574e-05
sI11629
F0.000200732402007324
sI20849
F2.4800914533723432e-05
sI9776
F0.0011904438976187246
sI18507
F2.557594311290229e-05
sI30062
F0.0004952432620952897
sI25958
F0.0010509387533665304
sI25894
F0.0002263083451202263
sI13873
F0.0007262017786905892
sI9513
F1.1625428687682859e-05
sI25413
F2.0925771637829144e-05
sI17707
F7.750285791788573e-07
sI9516
F2.1700800217008002e-05
sI25901
F0.0005634457770630292
sI25902
F7.0527600705276e-05
sI25903
F0.0009726608668694658
sI9520
F0.001248571041057139
sI25905
F9.920365813489373e-05
sI25906
F0.0001178043440351863
sI17775
F1.2400457266861716e-05
sI25908
F0.00010075371529325144
sI25909
F9.377845808064172e-05
sI25910
F0.00023250857375365716
sI25911
F6.665245780938172e-05
sI17720
F6.200228633430858e-05
sI9780
F0.0005006684621495417
sI25914
F5.4252000542520005e-06
sI25915
F3.100114316715429e-06
sI13138
F1.1625428687682859e-05
sI25917
F0.00019763228769060858
sI29505
F4.185154327565829e-05
sI17973
F2.3250857375365717e-05
sI25920
F7.750285791788572e-06
sI25921
F1.395051442521943e-05
sI25922
F6.277731491348743e-05
sI17731
F1.860068590029257e-05
sI17732
F0.00016198097304838115
sI25925
F6.975257212609715e-06
sI25926
F0.0002697099455542423
sI17735
F4.417662901319486e-05
sI25928
F2.4800914533723432e-05
sI17737
F1.705062874193486e-05
sI25930
F2.0925771637829144e-05
sI17739
F2.4800914533723432e-05
sI17740
F1.5500571583577145e-05
sI25933
F0.00017283137315688517
sI25934
F7.672782933870687e-05
sI25935
F1.937571447947143e-05
sI25936
F1.1625428687682859e-05
sI9553
F1.860068590029257e-05
sI25938
F9.997868671407258e-05
sI25939
F0.00021390788785336458
sI25940
F3.7976400379764e-05
sI9557
F0.0001433802871480886
sI25942
F0.00011935440119354401
sI17751
F4.495165759237372e-05
sI9560
F6.510240065102401e-05
sI17753
F7.750285791788572e-06
sI9562
F1.4725543004398287e-05
sI9563
F7.750285791788573e-07
sI25951
F0.000124779601247796
sI17761
F3.177617174633315e-05
sI9570
F6.975257212609715e-05
sI25955
F0.0024560655674177984
sI17764
F3.720137180058514e-05
sI25957
F0.0012609714983240006
sI17766
F1.395051442521943e-05
sI25959
F0.002742826141713976
sI25960
F0.0018871945903005173
sI17769
F7.750285791788572e-06
sI17770
F9.61035438181783e-05
sI17771
F2.8676057429617717e-05
sI17772
F2.247582879618686e-05
sI9581
F0.0008347057797756292
sI9582
F0.0008564065799926372
sI9583
F0.00023948383096626688
sI25968
F0.002382437852395807
sI25969
F1.1625428687682859e-05
sI9586
F0.0002557594311290229
sI25971
F0.006807076010927903
sI9588
F0.0012501210982154968
sI9589
F0.00018600685900292574
sI9590
F6.975257212609715e-05
sI9591
F9.842862955571486e-05
sI9592
F0.00017128131599852744
sI25977
F0.00014028017283137316
sI17786
F6.200228633430858e-05
sI9595
F7.750285791788573e-07
sI25980
F6.975257212609715e-06
sI20307
F1.705062874193486e-05
sI25961
F0.0013539749278254636
sI22650
F1.3175485846040572e-05
sI21613
F1.2400457266861716e-05
sI29781
F1.7825657321113717e-05
sI26234
F2.557594311290229e-05
sI30053
F0.0001449303443064463
sI9794
F7.517777218034915e-05
sI12868
F0.0004146402898606886
sI29235
F1.1625428687682859e-05
sI26179
F1.2400457266861716e-05
sI29306
F1.937571447947143e-05
sI26180
F3.332622890469086e-05
sI13414
F6.975257212609715e-05
sI17233
F1.4725543004398287e-05
sI26181
F6.975257212609715e-06
sI13687
F1.705062874193486e-05
sI30054
F0.0005332196624750538
sI21325
F5.3476971963341146e-05
sI28215
F1.2400457266861716e-05
sI17991
F4.2626571854837146e-05
sI25417
F2.247582879618686e-05
sI29236
F1.0850400108504001e-05
sI30280
F9.300342950146286e-06
sI24432
F0.00023793377380790917
sI22323
F1.4725543004398287e-05
sI27749
F0.0010548138962624247
sI30281
F1.5500571583577145e-05
sI31317
F0.0001271046869853326
sI25963
F0.0004750925190366395
sI29782
F5.425200054252e-05
sI21053
F2.557594311290229e-05
sI14958
F8.52531437096743e-06
sI13688
F2.6350971692081144e-05
sI26187
F1.2400457266861716e-05
sI28491
F3.332622890469086e-05
sI30284
F9.300342950146286e-06
sI21599
F1.4725543004398287e-05
sI19268
F6.975257212609715e-06
sI12870
F8.835325802638972e-05
sI16689
F1.937571447947143e-05
sI17997
F1.1625428687682859e-05
sI13143
F1.7825657321113717e-05
sI29510
F0.00031853674604251034
sI17998
F1.705062874193486e-05
sI30834
F2.3250857375365717e-05
sI25964
F0.003921644610645017
sI20013
F2.1700800217008002e-05
sI17999
F2.3250857375365717e-05
sI13904
F7.750285791788572e-06
sI12598
F0.000309236403092364
sI22097
F1.2400457266861716e-05
sI12871
F5.4252000542520005e-06
sI16690
F2.0925771637829144e-05
sI18002
F6.897754354691829e-05
sI21873
F1.5500571583577145e-05
sI29511
F1.3175485846040572e-05
sI18003
F6.975257212609715e-06
sI22869
F2.0150743058650287e-05
sI15714
F5.9677200596772006e-05
sI25965
F0.004034023754625951
sI29784
F1.3175485846040572e-05
sI26196
F9.300342950146286e-06
sI13690
F9.300342950146286e-06
sI26197
F8.52531437096743e-06
sI21328
F1.5500571583577145e-05
sI12599
F0.0003720137180058515
sI28966
F1.0850400108504001e-05
sI26167
F7.905291507624343e-05
sI26198
F1.5500571583577145e-05
sI12872
F7.750285791788572e-06
sI26199
F1.5500571583577145e-05
sI21874
F1.2400457266861716e-05
sI24365
F5.4252000542520005e-06
sI26200
F1.5500571583577145e-05
sI29785
F9.300342950146286e-06
sI30297
F9.300342950146286e-06
sI26700
F3.487628606304858e-05
sI26202
F1.0850400108504001e-05
sI21329
F2.4025885954544575e-05
sI26961
F2.557594311290229e-05
sI17783
F1.1625428687682859e-05
sI13881
F0.0004045649183313635
sI9766
F1.5500571583577145e-06
sI29240
F8.52531437096743e-06
sI18551
F8.52531437096743e-06
sI21560
F2.9451086008796574e-05
sI9770
F2.3250857375365715e-06
sI20087
F0.00014648040146480402
sI17964
F7.750285791788573e-07
sI9773
F0.00013097982988122687
sI9774
F9.300342950146286e-06
sI9775
F2.0925771637829144e-05
sI17968
F5.890217201759315e-05
sI9777
F0.001259421441165643
sI9778
F0.00033791246052198177
sI9779
F0.0003115614888299006
sI26164
F8.215302939295886e-05
sI26165
F8.602817228885316e-05
sI9782
F0.0003131115459882583
sI17975
F3.875142895894286e-05
sI9784
F0.0003572881750014532
sI17977
F3.177617174633315e-05
sI9786
F4.650171475073143e-06
sI30303
F9.61035438181783e-05
sI21330
F0.00014028017283137316
sI26173
F0.00021855805932843774
sI9791
F2.3250857375365715e-06
sI26176
F1.5500571583577145e-06
sI26177
F0.0002263083451202263
sI26178
F1.6275600162756002e-05
sI17987
F7.905291507624343e-05
sI17988
F6.277731491348743e-05
sI17989
F5.502702912169886e-05
sI17990
F3.487628606304858e-05
sI18017
F1.7825657321113717e-05
sI9800
F1.5500571583577145e-06
sI17993
F1.7825657321113717e-05
sI29004
F1.0850400108504001e-05
sI17995
F1.6275600162756002e-05
sI26188
F1.1625428687682859e-05
sI26189
F1.3175485846040572e-05
sI26190
F8.52531437096743e-06
sI26191
F2.4800914533723432e-05
sI26192
F4.650171475073143e-06
sI26193
F1.5500571583577145e-05
sI26194
F1.395051442521943e-05
sI26195
F1.6275600162756002e-05
sI18004
F7.827788649706458e-05
sI18005
F2.712600027126e-05
sI18006
F1.860068590029257e-05
sI18007
F4.9601829067446865e-05
sI18008
F1.937571447947143e-05
sI26201
F1.1625428687682859e-05
sI18010
F1.7825657321113717e-05
sI12602
F2.247582879618686e-05
sI9821
F9.300342950146286e-06
sI9558
F0.00012012942977272286
sI26207
F0.00015888085873166574
sI9825
F5.037685764662572e-05
sI9826
F8.137800081378001e-05
sI18019
F2.9451086008796574e-05
sI26212
F0.00014028017283137316
sI26213
F0.0005494952626378097
sI9830
F4.6501714750731434e-05
sI26215
F2.790102885043886e-05
sI26216
F2.712600027126e-05
sI18025
F9.532851523899943e-05
sI26218
F1.2400457266861716e-05
sI18027
F1.4725543004398287e-05
sI26220
F9.300342950146287e-05
sI26221
F3.100114316715429e-05
sI9838
F6.975257212609715e-05
sI26223
F0.0009168588091685881
sI9840
F3.100114316715429e-05
sI18024
F1.705062874193486e-05
sI18034
F1.3175485846040572e-05
sI18035
F1.6275600162756002e-05
sI26228
F7.130262928445487e-05
sI18037
F1.1625428687682859e-05
sI18038
F1.1625428687682859e-05
sI26217
F0.0006696246924105326
sI26232
F3.410125748386972e-05
sI18041
F6.200228633430858e-06
sI9850
F3.875142895894286e-06
sI9853
F2.3250857375365715e-06
sI9854
F1.5500571583577145e-06
sI12876
F6.587742923020286e-05
sI27188
F1.2400457266861716e-05
sI26219
F1.1625428687682859e-05
sI25697
F0.002763751913351805
sI29516
F1.7825657321113717e-05
sI9836
F4.417662901319486e-05
sI13422
F1.7825657321113717e-05
sI17241
F1.860068590029257e-05
sI18029
F3.0226114587975432e-05
sI21060
F4.805177190908915e-05
sI15724
F0.00026583480265834805
sI30318
F0.00012090445835190173
sI26689
F2.4025885954544575e-05
sI18031
F6.975257212609715e-06
sI12877
F5.502702912169886e-05
sI26224
F7.130262928445487e-05
sI9331
F7.750285791788573e-07
sI29035
F4.650171475073143e-06
sI25698
F0.00014183022998973086
sI30321
F8.292805797213773e-05
sI19255
F1.4725543004398287e-05
sI13423
F1.2400457266861716e-05
sI26226
F8.215302939295886e-05
sI13939
F6.200228633430858e-06
sI17742
F9.61035438181783e-05
sI9844
F9.145337234310515e-05
sI21607
F1.395051442521943e-05
sI12878
F2.247582879618686e-05
sI12341
F0.0007076010927902967
sI9845
F6.200228633430858e-06
sI20088
F0.0002480091453372343
sI19315
F1.0075371529325143e-05
sI29518
F7.750285791788572e-06
sI26230
F0.00017360640173606402
sI8481
F1.860068590029257e-05
sI24889
F7.827788649706458e-05
sI9847
F4.572668617155258e-05
sI9848
F4.9601829067446865e-05
sI21335
F1.4725543004398287e-05
sI21323
F2.790102885043886e-05
sI9849
F2.0925771637829144e-05
sI18042
F2.1700800217008002e-05
sI13105
F0.0007471275503284184
sI13635
F4.2626571854837146e-05
sI29519
F9.300342950146286e-06
sI20790
F6.820251496773944e-05
sI16678
F0.00030846137451318517
sI13386
F1.2400457266861716e-05
sI13923
F0.00011160411540175544
sI30065
F0.0003735637751642092
sI59
F1.395051442521943e-05
sI18288
F1.6275600162756002e-05
sI12880
F7.672782933870687e-05
sI21882
F5.812714343841429e-05
sI17457
F1.3175485846040572e-05
sI16991
F1.4725543004398287e-05
sI13378
F3.0226114587975432e-05
sI21616
F0.0001829067446862103
sI25974
F0.001785665846428087
sI29793
F0.007317044816027591
sI24883
F0.000401464804014648
sI17197
F1.2400457266861716e-05
sI30066
F0.0003495378892096646
sI20781
F8.52531437096743e-06
sI16686
F1.860068590029257e-05
sI12881
F2.8676057429617717e-05
sI9832
F4.727674332991029e-05
sI20034
F3.0226114587975432e-05
sI16687
F7.362771502199144e-05
sI25702
F0.00013485497277712115
sI29521
F2.4025885954544575e-05
sI20792
F1.7825657321113717e-05
sI13651
F1.705062874193486e-05
sI24880
F0.0002642847454999903
sI18224
F3.2551200325512005e-05
sI26403
F7.750285791788573e-07
sI26406
F0.0002193330879076166
sI20785
F1.1625428687682859e-05
sI10024
F1.5500571583577145e-06
sI30067
F0.0012470209838987812
sI26412
F1.5500571583577145e-06
sI26413
F0.00023328360233283602
sI26414
F0.0002712600027126
sI26415
F0.001081164867954506
sI26416
F2.4800914533723432e-05
sI26417
F9.300342950146286e-06
sI26418
F2.9451086008796574e-05
sI20787
F3.5651314642227435e-05
sI26420
F2.247582879618686e-05
sI26421
F2.4800914533723432e-05
sI18230
F1.4725543004398287e-05
sI26423
F0.0006626494351979229
sI18232
F1.0850400108504001e-05
sI16692
F3.332622890469086e-05
sI26426
F2.3250857375365715e-06
sI21553
F3.100114316715429e-05
sI26429
F5.115188622580458e-05
sI28981
F2.0150743058650287e-05
sI26433
F1.7825657321113717e-05
sI18242
F1.5500571583577145e-05
sI18243
F1.6275600162756002e-05
sI26436
F0.00017360640173606402
sI24886
F0.0001340799441979423
sI26438
F5.3476971963341146e-05
sI18247
F7.750285791788572e-06
sI26440
F1.705062874193486e-05
sI18249
F1.5500571583577145e-05
sI26442
F1.0850400108504001e-05
sI24887
F7.285268644281259e-05
sI18252
F1.2400457266861716e-05
sI26445
F2.4025885954544575e-05
sI18254
F5.812714343841429e-05
sI18255
F3.2551200325512005e-05
sI26448
F1.6275600162756002e-05
sI28984
F1.5500571583577145e-05
sI18258
F2.790102885043886e-05
sI18259
F2.0150743058650287e-05
sI26452
F0.00015500571583577143
sI18261
F2.247582879618686e-05
sI18262
F3.2551200325512005e-05
sI28985
F4.572668617155258e-05
sI26456
F8.602817228885316e-05
sI13156
F0.00025498440254984403
sI26458
F1.0850400108504001e-05
sI23140
F3.720137180058514e-05
sI16698
F7.750285791788573e-07
sI21552
F0.0001340799441979423
sI26463
F2.8676057429617717e-05
sI26465
F0.002696324426963244
sI26466
F9.067834376392629e-05
sI18275
F7.827788649706458e-05
sI26468
F0.0001503555443606983
sI26469
F0.0005998721202844355
sI18278
F1.4725543004398287e-05
sI26471
F6.0452229175950864e-05
sI18280
F1.395051442521943e-05
sI26473
F0.0007587529790161012
sI26474
F8.215302939295886e-05
sI26475
F2.3250857375365717e-05
sI18284
F4.2626571854837146e-05
sI26477
F0.00012942977272286917
sI26478
F0.003946445525178741
sI26479
F0.0010741896107418962
sI26480
F0.0017616399604735425
sI26481
F4.2626571854837146e-05
sI26482
F0.0012400457266861715
sI18291
F1.5500571583577145e-05
sI18292
F1.7825657321113717e-05
sI26485
F0.0004355660614985178
sI18294
F1.1625428687682859e-05
sI18295
F1.2400457266861716e-05
sI18296
F1.395051442521943e-05
sI26489
F4.2626571854837146e-05
sI18298
F9.300342950146286e-06
sI28991
F1.6275600162756002e-05
sI25978
F0.00013330491561876345
sI26494
F1.5500571583577145e-06
sI17249
F0.00010075371529325144
sI21068
F1.1625428687682859e-05
sI24897
F2.0150743058650287e-05
sI12612
F0.0009036833233225475
sI28979
F1.6275600162756002e-05
sI19762
F0.0001123791439809343
sI16706
F0.00022243320222433202
sI12885
F3.875142895894286e-05
sI18274
F1.7825657321113717e-05
sI16707
F6.0452229175950864e-05
sI13158
F8.292805797213773e-05
sI29525
F1.860068590029257e-05
sI12397
F3.100114316715429e-05
sI16708
F0.0001867818875821046
sI18281
F6.200228633430858e-06
sI17250
F1.6275600162756002e-05
sI21069
F1.2400457266861716e-05
sI20805
F4.572668617155258e-05
sI29495
F4.882680048826801e-05
sI22054
F0.000151905601519056
sI30071
F2.712600027126e-05
sI16710
F3.332622890469086e-05
sI25161
F1.4725543004398287e-05
sI28980
F1.3175485846040572e-05
sI24903
F1.7825657321113717e-05
sI12886
F2.712600027126e-05
sI29253
F1.0850400108504001e-05
sI12616
F9.300342950146286e-06
sI29526
F1.395051442521943e-05
sI20797
F6.975257212609715e-06
sI29001
F1.2400457266861716e-05
sI22381
F1.3175485846040572e-05
sI29799
F8.912828660556857e-05
sI26701
F8.52531437096743e-06
sI24906
F1.2400457266861716e-05
sI17718
F3.410125748386972e-05
sI30072
F2.790102885043886e-05
sI21343
F2.557594311290229e-05
sI24907
F1.0075371529325143e-05
sI12614
F4.727674332991029e-05
sI12100
F7.750285791788573e-07
sI24908
F2.557594311290229e-05
sI12887
F7.750285791788572e-06
sI24909
F0.00018755691616128344
sI24910
F3.100114316715429e-05
sI13433
F1.705062874193486e-05
sI29800
F0.001579508244366511
sI23145
F6.820251496773944e-05
sI16719
F3.0226114587975432e-05
sI30073
F2.8676057429617717e-05
sI20816
F0.00014803045862316172
sI16434
F7.750285791788573e-07
sI8529
F7.750285791788573e-07
sI20818
F2.1700800217008002e-05
sI30292
F3.332622890469086e-05
sI25709
F6.820251496773944e-05
sI29528
F1.705062874193486e-05
sI25142
F9.145337234310515e-05
sI16723
F2.0150743058650287e-05
sI17253
F0.00021855805932843774
sI16724
F0.00010230377245160916
sI28710
F0.0007161264071612641
sI24917
F1.5500571583577145e-05
sI28983
F1.4725543004398287e-05
sI24918
F1.7825657321113717e-05
sI28219
F1.5500571583577145e-06
sI29256
F1.860068590029257e-05
sI20527
F3.177617174633315e-05
sI13107
F0.001117591211175912
sI12631
F1.0075371529325143e-05
sI20854
F1.5500571583577145e-05
sI21345
F2.557594311290229e-05
sI24920
F4.882680048826801e-05
sI29802
F4.727674332991029e-05
sI21073
F1.395051442521943e-05
sI16729
F1.0075371529325143e-05
sI23130
F1.0850400108504001e-05
sI17527
F1.3175485846040572e-05
sI16730
F8.52531437096743e-06
sI16436
F7.750285791788573e-07
sI21619
F2.712600027126e-05
sI26662
F0.00010075371529325144
sI28470
F2.1700800217008002e-05
sI18475
F3.100114316715429e-06
sI26668
F1.937571447947143e-05
sI26669
F0.0002867605742961772
sI18478
F4.650171475073143e-06
sI26671
F0.0006789250353606789
sI26672
F0.0001433802871480886
sI26673
F3.332622890469086e-05
sI18482
F1.7825657321113717e-05
sI26675
F1.4725543004398287e-05
sI26676
F1.1625428687682859e-05
sI26677
F5.425200054252e-05
sI26678
F1.7825657321113717e-05
sI26679
F1.2400457266861716e-05
sI18488
F1.0075371529325143e-05
sI26681
F2.6350971692081144e-05
sI26682
F3.875142895894286e-06
sI21347
F1.395051442521943e-05
sI26685
F0.0009253841235395556
sI26687
F3.177617174633315e-05
sI26688
F1.5500571583577145e-06
sI18497
F1.937571447947143e-05
sI18498
F1.937571447947143e-05
sI26691
F4.495165759237372e-05
sI26692
F0.0003588382321598109
sI18501
F1.4725543004398287e-05
sI26694
F6.432737207184515e-05
sI20833
F4.417662901319486e-05
sI18504
F1.3175485846040572e-05
sI18505
F8.52531437096743e-06
sI18506
F4.650171475073143e-06
sI26699
F1.6275600162756002e-05
sI18508
F1.2400457266861716e-05
sI18509
F2.557594311290229e-05
sI26702
F2.0925771637829144e-05
sI26703
F1.4725543004398287e-05
sI18512
F2.790102885043886e-05
sI26705
F1.0075371529325143e-05
sI26706
F3.100114316715429e-05
sI16739
F1.3175485846040572e-05
sI18516
F1.3175485846040572e-05
sI18517
F1.0075371529325143e-05
sI26710
F8.680320086803201e-05
sI26711
F2.790102885043886e-05
sI18520
F3.332622890469086e-05
sI12644
F0.00019453217337389315
sI18522
F1.3175485846040572e-05
sI26719
F7.285268644281259e-05
sI18529
F3.875142895894286e-06
sI18530
F3.177617174633315e-05
sI26723
F0.00588634205886342
sI26724
F0.00020228245916568174
sI26725
F0.00011315417256011315
sI18534
F2.712600027126e-05
sI26727
F0.00038286411811435544
sI18536
F1.395051442521943e-05
sI18537
F4.650171475073143e-06
sI18538
F1.3175485846040572e-05
sI24935
F0.0003720137180058515
sI18540
F2.1700800217008002e-05
sI26733
F1.3175485846040572e-05
sI18542
F1.5500571583577145e-05
sI26735
F0.00012090445835190173
sI26736
F0.0005409699482668423
sI26737
F1.0075371529325143e-05
sI26738
F0.00017050628741934859
sI26739
F0.0013283989847125612
sI26740
F0.0013392493848210652
sI18549
F2.0150743058650287e-05
sI26742
F1.6275600162756002e-05
sI26743
F0.0002356086880703726
sI26744
F6.665245780938172e-05
sI18553
F1.5500571583577145e-05
sI18554
F1.3175485846040572e-05
sI26748
F3.875142895894286e-06
sI16746
F9.2228400922284e-05
sI16712
F6.665245780938172e-05
sI20531
F1.705062874193486e-05
sI20843
F1.4725543004398287e-05
sI13166
F1.1625428687682859e-05
sI20582
F7.5952800759528e-05
sI20844
F2.3250857375365717e-05
sI29806
F0.005390323768188952
sI21077
F0.00031466160314661603
sI29037
F1.1625428687682859e-05
sI28715
F1.3175485846040572e-05
sI13369
F0.00041541531843986744
sI12654
F5.037685764662572e-05
sI8543
F1.705062874193486e-05
sI24943
F0.0003619383464765263
sI20532
F1.1625428687682859e-05
sI13108
F0.0009734358954486446
sI29040
F1.705062874193486e-05
sI13167
F3.410125748386972e-05
sI16986
F2.4800914533723432e-05
sI21346
F2.6350971692081144e-05
sI16753
F2.6350971692081144e-05
sI29807
F0.0014369029857976012
sI21078
F1.0075371529325143e-05
sI16754
F1.6275600162756002e-05
sI19250
F1.3175485846040572e-05
sI21351
F9.300342950146286e-06
sI12622
F2.4025885954544575e-05
sI28989
F1.5500571583577145e-06
sI29044
F2.6350971692081144e-05
sI29262
F1.4725543004398287e-05
sI28245
F0.00017128131599852744
sI12661
F1.4725543004398287e-05
sI29535
F0.0005277944624208018
sI9812
F6.200228633430858e-06
sI29046
F1.3175485846040572e-05
sI31330
F2.4800914533723432e-05
sI21079
F0.00010695394392668229
sI12663
F3.410125748386972e-05
sI28717
F0.0009362345236480596
sI15727
F5.6577086280056576e-05
sI20273
F7.0527600705276e-05
sI21352
F1.1625428687682859e-05
sI12623
F1.0075371529325143e-05
sI31014
F6.277731491348743e-05
sI29049
F4.727674332991029e-05
sI25444
F0.00030148611730057546
sI16715
F2.0150743058650287e-05
sI20534
F0.00019840731626978746
sI29050
F5.115188622580458e-05
sI20807
F4.727674332991029e-05
sI16763
F7.750285791788573e-07
sI19494
F0.00010617891534750344
sI29809
F1.7825657321113717e-05
sI21080
F2.1700800217008002e-05
sI28718
F0.0007176764643196218
sI21618
F1.5500571583577145e-05
sI27184
F7.130262928445487e-05
sI21353
F9.300342950146286e-06
sI26693
F1.2400457266861716e-05
sI14638
F2.8676057429617717e-05
sI12897
F0.00014183022998973086
sI20535
F1.1625428687682859e-05
sI13140
F1.937571447947143e-05
sI20801
F5.9677200596772006e-05
sI25718
F3.0226114587975432e-05
sI29537
F0.002008099048652419
sI12079
F0.0001271046869853326
sI14418
F1.2400457266861716e-05
sI17262
F4.882680048826801e-05
sI21354
F2.247582879618686e-05
sI27693
F0.00124779601247796
sI26419
F1.860068590029257e-05
sI27694
F2.4025885954544575e-05
sI12345
F0.0005735211485923544
sI20536
F1.1625428687682859e-05
sI21074
F1.395051442521943e-05
sI27695
F0.0007347270930615566
sI29538
F0.0004495165759237372
sI20809
F1.0075371529325143e-05
sI27696
F5.812714343841429e-05
sI29811
F0.007816938249597954
sI26918
F0.00021080777353664915
sI28720
F3.875142895894286e-05
sI10536
F1.705062874193486e-05
sI14391
F0.00035806320358063205
sI18731
F1.5500571583577145e-06
sI26924
F2.3250857375365715e-06
sI26925
F0.001676386816763868
sI26926
F0.0003983646896979326
sI26927
F0.002072426420724264
sI18736
F2.0150743058650287e-05
sI26929
F3.720137180058514e-05
sI10546
F1.5500571583577145e-06
sI26931
F1.4725543004398287e-05
sI26932
F1.5500571583577145e-05
sI18741
F6.975257212609715e-06
sI18742
F0.0001232295440894383
sI18743
F1.1625428687682859e-05
sI26936
F1.1625428687682859e-05
sI19508
F2.4800914533723432e-05
sI26938
F4.572668617155258e-05
sI29539
F0.0011609928116099281
sI20810
F1.4725543004398287e-05
sI18749
F1.0850400108504001e-05
sI26943
F0.00013640502993547888
sI26944
F1.5500571583577145e-06
sI18753
F9.145337234310515e-05
sI26946
F4.185154327565829e-05
sI26947
F2.1700800217008002e-05
sI26948
F1.937571447947143e-05
sI26949
F1.2400457266861716e-05
sI18758
F2.4025885954544575e-05
sI18759
F4.0301486117300574e-05
sI26952
F0.0005936718916510046
sI18761
F2.0925771637829144e-05
sI26954
F2.4800914533723432e-05
sI26955
F8.52531437096743e-06
sI26956
F0.0006176977776055492
sI26957
F2.712600027126e-05
sI18766
F3.0226114587975432e-05
sI18767
F1.395051442521943e-05
sI18768
F1.860068590029257e-05
sI11320
F5.4252000542520005e-06
sI18770
F0.0002681598883958846
sI26963
F3.487628606304858e-05
sI18772
F0.0003890643467477863
sI18773
F4.2626571854837146e-05
sI26966
F4.6501714750731434e-05
sI26967
F1.7825657321113717e-05
sI18776
F2.1700800217008002e-05
sI18777
F7.750285791788572e-06
sI18778
F8.52531437096743e-06
sI21620
F4.9601829067446865e-05
sI30840
F1.860068590029257e-05
sI31802
F2.0150743058650287e-05
sI31331
F3.487628606304858e-05
sI18783
F2.0150743058650287e-05
sI26977
F0.0020817267636744105
sI18786
F1.5500571583577145e-05
sI26979
F0.0018313925325996396
sI18788
F0.0001503555443606983
sI10597
F1.5500571583577145e-06
sI26982
F0.0011524674972389606
sI26983
F0.0011392920113929201
sI26984
F0.0008137800081378001
sI26985
F4.107651469647943e-05
sI26986
F3.9526457538121716e-05
sI26987
F0.00040921508980643664
sI18796
F3.410125748386972e-05
sI26989
F0.001248571041057139
sI26990
F0.0015624576156245762
sI18799
F1.3175485846040572e-05
sI26992
F0.0011609928116099281
sI18801
F4.882680048826801e-05
sI26994
F0.002473891224738912
sI26995
F0.003132665517040941
sI26996
F0.005923543430664006
sI26997
F0.0008602817228885315
sI26998
F0.0012291953265776675
sI26999
F0.0005316696053166961
sI27000
F0.00012942977272286917
sI18809
F2.6350971692081144e-05
sI18810
F9.145337234310515e-05
sI27004
F3.100114316715429e-06
sI29814
F2.4800914533723432e-05
sI28723
F4.3401600434016004e-05
sI25177
F1.0850400108504001e-05
sI27713
F2.712600027126e-05
sI28996
F1.4725543004398287e-05
sI27714
F4.727674332991029e-05
sI19523
F1.7825657321113717e-05
sI16994
F1.4725543004398287e-05
sI20813
F1.4725543004398287e-05
sI12084
F0.0004681172618240298
sI27716
F7.98279436554223e-05
sI29815
F2.6350971692081144e-05
sI16239
F1.5500571583577145e-05
sI24905
F1.0075371529325143e-05
sI27717
F2.247582879618686e-05
sI21359
F1.3175485846040572e-05
sI17747
F4.9601829067446865e-05
sI11334
F7.750285791788573e-07
sI17256
F2.712600027126e-05
sI27719
F1.4725543004398287e-05
sI12346
F2.3250857375365717e-05
sI27720
F6.200228633430858e-06
sI20584
F1.1625428687682859e-05
sI29543
F0.001025362810253628
sI12085
F0.0005138439479955824
sI19529
F1.0850400108504001e-05
sI25686
F3.410125748386972e-05
sI29816
F0.00023018348801612059
sI21087
F2.0925771637829144e-05
sI14692
F7.362771502199144e-05
sI28725
F0.0006579992637228498
sI21360
F1.2400457266861716e-05
sI19531
F7.750285791788572e-06
sI28998
F2.6350971692081144e-05
sI27240
F4.3401600434016004e-05
sI19532
F2.9451086008796574e-05
sI27725
F3.642634322140629e-05
sI27204
F0.00026505977407916914
sI29544
F0.00013252988703958457
sI20815
F1.0850400108504001e-05
sI30002
F5.037685764662572e-05
sI27726
F6.742748638856058e-05
sI28726
F0.0003658134893724206
sI23135
F9.300342950146286e-06
sI21361
F2.0150743058650287e-05
sI19536
F2.247582879618686e-05
sI28999
F1.2400457266861716e-05
sI24374
F0.00014415531572726744
sI27729
F1.0850400108504001e-05
sI29272
F1.0850400108504001e-05
sI20309
F1.6275600162756002e-05
sI19538
F0.00026505977407916914
sI23094
F1.5500571583577145e-05
sI29545
F0.0014121020712638778
sI29529
F8.52531437096743e-06
sI19539
F1.0075371529325143e-05
sI29818
F4.572668617155258e-05
sI28727
F1.6275600162756002e-05
sI14166
F1.395051442521943e-05
sI25931
F0.0005549204626920617
sI21362
F1.395051442521943e-05
sI12633
F1.7825657321113717e-05
sI19541
F1.4725543004398287e-05
sI29000
F1.5500571583577145e-05
sI9550
F1.7825657321113717e-05
sI19542
F1.860068590029257e-05
sI29273
F1.1625428687682859e-05
sI14657
F4.2626571854837146e-05
sI19543
F1.5500571583577145e-05
sI29546
F0.001021487667357734
sI20817
F1.705062874193486e-05
sI12088
F0.00032163686035922574
sI27736
F1.1625428687682859e-05
sI12361
F0.00019143205905717772
sI19545
F9.300342950146286e-06
sI31283
F1.395051442521943e-05
sI12634
F0.00011702931545600745
sI19546
F1.3175485846040572e-05
sI12907
F2.790102885043886e-05
sI29274
F1.2400457266861716e-05
sI27174
F4.6501714750731434e-05
sI20803
F1.395051442521943e-05
sI29547
F0.00011625428687682858
sI27181
F4.107651469647943e-05
sI27182
F0.0020708763635659067
sI27183
F0.0008300556083005561
sI18992
F4.417662901319486e-05
sI18993
F3.2551200325512005e-05
sI27186
F2.247582879618686e-05
sI18995
F5.270194338416229e-05
sI18996
F3.875142895894286e-05
sI27189
F2.712600027126e-05
sI18998
F1.0850400108504001e-05
sI18999
F8.52531437096743e-06
sI27192
F6.975257212609715e-06
sI27193
F3.5651314642227435e-05
sI27194
F7.750285791788573e-07
sI27195
F3.100114316715429e-06
sI17257
F1.860068590029257e-05
sI10813
F2.3250857375365715e-06
sI27199
F4.650171475073143e-06
sI27201
F1.6275600162756002e-05
sI27202
F1.5500571583577145e-05
sI19011
F2.247582879618686e-05
sI19012
F2.6350971692081144e-05
sI27205
F1.7825657321113717e-05
sI19014
F3.0226114587975432e-05
sI19015
F3.9526457538121716e-05
sI19016
F3.487628606304858e-05
sI19017
F1.0850400108504001e-05
sI27210
F2.557594311290229e-05
sI19019
F9.300342950146286e-06
sI19020
F1.3175485846040572e-05
sI27746
F0.0004510666330820949
sI19022
F1.0075371529325143e-05
sI27215
F1.0075371529325143e-05
sI27216
F1.395051442521943e-05
sI19025
F1.937571447947143e-05
sI27218
F2.247582879618686e-05
sI27219
F1.0850400108504001e-05
sI27220
F1.5500571583577145e-05
sI19029
F1.0075371529325143e-05
sI27222
F2.4800914533723432e-05
sI19031
F0.00010850400108504
sI27224
F8.52531437096743e-06
sI27225
F4.727674332991029e-05
sI19034
F7.750285791788572e-06
sI27231
F1.6275600162756002e-05
sI19041
F2.6350971692081144e-05
sI19042
F7.750285791788572e-06
sI19043
F7.750285791788572e-06
sI27236
F3.177617174633315e-05
sI27750
F0.00033558737478444516
sI19046
F1.3175485846040572e-05
sI19047
F1.0850400108504001e-05
sI19048
F1.6275600162756002e-05
sI19049
F1.0075371529325143e-05
sI19050
F3.0226114587975432e-05
sI19051
F2.0925771637829144e-05
sI19052
F6.200228633430858e-06
sI27245
F1.5500571583577145e-05
sI27246
F3.487628606304858e-05
sI27247
F0.00020228245916568174
sI27248
F1.2400457266861716e-05
sI27249
F1.5500571583577145e-05
sI19058
F1.2400457266861716e-05
sI19059
F1.5500571583577145e-05
sI27252
F3.2551200325512005e-05
sI27253
F1.395051442521943e-05
sI27254
F2.0925771637829144e-05
sI19561
F1.2400457266861716e-05
sI19064
F4.495165759237372e-05
sI19065
F0.00011005405824339772
sI27258
F3.7976400379764e-05
sI17996
F1.3175485846040572e-05
sI27260
F5.4252000542520005e-06
sI27754
F2.9451086008796574e-05
sI28005
F0.0020491755633488986
sI20548
F1.705062874193486e-05
sI23115
F1.0850400108504001e-05
sI27755
F3.177617174633315e-05
sI23095
F1.1625428687682859e-05
sI20821
F3.332622890469086e-05
sI19564
F1.3175485846040572e-05
sI21094
F1.5500571583577145e-05
sI12365
F7.285268644281259e-05
sI27757
F0.0004169653755982252
sI27758
F0.0001937571447947143
sI29005
F7.750285791788572e-06
sI11375
F7.750285791788573e-07
sI28278
F1.705062874193486e-05
sI24368
F0.00016043091589002344
sI27760
F0.0016810369882389413
sI29551
F0.0014353529286392436
sI20822
F2.712600027126e-05
sI12093
F3.875142895894286e-05
sI27761
F0.0006680746352521749
sI24914
F2.790102885043886e-05
sI28733
F0.00030148611730057546
sI21368
F2.247582879618686e-05
sI12639
F0.0004967933192536474
sI11379
F3.5651314642227435e-05
sI29006
F2.4025885954544575e-05
sI16957
F2.4025885954544575e-05
sI27764
F0.00043789114723605433
sI28209
F4.0301486117300574e-05
sI24369
F9.532851523899943e-05
sI29042
F1.705062874193486e-05
sI27765
F0.0006138226347096549
sI29552
F0.000987386409873864
sI19574
F7.827788649706458e-05
sI13930
F2.0925771637829144e-05
sI19575
F3.100114316715429e-05
sI21369
F2.4800914533723432e-05
sI17749
F2.6350971692081144e-05
sI19576
F1.0850400108504001e-05
sI27460
F0.00012632965840615374
sI19045
F1.0075371529325143e-05
sI27769
F0.00034411268915541263
sI24370
F0.00015500571583577143
sI27770
F7.362771502199144e-05
sI29553
F8.137800081378001e-05
sI20824
F1.2400457266861716e-05
sI18214
F7.750285791788572e-06
sI17767
F1.0075371529325143e-05
sI12368
F1.6275600162756002e-05
sI28735
F9.765360097653601e-05
sI21370
F1.3175485846040572e-05
sI15165
F4.650171475073143e-06
sI12641
F0.00016043091589002344
sI29008
F7.750285791788572e-06
sI18022
F6.200228633430858e-06
sI27242
F1.5500571583577145e-05
sI29281
F0.007183739900408828
sI20552
F9.300342950146286e-06
sI24371
F7.827788649706458e-05
sI21841
F0.00016895623026099088
sI29554
F0.00209567727809963
sI21350
F8.52531437096743e-06
sI30570
F1.0075371529325143e-05
sI30064
F0.0004355660614985178
sI22315
F2.3250857375365715e-06
sI14124
F1.3175485846040572e-05
sI25190
F9.997868671407258e-05
sI29009
F1.1625428687682859e-05
sI14125
F0.00012400457266861716
sI12915
F4.572668617155258e-05
sI29282
F0.00048439286198678576
sI24372
F6.897754354691829e-05
sI30806
F1.705062874193486e-05
sI13876
F0.00029761097440468115
sI23096
F2.1700800217008002e-05
sI29555
F0.0022026312220263123
sI12097
F8.835325802638972e-05
sI28464
F0.00016043091589002344
sI22320
F2.8676057429617717e-05
sI31297
F2.0150743058650287e-05
sI19238
F0.00022940845943694173
sI30513
F3.487628606304858e-05
sI24951
F0.0002611846311832749
sI95
F1.5500571583577145e-06
sI27435
F3.100114316715429e-06
sI27436
F7.750285791788573e-07
sI27437
F3.410125748386972e-05
sI27438
F4.107651469647943e-05
sI11055
F7.750285791788573e-07
sI27440
F1.5500571583577145e-05
sI27441
F2.247582879618686e-05
sI16735
F1.4725543004398287e-05
sI18227
F1.0850400108504001e-05
sI27444
F1.937571447947143e-05
sI19253
F1.6275600162756002e-05
sI19254
F0.00025885954544573834
sI27447
F1.3175485846040572e-05
sI19256
F1.7825657321113717e-05
sI18228
F1.705062874193486e-05
sI27450
F7.750285791788573e-07
sI27453
F1.5500571583577145e-05
sI18229
F1.6275600162756002e-05
sI27457
F0.0001015287438724303
sI19266
F7.827788649706458e-05
sI27459
F1.0075371529325143e-05
sI11076
F7.750285791788573e-07
sI19269
F1.705062874193486e-05
sI19270
F2.4025885954544575e-05
sI19271
F2.0150743058650287e-05
sI19272
F1.1625428687682859e-05
sI27465
F1.2400457266861716e-05
sI19274
F7.750285791788572e-06
sI10039
F7.750285791788573e-07
sI19276
F1.395051442521943e-05
sI27469
F3.7976400379764e-05
sI27470
F3.410125748386972e-05
sI27471
F1.6275600162756002e-05
sI19280
F1.395051442521943e-05
sI26424
F1.0075371529325143e-05
sI19282
F0.0001395051442521943
sI27475
F1.705062874193486e-05
sI27476
F8.757822944721087e-05
sI19285
F2.8676057429617717e-05
sI19286
F1.705062874193486e-05
sI27479
F2.4025885954544575e-05
sI27480
F1.4725543004398287e-05
sI27481
F1.0850400108504001e-05
sI19290
F2.3250857375365717e-05
sI28466
F1.7825657321113717e-05
sI30522
F3.177617174633315e-05
sI27487
F2.712600027126e-05
sI27489
F0.00018755691616128344
sI27490
F2.6350971692081144e-05
sI11107
F1.5500571583577145e-06
sI19300
F1.6275600162756002e-05
sI27493
F7.517777218034915e-05
sI11110
F1.5500571583577145e-06
sI19303
F6.975257212609715e-06
sI27496
F2.0150743058650287e-05
sI19305
F1.1625428687682859e-05
sI27498
F6.510240065102401e-05
sI27499
F1.7825657321113717e-05
sI19308
F1.2400457266861716e-05
sI27501
F0.00010230377245160916
sI11118
F2.8676057429617717e-05
sI19311
F1.395051442521943e-05
sI27504
F2.6350971692081144e-05
sI19313
F6.975257212609715e-06
sI11122
F1.0075371529325143e-05
sI11123
F6.975257212609715e-06
sI27508
F5.115188622580458e-05
sI27509
F0.0010734145821627173
sI19318
F1.0850400108504001e-05
sI19319
F4.650171475073143e-06
sI27512
F1.0075371529325143e-05
sI27513
F3.177617174633315e-05
sI19322
F1.0075371529325143e-05
sI26431
F1.2400457266861716e-05
sI27516
F3.875142895894286e-06
sI12373
F3.9526457538121716e-05
sI25194
F2.4800914533723432e-05
sI29013
F2.9451086008796574e-05
sI22337
F1.3175485846040572e-05
sI18023
F1.5500571583577145e-05
sI12919
F2.8676057429617717e-05
sI26434
F3.332622890469086e-05
sI13113
F0.00033558737478444516
sI11828
F0.00018213171610703146
sI21842
F0.00014415531572726744
sI29559
F0.0010602390963166766
sI18244
F9.687857239735715e-05
sI24922
F1.4725543004398287e-05
sI28741
F3.5651314642227435e-05
sI14149
F0.0001596558873108446
sI29014
F1.395051442521943e-05
sI30534
F0.00038363914669353434
sI12920
F0.00017903160179031603
sI29287
F0.0017337389316231036
sI20558
F1.0850400108504001e-05
sI24377
F5.3476971963341146e-05
sI30822
F2.1700800217008002e-05
sI23097
F3.410125748386972e-05
sI18248
F1.4725543004398287e-05
sI20831
F6.200228633430858e-06
sI28469
F1.5500571583577145e-05
sI31335
F2.9451086008796574e-05
sI26441
F1.395051442521943e-05
sI17205
F1.7825657321113717e-05
sI28742
F0.00010075371529325144
sI18250
F2.247582879618686e-05
sI12648
F3.5651314642227435e-05
sI29015
F6.975257212609715e-06
sI14155
F9.300342950146286e-06
sI12921
F1.2400457266861716e-05
sI29288
F0.0003278370889926566
sI11830
F0.00012787971556451144
sI17456
F6.897754354691829e-05
sI29561
F0.00038518920385189205
sI14641
F0.000613047606130476
sI22388
F1.4725543004398287e-05
sI30542
F1.860068590029257e-05
sI28743
F1.395051442521943e-05
sI26447
F1.937571447947143e-05
sI29016
F1.7825657321113717e-05
sI18256
F2.0925771637829144e-05
sI12922
F1.395051442521943e-05
sI18257
F2.557594311290229e-05
sI11831
F0.00012632965840615374
sI26450
F1.6275600162756002e-05
sI28471
F2.557594311290229e-05
sI26451
F2.4800914533723432e-05
sI23152
F3.332622890469086e-05
sI20015
F8.52531437096743e-06
sI25198
F3.720137180058514e-05
sI29017
F1.0075371529325143e-05
sI26453
F2.4800914533723432e-05
sI16742
F1.0075371529325143e-05
sI11832
F0.00012787971556451144
sI31281
F2.3250857375365717e-05
sI20588
F3.5651314642227435e-05
sI30551
F8.52531437096743e-06
sI20834
F2.4800914533723432e-05
sI13392
F1.1625428687682859e-05
sI22360
F1.0075371529325143e-05
sI16745
F2.712600027126e-05
sI12378
F2.247582879618686e-05
sI16197
F7.750285791788573e-07
sI30553
F4.417662901319486e-05
sI29018
F1.4725543004398287e-05
sI22362
F0.00010075371529325144
sI20289
F4.495165759237372e-05
sI29291
F4.2626571854837146e-05
sI20562
F2.247582879618686e-05
sI11833
F0.00012245451551025943
sI27686
F0.00027436011702931546
sI17714
F6.510240065102401e-05
sI27691
F2.3250857375365715e-06
sI27692
F4.650171475073143e-06
sI19501
F1.1625428687682859e-05
sI19502
F2.3250857375365715e-06
sI19503
F3.0226114587975432e-05
sI11312
F7.285268644281259e-05
sI27697
F6.432737207184515e-05
sI19506
F3.487628606304858e-05
sI19507
F2.0925771637829144e-05
sI27700
F1.2400457266861716e-05
sI11317
F6.200228633430858e-06
sI19510
F0.00044331634729030634
sI19511
F1.1625428687682859e-05
sI19512
F4.650171475073143e-06
sI19513
F2.247582879618686e-05
sI19514
F1.0850400108504001e-05
sI30559
F0.00014648040146480402
sI27709
F5.7352114859235434e-05
sI27711
F0.0006254480633973377
sI27712
F7.750285791788573e-07
sI19521
F6.432737207184515e-05
sI19522
F3.332622890469086e-05
sI27715
F0.0003464377748929492
sI19524
F7.362771502199144e-05
sI19525
F1.3175485846040572e-05
sI27718
F7.207765786363372e-05
sI19527
F3.7976400379764e-05
sI19528
F1.3175485846040572e-05
sI27721
F9.300342950146286e-06
sI27722
F0.00011625428687682858
sI27723
F1.2400457266861716e-05
sI27724
F6.200228633430858e-06
sI22370
F3.9526457538121716e-05
sI19534
F6.975257212609715e-06
sI27727
F1.705062874193486e-05
sI27728
F2.0150743058650287e-05
sI19537
F2.3250857375365717e-05
sI27730
F4.572668617155258e-05
sI26467
F4.417662901319486e-05
sI27732
F3.100114316715429e-05
sI27733
F3.2551200325512005e-05
sI27734
F4.495165759237372e-05
sI27735
F1.1625428687682859e-05
sI19544
F2.0150743058650287e-05
sI27737
F1.1625428687682859e-05
sI27738
F2.1700800217008002e-05
sI11314
F2.3250857375365717e-05
sI9841
F2.0150743058650287e-05
sI18277
F1.705062874193486e-05
sI27745
F0.0035852822072813934
sI19554
F7.750285791788572e-06
sI27747
F0.001188893840460367
sI27748
F0.00019143205905717772
sI11365
F4.650171475073143e-06
sI19558
F9.300342950146286e-06
sI27751
F0.00047199240471992404
sI27752
F4.572668617155258e-05
sI27753
F0.0021638797930673692
sI11370
F4.650171475073143e-06
sI19563
F1.0850400108504001e-05
sI11372
F1.705062874193486e-05
sI19565
F1.7825657321113717e-05
sI19566
F1.5500571583577145e-05
sI27759
F0.00146480401464804
sI19568
F3.875142895894286e-06
sI26472
F3.100114316715429e-05
sI27762
F0.0006045222917595086
sI27763
F0.00026738485981670575
sI11380
F8.52531437096743e-06
sI19573
F1.1625428687682859e-05
sI27766
F5.4252000542520005e-06
sI14185
F9.300342950146286e-06
sI27768
F3.875142895894286e-05
sI19577
F1.1625428687682859e-05
sI19578
F2.0150743058650287e-05
sI12078
F6.432737207184515e-05
sI27772
F1.0850400108504001e-05
sI11389
F3.100114316715429e-06
sI29045
F1.395051442521943e-05
sI29268
F3.487628606304858e-05
sI22379
F1.5500571583577145e-05
sI20838
F2.9451086008796574e-05
sI26476
F4.107651469647943e-05
sI23153
F1.2400457266861716e-05
sI21111
F1.395051442521943e-05
sI30573
F2.3250857375365717e-05
sI25203
F5.192691480498343e-05
sI17261
F1.0075371529325143e-05
sI18286
F6.200228633430858e-06
sI20293
F4.185154327565829e-05
sI22383
F4.185154327565829e-05
sI20566
F1.395051442521943e-05
sI20589
F1.4725543004398287e-05
sI22384
F8.215302939295886e-05
sI20839
F1.0850400108504001e-05
sI14647
F0.001106740811067408
sI22385
F1.0850400108504001e-05
sI12383
F0.0001922070876363566
sI18290
F8.52531437096743e-06
sI13174
F3.332622890469086e-05
sI26483
F2.557594311290229e-05
sI20294
F2.8676057429617717e-05
sI26484
F0.0008781073802096453
sI30261
F4.572668617155258e-05
sI18293
F9.300342950146286e-06
sI22885
F1.395051442521943e-05
sI26486
F5.890217201759315e-05
sI28751
F3.2551200325512005e-05
sI26487
F3.177617174633315e-05
sI12657
F1.3175485846040572e-05
sI30584
F9.687857239735715e-05
sI20295
F5.3476971963341146e-05
sI11566
F1.5500571583577145e-06
sI28500
F5.115188622580458e-05
sI18789
F5.890217201759315e-05
sI22393
F1.0850400108504001e-05
sI16932
F7.750285791788573e-07
sI24387
F1.5500571583577145e-05
sI9522
F0.001411327042684699
sI22394
F9.300342950146286e-06
sI12406
F2.3250857375365717e-05
sI20841
F3.177617174633315e-05
sI28479
F5.4252000542520005e-06
sI25126
F0.00021390788785336458
sI12385
F8.447811513049544e-05
sI28752
F2.4800914533723432e-05
sI12658
F0.0002015074305865029
sI26704
F1.5500571583577145e-05
sI11315
F8.52531437096743e-06
sI9842
F6.975257212609715e-05
sI16750
F3.177617174633315e-05
sI20569
F1.860068590029257e-05
sI14643
F0.00039913971827711147
sI20842
F9.920365813489373e-05
sI22881
F6.975257212609715e-06
sI12386
F0.0001503555443606983
sI28753
F1.705062874193486e-05
sI17971
F0.0005580205770087772
sI21036
F3.0226114587975432e-05
sI12659
F3.642634322140629e-05
sI29026
F1.0850400108504001e-05
sI12083
F0.00015733080157330801
sI16941
F1.860068590029257e-05
sI29230
F7.750285791788572e-06
sI24389
F1.0075371529325143e-05
sI28208
F1.7825657321113717e-05
sI12847
F0.0010028869814574413
sI23154
F1.2400457266861716e-05
sI25136
F0.00010927902966421887
sI19748
F2.3250857375365715e-06
sI19750
F3.100114316715429e-06
sI16945
F2.790102885043886e-05
sI25208
F2.247582879618686e-05
sI27947
F1.1625428687682859e-05
sI27948
F7.750285791788573e-07
sI11565
F0.00030691131735482747
sI27950
F0.000510743833678867
sI11567
F3.875142895894286e-06
sI11568
F0.00020383251632403944
sI19761
F0.00010462885818914573
sI27954
F3.720137180058514e-05
sI16947
F8.912828660556857e-05
sI11572
F0.0003844141752727132
sI11573
F6.975257212609715e-05
sI11574
F6.200228633430858e-05
sI19767
F9.300342950146286e-06
sI11576
F0.0004115401755439732
sI27961
F3.100114316715429e-05
sI19770
F6.200228633430858e-06
sI28482
F6.820251496773944e-05
sI11581
F0.00014880548720234057
sI29237
F7.750285791788572e-06
sI27968
F3.875142895894286e-06
sI19777
F7.362771502199144e-05
sI19778
F5.270194338416229e-05
sI19779
F2.712600027126e-05
sI11588
F3.2551200325512005e-05
sI21046
F1.0075371529325143e-05
sI27974
F0.00019840731626978746
sI11591
F1.2400457266861716e-05
sI27976
F1.1625428687682859e-05
sI27977
F0.0005959969773885412
sI11594
F8.52531437096743e-06
sI27979
F9.300342950146286e-06
sI27980
F1.0850400108504001e-05
sI19789
F4.107651469647943e-05
sI11598
F9.300342950146286e-06
sI11599
F1.0850400108504001e-05
sI27984
F6.200228633430858e-06
sI16952
F3.5651314642227435e-05
sI11602
F1.7825657321113717e-05
sI19795
F1.395051442521943e-05
sI11604
F1.705062874193486e-05
sI19797
F2.8676057429617717e-05
sI11606
F1.0075371529325143e-05
sI27991
F1.0850400108504001e-05
sI19800
F0.00013097982988122687
sI11609
F1.937571447947143e-05
sI19802
F2.0150743058650287e-05
sI12858
F2.0150743058650287e-05
sI27999
F0.0003572881750014532
sI28756
F2.3250857375365717e-05
sI11617
F0.0008432310941465966
sI19810
F2.0925771637829144e-05
sI11619
F0.0004076650326480789
sI11620
F0.001102090639592335
sI11621
F0.0017608649318943635
sI19814
F1.0850400108504001e-05
sI19815
F1.4725543004398287e-05
sI19816
F6.0452229175950864e-05
sI19817
F5.115188622580458e-05
sI19818
F0.0001015287438724303
sI28011
F2.4025885954544575e-05
sI11628
F0.0013919513282052275
sI19821
F7.130262928445487e-05
sI19822
F2.9451086008796574e-05
sI29245
F6.975257212609715e-05
sI11632
F0.00015113057293987715
sI19825
F6.200228633430858e-06
sI11634
F0.0013291740132917401
sI11635
F0.0016872372168723721
sI11636
F0.0017941911607990545
sI28021
F0.0007370521787990932
sI28022
F9.300342950146286e-06
sI11639
F0.00016043091589002344
sI28024
F3.2551200325512005e-05
sI11641
F0.0008052546937668327
sI28026
F2.0925771637829144e-05
sI29247
F1.937571447947143e-05
sI19836
F3.875142895894286e-06
sI22327
F8.52531437096743e-06
sI12577
F7.750285791788573e-07
sI29030
F3.332622890469086e-05
sI20301
F1.4725543004398287e-05
sI25153
F1.0075371529325143e-05
sI16755
F0.00021313285927418573
sI25154
F2.247582879618686e-05
sI28212
F7.750285791788572e-06
sI14644
F0.00043401600434016
sI25155
F1.5500571583577145e-05
sI13171
F1.860068590029257e-05
sI22391
F1.0075371529325143e-05
sI22882
F1.3175485846040572e-05
sI25156
F2.4025885954544575e-05
sI12391
F3.100114316715429e-05
sI21061
F4.882680048826801e-05
sI12664
F0.00024878417391641317
sI16483
F7.750285791788573e-07
sI29254
F0.0011361918970762047
sI20036
F5.580205770087772e-05
sI16756
F3.177617174633315e-05
sI21063
F5.580205770087772e-05
sI29047
F2.3250857375365717e-05
sI28213
F1.705062874193486e-05
sI15723
F0.00019840731626978746
sI25160
F1.0850400108504001e-05
sI19757
F1.2400457266861716e-05
sI12873
F3.5651314642227435e-05
sI12392
F2.0150743058650287e-05
sI28759
F7.0527600705276e-05
sI25162
F1.395051442521943e-05
sI13416
F2.247582879618686e-05
sI12665
F0.00010540388676832458
sI16484
F7.750285791788573e-07
sI11374
F3.100114316715429e-06
sI16971
F7.672782933870687e-05
sI16757
F2.0150743058650287e-05
sI24407
F8.52531437096743e-06
sI25164
F1.1625428687682859e-05
sI14710
F8.52531437096743e-06
sI12353
F9.842862955571486e-05
sI25165
F1.395051442521943e-05
sI16974
F1.4725543004398287e-05
sI24941
F0.0035364554067931256
sI28760
F1.7825657321113717e-05
sI21071
F2.8676057429617717e-05
sI12666
F1.0850400108504001e-05
sI16485
F7.750285791788572e-06
sI29264
F4.2626571854837146e-05
sI16758
F1.4725543004398287e-05
sI16977
F3.410125748386972e-05
sI24396
F3.7976400379764e-05
sI15667
F3.0226114587975432e-05
sI12135
F0.0014516285288019995
sI21355
F1.0850400108504001e-05
sI16978
F1.0850400108504001e-05
sI19759
F3.7976400379764e-05
sI16445
F7.750285791788573e-07
sI25171
F1.0850400108504001e-05
sI28761
F6.200228633430858e-06
sI16980
F9.145337234310515e-05
sI29034
F0.0007393772645366297
sI16981
F1.0850400108504001e-05
sI22090
F6.975257212609715e-06
sI18791
F0.00014725543004398287
sI28993
F1.6275600162756002e-05
sI16982
F1.705062874193486e-05
sI28216
F2.3250857375365717e-05
sI31340
F4.0301486117300574e-05
sI16983
F1.5500571583577145e-05
sI22119
F1.395051442521943e-05
sI13109
F0.005467826626106838
sI30316
F6.975257212609715e-05
sI16984
F1.0850400108504001e-05
sI12395
F2.790102885043886e-05
sI28762
F1.7825657321113717e-05
sI20033
F2.0925771637829144e-05
sI21081
F5.4252000542520005e-06
sI16487
F1.5500571583577145e-06
sI20306
F0.00012245451551025943
sI21082
F8.52531437096743e-06
sI16760
F3.720137180058514e-05
sI20579
F7.750285791788572e-06
sI24398
F1.860068590029257e-05
sI28217
F1.7825657321113717e-05
sI28198
F0.0002425839452829823
sI14645
F0.00040921508980643664
sI11817
F5.4252000542520005e-06
sI28204
F4.650171475073143e-06
sI11821
F6.200228633430858e-06
sI11822
F9.300342950146286e-06
sI11823
F1.6275600162756002e-05
sI11824
F0.0004270407471275503
sI20017
F9.532851523899943e-05
sI28210
F2.0150743058650287e-05
sI11827
F0.00028598554571699833
sI20020
F0.00012167948693108058
sI11829
F0.00015888085873166574
sI20022
F3.0226114587975432e-05
sI20023
F2.557594311290229e-05
sI20024
F1.3175485846040572e-05
sI20025
F5.7352114859235434e-05
sI20026
F3.100114316715429e-06
sI29279
F0.0002557594311290229
sI20029
F3.7976400379764e-05
sI28223
F1.6275600162756002e-05
sI11841
F6.975257212609715e-06
sI28226
F1.937571447947143e-05
sI11843
F7.750285791788573e-07
sI28228
F1.705062874193486e-05
sI11845
F7.750285791788572e-06
sI11846
F1.0075371529325143e-05
sI11847
F7.750285791788573e-07
sI11848
F7.750285791788573e-07
sI11849
F3.875142895894286e-06
sI11850
F7.750285791788573e-07
sI11851
F1.5500571583577145e-06
sI11852
F3.100114316715429e-06
sI21090
F2.790102885043886e-05
sI28238
F9.300342950146286e-06
sI11855
F6.200228633430858e-06
sI20048
F1.0850400108504001e-05
sI11857
F9.300342950146286e-06
sI11858
F7.750285791788573e-07
sI25187
F0.00024025885954544573
sI11860
F3.100114316715429e-05
sI11861
F4.650171475073143e-06
sI11862
F7.750285791788573e-07
sI20055
F6.432737207184515e-05
sI28248
F1.860068590029257e-05
sI16996
F2.1700800217008002e-05
sI20058
F6.975257212609715e-06
sI16762
F6.975257212609715e-05
sI16997
F1.705062874193486e-05
sI11873
F0.0002526593168123075
sI11874
F0.0001232295440894383
sI11875
F0.0005370948053709481
sI28260
F8.137800081378001e-05
sI20069
F2.8676057429617717e-05
sI20070
F1.1625428687682859e-05
sI11879
F0.00030148611730057546
sI28264
F0.00030691131735482747
sI19763
F0.00012245451551025943
sI28266
F1.5500571583577145e-05
sI16999
F1.705062874193486e-05
sI20076
F4.727674332991029e-05
sI11885
F0.0002340586309120149
sI20078
F1.6275600162756002e-05
sI11887
F0.0005022185193078994
sI20080
F6.975257212609715e-05
sI20081
F1.3175485846040572e-05
sI28274
F0.0009796361240820754
sI11891
F0.0007882040650248978
sI11892
F0.0008323806940380927
sI28277
F0.002222006936505784
sI20086
F1.4725543004398287e-05
sI21097
F1.0075371529325143e-05
sI11896
F0.00020228245916568174
sI11897
F0.0002511092596539497
sI28282
F3.2551200325512005e-05
sI21098
F2.4800914533723432e-05
sI24401
F8.52531437096743e-06
sI12627
F1.705062874193486e-05
sI12136
F0.0009742109240278235
sI17003
F1.1625428687682859e-05
sI19764
F0.00010307880103078801
sI17004
F2.6350971692081144e-05
sI21609
F9.300342950146286e-06
sI17005
F1.395051442521943e-05
sI9834
F7.750285791788573e-07
sI29039
F1.0075371529325143e-05
sI26454
F1.7825657321113717e-05
sI21102
F3.5651314642227435e-05
sI29485
F0.0010765146964794327
sI28994
F8.292805797213773e-05
sI12911
F1.7825657321113717e-05
sI12149
F6.742748638856058e-05
sI28221
F4.2626571854837146e-05
sI28003
F0.00030148611730057546
sI20856
F2.4025885954544575e-05
sI22120
F1.0850400108504001e-05
sI28494
F9.455348665982058e-05
sI29297
F2.0925771637829144e-05
sI12400
F2.4800914533723432e-05
sI28767
F0.00013330491561876345
sI20038
F3.7976400379764e-05
sI21106
F1.0075371529325143e-05
sI20311
F1.1625428687682859e-05
sI29299
F0.000141055201410552
sI29267
F6.200228633430858e-06
sI25204
F9.997868671407258e-05
sI17013
F7.750285791788572e-05
sI13173
F2.9451086008796574e-05
sI19766
F3.7976400379764e-05
sI29302
F1.3175485846040572e-05
sI20039
F7.98279436554223e-05
sI25207
F2.8676057429617717e-05
sI17483
F1.1625428687682859e-05
sI16493
F2.3250857375365715e-06
sI11583
F1.1625428687682859e-05
sI17017
F1.5500571583577145e-05
sI24404
F3.410125748386972e-05
sI29540
F0.0005742961771715332
sI25210
F1.705062874193486e-05
sI23157
F1.0850400108504001e-05
sI27942
F0.0001666311445234543
sI28769
F0.0012470209838987812
sI18539
F6.975257212609715e-06
sI29308
F3.875142895894286e-06
sI18738
F2.4025885954544575e-05
sI16494
F5.4252000542520005e-06
sI20313
F1.2400457266861716e-05
sI24405
F8.52531437096743e-06
sI11373
F7.750285791788572e-06
sI29813
F0.0018623936757667938
sI19768
F1.705062874193486e-05
sI19755
F2.3250857375365715e-06
sI28770
F4.185154327565829e-05
sI20041
F1.5500571583577145e-05
sI11564
F4.650171475073143e-06
sI9585
F4.185154327565829e-05
sI16495
F7.750285791788573e-07
sI28722
F3.487628606304858e-05
sI27949
F0.0004952432620952897
sI14135
F0.00041929046133576175
sI22131
F2.4025885954544575e-05
sI24406
F6.975257212609715e-06
sI19758
F1.5500571583577145e-06
sI12137
F0.00024413400244134004
sI27951
F0.002644397512158261
sI19769
F0.00010850400108504
sI28516
F0.0004750925190366395
sI19760
F0.00022708337369940515
sI28771
F0.00010462885818914573
sI22864
F1.7825657321113717e-05
sI11313
F4.6501714750731434e-05
sI28454
F8.680320086803201e-05
sI11569
F0.00014415531572726744
sI24885
F0.00011392920113929202
sI12073
F7.750285791788573e-07
sI28459
F1.0075371529325143e-05
sI28460
F7.750285791788573e-07
sI20269
F1.0075371529325143e-05
sI20270
F7.750285791788573e-07
sI20271
F6.200228633430858e-06
sI20272
F0.00019995737342814516
sI12081
F0.0002208831450659743
sI20274
F5.270194338416229e-05
sI11571
F0.00013640502993547888
sI20276
F4.805177190908915e-05
sI20277
F6.200228633430858e-05
sI20278
F2.0150743058650287e-05
sI12087
F0.00021158280211582803
sI28472
F0.0006579992637228498
sI27956
F1.6275600162756002e-05
sI12090
F6.35523434926663e-05
sI28475
F3.100114316715429e-06
sI28477
F1.705062874193486e-05
sI16230
F4.9601829067446865e-05
sI19765
F0.00012012942977272286
sI16720
F2.0150743058650287e-05
sI12098
F6.975257212609715e-06
sI20291
F2.9451086008796574e-05
sI28484
F0.00010230377245160916
sI12101
F6.975257212609715e-06
sI12102
F2.3250857375365715e-06
sI12103
F1.5500571583577145e-06
sI20296
F7.5952800759528e-05
sI20297
F1.4725543004398287e-05
sI28490
F1.5500571583577145e-05
sI20299
F9.300342950146286e-06
sI20300
F3.2551200325512005e-05
sI12109
F7.750285791788573e-07
sI12110
F2.3250857375365715e-06
sI20303
F2.1700800217008002e-05
sI28496
F0.0003131115459882583
sI20305
F1.395051442521943e-05
sI28498
F3.2551200325512005e-05
sI28499
F3.2551200325512005e-05
sI20308
F1.5500571583577145e-05
sI28501
F1.1625428687682859e-05
sI28502
F1.7825657321113717e-05
sI11577
F7.905291507624343e-05
sI20312
F4.882680048826801e-05
sI13665
F0.00010772897250586116
sI20314
F9.300342950146286e-06
sI11578
F1.860068590029257e-05
sI28773
F0.0005944469202301835
sI20044
F1.3175485846040572e-05
sI12129
F0.00034876286063048573
sI12130
F0.00028598554571699833
sI28515
F0.005050086221929434
sI20324
F9.300342950146286e-06
sI12133
F0.0039332700393327
sI12134
F0.001475654414756544
sI28519
F0.0003371374319428029
sI28520
F0.001248571041057139
sI27955
F3.0226114587975432e-05
sI28522
F0.0002937358315087869
sI28523
F0.00013873011567301543
sI28524
F0.0021352037356377517
sI28525
F0.0007688283505454264
sI12142
F0.0020166243630233864
sI19773
F6.820251496773944e-05
sI28528
F0.0018817693902462654
sI28529
F1.860068590029257e-05
sI28530
F0.00217705527891341
sI12147
F0.008758597973300265
sI20340
F1.705062874193486e-05
sI20341
F1.6275600162756002e-05
sI28534
F9.842862955571486e-05
sI20343
F4.417662901319486e-05
sI28536
F1.0075371529325143e-05
sI28537
F0.00011857937261436515
sI20346
F4.572668617155258e-05
sI27967
F1.860068590029257e-05
sI20348
F7.750285791788573e-07
sI28774
F8.835325802638972e-05
sI20045
F1.1625428687682859e-05
sI11316
F4.107651469647943e-05
sI18739
F1.6275600162756002e-05
sI16499
F5.4252000542520005e-06
sI11585
F5.6577086280056576e-05
sI11586
F7.750285791788572e-06
sI15681
F1.0075371529325143e-05
sI22635
F6.975257212609715e-06
sI11587
F6.200228633430858e-06
sI16175
F0.0005208192052081921
sI19780
F0.0001433802871480886
sI28775
F2.712600027126e-05
sI20046
F1.395051442521943e-05
sI11589
F2.9451086008796574e-05
sI20319
F1.5500571583577145e-05
sI11590
F5.037685764662572e-05
sI27957
F2.1700800217008002e-05
sI18251
F1.0850400108504001e-05
sI19783
F4.727674332991029e-05
sI30578
F5.270194338416229e-05
sI11592
F3.875142895894286e-06
sI19785
F3.410125748386972e-05
sI20047
F2.6350971692081144e-05
sI11318
F5.4252000542520005e-06
sI27978
F0.00012555462982697486
sI24424
F0.00011857937261436515
sI29487
F0.003488403634884036
sI27958
F9.842862955571486e-05
sI28014
F6.200228633430858e-05
sI19788
F6.200228633430858e-06
sI32050
F1.5500571583577145e-06
sI13393
F2.0925771637829144e-05
sI27981
F3.487628606304858e-05
sI31342
F3.2551200325512005e-05
sI19790
F1.4725543004398287e-05
sI28777
F0.0011625428687682857
sI11319
F1.395051442521943e-05
sI19791
F1.705062874193486e-05
sI27959
F1.5500571583577145e-05
sI20594
F2.6350971692081144e-05
sI13677
F2.712600027126e-05
sI11601
F5.037685764662572e-05
sI28232
F1.3175485846040572e-05
sI30517
F2.247582879618686e-05
sI10034
F7.750285791788573e-07
sI27986
F2.247582879618686e-05
sI13666
F0.000141055201410552
sI11603
F1.2400457266861716e-05
sI28778
F0.0014996803007110888
sI20049
F1.0850400108504001e-05
sI17485
F0.00015655577299412916
sI27988
F6.975257212609715e-06
sI26214
F0.0010028869814574413
sI20322
F1.5500571583577145e-05
sI11593
F2.557594311290229e-05
sI27960
F1.7825657321113717e-05
sI20595
F1.1625428687682859e-05
sI30033
F0.0002247582879618686
sI27990
F2.0925771637829144e-05
sI28233
F0.00025033423107477087
sI19504
F5.270194338416229e-05
sI19799
F4.882680048826801e-05
sI28506
F1.2400457266861716e-05
sI25167
F1.2400457266861716e-05
sI27992
F1.4725543004398287e-05
sI28779
F4.9601829067446865e-05
sI11321
F8.52531437096743e-06
sI24381
F1.4725543004398287e-05
sI27993
F4.2626571854837146e-05
sI27698
F6.665245780938172e-05
sI20323
F1.0075371529325143e-05
sI27994
F7.517777218034915e-05
sI12848
F0.0004781926333533549
sI12321
F1.7825657321113717e-05
sI26225
F1.3175485846040572e-05
sI28234
F0.00014415531572726744
sI12325
F0.0001922070876363566
sI12326
F3.100114316715429e-06
sI30306
F2.6350971692081144e-05
sI12140
F0.001910445447675883
sI12331
F0.00015113057293987715
sI28716
F1.5500571583577145e-06
sI12333
F0.0005215942337873709
sI12334
F0.00042316560423165606
sI12335
F0.00022863343085776288
sI20528
F0.0001666311445234543
sI20529
F1.2400457266861716e-05
sI20530
F1.860068590029257e-05
sI12339
F0.000635523434926663
sI12340
F0.0008122299509794424
sI20533
F1.2400457266861716e-05
sI12342
F0.0007014008641568658
sI12343
F0.0006006471488636143
sI12344
F0.0006517990350894189
sI20537
F1.3175485846040572e-05
sI11595
F1.937571447947143e-05
sI17743
F1.705062874193486e-05
sI20541
F2.9451086008796574e-05
sI12351
F7.750285791788573e-07
sI28736
F1.5500571583577145e-06
sI20545
F4.882680048826801e-05
sI12354
F0.00022398325938268972
sI12355
F4.495165759237372e-05
sI12356
F0.0008161050938753367
sI20549
F7.98279436554223e-05
sI20550
F0.00018600685900292574
sI12359
F2.0150743058650287e-05
sI28744
F2.0925771637829144e-05
sI20553
F2.4025885954544575e-05
sI20554
F1.5500571583577145e-05
sI28747
F1.5500571583577145e-05
sI20556
F6.742748638856058e-05
sI20557
F1.937571447947143e-05
sI28750
F4.185154327565829e-05
sI20559
F1.705062874193486e-05
sI20560
F3.332622890469086e-05
sI12369
F0.00010462885818914573
sI12370
F5.115188622580458e-05
sI28755
F2.0925771637829144e-05
sI12372
F7.905291507624343e-05
sI20565
F0.00019065703047799887
sI28758
F8.060297223460115e-05
sI12375
F1.4725543004398287e-05
sI12376
F1.4725543004398287e-05
sI12377
F2.9451086008796574e-05
sI20570
F1.1625428687682859e-05
sI12379
F4.650171475073143e-06
sI20598
F0.00013640502993547888
sI11869
F1.3175485846040572e-05
sI20575
F3.100114316715429e-05
sI20577
F4.6501714750731434e-05
sI20578
F7.750285791788572e-05
sI12387
F0.0001449303443064463
sI12388
F0.00010540388676832458
sI20581
F1.0850400108504001e-05
sI12390
F0.00010617891534750344
sI20583
F3.177617174633315e-05
sI28776
F0.00019530720195307203
sI12393
F2.3250857375365717e-05
sI12394
F1.4725543004398287e-05
sI20587
F3.5651314642227435e-05
sI12396
F1.4725543004398287e-05
sI28781
F0.001368700470829862
sI28782
F8.680320086803201e-05
sI20591
F9.300342950146286e-06
sI20592
F1.2400457266861716e-05
sI12401
F1.5500571583577145e-05
sI12402
F9.300342950146286e-06
sI12403
F1.3175485846040572e-05
sI12404
F2.1700800217008002e-05
sI12405
F1.4725543004398287e-05
sI28790
F3.720137180058514e-05
sI20599
F2.0925771637829144e-05
sI12408
F0.00012632965840615374
sI20601
F1.6275600162756002e-05
sI12410
F2.0150743058650287e-05
sI28795
F1.5500571583577145e-05
sI20604
F3.875142895894286e-06
sI28010
F1.1625428687682859e-05
sI28237
F1.0075371529325143e-05
sI14649
F0.0003247369746759412
sI12143
F0.00016585611594427545
sI19781
F2.6350971692081144e-05
sI19820
F5.037685764662572e-05
sI28783
F0.001357075042142179
sI20054
F1.6275600162756002e-05
sI11325
F7.750285791788573e-07
sI28013
F0.0008672569801011413
sI11630
F0.0012671717269574316
sI21305
F3.7976400379764e-05
sI20600
F1.395051442521943e-05
sI11871
F3.875142895894286e-06
sI11631
F0.00025808451686655943
sI19509
F1.395051442521943e-05
sI28016
F0.0004626920617697778
sI19782
F6.35523434926663e-05
sI22118
F1.0850400108504001e-05
sI11633
F1.6275600162756002e-05
sI28784
F0.0014586037860146092
sI9521
F0.001270271841274147
sI17759
F2.712600027126e-05
sI28018
F0.00036968863226831487
sI26488
F3.487628606304858e-05
sI28019
F0.0003115614888299006
sI12849
F0.0011338668113386682
sI22069
F1.0850400108504001e-05
sI28020
F0.0016686365309720795
sI20596
F1.3175485846040572e-05
sI30307
F4.495165759237372e-05
sI11637
F6.975257212609715e-05
sI11638
F2.4025885954544575e-05
sI15717
F0.0018220921896494934
sI28785
F1.860068590029257e-05
sI20056
F4.417662901319486e-05
sI19831
F0.0002611846311832749
sI19505
F1.0850400108504001e-05
sI20329
F3.2551200325512005e-05
sI11600
F9.300342950146286e-06
sI11640
F4.495165759237372e-05
sI11626
F1.5500571583577145e-05
sI20602
F1.705062874193486e-05
sI12139
F0.0004099901183856155
sI28025
F0.00018755691616128344
sI28240
F1.0850400108504001e-05
sI30580
F0.00021700800217008
sI11111
F8.52531437096743e-06
sI11642
F0.0005153940051539401
sI28513
F0.00012012942977272286
sI19784
F2.557594311290229e-05
sI28786
F0.00024025885954544573
sI20057
F7.750285791788572e-06
sI15685
F3.642634322140629e-05
sI20330
F2.247582879618686e-05
sI29489
F2.3250857375365717e-05
sI9576
F0.0003603882893181686
sI30760
F7.750285791788573e-07
sI30808
F1.7825657321113717e-05
sI13395
F1.395051442521943e-05
sI12904
F1.1625428687682859e-05
sI22124
F3.2551200325512005e-05
sI17780
F4.2626571854837146e-05
sI28787
F0.0013555249849838214
sI25943
F7.672782933870687e-05
sI16232
F1.860068590029257e-05
sI25452
F0.0007882040650248978
sI27969
F1.5500571583577145e-05
sI18477
F1.6275600162756002e-05
sI28780
F9.2228400922284e-05
sI28242
F7.5952800759528e-05
sI26670
F0.0005425200054252
sI30809
F2.712600027126e-05
sI28724
F2.4025885954544575e-05
sI18479
F1.7825657321113717e-05
sI19786
F2.8676057429617717e-05
sI28788
F0.0010300129817287012
sI9519
F1.0075371529325143e-05
sI27251
F4.0301486117300574e-05
sI12582
F1.5500571583577145e-06
sI18481
F1.3175485846040572e-05
sI16761
F1.937571447947143e-05
sI12586
F3.410125748386972e-05
sI12587
F5.4252000542520005e-06
sI12588
F2.1700800217008002e-05
sI28973
F3.410125748386972e-05
sI28974
F9.455348665982058e-05
sI28975
F0.000141055201410552
sI28976
F1.2400457266861716e-05
sI28977
F1.2400457266861716e-05
sI28978
F1.5500571583577145e-05
sI12595
F0.000368913603689136
sI12596
F0.00046346709034895663
sI12597
F0.000547945205479452
sI28982
F4.0301486117300574e-05
sI20791
F1.1625428687682859e-05
sI12600
F0.0004130902327023309
sI20793
F3.2551200325512005e-05
sI19787
F1.395051442521943e-05
sI12605
F0.002435914824359148
sI12607
F6.200228633430858e-06
sI18282
F1.1625428687682859e-05
sI12609
F0.000168181201681812
sI20802
F3.410125748386972e-05
sI28995
F1.0075371529325143e-05
sI20804
F7.517777218034915e-05
sI12613
F5.7352114859235434e-05
sI20806
F2.1700800217008002e-05
sI12615
F2.4800914533723432e-05
sI20808
F1.6275600162756002e-05
sI12617
F3.9526457538121716e-05
sI12618
F1.860068590029257e-05
sI12619
F1.0075371529325143e-05
sI20812
F2.247582879618686e-05
sI12621
F2.0150743058650287e-05
sI20814
F2.0150743058650287e-05
sI29007
F1.705062874193486e-05
sI12624
F5.4252000542520005e-06
sI12625
F3.2551200325512005e-05
sI12626
F1.4725543004398287e-05
sI20819
F1.860068590029257e-05
sI20820
F8.757822944721087e-05
sI12629
F5.037685764662572e-05
sI12630
F1.5500571583577145e-05
sI20823
F7.440274360117029e-05
sI12632
F2.9451086008796574e-05
sI20825
F1.3175485846040572e-05
sI20826
F1.395051442521943e-05
sI12635
F4.650171475073143e-06
sI29023
F2.247582879618686e-05
sI29025
F6.277731491348743e-05
sI12642
F0.00012090445835190173
sI29027
F3.875142895894286e-05
sI29028
F4.3401600434016004e-05
sI12645
F0.00012245451551025943
sI12646
F0.00018135668752785258
sI12647
F3.410125748386972e-05
sI20840
F0.0002410338881246246
sI12649
F3.410125748386972e-05
sI12650
F2.0150743058650287e-05
sI12651
F6.200228633430858e-05
sI29036
F8.52531437096743e-06
sI20845
F5.270194338416229e-05
sI20846
F1.705062874193486e-05
sI20847
F1.3175485846040572e-05
sI12656
F3.9526457538121716e-05
sI29041
F0.0004293658328650869
sI20850
F1.6275600162756002e-05
sI20851
F1.395051442521943e-05
sI20852
F1.0850400108504001e-05
sI20853
F1.1625428687682859e-05
sI12662
F7.285268644281259e-05
sI20855
F3.177617174633315e-05
sI29048
F2.4025885954544575e-05
sI20857
F1.7825657321113717e-05
sI20858
F6.200228633430858e-05
sI28791
F6.742748638856058e-05
sI21610
F3.875142895894286e-06
sI13623
F0.00037666388948092463
sI20335
F2.712600027126e-05
sI27973
F1.6275600162756002e-05
sI30785
F3.0226114587975432e-05
sI12146
F0.0005115188622580458
sI26690
F4.0301486117300574e-05
sI13396
F2.4800914533723432e-05
sI12152
F0.0002867605742961772
sI31345
F2.4800914533723432e-05
sI18499
F4.3401600434016004e-05
sI18500
F2.4025885954544575e-05
sI16233
F2.3250857375365715e-06
sI27701
F3.332622890469086e-05
sI14405
F0.00011005405824339772
sI11607
F9.300342950146286e-06
sI20052
F4.107651469647943e-05
sI18502
F1.4725543004398287e-05
sI28746
F5.6577086280056576e-05
sI11880
F0.0003278370889926566
sI28261
F0.005608106798938211
sI14407
F1.7825657321113717e-05
sI12153
F0.003299296661564395
sI30792
F5.502702912169886e-05
sI22889
F4.107651469647943e-05
sI11062
F7.750285791788573e-07
sI28793
F0.0007192265214779795
sI29488
F9.300342950146287e-05
sI27702
F3.0226114587975432e-05
sI14410
F7.750285791788572e-06
sI9575
F0.0002247582879618686
sI11608
F1.0075371529325143e-05
sI27975
F1.1625428687682859e-05
sI22603
F1.2400457266861716e-05
sI22324
F1.2400457266861716e-05
sI11105
F9.300342950146286e-06
sI20325
F1.2400457266861716e-05
sI28997
F8.52531437096743e-06
sI22604
F7.750285791788572e-05
sI31798
F7.750285791788573e-07
sI28521
F0.005048536164771076
sI19792
F2.790102885043886e-05
sI13634
F4.2626571854837146e-05
sI28794
F2.247582879618686e-05
sI20065
F1.0075371529325143e-05
sI15155
F1.5500571583577145e-06
sI26490
F5.9677200596772006e-05
sI13885
F0.00016895623026099088
sI26422
F1.1625428687682859e-05
sI19247
F7.750285791788573e-07
sI11882
F7.750285791788572e-06
sI28249
F9.300342950146286e-06
sI18513
F1.2400457266861716e-05
sI18756
F8.292805797213773e-05
sI22610
F1.6275600162756002e-05
sI19793
F2.247582879618686e-05
sI11064
F0.00010617891534750344
sI26707
F2.557594311290229e-05
sI12903
F6.200228633430858e-05
sI27704
F2.8676057429617717e-05
sI14420
F2.3250857375365717e-05
sI9796
F3.642634322140629e-05
sI20339
F2.712600027126e-05
sI29038
F4.6501714750731434e-05
sI19248
F1.7825657321113717e-05
sI13615
F0.00010075371529325144
sI15702
F7.750285791788573e-07
sI22614
F1.937571447947143e-05
sI22344
F1.2400457266861716e-05
sI22615
F1.1625428687682859e-05
sI19794
F2.0925771637829144e-05
sI16943
F9.300342950146286e-06
sI26163
F0.0004115401755439732
sI22616
F0.00011547925829764973
sI20067
F1.3175485846040572e-05
sI27705
F1.5500571583577145e-05
sI14425
F1.3175485846040572e-05
sI9837
F0.00017283137315688517
sI18798
F3.642634322140629e-05
sI26714
F1.937571447947143e-05
sI29217
F7.750285791788573e-07
sI21028
F7.750285791788573e-07
sI12837
F0.020941272209412724
sI21030
F2.3250857375365715e-06
sI21032
F2.3250857375365715e-06
sI29227
F2.3250857375365715e-06
sI12844
F3.100114316715429e-05
sI21037
F9.300342950146286e-06
sI21038
F7.750285791788573e-07
sI21039
F2.1700800217008002e-05
sI29232
F5.9677200596772006e-05
sI21041
F1.3175485846040572e-05
sI12850
F0.00225843327972719
sI21043
F1.860068590029257e-05
sI12852
F0.00040068977543546917
sI21045
F2.8676057429617717e-05
sI12854
F0.00029141074577125034
sI29239
F1.5500571583577145e-05
sI12856
F0.0004216155470732983
sI21049
F5.115188622580458e-05
sI29242
F1.0075371529325143e-05
sI29243
F6.975257212609715e-06
sI12861
F0.0005370948053709481
sI12863
F9.300342950146286e-06
sI29248
F7.750285791788573e-07
sI12865
F0.0001356300013563
sI12866
F4.572668617155258e-05
sI21059
F4.6501714750731434e-05
sI29252
F1.3175485846040572e-05
sI12869
F7.0527600705276e-05
sI21062
F0.0007285268644281258
sI29255
F2.0925771637829144e-05
sI21064
F1.5500571583577145e-05
sI29257
F7.750285791788572e-06
sI29258
F1.395051442521943e-05
sI29259
F8.52531437096743e-06
sI29260
F1.1625428687682859e-05
sI29261
F8.52531437096743e-06
sI21070
F1.0850400108504001e-05
sI12879
F9.300342950146286e-06
sI21072
F6.277731491348743e-05
sI29265
F4.495165759237372e-05
sI29266
F1.3175485846040572e-05
sI21075
F1.3175485846040572e-05
sI12884
F3.0226114587975432e-05
sI29269
F6.742748638856058e-05
sI29270
F1.3175485846040572e-05
sI29271
F1.2400457266861716e-05
sI12888
F2.0925771637829144e-05
sI12889
F0.0001178043440351863
sI12890
F2.8676057429617717e-05
sI12891
F1.3175485846040572e-05
sI17715
F5.812714343841429e-05
sI20326
F7.750285791788572e-06
sI15705
F7.750285791788573e-07
sI12895
F0.00013795508709383658
sI21089
F3.9526457538121716e-05
sI12898
F0.0001867818875821046
sI12899
F0.0002371587452287303
sI12900
F0.00016585611594427545
sI12901
F0.0001178043440351863
sI12902
F7.98279436554223e-05
sI21095
F1.1625428687682859e-05
sI21096
F9.300342950146286e-06
sI12905
F2.247582879618686e-05
sI12906
F8.52531437096743e-06
sI21099
F3.875142895894286e-05
sI21100
F1.395051442521943e-05
sI12909
F1.3175485846040572e-05
sI12910
F4.495165759237372e-05
sI21103
F1.2400457266861716e-05
sI21104
F2.9451086008796574e-05
sI21105
F1.1625428687682859e-05
sI12914
F4.107651469647943e-05
sI21107
F1.6275600162756002e-05
sI12916
F6.587742923020286e-05
sI29301
F0.003001685687159714
sI12918
F4.572668617155258e-05
sI29303
F0.0001232295440894383
sI21112
F2.0150743058650287e-05
sI21113
F3.487628606304858e-05
sI21114
F3.332622890469086e-05
sI12924
F2.3250857375365715e-06
sI30826
F1.395051442521943e-05
sI30310
F5.192691480498343e-05
sI26731
F2.247582879618686e-05
sI19798
F1.6275600162756002e-05
sI26732
F6.510240065102401e-05
sI20071
F2.0925771637829144e-05
sI15161
F7.750285791788573e-07
sI30829
F0.00013485497277712115
sI28728
F1.0075371529325143e-05
sI11615
F1.0075371529325143e-05
sI17503
F1.2400457266861716e-05
sI27982
F4.185154327565829e-05
sI26734
F8.137800081378001e-05
sI28255
F6.820251496773944e-05
sI30831
F0.00032551200325512005
sI19526
F1.860068590029257e-05
sI18544
F1.0075371529325143e-05
sI26455
F1.1625428687682859e-05
sI18545
F1.3175485846040572e-05
sI20072
F4.882680048826801e-05
sI18546
F2.0150743058650287e-05
sI24429
F0.001042413438995563
sI20345
F6.510240065102401e-05
sI29492
F1.2400457266861716e-05
sI27983
F1.1625428687682859e-05
sI30835
F1.0850400108504001e-05
sI24437
F2.1700800217008002e-05
sI14441
F1.3175485846040572e-05
sI30836
F2.3250857375365717e-05
sI22127
F3.100114316715429e-05
sI18548
F2.0150743058650287e-05
sI30837
F7.98279436554223e-05
sI18550
F6.975257212609715e-06
sI20073
F6.200228633430858e-05
sI23159
F4.882680048826801e-05
sI14455
F1.2400457266861716e-05
sI18552
F6.975257212609715e-06
sI11890
F0.0008277305225630195
sI26745
F1.1625428687682859e-05
sI20563
F2.0150743058650287e-05
sI26746
F0.00012012942977272286
sI19801
F9.300342950146286e-06
sI17189
F2.3250857375365715e-06
sI17446
F3.100114316715429e-06
sI17981
F3.2551200325512005e-05
sI25382
F0.0005866966344383949
sI29479
F7.750285791788573e-07
sI11618
F0.00011935440119354401
sI27985
F1.3175485846040572e-05
sI24439
F6.510240065102401e-05
sI28258
F9.532851523899943e-05
sI23149
F0.00017438143031524287
sI14435
F0.00010462885818914573
sI20075
F6.200228633430858e-05
sI27965
F9.300342950146287e-05
sI12141
F0.00039371451822285946
sI13100
F1.0850400108504001e-05
sI19257
F8.52531437096743e-06
sI21293
F2.712600027126e-05
sI31293
F2.1700800217008002e-05
sI21076
F3.100114316715429e-05
sI20835
F2.0150743058650287e-05
sI28259
F0.0003890643467477863
sI21091
F2.0150743058650287e-05
sI29486
F0.00026195965976245374
sI21556
F1.5500571583577145e-05
sI13103
F6.742748638856058e-05
sI24419
F0.0001867818875821046
sI20083
F1.6275600162756002e-05
sI17200
F2.790102885043886e-05
sI11347
F7.750285791788573e-07
sI21284
F1.5500571583577145e-06
sI13093
F0.0036899110654705393
sI21286
F0.00010927902966421887
sI25393
F0.00012090445835190173
sI26968
F2.0925771637829144e-05
sI27987
F2.0150743058650287e-05
sI29483
F5.425200054252e-05
sI29484
F5.4252000542520005e-06
sI25394
F0.00013640502993547888
sI21294
F3.875142895894286e-06
sI21295
F0.00011160411540175544
sI21296
F6.35523434926663e-05
sI21297
F7.750285791788572e-06
sI21298
F1.4725543004398287e-05
sI21299
F2.3250857375365717e-05
sI21300
F1.937571447947143e-05
sI29493
F2.6350971692081144e-05
sI13110
F0.0005766212629090698
sI21303
F9.300342950146286e-06
sI21304
F1.3175485846040572e-05
sI17204
F3.100114316715429e-05
sI13114
F3.875142895894286e-06
sI27442
F1.0075371529325143e-05
sI29501
F0.00032551200325512005
sI21311
F4.650171475073143e-06
sI29504
F7.750285791788573e-07
sI13121
F0.00019453217337389315
sI29506
F0.00014260525856890974
sI21315
F1.937571447947143e-05
sI29508
F0.0001271046869853326
sI13125
F7.285268644281259e-05
sI21318
F2.6350971692081144e-05
sI13127
F1.0850400108504001e-05
sI13128
F1.2400457266861716e-05
sI29002
F7.750285791788572e-06
sI13130
F1.0075371529325143e-05
sI25399
F9.2228400922284e-05
sI21324
F1.3175485846040572e-05
sI29517
F1.395051442521943e-05
sI13134
F1.4725543004398287e-05
sI21327
F2.247582879618686e-05
sI13136
F1.937571447947143e-05
sI25400
F8.757822944721087e-05
sI29522
F1.6275600162756002e-05
sI29523
F1.860068590029257e-05
sI21332
F3.7976400379764e-05
sI21333
F2.9451086008796574e-05
sI13142
F2.557594311290229e-05
sI25401
F8.680320086803201e-05
sI13144
F4.9601829067446865e-05
sI21337
F2.6350971692081144e-05
sI29530
F1.4725543004398287e-05
sI17709
F1.7825657321113717e-05
sI29498
F6.200228633430858e-06
sI13151
F6.432737207184515e-05
sI13153
F7.905291507624343e-05
sI13154
F0.00014725543004398287
sI13155
F0.00017825657321113715
sI21348
F7.130262928445487e-05
sI13157
F0.00014958051578151945
sI29542
F0.00016198097304838115
sI13159
F0.0006765999496231423
sI13160
F2.0150743058650287e-05
sI13161
F2.4025885954544575e-05
sI13162
F1.0075371529325143e-05
sI13163
F1.7825657321113717e-05
sI13164
F1.2400457266861716e-05
sI13165
F5.7352114859235434e-05
sI21358
F2.247582879618686e-05
sI17213
F4.495165759237372e-05
sI13168
F2.0150743058650287e-05
sI13169
F1.705062874193486e-05
sI13170
F1.7825657321113717e-05
sI21363
F2.557594311290229e-05
sI13172
F0.0006657495495146383
sI29557
F0.0011718432117184322
sI29558
F5.502702912169886e-05
sI21367
F2.3250857375365717e-05
sI13176
F5.6577086280056576e-05
sI13177
F7.440274360117029e-05
sI29562
F2.8676057429617717e-05
sI13119
F7.750285791788573e-07
sI29564
F9.300342950146286e-06
sI20590
F2.3250857375365717e-05
sI17000
F2.247582879618686e-05
sI18260
F1.5500571583577145e-05
sI11623
F0.0010292379531495223
sI19261
F3.100114316715429e-06
sI21313
F1.705062874193486e-05
sI31021
F0.00012012942977272286
sI29548
F0.0003007110887213966
sI28263
F0.00034411268915541263
sI18279
F8.52531437096743e-06
sI25410
F1.3175485846040572e-05
sI19807
F1.3175485846040572e-05
sI25411
F1.5500571583577145e-05
sI27445
F3.720137180058514e-05
sI17220
F1.395051442521943e-05
sI25679
F1.395051442521943e-05
sI18989
F5.4252000542520005e-06
sI29509
F1.2400457266861716e-05
sI11624
F0.0005270194338416229
sI17222
F1.6275600162756002e-05
sI12363
F1.3175485846040572e-05
sI15716
F0.0019336963050512487
sI21092
F1.705062874193486e-05
sI25415
F1.1625428687682859e-05
sI30821
F0.001070314467846002
sI29512
F1.4725543004398287e-05
sI27446
F0.0002573094882873806
sI24420
F0.00019995737342814516
sI21321
F2.4025885954544575e-05
sI18990
F3.100114316715429e-05
sI28730
F7.750285791788572e-06
sI29514
F1.705062874193486e-05
sI27257
F2.4025885954544575e-05
sI11625
F0.00011315417256011315
sI26729
F4.9601829067446865e-05
sI25419
F1.395051442521943e-05
sI11898
F1.4725543004398287e-05
sI28265
F0.007909941679099418
sI21365
F2.0150743058650287e-05
sI25420
F1.395051442521943e-05
sI28538
F0.00016275600162756002
sI13133
F9.687857239735715e-05
sI16946
F0.0006781500067815
sI21326
F3.5651314642227435e-05
sI16229
F5.115188622580458e-05
sI18991
F1.0850400108504001e-05
sI17231
F2.4800914533723432e-05
sI29494
F0.00013252988703958457
sI13123
F3.100114316715429e-05
sI29003
F8.52531437096743e-06
sI13870
F4.727674332991029e-05
sI29520
F1.1625428687682859e-05
sI11878
F5.580205770087772e-05
sI13137
F3.0226114587975432e-05
sI13111
F0.00029606091724632345
sI25426
F8.52531437096743e-06
sI27448
F1.2400457266861716e-05
sI17254
F9.300342950146286e-06
sI26930
F8.680320086803201e-05
sI17235
F8.060297223460115e-05
sI17236
F1.5500571583577145e-05
sI12620
F1.0850400108504001e-05
sI11627
F9.920365813489373e-05
sI30258
F1.6275600162756002e-05
sI19265
F1.860068590029257e-05
sI17237
F0.00015113057293987715
sI28267
F6.897754354691829e-05
sI14655
F7.750285791788573e-07
sI21334
F1.0075371529325143e-05
sI21349
F4.107651469647943e-05
sI29527
F1.2400457266861716e-05
sI18032
F1.1625428687682859e-05
sI27449
F1.0850400108504001e-05
sI12584
F2.3250857375365715e-06
sI30581
F6.0452229175950864e-05
sI21336
F1.7825657321113717e-05
sI26712
F1.705062874193486e-05
sI17001
F1.937571447947143e-05
sI13145
F2.790102885043886e-05
sI25434
F1.1625428687682859e-05
sI11109
F7.672782933870687e-05
sI29549
F0.0006153726918680126
sI28268
F6.665245780938172e-05
sI29732
F7.750285791788573e-07
sI13349
F9.377845808064172e-05
sI29734
F0.0005797213772257852
sI29736
F1.5500571583577145e-06
sI19812
F1.3175485846040572e-05
sI13355
F4.572668617155258e-05
sI29740
F1.5500571583577145e-06
sI29741
F0.0007541028075410281
sI21550
F1.5500571583577145e-06
sI21551
F5.192691480498343e-05
sI29744
F5.502702912169886e-05
sI29745
F1.937571447947143e-05
sI21554
F2.0150743058650287e-05
sI29747
F2.0925771637829144e-05
sI29748
F1.937571447947143e-05
sI13365
F0.0004905930906202166
sI21558
F1.860068590029257e-05
sI21559
F8.52531437096743e-06
sI29752
F8.52531437096743e-06
sI29753
F8.912828660556857e-05
sI13370
F7.750285791788572e-06
sI29755
F3.100114316715429e-06
sI21565
F1.3175485846040572e-05
sI29759
F6.820251496773944e-05
sI21568
F7.750285791788573e-07
sI13377
F0.00016430605878591773
sI29762
F1.937571447947143e-05
sI21571
F1.705062874193486e-05
sI21572
F2.712600027126e-05
sI29765
F1.3175485846040572e-05
sI21574
F2.0150743058650287e-05
sI29767
F1.4725543004398287e-05
sI21576
F2.4800914533723432e-05
sI13385
F3.410125748386972e-05
sI21578
F1.2400457266861716e-05
sI29771
F1.0850400108504001e-05
sI13388
F1.0075371529325143e-05
sI21581
F0.00016585611594427545
sI13390
F1.6275600162756002e-05
sI29775
F2.1700800217008002e-05
sI21584
F0.00036116331789734745
sI29777
F4.805177190908915e-05
sI13394
F6.975257212609715e-06
sI17251
F1.0850400108504001e-05
sI29780
F2.557594311290229e-05
sI13397
F5.270194338416229e-05
sI13398
F1.7825657321113717e-05
sI21591
F3.5651314642227435e-05
sI13400
F1.395051442521943e-05
sI13401
F2.0925771637829144e-05
sI29786
F1.6275600162756002e-05
sI28270
F0.000933909437910523
sI21366
F1.0075371529325143e-05
sI29791
F0.0003534130321055589
sI13409
F8.137800081378001e-05
sI29794
F5.890217201759315e-05
sI29795
F0.002968359458255023
sI29796
F0.00023793377380790917
sI21605
F0.0004921431477785743
sI21606
F8.52531437096743e-06
sI13415
F3.7976400379764e-05
sI21608
F1.4725543004398287e-05
sI29801
F0.004388986843889869
sI13418
F1.0850400108504001e-05
sI17255
F2.247582879618686e-05
sI29804
F0.0008595066943093526
sI13421
F6.510240065102401e-05
sI21614
F0.00011470422971847087
sI21615
F1.860068590029257e-05
sI13424
F1.0850400108504001e-05
sI21617
F1.3175485846040572e-05
sI13426
F9.300342950146286e-06
sI13427
F0.0006781500067815
sI29812
F0.0020235996202359963
sI21621
F2.4800914533723432e-05
sI13430
F1.395051442521943e-05
sI13431
F1.3175485846040572e-05
sI21624
F1.0075371529325143e-05
sI29817
F0.0006913254926275407
sI13434
F1.1625428687682859e-05
sI28271
F0.005807289143787177
sI17258
F7.98279436554223e-05
sI22130
F1.705062874193486e-05
sI17259
F1.4725543004398287e-05
sI21356
F1.7825657321113717e-05
sI21357
F2.4800914533723432e-05
sI13875
F0.00040921508980643664
sI25430
F2.712600027126e-05
sI29550
F0.001541531843986747
sI28272
F0.0005084187479413304
sI17263
F1.0075371529325143e-05
sI13674
F1.4725543004398287e-05
sI17264
F6.975257212609715e-06
sI17265
F1.395051442521943e-05
sI31546
F4.650171475073143e-06
sI17266
F1.5500571583577145e-05
sI22113
F1.5500571583577145e-05
sI17267
F7.827788649706458e-05
sI31023
F4.495165759237372e-05
sI28273
F3.177617174633315e-05
sI17268
F3.875142895894286e-05
sI16942
F7.750285791788573e-07
sI17269
F1.1625428687682859e-05
sI14438
F8.912828660556857e-05
sI27455
F7.750285791788573e-07
sI17479
F1.5500571583577145e-05
sI17270
F2.0150743058650287e-05
sI31341
F4.572668617155258e-05
sI13175
F2.0925771637829144e-05
sI28001
F0.0012082695549398383
sI17272
F1.937571447947143e-05
sI21585
F3.332622890469086e-05
sI25465
F0.00019608223053225088
sI29249
F6.0452229175950864e-05
sI13178
F8.52531437096743e-06
sI14711
F2.0925771637829144e-05
sI24913
F1.5500571583577145e-05
sI11814
F1.5500571583577145e-06
sI19000
F9.300342950146286e-06
sI9801
F3.100114316715429e-06
sI18039
F1.6275600162756002e-05
sI14137
F0.0004440913758694852
sI28002
F0.00032318691751758344
sI23092
F3.720137180058514e-05
sI23357
F7.750285791788573e-07
sI13129
F1.937571447947143e-05
sI10356
F1.395051442521943e-05
sI21858
F1.6275600162756002e-05
sI19819
F0.00013252988703958457
sI16948
F6.277731491348743e-05
sI11363
F1.395051442521943e-05
sI29496
F1.0850400108504001e-05
sI22375
F6.200228633430858e-06
sI28023
F2.247582879618686e-05
sI14163
F8.52531437096743e-06
sI23093
F2.9451086008796574e-05
sI28205
F0.000124779601247796
sI13402
F1.0075371529325143e-05
sI28006
F8.525314370967429e-05
sI28206
F5.270194338416229e-05
sI31351
F2.557594311290229e-05
sI28207
F0.0012462459553196025
sI17221
F1.7825657321113717e-05
sI20016
F8.835325802638972e-05
sI27731
F2.712600027126e-05
sI30545
F3.0226114587975432e-05
sI21796
F1.1625428687682859e-05
sI29989
F0.00011160411540175544
sI29990
F0.0002154579450117223
sI11825
F0.00047044234756156634
sI29778
F1.3175485846040572e-05
sI28004
F0.00022010811648679544
sI19275
F1.2400457266861716e-05
sI19567
F1.3175485846040572e-05
sI29769
F2.4025885954544575e-05
sI11826
F0.000303811203038112
sI29998
F0.0007502276646451338
sI29999
F0.0006176977776055492
sI13616
F0.0005735211485923544
sI30001
F1.4725543004398287e-05
sI13618
F0.024948169963767412
sI28211
F2.0150743058650287e-05
sI13620
F0.0003820890895351766
sI13621
F0.00033093720330937206
sI30006
F0.0007827788649706458
sI30007
F1.1625428687682859e-05
sI30008
F1.0850400108504001e-05
sI30009
F9.532851523899943e-05
sI30010
F7.750285791788572e-06
sI30011
F3.875142895894286e-06
sI19054
F4.107651469647943e-05
sI30013
F0.00033791246052198177
sI21823
F9.455348665982058e-05
sI30016
F1.6275600162756002e-05
sI21825
F3.5651314642227435e-05
sI21826
F1.2400457266861716e-05
sI21827
F0.00012245451551025943
sI21828
F0.00010307880103078801
sI28214
F2.3250857375365717e-05
sI21830
F1.705062874193486e-05
sI13639
F1.1625428687682859e-05
sI21832
F1.7825657321113717e-05
sI13641
F3.487628606304858e-05
sI21834
F9.300342950146286e-06
sI30027
F1.2400457266861716e-05
sI21836
F2.3250857375365717e-05
sI13645
F3.5651314642227435e-05
sI21838
F2.4025885954544575e-05
sI13647
F8.52531437096743e-06
sI21840
F0.00014725543004398287
sI13649
F5.3476971963341146e-05
sI13650
F4.107651469647943e-05
sI21843
F6.742748638856058e-05
sI13652
F1.2400457266861716e-05
sI21845
F4.107651469647943e-05
sI21846
F0.0001395051442521943
sI21847
F0.00016740617310263316
sI21848
F1.5500571583577145e-05
sI21849
F1.0075371529325143e-05
sI30042
F1.395051442521943e-05
sI9529
F0.000341787603417876
sI21855
F2.4800914533723432e-05
sI21857
F5.4252000542520005e-06
sI30050
F0.0005076437193621514
sI13667
F0.00019453217337389315
sI21860
F0.00027823525992520977
sI13669
F0.00014725543004398287
sI13670
F7.827788649706458e-05
sI21863
F1.395051442521943e-05
sI21864
F7.750285791788572e-06
sI21865
F2.0925771637829144e-05
sI21866
F6.975257212609715e-05
sI13675
F7.905291507624343e-05
sI30060
F0.0008804324659471818
sI30315
F3.2551200325512005e-05
sI21870
F1.6275600162756002e-05
sI21871
F1.2400457266861716e-05
sI21872
F1.0075371529325143e-05
sI13681
F1.860068590029257e-05
sI13682
F1.2400457266861716e-05
sI21875
F6.277731491348743e-05
sI30068
F0.0021832555075468408
sI21877
F9.300342950146286e-06
sI30070
F1.6275600162756002e-05
sI21879
F1.2400457266861716e-05
sI21880
F2.1700800217008002e-05
sI13689
F4.185154327565829e-05
sI30074
F1.5500571583577145e-05
sI30076
F6.200228633430858e-06
sI29031
F1.0850400108504001e-05
sI18040
F1.0075371529325143e-05
sI18531
F3.875142895894286e-05
sI28007
F5.7352114859235434e-05
sI10549
F7.750285791788573e-07
sI28225
F4.2626571854837146e-05
sI13668
F7.98279436554223e-05
sI12148
F0.003190017631900176
sI19551
F2.0150743058650287e-05
sI13895
F1.395051442521943e-05
sI26728
F2.712600027126e-05
sI21859
F1.0075371529325143e-05
sI19824
F1.0850400108504001e-05
sI16949
F0.00017283137315688517
sI28227
F1.5500571583577145e-05
sI18733
F1.4725543004398287e-05
sI11844
F1.937571447947143e-05
sI20786
F4.6501714750731434e-05
sI19295
F6.200228633430858e-06
sI29497
F6.35523434926663e-05
sI28229
F8.370308655131658e-05
sI13428
F0.00012090445835190173
sI28008
F2.247582879618686e-05
sI28230
F3.100114316715429e-05
sI15696
F2.3250857375365715e-06
sI21040
F3.7976400379764e-05
sI28231
F2.9451086008796574e-05
sI31352
F1.860068590029257e-05
sI71
F4.650171475073143e-06
sI20040
F3.332622890469086e-05
sI31282
F8.52531437096743e-06
sI11369
F1.5500571583577145e-06
sI20042
F1.7825657321113717e-05
sI28009
F0.00271957528433861
sI29770
F1.705062874193486e-05
sI20043
F1.2400457266861716e-05
sI19553
F1.2400457266861716e-05
sI14167
F1.0850400108504001e-05
sI28236
F1.0075371529325143e-05
sI13676
F2.790102885043886e-05
sI19826
F3.2551200325512005e-05
sI11853
F1.3175485846040572e-05
sI18735
F3.100114316715429e-05
sI17495
F2.0925771637829144e-05
sI11854
F3.875142895894286e-06
sI27206
F2.9451086008796574e-05
sI28239
F1.2400457266861716e-05
sI26958
F4.107651469647943e-05
sI19281
F1.0850400108504001e-05
sI11856
F3.875142895894286e-06
sI15735
F8.292805797213773e-05
sI28241
F8.52531437096743e-06
sI19827
F1.0850400108504001e-05
sI20050
F1.4725543004398287e-05
sI31284
F1.4725543004398287e-05
sI30035
F2.1700800217008002e-05
sI20051
F1.1625428687682859e-05
sI28461
F0.0008362558369339869
sI17768
F1.1625428687682859e-05
sI27970
F3.2551200325512005e-05
sI28244
F1.1625428687682859e-05
sI14642
F0.00045339171881963146
sI23101
F1.6275600162756002e-05
sI12337
F0.0010927902966421886
sI21587
F2.8676057429617717e-05
sI11876
F0.00013175485846040572
sI19555
F9.300342950146286e-06
sI21557
F1.395051442521943e-05
sI28246
F1.5500571583577145e-05
sI16186
F3.2551200325512005e-05
sI19828
F2.1700800217008002e-05
sI11863
F7.750285791788573e-07
sI18737
F6.975257212609715e-06
sI21066
F1.0075371529325143e-05
sI11864
F7.750285791788573e-07
sI29304
F2.3250857375365717e-05
sI19010
F1.7825657321113717e-05
sI22829
F9.300342950146286e-06
sI28243
F1.2400457266861716e-05
sI11865
F6.200228633430858e-06
sI28012
F8.990331518474744e-05
sI11866
F1.5500571583577145e-06
sI13941
F6.277731491348743e-05
sI13131
F1.4725543004398287e-05
sI22351
F3.100114316715429e-05
sI22049
F7.750285791788573e-07
sI23161
F9.300342950146287e-05
sI31080
F0.00022863343085776288
sI13861
F5.4252000542520005e-06
sI30246
F0.00013020480130204802
sI19829
F2.6350971692081144e-05
sI31286
F1.860068590029257e-05
sI30252
F7.750285791788573e-07
sI30253
F0.0001015287438724303
sI30254
F1.860068590029257e-05
sI13871
F5.270194338416229e-05
sI13872
F0.0003727887465850303
sI30257
F2.6350971692081144e-05
sI22066
F3.875142895894286e-05
sI30259
F1.6275600162756002e-05
sI30260
F2.557594311290229e-05
sI13877
F0.0004332409757609812
sI30262
F8.52531437096743e-06
sI22071
F1.0075371529325143e-05
sI13880
F0.0007665032648078898
sI30265
F1.937571447947143e-05
sI13882
F7.750285791788573e-07
sI20063
F1.7825657321113717e-05
sI30269
F1.7825657321113717e-05
sI19557
F2.4025885954544575e-05
sI12913
F1.0075371529325143e-05
sI13889
F4.727674332991029e-05
sI30274
F2.9451086008796574e-05
sI13891
F2.4025885954544575e-05
sI22084
F6.665245780938172e-05
sI19830
F1.0850400108504001e-05
sI22086
F1.705062874193486e-05
sI30279
F6.975257212609715e-06
sI22088
F1.860068590029257e-05
sI22089
F1.5500571583577145e-05
sI30282
F2.6350971692081144e-05
sI13899
F2.4800914533723432e-05
sI22092
F1.860068590029257e-05
sI30285
F4.0301486117300574e-05
sI30286
F2.0925771637829144e-05
sI22095
F1.937571447947143e-05
sI30288
F7.750285791788572e-06
sI30289
F1.860068590029257e-05
sI30290
F1.0850400108504001e-05
sI22099
F2.0150743058650287e-05
sI22100
F0.00012632965840615374
sI22101
F2.0925771637829144e-05
sI22102
F2.9451086008796574e-05
sI22103
F2.6350971692081144e-05
sI22104
F2.0925771637829144e-05
sI22105
F7.750285791788572e-06
sI13914
F9.300342950146286e-06
sI22111
F1.0075371529325143e-05
sI13921
F0.00012090445835190173
sI22114
F1.1625428687682859e-05
sI22115
F1.6275600162756002e-05
sI13924
F0.00012400457266861716
sI13925
F0.0001178043440351863
sI13926
F8.912828660556857e-05
sI30311
F2.0150743058650287e-05
sI13928
F8.52531437096743e-06
sI13929
F1.395051442521943e-05
sI22122
F6.432737207184515e-05
sI22123
F1.6275600162756002e-05
sI13932
F1.6275600162756002e-05
sI22125
F4.107651469647943e-05
sI22126
F0.0001395051442521943
sI13935
F8.52531437096743e-06
sI30320
F0.00030148611730057546
sI13937
F3.720137180058514e-05
sI13938
F8.52531437096743e-06
sI30323
F0.0001395051442521943
sI13940
F1.705062874193486e-05
sI22133
F1.395051442521943e-05
sI13942
F3.0226114587975432e-05
sI13943
F1.5500571583577145e-05
sI13944
F0.0001015287438724303
sI13945
F1.395051442521943e-05
sI13946
F1.0850400108504001e-05
sI19559
F5.4252000542520005e-06
sI17520
F6.975257212609715e-06
sI27197
F0.0002735850884501366
sI19832
F0.00012942977272286917
sI22070
F1.0075371529325143e-05
sI11883
F0.00010540388676832458
sI31289
F1.4725543004398287e-05
sI11376
F1.5500571583577145e-06
sI27743
F0.00019608223053225088
sI10285
F1.5500571583577145e-06
sI27971
F1.3175485846040572e-05
sI28269
F0.0001271046869853326
sI20597
F0.0006587742923020286
sI19287
F1.4725543004398287e-05
sI22079
F5.4252000542520005e-06
sI11886
F0.00044099126155276974
sI30799
F1.705062874193486e-05
sI11877
F0.0005990970917052566
sI19560
F1.4725543004398287e-05
sI20079
F1.3175485846040572e-05
sI19833
F0.00012012942977272286
sI30308
F0.00013795508709383658
sI11888
F0.0003433376605762337
sI24425
F2.4800914533723432e-05
sI22321
F8.52531437096743e-06
sI11889
F9.842862955571486e-05
sI22341
F1.1625428687682859e-05
sI22834
F4.495165759237372e-05
sI20082
F0.00019453217337389315
sI12610
F6.742748638856058e-05
sI28017
F1.395051442521943e-05
sI19288
F8.52531437096743e-06
sI28275
F7.672782933870687e-05
sI12150
F3.7976400379764e-05
sI28276
F0.0004642421189281355
sI31081
F4.2626571854837146e-05
sI18470
F0.0002511092596539497
sI19834
F0.00015655577299412916
sI16951
F0.000168181201681812
sI20085
F1.860068590029257e-05
sI27472
F1.2400457266861716e-05
sI30579
F0.00016740617310263316
sI11894
F3.5651314642227435e-05
sI22835
F4.2626571854837146e-05
sI29499
F1.5500571583577145e-06
sI11895
F0.0007463525217492396
sI19297
F2.9451086008796574e-05
sI28280
F1.5500571583577145e-06
sI14387
F0.0003727887465850303
sI19562
F6.200228633430858e-06
sI28281
F8.525314370967429e-05
sI18764
F2.1700800217008002e-05
sI13112
F0.00032861211757183545
sI16235
F1.0075371529325143e-05
sI20090
F0.00012400457266861716
sI18744
F6.200228633430858e-06
sI26444
F1.7825657321113717e-05
sI18726
F0.00015345565867741373
sI10288
F1.0075371529325143e-05
sI25158
F0.00033093720330937206
sI26928
F4.0301486117300574e-05
sI24426
F1.0075371529325143e-05
sI14653
F9.920365813489373e-05
sI13678
F1.395051442521943e-05
sI18033
F9.300342950146286e-06
sI12857
F0.00035806320358063205
sI18745
F2.247582879618686e-05
sI28235
F5.4252000542520005e-06
sI27699
F1.2400457266861716e-05
sI26923
F2.3250857375365715e-06
sI31020
F1.5500571583577145e-06
sI11605
F2.0925771637829144e-05
sI21807
F2.8676057429617717e-05
sI31027
F1.395051442521943e-05
sI14381
F9.532851523899943e-05
sI27255
F1.3175485846040572e-05
sI14637
F6.975257212609715e-05
sI30330
F1.6275600162756002e-05
sI18734
F1.5500571583577145e-06
sI11108
F1.705062874193486e-05
sI22831
F1.2400457266861716e-05
sI10544
F1.2400457266861716e-05
sI13614
F0.00011625428687682858
sI22838
F1.6275600162756002e-05
sI27972
F9.377845808064172e-05
sI14117
F0.00043634109007769663
sI30502
F4.9601829067446865e-05
sI31025
F1.0075371529325143e-05
sI30507
F1.1625428687682859e-05
sI30508
F3.100114316715429e-06
sI22317
F1.5500571583577145e-05
sI30510
F4.2626571854837146e-05
sI22319
F2.1700800217008002e-05
sI14128
F0.00048826800488268007
sI14129
F0.0005665458913797447
sI22322
F1.2400457266861716e-05
sI30515
F1.7825657321113717e-05
sI14132
F0.00035263800352638004
sI14133
F0.0006285481777140533
sI30518
F2.1700800217008002e-05
sI30519
F8.52531437096743e-06
sI30520
F8.52531437096743e-06
sI18740
F1.395051442521943e-05
sI14138
F3.100114316715429e-06
sI22333
F0.00031001143167154287
sI14143
F7.750285791788573e-07
sI9805
F1.5500571583577145e-06
sI30529
F6.975257212609715e-05
sI14146
F3.642634322140629e-05
sI14147
F1.705062874193486e-05
sI14148
F5.270194338416229e-05
sI30533
F0.00012555462982697486
sI14150
F2.8676057429617717e-05
sI22343
F2.790102885043886e-05
sI14152
F1.705062874193486e-05
sI22345
F1.395051442521943e-05
sI14154
F1.4725543004398287e-05
sI22347
F1.2400457266861716e-05
sI30061
F0.0002627346883416326
sI30541
F3.720137180058514e-05
sI22350
F3.2551200325512005e-05
sI30543
F5.037685764662572e-05
sI22352
F1.2400457266861716e-05
sI22840
F7.750285791788572e-06
sI22354
F1.7825657321113717e-05
sI30547
F2.6350971692081144e-05
sI30548
F1.705062874193486e-05
sI14165
F1.395051442521943e-05
sI27477
F1.705062874193486e-05
sI22359
F1.7825657321113717e-05
sI30552
F1.0075371529325143e-05
sI14169
F8.52531437096743e-06
sI30554
F1.1625428687682859e-05
sI18746
F1.5500571583577145e-06
sI22367
F1.2400457266861716e-05
sI21586
F3.0226114587975432e-05
sI30561
F0.00016275600162756002
sI30562
F1.7825657321113717e-05
sI30563
F2.3250857375365717e-05
sI30564
F6.665245780938172e-05
sI22373
F1.7825657321113717e-05
sI22374
F9.300342950146286e-06
sI14384
F0.0005246943481040864
sI30568
F7.130262928445487e-05
sI30569
F3.177617174633315e-05
sI22378
F2.4025885954544575e-05
sI30571
F0.00010462885818914573
sI14188
F1.2400457266861716e-05
sI14189
F6.975257212609715e-06
sI22382
F1.7825657321113717e-05
sI14191
F1.0850400108504001e-05
sI30576
F0.0001271046869853326
sI14193
F1.395051442521943e-05
sI14194
F1.0850400108504001e-05
sI14195
F2.0150743058650287e-05
sI14196
F8.52531437096743e-06
sI14197
F5.812714343841429e-05
sI22390
F1.395051442521943e-05
sI14199
F0.000667299606672996
sI22392
F1.0075371529325143e-05
sI30585
F0.0007874290364457189
sI30586
F1.3175485846040572e-05
sI25954
F0.0007812288078122881
sI30588
F1.860068590029257e-05
sI22841
F3.487628606304858e-05
sI25431
F7.750285791788572e-06
sI28748
F2.3250857375365715e-06
sI23114
F1.6275600162756002e-05
sI26933
F1.2400457266861716e-05
sI26945
F1.2400457266861716e-05
sI14658
F5.502702912169886e-05
sI18754
F1.7825657321113717e-05
sI11112
F3.487628606304858e-05
sI18755
F1.937571447947143e-05
sI11385
F7.750285791788573e-07
sI17007
F1.0075371529325143e-05
sI26227
F0.00016585611594427545
sI19023
F6.200228633430858e-06
sI30291
F1.1625428687682859e-05
sI31045
F4.6501714750731434e-05
sI14127
F4.572668617155258e-05
sI21808
F0.0001867818875821046
sI31028
F1.2400457266861716e-05
sI14386
F0.0008099048652419058
sI26950
F0.00018910697331964117
sI9551
F0.00015268063009823488
sI19569
F8.52531437096743e-06
sI27207
F1.3175485846040572e-05
sI26951
F1.5500571583577145e-05
sI14443
F1.3175485846040572e-05
sI18751
F3.100114316715429e-06
sI31299
F2.247582879618686e-05
sI15205
F7.750285791788573e-07
sI26991
F0.00017205634457770631
sI18762
F8.52531437096743e-06
sI31845
F1.5500571583577145e-06
sI26935
F7.750285791788572e-06
sI18763
F1.937571447947143e-05
sI19570
F6.200228633430858e-06
sI14660
F2.9451086008796574e-05
sI22380
F6.897754354691829e-05
sI18765
F1.6275600162756002e-05
sI19517
F2.557594311290229e-05
sI29228
F1.5500571583577145e-06
sI28737
F5.502702912169886e-05
sI19298
F1.1625428687682859e-05
sI23117
F1.6275600162756002e-05
sI31056
F1.0075371529325143e-05
sI19571
F8.52531437096743e-06
sI12643
F0.0001356300013563
sI14661
F9.455348665982058e-05
sI18480
F2.4025885954544575e-05
sI16953
F6.820251496773944e-05
sI26184
F4.650171475073143e-06
sI27482
F1.937571447947143e-05
sI26962
F2.0150743058650287e-05
sI31301
F2.712600027126e-05
sI21813
F1.937571447947143e-05
sI18771
F1.5500571583577145e-05
sI19026
F1.1625428687682859e-05
sI20281
F3.875142895894286e-05
sI9839
F8.060297223460115e-05
sI22376
F1.860068590029257e-05
sI29010
F1.4725543004398287e-05
sI19299
F1.1625428687682859e-05
sI23118
F3.332622890469086e-05
sI26937
F1.4725543004398287e-05
sI26965
F1.1625428687682859e-05
sI28279
F9.61035438181783e-05
sI19572
F0.00033016217473019315
sI14678
F2.247582879618686e-05
sI11116
F7.750285791788573e-07
sI31063
F1.2400457266861716e-05
sI31302
F2.557594311290229e-05
sI16244
F0.00020770765921993372
sI26446
F1.937571447947143e-05
sI27756
F0.0013159985274456996
sI19027
F7.750285791788572e-06
sI20783
F7.750285791788573e-07
sI26969
F1.5500571583577145e-05
sI30003
F0.0006641994923562806
sI23119
F1.0850400108504001e-05
sI14390
F0.00036348840363488406
sI29283
F0.0006014221774427932
sI22874
F6.975257212609715e-06
sI14663
F3.2551200325512005e-05
sI13680
F1.7825657321113717e-05
sI14373
F0.0005014434907287206
sI30758
F1.705062874193486e-05
sI22568
F1.0850400108504001e-05
sI31303
F7.750285791788572e-06
sI13874
F0.004840053476971963
sI14380
F4.650171475073143e-06
sI22573
F5.4252000542520005e-06
sI14382
F2.1700800217008002e-05
sI14383
F1.2400457266861716e-05
sI22576
F5.812714343841429e-05
sI14385
F0.001415977214159772
sI22387
F1.2400457266861716e-05
sI30771
F5.812714343841429e-05
sI14388
F0.0009083334947976206
sI14389
F0.00040223983259382687
sI30774
F3.875142895894286e-05
sI30775
F1.1625428687682859e-05
sI22584
F2.4800914533723432e-05
sI30777
F1.4725543004398287e-05
sI29556
F0.0016973125884016972
sI26975
F0.0002867605742961772
sI30781
F5.4252000542520005e-06
sI30783
F7.750285791788573e-07
sI14400
F7.750285791788573e-07
sI22593
F6.35523434926663e-05
sI22594
F1.1625428687682859e-05
sI30787
F2.3250857375365717e-05
sI30788
F1.5500571583577145e-05
sI30789
F5.812714343841429e-05
sI14406
F1.7825657321113717e-05
sI18785
F1.4725543004398287e-05
sI14408
F1.6275600162756002e-05
sI30793
F2.6350971692081144e-05
sI30794
F1.3175485846040572e-05
sI14411
F5.4252000542520005e-06
sI14412
F1.0075371529325143e-05
sI22605
F1.2400457266861716e-05
sI22606
F6.665245780938172e-05
sI22607
F1.4725543004398287e-05
sI14416
F1.1625428687682859e-05
sI26667
F2.3250857375365715e-06
sI30802
F8.52531437096743e-06
sI14419
F1.0075371529325143e-05
sI22612
F1.5500571583577145e-05
sI30566
F0.00015810583015248686
sI14422
F1.2400457266861716e-05
sI14423
F8.52531437096743e-06
sI14424
F1.1625428687682859e-05
sI22617
F5.502702912169886e-05
sI22618
F0.0002177830307492589
sI30812
F4.650171475073143e-06
sI27213
F0.00017825657321113715
sI26981
F0.00028598554571699833
sI14433
F7.827788649706458e-05
sI30818
F4.2626571854837146e-05
sI22627
F1.1625428687682859e-05
sI30820
F0.0006828001782565732
sI14437
F8.990331518474744e-05
sI18757
F2.1700800217008002e-05
sI14439
F2.4025885954544575e-05
sI14440
F1.4725543004398287e-05
sI30825
F9.377845808064172e-05
sI22634
F1.4725543004398287e-05
sI30827
F1.937571447947143e-05
sI22636
F1.395051442521943e-05
sI22637
F1.2400457266861716e-05
sI30830
F2.4025885954544575e-05
sI22639
F7.750285791788572e-06
sI30832
F0.0007099261785278332
sI22641
F1.0850400108504001e-05
sI22642
F8.52531437096743e-06
sI22643
F2.247582879618686e-05
sI22644
F9.300342950146286e-06
sI22645
F1.0075371529325143e-05
sI30838
F1.3175485846040572e-05
sI22647
F1.7825657321113717e-05
sI22648
F1.395051442521943e-05
sI30841
F1.0075371529325143e-05
sI30842
F1.7825657321113717e-05
sI14666
F1.1625428687682859e-05
sI15665
F5.7352114859235434e-05
sI18795
F0.00040223983259382687
sI22577
F6.975257212609715e-06
sI26988
F0.002790877913623065
sI29011
F1.0075371529325143e-05
sI19304
F1.7825657321113717e-05
sI23123
F6.35523434926663e-05
sI14702
F1.705062874193486e-05
sI12917
F2.790102885043886e-05
sI22137
F1.860068590029257e-05
sI14667
F7.750285791788572e-06
sI18486
F0.00020925771637829145
sI22305
F7.750285791788573e-07
sI19823
F1.4725543004398287e-05
sI22896
F2.790102885043886e-05
sI31307
F7.362771502199144e-05
sI22578
F1.860068590029257e-05
sI29043
F3.642634322140629e-05
sI31089
F2.6350971692081144e-05
sI26708
F0.00017670651605277945
sI22851
F1.4725543004398287e-05
sI22898
F1.2400457266861716e-05
sI20555
F8.525314370967429e-05
sI14640
F0.0005184941194706555
sI29284
F0.0008424560655674178
sI10611
F7.750285791788573e-07
sI22832
F4.572668617155258e-05
sI14668
F1.937571447947143e-05
sI22900
F1.4725543004398287e-05
sI19811
F1.3175485846040572e-05
sI22901
F3.0226114587975432e-05
sI18760
F1.2400457266861716e-05
sI22579
F2.4025885954544575e-05
sI17009
F1.705062874193486e-05
sI22902
F6.200228633430858e-06
sI18807
F1.6275600162756002e-05
sI31030
F7.750285791788572e-06
sI18808
F1.4725543004398287e-05
sI13931
F1.1625428687682859e-05
sI11596
F5.4252000542520005e-06
sI27217
F2.3250857375365717e-05
sI14713
F2.712600027126e-05
sI27002
F4.9601829067446865e-05
sI31309
F0.00015345565867741373
sI22580
F2.557594311290229e-05
sI21542
F3.100114316715429e-06
sI22853
F2.8676057429617717e-05
sI17008
F1.7825657321113717e-05
sI28015
F0.002994710429947104
sI25656
F0.00011160411540175544
sI23126
F1.4725543004398287e-05
sI14397
F0.00012090445835190173
sI11881
F4.882680048826801e-05
sI21101
F2.712600027126e-05
sI14670
F1.395051442521943e-05
sI18489
F1.395051442521943e-05
sI11124
F2.3250857375365715e-06
sI27491
F0.0007463525217492396
sI31310
F0.00016430605878591773
sI22581
F7.5952800759528e-05
sI17750
F2.4800914533723432e-05
sI19028
F2.9451086008796574e-05
sI27952
F3.410125748386972e-05
sI28739
F4.805177190908915e-05
sI13356
F1.0850400108504001e-05
sI30765
F1.0850400108504001e-05
sI22356
F1.0850400108504001e-05
sI17453
F7.750285791788572e-06
sI31085
F5.6577086280056576e-05
sI12628
F1.1625428687682859e-05
sI29742
F0.0004657921760864932
sI11125
F7.750285791788573e-07
sI27492
F6.742748638856058e-05
sI13613
F8.137800081378001e-05
sI29743
F0.0014353529286392436
sI13360
F0.0009811861812404332
sI14126
F3.5651314642227435e-05
sI14629
F0.00043014086144426577
sI19301
F1.705062874193486e-05
sI19309
F1.705062874193486e-05
sI14632
F1.5500571583577145e-06
sI14399
F1.5500571583577145e-06
sI30766
F9.61035438181783e-05
sI14636
F1.1625428687682859e-05
sI29746
F4.882680048826801e-05
sI22830
F2.3250857375365715e-06
sI14639
F2.8676057429617717e-05
sI31024
F5.037685764662572e-05
sI31039
F7.750285791788573e-07
sI31026
F1.1625428687682859e-05
sI17459
F0.004025498440254984
sI22836
F3.410125748386972e-05
sI22837
F4.185154327565829e-05
sI14646
F0.0003177617174633315
sI22839
F2.0925771637829144e-05
sI14648
F0.0003913894324853229
sI25652
F0.00015500571583577143
sI14650
F6.200228633430858e-06
sI30298
F1.860068590029257e-05
sI22845
F1.2400457266861716e-05
sI25653
F7.750285791788572e-05
sI31040
F8.52531437096743e-06
sI22849
F5.7352114859235434e-05
sI22850
F1.3175485846040572e-05
sI14659
F1.395051442521943e-05
sI22852
F7.440274360117029e-05
sI25654
F9.532851523899943e-05
sI14662
F2.8676057429617717e-05
sI22855
F3.5651314642227435e-05
sI29285
F0.006769874639127317
sI30767
F0.00016430605878591773
sI31050
F4.650171475073143e-06
sI29751
F4.650171475073143e-06
sI22860
F1.6275600162756002e-05
sI14669
F0.00011547925829764973
sI22862
F1.0850400108504001e-05
sI14671
F1.0075371529325143e-05
sI14672
F1.395051442521943e-05
sI22865
F1.3175485846040572e-05
sI22866
F1.3175485846040572e-05
sI31059
F1.937571447947143e-05
sI22868
F8.835325802638972e-05
sI14677
F0.000141055201410552
sI31062
F5.9677200596772006e-05
sI25657
F0.0008075797795043693
sI22872
F2.0925771637829144e-05
sI27703
F1.0075371529325143e-05
sI31066
F3.2551200325512005e-05
sI27767
F7.517777218034915e-05
sI29754
F1.5500571583577145e-06
sI22857
F1.395051442521943e-05
sI22879
F3.875142895894286e-06
sI14689
F0.00010772897250586116
sI31074
F7.130262928445487e-05
sI22883
F1.0075371529325143e-05
sI22884
F1.5500571583577145e-05
sI14693
F7.130262928445487e-05
sI22886
F1.860068590029257e-05
sI30768
F0.0004890430334618589
sI14696
F2.790102885043886e-05
sI30049
F0.00042084051849411945
sI14698
F1.395051442521943e-05
sI31083
F5.270194338416229e-05
sI31084
F0.0005122938908372247
sI14701
F3.2551200325512005e-05
sI31086
F0.00021313285927418573
sI25661
F9.765360097653601e-05
sI31088
F0.0001340799441979423
sI14705
F1.395051442521943e-05
sI14706
F1.3175485846040572e-05
sI14707
F8.52531437096743e-06
sI14708
F1.0850400108504001e-05
sI14709
F3.410125748386972e-05
sI31094
F1.2400457266861716e-05
sI31095
F8.060297223460115e-05
sI14712
F4.107651469647943e-05
sI31097
F1.395051442521943e-05
sI31098
F2.6350971692081144e-05
sI13375
F3.875142895894286e-06
sI22858
F1.395051442521943e-05
sI18263
F2.1700800217008002e-05
sI29760
F7.750285791788573e-07
sI14402
F9.61035438181783e-05
sI18221
F4.3401600434016004e-05
sI29761
F2.8676057429617717e-05
sI14675
F1.0850400108504001e-05
sI31042
F4.882680048826801e-05
sI25666
F2.6350971692081144e-05
sI11129
F4.650171475073143e-06
sI14948
F1.0850400108504001e-05
sI31315
F1.7825657321113717e-05
sI17475
F1.5500571583577145e-05
sI9809
F1.0075371529325143e-05
sI13380
F0.00024568405959969776
sI22859
F6.975257212609715e-06
sI14130
F0.0006200228633430857
sI12611
F0.00013485497277712115
sI30497
F7.750285791788573e-07
sI13381
F0.00022863343085776288
sI14403
F1.4725543004398287e-05
sI30770
F4.185154327565829e-05
sI30803
F1.395051442521943e-05
sI17478
F4.495165759237372e-05
sI30069
F4.185154327565829e-05
sI31280
F1.5500571583577145e-05
sI14676
F1.0075371529325143e-05
sI31043
F1.4725543004398287e-05
sI21575
F4.3401600434016004e-05
sI9798
F8.680320086803201e-05
sI27497
F6.200228633430858e-05
sI31316
F1.395051442521943e-05
sI25672
F3.487628606304858e-05
sI21577
F1.860068590029257e-05
sI14131
F0.0004223905756524772
sI19302
F7.750285791788572e-06
sI25674
F1.705062874193486e-05
sI14404
F2.1700800217008002e-05
sI18223
F9.300342950146286e-06
sI14392
F0.0004929181763577532
sI21579
F7.750285791788572e-06
sI13410
F9.61035438181783e-05
sI31044
F2.0150743058650287e-05
sI25676
F1.0075371529325143e-05
sI18769
F1.0850400108504001e-05
sI13389
F1.937571447947143e-05
sI13922
F6.820251496773944e-05
sI16738
F1.0075371529325143e-05
sI17486
F0.0002084826877991126
sI22861
F9.300342950146286e-06
sI26680
F1.3175485846040572e-05
sI25159
F1.4725543004398287e-05
sI21583
F0.0001178043440351863
sI26934
F5.502702912169886e-05
sI20066
F1.1625428687682859e-05
sI29286
F0.00024180891670380346
sI30772
F1.705062874193486e-05
sI12131
F0.0007634031504911744
sI25680
F1.6275600162756002e-05
sI24376
F7.0527600705276e-05
sI14665
F2.0150743058650287e-05
sI22903
F4.727674332991029e-05
sI25681
F1.3175485846040572e-05
sI18297
F1.937571447947143e-05
sI25682
F3.0226114587975432e-05
sI18484
F5.4252000542520005e-06
sI24919
F4.882680048826801e-05
sI26231
F2.790102885043886e-05
sI25683
F1.1625428687682859e-05
sI26722
F1.5500571583577145e-05
sI26964
F0.00024335897386216116
sI12592
F0.0020995524209955242
sI17492
F2.0150743058650287e-05
sI31032
F1.705062874193486e-05
sI31343
F4.6501714750731434e-05
sI30773
F3.100114316715429e-05
sI17493
F1.860068590029257e-05
sI14679
F1.4725543004398287e-05
sI31046
F3.410125748386972e-05
sI21590
F2.712600027126e-05
sI13399
F2.0150743058650287e-05
sI14968
F7.750285791788573e-07
sI17477
F2.712600027126e-05
sI9537
F0.0012090445835190172
sI17496
F2.247582879618686e-05
sI22863
F1.1625428687682859e-05
sI14134
F0.0003007110887213966
sI17497
F1.395051442521943e-05
sI29032
F4.805177190908915e-05
sI21594
F9.765360097653601e-05
sI18226
F9.300342950146286e-06
sI25690
F1.0075371529325143e-05
sI9781
F0.0004223905756524772
sI14680
F1.3175485846040572e-05
sI23073
F7.750285791788573e-07
sI31047
F6.200228633430858e-06
sI22318
F3.875142895894286e-06
sI31270
F2.6350971692081144e-05
sI29229
F0.0006618744066187441
sI21625
F1.395051442521943e-05
sI31275
F7.750285791788573e-07
sI31276
F1.5500571583577145e-06
sI23085
F1.1625428687682859e-05
sI31278
F3.100114316715429e-06
sI23087
F7.750285791788573e-07
sI14896
F6.975257212609715e-06
sI14897
F2.3250857375365715e-06
sI14898
F2.4025885954544575e-05
sI14899
F5.4252000542520005e-06
sI14900
F7.750285791788573e-07
sI31285
F3.332622890469086e-05
sI14902
F7.750285791788573e-07
sI31287
F6.200228633430858e-06
sI14904
F2.3250857375365715e-06
sI14905
F1.5500571583577145e-06
sI30828
F2.3250857375365717e-05
sI13407
F4.572668617155258e-05
sI21867
F0.00016973125884016973
sI14681
F1.7825657321113717e-05
sI31295
F4.0301486117300574e-05
sI31048
F1.0075371529325143e-05
sI23105
F1.1625428687682859e-05
sI23106
F4.417662901319486e-05
sI23107
F2.8676057429617717e-05
sI31300
F1.2400457266861716e-05
sI23109
F3.487628606304858e-05
sI21093
F1.0850400108504001e-05
sI21601
F6.665245780938172e-05
sI23112
F2.6350971692081144e-05
sI23113
F6.975257212609715e-06
sI31306
F5.425200054252e-05
sI30833
F1.937571447947143e-05
sI31308
F1.0850400108504001e-05
sI21602
F5.4252000542520005e-06
sI14926
F4.650171475073143e-06
sI14136
F0.00047586754761581835
sI23120
F1.395051442521943e-05
sI23121
F6.35523434926663e-05
sI23122
F1.860068590029257e-05
sI25699
F0.000184456801844568
sI14932
F7.750285791788572e-06
sI23125
F2.1700800217008002e-05
sI14409
F1.0850400108504001e-05
sI23127
F5.192691480498343e-05
sI14393
F0.00038828931816860745
sI31321
F6.897754354691829e-05
sI31322
F3.410125748386972e-05
sI14682
F7.362771502199144e-05
sI13411
F0.0007982794365542229
sI31049
F4.3401600434016004e-05
sI29797
F0.001384201042413439
sI23137
F6.975257212609715e-06
sI23138
F1.705062874193486e-05
sI23139
F1.0075371529325143e-05
sI26941
F3.7976400379764e-05
sI29798
F0.00013020480130204802
sI14950
F4.650171475073143e-06
sI14951
F5.4252000542520005e-06
sI31336
F1.5500571583577145e-05
sI14953
F3.875142895894286e-06
sI23146
F7.750285791788572e-05
sI25703
F6.277731491348743e-05
sI14956
F5.3476971963341146e-05
sI14957
F4.650171475073143e-06
sI25432
F1.395051442521943e-05
sI23151
F1.705062874193486e-05
sI14960
F4.9601829067446865e-05
sI25704
F8.680320086803201e-05
sI14962
F2.9451086008796574e-05
sI23155
F1.7825657321113717e-05
sI31348
F5.270194338416229e-05
sI31349
F1.395051442521943e-05
sI31350
F8.52531437096743e-06
sI17513
F1.0850400108504001e-05
sI15721
F0.00014183022998973086
sI31353
F1.395051442521943e-05
sI31354
F3.0226114587975432e-05
sI13684
F1.6275600162756002e-05
sI23164
F3.875142895894286e-06
sI25706
F4.6501714750731434e-05
sI18775
F4.572668617155258e-05
sI25707
F3.177617174633315e-05
sI18485
F1.0075371529325143e-05
sI21612
F0.00018213171610703146
sI22867
F1.3175485846040572e-05
sI12593
F0.0010307880103078801
sI29805
F5.890217201759315e-05
sI31033
F5.6577086280056576e-05
sI21322
F2.0150743058650287e-05
sI26959
F2.0925771637829144e-05
sI24421
F0.0004696673189823875
sI17518
F1.5500571583577145e-05
sI31051
F2.790102885043886e-05
sI17519
F1.705062874193486e-05
sI14448
F1.860068590029257e-05
sI13637
F0.0003115614888299006
sI27505
F1.395051442521943e-05
sI29808
F0.0004386661758152332
sI22595
F6.975257212609715e-06
sI19540
F9.300342950146286e-06
sI9538
F0.0004456414330278429
sI13425
F3.2551200325512005e-05
sI9829
F0.00017128131599852744
sI17958
F0.0005099688050996881
sI17522
F1.0850400108504001e-05
sI10593
F7.750285791788573e-07
sI26960
F2.1700800217008002e-05
sI11884
F0.0002867605742961772
sI15732
F0.0008424560655674178
sI17523
F1.0075371529325143e-05
sI29251
F3.720137180058514e-05
sI27233
F2.0925771637829144e-05
sI31052
F1.0850400108504001e-05
sI17524
F0.0005122938908372247
sI16685
F2.557594311290229e-05
sI15212
F7.750285791788573e-07
sI27506
F0.00026583480265834805
sI21835
F9.300342950146286e-06
sI17525
F1.7825657321113717e-05
sI22596
F1.3175485846040572e-05
sI16183
F1.5500571583577145e-06
sI21622
F7.750285791788572e-06
sI29233
F6.975257212609715e-06
sI31346
F1.6275600162756002e-05
sI31031
F1.0850400108504001e-05
sI21623
F1.2400457266861716e-05
sI23142
F1.7825657321113717e-05
sI14413
F8.52531437096743e-06
sI13139
F1.6275600162756002e-05
sI17528
F1.395051442521943e-05
sI21868
F1.2400457266861716e-05
sI17716
F4.3401600434016004e-05
sI31053
F4.2626571854837146e-05
sI25721
F2.712600027126e-05
sI19310
F7.5952800759528e-05
sI25403
F4.650171475073143e-06
sI25722
F3.720137180058514e-05
sI22597
F2.0150743058650287e-05
sI13868
F8.52531437096743e-06
sI22870
F9.300342950146286e-06
sI9593
F0.0004983433764120052
sI22377
F1.2400457266861716e-05
sI23143
F6.975257212609715e-06
sI14414
F8.52531437096743e-06
sI18233
F8.52531437096743e-06
sI14687
F3.2551200325512005e-05
sI13412
F0.0001340799441979423
sI31054
F2.247582879618686e-05
sI22325
F1.705062874193486e-05
sI24361
F2.3250857375365715e-06
sI31327
F2.1700800217008002e-05
sI16249
F7.750285791788572e-06
sI22598
F3.9526457538121716e-05
sI13869
F8.292805797213773e-05
sI16740
F2.557594311290229e-05
sI22871
F4.727674332991029e-05
sI21050
F7.750285791788573e-07
sI30509
F0.00021235783069500688
sI29779
F9.765360097653601e-05
sI20068
F2.247582879618686e-05
sI14415
F1.1625428687682859e-05
sI16976
F1.0075371529325143e-05
sI12077
F4.3401600434016004e-05
sI29513
F1.2400457266861716e-05
sI13685
F0.00011005405824339772
sI31055
F1.2400457266861716e-05
sI22326
F1.2400457266861716e-05
sI28462
F7.750285791788572e-05
sI22599
F1.4725543004398287e-05
sI28463
F0.0006463738350351669
sI26233
F3.2551200325512005e-05
sI19053
F3.410125748386972e-05
sI12080
F0.0003278370889926566
sI20053
F3.100114316715429e-05
sI12594
F0.0004216155470732983
sI31034
F7.750285791788573e-07
sI28465
F1.2400457266861716e-05
sI30255
F0.0005339946910542326
sI15145
F1.2400457266861716e-05
sI30052
F0.0016019840731626978
sI12082
F0.0002790102885043886
sI27237
F1.0075371529325143e-05
sI15152
F1.2400457266861716e-05
sI15153
F7.750285791788572e-06
sI16179
F5.4252000542520005e-06
sI15156
F3.100114316715429e-06
sI15157
F1.5500571583577145e-06
sI11575
F9.067834376392629e-05
sI31329
F0.00013873011567301543
sI22600
F1.0075371529325143e-05
sI28468
F1.6275600162756002e-05
sI23354
F3.875142895894286e-06
sI23156
F3.720137180058514e-05
sI9539
F0.0007626281219119955
sI31549
F3.100114316715429e-06
sI22873
F9.300342950146286e-06
sI31551
F7.750285791788573e-07
sI30511
F0.0010633392106333922
sI13419
F6.122725775512971e-05
sI12086
F0.00016353103020673887
sI14417
F1.1625428687682859e-05
sI12867
F0.00013330491561876345
sI30325
F4.727674332991029e-05
sI29524
F7.750285791788572e-06
sI20279
F1.2400457266861716e-05
sI20275
F6.432737207184515e-05
sI14690
F9.765360097653601e-05
sI31057
F3.0226114587975432e-05
sI22328
F6.200228633430858e-06
sI20280
F1.0850400108504001e-05
sI14963
F3.720137180058514e-05
sI19813
F0.0005401949196876635
sI14161
F1.705062874193486e-05
sI22601
F1.395051442521943e-05
sI28473
F1.4725543004398287e-05
sI29033
F2.6350971692081144e-05
sI19556
F2.1700800217008002e-05
sI19032
F5.9677200596772006e-05
sI29234
F2.0925771637829144e-05
sI28474
F3.100114316715429e-06
sI14145
F4.417662901319486e-05
sI30512
F3.487628606304858e-05
sI23147
F5.270194338416229e-05
sI15204
F7.750285791788573e-07
sI18237
F4.805177190908915e-05
sI15206
F3.0226114587975432e-05
sI21869
F6.277731491348743e-05
sI14691
F0.00010850400108504
sI31058
F3.5651314642227435e-05
sI15213
F1.5500571583577145e-06
sI16959
F4.6501714750731434e-05
sI20285
F3.2551200325512005e-05
sI14964
F2.9451086008796574e-05
sI23411
F2.247582879618686e-05
sI22602
F6.897754354691829e-05
sI16191
F5.4252000542520005e-06
sI19796
F0.00012400457266861716
sI17965
F1.0075371529325143e-05
sI29507
F5.6577086280056576e-05
sI30324
F2.6350971692081144e-05
sI30786
F1.6275600162756002e-05
sI28481
F6.510240065102401e-05
sI13413
F7.5952800759528e-05
sI18511
F0.00021390788785336458
sI23141
F8.52531437096743e-06
sI11364
F2.3250857375365715e-06
sI20290
F3.487628606304858e-05
sI31332
F1.395051442521943e-05
sI28483
F0.0003433376605762337
sI16741
F4.495165759237372e-05
sI19057
F1.2400457266861716e-05
sI20292
F2.3250857375365717e-05
sI26695
F1.937571447947143e-05
sI30514
F5.037685764662572e-05
sI28485
F9.300342950146286e-06
sI29289
F0.002143729050008719
sI22361
F8.370308655131658e-05
sI18231
F1.0850400108504001e-05
sI28486
F5.037685764662572e-05
sI13686
F1.1625428687682859e-05
sI31060
F0.0004967933192536474
sI9783
F0.0002371587452287303
sI28487
F9.2228400922284e-05
sI14966
F2.3250857375365715e-06
sI31333
F1.705062874193486e-05
sI18487
F1.5500571583577145e-05
sI28488
F4.185154327565829e-05
sI17014
F1.395051442521943e-05
sI30277
F2.0925771637829144e-05
sI28489
F1.4725543004398287e-05
sI26696
F7.750285791788572e-06
sI17967
F1.860068590029257e-05
sI12875
F8.52531437096743e-06
sI21815
F8.52531437096743e-06
sI23150
F4.107651469647943e-05
sI14421
F6.975257212609715e-06
sI15158
F1.5500571583577145e-06
sI11597
F2.4800914533723432e-05
sI14694
F0.00010075371529325144
sI31061
F9.377845808064172e-05
sI28492
F0.0003138865745674372
sI31334
F4.6501714750731434e-05
sI28493
F0.0005835965201216795
sI19251
F2.1700800217008002e-05
sI17778
F1.0075371529325143e-05
sI20302
F1.1625428687682859e-05
sI26697
F1.395051442521943e-05
sI30516
F0.0006680746352521749
sI28495
F1.5500571583577145e-05
sI26970
F7.207765786363372e-05
sI18241
F6.200228633430858e-05
sI30326
F1.7825657321113717e-05
sI20304
F0.00012167948693108058
sI30817
F0.00013485497277712115
sI14695
F1.0075371529325143e-05
sI18514
F1.6275600162756002e-05
sI9785
F0.00013718005851465773
sI28497
F1.0850400108504001e-05
sI15214
F4.650171475073143e-06
sI25416
F1.2400457266861716e-05
sI18787
F4.417662901319486e-05
sI26425
F8.602817228885316e-05
sI9813
F3.100114316715429e-06
sI19060
F8.52531437096743e-06
sI27953
F2.790102885043886e-05
sI12115
F4.650171475073143e-06
sI26698
F1.6275600162756002e-05
sI17969
F1.860068590029257e-05
sI12116
F5.4252000542520005e-06
sI13141
F3.0226114587975432e-05
sI19535
F1.3175485846040572e-05
sI22061
F1.0075371529325143e-05
sI12117
F3.875142895894286e-06
sI27244
F3.0226114587975432e-05
sI18515
F0.00032008680320086804
sI20310
F5.4252000542520005e-06
sI12099
F3.875142895894286e-06
sI14434
F0.00011005405824339772
sI28503
F2.8676057429617717e-05
sI13907
F1.3175485846040572e-05
sI19061
F7.517777218034915e-05
sI28504
F7.750285791788572e-06
sI18510
F1.0850400108504001e-05
sI17970
F0.004843153591288679
sI28526
F0.0004216155470732983
sI28505
F1.4725543004398287e-05
sI30791
F3.0226114587975432e-05
sI22062
F1.5500571583577145e-06
sI13905
F1.2400457266861716e-05
sI12122
F2.3250857375365715e-06
sI17511
F1.0850400108504001e-05
sI14697
F5.4252000542520005e-06
sI31064
F8.52531437096743e-06
sI9524
F0.0007029509213152235
sI31337
F0.0003735637751642092
sI22608
F1.1625428687682859e-05
sI13879
F0.0005208192052081921
sI31791
F7.750285791788573e-07
sI31792
F7.750285791788572e-06
sI31793
F1.860068590029257e-05
sI31794
F6.200228633430858e-06
sI21570
F2.1700800217008002e-05
sI31796
F1.860068590029257e-05
sI31797
F3.875142895894286e-06
sI29290
F2.6350971692081144e-05
sI31799
F3.875142895894286e-06
sI30790
F4.572668617155258e-05
sI22063
F3.875142895894286e-06
sI15160
F3.875142895894286e-06
sI28511
F0.00010462885818914573
sI21821
F7.285268644281259e-05
sI31065
F2.4800914533723432e-05
sI13368
F0.00031621166030497373
sI19039
F1.6275600162756002e-05
sI31810
F5.4252000542520005e-06
sI18790
F1.4725543004398287e-05
sI22609
F1.860068590029257e-05
sI20321
F1.6275600162756002e-05
sI17015
F1.4725543004398287e-05
sI19063
F3.7976400379764e-05
sI26726
F1.6275600162756002e-05
sI28514
F0.000885082637422255
sI14153
F6.742748638856058e-05
sI17972
F1.7825657321113717e-05
sI16227
F1.2400457266861716e-05
sI14426
F2.0150743058650287e-05
sI18245
F1.4725543004398287e-05
sI22064
F3.0226114587975432e-05
sI12132
F0.0006479238921935246
sI31041
F1.937571447947143e-05
sI14699
F1.2400457266861716e-05
sI18518
F7.440274360117029e-05
sI9789
F0.001249346069636318
sI14451
F1.0850400108504001e-05
sI28517
F0.0005804964058049641
sI31339
F3.642634322140629e-05
sI28518
F0.0013384743562418863
sI19252
F2.557594311290229e-05
sI9541
F0.00034411268915541263
sI17779
F1.705062874193486e-05
sI10335
F5.4252000542520005e-06
sI20327
F6.200228633430858e-06
sI31852
F2.3250857375365715e-06
sI30521
F2.0925771637829144e-05
sI31854
F1.5500571583577145e-06
sI20328
F3.2551200325512005e-05
sI31858
F9.300342950146286e-06
sI31859
F7.750285791788573e-07
sI18246
F2.1700800217008002e-05
sI22065
F1.3175485846040572e-05
sI31863
F7.750285791788573e-07
sI14700
F2.8676057429617717e-05
sI18519
F1.6275600162756002e-05
sI22338
F2.0925771637829144e-05
sI12138
F7.750285791788572e-06
sI26993
F3.720137180058514e-05
sI18792
F1.2400457266861716e-05
sI22611
F1.1625428687682859e-05
sI20331
F2.790102885043886e-05
sI17701
F0.0009370095522272384
sI20332
F6.200228633430858e-05
sI18543
F4.650171475073143e-06
sI17974
F0.00028133537424192517
sI20333
F3.100114316715429e-05
sI16180
F1.6275600162756002e-05
sI30795
F1.1625428687682859e-05
sI9518
F4.650171475073143e-06
sI20334
F1.1625428687682859e-05
sI31091
F0.00026583480265834805
sI22339
F1.5500571583577145e-05
sI26158
F1.937571447947143e-05
sI18793
F1.0075371529325143e-05
sI20336
F1.0075371529325143e-05
sI17702
F1.705062874193486e-05
sI19066
F3.642634322140629e-05
sI20337
F8.52531437096743e-06
sI14156
F1.0075371529325143e-05
sI28527
F0.0013601751564588944
sI20338
F1.3175485846040572e-05
sI24418
F6.510240065102401e-05
sI9546
F9.300342950146286e-06
sI30796
F9.300342950146286e-06
sI22067
F2.6350971692081144e-05
sI28531
F0.001134641839917847
sI17784
F2.1700800217008002e-05
sI27250
F1.6275600162756002e-05
sI18521
F1.0850400108504001e-05
sI22340
F0.00041774040417740405
sI28532
F0.0014175272713181299
sI18794
F0.00012787971556451144
sI22613
F2.6350971692081144e-05
sI28533
F0.00024335897386216116
sI27495
F1.7825657321113717e-05
sI20342
F1.0075371529325143e-05
sI14157
F1.0075371529325143e-05
sI17976
F4.107651469647943e-05
sI28535
F0.000862606808626068
sI30273
F1.860068590029257e-05
sI26978
F0.0009300342950146287
sI30797
F2.3250857375365717e-05
sI22068
F6.897754354691829e-05
sI20344
F4.6501714750731434e-05
sI14703
F1.0850400108504001e-05
sI9793
F1.6275600162756002e-05
sI26160
F0.0001666311445234543
sI30572
F2.790102885043886e-05
sI25713
F1.7825657321113717e-05
sI12154
F2.0150743058650287e-05
sI22887
F8.52531437096743e-06
sI14158
F1.705062874193486e-05
sI30525
F9.2228400922284e-05
sI12874
F7.750285791788572e-06
sI31037
F1.5500571583577145e-06
sI14431
F2.712600027126e-05
sI30798
F1.6275600162756002e-05
sI30055
F0.00028753560287535603
sI31314
F1.937571447947143e-05
sI14704
F7.750285791788572e-06
sI31071
F1.3175485846040572e-05
sI22342
F1.860068590029257e-05
sI26161
F9.765360097653601e-05
sI13643
F6.432737207184515e-05
sI31344
F1.4725543004398287e-05
sI18271
F3.0226114587975432e-05
sI9542
F0.0013702505279882195
sI30823
F4.495165759237372e-05
sI22888
F5.580205770087772e-05
sI14159
F6.975257212609715e-06
sI18541
F7.750285791788572e-06
sI13361
F0.0007029509213152235
sI26980
F0.0038061653523473677
sI21108
F1.4725543004398287e-05
sI30328
F1.4725543004398287e-05
sI30819
F7.827788649706458e-05
sI31277
F5.270194338416229e-05
sI9795
F9.300342950146286e-06
sI26162
F0.0008719071515762144
sI25418
F2.0150743058650287e-05
sI18797
F3.875142895894286e-05
sI26435
F5.580205770087772e-05
sI31279
F3.875142895894286e-05
sI10341
F7.750285791788573e-07
sI14160
F1.4725543004398287e-05
sI10800
F4.3401600434016004e-05
sI25422
F6.200228633430858e-06
sI21798
F3.875142895894286e-06
sI23162
F7.0527600705276e-05
sI27185
F1.5500571583577145e-05
sI30800
F7.750285791788572e-06
sI9523
F0.00019840731626978746
sI12652
F4.107651469647943e-05
sI22854
F1.4725543004398287e-05
sI31092
F0.0014942551006568367
sI18994
F6.122725775512971e-05
sI31073
F0.0003642634322140629
sI15664
F5.4252000542520005e-06
sI23857
F6.200228633430858e-06
sI23858
F1.0850400108504001e-05
sI27187
F1.7825657321113717e-05
sI15668
F2.247582879618686e-05
sI15669
F1.937571447947143e-05
sI15670
F1.0850400108504001e-05
sI15671
F1.6275600162756002e-05
sI15672
F1.395051442521943e-05
sI15673
F2.557594311290229e-05
sI14714
F1.395051442521943e-05
sI22890
F8.835325802638972e-05
sI26709
F1.2400457266861716e-05
sI18997
F3.7976400379764e-05
sI22372
F0.00015888085873166574
sI15682
F1.6275600162756002e-05
sI15684
F0.0007587529790161012
sI23877
F7.750285791788573e-07
sI30801
F2.1700800217008002e-05
sI15687
F4.650171475073143e-06
sI15688
F0.00012400457266861716
sI15689
F7.750285791788572e-06
sI20021
F0.00011470422971847087
sI27191
F7.672782933870687e-05
sI15692
F0.00017515645889442174
sI15693
F8.52531437096743e-06
sI9797
F4.650171475073143e-06
sI20037
F7.362771502199144e-05
sI15697
F1.1625428687682859e-05
sI15698
F2.3250857375365715e-06
sI15699
F2.712600027126e-05
sI15700
F5.4252000542520005e-06
sI26437
F3.177617174633315e-05
sI19001
F1.860068590029257e-05
sI15704
F8.52531437096743e-06
sI19530
F4.107651469647943e-05
sI13878
F0.00035418806068473774
sI22891
F5.6577086280056576e-05
sI14162
F4.650171475073143e-06
sI32093
F7.750285791788573e-07
sI15711
F8.215302939295886e-05
sI29783
F1.5500571583577145e-05
sI15713
F0.00016740617310263316
sI29292
F1.7825657321113717e-05
sI15715
F0.00024723411675805547
sI32100
F1.5500571583577145e-05
sI22073
F6.975257212609715e-06
sI15718
F0.00015113057293987715
sI15719
F0.0007246517215322315
sI15720
F0.0001503555443606983
sI13387
F9.300342950146286e-06
sI15722
F2.9451086008796574e-05
sI31075
F0.00029761097440468115
sI16744
F4.6501714750731434e-05
sI15725
F0.00033016217473019315
sI15726
F0.00130902327023309
sI19005
F5.4252000542520005e-06
sI15728
F0.00011547925829764973
sI15729
F5.037685764662572e-05
sI15730
F0.0004371161186568755
sI15731
F0.00036813857510995717
sI13890
F3.7976400379764e-05
sI15733
F0.00016740617310263316
sI15734
F0.00019608223053225088
sI17508
F0.00018213171610703146
sI15736
F3.0226114587975432e-05
sI15737
F0.00019840731626978746
sI15738
F3.720137180058514e-05
sI30530
F4.2626571854837146e-05
sI23933
F7.750285791788573e-07
sI31029
F1.860068590029257e-05
sI14436
F9.61035438181783e-05
sI20836
F0.00011702931545600745
sI30056
F0.0003844141752727132
sI19009
F1.705062874193486e-05
sI31076
F0.0006641994923562806
sI9799
F7.750285791788573e-07
sI26166
F7.0527600705276e-05
sI31298
F2.247582879618686e-05
sI21876
F7.750285791788572e-06
sI17206
F0.0003503129177888435
sI26439
F1.6275600162756002e-05
sI27203
F1.395051442521943e-05
sI9543
F2.9451086008796574e-05
sI17781
F1.0075371529325143e-05
sI27001
F0.00012555462982697486
sI22893
F7.0527600705276e-05
sI14164
F1.705062874193486e-05
sI23108
F4.417662901319486e-05
sI30531
F1.395051442521943e-05
sI23091
F4.9601829067446865e-05
sI22582
F1.705062874193486e-05
sI19013
F2.0925771637829144e-05
sI21109
F7.750285791788572e-05
sI30329
F8.52531437096743e-06
sI23110
F1.7825657321113717e-05
sI18001
F1.0850400108504001e-05
sI31077
F0.0007463525217492396
sI22348
F0.00014260525856890974
sI13619
F0.0017383891030981768
sI16199
F3.875142895894286e-06
sI23111
F3.410125748386972e-05
sI23090
F5.890217201759315e-05
sI18802
F2.3250857375365717e-05
sI21604
F0.0003293871461510143
sI13892
F3.642634322140629e-05
sI27208
F9.300342950146286e-06
sI20018
F0.00014958051578151945
sI29238
F3.177617174633315e-05
sI22894
F9.300342950146286e-06
sI26713
F1.395051442521943e-05
sI27209
F7.750285791788572e-06
sI30532
F3.720137180058514e-05
sI22132
F2.712600027126e-05
sI29012
F1.5500571583577145e-05
sI19018
F6.975257212609715e-06
sI30805
F6.0452229175950864e-05
sI9528
F0.0005797213772257852
sI12653
F2.6350971692081144e-05
sI31093
F9.997868671407258e-05
sI27211
F1.0075371529325143e-05
sI12349
F0.0008168801224545155
sI31078
F5.502702912169886e-05
sI22349
F5.270194338416229e-05
sI26168
F8.215302939295886e-05
sI23116
F1.395051442521943e-05
sI26674
F8.447811513049544e-05
sI18803
F0.00010307880103078801
sI25201
F1.0075371529325143e-05
sI13893
F0.00016275600162756002
sI19021
F5.4252000542520005e-06
sI22895
F3.2551200325512005e-05
sI20782
F2.3250857375365715e-06
sI27214
F0.00012555462982697486
sI17985
F0.00017205634457770631
sI13417
F3.332622890469086e-05
sI31311
F1.0850400108504001e-05
sI29263
F1.7825657321113717e-05
sI22077
F3.875142895894286e-06
sI23128
F3.2551200325512005e-05
sI19024
F7.750285791788572e-06
sI31079
F0.00047741760477417605
sI9802
F1.5500571583577145e-06
sI26169
F9.997868671407258e-05
sI31313
F5.115188622580458e-05
sI18804
F0.0010168374958826607
sI22623
F1.0075371529325143e-05
sI28772
F0.0001433802871480886
sI13894
F2.0150743058650287e-05
sI17713
F1.3175485846040572e-05
sI21055
F1.5500571583577145e-06
sI14931
F3.875142895894286e-06
sI17986
F5.115188622580458e-05
sI21805
F1.2400457266861716e-05
sI29293
F4.417662901319486e-05
sI23124
F3.487628606304858e-05
sI30807
F9.300342950146286e-06
sI9530
F8.52531437096743e-06
sI24383
F5.6577086280056576e-05
sI27221
F1.4725543004398287e-05
sI18532
F2.4800914533723432e-05
sI9803
F7.750285791788572e-06
sI13622
F0.00043789114723605433
sI31318
F5.270194338416229e-05
sI18805
F1.4725543004398287e-05
sI14151
F1.3175485846040572e-05
sI26443
F2.557594311290229e-05
sI31319
F1.1625428687682859e-05
sI17509
F1.3175485846040572e-05
sI22389
F7.98279436554223e-05
sI22897
F1.0850400108504001e-05
sI14168
F1.937571447947143e-05
sI31320
F9.300342950146286e-06
sI30535
F1.395051442521943e-05
sI21806
F2.3250857375365715e-06
sI17719
F2.247582879618686e-05
sI22310
F2.790102885043886e-05
sI30256
F2.0925771637829144e-05
sI19033
F7.750285791788572e-06
sI20837
F1.937571447947143e-05
sI30057
F0.0002425839452829823
sI27226
F4.882680048826801e-05
sI16246
F3.100114316715429e-06
sI18533
F3.177617174633315e-05
sI9804
F7.750285791788573e-07
sI26171
F4.650171475073143e-06
sI14945
F3.5651314642227435e-05
sI18806
F1.395051442521943e-05
sI22625
F4.107651469647943e-05
sI13896
F1.7825657321113717e-05
sI30263
F1.1625428687682859e-05
sI8562
F1.5500571583577145e-06
sI17782
F1.395051442521943e-05
sI32300
F7.750285791788573e-07
sI18273
F2.1700800217008002e-05
sI30536
F5.4252000542520005e-06
sI23856
F8.52531437096743e-06
sI22583
F1.6275600162756002e-05
sI14442
F9.300342950146286e-06
sI21110
F1.5500571583577145e-05
sI31312
F1.2400457266861716e-05
sI25899
F2.0150743058650287e-05
sI31860
F7.750285791788573e-07
sI27190
F6.200228633430858e-06
sI31082
F2.6350971692081144e-05
sI22353
F1.395051442521943e-05
sI13624
F0.00036348840363488406
sI24438
F0.00013485497277712115
sI24929
F0.0001340799441979423
sI22626
F2.0925771637829144e-05
sI13897
F1.1625428687682859e-05
sI30264
F1.937571447947143e-05
sI20019
F0.00014803045862316172
sI22899
F1.0075371529325143e-05
sI14170
F1.2400457266861716e-05
sI27234
F0.0001356300013563
sI30537
F4.0301486117300574e-05
sI28257
F0.005470926740423553
sI13671
F2.4800914533723432e-05
sI27235
F9.2228400922284e-05
sI30810
F1.0075371529325143e-05
sI9533
F0.00013640502993547888
sI22081
F2.1700800217008002e-05
sI22856
F1.1625428687682859e-05
sI19044
F8.52531437096743e-06
sI21569
F1.705062874193486e-05
sI18535
F1.395051442521943e-05
sI9806
F1.2400457266861716e-05
sI13625
F0.000374338803743388
sI14949
F4.650171475073143e-06
sI25202
F6.0452229175950864e-05
sI32355
F7.750285791788573e-07
sI13898
F8.292805797213773e-05
sI27238
F1.1625428687682859e-05
sI16748
F1.395051442521943e-05
sI32362
F7.750285791788573e-07
sI27239
F1.937571447947143e-05
sI30538
F1.0850400108504001e-05
sI21809
F1.6275600162756002e-05
sI23144
F4.185154327565829e-05
sI28738
F3.9526457538121716e-05
sI22082
F2.4025885954544575e-05
sI23129
F1.0850400108504001e-05
sI27241
F5.192691480498343e-05
sI22355
F1.3175485846040572e-05
sI31338
F1.395051442521943e-05
sI32382
F1.5500571583577145e-06
sI26457
F1.4725543004398287e-05
sI22628
F5.3476971963341146e-05
sI30327
F2.1700800217008002e-05
sI27243
F1.0075371529325143e-05
sI23148
F3.487628606304858e-05
sI30539
F3.0226114587975432e-05
sI21810
F6.0452229175950864e-05
sI14664
F1.395051442521943e-05
sI20074
F6.665245780938172e-05
sI29294
F4.572668617155258e-05
sI14445
F1.0075371529325143e-05
sI18264
F1.3175485846040572e-05
sI9535
F7.750285791788573e-07
sI22083
F1.6275600162756002e-05
sI21549
F1.2400457266861716e-05
sI14673
F3.0226114587975432e-05
sI21048
F1.705062874193486e-05
sI9808
F7.750285791788573e-07
sI26175
F4.882680048826801e-05
sI19055
F2.0925771637829144e-05
sI22629
F2.557594311290229e-05
sI13900
F8.52531437096743e-06
sI19056
F1.7825657321113717e-05
sI12089
F9.532851523899943e-05
sI18527
F1.0075371529325143e-05
sI26730
F3.2551200325512005e-05
sI26721
F0.00018910697331964117
sI17992
F1.7825657321113717e-05
sI21811
F1.3175485846040572e-05
sI14444
F6.975257212609715e-06
sI14446
F1.0075371529325143e-05
sI18265
F8.52531437096743e-06
sI30058
F9.377845808064172e-05
sI26470
F2.4025885954544575e-05
sI31347
F3.100114316715429e-05
sI22357
F1.6275600162756002e-05
sI12151
F0.0001612059444692023
sI14946
F7.750285791788573e-07
sI18483
F9.300342950146286e-06
sI28729
F1.6275600162756002e-05
sI22630
F1.1625428687682859e-05
sI13901
F1.705062874193486e-05
sI14965
F6.200228633430858e-06
sI9545
F2.4025885954544575e-05
sI10355
F7.750285791788573e-07
sI27494
F4.727674332991029e-05
sI19062
F8.52531437096743e-06
sI13601
F7.750285791788573e-07
sI27212
F1.7825657321113717e-05
sI17717
F5.7352114859235434e-05
sI14447
F1.0850400108504001e-05
sI18266
F3.5651314642227435e-05
sI22085
F2.712600027126e-05
sI25904
F0.00013485497277712115
sI22892
F4.6501714750731434e-05
sI23160
F3.720137180058514e-05
sI31087
F0.0004642421189281355
sI22358
F8.52531437096743e-06
sI25912
F8.602817228885316e-05
sI25421
F1.395051442521943e-05
sI22631
F7.750285791788572e-06
sI13902
F2.247582879618686e-05
sI14970
F5.4252000542520005e-06
sI13605
F0.00017050628741934859
sI22904
F4.572668617155258e-05
sI14175
F1.860068590029257e-05
sI17994
F2.4025885954544575e-05
sI25463
F3.5651314642227435e-05
sI13146
F1.6275600162756002e-05
sI30815
F0.00011315417256011315
sI12655
F1.7825657321113717e-05
sI13357
F0.00014260525856890974
sI27256
F1.0850400108504001e-05
sI13608
F7.750285791788573e-07
sI9811
F1.6275600162756002e-05
sI29997
F0.0002177830307492589
sI16965
F3.100114316715429e-05
sI22632
F1.3175485846040572e-05
sI13903
F1.705062874193486e-05
sI28262
F3.7976400379764e-05
sI30540
F3.332622890469086e-05
sI20784
F2.247582879618686e-05
sI9515
F7.750285791788573e-07
sI24888
F7.207765786363372e-05
sI14449
F8.52531437096743e-06
sI17708
F1.5500571583577145e-06
sI22087
F5.812714343841429e-05
sI13358
F5.192691480498343e-05
sI14401
F5.3476971963341146e-05
sI31524
F1.5500571583577145e-06
sI9517
F0.0002263083451202263
sI30034
F1.2400457266861716e-05
sI13631
F2.3250857375365715e-06
sI18503
F9.300342950146286e-06
sI17710
F1.5500571583577145e-06
sI22633
F1.6275600162756002e-05
sI16747
F1.4725543004398287e-05
sI30271
F0.00010540388676832458
sI20811
F7.750285791788572e-06
sI17711
F4.650171475073143e-06
sI22906
F7.440274360117029e-05
sI14177
F7.517777218034915e-05
sI30544
F1.1625428687682859e-05
sI17712
F3.5651314642227435e-05
sI21057
F2.1700800217008002e-05
sI29295
F0.0041394276413942764
sI14450
F1.395051442521943e-05
sI24358
F0.0001232295440894383
sI13617
F0.0015237061866656334
sI9540
F0.001211369669256554
sI13359
F5.890217201759315e-05
sI14674
F1.937571447947143e-05
sI24364
F7.750285791788573e-07
sI31090
F0.0022158067078723526
sI24366
F7.750285791788572e-06
sI24367
F1.4725543004398287e-05
sI16176
F4.650171475073143e-06
sI16177
F5.4252000542520005e-06
sI16178
F3.875142895894286e-06
sI25907
F9.997868671407258e-05
sI18493
F2.0925771637829144e-05
sI24373
F8.447811513049544e-05
sI16182
F3.100114316715429e-06
sI24375
F9.300342950146287e-05
sI16184
F2.3250857375365715e-06
sI16185
F7.750285791788573e-07
sI15679
F1.3175485846040572e-05
sI16187
F1.5500571583577145e-06
sI14178
F0.00012012942977272286
sI12601
F0.0003588382321598109
sI9525
F0.0008804324659471818
sI24385
F2.1700800217008002e-05
sI24386
F1.4725543004398287e-05
sI16195
F1.5500571583577145e-06
sI24388
F2.0150743058650287e-05
sI21814
F0.00014880548720234057
sI24390
F2.3250857375365717e-05
sI24391
F1.2400457266861716e-05
sI24392
F7.750285791788572e-06
sI24393
F8.52531437096743e-06
sI24394
F6.975257212609715e-06
sI24395
F1.6275600162756002e-05
sI9814
F8.52531437096743e-06
sI24397
F1.1625428687682859e-05
sI13633
F0.00018058165894867373
sI30000
F1.860068590029257e-05
sI24400
F2.712600027126e-05
sI21816
F9.300342950146286e-06
sI24402
F1.5500571583577145e-05
sI24403
F1.7825657321113717e-05
sI13906
F1.4725543004398287e-05
sI17725
F2.0925771637829144e-05
sI13432
F1.937571447947143e-05
sI21817
F2.247582879618686e-05
sI24408
F1.0075371529325143e-05
sI24409
F1.0075371529325143e-05
sI24410
F3.875142895894286e-06
sI14179
F0.00010540388676832458
sI30546
F1.4725543004398287e-05
sI13626
F3.100114316715429e-06
sI28467
F8.52531437096743e-06
sI24415
F5.115188622580458e-05
sI22585
F2.557594311290229e-05
sI14452
F9.300342950146286e-06
sI16226
F1.2400457266861716e-05
sI9531
F4.650171475073143e-06
sI16228
F0.000282110402821104
sI21603
F1.7825657321113717e-05
sI24422
F5.192691480498343e-05
sI24423
F0.00022553331654104745
sI17774
F1.6275600162756002e-05
sI13104
F0.0006479238921935246
sI9815
F1.5500571583577145e-06
sI24427
F6.510240065102401e-05
sI16236
F3.9526457538121716e-05
sI16237
F4.107651469647943e-05
sI16238
F0.0002611846311832749
sI24431
F0.00011160411540175544
sI16240
F0.00015113057293987715
sI24433
F3.9526457538121716e-05
sI16242
F2.1700800217008002e-05
sI24435
F0.00041076514696479434
sI24436
F0.00014880548720234057
sI16245
F7.750285791788573e-07
sI29241
F1.1625428687682859e-05
sI16247
F1.860068590029257e-05
sI16248
F0.0001991823448489663
sI14180
F0.00012555462982697486
sI24442
F2.557594311290229e-05
sI30015
F0.00019763228769060858
sI14453
F0.000695200635523435
sI22091
F2.0150743058650287e-05
sI13362
F0.001253996241111391
sI31096
F1.937571447947143e-05
sI30017
F9.61035438181783e-05
sI9816
F3.100114316715429e-06
sI22346
F1.395051442521943e-05
sI26183
F2.0925771637829144e-05
sI17454
F6.200228633430858e-06
sI17730
F5.502702912169886e-05
sI26186
F2.247582879618686e-05
sI13908
F1.4725543004398287e-05
sI30275
F2.712600027126e-05
sI25923
F1.6275600162756002e-05
sI22575
F1.5500571583577145e-06
sI14181
F0.00010850400108504
sI18000
F1.6275600162756002e-05
sI25924
F8.292805797213773e-05
sI31795
F6.975257212609715e-06
sI16231
F7.672782933870687e-05
sI14454
F9.300342950146286e-06
sI17733
F3.720137180058514e-05
sI9544
F0.0001123791439809343
sI13363
F0.00045339171881963146
sI17785
F1.1625428687682859e-05
sI13420
F2.6350971692081144e-05
sI30322
F0.0007455774931700607
sI17734
F3.332622890469086e-05
sI9817
F1.0075371529325143e-05
sI13636
F0.00018833194474046232
sI17455
F7.5952800759528e-05
sI25927
F5.812714343841429e-05
sI22638
F1.395051442521943e-05
sI13909
F1.395051442521943e-05
sI14959
F7.517777218034915e-05
sI30276
F1.7825657321113717e-05
sI30024
F1.2400457266861716e-05
sI14182
F9.532851523899943e-05
sI30549
F6.820251496773944e-05
sI21833
F1.5500571583577145e-05
sI30769
F1.6275600162756002e-05
sI21058
F6.0452229175950864e-05
sI29296
F0.0017050628741934859
sI17738
F2.4025885954544575e-05
sI22093
F7.750285791788572e-06
sI13364
F0.0006277731491348744
sI18547
F1.395051442521943e-05
sI9818
F3.875142895894286e-06
sI26185
F1.6275600162756002e-05
sI30004
F1.7825657321113717e-05
sI25932
F5.115188622580458e-05
sI13910
F8.52531437096743e-06
sI27223
F9.300342950146286e-06
sI17729
F0.0002425839452829823
sI17741
F3.332622890469086e-05
sI14183
F1.3175485846040572e-05
sI30550
F2.9451086008796574e-05
sI30030
F1.4725543004398287e-05
sI24430
F0.00021700800217008
sI21331
F1.7825657321113717e-05
sI14456
F9.067834376392629e-05
sI21839
F2.6350971692081144e-05
sI22094
F1.5500571583577145e-05
sI25913
F8.525314370967429e-05
sI31801
F1.5500571583577145e-06
sI13648
F6.665245780938172e-05
sI14457
F2.4800914533723432e-05
sI22329
F1.395051442521943e-05
sI13638
F6.742748638856058e-05
sI30005
F4.0301486117300574e-05
sI18287
F1.5500571583577145e-05
sI25937
F1.4725543004398287e-05
sI21364
F1.705062874193486e-05
sI22640
F2.8676057429617717e-05
sI13911
F4.650171475073143e-06
sI30278
F5.115188622580458e-05
sI17746
F0.0001596558873108446
sI18276
F0.00012167948693108058
sI14184
F1.937571447947143e-05
sI9555
F0.00012632965840615374
sI12144
F0.00030691131735482747
sI11893
F3.9526457538121716e-05
sI13679
F1.2400457266861716e-05
sI17748
F0.00010230377245160916
sI9547
F0.00012400457266861716
sI13366
F0.00045029160450291606
sI30824
F2.6350971692081144e-05
sI25941
F1.860068590029257e-05
s.