(lp0
F0.0001
aF0.0001
aF0.0001
aF0.0001
aF0.0001
aF0.00010190486452372615
aF0.0001
aF0.0005019264145062168
aF0.00049049722736386
aF0.0001
aF0.00017809944547277198
aF0.00017809944547277198
aF0.0001
aF0.00019333836166258116
aF0.0001076194580949046
aF0.04686061432842943
aF0.006631780451856954
aF0.06112804961113826
aF0.0059136465264121975
aF0.006719404219948357
aF0.0060355578559306705
aF0.003067778927965335
aF0.003646857743178083
aF0.0031001616248686795
aF0.0023763131058527442
aF0.0021953509760987604
aF0.0022296385375258306
aF0.0028411000496419234
aF0.00042001723998599246
aF0.0001628605292829628
aF0.0001
aF0.0013267327532796378
aF0.0001
aF0.0009838571390089316
aF0.0002447697038031871
aF0.0006695544925941177
aF0.0006771739506890222
aF0.001001000919722467
aF0.0017877099680213653
aF0.0009533793066293134
aF0.0010905295523375958
aF0.0012200603399509739
aF0.000374300491416565
aF0.0018353315811145189
aF0.0009838571390089316
aF0.00015524107118805824
aF0.001183867914000177
aF0.0031382589153432024
aF0.002871577882021542
aF0.0011591046751917371
aF0.00023905511023200864
aF0.0007952755511600433
aF0.0007305101573533543
aF0.0004409707497469801
aF0.0029992038051111936
aF0.0008028950092549478
aF0.0011210073847172143
aF0.001970576962299075
aF0.0007609879897329726
aF0.002829670862499567
aF0.002599182255128703
aF0.0001
aF0.0001
aF0.0001
aF0.0001
aF0.0027210935846471765
aF0.0001
aF0.06488825218097367
aF0.009599559379822289
aF0.045424346477539915
aF0.02585948295434867
aF0.08590843220029169
aF0.014837936820069189
aF0.021950700951662617
aF0.0187219555839468
aF0.05933557209431196
aF0.004458330030285422
aF0.002387742292995101
aF0.031427401957200195
aF0.023960333024193703
aF0.05775834426866671
aF0.05556013060828674
aF0.030793082070799387
aF0.0007724171768753296
aF0.05943843477859317
aF0.06860083313771594
aF0.05422863030620216
aF0.031473118705769625
aF0.009795760425766081
aF0.005944124358791815
aF0.0048564467157441865
aF0.011087258572852409
aF0.003982113899353885
aF0.0001
aF0.00010190486452372615
aF0.0001
aF0.0001
aF0.0001
aF0.0001
aF0.0001
a.