(lp0
S'Vb{?c%cNY2GZ92e2AJjrN/Wz2IDMi0zRDjInC2iy6a2Y=2Ff3ZDjB%7R%0cI08UJp%x2agetz2N]ZlOi12QFYtWnComMxyhe2x2o6ttf2{yie2g2IS=dZqWCm7nJxOyjI2t-5ZoMjj-lz%wm=ju2plyDVe:e/QaZNoCu%E7Umti2:fJ0ci22OEfhD0=0Wkr2jI:Dx2Vpj2,jrlweQxMnO8NR,es-myo0t&m6iNJijsdBD5_wa2j5DMotpkI:m294Y2a3wUi.tptj=0sIsm0SMNhlMijayOt2fIIMjn?rduaad92noYj[2hcOr&uZ%s7u%2/krj=lleEmOoegNM2S5rxILo2M_b7IdfL2Y2jI2obPeA0fN2wMm2oEM/j2xtkFj3cxN/etzU5oj%2tmI,yC/5Il3j6}FlR/Iw%aA329PjOYr=Wj2MZoeQFaeOkkOe_3m2{RkQC%6Jc5}St2I2dTm29cih3aty3rU_ry2ZJ2w2C62nx/36522NMZteZo%n%iR2yGw+.ceIIOgvz%b2E/A_Ndw2.NIWcjM3h0M20ebrksdj0Owsutdbg62wr2%'
p1
aS'I2emn/b&2AKDeyE6ymZUbc72YIro%pjj42:a16ns2%TScS6wFLaonlMwDjC2Dc6ffe5d2I,NZzl2jxwmyj2P5ooStC%j/6uk%ce%MO%emWoKjo?EY%05_N}t2%m6QC6OwjiJnD6,Nw%kWj%I2y2n=mgM%z25tjeL2:U&oT6lMjF02y9Fli6Ne36C1O57ypj0%1IpcxCm2OQ%iIembJRjwZ[pQ00AwK9Cl2gYAQIeN.cv,L2VjsZ:CAss&%e2AfW_6use25ryMjo_9[1QT2e2Tw_5I/gwM%jS10o2hl?u/nn/gOyd=3iTQI&aA3l0lxwTgC8IeIJ.Nz-xM73oSdI295759naiOjZe2jt5YRsm3C&JJ76b2O52MP:rBp%YN.5woj:2vM.YiD2&e05f=sA0O2o2Q?p/.SiNxmnR42veA}2C/MQ6228%jzPnO3:Gm2rmIw0i8o83dog%8xk.2m90FDR6%m6nr/N]JvlxIlnYsZevp2e5%6jO3lj2a:Sv0QVnofnQ2exrxMZguViUerI!?182IMoQsUpj=3%mgF0OI52cOlZMTEm2odaSIodw,2'
p2
aS'hCIwysmje6YZmI62o2RdsUiC0AotsMujgYWE:3DmilmYc2n%ecoIQjaHYIzn2Zevu{pbI%gitf2j3MYoZMijnmwM/5pw%sC1Y{o2oTrg%TMe.jV.7OtAhISAwwmoI-ewknwfY2eI3905x3SwkdNjvxbIp2bYttCM8jIEjN/vdfgp7a:r0NmSNfQwFjj-v=jzwMt6hp3n6PNgt2YICSZ/EnjjM1enIe?Nk8s6F2:raJdp82D53QaalNnIc0QTOY22M0/n5,NIxsDmjYwnnI56f%2k6n3d2mjNerMZfMlsO992Yn&z2oj?mrhltcSs2_N:Tweg0m/mCW%OmtS%{IaQWCs2%j&2uCMDgyqe12es.eu22xeU%Vo3MgeD95,R2eJV.eMI2%8j3oMeMTtITCW2.b2cINp0snh2wvQ,j3OMN7Qjj54kl=yzs{2.9ZeMvjFg1MsgjIj2222yRc6w5QrSOmY,jmNIj2kIYMxmDO2lArFYw2mer0dbs[z6:eIj1nTdsY2xRkEnO%039Ea735T0mormMwAwOemReIo3ZN2WaFFaU66W3k.jlwEOjn%2j,'
p3
aS'vJoFM752%26w3{2m5G2zoMkraly/MDm5oYIewN33h2Mwelr2NCjYj8M262fs3sJIN62m3:9FRcA&MZ%uAug.OK0QYa22b22e.ogsMSxCEvIswmeIeOnQpw:zoz%f/66ISf0JM2L&23dfttM6fslIkak28mySEC}Sb/EewwU=2z._62,MjoawmYWBiIIus562Mw2FIO2}002ynzgOMujA?UCIOT%aMf9nojjr:rfljVdeempmva&I6M04o2Vwj9pwNsflIS?IIEtCuMJ2Y03yfnIwJfwI2Mh2dbNz&Il2jBZemcCkejMpCB2ZrrMWuZA2vT2v5sNJ0M9e23mensIxIerpxV4Yrrcr20Aa2Zeuf3EThTCJOQT{.gpF/a2eJ?gk7%2knbVk&0ApcdvM:fj2hr65Ontu7W:f.hCm1S2Y2lyw2:n:W372Jdi,jQ&o.2cSF2?TdIjoOmz%:5fp2JpaT6jMx22AMF%XOFZt1mMFiozI.jss2vDjjy2Aij2kjQzEfy/R2y-:oUkNOwo5ydApolN=jwx9d=s8Njajo6o0j306YrZocUijI4jds%jlN%'
p4
aS'-0msDc726IjUZjm2m3wjrlpo2Cnpmi2M36QezJN2R2wdGlWiYao6Imyegtjjmh.GNaI%:vmWx,habdiakNgYSD6?2eI0Zzyll:a=a2h0jIScBMsz:e60OgV]m:8tJ2UIx%28h%ai%:j%IJnj%d2m2Y0jw22OI26am1%r6ewAcwrcdRf:mAIWJQ2422JYmlEayNt3M82srmnFe%YItMcIjr9Oknimj0a_42SQOpt:wfuIIIsa3Nn:s2sCYwQCo3AODiVsZx%8&mroJFiOtN=_6M0esjn&aZo&a72j6j%edZ2Cm88kImy%s5?wYtjjCTmIjI9_dZjwYkGIdsnh%M%pR0_cIFGa2uJC3SEsw9wjuZymOiaO33mBTnn01%Oid=1&%m/IB22M-8FsOl2mZOuZLY3mx3aQIfrshQCe6j%IVb,psi?IW2GffoDsng5u%2mEWCn29bvOEIde3jwktX=QZNs5/k5N3IomI:SCZsrheuw2M6%sj2}gtJsj3mcf3jaxYm22:C=jisd8%S219I%5p,o7%pmw02sMjHl%%fe-Qv5292mO&XxjOMy0Xj52j/'
p5
aS',2e%wCQIj@bY%k2ztYzep,to=Nj&j2joejjj0dpSsj%CPNBGFNl9oiaZeovZQDe2DOpNwSZiCJ62xjICk29YN0GVeXYjdw%oeu89xqoys=xp_:2luOwoN0Y_9pIv3%ZNTkdoIQF9r3uxJsOmj3U2-kUrUflSz6qQgnA5d526mIu:zovifS-t6=2O2IM0ZbZcvcMkej6%%w:I=UIj=UZi6o2cMIxCogDis%rm2RxDepo3lI.lJdRMjYI5zo?IzwMFV5S0I:ZCxO39gpw8sjNnmcZey2kWSg_eyloj9MnOw0=ot43v%YNsZ[s2ItI2.euab:ZZj0[I0o5IVmudxiOIm0%220us5MK.Bd2ieo2gjtye22B_bm36b1YTC7Q2ybxn_nmb5N2f/2w{S%s2wCpt6Mz3NsJ2z5yNYRY0DxC,3ieMj0Oo90Nhz0v3%RYAs3NlyO%2s0j3N2ImR/D2amO2Yo6/u&IoTwsOM8jyp5=Z%OD/cdunV2DZIGme2jRs2o2O%rFMmj8jCyhQd%yI[=6f?acjj6t2jgJD8/EZAzv2wmr/ljJG4OsZjIE3zSj/%0'
p6
aS'222ha2%ejnspd%wm20d2YlNr56ji2eg%,sx8YR4Dw%ATuuT92iejZ5alIqbZ/2II2%&yfIzHByw%TzUA5nr%IaO53II:eeoj,%icZ%eseN%sM6{tvm.-%/McuGjNWa2IfEdi=j2enRb8ta2T56P0YjMkJoa02e5yI3la220DmlMr26m2=MIwjeIY5oQYQ3oe2%6ry13NxJ4Oe}kMRNMe/A:9c4a?Fmpn2Ae+3oFl{xONoj0,I?%Dyei&RDkore.j%0Id/1_yATF0wlIIym6fj6j9IwjYioir.2j-2FT6eMYm3eiw3lM/Coytt2sIjRxdkewD/2ANsM_ImInDEics&Z2:gA]MiMr2sVI0Ig%omIts0Ne&5I2%I%Oi=ZhwBj55i%m0BltN2JpM&WM/32jmlduOOO.Cnn52Nfojj222pk22C2eowm9ArddBAoF?%IexsLlg%ej5wI2gphGIjvM2=7I7n%Q%CwUovo6D6aD6I2hIM2fdcnODlnagj6wJrYpTjM=:lt2oy9i1D5DzasoatM2ns2{3DD2aIT,.%=pew?ocns%wmpOtEmJneaGA52'
p7
aS'uwjjII2%wgVA72k7gltYM%e2o4HmY22.eUjn2tDuwR/Y0sC:VNieOdYo=YeM%kI1jMOWIQmmo1jOass%dDI=35jc1c5Z0fIl2Wof.eJo%sM=I553w6GrIiZY-Flo2ls52wl/:EpMI5l,Tlk40X3whesUy,%GjuzIffjIeZ2SeDJ23IkYf02jm2%JU2%oYmg7je2xjrwZ363%20wAw%Ms22ve-AskmY-35km%6DwoQ1gu92LfNb2%w7l2aS3W8E2c0xlZwYmwiGplNwNuzu0mq[Ew2nxzjMjdz2CYAgMm2,s:beOMYwtAwmwjajOM%t9EAmAkdgon2GINbAY22IorflhQjI6l_23%e2TPh}aJ2d272a0Oma0NIt6O?jZfQ2,Yk2o=o0:2Nys2fdcl32po2/Cj:d/s.lsTMd.SMs6I2fmjn%knVgzU%Gee.oke/uFojk6SRmcCn13Iwxge202%cYVo%sI%f&jwYayIYI7xN%%3O9yVlMoIII=jOj2uClMtkrtf/_MrlAj%Y2Mv2I0wnhy%n}9j83oCje5%&2nE9%222%NUjeD.yz%Y8QDz%/'
p8
aS'w%6O2j0Hy2s}vet22TsE2Qw0gnImuUAo2y22Jl2?z6t/s&4n0Gt3eh3.=w7crgAy=n4VI0Omm0mMBiIywsQM6okumzQ6Zt526mgjA:jYs=39lHumO,mT39FZI,t0MZ2Py-2Qr%f9eRWeoeTfEU%8=Jwalj2u3ho2Ee2Y5Il?Ue82bfl3eff9tvfM3G2pp32V2lOlK2=hg9yDwoyNtoOY%Bwfj=wvw0:ojDktnCfY.dpaZ9MY_2lo/3dnb%f:s2R3vMgtkr-NOjsT5YuOQln2xeDObasO/%iwM,mifIm6%Nz2?n22tNjIy:EmstR6=a%2lMEe5MmA9be,1O2kwZmMe0djM%Mv5vP2Wutpere1MnG2e3./e/G06:Gnc0fyDYtj9rEwtCxmImaIl0r:C3dNDI%u6_62c6C4DIo/IMWwjqemrmVcmuZvl9Jbz2ipMIuIk0AQugOn9N9y29QZ2.Mre14jOw=M:2j/g1Dn6oNVnuaw20:EZ2x,}0,U%wWxsMMWApgOlwkx09BSab:lI1lb5NVp52nJy26YeYlMaAy1NL3gws]Da0OZcakuEFjQ62'
p9
aS'_O%kdobcwd6v2MAjfQR85vzrE8lOIvEZpjmm:mju20?pIo{?0%{=sIIjT2ta2G=iZO602PCz8DlhN2g=smds/_OiV%NIInw=UNIM,tjxedlbaTgdZy2eQpwz.Jje%2xpumalC6[cnomwF_I2Ie%2D.n2oioj?MeQ-nKgZg71rys0dYm2IW%5.lo-92jy7l2e2Ac0ooW_5wgIN26Mu3Ej%mn6yROtC.ElImw%VATrs2V9p3kOdCo%I2tob%y%%8MDl2mIh%ZN4&6mY3mj,Ujb0%T3mjw8OM9gPCXm2eeg2jbzN.Tyae63so6t2nZkk9EVlE8AmmjpJZ1}dsY0lTt2xB%3l%vIX/Ye&EeofmoM22bnWOgTYnDSIbs,IQZ3:22S&Mdk2e2i655wumSopjre%yenCtv9eWo4s26C%omOIN7xUOn0l22blPgCZ2TNdC6w,]bMWWteR,pao6v5nOCGnYev3oC%f2AO/jMY2L8eMjijj?bks5RgjjiJjMFw6edydsNZnRlu}rWNph:l2=_at:W%22F32gznj0jLS2=m[Ft2,//2&6Q}W3inYrsO22'
p10
aS'=.A?Ez4j2nC/2MyDd2I0uOS5Im,D%Wm:gf29DyEuB0O25yZbD3aoef3ia6hC2V6Meju1IUI9i2hgMMeU:Ifg0t1Nt:e5Nrl%Q2w3QeQg0ZI6wkmfiu6W:wsQnnA=p222m6u0WbDaw.IVRm2j20t2xDaqz%eyOHv%I{2MkIIZCajjrZ.Sr&w&OnIYmD7N,gmo,j3nsVE0XiPR%SNm5l&5t66N62,2O02ZR99IsljIrnDJ62E2/o.0Vgj3262CtlyerbwXeSo:n05I2wQojr:FNvjQI20vdew22eoT2yOjh%_jij22oD,/vizwnb:/rNefaOg%Yi0w=sja6kud2B%2%00Ijern2a%OpBjwQW4Im2mc2R1=mWo5mpIak2e22t8bl23I2MMNrl:jrjk%2d:fmsRssjT&7pd2QCwlp=swn0Srcy4xZtd52hlAyNr=stl0YNj%__o%3s02D25Gnnwy&NQF=9N2UvMW6YI1jI0jeIj&O6QYZe2&F?2IO2Bs2vmf0m9Tkb2ws.2bcj2CSjIxSaz3znRW2Ii%C0oWSrh/:lN6n2I2e5]Y5ganT9a.J/'
p11
aS'T.jMCgrxmoYWpjYUg=832Il{eNlAY?R2NUo0m/w.,%jyrkweS8YjE.hMJCd.hjgiwW=Yw:MsAe=2x26zC1jeri202is2,ocqegOmw%c0MIth::mYE_Zx/Qwa/meiNbwB&6yoDsiZyI2Qtmip5sSU%E,22CfR5yRQk2jO0bo2gpgyW,qsNMusMlOjnNou31In=euEn0wq2hljaO0jseQ%y%2rgV.Uy[2xowSh2Qi[N&Dnn0jG33O/2eIs22T%Zx-,%rxwCC2OQ:gj6Y5wdYnZMyIs3tMyijoqEd%f:Z5wn2sl:nlN?0wj7Dfs3OQ23cN?Qbx&z2nulelC2Ov2oxoN9dsa672bkCM0DnjRnw66IIrO2cIeMne0sYa2M,jyI%T/IRD0Or0nQYS/mYEvoUIj:5ygZm8FmM%am5oSv7fp3bCdygrChtmfMdpt27C}asct2RkwVwO9f9mlwdNcdsIbao2t=sI0SsDjIjtW2FS%_rFjlw5ije2jpYdodsDEjdr0%Mmyj.iCjdffe_UojD5:6Aa62IZev%QvjIgx0M_8o6NwsIYWa3mwn15nsd2MR2'
p12
aS'223Wj&IgMy%mNJI2aYlOaZ%deNm%2:d2ut/HsX0uZf&1m%j1NL/2M13%5ZeMudZk2Hoe9YgIx}Oo2jW%gg3Nbi222OPoTSzjbdAIe&jnII2tw/iWu2m2MN63iWbj%juNUo%:JnjjE6mml4Tr2jowG2x3i3jEyvwrIORC0l0anVsTOpholSA.tCt&owcD02ZtmZ%who[=M25e8/maE82Q2536gjT2onaej=US0=I2lV%ze6zko8.rJw3r9/msi5q2Zameui=vY&IyIwZi6TedIe3.TlkjjIYV%g=Cw-?CMn2Gdti3f0OQ2USDaOe2M}3xful2MebRM.0ehjnmu8mMjijN5yeIkEzifg2y2n.2R6hlI4Y:OenWMoTfbo22iI%U2k8CGSz2Ms0-=s9jIgYMdi2cU2yFk2QMMm%.c2Ay2p5weg2yOs2Z/rw9P2siM05zomPYNOnPumxpOdli2.xBINUD/0%j82Cd/sNMjx0eh?YMTFFsjsYkirmykfwDln=ifWrty.ccN3nZ5lT2ms&vf.wA3I%gNordk3zQawwrtvmIe%emXW2jps5XhgzRS,'
p13
aS'28HZ%_fl70gaIOIFdj%A5I9j6osaY0GIIjjvxO%E[D20nlbc.Fn_N7Y2egM.-=%9Oy7mCtC%xr2OAows%rse6ua2fCWs%u3xA%b9.26NroIbsv/C22UjI225%,M.Y2m2euSy=lt%coO5CMTQIG02zgOMIfIOSs28Z%j5=o_nn7n%5IJmeQN%mj9sjBQk5eYNCWwT{MgR0YjU2IAmAf,922NngtesT2%kew_Me[%si]6nMj2u222%Dj6,2tII3v0onYOjmAM/tj23NurYFEPkjy3iI%IN%b}=twe2DpMyrIype25,08s9%nDVtD%ZTN0tAAGjjtk2N=jkFU%ykd1xm52CIk2pef3l0iIpCmxZwLwmc1zaYx:CIk/hn2beMsisrufmskjMTljsk09fwCmNCr%jp%0]vwomUaoMtCmJjj6E%-nYoZsM%DwaJcYei0SoTOorsn608%7%aoI82eMeT3jJCejewJbpm2NSeW0&Td]ttMAA2oDmCY88osMGwlSeBynIletlDenwZ4ne%O2e9I2Nr-YSndwNOj32oljfp22o%tw:s/tmjM%feoeI/-'
p14
aS'yjdo3AY.t=3:My.YgQjReWnb2eEM%%0Cg2a5JN6]%36aNFwIDuW0hfC&3gI5sTrg2ftjtoSpwhYxUf68{%-%zy282mo2=n2=1BM=c0ymGVcClO/EoBwjcz0%o%2Itd0frfafI:/5w3ndnToI5f50C2o2n=j=%dtZsJx&je6/IY2%Tm9ggemIob26/nJ.S29jotzA%fx%nPg2w0admwhg7NQmjMG.JX%MjmkkHOm0JjNxb2siTlojkiL/teO2a:Ze5tjAm5gmJS1I6:zjTeO22Wi2=G2CIi6l1aLTjy2fk532sMII22UW2%I22RnlblmfzoVdI2I2n.j2p.0O.DY@.rZjapN2ZT06N_Do=wy7M0Jo%In.9wYtjJc8y22cXj6%%0AmdnoE?keo2mksT5IajWIbOJkT3l.YxIM2mn6&n/{NIFxtajxj%j2l%8,f6raNs22=/t3DRejea6sD6OxlZm0o,dBo.47,Y/Dp3snwxMM232OeNtM59Sw%ZbQ5SsRIRjG%vZyZO9AfcD?mojD2oh=2xlH9IO3tZnlws930%jOUTr7OGj2Os9ormfFIj1'
p15
aS'Y%TUsexM202Mo0kYWNQyk2%252zIbWdIYM/N0vwndl%62w6Jjo8fN%wuCtUec?jhm4d%zo3c%Jw]I2Z2I:22%Zn03kc1xdr%IdhwXltMnaFrun2%5I2j4o5doc9dvEzsi7VEyEfUny%oat2WtMm&jnq&ijsv6OjaYrsl?k2G55r&D9OAaRJDmyZO3Zn5xlJFoWojEsYkl2oJiUn9nu6.1j,DTNr&_5e6jY232z9nx2k0ekc6y6Ms76IQ59Z%pyNComce8WN35eAm5wl=%]BfnI736tI%CbwM:1.rj6j0tLj}3ZJsTY2[dmJ.dmJ=LbM2bsrgjSlbYhdCtz%ZccrT2MQo=jrr6[%I5rm%NkdyyOcpjbITtn2sfd25l%In3nz2j-m7y2_A=j%ux{ME02riZc?tj2T3_6TP.OrDg%vtkj:,r,lazB/32M2%r052sn%zTlS%TjIOAtgfwh2vOS2m.lJolMO73wIY92YoIlYjpYU2oM6kOIp2tYZ.zldsbMU6n?jOe&TjeCw4NeMORyouo2cxIM=e%Gd3rbm,[nso2w3rJ%em%6kTw1juw[SnI2'
p16
aS'rty3hkD2:%a/gA0p7r&EvWh%21s3DfII2rT/%e22Ow=iOlzR8=kdstV@TyIVaMOSjC_iIZMR52oZzsO%=2W2I2ZriwN29MfNfj_n0Ejb:%hngrOt3oN2%%a2Qa2w6.ZJ{2sNT2m%2z,SN9et27oWebaWONDbtJj5R%Ndwo[I%%,Nh8WRs%/rj98W33oZUij.3e:otRf2ns_m83oOjiASjeaMIIwZ%rdjWrBOTq3Y5Q{7o2a}r/N=DAx2WM2ox=2%ay0JsMckw&tjsN2VwC2j-Tl2IIzJjjx2nIQjrn.Hds=R5YnT5wnxOgzmax5IZCgOB285MiimTJtCmkCii%e8VAiOftso_SjI%C2Q26sdNs6n2Z8Sy3e22Nc1klmwh2oFrS3lON2v%H%2MwNVEcOFe3T2A2iod2MDjYdj3v30e2MhXw,Z6nImr6z.QwZspPuve,m5zlo.M05wawenBzR2wyG/pO,aI&_Uxoijw42er=8=%UbDrjt:%4%l:atDdM292I:gc}T3NI2b=ZYZtcoI7N26/oMaOWe2Q=iWlmmI5j?Dtk.NI2u0Dj,omysC0&'
p17
aS'mWjec/0=mHY3=1Z%+oj2n%25C0Capjni,m%5Ie2lmlRwI-se6l6ewrmz%:%V%dJ&3zlDCn_jo_B6%d=i20nR6jGQqe22aAogkbY4XM2Mj9e/WeO%6Ia-eYk&0dw%W.SIoYorm9Wo[oUp2-xmt0Ym%wMwyT.IoT2.gjojds%63eW26sa1Z5rZm%L:scOBkdyg2vwwy.x0l:%ytf0n_Oo5ehk2wQFLkaM9IMYSI%MkCTMh=JwmJbno_n0.loGd2QCmO-2M%j2S6s?Ndf7eX-0E}aZ6O7pjZ0pSW%vM0xj2vjNldFooDQJs:%C.i2c3IeeN:Mt32DeImNe5D2,I05e-2lZJFNah%REo6tmZgI1%?o:hN,/o6a2Yh8fM2m/6DIUp%QbM2etdRL.qj}O%m1dZmolwra2mF395wfijo5wio.TNeNM:n%%3yysjrJs0ooZhT2wEv.8/oYM%l,fOOY2oU1wwHsso:03/a2Id7wmvOM.,%d%zM2MRtmpSvawDtcjIMZ%zezfcWj5eu.wI2sXo0tlA322wrIo3gj22mO3/IjQseoge2m06eZeyz=2A92'
p18
aS'Mev2YyD6AZjtIhtj1sgo6Ltzl2e:3S/&yrCICFtGgn35JN5j0V0yA2E4jknD:2}i9mNM/gb&nTeY]z92gFd/pI%kc?jY2ziAnwj%Os8AN2%6fNn.D2j6aocTukv2j{2m:54%8I8xjIn3=CGZ2ji@wKSvbtafmz2yc2%YIa2teI8cwSbIIZ/GOv%aWITlsIO092Iia23/Cs3a7OzmEIl&zyt.20yIev3D0cz0OS%7=K22=eOO8G/NrISISo%FI%8:jmMGYe25wU2IiznMDIbE6Y4Fj9Jyfvej:IynM6fYDIYQc%iyjtM_jRreDoj%==Cz4%aDNgoMWeo0d,lo2ocvZ=j.w6UpVe2jmoj0%meetmltnnta:mtjzwy3n8isNsg92Q8r72C3djclysrc56%I6,plNjWNdgnujc5eeMD0t265%0NgS2ZMjtrs3fs,%s2xJ22wjc7sEpoRx5o9MZenyODuIdtMVTeptFblnEs7jRdmkwD2mT:lrj1D/oCnBearcyZ2IA2/0Ys.WYwld5]pfi24Uwj26aY2N:jecMplemei/J,sr1A%2w38MINIx%'
p19
aS'jlm_FdwIf9FCkJMb5cZoex%yw23o6%/m5YCC8oeI%w6I2/dwlsp82hi&J5Ma26ZB22MJ%6wwMgLJnU%j8uk7y2NfsI5Wn-mIansj2Q5pr[eFDeMtDm3o2AeM_2R2ob22s2Jpy3252/sMIjaFebN2od2e%eCnggt%mIYkjo68C,,jrz8=jMCiRM%ghMjMszm{,TWuC2g%jcIl0ztQ}:zj22O3IR5la,r2kCB2%jT%evwwMMs0l/IsEuAI0n/00InIwImSQe2ocereegujq0Itn2g7Mpdvoyf%j6%xCAM622nIjMA%/oIg}vSf/Oi02iv,:j20Ukjh2A%iwOam2{jwc0258kjB206-msWo3M/Dr7/2w6YVIgwwdFleID%Ie.Pwde0/ACfO@hSh%tL&mE56CIcfso2p72mwrZ%f%:0l2%022mk=2dD2rO3M425,s6jOneuOiiw&JfhJbWNU1O/vkyUoms2iS02239O222m8,l9h222If4nF2j%2aeTt2d/&oWRSf2Z2?uItjj=n/:Ide=SjshMsjQjWMW3szs9c0&/dl%33IOomdwIox9Qbt,'
p20
aS'UNuYA9f2vz&s9UM2cEkWJYDDw_U5n2Vt%cMuo1cUT%6ZAJc8-Ijpep=go2S3NpJ%/ZyOT6DE6W2_f%z92e6lJwmmnhje%a=II3cnmWQS%KO=Z3pjOI2n22aj.eDvj/o2Iixpu/euf%jtFwyI6Z32bfe%eVDDEi.EtX%o2%Era,imIyI.Zv6Jnl5R%l86nomZI.5tZnnt0kk52,0kdo2hBIjYwe5NevA2xewSjlrvm0m9%blU2j:zy&:%22ESCmIouj,am8e0p2tmMaGsxed%jmQsJ2a%tM%a_GDR%xrAasCenQzuYMuyACwwgjejI53yc8a2MZ23%Nla%iMDSnd6.S2obrnym1tm6n2IuC39w%T2jeU2c2i3,aOAZcZMUSae]vd62ze0L.tekMt28WRulat:uj%eYed2QAl0Ert4I1adNNwO5mI7jlD.nEvNl2kpD0dtim=EJoMs5xbfI2cm2Iz/xOehdQ2j_d:gaiIADb250&Z0.2y0a9qeMYf}e5jos//62e2AO=ggzwJus%jjZNowUoigdFOWs6TMaMYeON-,Y20W/2m525ismIkql&'
p21
aS'uD9fMYDM2delnmDUdMrIbMj2wb2FZj]s:5zlxCn2NYIouTJMAeFxaNepo6j2jD{Zo0S2e5Wl53s0om6tmn&9TNj:pe&I2ycRpTjsaez8n2322j8l:Yw5MUiimjRe2l0AeZ282Wy62=.5Ijh2Jk04RjdHd/2%N3AvmtSferMV/tuilJsZO2Dm6n.2=2Mu22s2M2My/rgOemjo2CSe3litj12dToeNkMQ2jMxI65}03aMYdue22bf3HjIb%e3%CY2Kaey_2M%G2Id22OE2D2Z220Z:252lYJy20jEj2s&2droONNix8OloS2CaJdu%m2V%N2I7uTYov5eUjrj%wssZJxO,j9%tNU=nJp:oT25Aefg085jjIMromn2uk2Qts%a5QjxnZ228024OgeQCitedpj2m22f?jNj/Yd:oyjOMdesitM8IEmt3NjT2A7e/I74m%n3r5woguvMI2ej0a3xeOYs2fFU0mji2oolw.Oc10GdnI2MM7gVd2%ESA2I54Y0eoefu%l62avIQz%/ADd2tgsS6ekywJv0o3dNCpusS0M432GblIY0CtEs08%aeO&'
p22
aS'ZnF2l:0rj2j2eygZ&jCld_CkwwrNjpA32d0_:D23Y%z8O7Ac,:RemLCI3MIu0eO%o:Rpij2d2Ebsp0sNe:.1T0edxzbOikm+awPtSmpjwNeD1ndwDsC0z=Z202/Nw2wf6ZF8O&0Y=2uHn2n2oM9OSmj%gYw2Mkr2560uCn5DM%Af%yQ21p6rTtjNZow6QVjj5jR2ykOsb?I%l=ojy5mM%?2ansf5eRWk]nM72d62b2I8{22c0j&JY2mKyG2eNj33o9VoWe/1OjnOtGf62YIaw2CMbs5YQvjjyBmWlbrUwTaoeYdF5ydoj%dsJwSD2ZNZd5I,5y5W2o2x2JsmEswIes2faCJgJ}UiNjD}ZrZwjJrkOt2.b/wMzMZjEMGw2nmCkMd2/mp/sfimOj/m2TwceY2zaMJ7lfI20wt,_Talr&8o0o3e20puQzzj0ID/262o:mfi/n25Jj2mys2deN2Iwm%Iy20%2gsMtUICo2pY9J01N?4l2h.tl%%o3l0MWCwnNAier.,l22o%cw2Mehl&I.Gj7lj%x5%.26Cw00Zl26PnjNBnlb3ooOjMh/wr0%'
p23
aS':29iuNedxen%922u2Tvossg2wSsY/GbO,22jm%=5VkOMmYf%lo9s2MnQ%d0r=jy6oAIe2fWo9OJYAMfrtgSbCNa%%%555kYEenIZ0&kSMf4NSUlm,Tf2MyVz:e2:&}Mxd./vZl5MZjb/m&Mo5{2yyK/e=Oe.ZRV3j3MsoUoo{rujkU5jMQNOs2Ne3o22m3au52rmjmNFjMlwfZtT2%m=06gN%%=Mf33JIZpsim6oIM:uQgN8nEx.s2tsOnnNkEcgamsZjpDerjkp8htsM2Og2%61UIeI%%b2gUZuEnOeUghs%6AjT.rI0.%3n5wg2ECwwAeSx2grjQ%j&jwoifm1wkfooc620=CUzuTAo0z_%wi6teT9eIXn2nt=9ej.t=aZW5WZMl2uNO03e52djYdMQg2jaIOo%wo%0W:woiuie2m_wIeincmrMEM2wt-II6mW%9IjOuCCAfee2nr1LduTTeO2DUNmeM=ww2&,%Tonw3YzEjdtN22kbYNeWWrC2ndw,22WeenleylexEYNtj2coysx7IyGjg5%klDYr662::mOntZN/sueB52j.Gj8e%'
p24
aS'0rMJdm2mFl22piMM9wiIx2A5I2WynyFW3rFjfo3pweMIfr.s%be,M_OYJetdINmdjeOpz2/dIOZy=nCAomkj2BaefxjCtGw=NW%geCeo8zCaw@mf%FeQb3ltku3=pMIMb%uuw_2dI=2/a22-Mo3jOtyyb0Nj9E/k:Ltrh2z051mWfo2.mMMM2vEafSdIN2doaeynp2k%gkw32sdwW20:gtmSem2C2oGCl2OCY323t=le2Zs%8j8C{aFZNEZb22vMY2w.M5Im2NR.jf0dZ0eu62duoZk3N8o2YO,xMyw2OF29IrOI23282bJ6lsIZwr2b4%Mas3sI:qxkd=CSlUJs0notMAg0oSh0:[yN2w2jpr%feua}jamj-&0mwYrmaumaj3,frjrictrjZUg%JyD2osj6aZ/}clAdWHo%ChJ=ZpiFrnFj&2ot292xeqml0Qz1sgD5MneeeaI8.iDW_TehQW]2la1ls2UrYt.=2Yg0alr:2y%03MRbyYliar%CUaGsO%xE8UWLajm2zvaI{eelv%edRZ13aytM4vsT2AalyD%JrCM9IEI2SnEAjje/e.'
p25
aS'J%=eB2nsawcjx3doer08e}6E6%h2Dxxvm%e%lRtIc4Orej2%rbNWgb91j66%sjd3u2y%M0Er,B20jXOMl239e2jO1_StgcT2ZakkrMpeC%2=Zy4I?r/eNmnlfZ52a3m0OQJd?8IkxW72ksZgOWgeSjoN2Nye02jQI3jZj6m%2bg622YsxaoIm1hgG1zth&%=2IrVqO2j2&2ojM02tjQusfjW2iky%632t/x0Yeifud97r2eb%wet5doejt2=eyIYjeMa9eu9ie3%2c%iM2alelINLl0le&ip&nuIM-e4sE-8cYuNS26Sm%6Olewe0RlRN,jgNcaIMjXN:eO3IvwC3twr8,e22isADam2ejfRrpTUwxndewjlI7OWbDi22jhNw,nFWw2j,D&A=6IVnlNN7uddxNlXn2M0dbc2e:{uj0r3Sgw9FjuheRp2rIwFNzYj2Z?g2rQOg3W5&e2ykksmZ.%PT0xM&2W0GepJO/kf[frMwx9%mIMZMZ}JoMr2e27O2pcnr0Ojeoslenn5omIr5e2oy2OMZzyMlwpD9d3d8p0o2.vpx3ua5N%2%Ntw22'
p26
aS'em02j_CfopN22%UCw5=S22IIrMYtjq:3OYjWQ226NyywNe9.505Oo3erZ2mMM0ReoaFOgd2&p2%i5wINw&M0s=jYOZnj2Ow%9T6Ep%e:j3QYjfJIr2%jZ%djo_C6d0TgUwd35I&mhY2e6eQ%\x7fJeeIm%6sFsmIprIIP6IYrZgou/jzO3wOmQ%DreMI%zC=MhTJoOga%IPo0FI0%mWhmam2w%fI2,j2d3W9I2I&1dNyFeBwgb2/Naxu2WIrf]e0IlGb2w,Skf2nI6Mtsl2EcWoE/xEeb2OSWCxaUwWQI8If3jJ5ITa2o/wZ%d2uxnIl056j3Y>&TO=T8IMud%cI.U%2e0td23t}{eyjct0zz2hQeyA%oYudnIYbAy:e2Abj:mTQpI0=knos2oW,jYS_eto1:yT2Mwp%NmO%ekYt%2v2a2IktjO=JOpb30khn6UnSr6atmINICi019UhoIjyxg9,ow[ixm0IJjYyDycQoCn1sCR%o2drTDsloUji:_eI6eoN23U?G/0jt9d%VwOIyJou12rqIyW2J2mWk612_270j0rkTo2eny6t_kSjZ2xt0'
p27
aS'=IUEdgcoI2m:269yESE7ImmMye2y6j_,U2,I_j=IM:2JjDsiB7sz%M&Mof0_&Oj]JIirj0mp0?lT3ej7%Onl{mi2MJ%t2MOd2dCQSj092mIynM32r6vZ0ie0CAwrAkTmmFiEeymnOeALH2?ktsruSY6r0SZSo/rhdi2i%goH2NP6Cmce1}h32j_W}f92/q28_6bgYgs,%h2rYZsmu2]nNyMa2acNNju%wdQl}uYt3Y=:J9ec}_MH%jmhw2Mfm2lI5yg0QOj52n0jldADMokm%,d6z.Ur5/b@asx9sjJ3N6b.lcs2z2loMjI.ItjsFc&gzs?lNwXzsyx2tojaedOeJ?jTAsNBr0tT6nMr.jAn2oN5mQd6s252N%SNd?oIibp2eOceS_aENM?xJgfnRutawmfozO2pwACI%2jMoU=:I.%nrby3araIDMCj2NDxm6eYZUDYi-%jCj3Mn.Ew6vwJdy,lEom&mrz%2ts8bZpGoD%oZIM0p%p/gT5NeojayfggUYw2DAnyMyIo%OZlesOEe2Qtb9:a6Y2l2dTb2aljk0jUjw57YUA5kiT5ID_x=%'
p28
aS'{6LjuNJAx{ojl1j/vJNIjRfjlld2y.oOdA:SjjjixIGjs1qurtIsm%RnfMjng2em2r.WwNhKdh=i:70j-M2qwXe1yw=se?g2,sjERw2mjyPbf6:jmiBjj2jjIp6DHu[y2bCoIMw/OY%&nM6&j3iiM99%sdKIOD&2e2dtU=j412vNMed7%fkd0HZD6EsDOls_CmADmJ6A3seKbhe2OwOB_5+Ti2jmDoMsc%jyoRjxI%j5guP9ojJirOsjQJpx2cDuoWBj%rY6.V9TM6l2DRxj2bM23rdfQjMMgsr0wR%vvo7j90O2htC2=jiA6/l2z2.Dd5ZyAJjcTdVYV/aEBsJZI:6jdpc2pO./tI/QMpizMepS2%nzoOCSr5SD5ie&gl2AQaUJwmsziMbI0Zj22MCf2di%7iwRV7%zne&NjchMncwnlSo%sDwO%jn2xD6mH20M29e2QG3m2jZz%ae=r2yVIe/deIe8jm&t0sjOunI0Yi%g5/9Jjk4N23O22AyV2O3Tc7M3I2x&mIMJ2zFJ2eut!=21CnmM2kmwR,2L2t9n3}Yp:g.:63D5NSIbCC[j23'
p29
aS'tZ%nd-n2S2InJnvmjasREMCjhM&sYsYr:=ebQhEfZbburT%e2/wj4eOFCFlmxwC.2%23mD]o02h=Ju3o22fy%jewk2Y2zI3%gM2si3UFgyIAtwegMr2w%zO%02ilI8=k8NeWI25sw22992H:92gnpMsaa20ZnsnnMT%=O2Jlai22Xv2sQIwIoTswcl0p40WMyg5ClRDOj2s%ok%lo86N:w3Im6OEEYOlhnd50Ojw2Tu5XYN6D1i:B?NYm53Ec9sG::gOoFtfzNe24ej0&wp2Je83&Iawv26zj5b2ec6D%%mEsj2.g0c0Ots=MD8cy262e2QaZ00W%%2aJwenYIuowen&Oyk/smhMrw6ro7%5t692.O6I3Q2Yh3JCY2yCoj,9emO7U0OSAC2:cklsm=M,DjfuQ0m_jkFl}Oir6opT2}e1RmrsgslTgS2&M&jam2uWCys02D22s2o%CfiMDhjjwaWOOoMUMw2Miaf%gI5vtcpz=wSMAjs%pw0c73xjW%fkm0Njn5dj22OkMd-93yeg2At27DJwr22=muhTaMsI%JpSteDd/0uZ}ut22bciU%'
p30
aS'rteOYjal0gW8M&tSw}jU2Mw,DnJJgC:N2s%eGrT:=2AZ.md2wOlm3.%kM%=jEemD=I02T4dNCNitE023OX5C3pVZcaInW2.%k3a%ID20MrjJzOJIlI0N1ewo2:s4MfAdOICAA&p%s?Iyi1f_vcM%IOOChJJR/N2EdcUIth,Iss%b7vN:fC2,j92bmIt7eY0ejfa25Rx2MOJi6{Of%mFmC76lNm3kDM%%0%.rOC2xNrjPfsJQ5O?/rkf3n2DrM0Ddo2W22nM6m0=M8III.ueStE}LOj%2etjsMTh.8Nr2Isi02teEsjClEmni2onnIo92yj2JdlmoInIr=Zy42Qc3me%[eSDkSzEF&63,5CjiE2k}36ryxw60=tIp2mny/2ZlvCNspU6lpsj%:YYt-=2w2wMtg/2Ae9bEo488t3%arbuZolMNjo22&m83gm%CB:i2n%IsSvsz.to5MMNOTnCkN%kz:t}j5MM:O,2IH222yJ65YckFb6koRws2etc2U}:6f2kslw3w99NZ?ysfp122O=j3h02f2PDBj=0kMwWouMMgadsjkTY3sMWjnlU%F,'
p31
aS'ki6gSIQAdtMNsfO%mCJ5N0M3YjrSdT=z0htn0&e8d2M2jbaa2IWZaQwlckBI0uQ&S&AFYRMSG]bM8rj2Dij:e2ejA1,E&W02jmd2yIj_2Bn0RZ6j%.sFDQeo3rk0ozI%gI,hm-F2wJ_ENbvIQdkzMuEpbkDe6f2Fb2dCx2iew/If=&YNTjplI.IZyJtHd2m%ctkYoiMfj,AtiCC/2=Mm3MCEZgSbz20ospe2NtpZuye6zhd32C]s2s%Y69Cc%jmWaa65jI2Am9Er8x60.2l4%3los2SNdOFi.xIMjDF1ZlaFAIMyjR2lNM=Twna2cjcM:zGiS3dnUANZea2hRgebRjCdS5Cstl6RBCfe2Mf0IlN5I5m2=2ft2k%MwAlT:2jwbIr:2wOjD_k22ll20smMdnEZNy%e%9/Dv:p5aVe1/Tjdmyt6R2hjn?niYrRMfZ%mo:2njJ80Ypps67fjj.i%C2c0R3WN06/%Ieo:s2OliiMROt62wDaI6rjAbN:9eWCf2%Nf_mkRu%OhIwItNNMS?gModnsmet2oWlt1Gc62leS6EyfEnkeT2nf8eCSuC2'
p32
aS'3}tJujy__OjkeZJ2VQY}2wJa42Zp2oerN%k,sMdodsfZR9t8i72MT62bS2emOtBdYdeu2qxm2jTeI3xIt.7%I-I4Nmxm%I3w0[E%2%2KQ0ZO:rRfmlDOnG,Qy0W%NYluoej1xvDDj02JslJ=Zpdl=2[yJ&[AsT6cMkn9sCvkQkWYufi2dNsMm2zm5DtIUhe/]B5je,w=QtZ2YISMeu%Ot6j9E7ivsoi52a.UtalkD27Zzp9Cg9sfxl2IIn2eI5{pj%mnde%eIUYjNmoRYNA:wDg3b.tAd9C0et%kak62ce30OZ9]NOfi,T&IS9eo2abJfrzTZ6F}&Oe[S24_A0edj,es2x}=M&2kRod06IQCt%%:w9jeH26eSgieY:i[6:ICF=I2wM2U3%52o2ItRh5:FKu=Oot/&Ok.wRuz7ge..s%62n2bYmJ%bi[szx/dbeD7uEjQ6k5:ewfe125DOj{Wo2gO,0&rTptt5MO826{%uck9m3IWAykBfZJ6Mpjhkl50DTkjSB5&j0yu9xgttOmxa.96:t2EMjnCmsJItRf&J,,lln-gn2j2V2at0Y_j2/'
p33
aS'gsrM:I=znun%Znj2nJj_6nEYsejNjl/Ie3AYimZyvm62aIxjDsSErotCkwt6/g:-3xtelT=O3Q2enl/2mjumO0rpox62o2L1nmei:ymm-tZMzy]x6-wJ2cty6sI2_MFea2oRe,64CO8fIMv0kplg7%_0w6ye}j8e&t%c8l2j0Mlou%DmdfIwsI%tWjjBi2jj%05wI0b2UhROKITiTj.2ym0lp82dEsTwg5Ssn0C2j/%S%&msi2%Op20NafJd2Inj.i0fbezZ9[etudiJn2s0ZYmkox3%6yYIo2nwoF%o29%0fhp4IlmsMja2oeMI27nNeUXiUQaey_jsk226tJs9262%.N893%x/2JpInnIY22d8y2}zM0C05Mejw9M=2Y]eu8RROr:8&/MI0U8aM2OI:AeByh5IoROOs/d28&teMCT=Il?R6aEcj2[2e2/Q4uphd2ESCfCE6jd2loiiqjDzA2Djj}nMej.28?t3htNm2{Uuk1jM7Z2V{%snaYy3CvU%JIs2/nsZO%aYM:otOZjJCjh3Zpeg3em=Se3Y3fj=O2oeIJc0asujT0Gn2Dcn2,'
p34
aS'CjwtCfnjMn2stneF65AQ%omw60hiadPz2tIJl7UyO25sRdZ?n6wejjIjoasjjC%YMm2=j0{joDn/wsO0W28yXno7AW22cedGcw_r02H{pn0qs2mVwceaM3sT0Ymwellkjw8jwj=Oa2gZMe2dO3NmrM2mia9jnlsYAoos1WJEYtylwZ3j0/DentIO26g2p2C,y,%y0jYYfQ:0lenzt0s,&I2jm%2ekpJ26TMIbA6092oRItes2td:GfIxU08yNeaJaFwzC%N%m6G_%Te22mj2Mss22jsVejarwMe%7eqMN2ljQMu2TN=dO53a=8zEpw75a2rd%IyDc%5x2,_3.jSc3t/ojM=%nfpCVkOPm22MjjDig:uNscdTcn62AsTmeIog0M2G32wos91SWQI8me6C2F,5OftyzFz2if:I%L{,2/zn[u%2yzuj2J2kfConJNtfj,iQyNw/ioSsI22MUwY5/hUqgO0lk26lc50ims9YeOj3Cf2zdl0a2Mcj5Qw:RKwfBui38IlxjdWjdj&eACTj62fdz25joUa20622[ge0fjRg4IyM2lvED6]2wec==2'
p35
aS'M39e%:uxesmFiW2Ul7Ij99uhe&P3ej4=E0xjRUtsstbXa22ds2lIg4lj5C0Ffm0YfO35tn8NJzksmYMt2]xyR0bjqI=wN.fm&0Izbwjj%%C:eT6mljkki3{B5Npzdt2Ed0h5Z2:0iwz0w8M5eN=xetwH35:tr%mn3jfZI22wGmrJeO2e9etMOn%.Cz22rwwn2gQl:OfJ2IJ:z5DD%jnCbo:I3I1anebI=CI9x2jNVd6wpAjF]a5l2bj:YFO2Aj0owFY23awC02e2a0Ibe1sacrdIYsNyA}CR2N5fmlW6Cf3nmi3jSp,oUA66npM2fFcxnmrIhWmn28wM-l,%o22bmAOOINU-O[S/2jg2Drssowd952f2AfJi0e22rE}zMJyoe2ImsB2srtB?kM:lix%Jaaxs6lOlcO6p3jOix.k0IsMOrnTf%oIYfOnO2/Nct/2AQOI02r%B:5mmMngn6nG=d%Qw%2t%Z5nn2tp32.yrtXQ6yjEjW%2idejYwzmjsjnj%22=O_UJuw_v/y945jj/Qoek7wTOA/i3ZDwYomQ5?%O:jHxrQddeCE7wDY%j?2'
p36
aS'eppjm2AJz_uY2C3Y2%2I%%QnHnGd=V4=TmkiT32ry%jcNM.IJ,%leC5nbNwQD2%jJ3eeje/m/2bN2J%Nh2Js5j2joNOGwzsIwUUflaodl03gp%SsIlrs222udIa8DcaDiCJ2Twa97rt2wgry%gYm2JO0bi3dCZstyumhooVkvCxjjwOwOdTlA0o13pOA8edRtlPSsJ2ccIjMAUf5m7jC,F,22Yfb]0lm2.hwt5yaYDNxjs2F345Z0sOY0WJIJY3OaZIjg-[.j%N0szVmnWOI2ilfSN2nv22e92ZM:n%=%8oYrI8&gZ5]qNIZct5=52pf2501bj2vUCwJo.b2do0aor2I=s72mns%hRwmyN6Rjzyso2%1h?DO&j%jQtw8CUm%Dcle3bc2nh,MgIsHec]Sm%Me0moo4jwNM=bdy%yy3u1eaV2.gg/9Yz8I2hiZFi%r28jEN3MB/gFIM0AM22Id6kC0ijc0i22c%lfamUbOrNa0Waw2?Omjj212w8jIaIimM5C.IaTxfkuI5Z%BOnuaF2%ms2wceEjn{2jZlv50D}=:WjoC2Sdw:lnm6SIcJ/'
p37
aS'UhvmIeeeOyCjO%525N3B2IouYNuYCO2ajyxNm2]c6jv:2ntaOok2exjIDmkh%56d0jwM9%6jims2jy61Yj9ksOM%6jJ{W3F0yInE22ny=Aj2eVrb.j%I2k2AN2Vma?wlepBI:jmjXIAeO2sEn,i9oNL9U52:eUQIrfkMnS:n6r,00b2qnaZghYtmVCl6I:2ewvJafajeYzUsOEZuyJ5OofdfZV22QwgayeQ6Y0GMS0esMs.INI36aY23O/mTszoe/22/eqtk0njLe2252:2VUuvjD0tK.AM6Z50sYY3%2.ZC2C_A/Mo2i%Rj1I2/MaMeGD2t/R/ueZoEBs3jgNfiC%j/B&eG/ONsgOtZ?2IwOn8nb3N2nbtOe,02MEb4j0=pNbwNMC2D=,t3xS,vS8jmF2F0rP%M5jAw2T1O.Igkjadjo{/EkW_Cfg5Dm3ON&aFINej22jjFjkt@eOvI9wmxdrj-VCdy%72oJ:hmef63ueCfR16cyS2R}=mslpQe05=JiNjl_2C9mMar2g2Di98sDlUjM1tmbNYee6dbkD%uFx=FsNEhcD0OxIvm&10IR3'
p38
aS'Z/J0G:23-s5IJNre&rDfM{Z2D2,eOOWw2COyehNM.ijse-WljyIpcf_cp3oX,JdIIM0wI{FI2aZg3I.hObi6uW,olSo=lADjaMO}e2{YdDg?2g9UU=I:20I7Orex%=/z3Me2C_MN5gSIjFhoCeNajkeAI&eM2t7ev5M3nijn%O62zEIMvdyJmg3IowOs,Yyh:dodGW2O2MblOi0QnmTe2eSA%:{IwDj-e2&wNzY02y23SueMkYMT2Fv6sj6om9IlXw5sDeoA7Owng?re,2dOoScW2Cr:M3yg02l.E3ooz0ArpOU3mIyeW:IYatrdm%m/IIknej867MIyjh}CZ:5vNt6.sNo2dmCtI2e8&2wn7F0mmc6gNh,aa/yZ2eV0KOYzOOC22tod2Im23n&2s1IonWR2f2aeNYJ::S]02eeMssU2m68o0m=I/0-_RT=/jewe65YxO.msySNJMtdj2I3d2,2,z%e2r,Won3Cmd%&Z,sjeuyN%e=k9vIjd22s0sojfMc3=yrFYoso022ajJagfIdMz0rY_2jUemYCIC2r9slyIhMe2IT7mstYO92elN0'
p39
aS'43e66:dn=:u015.tmo562N2Mm2=_dDyt:?rem7dh5%5FlNlZbdOIej22&6yTl52dpMw7g0r0end3EoP-uu,mMONduO5,9Qj6%IorQvl6Z2.jjI2jmfAzfvY/fg.ojWn2,eoz9aAogoQeI32e/no%02qGmaupC%M1IgxUVIeQcI%y0pm5Yn2UlyG%MmDW%xQjIJg50idMBd.w2MnvMM2eQo6cjnKn5k2Zsx3Y5TwYaOYlpxc3yeS35dya.lDOiY2_3MrrM2N2vfddbIjMjyf0mlXe2Po9srA6YcThw2n/.e2a31zu73uF/j6fr22to%/ow1_%3/,jZmmIu/o:O32dWM.w02zre:ot3u5k%xNd8d0jCi&%MDydz866SrjMwjB9tj8e9f%I6w0i2tNI32o}o2voyacv5Fo3Z0artm95:o5emkzj/jl2j2wmI6JmtjsubM.l:zFuN2rhg/2udscejw%?2jmEFa8J2lNMdjl2dCF/N2snpIhcGH6=MxeQ28nxL2sn5tw6}.4ymQs3oU222bzR1MTj2DSS8sY2IJtF2sjeo}ufIYm3ZWWB2n%}0/'
p40
aS'eiCpMa6%khlC261f8aYW92Zag9IrTFaI=o=0pbfIFMW2gb.=NsEmlhnfutVs7g5ierh2iRyap/Ma/rdjh22N0etC7OGm&,vYf2=Sl22aq&_zGyfdw5NsemCbH.mM026.IGrgblM2,%CUrrlwjdje%%IMiI&Yl72kWA70jd&P,5f?bF%y0=DJD:miCOIIe3N6NDcG2%yosj5%itd=OjN]025J3mxhttb-m23NZdoTiDoOetOI6=wa,2Ic%yZ.EYKCefRDynLAEOIgo3ymMoIpl56=9EEt,jPllwkmIxSt235w1Eb022%Jj8,4YJGjwpIywBj%9v0%FajmJSOCud2k8owFy3Z02t0jjYfNpfrj{jMMStS5MZuj2u2yb2w/hQB2N&D22.52=%2mC=sQl.t2venp.Pa%s2f,l2OljitNj5QJrQYOTIj&iJCU%MzNxn0Zs2p%Y_mc8r%z%=5May3jldN22_r0ipVQosIow/wcO6wameiY:?:W2d1Sm2ejj&AOCMQg&stOxZoI%vC58Y=wvhai/&oeshDLemi7T&OsIJrrgaXOgt9Uciet2T1m12'
p41
aS'3hr,Rj2ae6t5p6j=oQ.M2%ymfF3N6Cjc23s-2vQ2Y3mbXnno3gj4zq63:22nFml2cuI:CSdxo_tC&mr222TcrcOpDuMo3b&wj=2euhYs202xJn2MUI32f222onZiak5rjI2nTow2%eepmtic2GOAj%FriB3nuE%zOF5y00/_388Dy=2t2jw6%3ImeMZ2p]lGcZe:M::N2udjsqr2ewisiZRnclAOGkkr6jme.mYl2%Ovtdyrx/uohUgi%aFsIO0M0l3ug/WyYMMIci/2joiQTn=jQ2e24g36jN2D{n0jFSeOAsmfwjA3v:NM0A0O3S%0ndMvrieGC0ymj%oEHWaJ3hs2esyYwRe.zeO%s2n0eRfOVum6V%jTjo.deor=woxop-gJaZaIuflAj,ar22zzeDpSJU2lnX2Je0_F:J0mEi2}Io7Id5eMe2mf:gFDP=Y2G2M6mUpQdewaZTODIwTDD7b5p0nzYld2f/JOT.uuttfI2GW0s,9R3oke2oZ22Cj2oEOu3Ipolj26JII6Itu%o6e566%NIeeI8OPU.zdiNCpemo2Oo8fO2?R%jIM%e%'
p42
aS'%&I%azbssxBveM2Nzna5Y2DeI0vTkJr2jarwD0VSUoeB?d%7Fjp2E%oYQ23s26&%N.oO2Qa9xav2EamBagU2oa=IeQc5ewIu5ikS2foKjTtata2S2IylKI28=Z[I[lcdual3tnri[dm3r,loOegOtIZoOnunen2t2j9J6sQc_n=yQeA5Ati%OsI62&jtwj/.dNyqdEIn2jUZ/tI2x2EM,yM5boesBosZYpa%x2a0sg2Gn0/GC3JV2ldI_36wx3Ifr6l2dgyoNnGB?eO62m:o2e9TDjCT%edey5,?__mTMy?2ohN,G%2r0%AgsamecNuiCmWUYs%,Y.c.Ca%t%3_g12hT5%0UdtCA0NZ.sm.5yMc6EmM3m2zTf2Glh4osOees%jvkkm03:s22e-mZZ2awjhavAJyeIMI6UijM6jN8GJyen2yeQ2Iorb2Mjy3ijO%{G9Fd2.tOrIaIjincR6jker2raD2fexsUY%bxn%e.5-nycX=Dz2eQQ/eIeMHumY%%lemEjsEuX2eaQMyjn8go6%IoM6sguUim6y,0ekT6bw3322MsfGh%gkZeo&rXa%'
p43
aS'%cdNicIa9h2Zsp2:Zj6em%Z0OXTso2osMgr%F2vI2UrOjt2C2k%Ysy05j6=n}FikNDIjEljWcn2MM2je2ORr24fJZ20iiJxt2wM2rz}Djyn_6jfsMc9r0krDte5Q2l9eBeiXM.%Ie%oZsp0tMmI2j7Im2mED22j}IYc5c7imVoj%wuapdwz26awpmwkl%W2w%jo,tN3IfocmjOzjEogQGjwmAJmroFjc3ttafjSrjpjNy&VamJp:b5%j220Hg3o2lIIe2wtY.Jvehy7IaIa9i2M2Sxs0MO/cweYQ66Nn2jcWo/22aMsocM2ICYAllJOJ0IIxj:[o&_f3,22WD6NUI7FZm0j/sP43lk2nt2wG.6/282ed2i2eVki:32yCC2B9SOmr5jrZofio3awr0xsS:oU3/YTnl:220d=_5M2m2YslIlkd5Eij,Oth/jYMvsEwey0bj3CrbWOY2TcOpB2sEmasIZ3fMleT6kE2e/emwjk2%H6Njjohne2G5r%Ou2OMcJ%oTexz%I/%2339Gt2poYyc[6{d=om.I/eao{yzwsf6Io0jj%nze06=fMuo22'
p44
aS'AY5HsYRJW%kGG2e9%js:6N.3t?Znuoggb3ke6xd0dr,a822:3/r5jI2leIQonbK222.6pCe25wjW6C3T3Tjo2De.jw,%JEMw22m2%3R22gAyMjnOUTMgcRl2?e3oo4mVNN.kIA2mr3OIbOgz9vIjk3F6jdmmT/0c0exqFF7UzO2&0vartS%9IVmwp=eYId=D22322aS0O=%CRm1N%sYexUIeSo-kp2sNZ0I2.I,NLMDSTLO3u2p2Fco20mnaeo0mwS5A/IgX32snxl:632T,NOPxMoN%3I,rM88YpyOVbh2/0mus2=Srjmby.%IsoIbRDms22sjqR2MJxte22V2Bojo&w09e2%yrpbeDMwBMsJajAtu1rSeQm=gA6bQjf%pIxom2YZJn22O02/wD2aBjRst0GrTf2,6m2M32.ZWwAM6jjeYxmMt6nml3Op6jeja:eZ/2nCM5gIOwllRcZnhQgTmM.h5wwds%:Zd5jr.%[cl_s22sIIaDo8ZMbMU,CIXa6mE02&22y,5&VIM%Wy2Tv369NasDj%/c2=23J,xmoR_A2a:=Ez2xwssc}QneZ%'
p45
aS'rwmlMNsI%x2nkw%jw2&Ftefs8TMCQFcenjo2vmCsQ2j%R}CjdeOz_T0OR5Y/j2n3eanbI-E2N{a6ntjenw6d9IITdrB3&y&_g]s2YN=jXMNjntIo%,cIzm3CYnMIbpd2gtCnwddnlmlmOD3IgAeG3mN%Y5DTI}93Sv,jO9zz/F02dIONwsm:7r2Zeu4oAIilek-2yY6xMys3NO:C?O%m0sgoOwN1.OpMUjQ2YvcfMZTitN:OlOtUojlNw2C%Snr=257Mpw20Osa4j{Mg5W,3pw5t2DtJ&vZ80FeSZIC2mGOwR:%.tjFd-lZ3HuFI0M1Ys%f22fyrNORlda2jmMI0Yt8CsSY{tRJyj6mjoaj[jauydM2OD2%67j9RC?,kjYPDc3IHE2dir9m0jonItgjZnwTm0cGj/IIGmuxi29MF=0OCddiVjZnnSAVo2s6Nau9%do%2IdnLS0SM%A2gSw%6pt%%Zj3JZ:jJI:nTndjo2jz5&A2jN.aodWxY/IarwI%o2dZoyFhtjo=Cops4O2QI_hk2oQ+z03NTaq2e2o2gW22l2aA7oYTss22prows/2'
p46
aS'wrmmjl0jwYhyacgfI/2ywacZm[2}Wi&AMfRdmI%:A=s1wNsIeIN7IsjWC03n&_z3e3/Z0:2DwK2t2eRj2jd8j9IIb.utQ%h2meYzo28IITg5e4/ufsNk1torXNTMTImFCrBtM2s=0=DJlB9nRzw%o02wm,32N2=Z2kYAa&No.n0MZQ2.Wo%vbte2ZsJaecwYnJ95w=r22e3Y0Z2EjW1JvOt2N0FDhZfc0:frI2z56e2CIz=d2Ma9mOgj2bl%5n=%m2QyZ%3y5%Cco?IW&o2/h.al.j632Vifd6pwmYl5VNIDx,%M0&%6%2nlkQdmm2caykIICuY6:TklIj?:r0JTVaD%juM%fm2IQI5SM%lOj3Mje6Sm_sId6mR9l5dCm22pn]nYrDNM2HMTMI2sIIE5W.Ij2jyEiiAOOIyaAaysgCkR24Hwa0f2Nss4Nrc}eDuDN2zsky?2,CzgUg2,YzWK0tJs=2nIes2A1=Hc=vijtjv4yjItii22Rjo=kSsu72sh220Mwlr2e%=PfJrc2%em3332WsI8_sUlO&Uwj5tq[Ns22ld2s,QJMo%AIVz322'
p47
aS'W0fjJzjZV%jO5&m/tji0dyZhT22hIZ%2]eosaOahJ69MletIYgkN0mg6opYRm0t0=76II0dw2Qsg0x=JMC5crpj5s%n0kcfzR5cmfYdmzj=2I2209sgsomVeNj3C&W0xhom5gfT26N0AiQmfph%f2o2215=sI%sMwzy0w=gmn=awvDA5?eMOh,6%i6s0MWkYY%D6{5oOx2Cxs,Mmlya5wbYrD{RMFjp5mjD2ZQksinO@kMIQY92wIC2mdytw7mdbBv&ieCcm.w2g6vlx27F%/3Tw5I2msk3Oi_2%aMm7e2c55be2Nt6S2j0%5iRdIWUvi67I6x28g%jcmm2rFa%w2c22&_miI9%6eNY2{Mrn2jS6y5&elM3C?9%R%I3CwITj/Sja/n:kEp52tjMU0JegpIwwnrtYT%oGjMo2nj{ti9mQmIM%62e0&Mn/NRIptl,NaYZcr2Zj%jSt%nZOmr2v.,jOo9wbO5jfDLIa38yE2Mwy.2I9AK:/3:fZ39dyitDYIIvR32CuiIeQm%1e.p2t6m25?ae2jM0oeiZ/e2Nt2JS25jS22Memjs2pMIwO5%'
p48
aS',ouAmF8uT3dCfim,D2NzZole?2IuJ28m829zjxo%YeiXMnyA2I2djs]rn20Tbw9212jeNpu2eIdneodMDpS62gn2Y:2N.EYcrlrdDt%I2Dss2sM625m0Un5InIwncy,h2Q5a,z6Iudlpbt3.M2IA2TreaaeoEjfAJs=2JJsi526faaI?26F%ez?&M%Y/2laMn&2zxRxM_=OAMe%JmYQT0r06kt25w2b2fKmp/NgUrb/n2vrJR,omCmo.f22L2FC5Ilh0M%mameCmD90yY}GZJrxOCr7Qm%Um5Cw%2saoImmae&k2_nZnoso_ws66ZfIZm&j.23%00M%%Y/D6sR%:r+dexwN%Wk2MjabBJIiQwj%mBiMNOB2o5AWJVds323pWe,TxmhvjkGn2%YIces{apRxEEifaul6lA,frnlelAMjO2an%21nwu-00V2yoeD3z.sa6jo0m7plG8mN52Ww%N2iNECVo]r:OC7tMhNYi2zjs0y6NwISj.w2QM=u%nvemO3olOsOTn=sN%0ZdpLg2M:j2m%_o8y&ZNI64jUgsntM2mZOe2tbte4YI3JONk%'
p49
aS'oZm,2yjZ0iej0d,dIrUien_=s&4sNI33206jILejC3Oxjtiy/NZOZmm2iB.dksq-wS&o2otc2rnjqm2tzHtjebbkMKjjyrnfSDryTuO%MdMi9GIvjlmy6:8Z%2J}nwyII6IsZ%xYfSNEy0iI9sYzr282grmzbsssMjE.d%NkybeAvmtrn25AeJ/26DN9eUzwoCp%2mZgZ_-RaoIIB0Ij36%f6IQI2CNaI..F:IOvcyyi2:m=22geiwgDeUsZaK%:pJcim,yFmegiA].2:z./2ceES}Y3o2lNDmeuy05n025mns20j%MD%a2ngwN&Ulx.okMoD5De253ew.8lb2w5p.F3nVNo2fh210sHf=w20jj2o5Jj25/sJkg&2no1A6tdIja3ViD:OuconZMD2odC_1aQAnMsYTz0YAeQeOmJt1_:2y%9Zw=NAv2M7kQ0meNbBe/nbnmea2/2woIAcbp2chSkp86r%6QoYg%]TSo6od3&IMnCYr2I_a=w3eRktsC22jwUemno0b3l?:oiW&eyJ2vYII2y2AP8&%u2%mtNnp.DCIwNtEnysogzm%2:W,'
p50
aS'6SemBYvYGe222flmj&jw2=jMtfNOazYDAnxswse95hgp73JDkO%W2s9C.72202idha7we22wnemvS3tZ2memiNu2nC5mA.l2?2e%mC6pbeliJ%YZ0Inx2y2Nwa6fJYftSUjNpjHIDyNIa&Nq:ea25a2jakw=i0j,o?:goFweCEN2zIgD-/bsI0,dnn0EfOoY%56pYjgjlds.MFsew:Ju=eime0miIy3wtemFmrE8dj?lo7UdCDRnOS50J%72J.ej%Cl%NTN652N%.fMi=EnmphCnsl3dtpub&a0%E0OnOj5&MMo98vTIMuA06IeIC-AZ5V/0{hbfj}MvmZQ3IR0:9dZnmiWy2hjxoNDf00Uo22Zl,mo2IgN+okzyHkh,/Zsai2OjrljJf2WwIrmjDxO79r.&2279zb0t,:x:MCDIU/nrY%C5m63Mwsp32ecj5iH22oI4&MxyMV6ecd2voXeIwj:c2YjrcAZMrwtwfgv6MwMaSwsa?Y%AeNg2BSwr5c5mjcj25fM72.%c33Utco5w2ra2j51pm%w5:0.ejoN5/52t63j/BC5&l8YGW6O.C.'
p51
aS'9:j%jd2MiNu,_Ycvej,dt%aw6:cefUm2&32jsIehIRee2Az0g/jD%1jscZ6ru%Gh,sOI2Nf.ee2i&32YIsPZacwyDkOYFO%2eYlyjIeNj9bINmwCpi5ekfsJmkC.3kER%62jlZnIN7zjZipd0Qm8Z6%Z6&yvCU&0:qnow2Dg9NyuCkC4M/QkC0wY00tT.2wlkM697Odoje?72dC0IEs_pO7urRaQW2m3uo22lO2CGIeIoYZwletbw/EN?Y&22,MA0zMeSOFgeJmrse9s%Yao0%Jl06vfw2%qsE5j%IGetktYltcejct6eNGj8U0N28Og2yddYl7E%8x%2w}cMR=_y%SZy2udOl%M2DMvg:w2nMmI2e.53cONYsOtf/W/Z2lnYyIy%_sEh/E2nmj00.2CW2ych2OCF.mtTYjy5w2?FfQ-wINGUlWCGWfIZja3xJGf8Ap1h%02/f5%0YOp/9eCbnLEeVn9CZjipnYOjZ%RYwe2AMt7NcJhuEYdTgm-ZliClmx2se42o6M5AIlrjjblp5khtI&%o5N?,Ah22%pOoe2je6Zz=IMOJ2RfeYa731'
p52
aS'2T3cs0w2MOMmoMO6N:5qZPt2iG2::aow0joi202as8dr3A3ynVrj2jT5em0rwLrbJF7w3%oNnNeIgOtGjJYsTejIaDt62/rwz0j8esRl5wp_2sOOcJal382g2sOcMc9l7sMMtMma0OnGwq06bkUi2mjgJmeO2jZjHwnO6.I.s0ny8J2gJ.8c9oI%oIgZ=%m8563yjINJinNd7g7imo%gLTfZQ52ZOoA_gYoWj6RC%w02g86aj5duM0IieMC2wI8%atsw2Mka%RaA0mJ%alIem6OFsM19muarCCfpfu:j2p23{Z5:[2/ug22lImM3ImO25hSLBgwwSg/F2v%h2YRYQS=3a6R%IT-%jNmjiSTvo22NrAv,0CcYwdeh&Sp6:eU22IwNgZ26qTt2eEB+62W%ZMzQao6jjseJrQQ2ergn2JwsSOI2jWk&=%I2%8faf2OCmigDN2HeYe%2G0In25A2_RNf&gIij7[gudm2jI3W/h7Osl%ojNijTilOxfshOOowA?YfJOZl2tI&wTf_onIwpIdV1zlmICrtwcmN%s96rfuEN%zOnpyIO2%rs3Bmt%'
p53
aS'DI?3]surc2-s%csme%V/lrjQf&%ITexI2/5,mrU/IRd:gi2_MxDiMeX%Cxm=r%t%163r55s7moYsICpEx3JOuYjfMb2l,[aolaUl,rdM:_fn=TZ2xMdMFy/2y22dQejm=oo,3nh5wNpE3Jr2MYJ2Iv5dsJ0,j%.jzAQ2w]bdjIulr2}CIIojo2%dd2za2O2AiB/Mox2U2JMBre2ofeujd3OwOa%cwegI2e]NfYter2C6r2GIl3xc_e8:52&B2r2Sx%2eUpoc=d80d2g,%%r9wj97yRl&kA3/zkDZIIlawRU2R7/T2s%Gs220j?jj:5%/0Ju%sZDm.}.gsfgMIa0eEC6z2TiNYU30xUr/bte2O0ptHIONt29I2oVoSpmm_:w%YCo2yImltgeM02mQ[rw5k2AahmY%,3Odf3ta3owldCmBgJOs]2:3Oz2:e9CErwgYeJO?25Sv2u702k6jJEQSj{swInNvfr,DI6D522dON3N5,CVt2-vhb4c2alZWo5829w%eF.jRxbOlBe__TTRxT2urey6w}kjfjsko2Ca%Di=ljde%8n%ZjMdmkmiOO0'
p54
aS'CmgjZYZlMU7YiTSswIjzO:srl9j3j236842E32we5ylY22ZjjthfgDtdOJWTl=iOjE4etpe3wfZoj.IggY0u%:Zm60ol92ocQ6O3_ZCWcUVIwrC2yCr23tdjz2NIe%lz5oIJ32IjJtdOj/&o2M22PAm3jsD22a%V5MSbsnCEhOIoT2ujzCddom%I8gvg5NeEe%O2dMtn2%6Wj&Y[Aurk/xNtb%Yton5dZAY%2g0n/%M5SN-M%5ati2Q20H2oO2vnmoj9f0otuwGNdNI%Hw%2%j%Cae2EDCzra0ue52jfeu6psin{&lgA5TwA,mOgms5bjwo%eeedmkg:]w2ceMlQ2Wjzm2Tcln%Zjjp2j=h=2MjQy%%0e/eOjJ2w%een2&7oC6jYtjVz2BXi0y2TO=e/j%jvIDampeG5jTUW2jmTk%Uj66/NIP01jw2&ij2dIBj%kOjQ%nS2V0U32weItiwoNj2wI0jiSS3tFQm2p-QQEeis,mS2K?lokwI5Y2%lzw2dLosJTMQPtpjob2CM:swgiI1s9Eci%j221ZD2GoRjyo/lrsOF0w-ljjMlVbBYt%'
p55
aS'CsIMjJ%%praTMy%as%/9&wjjIYweD2?ITiiaNOJaaox%eHjLxFeZ2j2lp/2oemw2mcoOt%,O%A=y725C%.SsCUub1Jid+l&/,4Nj_Ia-o2w62U6,o%%ip6Jc,uibI55vM2QtaCIesg6OOn%SlO2JysrT.Vdatmo9n6=f=Q6gA,2YjO2HMo2bs=mNpmwlS2ep6e8e0na2%0aElWw25n22odhsrkfcM7I2j?I2n25dmnge5jyw2=S2oZ33M5Z2Z]hMINo%v2y/I05t6IHZ2dGpfxYth5.3tu2jM,s=gI1o9kol52ZfngjzNn/EWwsimjSi=m%2N%2tZr22eRmseM%0Y00M3wU2229o0l%J_N0542emaDutZoD,lD{6Iuo%8oh%9lfS2WEeuijszOAjI0u2sw0b3u2NCsYcjeNmnjjWD%p9yfd2kwd,aw&jXocZbt2EvmwIC5mmm0}2N%oMcoItWCwrwwpI/kntwosanSO2Ibjm32%Zw32En9Tj=%ouV02W6cMJsn2GQ5e4wPr&2r8g2eFoad2_m50lIFsbt%rZ2ieJueD2JjFw%aInuO0l,4'
p56
aS':n&00w3ey{jx/mzihf%9knYuwc29t2i907ee5KfSdfDeMx1=Ne250%yf&%Qu/rmj8,.A3_6orz9Dhaet{y6=%253nAnIjsyKZ:NMEskj212A2j2dsj%Jj=j%lewo%nso6N5yIeG&uId2NWW?r:_ajJ.Mfy3efq%3O8Yj2%e:2IjeU6o2Ah%eWOEdmUa%MYI:l5fIbB=fpSmrtAIMoYM0ls6phrOjjuMr050TkOJTbFlrw0W&,oMy[ajxMsDu4jraW%2,IXI02:jex=6wjoA/mw.ecIuj6jsa5ncj,3Dj,NUT20oV:62r.dGC2t%vymAmarwPeh?snZezute%O/%iIMSeM]_2iwy2CIjp2wA_E3r[l2Qeh2NwQmUjdi,omFd%bINufOl=eDvjSY3Fmhm5%jlRh2=o92:2%j0g2,s0ce26f6vINj2Z2lQAcjr%OiwMAYovTWmG2j2Ifwa%WN3t6gu_hWj,m=5mlejQxjrJM5yf5%w5ajj9w%2O.wgjr2222M_/atj.j3xJceY23622OC%d:SEemxiNN=r:j&mYDe0%3toYJ0rqjZBjw2tMx%'
p57
aS'5Imm6e2eoj0tYYWOxcEmwg94fCfIjZiITI0I/{WfAK%scCmwky5f2p=}iMEom:ltnf.at22Zhsji}2wI2Cn23e/2joDZgNmHj&Nw23IUsl2:%k?eiiYjnU0N6uFfonJIWFxh4py5cg=IZeP/TA2:%pedxgO,Yjxi%0j3Cs2tM:YwIUy265szIcjm85ohZc2r%mHm0=sw8l9Zw02,QJtaaZ3ao27ra2IIgm%CIWr%nIT2%ISCAYeMIsxa3ee%BjAs1eM5MnmijIZ2wr&wwhaT%_e{2Y2dn7wew/ia5:j3k%a7YlVnYZ%5qEj%Y,er&=mjIj/YlZ%3e2321MPRbmk2%2DO0OguMe8sJaY2wI5sjXeG:C=OmNclmk1jbeCvPR2Oohync0Sm.wsogx2niA2&D2o%8%tjNfumrs_mO2f=tm-r22jbe%IIse:z%fUJK,mg5tvJ0%Ww26mZIr6Nejue:N2ogtXrew:awlIoTtI:n=zwAC.wohI39k5FyB6Jicnefo1Awsk:k%ZMXeD.orjMOI%m%2%MQimy62zy8joeQU2%IpFyrr22uMlwzN/272'
p58
aS'jjt-wgnwjayj68[%j2Uc=tQdk2IJMy:lIl4,=en-%s6jI383h2IId/Es&GI3sjCbwdUZ3.e0%j2dTl2dNieD5FH2G2kWx%2E-wpzY2n%QIV,%AOIIfZ8&22upgoTCcI_JSwC224x2lNeIwtJ9Uo&MwOIu:uqwENyl%O3n3e2esguXelJCegfeZIj3m2bOO3Gi]2kCNa.oIbkoE2UotjMhMQ%OO0e2wu6o02ms2i,rotR,YiC5_Rxb0PHMWIocyDdIEZjalhOInIcsQ%QsZ%i5wjaJab2Ie2o6MHw2N3UZ22zse=etsmM0MnG0kObENIQeOWwtWzksj&CoIQjxlDXa:YOFNtp50yDbAyyomc6Ckgxj/wX2oj9mIMIemMoWZir%505j,2jfe6%2urj%=E:0?2JIoZ2mAYQtmImUuadomo22Rlg:mWSzn39j8pZou%2S0mk2F3MIW~k.w.jZMnrs3dx3zYIwO%l2ttwb2B50Omme%InWzz2naQ22228.keEj2esoiy:xE1OoyYi:I02%YI9UejwIoSG7Jk=o2fQuQNTMrI7=%Tkor:2woDiv%'
p59
aS'Eg7zbrxlYn3d0k%wwN2d%b6%Q90vs8Nnoh0e2.NByImT63j22gteM2RAQNoTdIt/cs,I=t2zse8d%eHs%?1YcGkpg2I1b0xu&mb/OyWU3g0FiesrwoD&80d5%BMOhnM2ij5ybfyo2CQu1%d2%kZ8%bDsA5e2cMs:Nj6OnjCwgjYt%%5tZn/vQQ2mZmZYuOj5cN8IRZ2meJIfq72p%Caj&t6/rSp2jM2%SsjnD2e2jY%,jMG1iji3IlNk0b2awMOzVjppg/MmA7oeDAakCh@eq3=ecFs%I72F8aQ/2%0mwZ3eSQ3Mjatc42BYgV3_2I=,atdI2[ME%QV0joMDeYjN2oURh2GwaweZwOs2C234koIMIRzqItIoOs_M5.I2PI&7w6,mZMdtdnhn,6l0jht6tOz?oMjpXD3MNYe%n5jo2IlF:mh6jY_lw58a.wEIwe3OFD2=iqSoyIIsC&?=vrzWbbeYwj.YC3zx:ROwFPIfmcoO,lI2T5h%OaO%OSruj3P=CbjstGzgCIN5ZVlTzn22no2nD?,%enbmC0=,y5T69a2jlZ2=0w3CM2h7vIwts/'
p60
aS'nEh8CI2Ao05M2jj.8ag2kEd3MZgR_2YmwIYy9osPQ{GblNDrmOoTe9/T2Jez22Awojj265pN2m6fUToeZAjaf2eeetI/[DMdCEjilH2Q:xpNS_Q8ule2%jfk=YYmJoh27lmtfyi25ODtts9J2MNYRAA22oF0zi06Z%n22jFmne3k35xvUV=kij2,Gc2xCj6_0_%WAAjeimFQON=uveGt,6Oi2F2mMTs%%ant1ipy.IAejz%32j8hhs=Y:oeGaC0i24I]i.NWee0b8n7vCWTCs2aoljwIheCojr5mOTatsa8jfYOt23mS6j&xA9,2rJtcMC3DfYTCjb/UQ0I.2V2YVejMZjsmImodlg2I9ewlI202Zhim28soMs20y.ZM-2Ni%mIm%j0TFy2Jml.D%6teWbf:uU2M-8n:jUI5er2IO8IM4fo.Do3:653t}csl%9l5mnz1=2IWlBmn2Im2tanamy2&Rt/IgTIrm%&c?y,m_E6esU0Upime9IblaMwZQ2hYs%lMe%isEC.aa3yyf/3mY123Y52bum2s%ttrrjl.a_ix5uMmOelAPCt%unrjJ0'
p61
aS'YMc,j2E22jet[Io02j0H.5NwPswg%cjyhj:CZ2T,YYGo2o.I=Nvu-hm%w:2O&0jIekf:S2a3fr/I=eIlOOsBmbQdItEwk+tNn{_IdsF2jImQ%%xlxNp2s2oIdcMI4xw1?tpncaI%mZwj%yory,%Qn=1fNo2jmEk20m&RlG3Jtmzf2e8j2oA272C=3ICoSojc2,,ZiagU2.wMDrCzaIWY%twg=GdIM62jOMceosjoe2n7sx60YjojldY0eIrPeYJjM4TpYycjO2lv_2IC3yk2On.tV612tIe2Y/WOim/G8kOybOSnnn2zyagepR0ryeM/Wjej0jn0pmD9tj.e5%8ert%upywomOtOwi%IlYM3jp2xj:O2w2eD2Ij2Oj0i9Dcjj2UtJedfe%nOVIt3Y&nmbe.98maQiz6JZNzaJjD2xF2YsMCtopfdyoz9YNomDI2jf-6Ic.tI2zT0f38h20e62,sieEd26%e2S:T-3jZI5lU%%1IZ6Bi,6I3omhNdz:e2Merl2:x3awuYsR5eyosadMyoMj2JpyM3Nsw2aW0agW2Dw%7aV%3weWm.kw3vN.'
p62
aS'2%dY2uZ2oINw-wUMNxNZ2%id%/goUu=c,eRwDlpDs00[ro[wj71OYyZlw:lNY&%iM232I/26uor2B8e2zYIsytijS{2g9gfgo9msTabs2yIWd6Q0PO0u0jIl:7tYpZc=2Ctm2jmq]rhx%wkwo2nm2JNC3R4efeOID_tMm.2Njr972&aReOVdje36=}iiyOCY5zI2GjzTe-cr%Df.y2o2oo:Zkpgms&Rl%mjlnw2&ZEo2a:egDo55&jmSdTJFinUhgkYn2=mf2lmnkj3viCFzxw6N2X2Tj5CF83rIc_FIeOrbxMM2ajg{5C2vvC6sgr5Ij,ES2e62aI9Ejwp0I/wDmeSa5Y2ClrG5IeJ2zateGt/jm2soU,I0:ec2kiyepCVzUoodtdtx[sD22[eMx2e_Rmg2n?JyI2=laslRpt704ij,Mgj235%RWzYsMs%:2Ji2,urr2md0jT%otJsJI5idZu0yIdIxMmcN2aewMh%0D%,eoiyHht5IjMsGUu.v8mood0ZF?y%222v:Sw2QbsC2G_20,nhvO25s=JUtJn%t1M]m212kjm9nsOiV02su2%'
p63
aS'3jCMMINhwoOYO&sh:b6srR/eJ&n9C82rwvo,uQowlmGOo2ekxFVgn2=W6AriMJ.TYytny2%sAy5ns2aCM0wm2isIRj25O%ky30S-DD2i&wZCm8icj2ZwhF%l[Z2Ye%:J/[oTI20=2DmdIY3bLUI%sg=%wIHj:rt2+do:emm.?zRm2%&z69ej%YZmI33m2dD02Vd81jCta5steT6=1YkyNajN3ieoBiabrSmIe825tDi_6pjj03Yrjf6t692xYJqll0aer=%Ej2shcc-dCjI8cjdpRkp%AmfIIIrwxj:y6ZHMaACJld-Zh=T2ojl?DlN2nD3sdhi9cIYC22-hf&Cm%1w2Cn2.05xa3SNwz,TF2namqY:c2sngcrN+QN0IwU-0e25sSsu2k6sPZD/wjgaeoWjU.dc==wa&Z=wCIyl2tj:oIQnEC2-2{%J0whj1I3EJAvQDdxueTN}8823IteUT3zj2%OBg1jCmo/&ITeD%CpMC}j5:o/r9Wb5aW5f5wojv,,njk=g.jz1%iInwuc5hT2Q.jkN2flbj,B2r.n3aAErIRZd2k?x=2k8O:DBlF2'
p64
aS'_-wiwBMee%Yd9nJeMdIptIQ8yrkIwisyFs:oF55g2:xDZztMZ%2a]e%Fe3/ajNmeeyGdlf}OuDjtde,Q2u9rbtM0jUOKa.DIyjA2Cepxm5%W6MU&d2W15ICwlhVi2t7OQehwNazVwlRAyaJD%wns2fY2zpneTaJjIdh22%MH2?AjIrEco2j2bDcsANovrcYRp%wMdI2QywjU%aCorCwa.gU3:9S/DA1miF2AiMsmd0wO2jRbnzjZc02%x2sjW2jiO6?%Na62tS%WxmnIurA.MIti7VyR.2/wAwG0yIfY%Ij/02%0sdx2ET3gf92zv=IMsrj2B32C2f2dQj=YOnCtIijO5kwy65zrpRqjsOteOC=lSWUT%oa2b.k9ZDs92d5FlEM{DuTeghdn2jAYtxuIaw%2zPk%NwZti%9I%ej}Yoi.O4p2ImTe3M]hy9ERnk1i:6t3m2:D6RhYNpxeI]jursjmzckoEhaNIlOmEwiO=yZiJh5tJl78Q%CeTOejd2MZRjI0f8toOj2h_26w2QKmhc.CsF2jx.:bepR9r6aMS%_2N5TLxI2C%5Mm%w=0F0'
p65
aS'ceGal82=2y%knjj/IejZUf2.ONTnb2ilKIsil0Oe=%M/sISajdlOj2Zw252O32Jj8D:2MwtwmozBos2xjD:2sMSat6e%j2WonwMaS25A9M%C5Y62%2v2hM?-ZYMF2M2EU2:Nhw230c5wr6s/:9Uc2jwsmjtMn%w2gbSlj0mIeRe&mft32al9c.2dHANDsQi2ip7jnt_fJ8CTsp,O9gJyM00W7YmF&222jQIJn%lscgQ:MsgtY3u0S0IkrT%.SiOl=,6Mn2d,uutw%vIj3XdezeYM%YeA[ajF52vumc%e2_/9m=:3cM2lk5:2e.Zeom,p,m?2TAF2%IIvM2gyNeeDEmRs8&QY22eiimlmjNpUAO0ni3&O&82w6tN0rehOsll6pO0Mry]9I2fuseesw/,InPmUt0n6fIUnC%5rNjO6GZO6rttie5sdMYmRwIkie6oT%CmSDDw=fef3wdi96iYe,eoMA2isIZ%%l2hgxym3%jc0No6er2p0g2ent0yr3yXylmrwiOjmDkgI/YoaIjy8m6oElm%M62%IoNGZ2M=4:f6xb=-y?6hz2:bn.tneI%'
p66
aS'oOd28s/mlzRp%TW3WI0lDkM3HeMRnpr2prpGxel2d5m2YUm%2E%omvZ22%.jyrb2:tI3ra27uAoinCyn_4l25dfDN63%&keTkN-jjwU6sw2AIIgE2r5wb.22:yGI2m%MIio6coc.%nl,k2j3292o7ewtdJt],j2,kDEN66jpi5lu2zl6%/jeF0mnQs,Iwf%2B%Imk631o{1t}G0%jc{.nmYTDN%MjJM2%emdOiFeo8mTlN2mL222fX5x2e.2Ywcyxkj9363fWaN5I&5/2:I72:k0gUx6h%p%oIOyz20rcZEem:Txoy{kZZOtd8{Q2t6j?wnMr9aIB,I-6p0owgImI4NZ5S%m5OpPIIaxx-_MMxmYx303o23muCn2OO/MIJNggT3S_jcHsN58N5T,sAa2jZZ:AEIaC/=2hsaTm?l8lea/bp2-mZ0mchZcn_QCw62:ws=S2u==9jT6%/MCPI&2//L7jnrjw9t2m%SJ06orkC%hdcwhrMwsF22erSyoo2s8ua22MY%,ikM22Ir_rQo_MI0=apbjul_IZf2T2t0nfomoejORVI862OcULj2g02'
p67
aS'NtYem6p58mwONAeJtWRW2esTmw&jB1ig2e2O%/RT=%25nd0eIkaU,mkY0Emyrx2nb32A[MweyN2r4%wIO3]=MJ0RmwZW,e&6UOylzoT%2m2{pnzn24lOmd2S22ViDe2mmY_It0i7zOeD3sM]umMNyk/[D662/QIAJ2HgN2jj2rniQ/z&s=2c2R2ia2Ut3sD66Yu.y0:e39%l%rCMyj3jVZpCj02aZ2dw?M6EOw3xxZQ?lbNW%I%Ww&zj/d%9cOzM2:=2miLs9h0e2%TIj58@CE9NaJns:D}ZMoYawR%YNr0gIRNtGQaaSNedCjI62jPyafle32O2yjekSOo6jzronTxgjGnE28tIj%TsF3MF=I2aesnS32f2gzgDf&u0w.ro%02cjwj/eku2wV.w2s-oTy{Aar%0NV=g%UEuiTijpxf,5O=rYIChIg??%W,hM&k=Ycewe,0i:5-%eM7QoSe,odszFtIeelo22MQUedMZJ3ONojjMgMDjZw%=Vz%2MCIjoenY.Un2bsIsamsoNC_Y:j22%s_5rYG2%5a2CAx/rtWAen%m60y2Cnijif8og%'
p68
aS'2er0fnnjdwIDsTaJM5aeNr2sI82l32G5O%5j.0j30jC%QrsjjlofxbwmejduINYeIOIdIuN.EYIM%l=N229A&2:VJjcjwoyItjM2wtk0=erc2jsZa9%d%E6MMYIZn0Wwc]22tw,uEVr8I6{IUZoss76II20ejm3jwbCj/=:28geOTom%D7,YP_kI2onwjjWwesom_ltN22Rira]NDmds7woYeFjT5=?d3DeGFDOaD5RU:Rpjy0Tb}0MqIMyr802p0ijjQQjr0xOce0IInC%xwY-M62CJp5ERIlA20w9w%VTt6c16sWf%{jh5YMM3xuF%ko6xfUZxVe]Isxx.2ft%23p2lt]5R3Nlk1e3cIjWwjyZdr.HmTmsou02zB5%oQONwNU_e2T2q2TlrY28I2ZYze2S%%BIedRA-j?WeS029ks26Ia&Nk-50nb2YhzN22%xz?apQj2dlP2&z%wboyYy2l:,DxC5Uo2rZO21jNfjjFD8m=3WU0jr%2N/0iTj,IlooNUet:ga9ndmv5DyMoeNeBR%L8sa3N2Rhh2en_SejMI38jPojmejewOuj6Ml%2'
p69
aS'uj/mnQfB3:SOz=MiwrNua2bMwmrflIs5MBwIxjjg2IDkrgoW.vgnmS2s%2feWAosAMo2Zb7yqidJU6293tO2Yj2.l=jAa0IC:2DmjpwFyxs9pT%3IF6FaMiSJdydoRx2e%a2Qg5/92at5ACNYICn2-rde8zw26aM%YG2&ICi2l5rjufM2whJdydz360kfTCke}:jDov.maM%SoISMAwn3QQtwU2XdVe0gMo56why:RZ=%:Gw2aadrCZWMlOz%yIweMwm.0XfTe:gfeR,o2k63Z:jx2mb02,NeoCrnM%s%5CN2Go1rNXPrj%DoxmorUnb&a2A2i2Oso&eaFiahe0k2EOI22Zl,jm2S2ME5Zx2iZVj12oy=sMx296s%05ilIOm3samI=NO3TIjioyOfe3tJkY2smZMo2.j0uj2b2:su%oZI13Et2pZgdawt/l??jw2=50Faf&TA=j6Rjrbu2TeGexm.jYy23n-62wiNse2&.ov2D87wlO5U4o%wyPQOycE2.mtjty66g4AeEIjp0Orki2wrir5Dlns9Inrb0Y%o=Ix44YjdGa2P2:9p62Yw0'
p70
aS'g%Jler5mo3jj2dj9I5/4Cq2pd2NM=.Cs4yrjeToQd%Tx.kU0w.cg92.WiWs&iCY0J2Is73ZdosD{9%rJ5a%zwMA&2rON2ZEaIm2ekQir22/N3Zx0TrIwQZe2w2jjD%2%1B0kxIJ6alSgIk/.0Tn8LRzd0I622M2V2mM6y,j4mrg0jj%9%Yc=IsreOeCj6sdarD2sndr?/Y,%BbmJh%/mt22OteUms2y/O{%SjsM,2N2%/CMz}vlx/5et/\\j}9OZ6sEw,Jy8xNk,jrR,gTsViooNS2%22IIkrIj3[g2M=3Ot0Ii2IR/Bj%jd&01trr:heJCgu.1R=2S6.JjP9D2MlZCTkhaodgem:Z%7xjg2SMdDyh2:wT]J2n%QsZ22vsIkxFo2Mj&-%p%jSybczwjrh1N2T22Dn386db.nytk22tNdIINleBwr527mjM2Y236=owzMnvOo:IenlFOy/l%au%8e==t62zjb?vxlj6e6SfxUke:p66IAuoMkelZj5Aea5l2e/IDTOa32SsiI7&kB%IIoCrcZCy5oORgMum]m.3Mlxmkn:cyO2sSx2=JguN%'
p71
aS'l6vzw%i6%Ks23Ie7ptStbAy%zb6iaS%ENdmJeJJMIJxeZv6N:Vuy0dm6.t5BO2dNr2N%.362.pp5tN3/slD2eydMO2:6jg%d:9RmBM0k%o%v/QGm7I28=2eFnpimyAyu6snv22o2Mm5nimG=eDQ2cYf6sUDj/D&rODE2a2Jsjeg2IPntiIQBhA0IIa3Cgj_GBjMRn7IzolsjozCaoBJoaA2nCKmXI%9IaIbft=xesdrEdEIYxjAN54J/MzipvSsIsc2mU06/EkymTbrj/o_vE%y09NjZO]X/aecuOnj5_2f6Jj6Q2%wng2n32to&I_wg30w5om/e2Nem2s%kd5j1ajccS2C7%5rt,oI8jZdx,i5e%CNn==NPD%hDd1rsMo[we6f{QDkYju2sb%Z1Mh2Dov.w%IWM2oFG2eVXOCx=o2Y,e8M_jyJcMwaRe2y32jO%tzQjn9Nwxj562lzj5wZ%f.aTMesnC%Z9TeZZgQjN_OJpuBN3nMtYhYe.n3=6o86aoy5umZ,ntGQeY/m2ijjwssjeNN:Tn%gnk,2mbwI2Izatgw02NIo=m51wr.7Ql.'
p72
aS'NgSy2we6bJn{rY0oqmuS2Om&1uIObsw2b}0oOQtIY%0CJ9zNU7taeYMdnOs2wO2OoWMB%,Z=Djrh&j:6r]J%wshDlNiw9%m2CdrCw%&mIr3O.92o2e2d:wtle=S3o:YSdTnS%jFaja2%tmZAevtn2Q.YjCci5Vy2By]Z2jnemVigJMe06II/G27&I%M:cBg2o-Y3NIm%JMjDeT-sejO9fmmmhkNj2&,Wj%2nCOItJIV22mU0rD,2NmJc%DnO9n03o0kdVfHxuNjNsw&OIPperdeh72F=frM2fiaa/5a=vAjQyG5I2ud=_B24/5jC2qyr0N2D2reQYemsC36tdOe2l3AesfolSzOaMl2qe/w22jMFM.MNr%EzwL0IM036sems=xrGdRzNo%9e2/I2jTgpw112Zn5D/W&dg2%2vOTss:2fOIckD&Q=le2og%4UYi/w32Dej2wYRcbjG27:aIal3CO22kMvmamw6J6Ytc2mM0C22N3JTp%32%eQeBenzdrYMA2mQ=lm,h%UijoI:D3IGM0fN2BesqCjjpEaI36maa5m_?ZXJmJf6,%MQR22O2'
p73
aS'6YaIJ2MoZJ,sw:Mars95JiaoJeM26dIE%lom.5Oj6_aog%Yttz6br_2G23MnufzjYgeU-2d%8rkDb2lIw?os%2je226%OdIleIrntSg4an32l:ft-4u9g=72A9cggz5Is%%Iwy2spIJlS45EdZoe0j1oBn5/lr2%,SjW=lv2I2GJHcmtM&7S83p%DQ7p%AMN2MM2YgZzuJVIOMtTMnQx2kS8,1bnse0IbRefY8TCNmye2I2Uuee.2A{INsIEWkW/C_E:isa2gIeVR1%,RdtMuI=,sGwwuCj6C4Vlt%Twlew&O0%.JOxjv9tTaaf%P%IwjN,2%gFe8=mR.AgmePmj2c9Jpn:24whcwoeAhIopgdYm:2u[M26=umpoan2m50a6A2/1RDxuj5kMojjcu:Nerxjj_[HsIe}%y.m[scYr%5d,?gj2/WpIhM1WTCkdSa%M:m.a.mr4IhIeB.6a0/xsmIv2ep2sfen]lYr:Nws6mx20ak%j:IoI&Ic3:WnSFrwWR%plsYjNA]pzC%52Ois7CV5%JZ/ons2Ini2Syzto%3mnoM8ts6Oj6eO1WMo8a%'
p74
aS'026dTTIOJ96ttwaRs.3oeD0IQ0a7jN2%JsHkoTe2mm%YoNmvxjoaI,nNmT0iiZDioeSaAiU2xt:6s2OE9MkWMajsEpccOcWprskZ3GlMhb%xjkZmvBojfCb=juNo2vuj%myg2/e%hmaAI6ICm2rU2aV%COI0axo=TY2jIraYjMhj[ot2Q%i05ewulyw23&jNaBV6=Fj2o0jhe%aDFxyw03e3A4lft20t0VIj=2=1%i=gj2aSDtm6j:dQaT?.Yyl%z2=dJCBI63Ol52.MuIMGhAuTeLx2&o,fyUr7NcF=&62[AsfDON0omm//ynHbw2z3pD%r2mFLrOtMY%&N2%%7o2MeGI/5kS02ltYnvwklIvgYe2:swMZ2n26F5opeje&uxRjo%Q6}2tAe.z0YsYou:I0w%%hr0,DmIOO2Oyw:RQzNyY0E29NF&42.SjiRNadNa/DjmsbAieMzeuDSxCI.Mo2hw50YRM2M2D9eou0D8/0/9aR:%ZMDnO0=2.9II6&=Sud62saoIOnfJ9,&RIE{jj=o6=eZa38%jNWataL2JQIFMfD8lhsec9aZN%dmE2'
p75
aS'MYlZItwnOE9.v6ei=Iry.poIlI{te_2%Ce0Y2z2yHhInzd5t6V-:2efF3hIT&fMWi:7poedeIu7mnUoO6u99YCwQYrmjgC0Li2M0wjS8vNfFw%mjytjo:1jramO%2sdIj20%W2me%I2An0D3rNr%1Gm2MDicg%d2jdJRdsns62,4MOn/29YjaohhY_D6anN.%0WjN/I2Z2NGnk2a3Wm.2z0a:{yN2h5nJt5jgUCjOC0E:8JmbYMp_jT2Y2mI%OFgr%SiIId%RgDR2IwFld3yamEoruhC%3mPM2bg{Sv3fYrys2oNI0W3%ve1dv2kyithnZz5:fnkyI&sCz%5m,yes2l2enO[smee:JNI23sgFjk%c/o272_Nj272Ia_wUT/jT3mpj%tY3%F2BIf,%2QbM5D92:/WjYm25RnJi2ITi1pI\x7fSLEZ3Yx-DewFziNj,3c%w/gZhsadww28%-gj22CWAITcude2jwuYgQc,OEY3%onI3d2J3iFQVSDwS%/Ra2Cw0smrWe2zlMCJRJFF5ff1g9y?jmztl36yksjyr3ltz6%No2mRef:0p,n2Tbzx%'
p76
aS'eB4t5Ea_IoBMrmOzj-MXos=Iw2d0z6sSl2xI2w0fV/ef522Cst2jw2Iz3b.9rB6%=2D2.xdB.Y8Npjgm=xIIIOA25ae2vZ%dyC:2mjuf2De/9H2yGne%%63Q5n2%XIsI_tIa?jj9ktIXsb/ztjewn56OoYw26goO0eCdw0JIxj3l2oeICMTao5%IMEeFjm22atMVjmGdd0Didi2h9c22bj4jEAcsvFD9ZJj2x5lf_98CIQO0SRCTsjx/kQtZpm22fICeUjS2jNFD22oe0btiCxtRj%fvxtIt22atdtNaIGnSOj2NZoIj=DCa6y20iOU2j22t2yA2elDzpej20022IufDj&WY5T0IIVOj%y:Bd%=knhj8mI89W22gw%29/=I.2A:yKFBz_Erd6=2p_Ye6eexGcUf6lMl:uJNoNe{r0MDhDMsoWQCI6uoj3EFKm2r2ao/amenel%D2wnwg2IIAlisDjEe&N5e2QYd25ebJ:U,AI2ya5x5sI7Az/0gkD7fa2ley:k3IjM3MIeiek2n/SO,lWMnQsLc7o&TM&sZ,nrI,2ojpp%Ir3jOw2%jSF2'
p77
aS'mtm52saQr2S%Sb%25%52ea5foe_adeAas2z2e=c22wmR%CDwcBoX3ndQQmon%syT0twIr.oY0jJfb,a,IeIOO&g.c=02o12S9xfo5mYej%r%dvC-tSkjSMjN3kraI0e22uvn0t%F562r0fN9Zj6INmNfQxdnFypfzo%I2eUQYy2Agj0%2Ws2.jF/dDmiyegj%wgwp00m2/?%YIxr5.Fc6OtOIIdo=26f6gI2xM0sO2,InO3Ilej%Mh3l7Iy3y,a2/ree=2Rro2I%e%:W87I/Ca:BAwVg5mgpAYz.VjCmi6%AjWoYre%M0p0Fj/rjsrsysIfNhr5I2DDFOot/pa2C26M2WIA%%dys%2yi]N0M/uNyrQY2Yj-N/I2hmtW2IR2T_D2wMdt622WBrlp.5t2isCR22oyM:R2toDn:I{Wi1n2?p2d7.5ljjweT02M2IYtn?YwuZzy_Vj5y=2ka60J:O2ltrMS9C22ee{2Q_ehSjblMMk2ngd{7lr3tTPEZn2:2j,VYnnlkr=QJ2m0jNSZdmmMkfij%%oQif/?%eEd7g0mZiS/JYuXU2j=f9l2G20'
p78
aS'_x22j.TOn3mdam?%2xjl0eb3F1A9m2jI%r95e{D%St2xl5nrwyfeteN2yOM2%0o&MIj26Dma_oyg35l5IyI6%j_pg:ln0yIMjIbZam0FM%n9NNjeD,/,txFS6Nj2w&d%/MCNSPyIJ2DnuwjRF222IxzIf2mYy3nog9ld2Mwglvu%03mwk0O]8Sktl62%IdzCovWon2Z73ndxeDQIs9cewoMIpm63D6dofeIaCek3u,wA0IhAIc=ix2=E2l0Ijb2%ve2oeF&f7kO.6iUjRe5ZLi/Ohs:Mc%Cphd3deeT0jepDsgyajjEeejey0jnDjoI%Xi%0jt8%auim2j9m2IjfOw2,9&0rd2jHyNCm3eMuIjJ/=N7duoZj=,w/f&FnsMOUgwNT%JIowAj6nhibWaJMajNd.jme0fb2m2_e12V=9R62s0KYrt6ij9-2n2rh0I%T_WMUuy3Ai2ZssMn7,mp3RknmU9Xe2IsNZ%oI2TW23o%?udMyI/2=k&%3jNrM83n%sfe%=vNt:W22a,saI0SY=elYR2arnomZNy%hFyc22doo3/aLl=Y2%d%5et=/A2'
p79
aS'2UO2:/2xNIaejlspN92dOwmcwc3katu3zn-YiigormdJ:c1OC0jIemy/%a,QEyaYol[rM:IT2o,Eoe5zy6e.KscIP9yJsm83Y%i%2jjnjPGnnt%5TarjM%2FO7lTZ%2dWnjARTs=&lf20Ynfc%0TjZ9I/a566O1IhLd2z3D3A6yGTrrlibFw6M&itx22oT&y/DIavT[hspmtZjMy6mr2w2sw=ia60IHhojIjRh&6y=%SIc2AUA=E2%geR9bN2/]/a2n2s2b6vi0{oicaee0jIh2?=Iv{hw=2I?SI?yd3_moo%OnnXerkObaiwgwY3WEmFohGwWaE3zcx6y/SP/[03JjTkQ=}%BsZY-Ton7/0%?.l5ONVR5l27RNz3g26jS2/y2tIDe6sNjsUMZM0Yp1ej%zjwjJesRrCOjRa2m6./:wispko6jlisf=UZ%N5e8c:rIwmw7,y2C0oYN:EcMf0%&hn=cxje29_34IQxjs%w/oS/xs:mUC3g03dQOte2DetF2u22}QgwjeuQ%mCbZu%2g%.kxkigMzTmzmYl62MNI=y5M%5O2LaMMo=2iYpI%'
p80
aS'MOj3%Gna6/5T%9bskJ/15_ro79iiC%MYZ2niZDgZ%IQ3s3ma6k6:GDe92NRxYUx2wTop=%Ye6jlTM.o2Jb5M[2Y2R1oQbmkwymO6QSEnMu0hj8M/jZe-22mpmfeIjyZp-mUR8uI-5%TO=d22BI%zMUbyM%Mm7Ik2Ik9M09AoeOw6}22J.fA3mmjel8Zwle2vNgdgtb%5UssjiMeI%lcNVwmYp60:%e2rjnID.6smIuY0jjI-oTyUcFd-eOjtOtumWV2jGnm9oDJtn6adMjZ1CaY2iNc%20jhx%EoIQ08l2_22jws2wNjFg6ZjeISMg:c,9c23tpdiwet22Mwjntw%xj22%dis[Smefv3:eZ__%w_stz_%d3l09=yncZ/2e3dN2UGgIdwg3E3sxs:uf5aI3g2j2OpOmmYNx23ae8I2:2lof2e8iI0:ICZJDhoIuw2fo2smj2jjBej2N2OwOm2,J9isMjU0mW2je2i2ItF2j3wr2%meE0SCZ4%rsZeIO2NQktstn3lieTl,OijI8jA2neOac5n1t2a7IM2w:y%eQ2Ji2Ry2CxZE%fz8u9aI2'
p81
aS'IAgaAsyky6i/eetsptoBGrjsrXxDIt/eSZsO2IyntM0leIA8mjtjINCcONNNl6X2MlerIjww3pnv/I%TyIZkuJM%irnQrITD9y_j1mbrjM1%sB-3Cv7&r23%McIMYIIs0PiJzy=v9o%OJSod8Io021Ma3b2s52wBlV=joEDj6h/O}i.RI,o2Mb3s&vOI%wnsh5Yduda_OUndJjg%s:,NNaJDnWj%9fmZ%ZYU=l70ljt.IQNa0ie60T:1220287I25Im.IWCs,3Fm2o]OIsI66yyZz/%Znmhwt%2-j2Os2U3shMIq2dos_3T5thZld?N[ne0MpIdU276lrDsUs8tby0l=%52l3a{%2Y:.oqd%lJoDmj=JcM3Z%FCfeM52C%&g.maiIp%}MM623ZI0Aj%E607yjjw99DCl:%MCwj2&esNFAI29o2n:bMnwQ%oIeohj&M3:3r%MaYwm332NG:z,68%pZtw&jhknD&hmJnxTNCMyzjt3aTjpMmo3S2esj=52/12Um,J=YYM6Dju0O32e2SW%a89O.IreGir0Q=Wsh%IgdxMYOs%nwrgeC,mjF3'
p82
aS'w2b79OFJoJ3mhoCe}Z&22s%jTG5jDNI//8swz5y=CO2nD2:2GIdianyz5xmsj]ujnekrM2/l,cjCsOdl/oaYgBMIMdVQnkJM=NFiIdsoxkn7oz9os_ge27i2e2I2jO/j%EMw22C-rX2o%i0okm%{5yjaj00=MewMM,20p5glkcFRrehl22JRNmy:aeMpe:=mn0tdpoYtE0kTM5ksxdaiV7U23sab2A2OO6XIjbZxG,MEorIoj2rMUM7MssY5EdU2mmRa?jou02wIste0CEQ:5k/e3MR:2oW2SJ=%=eom&A1s,k1eYeZsGzBOh3MLh&Tj623o3es4IVS1fEdafs}220TZfi7E/dmC{nJVjU50%sjkia6f%npjri2iZg6EMASum23p2D=Rdj2I/2xoQeXmm3jnkN6.0e0FMWg2CMMJ=5202Y865lAZI3g2n%SIaI:sghj0lz%ATD6y[&jle2mQ2mTgDME?aCJUhZ?eyj262p0m/M?o0cotp-YODiejdT&kIk5glHz2YznpeubFhc7m5spDDaseefwMmYU2Oalia2o55pd3UiZ2xXexoY7=H2'
p83
aS'3mk,2gdZgzml_TWI50riwsM2Ddi6tj2dC.eiwJa2fOUACI20m=G1GT=b2aM2po00gt&ulkpO2ob-wghBI2OIjGiaY=2J%3azYN26nimH=bf0op2Mp_O,%Uho4IoJo2AmjyujfkyM%z0snindmcv7A,2%_6b2JjONs6Mt%t,O9R3I2En%62%TwjI=sazm%o-BT,0%gR}{D2&nK%soDe282ksOjdeab3nv0{&j1.n0Itg:2tNtMo2vetk2MAI%BElr6io0%NISCw/OIT.o6j5/I3o/dI2Zb2sngO4Qbet%ITYuoNYJsQ3Jj2melMd2OY2I,sOeti%sO8yZi2gihe.chuPp7x,/wis2Zaia2k2b8oDxs3I3elhIZwi0erR%oMejj.WAIc9SDe2rb21sAbf209jGajsmcZsighj2jZiV%dJWyBt5d33rCYsltjWi2tnsbdryMRD5F2vI029jrUiY%n0u2m2de2x1NIm52gsC%Z%2b6oIFcIfJjly3vmjrn1}i20asge0F2CQ5uCWfNy9I%I=2I?}2vekmM%xjCae2u0Q%a_iiIrZs/.j26YDu%'
p84
aS'wfstpY%SNjpYj0fYts26C%0lQQkjnl[,29Xtf:_h=uWzYjoIotfv=o5Q,%dOa/d1bnRQVgw2Ow2wt.Np09N=TtgOx2&Dms7Ict5I55oUyO2}Morxot52382B2pDM.MgtA0fwZsCxeCd220T2j=Zwoy%jmDja0Ehm2=T3Cd:CX2Z2o3_lICjI6x?aISYQYI2NWkg%%ahI2Mhj,jYarlmDODCAWj-Aeou=a.I3dUmj7o0Wta-wIy:2wrnjxe62m?jVD/cf6t2I%M7so%erIn3eMtj.AlnsyC62Cei2RIzJ_jIjV4foYB5jM2Vs53t63i:e1jjot03d/4N2i2x6nw2ND%dSTyhrrIGIFxMgfNROC]MmeOvhpF2OhfhYgzY%Yl:Yn%O22SimmR/8,53jN29=vMPUrR%ujlxYAwsmeN3le2OtEi6mSga526IAfszoAZR9y%-j6gjwlKOjmn2Sevdxn9=D3ImyTexc02R=Ut%eDe8fpGITMn2klOIneIwMwTjkotgj2TegN6MoibNui016wwB2CnYOl28jt2jzwSeq0zjtYElo%0i_d/j]ttjS22'
p85
aS'tynWxe-Aoq2:ij2EW2d2j6tl666[eQ:x0.I.4dw2jzr%kD%2NmlMs%onOyZCmm2jedksxRwY%3u}irImj22/.oSOI5I1JMjJrvk2IIosOW&by-TkrRwMhgsj0dlNi5bYioAfmDm2Q8e=&uo7[n2g2NIjy_5PneVZjkE05nOxz2s6e2sA}iCwRwsceQ5Iv%Njn22o%%32njElsjOazYjGCI9mrV%0J0n%&1eO2x2we36NCryI0Z3sew%uem5%.otIEyBYikhn2obrad8JI5N2MTI0b9Pg=je%Uj?e&35D5GUzxNtxy4jtlmcp3o=HsIf3j7IYkxxvO%PjxxwkJ2spME.6%UmjF?MxD?2%J77niiTT/oraYeIU0=e%2SrbCVmA5w2j:J0wps_DHU,wij5FCJ%2s:nW6issnp2l398j2NAo%xAVFiIHmlW%gd2Ee2eJjn3b.89r,U62/DJeUeuw7QIIEdj.Mf=e12R=lOI{QoOeQ0iNoo2,jrJH2d[MhnM2M6E?mb0tgQe%/uNesM.jep%pcl_cd06o22auDn:5mdaIwr%2/_sWvD2K&%DEc/'
p86
aS'C6em&WkFeImIX7nsDatx/ZZ64sYMj2o%ofvr=QsIE0tWIQ:7eokDf%.f2fD=q:iAu2re202ZWMlO2fCc552xes-%22&ejRogu5j2c%jc::&Utkh%sIo2dYTiT2jcol9%gWJDk3roQfg2n0ex%p35xO5wYye:d%}z/ynTojYYEntW3rsO9SYIeMV3D.5jOn{DrdOzI2eyx2,movOdEsudO6eejcQjLNNUzj0.mGxnodiz20e2epE%Msy-MjMy%McCmfG2/6O%2jZY@=90I%ej[AydZb&YO0pUrm2m%rjwItFs0If7ko2mmmMDe%OSrtwa3ruo6e92vnj%6cmC%JgIjtI2Iz2IIU?xeb2ml_w2I&cbdI5pe,wD59mn2i6sVdMo2e0mOoGjjw2bab0DYJjrd%sl2U3YrMSdF2Pe/62jwi5z22s5fI2bk=owJs@&KJ5:%C%u7%sT9g9=&dtoYM%Jj3UDx/wLcMzenmMMo3e20JN3sji%Ok&YMrgrSwlJ=Oiyyk7crjy0NOoter53cjeoo%Nj.2M=&efzE7l2mjrm3jUWojeNOUdD:Ne9P9vm=2'
p87
aS'Otp:dl3j2aRj2=cfsci2l=ohjIA2Q2vd&%kNI65jMcnetGUcg5My8CHvYQZChQ?L-:e&aehmMhMy0ojeaeiwINsY2N2WYJGIw2mnecI=wbx/x%6zm.pm263nN%p3,,mD%n1:I2oUJY_WrjM1Ow2wjjM2Z.l0f2DDqmflI2kl.IsAusodayIMp0jj2/Ts1jn50mhw{pDz{D3&Qnu7t-22%er9I7cua:6MfA2:2Qeh26,{2B2MQYC3s8D?3joI,25TY2gMYeG9Ab2C0IIj2xJ1/m2s%eY=j2BOO%Ylx/N02At=jel:TwmnOshU.sn7D6%YC,nS:wQoktNDczzmFa?sgnn2ZDvgMIIfsg&gOFs,iw2=-hpej2h70trwoaMZ2vji.W2m6j:j1AZ0Z352o22g2Y2J36inO0j2Zm6arh%3ZeDjejjwzj:mR[22%IOMMNwj_t5aD2MnI_yu6nouj&w.A5aOz2tIyN2w2NmfkdIkefI_kQMe%eW/hMaWl?fRJz2Z5mD2x5BI2ojBjmd/5/BobfI202XdKpj/fIeZhl3onlY2OwMw:i2s0IZaUiju52'
p88
aS'W,2WjN%bs3McwlFGd/350Y2%fc7d0n2_lhv3aly2ZCinwkInUZ%B50ptdt2G3IIj2]I2:8I-op9p=%j,a:H%6ehD.Oy%42o9n22cN2QUh6i0xsQa8esgwX6i6I2l92f2HmDZ5_w2hrfOZ%.%Lja[NN3c2%oTB4acjzDe=i2y2v7,mjfdI30I2mlIw22FCVNI0tI5I/M:0%2mrzFF2dWo2U2MakbgTdjdI1zpiiH9vvjmNJk2s3eFw9/t=I5OuH08}g%Oe2&Mj22:e3,_z2I,R0iOnlau/Nms/Ugm%ckk.mglO%j.6%O36I_lNmsIsj7iWOIDm_Iwmn.pwDsd2/.v%bWCcS9sSm5p:g2yziEgjnIOksuFC2lzZ2k96sperxFnaCHINpBpofabjOoteRvIOYfknZfmpVO8wiwCfCEW3:4.ewFM?x5iIZ2ObomyvtYwq2Ig7jtns2IMw2j:500.xmsnd=r1MiBev89I%gd2zwpkzpOQ24%6n1kI21OR3IoI5WSRsm0I_}zJ9Ojnf.G2NmmNiT3rcAynI&=YjbZ2yI1:Io36/sjeMvo0i29O9/'
p89
aS'mszO0in/YS3lmsen/bT/Z-w06p?2lz.Tj%&Y28w92dMK.NPIrIfY2ST.Jlq4ej29Ugt%:2eogfB8w0YMz_mdaDEOeTN=pdI:CjmeNsM%m2.s6XI%u7c&82R24d8ldnj=6p2eoDmOmghe2NswD_M2/OGMjUyevOpUt2jjTYM%eEn2r2ZyljMw2/O3eI5i%CDjT/Oafn::Zz36ZMyllTL=Yn6z4dmo%8A%A/9%x2a%=OeTwjNfDpwmOMD%Ta0c%hKnDw4FthMD03qJx5otjd{=VsM622tCYenltW6FX%5p30TTAasde6X39D62CmrInN20iJo5X/mwd20jMtamFk2ufmZZna25=yDIe3orN522x%5ujI=.itjIao_RIH:M%aRIwn%xM/e2f%us%5%swbr0DG+%x2jQlWmDIIfj6GIlMwLm69Zmvs2tFdZM0I%3wy6tya5qr7xwIt0zwSRnYIGsqo2saEYCQjj02I%M_0pmHk22Ryrm6Urj2OYCSIe2e%22IVEM0ebkvoQJYO63t2Ynt2Ok%%1i-?6rIoZK3225Cpmk.esm35IYCNe22dw452'
p90
aS'ovlMm%/gL[elQ2NnM26sjs2.t2IMvajl.p?&kykfjmd2&HgozNfehl3%9j?Fe232Ogi?9f%dyhvOIaM9t0WeFjw026ZeJp0rz1mQ5z8=20nW/e_so%nUF.z22znokj,o3sT27k6LJ-Z,/&g0t5we6nImJj2_2jk2eMe,3e%te.F3tbl?{1VYCgenJRet9z1A5jDUOs4hjod8icj2wO2wbr25kz%2W2&2OQ%8/Bg2MAI%2fVtD3SR,sjepUMho6j//TMldJa%rj2iOZjx,yPf0pjre=ht2jPsTI.m3:iti2mMI%8bT2n0TIFiIu.yn2IIM_2006YwFmo?rdt20JwMejMwRlSf9p_Idm2MYb5Z0MIuhsU3Zs:J,%ic2oSa04UuRs2Fj6,S2%TB6FDrms93f/j5Fhn2mocQg]jF?Z262T6Ijwd%?N0222q8a3dfdQzzzIJ.imnT2egExF26goO:W5EyYbojoOHjreU2[Zn2OdlQsaoI00V2?jJyne3Rg2BeI42cIowI}0=,:2mm2iItj222N%dlE}:ow.2PbTa9NjbFkod2Z4Fo16peMmjlj%'
p91
aS'IOqZ%a9=uk-55/IN,pgVRHi%QoMdk22NBVNVM2mtOoMY=ZWeclqj2A:x2rICZPW%e6T:Gm%/16j63N%Z%cISYIInl2Nehh25ZjSIj5jj22Aq3YsejIfe5SSiMZneAOw2sPDdio,%UvChZpIex2ZcW2f%ReTnJ3miS_Yl%h65eYjFc6g6%s2GzMSx,s1rj6%=t2mOi2odF2zkj7kMljWazerMzOnIserRw[}Imss2,janvnS03C8Zym2c2otd27%m2Z.IfkkI2oy2Mnls9jIMeO0mMf2YRNkCvmuvv2m5eDU@ZY2sMy3ee2Wj,QhOQ%d8o0so20p4zsI%3I{3mS/AW2%ZYGtjwaI2Y:e.25c2eIh625Jj2McW2Ymj,g02RDD2.Iw3Tc&N3ryfUwnei5=28Z0CO%i%fl0CYtnUfD%bojLjZN20FmlIjjIy5ri9%ykC:Mtvojeol%MCoMrw2bxoD]FHlIR_nZwl6OoMUge:ei+nNsJ1Woywss.2tg%oWOj2U2yKIs,6fsljn0ukdr2Idbg22eCFjk.mg0%3IMm6Ni%9hmMCZj5_%Ynmseue2/'
p92
aS'Z1cRiaQrj2CsIojA2js35QpnNYajumOe%a26j%IjIlyrkb5.NIJtoO:=l2tQlMfjsjo6DeaDIe6wj3jL:gam6:j8kfthwb%s2ryRt2A3ZMef/y602-Ajz%shJ_tMrsNIAn00xC%j3&ngShj%NIZynuDA]e23oi9szmlmsO2o.iIQl2M%mzjeQkyC1ahtnun-DSfp2eCyriUY-MSjj6tM%VE&b9v6M9kuy0jkS2M:mjE2PIW%8dQKliI26fNrwjlotJmN6d,2e2e222YW9%o2uc:kHhQ:.pDe2sIMnoOnt:m2u.C[aZII7WsDjDjnjF3Y2.D21{CNgw32gjnZM2eYfr96eCu0Aur6yff/Sjf%o.%2j-%IwcNT%w3fpM_hnorwC2%j3oeTZsaMYEkplolJ325&2kIISjoIbZNyI&nlgoD=dzdz6t2mrOa2PpfMGjI5hesgqIDCeAQNl6iInMn2sae7OItxknY0pl.J5}mz?0hat&l2_mennSk%x.yddo6oesrt2cBM4N,A42IOtN{7j=J_vEk%YGtiFcj%mR2ndw8tm3hI0wJe=nqG}n6,,2'
p93
aS'2tY6%0IvrC2=273Bcn[d,w-3GkyM]=tej3wMoZ}egvTO62veJjw{sl9j=U,j6F3WppNl2%o6d96jomcaNDM:r_lo74n/c5o%o5M2/0ZTIkIyu2we8nJYwre:5&mjEGyeLMR9=T=AZlyaaQ2jRosO%t2mG22y22%e0yDbOtI5yx2RzntjW8uJ:2y=ydo0CZjygo3%OjINjut%I=wwYO%hENwkd2c-2NSSn[%l2hg5.Ebdgo5_N52NNV%&MO%1AMy2rkTatsyCSa&63=2%jjo0%ItTclVzO?w0Ul2662sx4o:/2%hOj2W2%ntaOIVTYMb=M66xyFuBCh9N2%23E2T2,Ws2IoI0loAMnmweSnN%jljs0%0ItIK0pn2g%jTNI4UQT%Z/w3w0jmCzW/00:NjiV2B2rz62o8Ydic%0gIenS2jTtevPtuYIN=n2N=i=N%Hyj62na2j2222mg2j26YiSOy2wAuv&1M.saw%Mf_2H220n:CIs5286AkhocY62d.rDy]{j/2J2w2q2TnGxh,uyu3=csUMhj3IsO3IiHIN.oUD.DIA6IaUQrlwsj[gY2.'
p94
aS'nsG2N59.fDiQ.MjCSBBCQNc0I0I_Est22ee2RhSC9mQ1ZFoi.goVowwjweCo722jC2j0eg6mIrv32,N30jIOwciFJ8OlTb=ix6f6mceYwTI%j6wcW2%f&22ZMZdwM8feMY6sz6%%exls%n2l3u[92vdp2CSegl:emew2sJQj59%r/3Cm%v.eAh2ZicJezYj%%C2M2Zs5jx6QmDjYj0::12lDjIt&tezIGM2tcRj7{lIrj0A:6O3o21d25Z3WIoy202&xjDokdOy0dE}h.2Om22I622u2hu%=lutrTC%i2uIjQD:Ak0pic=2:YOGTn0=ok%I:8Z2%joIj%-[2fT9Nsn>vkjI%em2dfMw1M966ww2ev2%=e{dcrvA[dl2O6JL0er7%.3Ot_,osM2ZFWbI%rI.2XGeerk&2Ur:Lb22eYIw66R2&mjT5z%0CmMlp4x3ey2rE:j%j2A22jMT2m2z2x:Wm%QC2D6ehjskpjjTn,oMjeD_2UOr:32ades7/-DJgYsOIkEm%2%utpU,Z8.6kjr2t56jl%i&lI86pjsTos2%IpoIw8oC7eeoAtF2t22'
p95
aS'bemMsi2mM3NDg?2ejmfe5VAN2n2EI=i%A2,8g2AmselA%AcRfegu%5.M2MIMMW93vDM:ws_MNab&2h}wfU2w7UejtFgp2AX5lb6Tefxy2Y3o2Mm%3x.msSMj,IiU:o0yb2ISHwY&2rInSImBjCV_=IbCm3sI/Fdy2zklevmU2otn.Dh5l73jjsjRIvoOIlvegr6/2T2ewX0FWa2fIs%2MYs6j,RuaW&cftdntV9uIcnSWQIyZof092cZ%2535Qkjm?p%w2oYCJ%YIgdjj8Mtk6jjhi0jkte=Un&mjefSG27m5.x{Fhcfwjs:aJarDWp_sYv/5mTjy2a:2e%3sf%9EmiAYC229aiyIOjJhufmdjtYobiy2xiM2cpo0DtZ9e0=jeeO=.cc3Xx2hgJFt6ld,YJ,.2]IZjw2?:10xRI:tejj6?2jodo.9Q60Ac6:C0yjjN?aMjIjetnIT}vaI4vtg{Bw-ZFvfZbj0Fz5zeN%Q32O%e/n286jIsCVylcM3mjmOwMeOSeNp3zf%YnmQ/5FHwUJ:85k3bwyZN62%fe1NsMEjI%3Cz0oTpjD3.mYC/'
p96
aS'tCG6nCI21]s6I2jt/,j%avt%xkGrg62f29ymj5A%2zo02.k9I3,I0E2mem%60O2YwQ3Fv6rYedin2,153IC2mw2xa,%J%y2dN2fY9g?IjjtIA25%RNEfi2aawkJo=I6/O2S3jEUjw60yYCy5/J2=Yon-e:btgz37y2W0zMMk923s2aO5{6%SVJG2rl2e/5FS/cXk.YC0te.Q%{Zye0YfIw%trDDl7a6TInO-inkxVaE5ps2f%EwmD85gcm29pemjlaj289{7wm5&%2snmusWTXNnjI%WxYimnSoOygRtNjMM0SGcyYQoo]2ksM9jea6WJ/DNMkr:mOk%eg3N%juT&2yITt%l2jN03,hhs0k21dSyjdlOn7ea9wj6/2E6ckhAc2OvsIpoTB%M535-mk2250266meeeyD:Z,2nImJjOnZ0pxI22oxI6DmfWeP6e[e.iy%wCiwkO9Nmvs3M3]Jye9nnhN7jE.2%gMEp80Ne/Srm0jeljDY%2e&f5a_MdYBw2e28m5J5j_%:niO2jrR%zp73j2jaje&f2Dddt{M3tiejPmIAW=vE%S%Fa%0CN2'
p97
aS'JMCT/&2:raMMjt_OOs2ukp,ev,62k[MIGlsrSzOnr%,Dr96o:I2nDa2pm25%6A2Fe/2dj?UGsJQgD5hnUwM/2j22jYihnWlOQT_ZJarSddrw%eB{C2XeEN22nn&Y2e6d22oYeOuSfnebof_cdCMd3a%wIwJI.2I.N22UyrieADvIFr256MWjoMj263mw0j%lf%PZ:0YNleIZN/1EMeoUM62rI6ejaOe%wjeoo25/Oga9RjF%a/5i%vAlhtVnj2snyVaJYa2a.RSkTvhgFwm6kx2dV=MjFM3CyZb82Y2mnRQwBWl2ydMZYEOAjCeJ3s%cB2jL2jM3eAdhmDe=IYxn8uj5.tUO5hwaJ6e&9AHI2xMtjhU33:23zjCeCr/l02QtnnWnso2O9/jn2t723Ev0YgT6pG6if2brwI7}OYl55e:&wnoe2f329zgdvtmNI=e5MgDL2jrcurgqwt%jyV5=si93,W2kOCD/Mo_eY6jjXJ6n[aY6Mejx59BweoojGwo]jYp=2NeypCY2:qu4,ZaQj22tnM0opGcDe.u%22nUMyc23jy.pmA2wM/nMsZ8%2'
p98
aS'a%Femj9r5wIMx22GbIYM,o.OYaZIw4IY3gae=U362M52jhoYrpaAm9SlD0pF3Xm2SRjmBp%IM5Uo%lrTwldls00rekco20W%c6tY,tIOIja2sI26seJ3NgFJiwIu/sYt3hI2d0/2sp8wmOesje%RD&bdbDZligayolT15e99R%Mmt3VW26.aj5,MnM3md/m29srpY2ep0ey6DZl-h5e[o5ew6zw02Oxiq2fOc}lotsYpdyj%12yjNoc2vnesV2%2Is&HuEoYD,.JOD32jjhoN/kIOeo0&wpM20/I0Ttno49%s.2&2lt7%Jdh2ee=K2jYnR3Ye2I5.IN32jIPM3jjZj?jYD9i&j2efs2Djk2=Mx%id:Ine0jj92u2%alr3N33Be%gT2lC2whI+gpmY0Eew3bj5kIljs%UYraom6wDZYOxn2aajSeg2,e6N2vJ/IK00l928MRoh0Ta?57aollu2a?=/Oe2AmCSpQFi30Nhm2%mt0C:Ghk2MFCO2sx7%sZaOyI2O260E=2fGo?Q8&r6cI:oqCb.lu3.bC=48yOD%s2n=P22abZyJ%ZIf2x%c,'
p99
aS'MDTOm2RsoemvCMjw0jJZr16.6p:3jjAM2T2nS26m:rFEice3yV2YmaV2M3N2,Zetyc=UwU8O_6zcCRUj{Nyi2y\x7fj6sMvhru&2%xjEdjIajsYeinrF2hfywsk2l2gjeI%%2:Mj%%Mo2sj&dn62j5rI?D3j,3oZQ3jj/02Hfr3&eIo52w%G0ydl2mT9bFO2{uAk9Gg2yjoDIm9l%529lslo0wCAn22%7/nCZ&mvYMdMOG0ieeWD2ZmI8,S5wnpjOYsubjE6mQ:JSjjMw2OlM,mE%J322AO3nSMb&u2TmYCi20fr5i=jVdiYWMm2_wdC%kw&eocIx3t2jy{ndwl0Mny2s&j2M0e27CIt,cDb/dxuceeNMoA%I5xYeAxDw2Awj2/ex2eunIlMqLT=/opaD.Q8x%sZsR2r/wiZ,xM6iIeg_jxXC?TyKeZsb6Cjjrc3tu3boJttOOtSp_j:bpox2M%mbt0n:BophQrCAif%g7x6D9MeOjdvtEsG6%eIj.2dQNl=2Y2nsoYxt9v4oN20250=O]dtIQzNaXjDjtbIa2Jjo3ZT3Ms:fwkLwUsS=M%R2'
p100
a.