(lp0
S'3sAt7CrprFC932oa3h39%-1aS%B314%smlxo3pt%0p2a_HC%hCueb5ed3A3l13rkA3h3s3Co3s043e3BlR8t1o7c4eFdtdr8%7t5n936B/emo9a3Akf_c%Cj%%F=&36o30xusl50dt7m8P--3_sr3De7%FDpmlFJo%hCp//dttn%e343x2isgt6u%SBohteDQsidr5m3t9tfFCD%?AB10ueoeFxetoiE43&s0_d&FrrAvAzd3aw7347o2nl%-438me%5%yf333mbrd%tg&C%eRune0Dtc1F_N363tom3s6t6gl1ma3d%abt%FFA1F5iEvcbpNK3tp38BI%se4A70f766rsal-ipuatAArtr8/k%tu3e7ASt/%Jwrh838iFut2yeC&Xpp&sslvoivD3oDCt870?r1iadg33&Sa-%3&Aifmt302ela4jA3z%fIhaCBC3epv8hji3&3%3b7m-CBi534_soB33ACAP111riFe0&/s4%6hn3ua23/r%e9t1v/seth3%9-w%oou35e/fe/1%3p3eea4s0FeerBF%DgdF%A_dceDvh&3rw6l%Dbl%'
p1
aS'F1CN4k2--3uieren4da/_p/foh9nphs&l%9a69_3psufF2Awus35t3%d-3a%h3g3/ce3Aqo1%_p6f65n5/eer%a0%3s0x4%mm23A2tC-t_tFe3vm3-poCAA63eFdbws533tAt3%8m0/0rV3y3f%3Aal3/ig%6t_%%p%nmCdtao2s_1eep%r-at704/ci/4kCs0t/2_o--oA%%1t3A%j56acFaFfdvau8ad?2C3dd?hfoh0r0Ae3s63hdE%9Q-kyS3n%hyp%3pip8te/505l1f3mg%4w1%%i6z%4333j1cMwhv3C3s70u5p1DAo/5//oc3mQv/FplhAs%31%CC&%iuC3s4fte30DxyiCmwurA%5Dpe33&GL%3r[2315%hsCMDl%ph2082FCw53M/0%05o3-%3AalGtS3d%a1ut307-3%m%0373Cxkh31at1iaheedlu358%xA3B11%no6od9sSC_073Ao0dwDwrp6Woaw_t4eh.uA%VeiBtnFAiu1det83t3tC4mZet3.gon3s&a1l33CB3F&0%i6xt1%v3d%t&daAch%r%s3023Ad1td31'
p2
aS'39%poJ10m%5s13F-30fpe42nb6g_s1gliD2eb0%5/3i8E-6oieb3iF3&cRa7362tpX3x2Hm?&Ztdr-be7tC4r%3wF137%vCF?A%h3n%ad&_3%F370hA33%a&ediF8poQlA3As%n1b833%u3os7Td33b9binflda/w39c8go%r8nA3QtC7=/u3f3oi38336mFfs7&at032/4%b0k5t/aw1vf5Cm33005tBe3ul-s?c=ByF_E5pHayhdh3c6d30m?pntl2ux&7teuA%e3wu%p%psx3d_e3%Pp5/u6%31fr%0t5aeD13ukA%s6a9F3f0vsdhaB-uT1aEisur%c%F3m3?ck30Db30Fah5?Yn3s%21te6Ci0&30jf/%1%%iDswiA&evspCDwm5Gr%3_3Ah7eeC%&p3mci63d5ap&Du80svv1FIC%QD5toi6136Ftn%0i6skA9%8opF30%30w3%6oi38Avk11a1%%iDvjA%1n75lMd-303%Cg83DE25wvl8/A3ide1eS0eif03fm/e-ec5bb9eXFrou?2lkm51e3%1CCG3%4%1Rat9otDee0p_d%'
p3
aS'oada0%d0it38d%B0mw%d3-/33vAeo7d29s3B9e%ZT3nd3k3i&c13Aao%FJ94.3m8444d1%3deWbh/%os323jo8?G4eb2g7HAW3&enA-erAdw88eYh_F&l0/E3a%5leu4e37m8/1gp5&4%a1eLhusGa3e_Cdorew3C11,mwamAdwitaA%igte8e041%MfFEukH103eisevt47gt3bpoe83ptahkBi%a0snf0%2h-&d4sf33m%hdwjeyUoThH5e50-1fF83km?s%w20A&lFw%ofve%pBl1D9e6r3oH/Ser1%3yu&3uumlae/3uJf%Fpa&02dA7/f%/3F1Stic-1f3lipb-85oFa%58a3r3D532At3i%Eg=ite412H%34&%%CB8Au3seFd3d3&%sgmo3/p333drF3A6lAxl2%A1AUAFFs_daCh3=ln7tinvt%mu24ODet5?1wtoAn3e-.t3=e3a3&Av1/3o/31t7de2%3n-2r1d-tUD3?9m6bp%w0si%/AwhF%g4e%/r%e3AdAneAU1NQec7toRh065e74it%3teb0&0sbfv3hvo30M3oGe50'
p4
aS'0/g1F_aa4tv3a%C%Fdfmddo62rBF0xpo%1r5t53t0omBu33c1ev-1=%td3&dmc3f-F%iQ3:341otJ30a8ds&2bY093AA3CNott30e%36reAedk34uf30lmve%Cg_3&C33em3728p0mi__efes3m83etb4V1c63nRtTslA053ddD3-le3lr0&f-ba33em3/f-qt3_D8e5en%%0HHe_n%a3073r3Ar%pCia0a0t19aC3baHE//iupedre%colzt9o/%1i5w8g70ta0Cx8A&3v%0pqeR78IfsHnaujrru/2rEaDky?wtia%A49dxa4pt%4t/a3102KTd0t%&inE6ohlesu7QaCe31ug33wTtdovv4A3ndo3bo4/%jtp4F_23Yd9dfw%a0ad8g3ofiF3td/?u&cedufoiu%rc/9ee82Dp5pahCoae0z3e3m0ie8we9jdA1o%s/l%eew3eFae0b5b3FOi-4t33bArj-aCEV3db;hy2-1v8_3E%t5u%3i3c3aep%3sn%3dAh03bA%Utgte3v63eiRAhh%3f1%om%e3t73tufbB4tt2%a%Sa13t22'
p5
aS'A6vlg%nB18a3k26m329s33435Ar/s2%uSwt/Afo0?3iCe3pcewn30oep-/l5ueAivHDvyBtd381%t9eJ7t-r%0s_p-31ts%t%b3dm%2_sttdApl7D3oVeF_e87vnbin3f/a0N9dmjvAtt5m20%%%t397n5&vx0055tAa7%v6s&%13n43r2splF%cncF%9&C%t2aQci%d?d3p7d3FCbttebFr3nsm4eb%fC39yo331F33iej71ise-oddovnf30nvl7AToit016/f%mdut33F/a&%3dFu2fC%1i331iZh0ledi99pmfCh1-Y-titEdv%El3A3u-d3vrp3VTb31e3%osy50e8we82651143iw&wGie&3tD%1dm/33Fs&35B3x3s36eR6s0F0apupBsd3%erPf5kafms3o3opE&rti471c0Aa&%p4gbeFp3P_%_v2ts%/mB%3niel8jt%%d%o1rb3d3v3irtbd%01e!v49r00m2vewsCO4B0ubF0t2tFx%A%7uLA0%Bp3oDsw2el&t303Cd8%6h3Bl/ta0%rFh9est%3h5_m0lv3iBn6iA/q%'
p6
aS'3%e&%m934PA85.55vtM2e3/-%T%iF_7&t3m3%6la0%s1vmqi%%a%sdF0-31s13tm%a0B26p&33t136ioguUd_3sb3Ceddstd/%B37puEp34F0Ae0%isd%oQvbdeVfnl13%33ef&3A%3Aa8%6dp21Y8sHCAa12%uNmUCiCiwam3eh89-33l0FtNeC%3s0r3i9s545ftosne%w3m8jb5setAm2oaFlwd0Chid3?&u3h0p12o1&s760in2en%4A5323p06iagtirrid3re2tneN%o3l3aBl8al39n1h1F0&tY3A2prd3zt3i3/F8teAeapfC%tf3tNtpyl%%0/Co31%ad17x89_339d0s3%0ABeib%p19ew_6n%oPl%9e4s96m8/0ns%pJt5esFia4%51aTZsc%B6ofh3&a0b-axljt209AC1eXk%8pwtt2tFC8140p3d32%FnZte%%t1l&v1De0fz3-FmhAbi5t4h-&/FFboatw303196%g-a_&%pdC6D&-e5/C%6s13E%o/h8e866jfs11sw0uh_r/mt6de%m[bB%ee0E%%1bAF33h0i%%%'
p7
aS'vjsop%?r/0H3q64toCsA%e3sa1t%%3%%?%ht0PrRdoe&ht9393st-F3%3toE3-3%3sivb%1eaT0l4l%G3y%1S8b3e3&e731Dmm5l1aF3xwvxil%3%ra3hjo36e33e8r936asdhugpb5u3KfoDC2_b5%H1ghi263AX3%bpmq3wYFDsFtFpdBfn5i0274F1Ac1nheas%0lUs/AFa3lFgb%f2a&&hSbt_expe14Cs3ie&C7Lcr_3Di%1idB5g%i%0&b3uT4pt%lsA3&5gFs5pdeaLstz7eb1a%tBd8pIrBsr-3p9&%%saphu7twmc%5m35ts33xC4/tto2Dd%o5et/dML33u&ds43rA%eAkAaaD36dO33%133sto1&ia,Quxf?%39se/d85pis39cle/33i/a33eFe83z0hptd1dos%%3456%&hAdwev%&8-o/FAFinAo_6ph?aelF3L3ad5cnc%_3%Ues-8i3ebCotylC0h74ekh23q8B31tos?adpe80/512d/aosFahd5D1m3erir/lf09p%3to5%44tAte1evyofd34d6e%7FsB_80e11'
p8
aS'_iitDwe%esaao74oQt%wr3vg&tDH%/%%uh6ilAs3a1uo0hb0e0633%8D3bu&koexcx8%ibdj644s8onCr_rta/TFid%%Ebeb3Gvj33m_v/18d13_L303ee6fy%hB2ai%om3u7sb%vwl_3aswVv%a0pF1EACEn63/35bbpe0_st6097rreKt5hD3dk143%dRR3F4aSeA335wtC23%FcWama3F7eu3zp3st/bdqa3xAU3irigA0biv%mFbalbfntsC1svmw1&%goFeA63p3nsoRbF%3hk3_e3c339Afkona0epe3t3pdui4bK%u3%Fsdf3_e36/odo%4e/b/3n&Ad2wd&xb310ae1tgz333tm2Dsmp3?3_D3g377pf3m6%&u_3iit78/%43zowW1eak%0re3i113w?2F%A-9/d/408pmCdC1&dye33i3331CtEgb_o32Nj/3li%Csm%wi13f4p3pyo3ee43b370sM3iFi%if2rotr1pdU1ABa33FC3%4oO0m251%AeQ-aCp2e50jno-tFu0i1pg33to%t1t%d05%/TZpd?eM0AoCt1&&sj3%'
p9
aS'2nt9&AdP%fpF223-g1zw&Aou7eHF.3%upt0&3/mAAv3o--3ae_svee%0C5eT3d5%FavihkC32Sw0j%nFe/5%1mLo3hii0Q3Uf2%DBd3eo%-UnBss?mt1r33g33%3rft!%1t?f5/x00msyj3&%%t13%asE1_/3U%6n/0Hwto4f0ev7dtpt?D24v451%eA5ehwdtpoX3A3f73FA%ettopC4Fp1%t?%e7)mtlg7_1pLf3w2kieU553tw3559tpoeb5wsABs3-/xpDibBBo1t303mthmgeDt4a31d%v3ea0beXd1i3323adwshPd/c%1e3_etpmCnwr3o1gd-o3AB5iwwteoatfn&63-722sdoFwF,5t3dAUrsoU588r8A3s3B32u6dt%33%/%%eX%e%-Adeypb93ta3rF3teA127KAdN1Tj3cv7o_0t2R%a9rneoverui8394dG37%phe33Ftefao/sua8u1ddFo33a-/830xdiuB%Fl4-Ap%im31iCFU%Dn1a33=dm0&TCl6C/fAot%tMCj3%2%w3&sF338x171nokobsFhCrc8asa393wf%'
p10
aS'm31n3/13%CuCtt3_7vv9Cr%/74Ctx&&3/3vct30y30b0&c32Dt-3oiDduo%o0frWms41%573aCt%1o-38j33sig4h%c93%%ap3p%Ftm8a33vdF/H2so-33dD1Duple/F2a1AzPsr016/FqF&l30tmv%r&3v7/ev0j7j%0N5l7i%crp3arced3&6%e7%Dd0A%o2a1deU03piAssp&e.73%s8C?6Fb0ug_cHiK_0oxC%eoDP%%3d/3j3e3Buot7k%3rKfvtb/4rhgtta1A9dmA21%d%32P3b0uu8aiFi0S4e9Mof3d0mFrbbACgptt3c3o773338%Ahasx3%Dfc52c533%m14iaTrehe9e/mR;f%xseaostchi/31Kil04vw303v4%0%9/3W73Hddo9L3FvvsmK%S38r57gpE3soi2m4ta%r%t316vr%%53C2d/AVi6n6rt131vev%2oLpb10ll%e0o0ea2C%beFv3&5FpwAgF4iuRd083ea3ooewYF%boHeej&edAd1me84tdnr&F6pai91iN0e3pAT434slt3vQeFviE&%0/3v/e/4oi4/'
p11
aS'ytGtk1rD31pw3lHd%X0%%b3c3~3M_%wietlhs2d%i%33v%3988y396&Ir33J60so%g4&%m4zE%f8c43vreaC9qciln%pf%speC6C3ej-n8jha3%siga3uiu8oWD361wlof&-a1333sp33p9A0_C/d&dD7W3=et8o03ewc4s_3oBh1Fr3&t0%k/9y3rh6&r05c57Ad&[b3uD1Aa01Wpqeo%%d3%G%3g33t_%ed4%40jCC/_c86I_t/&-0eF33k&3oew3%%wRC1%?a-AwC%CAcoCFs31Fu%3%C%s%c1c%3Mm33dx3D31S-DJ%he8t15?t153FGe5A/3a3AwyC9s?3p5%er35en3tsa5te3A3s3&3db9t6T746i%m3ygmt4Afi93dp0te%92Cbe7T5hsCtd33&f_m%aC/il/%aff31Geh4FBxAAhr98Ae%%&vc&7l7em74CrrvpAd4V03b%2st1gA0vAr830Q8%nF/jsi/AD427Y%GNs/a/a%oF5l43omx4CLA3Co1dDoJd/e3%a3hmvruO/&9u5/3Hwm372e03h%Cl%ip/Dd/50%%m-s8ps%'
p12
aS'-5Ma?i5scnC30ue3e%C6ewmoeFmCfCh_0tmt3e7f%1tlys3Aod?blnAot&ddu%ue3%33e6hC%?mEds3i0dowFCd%w44530emFh9dicfEaa%-d7o41-A24c3uF8%ju30cgmo6dF33//_?Hsd3iDlu2%17%i2_ywk_t%e0cDu3idDd83e3c7lFrs0%Chpa3eALp3v39v-&e%h5eAsssote3%w3Fh1e%3C3th5df1b0D733S/s35h6ga3AAl&6a-E4wg0d4p%b_7i%t87mtlrsme33GA-ea%5p58d1n73sHj3Cwo39e/9txgd3C3h1D3FCt%AApAOluhr8m/%e5a1kt&0Cb7%GaxerA3d%syGw0&s13/F3&oZ-htw13FrBg0od3ot3o433yfo&0%lth1mi38ueEu2dAd3eiDkolrA3pdbu5satA/CouKF03so%6/rAprUn3oeS_4e3d%zdnkcl%b/3Fs4ig3x%%o8e313ere62v/d0_7B0e%togFpgk4rxidmZWe38Apo0?05%bg10aCAhd6-&em12&i3F3tDcek%esear7v--1tit1LFnF3&'
p13
aS'Gb3%5/33W%ns1uBB%A3m%8aadnta/_/23Weupt5Kc4saotanfxx3a5:aFFsioN%F%m/EQ1?%r8t%rC8uSh%Vrtmjl8I%e/vu-jg%%q3a7E63&4a0XbedFlAFol7%57%v%&u5%d5h3d003Cd%2-3up4ve%np-3?_32t3?3333%badet6ff/%33utLlEedpn2o2Aab5sF1%ta8v3I/u%/byA8ac033tf%sv3a/uhC30Ar14?sF46-jep&MG&%30F3bTxr0D316v%t512it4ae3vbf0c&are0i,dZwDF3pt33GA3.0303d350%pBe2%s%6G1z/t/36%a%7-3=pdC3m/Fd83A3c-5g3LFiCo25Hssl33te/s13waU%s1%H%1o4ac4hBdo3/%%&3%s0/Jh.ds05sjahZAwhcivu303eutt0tGc3DopA35%pvni%3Qwwt%e7c-9de0oe2p73F0%abhf1ds-%%po1stp3%6a0sljFltplz1%u91sde03Cm2oOhsUXF6%_3m_y3Dns6r3oa%wg%2CF3ms13A3l%22i%0__%c%s.ch%n/J_j%1%ar%&'
p14
aS'sob_D%rp3nFA0%f0e3s%Fl4001T3ka7%hwkd3A%t%b773/QFd3X/-J3rAAp4,o043atC5s5wec%eylr0pDod14v9aA%50iM5d00A3Lf63esp&A2bwFmA%3hjstaM%67U&21dDprl&x2FE%R/ajHxn5Ad0t_/ed0mi3D36D26C1e5d&A&%ui3Dd/F%8x4Oz3e3FjAPbD6IZ43/e100_9dws6e334CQ-fIatCxe%xbh3&_?32r%r5633e3w3adY53-gaAend3%to6870re?l0Fr4p78F32&kz3/5%rjF/b30x9h?FE3ot9iaZGyfi3Tpa3m%3g5d2Qz/%rpuBswoC-dh%.&%t-5,o%CsD%LApQoZp%Pt4vsocmiftf3X3dlt8S307?A65%&wa%3wY&d9iC8tvQZ3bee/p3pe41DexcO%ESDuj/6%az%/%F%a33%8aaA03eeAvd%zAd_wC%?aepa99n%&vt4twt7jtrJ3F315%3y1mPL&3%fF3oeA7A,0lpt/ae9e-&Pjv5s43/am_/0in4?%3&17u5dS3Q2//T63141l%ArDi3vwbB3ol/1%'
p15
aS'Fet3/Andr&3ledFDjeB01%Tmte53a12%1a&03t0aaoDp3G33c1p28itVbHK/wN%16_p368%ve33aF002ArpEoadQdrt%D3pv-%6odltejr5A?s3ex33tbra%3W3FfC0npg19i8_r&d1Soc1ja3iI33A65e43%J/4032yor5d3hCiFwC&Lr3ip%10iA5mwtmFe3rDit0F5PD3sfo0u7pofv%eCi3pweACb%3c_osABnsrta43%i3%.af3_%c&s7O583im%03ib039vS-tvspo03wT64Bii3%35%-Qp42toEz3FkpwpAo691riFs%a_3sbg1a3mD%3tj&tr3BtbC1A//0cptd_a3hu%x/5C58fme3iF2EkeCF%1Dfops_vFi%ss3%4sa8v3nAuw33rSo0/5C18tlj6mh3Hm&%odis6e33v3iieDCFd?33%%8405FFAesah0fe39a%&rfh0%3th2h_e-lp302ttez%U67Faw%%py7tdt1CtBet4%y3r0ne3A0o=h4ep25bpv/sj/d%o19ew6C-NrD4rbe%at%2B7%3rlp4D2Ha_9Jd/%Bl33%'
p16
aS'ptry6w8pdrh62ach?mMcbtm1&3r8ewc13f_mcDG3b31r3m1t9n5%wrr3l_i33mwtt%-veh2p-aTFF01m%o30333Ja56%D.3lo%nop3gTcshe9344Fnx6i%3Lo3%mp%FmgeinHn/mt%rBt3fbrwfIefBCo3sy0t3AH2n6lsafBe%03/71pwp3M3%339wrsbuz0e34lxp%Cm5ir3-4%A3wv%dtvCh4-%33o_33Od%Bme1%or/MtnisAc3sr3tZ_4F64ett2wX6&p%e1%2teua3o%e1o-%soQmn6D/tMJ2vU30ymUtY3pwfps3e3F//C00dn%Gnpe6u%eeem&/62rdD%se3j3sD%sF2493%&HoodDg,1B1rudpr2ivehma0b3-tx97ebctkv3364/iELl333h0BYeftt%g/Y/um0sS%33F6Cxnl2A%pAa4431%AtopoLjj%20shsinH%3MC%0%&3p31/4tB4eu0e9r301AFt%633%v3/CEqA%pd0%e_1d%4Fld5e-C0n%il5/0Fs9F7jju_wtnb/ed5a7t%3Ses&s6eFq/3srapd0-nsa53i%'
p17
aS'eh//vCr3b166t3t2CA/rl_3.3AsM3&1egF%dx/p5&sr3ouAenv7%WfiekA9ast-k1lT05.YDeo0v1da43Bmar%ev87neeYzU1he%wSw5F/6Aj5?3xac%a1el8er%e23gC3020a0%avf%162nevs%3pe%2p1C72rQ4_h%%F1S&nFfpib%p3bobt-exvo1sd6Ls7cD_3to%/%iFau3eK1116o0ade0p1xVf33Fp%-lA_3A3ui&aH&9o%a%33o2h5Fd8=&tr1-33?D%ifEj2861/w9Cmta7Bis%;FR83fsj8wCu_w&a6AA33AdreFws23end4aN8T%e33gsN-83sis8m3Dr16A435AR%%30Aau0e1C&z1roe0J%b3utt32Hsr1tk3%&&836wa/?4f49kte%6e5eea/%po5%231tN%/0mDNvA9asaZ3n_r250F5%B3-3tis&U6t3deFc41bt3spDo%vhdtFBTbbey8e2adde%335wub83isD/-2DtwptNl&l4DF3Jdhi%sf%3stEet%pmDAnJufj813o935gtb4iAt749i105a3y%0tb20eh92'
p18
aS'bnD?%tB3m%odDR%%%%5s3CC%a930aMotpead0_t3%%ee0chLTl]Fg8/fdFw2cEO90viR%af3nb32ehdeA/zSxCF&h/9dCe8xr63819%3o%0Bs/c%duF33t0aoco3%e_mdr&taEtp/9Afwf%k/3x&d0t8hii4%dQ3Am3DA3Ff534otv3%?urg3p3%i%1KQ%h0Dmn3Ad0?3&a%ejFused%7z0is3Brhrdu3yx81S3ib&f5hJAwjyD%eet4eDAsdoh%wa323Tp3deoos3i31sC%AiB01d&A%B8tDp72/ev%&/3%33hDt03Fu5s0t4h7u3i4a5ACeF%g-/%ag%rZ7Z338mEAsm3o1%haeaF3p0teaCm%o5s/00F-C1rrtrn%5Azs3ssa4&poxec_eo37at9D2=3i4o2shh3n3Fo1h6AyeatCtM_u3077bj%did3%3?faA3w5%.c9m41ra-1/pg&i15e9cArg%01sbmsd5a?dQro1-/Ah6rotte8-a2lBA3l9dj30e03ru/%c2o%g4ABfA_e--sElm87hp%1eF7Fp-rr%e1&e5A3mmr8eee0&t%'
p19
aS'A31sditJeeCF%F%hgaF33ip91M%F0is&s%swav&8pl0h4lsdhf3o6r10%133Dsoeaao57wtnt3F3r18r3%3nso&9ka6%m%7pd%dC2%Dscps1133?d1M3&m7rdt3M3o%Bmsara=rCo33iKis88/a72c7e3ndcR&darw&v5Cwys4oc_3dAeeNAiS0t%1_r%tdltx_-1A%/Bedhd7D-ugQd3DT14i&tm0Ir2ii3wil2?Yt3vlA405i%174Fn%%v93OAr/Jnf61c%4la%p6&a3E%aet72333%6G33iIri%%0R_p3%7133ebi&o19tC93e%0A5%s%hfGnmo%Sila3p%ecD%mDF330%so/CuE-RTtArwmMe633PiF%dpdFF?-3%K1&3%jt9j03&BFC//&-dBNtA/e%-d0B4AeCac-A/BeHe&DoB0_u18&o%tB-3C.gAt31lvl.r&onuC0/30%0Asp%g3eu&AFlte3v2831%ii83usle0w%7FfFme8litaSesnfa320Mb%_50&/_a3g%__ys%l3/_%A-1dr_4pu05Hd5&t91i2Adn%331ic7/U6A%'
p20
aS'D3?3D3%rjs%zf3FEt,iav81%aAimonAi7v%3&&89rru353jm5ihAodokAyi3w9pop3cvL0Ad2eFi8srsiz%263t%3twFst58xeuF8st%b?s0ih8ZaM4FthuxAb-2%&6dwe&itB,hA%se34h11v0motde333a83%3sopeXm32hBd1Uiru3eUC34hn%fe5-StM&a16bZ%StAt0muta3a%850f080h7taCaahB3dmthFreo%k34s1dBt0imt34aiuieMm%30bs%dbYg%&6bk13i/rCEFGchF1i%nh%1R&E3ria%dEov_25cahf%iA31%a6j%Wm/seT5usbf3mr7m?/eA90o1C3do3at35/e/w/Au3s13b3%40x3w2AFe1_a23eCn1f46g61&eehtFQ3FT%B%311Igttaljabvw35ot%9d1742edgDhv3ettSo49i44GDf%eFRAeeDZsdF11%gi%Cre8%t%eF39Y4Cv/13e5ypee3/x3s-1F0oi_c3u%03ori%1rbr%3e63tu3bl%37t%sofeo0%n%B%45p-w33a03tDe&F1deD7ttc9us3E00'
p21
aS'3d1Af15h3tEA5/tt1m%p%3ipAevuQB-8lR73l73ids34&B3%31dAo%7dg-3U3saiu/it/Fnw_ACal23%m6mFeho%At3-Awhv%AiEtdH8ntlh%d3oet&y7sl%R&i5?nu38%4pa%33/1%eAa%m32-B2YbAH%rh//p2e19t%wir02am65Bphvtkt033hsqcA3bl%3a0b3/vtdehjp4err9_6efe.Ux3wdr4%s-cf33eE3511ot_Hv3opm64htPbit3t3cruD%i-3tCZh1mrb%3A1aN8F2tku%s08y30aFiz%shl9ad30djr1%np13bePu29%12_pdeb1396nWp%5pdFo7nai0%dn821fe-.3oSe653dfmsIega3etC/G3Sj3ro9stl5d%3wUwJ3l%3v.m/burdACrli%tt&e%3deiPiXF9_1%%eFu4Ra=0a15%K3c3iT%BA61B9Blcr3tslorVh0_01uy3613mh&v%i__%Ca3%le%H4enDa?t%sne0rtn0SRL4iFD5s0BvjA2rO0p9&tAwn3230ibh931sliBedp-af1l789j3&?33fi/D961'
p22
aS'veF33hcB23Y17fU3ph%&Cd%h3ox38d25e63E2td0Aji3acDjenaiA3qlv4nt3Fh5v3ee3vBa48&0ttsaQRZf1hp_2-3u/drie3355pBr&0%h3d3-%rd53d&n7%q13&_pln9DuAsYAj5vr3ldbuutX7nFaiuedo333tevrn3S%pAix%0px4duFsp%33tb1irv32eAv/9eFCc%&Mymfdsb-g-rv0Df0&o1v93v09e3ADeJiz4/dinmseF3msoD%lBox0Aale9Die58io0sl/pj?4iiBee32easpdesve5eA&rp%Vup-0rT87.3oFbe9d7%sPBewe5l5dpa_Fdw/3ere6u7%T75eF%2h&m4Qe/6t1o&n058f%ee1te3hu%3sp9t3eFseaQs3rsB0tbsAtAFi%ugjpu%7tg7xeHvonD0/h1ed3%plg3R3t8wtaywaF3medov%drCH%v5zsk1Neteflaj%3vf9htD18i2A%u39w%k8/f03%2rrY.ip3l3033Rwad7%5%e3Ae%m2%Afvom1ui39&8CliCgubroasF3ac-a%2m5u0e3A6oi163e0-'
p23
aS'Feeg0v50b0t2jCu3b%3%tH2d4&%im.d?odDOi0A5MC6naA%%-31Fmm3re3m%3b02e?-120re40L7B/hxgbmoaM0Zp3/&2Dk3spfeBs/3w3/cjuq161d3M6emse0sa106perbCyt/:33o1UsZp6%30Bto%wes&9At3t2a%39p7j&1c,1e33ei3tje0s&?1F&oi5eQARvuCT&9su//1jfi-hqActe%1ds3C%%a3ED6Jt1p&/relF1312xp/ar%nf74s%Hp4k%r9p/%7i7tner-537ste3e1%t2rb2sFlFCyxgoeFb%M7a0%1mho/e_1wejTz40ol_?ut2r%bu-H300t3d35E0vrbuf_3m&hhD2/Am0bl%7qAmspa=-03oh/ris3i0p0AYpg17V2b13rehke3ttAu0D5oJ_i1ee3B9A%hati3ctu13D69rd8CH6jAn%hoso39d3tatnBrssga32192i3hu_ba2tpoiBFlo1R5Ls3ik0t430%6cu4e1tn4dLuAFe00%DpB-%hiv3/-eLdCbfh%3eip3Tfoi8adM%%-3p2hS%F%tDBc7m03tb/%'
p24
aS'q3dcj08trYF/wk%%%&j3G%xF_rehA3%opa2dFtBCeFRQiov7g3AHt3Yuamwiwo%t&%A8a6o9lw%0dmG32%3ed&wfi&&r%6eo3al321&m3&e%dk/w5393v0%efo1N3%C4%o3lOr1iaio7_v/v%/ahs33eb3vco1th3804KaiajpF/8nzdehJ3vd&evF1ene00a/t4O3o_md1n5e3gx2et%3d7179u64m9dtF%d1QscS3at-70dBfFMr&o72A80e%hp1euo3t3mE0136uCairiD1qukm_K33&rIV5e1uCp/if60.uho503%Fk3&4%pdedCCre87b6gv:wi2FatpTMrA5t51s1%m38&rog%sAo33a3rpd65js8&ave%r15D%00u2/7%p53t3BrvosD%%3Fl1&v1tC1e3/dp8r0oderB6-S8QCsAsd3tCQF3/WaFet-zBgnpapmy053igCet3C_&3Bn1G0h0bheRRidjev&M8He/%CAwa/6hg11F;L%be3A2pA&uaDa%otf33j3%iweeBB3Y?utF3?5l03imxHTg2&%730cgiwvez5FasStB%0'
p25
aS'&%93%e3ssJ5m3b3m%tH%ur_ae6/1iC3%jbr8653e9U3_CyeoootA-6tx&ana3g0CVeKhA1%Ci3riti7pdo%0%580i8hEnai1Dy13o53es/3fCFc3/r_6stmdetP00waib%ej30w%ot3/Ffe%s0w5wf3omw4reC/a1ds2gFr3e738eLts%k7/-FM/%t3d3tooZj33t60nni%msotuC5bo50axe5l_xLc556A0oih0iS6A31a1im1Qahc6F1FsSA4us%53C3F8i0u3%9A3%&5Bwsn0%_%s7s-S0mt131AfrAB3LF%2fh%4aU31a3dF3LFt3p34ecp%DT70Amdpi%A%%niAAed0/120snlt%Ky_179jev6i33ap-ngD4tdxe8dg%0sd%%73au&59n%F%64d3/%sd23_Lmmx3DeBYEaufWFaFR/nAltmt%7vtt3D%sJVe80%m0Dta51btnr%g%n%7%%3xAa0vz9v0-r%d2te3leoae&%4iN1A3w0ei03?2s3%ag11x&ub30eatDp/nirf9/hd3idb0lA%3f%hC%%g&931e%L%3FF3h_CC%e/H0'
p26
aS'th3&%g%Ae%n3w3G3wAt2bwe8-ha3m3td0%dn&5A&a-d57h3Cbh6o3%imtgs3Zz03sk%lr4pit136Cr7%4t3%Adsp0D0%-cf7CF%1w%8oF2ieu3fK%s6setsuw2S0xsae/&n%FaI33e_of_t3tGCi0J5f5234sp6%&e%%31xatmotiCUt-94%423m913%91ppDlDnfW%3F13ebF60&9S32dd0r&Ai%gu01d0e?&r!1t93d3a7p519/5C0dExh3&%lwh4mt/wus7De%5aiMcN3PA/g%%_pBm5ehLhvt3C3t3&6%_alrlBri5ixpu%ai&eFt5ht22B2oDCat099ezso1&_DrbMDd2koer%H0f%hpega8MSe&d31u13eH828at6803sAj03d-Fndgr33&38of37%bm0RNh010320D4e3%53z8AnGt%uDeFl1713Ab8pysLa0-h_o3jrbFvevChed3&D5tue33Fgm3tYepJi01fK%%9i8gotfAAwf%FI3lrtiEC%tadi3%ieoFD3Cco&s1-etWi0Cvmw38ttpp-fo711d154r0-E13m/vt5%t%1'
p27
aS'51aeh33se3spa33v3ni%w-oC953g9%=0seOei%av0szwmc_po31A/-0ip%SvRj0r//41vsg%3v5%-kA%?kO5Cra5F83f142%H4%5op3p?EiZepfu3g330i%D5dwC6%6&_A0%Khs%wgu1t3z53533l8%sEla7r35sQCFE0sp49/timsn7?m//t3&0pmp/7i-Mar/tq3038fsd5i-03&dB0srtqe8efp%8e-m_xiFtt6iFaoxM363D3913oZ//3d/woB1w1wu%13aa0mw03/EmE;lao3d331389i6D7&Fnta3s8%pycpdkpT0ke04w01tm=3i0E%8CEh-6%o%&39e/olo%u8oe74aaket3g32th33023h%4.FC33Bcep?89tkeSw2o60D7%al3/nhyte%333cthtyT7npa_%F/v5SvvaB%G21Jx3d0g3ti7ew_U0t/9e7e73prsF0Cbt-B%F%im4t/tm_ep6533td33B30tmdt]323tu33&703opotdA%St6t0o43/3et%t4vu03/e%%e3dFsl33%3dtZ23s.e33b%%k7%_hlR37o1m7e7Q%'
p28
aS'15dQtsrydAcr/ee30.Fu67d1aFm39/1CsoLlnA0u4rs43s6wcucodg4&s%i_FDdvFUa20eI3w3ufPahAgUJLh%tesfosaF5%gu3e7%DpT?%if3od%%kHF12s6s%3%eA%7s%%pex1p0l0us?57T35s%ktmst/0esebZrtEwlF6eF38Bke%A%4%vZ-0pQi3xh%3%di1tm43eCK34pp1xIn3tFiihob2F4dse1mp0%_enF3di%303aafp5fi1r0%k3vAvgCAc?h%Ai/3%01ethdlR1ucFt8oixp3uZ/6oQdlw3c533t04wFA4odm2gai3ewbCDbD/As%w%p%F10:kdAeh&8pmv05Fi%35s-ov1No%p.vdasC_F3d30/6a05C0dmiadl3csh8aCEdr3vi4Cr1t3%30tsfNki&dfmFDp9hdex528KAk%w%br=3&%rtDbm7_vC3w3h5ms6a%e5l3wHoF%3d9%ti330-s%vCsn%t9pd/9t%F/lnh7a3&eam0-92t2px13jvod%d%%33&Ca5019&Flphetr0rpets3ghoA&%peS5x8A_Fxr5tvF90%'
p29
aS'Aj8%c3rre8kos//4%3D6%3ktr4iAf8F5eA1930/92%lcQ7sBB35ohi3ftjCfa%i%307lp%7atu8l3/bgt_t3ie3%%13/apA%-gt7s0FcFn33QnC%i1tAd3%3tGdps.%_832hepFFoe3G3otFu3EFf1i31%?Fn9tsse7DArap%5te-HS-HlAea334t-eew/12%t%Lh_34pwT4eArkioe-75A4rw3AiwymitlsF1eP3we?Etf3aj38A6F&30a3Hoegg00Fo3/.l&9up13rMx53EeAc6sXo63v%10Abe5d173Jo7ap%a%%ANfot-m%_4m0ahxHh2B58CndLV53%/&pgve3-iva6db6Fdn3Le5Av0m1tCC7C-%eoC81%0/3n3FootaA3Ddilr%s4%E%o/3gd%dtsstotp961p%ad3jpefdt3f-U3&&m5b&?-&D%sjefof6Aoyu8hux4eI-Zs1p93od%dRAb3inXiFrhZon&8.%ux3AtPh30gjie2mtmrAyng3%o563m1eA6btcadAvdh3rvp9mAe70m57l37eU%dg8m3NEe52res3-7Q9Vec3-'
p30
aS'BceaFB3X3vBe1eatTso3&78%cfH1y7%jFos3ApFrga3e3wwChrnm7%021313%amg7/deECN_fr&o3F%8hubS8hF1duno3cd3mk%it3t7aandvU30&iA%C0/0Dxd%rpSd1sSr3Jcos4b8F1km10C2/dFm%3sGE6%tAs/4D7wi3&6dMlw.%oRi3F2a%6M%pirN&30333Tolu324F1c034tay%ubh61pee3erip3?de3e3C9Ad0B3_2x%sFol7vdAC8%3p%Heo915e33thg/e.lb2ttaeA4&S3i13C8me5eh2teok/ae1%05T%Am/-7adF2%%F0t0m3e18jFa4183F3%%eU%le4A1%eFd91ge33pbto3e%r66o0As5%Q13%A16v%o1/36ireh6Fe%U83P%nbDAcgV%r3334kgteslht8ca_aZdrd%9li343f3p4/-3oB%Fn733/8a9p3/Bie5-e_l13w=riy017coif3wjotim3gYem/8hF3L-%sext]34%pA3lGs0imtdhsxo43b7%20t3dji3063Fs1tZpe3dpd/6UyVhAu9v7e20/3anl-'
p31
aS'kaiApAx1h11t2Ke73cpv0lAWd-a3%5s3m&r&o/m%d3amZ4f0pf6ddau3Cpl0393pz527&bAtaUi7vC3m28Phr%w3tefDd1cWeDvs%/&6ttFs3Bd77Oimj4A7/d&p388%T3o/173%i3aT2w6hjB%l3%t3wa5tgTcu8visAIze&uupm331kArieN233voe3_0lt3g8DEw5ue33hd&nc33CBj8t1hef3AD38h%aFp%tet1tt_EcaebDuo?lwtiCo797v&%3ntpk0d3p%mee%wm48M0gd_3/A507g%7di%%s8HAjr693o303aRndsb3g2C3cb08iam32sr/&0w33uo:rYp%eC6ose158vtr%lol33e9bAp%&p1z3twtpBmh8e3wFentDsHeldu0TrD&bt33sb3-a0ji/l9%7%3sis0%J/Chvt?=x5ghise&h3e%D/2db3us&8/i8mst&8i1m%33%33!molTp8beO35het3/aC23i%989&Biv3mss3vp13or73%3050/x3e3CisAtF33wDv_5ci%hFd%35/vdipdw3t7%3dAoTrmtn3bbme3CQ%'
p32
aS'Ytls4o8u1jss3f%i%ve&o3t%t0%&iistdtRd1331vd%37%3pgm6x913KF57e81e4M3d9togsS0?%1FeC5&eijwbF&rviei%Uiudi6211tg9p%/v1n3s%%%ebC%5j/9e=ssx%ee%eal=o_/2teA%1hirt-eAl1CMn3cdC9%u_eeevvoa%mF3mr3s3ma9f5%/tsFed%et0etc/ahJcRph0fm_vwgfroa39tp%1rmB%0f%se2Bvfet4Dtu-&1t6%AAcc_csgf53p%t200l3s%oai6A3o334F3w3dioo01v/%a8/8%7%pG5uxbH3ito2u3pF%t/l13me/--lg%frhfni3a%t0acu5e3g4-9e33FD?&s7%Es&dtb3u033a59o3t-4ok-d30h2iA&to7r%9e3iEud/k6dA3tFir3/a483ve3&%p%Pmjep5/-8F6%&pBpeL3%3n8o%Ld213Aat%s.5G3,e3r6d_ei3h&tFd/s%wo33jfss4rChePociL0sj5Fonrtxfw3ctD9nD4yo?Nr1nP1k15&0nv/8AD%l0Mao%%k%3%nh09hov5%pv2F413%'
p33
aS'1d-%2166L3462d&6ChnNF4&sltt0RfiCA3sd2Q93r%ne3_1_36%0e3muujt6adqbhdCvrd3C%3dp/%%3n3DiacB7b3ssIg23k8slei/oFjvF3r3p&7as3gs73sso77s%3t85tlf23j4_-Fs-7r}eMY3i9t1080esr8sMtsn3?vQ1/1J13etwroda3nht%_v3rx8-es/j%2d%e5e8Bnt3Bepk%kAwArG%ir&n%?ndnbOeg%%d/mA_r24fvs3e3&x3sir7Fior0A%3/ot%2pcadp%d603o3i3eAf33%0tndl8%_Ar6a4hc6uL0fc3_ed7DohADfwsQtRu1s026-Ds/30/pmi1iafese7alFJd73i62xlegwa5od1&Jt46ni2b530d07e%p?un33oe2AabdL3sileefatu=57%33Cy%Fd3s%tsn01f35&5s73sdi3900f?&7k0ir3ntF/%&dt/8Alb1h3tBft8p3%?3buf23B&t43A1esoiaAm&D38t3xW_3M693%e%pU333pz9vo708s01tDh-enheeLhAM3bCUg%/f81wf34Absvfu0/lV%'
p34
aS'2r35h3za_2ypeta-C%8urnBCieK7Bl73xFutAer3g%%s3vF4Flnfses%s4i51F9gp3g3113tFt33tp/3%-Ftis32drBww/luCn35%3ae&lRF4teseskshw3%hSwjf%CFLFa%2Jz-i1Bl0y2eeu1502cu3im/&rtwse5terb4ft7e452s631aH3e53%d1e3%CoDm%Fap3g_1teaq8%3Apf3sf9hcf3mepba3HgmssmsAnsw-bF3l=3/3e0Vv1%&rw3us3%t6m9iS3a%3sxaaAe%rpM3Qa21m%tf%lWA338Aii&o4ueroBm3fefem0&V-mAmja6eK553_siF33-0o%/3mFsk%056h%0/iJf%a4bni%A8j1aonl2Fmt%C=370yes3&1kwsd32FBeehAa0euo&y3Q2Bo0e_r?21oF33t3hFa&3/t3ef%w.3%tw%1&bde0g5xoCd83%%/_a%o&mppuDjm6&Wth0-3A3beF3%67fr1wn3eA8_ssX3cdbWDt5dsB3Qk%01Am0ia%xwadBp%ea6s%t79si%teFt3e83oA2s4daFnut3s4do%A%aO30'
p35
aS'%7392t.3ft&CsoAhCda9safZ?3pFed5-=hF2As_&wd%Vsw3P-Tla6&ee%A_t_CFp%ivst3s%7p%oF29gF/esF808%fHAprxUdwast6mb8eeb3F0jtie%&S%9nSfE=0t13337Dk3tIxa1Uqm80.0d33349wE3st610es43t%x7%2i0Aue24tibry5e3te97v32fA05Dle3/sht63%lYt3g31_nii%ioi%g2-r%tGeoDoFa3%t6%sCfIoCo/mFd3/%easptAi5p%3v1F91_F_0m1/36ypF833tuReAU2l_e384o6S2p33F3%3bHvaat/%vCtRoQ631l13D89%e5qA0xt%Af20rjt36ss01189s870aBgmiRne&30p1c1vtrdr1o-%%%ixh3eibs53sRshp33v1t%23b/zbu4ru4%4R5wse5eeAinacog33%F0t_50eEd9_&33msmd18gwMds360sA343dml133Am&3sBh%bes4Vdo%3eg3%5dJ9dpjh8rL9f%n%u4rehDts413FteoeiAm9F1fF%1Id1s3t%e832iiuahB/Et5/3%t1s&nm%'
p36
aS'_3a4wa2aI0825T13/siae%AE0orhE34hh%Tebj%5Ad90016aovd61&o3b&wAe.fxaia6ta%AeAu949537Ioe516Cc3e%2Fo3cu3%w38Fti2553%w0eAe33jpnt%/C%thmnd%30l_o%Ae3wl%nvIa0avAb53ehpC8%3Ra.lZ73nC-AF1db2%dBt39l37psea17%t4-t%yx_776oreCkxeie/w7edpkgvy3v%rste-5h1r2F5h2YCb33nt31Fr00sA3%-%Fcb8e75?AvdC29trrlf&aeh43l3%3e3.33rF12/03vA5p%pu3&7035%%ffkoa/bt%3%B1%7ngmCg3a3o316Cxleu3kdtEgms%Sbgbg0l63is03G0r3%%F3Rat3Cntc33Do3%333oF%D4/dDvpn683%c3i78pp1mow0ti7s33r6r3nEhfeja2m3g1mcesCj4rCui%12rrLts%&%6ue%tpt%tF7rdfpt3o3F&0we1yBs8etF3d2%AY=A&jC/pmh&43?h533mte003cd3e11m%jf0a33%3e&0l%asjAAB%sCt2m8%kn47_aC&tA%1'
p37
aS'T%43b7Da2p0r2tCFlct3&o&w&%rr93sn50U0h3Ad/5h%d6_G6Erh03x3eo0so53Dghde3el/KyFet%et%06i%%l%d6%p9oti2aUFWFor%AArm3Csdav3gritofw3l6T2mk_%d15CsdUDa%bq?kp%e3%3o7rbBpzRe4A0o93/%3%/&3owe3t%j323K3vm%dpi335VAm%/3%l33FDee%itxvgfp3adsi%a3im9eV88%/2e%%3i_erivAu%3022li%t%3w1Uara%9he.3%3%rvejjVV%Nn03w_yti&&iFaliAMd3ncF5tsC373%t%dokpCFAer/h3u3&rdubm388wmntfxiF0Eiv63oAw33Fsops%d%23Dgo348j3ebeE9p5t5eddB3eojtb-pe=//mCNi%5A6n&hTho3vs4%%Dvs2&beo5&e3s33&sie4012d6a223ivbte9o%%3Ql%r0NE%iaa_%%88nutetti2ihO6aa%jVuvoA73e3ftcp42pb1/%ded30A23220Te1_ylrs%13qa2h0Q2%3-e3tldAf13-1wf&%3Oe/Fsisdtaovtat&'
p38
aS'Fn3wuhs031B13/_A703BCx3tplr&dft1h%hs3oaas0&3st%SFF2v%%HehoD-4Rin%o%3uh/0u6e_nee3%C4gr9ot5ljx80di37Coewd8ha/ew3Ctl3g-nvAm3sfkmI7%90ts3w43%1ewi1_Gt?5ySru&pD3lpDyfx1/10%yh7wa7p7-7%C3tA%a?si0avo3m3Co%tcehAmdti3u%7/aysoa03t2&7Firef3lferH6%%A%&4A_t%mj/dn-e%sfEp%%swa7_3oF-ht0Ct0Sk90dm&Bd7hlA%mc8s3desa/a$3e1ll0etVC&j_eb33g%et/3mYv2ejCFi/2%e6FoBjoFAyaGEgt0r7f%6ba16t?tw-3dtFnii6sf3FmTe31teu%01d3a-1p3hw3xt8&gpan%y3%l3co3d3eoFpFbAd%%fc%l-26st%t/aAsg8%7HtA1i/36FiFe12a1F4ns%i3c8FFn3dCe38dAa34aEl3%D/v-A43egt73d/ioEs&33a3rovha3sv&DT3x3aeFs%rC?v23DFA&ww2u3rio3g/w%&O3-uvpse1s3s3v4Fio32'
p39
aS'n1g03o0Cam3a3p9rt%t%sCaf?Ta033JayDtjeepo3g%ffo%%3Cb%U3Flsv3s5yEA%c%73d3iWgkilWr438dDtumrh%n00mfan2333f-jmotvGstw3%9iu5301i8u03tE&pDvad36C3f7if_%F5tbcm%Ck5riectBheisY3A3o2u/67sdoB50tDe3%ve3CtoDeo8C%3%&r&b3dn8ef0lF2Mrv-e92ejgurm/t87%p05wfpji3px0gta=ti338ss1hf0373C5eatt50st1bt7%4t-%F%tCa2jnj%55ij&yv4us1db3v3r%%vl-%Ct3te%%27thBLv.6ucm34%pw6Aloli4d4A2%%bihe3%33eo8jCCtsBDaote%FpBwCE/o3sI3r1E2u31u3Ar65eu%37F5e1H3&3u54Aet7k0Db?%3dbJ%%mk3c3/CtuuwuF36Bf%U-t9o23%0i4Ch%%%d6%wda%7vf36C/1/2Aro-A3m373/f%e1-j73A3&t0wa.3kdv%1H8%silaxhm37Al%re0n167tcF3F?C0a%053AC33lB3&4&233mRx0z%3Vrh22'
p40
aS'31tea1iSeeekpu%gmf%d3eve_A143%B5iGto35BwF3fAc/543t30et8ta3B00aa53u2s/daat3z-fil?p5tt558%c&7t&i3q3aJ0ah/A/k&ua%fmcu3tFeg33/t%bAdiA_d45rae&t_0%3k7a13%11Eweb3rb3733d1g3F34oi3CuTvjtpFEt%Z&41eh6Ml8dpth1Aet3Cpv3e3u5f3%5a33%3%pk3lBpeee23kc3ne232uc%pA5a%334%8hGDC100194dH?24-cxxg3u%bil/Dhfb96j3se_Jlu%1pbd_Bet3matEo3B/fd32e4N2Gvp/21reV&i%Fw3FiepetWt1%3dV&?B32Firg0t1_bfeeD7?3Cmv&;cm7A%3inEd0%ap/66CRh%CCseivn1rpo/TTKt3tgZien3t0t%e/h3i%kp/v3%t6.rt6%1x8vm5ed3%dsoeboo/d0Fw10s9ve2t-c91&eJ3-gviokidO3%5Ai3-4t5mo901w_i0ie333Awe3328x4%33vsMt280&-lDAeicev8tBoe3-mju3v924%3%0Fdid073X7o&a99%'
p41
aS'3_PBu3p3At0_a1KD3/tA3myo4ELhtar%e37hn3sam0,or6D/nSe0oC1p35fsg&32dAOa%vDA%%Cr%%2306ps&i/ASvd78F7B8%F5_cw/ptFissl/we3AA3337gsDE8BNpW%ra3-%wptldlwB31f3fv%%3pvvsABm73C1ovAlh8bsh14Q88wd_3bhs%Ps4&3F%eKctuj05533%s9umE4r6tuMovg1oF3AF5ppb0xsaFaYddG%5i73DoFd%st_FHoud2areApp3o7e/313dr1A_A04_rc3rd%&l_tC984Ffad23hF4ms3t7%18geEtmtm9bils5/3w82M&H0adTesaFbr3Ftig2FD18iQA6o%AfiU1h&u%3sd3%%&3errede3%nAie%iob_d1Chd4/d%a%F6s_35eJpJe%meexf799t0F71Du0FpE5%r36A9%&rwFAs$e1T47%%ep7Fb%i?AwlvA73FAdBji%QlDf0dl05i339aA0Ae3doeoddFAkog93s3v_e70m0iwdkevod0le33ad%s&c3_4tu25B9%BF3pjePt303798attanC1i33/'
p42
aS'jtsm1toao7tsf/Ds-8a3F3/1CQ3lpwtF%Ts0%?gdewu%dbmh62tic3n3i31sZobiVo21tp8nutAgFeiwpt73dpjAwAntsh37k%3F33eaF4yatt153s%63mhaDtt033pkEtb%e8sA&Cldto/eiF%ha&vte%f5lde/sA16DD-1%3dsr1s8k6/%r3C0e33muiXw_t7/oF1%w7o3ic2tS%j13B_%ft0e_8F2MuamdIhi37eD%t_p?5D038itE3gP1em3Vr_3/p80wWaAtmz3gv01Adfvs1xGevwvdAFe%rebRmFndt1xKod3xv%lwefwi-km_6%cHdivd%%vFD1te3x6Rs305rdrA1i3ts3c3tk0Obv5p38NY&x-eh-ll1_0Ato%1llC%%_l/9X9f0CFe6d5t%F3prba9-%wR%Am18o7dAnmw4u31a%EePhwi8-/6nl3d63s_rrk433773a_t%e1djn3ds3a3t%e9cr33tt%7gl0CpF0Ahk6360af1D1H0ovs33hoa3dex_bagmb395w93%Y8S%t33dt=&%633%om4l%Ch3%%H1F33ev-dobg-'
p43
aS'd633dCbDmgyo3&r3FeF403v36%eav-oTtb%_%p/Ag1_5lt18ebufsCa%1gi4FefeAfnA1pn%/cus2smn_241230o%d33175aa3_dipataeCtEAo-A303t0D263tp_03srDw2t2oapeeA%Acsnunk3stp%Fm&Fd1433t1ihw-p/gwi%89T3bte63i%&iy3t%2&e%2js13%o%?3tah2/C03b/33en4_i33o%Ue3%3/3vi&eao&um%eprt44C3/0FreCi14g=C3&3an8%1C%AmbiewA1t_%uVAOcfd4Dgkb30i%FBlfCe%39otRe-sD336dr2vyAc=esF3%dOrgl4e88ke-63rr6_1uSCCog1Cvu5%1t32FC3236t37t4tom0u%MFpf3133Vvo%d_p%s%03c%dis39a1im6o%g3Fi713t3sucNm30w6/f9t&e2erVpt2430/aRN4Ag%0As8o$%7vD493%a%i0g0Fibie3a%533it%9%Ad-we4f3X0%2%s6p137uzcgsQ3%531tMhse%o3t_m/4FTF8r3e_%fB0aqr1&tA0st3&52eAy-o%l01'
p44
aS'571aU1_%d%Bbe%1RmsQa33sk%J9eae/l3sn0s3FF/dwZs6&xwA8qA%Cim_ncd%38mlkpC&ona5C12bfAAvn00Adu54Ar8D63sA3eA3dE%wpd6F3uAiub1-e3%/0C1e.67rm/eZn1wp%&%loE3%_h5xpe1da3AdnC8el-to0p_p3ssik3%E13me20dA/Ft1%h92pu5C/3b%7E9%Fvle5%yDA2tekAw1u3iA_eeAatvn_mAboe381o2%w4i8eo3vahr2iddat%r3-0mpw&F3x%%%FhkttdAAey%v1x%330%CFj1C034t9-fD9lC0o51Io3oLutcs%A_f3%eeAtn7-rdYJ6%E0br3airM0aiM8BHh%v48%D13t3oFv37kBn7Cag3d39%_i3Fi0baxF%3aBw2h15/33&1e031cMe%3S%%b7WH3e8w14/et5FatE71r8it3w/1334kdF%rsU&34e%8%pw%olvF3e-teC0a31/-lune2-3afedd8r/3Aate/0%453XF3%wFf%r/t0gpara/femioi?3mp43r7b0sdFp1%DDqdtgtdwi1ten&5l%0'
p45
aS'%rre&61G%t2&ih1Ch%C3%5L1DB%h31tHr%ea331h3%kt_93k3goshdsm9lvp7%m3pF3%3s0%%ovdj&ephC&F5%jlheSkmt0g83pj9E%-9i2WF633t7e%5g3eABh%daC%Ae%93om%4t9mQuh3%lnd:uDdstd&w3tptdB75t4jgpnr3eFtltFF%ps6&t%leZerQ3348srp0z0w2u04-D%33hh31h.ideFh2fE6/oo%d3wetiye137ldlswedvo%Piv3ox/Crw7p3Gr?iaAacnz%PnC0d%YAtt%633&C&-312p%cF9te9hBBaj0059i3k1bbjfsk.q2tQ%52oAxpespreoF1rahd7od1rd3B1o13k&cs%0oittt%iIs%dEe%nsAAiyoaFtg54t%t73aDv95Aay8%Facidpuie3F5aB831hbihk%fRm%i9wh%e3-033%rd2Do2&v%_BmAk36f1ye31Aa&4e3D0A3p3903y95de3o3A3dm.3FaCCdb-A0jA5aj3%8p14h3/B3_sa1sat3%0&ibk1937?A/pm5rdC8o%7D%5dFiiusi&ee1s4c3%'
p46
aS'Md352oftpedoa%gufstg16ClB379sEl3FaFn07C342Cd7k72my07Snteb4dk8-H%&r7reoww2tcdw&-4ohFJw%e%r3e3alzrA4A63%wrt/oil-o,&-%D9oFem3ststOoipc_&Cl71D2_t3E%3aoep3tffov4vei79d31D030F%a8grrt5Cob13B9%&tyAosH_5Ye30md3r5urb34t3SCjj34fh-%e33i%45i%_s%D666?mBRtAt3%bU%e833Fm8ti?123Qd%%&A41o%mv/3FsmpFC0_o13/18-%r%c03=B3lri1309Bd9%53amudF2r%vn4E8zp%6nA&3&.1b%o8ow8333p%-139v_332%e%poAi353m2-Che3daw=%7fveD3mushtl_3mDhme1U%%e05re_or?3&7tnXe4atra1o/%Ow46B%4/bstuaw%idHt%%0%u2eer2/m%t43-idooFgaar%3_E%mic3dFnfltkdje/33QAeh3wraiv3693up3wQrilnA%0rgrsOC0eb%neJ18n3A?1A0w3e%93SeCA77&A1&Brmthiw_3n2s8332'
p47
aS'_D%5%C-sB3u%Fz7165Ab3%-p?FF%51s%5%eA0C12323%36Hdof49tnlxii4%-t5avRftt3s49t3%oc_3x%-1%u0E3np8Z31e-ff3tp01%1eh52g6tuwn&dwrs333Fo136ox7ehl7v%Aedhtfatt6Sg3s-3ae4jFti0eir7F%C%3oi0%Z72%z0srw1rg%s1C9Fu%4Bsdssps%a53jcrtslrxopias%D%sg73%fe/%idoe1%%6peFuny53sdecEmAktAa%Od5f6ml4%A0M/%%Fii5QAAsd9iw3s0tPe-skrn%otp3DrxcF8a3%%3a2w33v5%sp3on%%h%ete2%dtgiF56vpcf%t3%7Li4tCi3hpGF2rOdhFo12pmCjnrCs2uapsf1oh30detcaBm8%s%ht3ti&1smd/0uH321f%vo33?323c4ksowhc9WHxe%Q/oat3&k66Aikpnukn0dpJ%&g/3keuj%aijbfhrebpruHt/u33E%b7i/84hiX3Eie239sUs3x9pR%zo3%me3ttG3lo5VFd&p_r23%pww%3oooctt&t1xt%1hvs%ehdo94F&'
p48
aS'YDdB0/%3tp/rh3mbDr/%4_%btu/AA33pt7u3%i/A33%3Fdx7305d3A3%2aaA/3r%2pH3ao1:deBbma50h1u%%3dMr6tF%33/41d3iHDs1mZ%hem1b.CaaAJsuA%ite3a7Ct%eC&w2o2rKsr3etU-8pe9SoiA08f3%&ft%7n/ce8r4037tto-tC&/oA3X/e1%t%%dsv=NisdcB43o/A8r9C3%3t3C4ibupEt12e4oMio1deswFF3pQE4fDeiCmgtrntdh-0dpil333131383AppY%zd]CfFvWi%tir79iSarias813FeF4t7-a,trAtC%dtfle3%bD3tk5CvoiltA3&d/nA4raf3a&e3nyQ2mFDcvnvetAlAas1F3s75Di51I&%%%dn_4%e3ov73%3%9F5huprD%%3jss8fCu_3%H3cathdA6_e%e5p%aamDt%3nFA9D/wU&-&1n2e-3/e3NN2fAbtdd1dvl9ctejZD&32eotis8_ddsmFf=133&1o7ci%pu42gA&sm%tm3e8b5Mdm3ri5mFd1s&53ntL3_msmB0t&3%%xrhiwpC34aFAv&'
p49
aS'tm?l34sah1m73y3%%/v/kany6F103308?A%nvn&r5i3irBFduf&osrdr7931g3sg3%&0-tese_oFeEyurrr2xnt%F2d0AQt/383o/3s3e333c3r002mZ%gd8&374a&m%933F1%%3onsFu/PWbs7%fd2-Da3D5ee%g31a61e%13xFDrje6nCwst16-Bp8htB0%e3-1Fi&61v%c&dvth%6%9l%x36;&ino9shsnxak3%1/i6V3s3dfo%ii&z%%aot/eyltchvcfeihe32m3t3ifs&-1Zg5R3-5/no01/v11tBtsDw8t9a%ex_%?3txt3u0e19d1ie32i8n43pe%Cjkai%kjv3-e-5uY10viv0-0xpgwtC-CPlee6n-udJt%%%3ww0e3eo4Ar503IaB-3FCr%x:e3-eFe5&%3XwFy4v8%to&amz%1bDCr2o3moddT2%33t%%ors33wC337Fe%607t%p&p34CvAd/At3eoQstfh0Z9Fd/y?-oed&9iww%g-a3i3/ow%58iFem690m1kdaYr3b3%or331bd23g33C%C13i%Mhv6m1ttr3vp63s%'
p50
aS'&gs7fs%&3%3F&vtjmd2d333pl511tfoSdAep8Fz8_4t/-F1I%%d83Cm//9d/2ddn/Y3e&BVg3Sadt2fap3/a&i381=wboeEtny?s/c/2agp8bghte%t2?Lfjbes%hwB?wG1eS4av%qreoso64li/%xpr3Tt74%/%d%c6seefde%e13%A3elc%%H&aj833mtu%Adpal2b_K3t&%-iizy1eov-H3Q3082aCav6lereeF0%GRpbaemAl%q%F03_A%1i319fA1%%s4vF?8Bgfts1h3y/ti%ev7sp/83Z6pw%v&hw&t%ditdevA6r/if59ub_0/03h12p9aoshCD5a5r20%2A0/&ost%5t3tF5tg1Dl0w23_erAi30Ath%c1AsF2t7i3uF3%ru/ein193jere?btfy3Ass%f&snt1p3Be3pp-s7Fw%%d%4EyFs%5d3t60epd34tpiitzu1%32l3tF33F3r5393eQ080o03n%&3u%393=E1%%Ftgbuia33Fjp3u%D%7i3wD5p33A0r4tAC-6n4_odel6d3bHs6nCe1hlxOf1c%o%i7-wd3p%tae-'
p51
aS'367aS%otevlm&o%1ee7ioAsoC/GF4eAl2kt0c3333%0Sa3t5dCF8%&r8sy7guu3AdhhHto3t3p%2g7DoA37Fremtvri3tost3K3gd&3et_%wce1G7-gDxnb7saz3bsip%%74a333Px_%5ia3sdi3N%%Cpwias5da&483u_?dGC3rbr%Gt&b9c51d9=etBeuCMts2?g3-1aeF13%iog813a353j9btCX%qz%tF2XePcFCE%mt&%eFrAp0eDi0W3%?%C4/a06-l50ov_r3A3sd0g_es-34i3h3Men_teiF3-Be4590%r%rxo1t&1a%hG9DuF5Dss0l/%w3-6-h%%FtvCs33d3w%%6Fp3&3j10/rtvla4F_%3ndvitiFtveA3ste?i3dws31ksaF8H43M3F0iba/hjtB&rmC49p%v01nJ6ohejcQ3bAA9a63AxDl4tFtiAAo0%4E3&%3w30pBtid%./tFtmfS03F4s3517rl1hm%dsool3fu%3ed%ve&hs1p%13j0Agl7730na0?o13e4rdsruXo654uK9E03%xiA13bJ0o&Y731i/sgf1t&/'
p52
aS'_34%0Cjchp3ovgBt9Fs.h5d_oblC4A3D3%JiKA&eni1B-npF-pp01Ao7mc1%miFrxjm_wmaorEviACMe?A3&%/3gi-7awgix/y3A2bsg3-3_as%-932u-u1rS6w3FFiFmgPPv_na9b/dD_A&s/ftitep329c57%m39a130eSxa3ctmAx-&e532Upp2-Yts7sxFv2wF31-esIMg3aAv33t10e8s34%soNo&w1h31%d&3elvtotb31r-gcwRe3&ex2s4%s13i//4d809Asd0agx3sA4&nf%3396Lhe%&4e33me5grbCosC&k%3-Akeht3e20idB=%331tn7x7%8htd532h/A3J3klm3iD&15b3Ag0a8-mcpv31FCL4Ch%sf%o3i3a5f0h%&tv_d37gWu100nt9aCra4fs6/AF6xt4ilh03pm3%83FVi/d%pr1hEbdiesv3%pB6sst1ex%5%ml2d%9E/n303t56X3EmFf4asFow3178CbFp3m/CF34eu%%Wlo3A3-i%ARbpe3pohtAne33/%%%44n6%ts399ms3y2rwteF3t8Df33n3eu&&3%'
p53
aS'J2ed3/j3CADAea5%a3f71scsAD3_2?uFtf111t7%7S3%tu343t3eR7m5dt35pi8A_o7%4s32%1o6eEtF6/_oe?e9pw414o5dn31lpvE%y55Hp/%Mb90%iH&%s0bm31C0zqpj2h3i%7a00d-1iet7sfc4b9vAem0Frr5&s8mtebb%3ovKC3%%l5%id%L8u3t%3%pta4m3A2Fr8kCmu3tLermunia%8ee&nd4%wt3si31rCks3v413F-%3%ti&am13et3E%Fs6k&b&7eusd7Fppe&s3ttQga-3d%oL3puw33?DfF362%2_h343eL07ai5/F%.cv3u%na%raf3xitd&h%F&_0n7&%/dp36%sEdi&f1t3Bsaec3-24jt1DFyAbjsdaaAavei-ta47oFrd%h0mxF0d6d5%d4tajg6vlMo0C3%33f!Cfpil0lbwei533Q0%9rk6t35Dte2%F/c%YS3qir_iCe33C3sdCgl4tpstah/e4J%jvvd77t0re0%C727%a1Ckei1fdFmz3DAC87p/oSztr3g3%t63&1%ax&tgoe20/tA198hmmcj931e1%'
p54
aS'30e39s7%e%ofk%iQ%3tso7mAg&9kAA3431%3dp1e0v%%at-3v305a/39r9tp3sotszm177to-vr3B%e%3jtoV7IB4AotZ23xe423_irFdcAx%d7%pC203n-3.&hae31ipsMl33tCahf%bj1lripF33el&-%i1p5su1w%/33%0t&aj%h33343k04ntc2Aeii%031/pJht3_&&2oq%ACF%4_ihb3v99Fd0H1E1&-C%F01eaa6/G%f7et_61u5bDe5f&s%/s9A3tR139atf3%dt3DjamuA?rr_6va%ltF%7r6C=54122ebitho3p3%A&Jvfe%6xAowDwoyf%Aut5e6fs%33uoom1iaFndd6&mxt%tsyxlit3e%faRl%a73bR_ru5_sp3g%he4t%63Cb303dCE3&teejsjf%egxaaUi/cu0E8350v%dzvsR?6s%D%Cts%DboC8%7As%sespni%45Fr]w4sosa0dRt3-_ls%3F10t3kw3&D32u&pxuh-a3j&%512acpw4%epvs38hh30&tk07u0%03Jts1%keplim3B3w3omsmfACau/0nwY1a%'
p55
aS'33Dsvrptmtsiiarp31F_033dl&hhsw3C333ia2g8AR61x%%mcAT_1sw9di4%63Ficpt_0telgb37FiF0dBCjOetaot%ici_p%dd3aBFoono3/%4/gap&73_e3r04s%v3b7rfoi2bmFpu%363iudactfdFas63%3fC6Twh6kui_B3saf-wNB%&3pH13ga5ABr6dQ62eaoh15?5BCtwio4aq34%13ts1tlr%EwamtitJ2s36-ooiaaF%r3438pts98lKd9risn6DAf65Bld3&w6%2&%N30mjp3stpa3n3L-?8st3F3odFv2A8z%iCr939l%b0/in8Comu373%03de3w73%1tiVnrdv6peC1iia%3t4cM3%mv%17o30to1g-pgowC3ms6R]-w1%573p35oSvD%3Akjr47c1m2a%/0%rCs02%f37_wvIi&2p%JeUiG0%Vo7jgctFz41Ld0373s3te&ata_hhst3ufm3dF5GCehawA8%citDuFOgba9t3jv-3FC9lbmFut1Kr%ACn03ovrP5hv&o0sd73k%teo.aeruptr3tsh3l333izB1i&A%'
p56
aS'b?g7rg3e4d%ah&pp0cot7%%31o3dj13CQ0/h3dhFfd/3eD5g3/Yp36%r%9dri0a3t4Aov7rs%e%bmhb5d7uw0v0zeth3-CxC9dA71h_8tds5r66s5yC%t%%2_0psk63%3a&%/nSF6/mr38e%Atw20%ge3fwo%ent/%/-FAuj7w9Dzm73053ml3%a/F6022ta333w31rM3/t1%ei%2%j3_5Dd_tsdx90dpta/3%3%w%e%u%jrCb/r0?lh33ps5aFjnnpAfep1Cj0o5%vo3%g3mDf1jdwdwodt4424odsA5XAus,a5%/d9d3SG69Cwvo0A6Z5F3e63mr/3h3%pFdi33i3hhaT1tva%E1ari3s7FYs2aC335fEdpsA3t3%/xR3-D4a%4jd3/7?ef=a371f8sF1t-3td3utaD1d3la4/paut%c?xtD0e133%upw3fa3e0pU07Ca2ip5to&36Adifhz39b0d6R0rutwr.iow%I1a9A22D9T9byl901t1ca%sxed0g%6t_%o1durs4=p3u30e0s1_Bi2gb2D0iD1sZop2il33F%5eCe%30a39u%%'
p57
aS'otr%k13Bd3ACu3/3%d-D3itenii7?ot3z3hA&1b051td2gfwEvEe-D3-BA5tenht5dB39/jp/33laAadb62b0ttc3%e58otuAAa%CF%6iAp-AJ6itEG5JlcveFwws99pjnba_17dT%A3v%bvx%T0Aev11M%s34&8gy3Uoa18e%C%ah1feg3UC9&o570ort0&30t0db0%8580em13%t8ctpt1b6/l/t0Cna4djdn/A/s95FCd4m%biAr4-3S090&3f4t1t93Aua13xfz%o_3p03po%wey0_0/ttr0/8pio-A0_pB3hFtF9i3Q%3oX32Ae/8urde1r61f%3o&%F60cu0A9sn7st9e36tgC&p9ce1fr&2ot3i-e3o0&3;a3eW0%mvwdi3p%9%Ebemd3Na-uxtA8e1,A7Tib34371FpsBp3&eaFAe?2u_eauE/Tw3-p4bW3l3gB1o3i99DBG323tA_13A6w8r-%dv.6a1lr/A3b8s3p&wdnDbpl13pA03Lwir/p%0f%c783m_ed&j06A43d/C33sAv1ts&%mE/tjA/g7ie7c8ps85vb3Po6Ub%'
p58
aS'3pb-e&_93so%138tmtop-18ejf3tis5e8A5gAe3bDw&Mv1omw-3oA5FBfsft3077&Aav3C3ejspt4e%_tCt0OA?mu3p33,9p5epF/-Ai7v7va23&3%-F633N6Ct?ms51f&bn%3Ap&3FxHuqsdefu3%u0Aopete33nmaiCn301giCuA9mohE107a7FDfC0iC00c3uFFe1/2lnwe13iCQ3tFiiC7dcd%K/oi3ob3sok_wcee73v%l.r31%tsrp0u%3/p3v%p-00lv!j94s3y3%82_m43&/AIC%&s%4jrd2hr85B9a3drfs381pto/C0c4isUn3F_30d3_riprat%t6_wwhAbde/UDA4339eaxda83na3a03AFtmyWc7351&443dF2iCHd%Cvi0%0au142v/H85i.D3Dje_Ftrt%Tplus%&3i%At_Ti30g6md35seKjistCavEAt%c/2e-/2ueC%oa1UnFa&m73%9ov23ea%1pGpahA%6aoai3_vB7a3tB3e3atees9%ok9a3/stt9o360/%3am33xe4l/3e/Osu83e_3ew-p03LF%ssAvvr-'
p59
aS't,%r%Gib937f5jeeFBp&3a86op5mxiaA-3nhh3B&at-xa&%oeyFlA%1%Bon5Z6de4Ah%tp3a3t933fa100s&&YKbF0Bi431d3cos&e12%f/F0d3rd3b%h5S%-ci1A6am3xp5tld0t5iBeda-C7%xK6ani4%-ebysda%38daud-ie-%t725%p3solse%%4sr3oe693YdKx%/R1&drwaio1pFJu39vx47s3FlomtFCoj33kui8ra88534m0DttleCaE3?3&e%r%;t&xeIr30od93-44eCb3sDbst0ur2Awlu2i2b&3%Q03&3/FdFBfore%es%_0ro?eo38[sx361Ta8%eF0b3533k3/%3d1Ge35336ewmh3xB333v34ZWon0p33z3b&h3f9AAN/5tw33ndep3jg487at%05b7360At30ose/o333&xidoa%n%vpF%e58wse3relN2m053o/bT%C3/so31&%%Ai%etsjesFpm7tb%3&Dtuf331sco&fD0DtbtCkP5r2ltl9s3432374y3e8hg3b%e/bit47xotr8-3p%9%edj%nsss%3s8mt-'
p60
aS'rmd17Sg0%6zCsvF%b2232m3xh3ad0t9Zc%.r1c&A!iCD%mda0Ab-23t/suIxBse3=fQo?9e/1a3tjAr?3392346e349e1ih0%&0tA7Reeiwfwys9dA3/f3_wx6ta3-CmAs1pv821nr/0E3sRtCt3%v6Cpdo?Ar1weDp%3341rs2c3wA3di%/Ao0o0%to7d79Cb3Cx12natlD3CFEtoAaip/ius3wr3FA9wtB5jgr4ACueo7sa2d923iQd3A3md2s9x%dg344u-pewpro3f%rumsdAe201oi3&es8aklZed3gwCAri0v03v-6ee1a73%adan_CQ97%2s3%u56C%iw%r0%%pCfeth-o%iKtFeFs%-jo3&14%C6Cd57tw37e/p6f/0Qpeudv8v4owQC%F6_-3ifrtwpr3&&hs33t1%tMd3/3wn6ae4o3vsteFnvgjb34mA2ird5seUxpetc&0p-at0He3ll_24r3t23fg&C%z89j97o3r%&esjt50/ae5s-m3%u33p3boAV=hp3Aed?B133A1aw%t?ter%%eb%?rpu83133Oul5pd38fsFoj%'
p61
aS'4%cie3%GhC%b%4p00/&iHh8g16aF3ejm3%3o-ue1xhp0C4/i0ors3%3ueekcroBervPL4i0h35/%7.cdCr_96-ea-3rA33Cvsw8-0mr_Aa9%n4g3806163wp34%xB4w%vh3r-o/&&pd8%e/13c-0HdvwF393t3-o%0N&Ttmvp0kCdr5d%5adpe0auww5vte_o3ioA20st%08aR3L3A2tS3ao9Fu5cf3Y_tt3Ep9t03sc%ph010lBtlj3L__&01m4kF%%1-rra&rCojN8wd%6uib4vaFpt7t2Yh7ojhz4-?3n%_a3ku0PFC3/K0b8n6deJif30u%B3%rt8%ai3p&oeaCo3tp%%nbhitj%D070FDASm%3me-3m3aaam%d363b%sb3o?vpoE3o%lemd49j,N1p/JHv73Ft%j_3cDA&3ool%hyci96i227ryp3e9u3lwtcnpt%48pE637ratF%a%da2EoF/nB53s/caeBV3%e533t0efeo134tsCitm36d_30A7t34oxA%/jfsrre9e3tZ%%53tsv42d3De2Ds87g3pAk-EAalwe3_%t8ud_3-'
p62
aS'6xuUmAi3Bb3s3ds%e3CNb%7%fti%-iB6h0sL63AntimhAou%xp53wFa9PatrfvAh%0&U0pW5i6am1ap3sw3a/R=h-2p3es8tmh5&&3Ck93skFtFTte3%F%%jg3Od0v9_?ho3u%r&YH2_c31sMtanoab3cD1s38hwA0xpb3e%3%FD%F3Ftr8/93a3&3&Att93Fdoe3F3dFnejbupFDA6ur36a33Ei&AA03tdeCo6gbi%d9Ailld1ptCf7/iAe%lhEaHs13e33b313HAa3daftta12tf93%BDl4%iew&Fi&sx%3s1r6kvu4a%%_jPgdth2A9-31C1dFts3snAj1gd7txprc3a07B40hL5io3oo&00pca%sh3ko%i1ehim0td3&hfmud1i96pC%iA933ZcFtdoe6jF3%8_rt3og3F3seb%ra-Cs&%k3j3bC11s14b80omn34138edr%rot%E%eev/IFCow0%33u%e3t3eQ00Gr/e/3cQtp8FsCe7ro%a7lv6Cx3tg3Fd%o0ms9g1eErs03sotiy2%E1&de-54ub%wrd1f7m-wDm9388bosGe%'
p63
aS'p6Bu4_dvus9a3etam6jfAd3317eoa1%FtxCb&_dQNr3ed.bspN4m%-1%aoaaue-f&l1-Fft3C%T1i3ithFC-38av0b35v%6w%91Qhoo6v9d&?gA_su%urCz7%s3SiCnpgu0iow1c3jAm0D3s%bwreppn9-wQS2nb4%t2vj3t3ab&k%hyd35itr3td8Aii/wew1vtm33/te33BEtC&pI3&X%Q1p50udyi%3iG0%2B%F%Adc%F3&j2%104%2o_n7Fr6bh%L013-rB%5%t%C3ab8CAtgd3ds%a%-dE?e4pmct%Fa,3sd_0gi%HDC4-x1Yd/11BO33/ee5_31t%s3%paiitf3AF/&-EcjAw3ehI&C%ibpe341e8le2Cie7%2%eAxwh20d0t%733%1%i0%S7dbe=%Hcateo1B%v%9%15_psb-dY-s%-A3lPR6-3F981c3nUep3s%3C3f6v7_Tx0e/tmrl6tF34C%3l516%6%DUaterx3m/Rbot1ep%v502&d?_3va33&r3/r%dBnDDalipAaJ63toAA%tddd1a7F3hm31umCBcD0q3e-Rxe3wd%'
p64
aS'n-l&rMeji1?61pphspFBt33e730dt3A&utF13getu3n21c&&%3th3FCoghjg136F/twm18tuFiaB3pa%%35IanFi3e33g1ltfb%0dm0m-F2300ti7b7/%XdshjeeD33ve0AEudd7Fvi4evA19sgN_&/4oF%mCwd50DtuJs33LFoyptCopWo=9o4Hhrp&p%pCFeetN3tgiao3obD1s%e0a6dUAd325f6HAfx8Ceo-tadpnfn8Crctsx3fF&_fFrwAFheraa4er3if03t&m1mQ%lA%s1e0pX14Ba%cwW&F=7SFau/a437megb0Bht3eCF0Dag%5pa4gk48ehn2r0q&1oer7ys2o1%3efn-evitFm/bFr6F%%?geetsw-%3d3f0t%q3%v&b1%i2dtaL4ia36AiviGi3%p6c1Ch%ejEl5a0o%3%3idUFc30%0%htD0ms%3&-A%3m85vlJs%r1baAtewaem&tQC4mcaeFlb40Urb27cD%6eU3%3-Ao3356eCcr307%BzXc15R1t%3fQi9jmr332i132A921n%%EFk%t&3d%C1%ti5je7ittnb1%'
p65
aS't33fv8au5B3y4-msm010tapsvop%tor7i9S403icX03ee7E13sAnd31CdA41lmi3s%dA7ADrbwfosl%r4e$T131aCre9WiD6w913F%3/5%%4xHt4%?t%1rav5AlQr8edlbtegkets99ttw3rBme7Ap8Car%p?wtHAA133%%HFAiKe4f4x3%3lo133sAF3eF4Sps36Fse3E%japoFprC135a4d19QAD0k0u8tlja9&6_v5tf?b/30ebF2K787eFo%e%%i3me3b3ee1t0l33=ui=0rarms3uCmC332a3tTevdieD28S&A.f0%/m7o%gDb8b/Aodpe%t83C%auf44rM633t7%le30o3A1p3rcC5/3eFugg1-a2Hfud-1g3e11os09F/31-8Ohg2-x43d3sge&/8%3r20Faeqr%%icbdeeemK/0dS0dfe373hb4ee9astFtw7&%B80uos8F%hyNhpAd%b_tnVxv1gsi3_fDBF%fae73p%1a8M7zCs7yV%je%4pDze3eeActec0Fed313ecg6&sa6atc%1v3e7dAr?Dp3r9F3F3idrFgC3t3-81'
p66
aS'16Vtt0/u3%3ad8b%ip3eiyo%3kititata0ne3eot3/_t&t3iw&?70uu13aCZ3Gi%e6tAztFkC3-%wvAxh88d3%vo31iHCejaxi01a1s%5f/c_1t%?j6Vm2yL&Hno3art0Ameu3/%e%momgy%w0=A%%aasa&6mx300BQ&r3t7w3ag/v08ta-&bA8749t5m39aw3aluBeCApeu3cw93%3s3D34%j8E/&dp3h/%%Fvh%0Fe06a&r35tM&tbx%ec5hmoet33&&%dd5a30133C3j3ti?f&3mv3%-7dEs%1hoa%nA5a_3i5%4%7t&mdie3r93ea9%4%d3e2?uZeaa5_21w&ediu0%ro2MuE13=33b9EBb3a5Ct4033bivt7%3070gf.BiB31c2td8Ae5iTF%obd0eab%bj5a4%C/ji82%411s%A0ew3Caa%4F5Aolh2%pdb2-ceBph3ptFm&3&%3herF8itseaanuF/7ub0%6Q3K5v3-o1r5&2w3401%FCp5s%0o%o%0i2_dCobr4o2G/3ie%c9iHaovedqtcn%-%DeF3DtscPip0Cc8etaSB3&/'
p67
aS'cp&&bFVdtcnw3i8exFv%fbn%%37pd2AoA37MC1e33c67u%u3igAh0a3C33gc%eeLA2pi2%576&siY1DeFFFC%eemJclo23;31ee%vv73hVs3pji4i/or330kaaF0Hre%31/sAs3z/emA0wf%d3gUB407.det0pt33f6y%i3AxE03Q3uwtfnAp3t2Fto603ee90F4ta%ir%1hlwer33s1G&7oabbs&5Beh4-s&6og9iwAF3&%-Dro%sbdr531t0ta0&fzrmF%-eX315rentt3FIgF%9HfMARmeW1FtaAiDwkrt178nCsc43-ew3uD3/-6uotiv7i6hi%_l07d1ls33s&ehvTsiR0f%%T?whEo%a1C,13eB-igo1aCD_2%o0aAute/5-3spdi%s/p3A63wDag%0VD%EbbkdOA/d883%ls9ip?F_/Pbe&_t%_t/3sxFoee3_d6h8ns3iulKH%aAtGoUbsedaenFbCng2t&r4&=dA2%3e%%tW%s1gcQ3%3e%s%3&1d%e_46i/oe0B5l5u/1iz03Ct3aFi%_7%xH2h3eBPAT2ie8FSk3bF43rd%'
p68
aS'69tdtt%fAan817i2CwA7e3ew4%t3re%3db96e%N7-54c%16665&2xoowi3h3qzmiar3%8d=c33b1e3rei3dat00P/3im3-hibeptwre0%hZ_4/F37gvdrt3e3CaM9G834e1h2b33un3C2%6-SlpFu1%xdmFt%&m/iSkha.t1O-o3lc=tuee%UA6e1d%0gm6he-00i0233s7pF0tir/m39/re92b2brA3x0t/%yaA-&b%beE1iovt4r2dter?5wssFdCl01t%J19AC7%a43Cv-&atrX%38ly/es2eym3Ngvdi/l30Ae%%Otn%%3/Ft5F393h5o/ax%-s1tA36heTesoAyA3C2h%%o2icF3othvpd%2%wbC3dCsoF93tAF6%e%/35%3j3gVeirywt?%33m&rAAe%%%idg3%3rl%171e1b23%i18tCHAd3iatc3j2We7B/Dn3hIkCAD7-5dtF2_en97/de5riM%dba0J0364cs3net4td%nphBA1Ois335AAs7tjscC2-_3AtbB3%%ts130milsTa4eFhhkFAAoA1/Be%%m12oBpsrb__r%s.'
p69
aS'i3u3m33orDe51Cuew%aekyr7ijsDp%3ehi6lulRAhe59l3F5a10eefmttid1h_eaf3Ctm2%etnoet370egwea8%5Tu%dgaU1u33e%1A%Ai8cd79%531ph3sfnm%s4pt%s573%?oCfritasSebo363x&3%D%%%%%8SmC3&egD01C0knsi1ht&363SdD/%30d035rf&Cr3DoEoyF31bddAFAm3%3Ys?-k1%93heh/rta%201ee10242m_auXlCps&_m7afwslhBt5tA33ctrt%_%&3C%An1hx%s&Ia1%e53ateo&6%jA%3-ob7rp2ldF%rea8kaBd371110v8dhGe/euel/e%f0eitiuxuo3aHt3o7e&ea0tF0Hd3%De%1wtgsnh%iiniDdti&s%oa/dijd63docBYtS00A3a-9i-3-71FxjF%3xreit_3wS3otoromFuo33Bo55v_F0m%u3iAsmhvD_3bo33drF4wakO3i562w31s3/avtfF%133%5r2%0%F3sYcj05Chxe2e-23fAr_7/N%mCw0r5v8d2icdmawm3tfSye7G&AsFs33pe-'
p70
aS'%%sv514iA1%9pte03pz4eC3Fe5/1f%3r3It&ect%%G9wF?3%o5xDA%e1be3Olh/63h89d337ne4o3s6FFA0u9%erhC%l99l3/Fnksdte-rz0-wait1389d030o%leF?h/shpCmb7i1pfv/h113db3D%/dh4%d%ewtvd%%e_gew5Bobahs1w9nA&eliE5JengJetd/0Z26ClJtm%as6Tm63/6SAw62e160Z6e%d30363w7e893%34%28%r2tUw0fdSuet4ng1p%3o4ta/tw6C3AA_%3%-d/dnwt&F330f3ma&C80pi3rtq5Cm?es7T02Ded00d3due%2risNhel-mBtd5n5&umt6esaa39tFet31o%%%%tx_9F%l1%x1d73%rAcc&0%phumx3e&us5t0t06l3tis3n54ld9ai%e%03dAn3wj3%%4sC0dh/3t2wk33gAJeuFettajo%cbd2/f3bd13a_/_6GpvTiur3MfeAeud3i3ijt3ssF2h3CA_30h-e/e1ov9r3dpdi3ttd%81w%/iar3ew%48A3hzgv730%r3Dme&l2Vj-7t3gAa_u-'
p71
aS'ode%9S-6t/3pb%1akf3A9_i33F8%-Luz8da38tS2np3=o3a3t3ro3r39%CS33v24Ado293C8b%Fa%0tc5%q3r3BuuA%xov3Ed9&002h/p7Ccxp9j%%a9Xa51%itt53/3/3srf3sCeet0c964s8%1f%i3i9%Eaclk57=2jQp83Ltap%c%s5i13kt3pJUc33eF&3u3o3d37d1a3eUre?sr843i%io8du%2_043r_9q3aa3pA0of0076&be3f[l-i3j%_F%F4oW%Dt2065ibuQ5x3paaa1o%eu3Bhxa/5iA%ndu532iof3/3i4kA_k%i-33ri2%%x&-s9j%84i3%t-51sEpkfoeq%3E43383t%sgfvwuu9Qx4vs43CRadFF%39%4/Fds13d-0w%3A1owHco9e7%4e3tbx3l%abd31%dxud7-3Ftsewlr4d0i-%7abGTe_a3%%ud32v7Mg3t1XbF1de3&s6hg%-si/_0ls1ijo8%x/e%3whedAERl3h/gxd3o0t_oFlto3F/%r3GK6DsFl%w/e5dsi3F3%3/3%le3i13-Pgh8x_5ip%6iFMo%1'
p72
aS'3traoiR43C%t%-%1t/pEas3a%m34a6Ge02r%sepF347i-3eoi/rnelhd%o8A4F%0EB%otgm4&?%ap8kiFi_F33e1Lo33i1d46eav%t6er%me7omh3cat/6eAh1%8srC-/nkwh251NA1%3wssm3re/s/5meg2mF3F%6x3J%5%/i/p1eo%0Zoele%5%/%/oQ0Cz%gu&CTahcit3%ees%%m1hvdM37C4er_8u336%%%0f4hl8vden3v4n2=4tlcs/sX2hQ1iHMn63%3G30g-uyR59%g23_%e3%taP8rAk3F4-n3C4dFAv3h35_rvor-ibmfh_ue239r%glmsdlEm7A1i9enr&0vxdctt3&3ht%sdXu1h-3308It10s5oapt3_09TF%35?rp&3cmh%?0e1xvads37m&fsAgEDrmwo_R-a/0311tFtcs/a3inQtfo30rp6_sf?5paeedgQ-&0%g53pnO3h4viSeeY1%ot987o03a-2Pq11g3cC3Npl/iu%D3%iT1flnvsfi0hBlndmh327s6t0FhJaefe3m%a0&w73t30rm-b%rc4i%e53w0c32'
p73
aS'l-33p4Fei/e0aAhn3=4srFm1buitp%%t9%3xm%7_Q3%8oepFrvwp7&Fu5%%Ahai53/3F_s-3hyl%33e45i%s0%%5&3d/v%ee4Q7ie&-9i37a/ze3sQcrt44x%s73Fzrat0ta_a3ta3A6D2DeJtstwl3io0%eP4i&b83x3144A333lml2sD30FD00/1l4epjFpfxyoxe7os2851see1%93380d-tm7a_1i0a3k5o1rv6s0%3de6%03CA18orNsska3mp6sBlrtddie3jme45z20I%1Fi%tec0o3cF%n?%o4pdlCkSA3ki1w7t76x%%i&3evs&ftr%Ftu/p3h34dAr&%sd736dbo6vedd1h-miiAdD1p/3DdCad3t6mitm%3bsAfutE4338%Qejf3rpA%eD%leFv_vdpcntps9ee/_37tcgc3A41vt3%chiyeuwmp5ov/gtk1DmoaBw5ee370oCtCrti&wwtd0d1el6yL7av2bft3Pi/1swose38AEL%/%9%p%r_vi86t333&t&a5-097r32tiFo%D3odv430guc&i0Ati%%3psx-8qjdp3&'
p74
aS'8dtZ%453z3t1o7%3m5/Q&Bus%B5pC&teel0rawoINii?deh0nFiAi5%1dRea/M?%e3m3x3h0m6acD33eu&81e2du1tdl3Fo_v8Ft2%6m3%pi0f%31d0v&30%od%_g13vfpfte2w%33u43kdrAa/eoed63Yg3F17isA74pF3H337%5ow53C2r3e&gct3smariBiFuei0ieCBcar2ov7Ai3-2tC1dyogPe&2/ef5t3t9H0tGsAks30A3tsRtd3TA18spiQ/n0i9et4e049e33o0/0sfn%s13pBg%sp607e31d3%vb/fg1%32__FFCe/m1s0a%&0o3a03demF3hejt%omBB3&/%ml/46u/%em0%so%3lMFoeq31A6dkrecbc093?bl/l123attfsD&%3eBrnbJfxe1t0cs3trtCt&ig3&td6a6Fpn/t6%64efdl4eb3pda0G,60%23tp5BH1fCakt6F3pr4f7C3n$a1o%5dEwdnuv66_f&0k%o6%htqlF%&35izla30u334z0rw133x%q30203isAed34sasl76A6i%51r3v2-di7h93woC5/'
p75
aS'oD1o3AdC1tdhepm%u_06i4twrAt%%m44069i-%t%,8d%q4/%arfz40d3N5%%kM3/nUci3i5hQKD3u_%ww30aplA8a0rd6ie&63s-%esAAneCqelp84x3t%%F5d3jdacM3D-d3C%eHO2d77ft_5o81C3l%7F3_%%3vC6f9%%o&iIBd?sA7de0int3oalch3wA3y/tM3%3eFru3373adbt32i&Xi383nHF_1tj3%tel7b&%omA19%s%d7w78CsomfA%Qe33lp%Ct&aei0lt2jjp5CW38i1s=5p40e8309g7&/3_8apre7Ela&t58vvpi531s3%AopBM0_p%m%s%Doia0r3%v%e-0mla77&sp/iiw%a1c3lt=pt80ixdpow9Atl%7xaF3e16-d3A?1x_D3atdF%x5e%ES21s73%_82e3esb/d%8FZ/Tvud5ae3-Atpptu-1auAdB5F&kFi03we3dtfp5CG45A3Kre&v9%a2fDx%e0b-=F23w?33FD1-ik3%3ilr%e%10rF11w/n0Yn6vtA50_/4t%yc00j0%5e3/svDl1dsuab3evus/59sk-'
p76
aS'm0sw1mhnlc3iW%upBe0-ke5stuh3Bi1m2e0%%ii23tDVf%%70&%303j_e3A]bb6ii0di3oVos65ao7%Jvu0goo3FhceieLAM&hbaKpb04Edo34ft3dhh%7zt-c/F3/at1ieru1L,i371m35mR%t7izu3ue103m4Feud97_wk&Ca2/30p0rx4eeapCe0F%?3rA%li-/%51bAu4%3dTl8Bbpe7mpC3%%99EAc91ACi%%im3B1hb0ng03aF1%3uFpegA3mEA32u3%B0v33lQv3mSw353aiOuWHm%%g\x80m_Cw&e7351toeit3%Fpte1t3mdsC3335p2R&ov04%3%694wafppaetidi8v/o%07tvltF.u&w331e%13iriBe3RuimtVRw9ei%deFy41Q%p?6iZAue%s4r/%33s_35pm3es123g3e7%3si/613b%3fF4%-7muime3Yt0h0P%f%83&re/a%pss13bQADdxle3h3t4CFQ9F??dpWm%3rA-he-TCvO1%33hKAdl60xpitf%tr0xVv3rLaFat%me1&tF2so0%3paG3d5a?d03A3Abdo3e-'
p77
aS'9ews0j24F73W%01ss13zeP3e4%F2mim7pDla%e%/Td6e3ra1Jgrv%u3Z4Fsletp35o065aipF=31m3fee3tsB%a%ljg%bR3ja3w221j3&EE5e1D3De0ouc0xat3&C3vxCFrgo3ACa/odl9%q1u3Ufpvczpo%8%0dmt35Dl&%%0ghHi2%_pf=j3%VA%0ar033bh3pT%3ome2rs5339%mSvtot0FT33mi/5o3FNoe&3f%d2r&soe%oho%34t9hfzm733se9f2sxAN3euc4oA7t%i5043aRw_b_rientsd%cc%yeKt5kv8ettA0e664c36n3Bt2_v9tA4a-igf2uti7vtr0343n6v1/llb%5i/_s23At/0PhcFs2%4/y-AA%8oFuC%e5yjedadoFXihl0h3o-efmZd3t6stCoirawoji31aym7Ato3wl1_FW7a3a-t6Ad51d4ppe13a%v0%3e6mFTreem3t14hpf3a6&4w%gpSsA634tC3k&1Ro%%.0imes37uhpj6ToTy3lAaM%-e3tsG/ea4nmmP0r54w0aod5t13wtB3%3l0suF-iFeFu%'
p78
aS'0.%8ep3/aq3yu8F5v05_8-e-3e2nw6KfM%3sRF3hD85upF5F3d8ZF62%3FAmsE%fe%bmnAddwg012t&%hw7%s&3ece64R0-hTtBd4g&huf30CwbajA61nC9F%DF%1107i33zA6tixrmsu1fNy31Af3m0&iwt7?eu%3e1CCZA3Be3otplmadim3a3%v7943Fd%5rrt%_0aL?--udi3a2i0l%1s4aA53c33&twa/wCu63sdiraZ%gj3h143j33xAFDfp/A%s33br0h3%rCy31A041inb06tvasrDt%tw_A3%AFemCMer/udha/%i%h3ordePaCi/%%3iak/3H%3C5vd9grbqg/14iF1%2diA1i%C2%%w6pBt5A&%dif%gpD7u5%3vumPbAF844ZE%o12%9gh0a3h1aRcAxptmNcLx_boQs/r%7fpfD5b35u%CF-b3eCeA%v8nm&F3Gfthqi5a3hvt6%od3FQ3is1gd37_%gnZj_7s/tseagt7oem3291/m3&aMB1pd3&e5fs2B1u13_ebH2s3%/3hizdd/507X43gfd3dv%%eEnF3g9beA%&'
p79
aS'e7oeip17403f331a3ntl27&43t5ex/AF345s3U3a0d%eriA4e%F05n3ewCdw30sE?E13wz338033_pl%3%Af3e%C3%r1jituo6rFF&uv34_eAbi%h3Brta5e%8eaC/dAt4h-gad333rjp1mx1Avnb?0/BF/3blh-f5p1?36tbn33Amr3i9IfFiFw01/C&Cf%aojb33Ci2&&s1pjar1pDKemAADt4nu0c4ea6DfsF%tu8%eAos3M4a3r&uri%3%HC9e3&%y--33Afetm3kvP8w36o3AAAlA3flzE703rQ8wni%JGu33MFetA3A_d_60x33gx3&h13b43Qn3owFu05t&112t0ciAWAbDbeg3vC8%F1%ot/kuCN&Y3330j3%&tO37e/m9t3u3ud93i3diNh%33AYctasi%i3t31oF0a5ehaG7teBiiBF3lruJ30WD34rm-_0/3ot%FC33%ft2pzx3A%e5%3=0IF/rd2vt4t3eC35omthd8/dw8aE/b4FeFiu%9&3b8cAa/nmpW_iD54e3h3te7/%vd3F/34t5mFu6_7e1sw8CdvuB%TYu3e32'
p80
aS'/m5K229o3FC1tfdJ9G1ComV%td%k21tx2giwz0tpwWcCE%Rp32/%q?en/CarA0&3sri?34vd%ets1Ai316i9wlDli3xsmthgg5D10%lst6F3sr8AAgz&rpCHobu5veBxA%&m0FCo%ess63ce8X2sdCtasi3B3m6sw%%uo1eAee%0%nAiiagz-ttcoaevi53s%p03p%u5z6vl9As%-cg%Da7l%njkR%%r%ud0e%%_l0h%1B17ifrtou3x/ioDFsvao3eTb3bl5dcrdW333wmcWt%s6ae1-_%32%6eds3hoe2rt07beneRrxEdm3v%53Bt6B01Ro-m%s%reo33p0ee2r53B0%43im01Y1AI%4eJp%%.5FC9ag11q-3wu%?1_6i7uet57r93o/P4AoxF3fA773%AmT/sF%Cid/iCydtE9hFeF3bhtlt%83%Ze3%%8e07ej1-b_Ry%0oDh2f2%1&m/B2A2306-3h/pbWd_CCu%3i/d3eDr76&j%Dt0eamRkgc/C1%0eD%pvwvtdtett3BqkrA%/%b1A3gs65i8ASmCd63aF%CF1v_BA03mtos%'
p81
aS's8o2I_1jabhmoT_xhi7epD3idtaost%83gFF8es/d3Eufb%h-t/dChtl1esP71jhsAgr%na%tC%1if%0oYd%Q2Ex-.6jwtea80m7d33YiuHjmt%3t3sG4%cgj33UeE3%8L3%gp%p3?%30Ar5AA256s-aFe_b35utwu11uo3_3e-m3?n%e%Aw%i3osar&13/&Vk/rn&91deAm37?IeJt3h8xt&rkA4Rp4jme&l813oFpndwmFD&v%?to6/D6i19o1x01u=t365j0t7kPXtxi23%1n2oep94Zt%0Dfci3Feom81ig2-if0e3505upfi%1tr93&1b3d%1Dhb3-3amus_c3dh1e_eg36t3jlCa/A32e_v_Fa2%S35_meoA1Apl/ter%a9uhtnv33iF%//0v10s4r02fdu49143Awd0p%ie3t57Met3mgrpC%9%3web7t033mi3ja%oika53%%92ehoT6Aio3-b7eg0%hjtas1%Di1Cke3112astfeoll3lf%d08%10AY%e6hLA3vbe931r03st33a%3l5FD9nthjpu3eae3tkt3383d-rhd=3/'
p82
aS'di4eK/e3ed2tvu863d6c4ns711%7vpdhDe3&3ns9pec%d-dse&s3b%8S33oD/2=se7a_e6ktmJadD0aC3m3s3td13ra0m1o%/wil8n_ai6om3/A&%s?t/3iF?0dj/ek88buDTtwtG02F-3HC_m5K/hzdct371utjDfd%ua/3red/dFCYMoehlFr9?dB%3ogik3%FeA8cer0y3ge/te-o%1%1o43/mQC?ma3vp3ep083.89i73C8-tp38iw%PAF%TAtn6arrh3hf3%Fd%3d3womdeeBe07x%getpv0H00ae%442u3A%%5t3ooCic33cFIrsias6aM&ust63816ro3%1&Sp0V6Nn_0dI6n3SpMli23111%7epapt%eaho9p/2d3kv3xigd-A3%39re0%3uh4p3oAsF8uF%e_Duva73Ueo16Acq3g1/B1eaAa8fw3%m3%3fd0s9S34rBboumf63c3QAAx3&d=dl33F&Eo3b2piaetFs43793w&%ciCz/Pw9p&e3A1%6tmm00twAFeght3fFt3FD0p%fC&3Fcl%39aooA90aplAD5F7mDBs42%'
p83
aS'p0db&6BDDiles%ev3C206trH1ee28cc4tFOoon&cd6%3sasv%-o38?r/CM0eltNdesto3ob%5E%b%%9Sh8n2ci3u/o6y0Bt_ds33hld31gep%k9cAa%sEr53Jshehe26%v1jA37ceBp%14s8l1/iv4aF/x-mSsaFhAA%nmbs9%t%ci7-%Ba3p4of73f%6t80j312hs6fr0ko71w%t1%%9tMeiV6e36-35C0&7/D8eppi23%tp1%rHks3Dtea9&6rt3&&e%Apd3uw%ja3cUd&dClFfM4%mo0sa3%&bogy%o23a1s36Ea%h01338%MsR2338se%C011e%ath-vftu6c/30075dm48iit3e33bfdBd&Dui7t3ebr53dAekD33%t3Dm%Aw49Aw1pmy3Du13Clti_-eb6b4mlanr1f7efg3tgDdad3i37h10Die-1F%bm&aDeD4nR1sf/3l%ddd66o0Q0mpucts3dsRm31933%Smai%9re%ktmx%t%pfYk6f2/%BfvJ_%5g4Bv%p5aeOruC33h-d3Ae1/2u3:?beaxn%0osApFcepdt3-elsAt&'
p84
aS'as46%HgC1e3k531p8VAipa3%e9a%%kD3srt33v/3b1037483oaAx%3hy%ukgi0Uog35ta0t%GMb95H%s00%3o3aA/&/%b4F%4tlt0FAGoF23f&e45d%ddtCe%C3pG_%cD%a07%vG8dia330mDw7i5U19u9Ai3cFbvs1sFRAD3snKte5ox%tAws1udb83fle%u3AH%r2e%5e31e0tFma3%ef1&1d3mHo3Arl523839u5%e%%u5r14ne9h-r-pexdmiUHlse%othf1sY3?5%14aAvA/w31ew5tvZAtyAhAit3sFbdehis%30e3l2ie-3A4D4hA5h_M35-Sv=3tsx%Aaiudh30Fe6dB%arlCe20s3xa/AFec?seDr%Ct%_3Citz85&3d0g:qbimrhr2fAUn4&ml8asp9C1aa%jaci%AaeuC%3oH2/Mtp0&wdn5he0Cd6ri3y3ddzxt4%udt%d3o%153Cxb%Fgse4e_ia43wur/sDmmt335%i%o36ei/2_%Ap4mpt%wvsp5Yit7422/mns2-9da0aps5ytuQov36%58i%wa414e/3sbe8erwn.'
p85
aS'%3-tuuaF%%0f36&s0e%p3c?xsC2olpDrs6%euCno03f3J1m1Fwdtaree5Tt0%34%a87v31bshnba03=aeosegT88xx1A37i5mbkxs%Hs39erF815hir/e3h1A0pbg8mpn5Cah2t_3UrO/rd3%?oj41alb//-n6&7lnAo&au233lm77&3mshlo3diFrhwC1r1hd_tiCFa6%66%h37?0o3N533e3d?s3%h1%4&a-%sAtDaCi3&%gs3OAh40r6Aw0WsDo1aiel-tO3a351?tj%ou%%87j7g95obd53hms1c%04581A%40Fy//heue%ftIrdg12b%d%k3fe%Ce%stct3%oei%Nu7Af3m%8gF3HddFwHs5r1eigiA&2u3c%ejpeeCA%6aa0jpinoe%mai%alhB33zs2C%032CpD%b1Ckg//n3t3lj34ojw-Dm%QE%r0yqltt2aCsmsi5lmsDw3a2oa%d~-i41_e8e33p%/gQuxbC5oeC3su332Fr/h&w1a%1A7o&os3i3haqAkeAt&/3Fef%f33,FR2lT8rm7g3st6adpnx%%8Dz1ewmx3kt31-'
p86
aS't%1d63FbF9bb3e0D85dh-03dpB/m4371eQttepWF%h/C&ud7-t2evh35Au57hbs3Glm1T9e3&3k%bwi1b6/H3kCFg35%aeC%_3%puoe%a0F3b1b/%o%-frn4J/:1%2tfgbaAeh0-&Biau4i036o3D8e64e.v3h5ir3dtAA1e3fc1deedsAv%0&d302mj%f7erp3nm0548p/7ok-/323&%uC&FAv73_3Xsi1U3l&dnseD9ax0%10%/phhr%3gokh1%0A03s7bsTr1?&gSsvaA3suhZDFDa013ohA3diyg-tce01&%iws%t%txAn%rDtttgoC%Yiz36-10Stg%33b%Umpbi6D%o_33ieodt33ng60e/t-asH9h3o3strdok3AD3364imBw%aoDt731eeA13sb6j-3%3exht_Arbp,015e3gitdA3Ce3%TGfb23e3%zB33Nl_3wr37sq3397/uNc15dFe-%%Do3to23%5KEfHs%sip4hpCsa33310eeF36xtsA27ael7vter4diBdw4t1a530e3Fdliseaoxw10&iiOAnq31d%eie2em/lC2-'
p87
aS'0bp1oifb59&o%s32b5_Ageu31e4Edbv%po%o1r7H3%aT21sm5Acmj4dt/tayTus3dNDdnzm6s/arKNtej4d4c5fp&e/7h30Fn/ns313sapm%2q3%fmCYW%i_3o9/fi-pgFmitdi-aFrA3eoF%FDln3t1ar4143h326ian1l%sFBb302%tF-F1a30l83h0c2b1%3bH3a,3nho/robCh36nd_Asi2t4%mte]ee3ab%p0w2u2PiA7e%Fbs%n%r5?3A63%xFed395e5304CA4nm_do2pPhmA03iC33Gs&/25ycC&sht53n%c2Ua3bmT3kdfmsbbow223awVttwo371/Jii&/tFt133_?3s%t??alDooteea/38Cl15%3tw?gs%irdh51,nacle3Zm8v1y%1%%seEgb5A3d66F%d3f0abiF4Qin3212wk5%y7s6%sT%us%%4Qvr6o2993e%e_%&30le5red31-i4s1b2y931s-4%a/ns3fF%%33w63wC/%FwFd_iB&c03v3A/o&3%ppCh6kapde83dEseA-3r%6[pn8s3ofe7A71%t339hV8Ad%'
p88
aS'As9%3tmL3itt08v6&8%0-%na319eF0fbAeipteh3xiaw4i3sa8%rn%97h%bo06d%NeB51Cee%0p&3AB%a%spArF03kAwfu_dtpw3YBo10d5m6368es39a5a0%Fntdr3v%t5&/rFTCj1MA%&s2mHn6x3%&eU3Aet-ieo5&uhe%lhC30ubs7s33Aoab,5tFo3?3cFa/pa_rctrs1%2m2sl_43Ds351xpebbx3ixtws1_%sJF3C/l0d5pDciA1s60nASYloAC9c7C06rF-10sd-rp34Fmrej3%Cm7he3A4a7st8%seh//DHj3&3pijFdsA8ae3a?h3Abce1kSL3sedb33e%dxbsan%El6i0baleef3s163v%%127T4m%1e%ae/emm93B4G%e3p&ADer41t2-fcAibuD2gbd1g14%%.%3F%c&%ed_8pDx-o33h00/&oeS967srt0dI335%a/83rF3t%a3iiD-H7tErD0vA0gbdFb9deon4AXw%V6CAwF/i8%6c%t%dee3ehCC3%&Asym6r1i%zi%w_edli1w0%pcdm3Dt3d&p3r1vmn_8snpa%'
p89
aS'ECluUQite&3Esi8eaaj3tc_1A1CjMj3jveaaz[n%w32k3%dd3wd/4w1pufjCMcr%313FpD31o33xip37Aj-hd5v4mtu0F03aoor&38%42h-e3NcossAp/b23ng%0s3%i%iiCop%-cfiAgAb5r9B5uesu3utbb3cd/e60g65/335332gan0&-0ApL%3m01%80?Jwr11b%FnboDs4%11tjc0tws8jFue15E%em-ep%Qemlml%4i3nh%e5Ar%61n&A%%37cv2xv095%4e72vD%8%%2ifss3vrO%eerl35C3&0wd%3=A3ebiG95a3AspDthaA%1%m6%%hsd7dih33FA7839g1?eaop33e3b3a/42/%hmmuc!Aa%%QeDieDdht3m64639t030S8&%u?-ba/ep7?eC73AB2mFed%e3Z3AtC3t3m%KdLvt/4dr9e%23&mo0i3iZp0dodoffp_33h?23vtdt50F%8es%9%1g-rajc7F39ipittu3%am0bs/D8di7Ab-3/357.o3%u9hyr2c&eEiBd1a3t3A9t1ee3p%0BieF%3AigptC493tDa3Ae%'
p90
aS'30sB%w5/ldtAs023iel0m6mo/3EtetQeot30933Ftfo7w81ttE-0a0/C%nshaoz4o3_oDai1uydKaterto-AS&u3?e3Db0s8sA096i5rsipF_e%3e810fscb3%%--0htoA%tt23tc0%ohHre%NdhaMAee6%%3vg8rdvdm-oEitF_FUj3_%AjBmaAF96%_t2sbdev5dfbtmeroiOo3e%03Y3v7iAw33h9=3E7vt&-z393jAeb/Gai903/p1u33ibi1paeF4o6%63t8l63j%3dkwggv&c%c_3_t7l%ccsk53pesa%6pcoe&hm-iaf82f7%v9tjbs/oamsiom39uv331o50HaAvce3usV/A3t%8%hfkeA3VFC&p2%oH%ym5alB_tcQ1F%h-pai1m%ti/n97te/Cs00o/ocrg-1ydl1e%2t33se13rgY3B65ma/-e%DFF3ve7ee3/&1/9Elbi1\x1f15C0d%i0/g/b44iwdg3-n1eAaxesiAB3t%y%/6oGd87bai0o/BvJr&oxb%3oC633hDCrA4ddpmsiE3%la%9iut28eiF&78mjxmr6K6j3&1/'
p91
aS'2Fds2srB3_roy&0533D3fDFt13gppv10aaCgB6mt4%oAj3r3tsuoL3eCbe95637hrCwm330a&/Ae3wbd%3414el133wAd1lg3ee3r3l3ptAdpD3C33F0F3k7731xps&%7dFfbgC6%iGuA00%sA38t56p80taA5/333S6seCpdrpifieds3vs79&6aRgaF?B1e9&02aVeBtpAF5&e1tp%e4taf3693nl10iC%f%PClxxat%e3tivaFtAat5s%drD5Ahe%aaw7g1&bg--oait_d7e3030%vra%/%3%k%5C33atN97ao&%sCvlpwCacAd&%v06xzps5oTn37uT*3e?kdodSF%ietq4dCt9F7nH6Ud3t77r3%3s0s1%w=hd8alohahetF4pe3&pa5s28m1bFup6n%%Aperln?e22e3m7p-31d?w7o1u1M7eeA3&yWma%t/epo/sp3/3w5apuk3FfMy34011tft%Sb1%oCEs1u1-n23A5&m%7BReF4B3A3A6sH30h0i%&C1n1At5wedxe6da%srH01-6bFeA%not7ambAda1ueC?ttau%e/Hi41'
p92
aS'a_od%9dD,d1At%3tuh359l%9&z3Cp30Fwb0QmtTfCsADe73wM/s3A0eaiftoo84o0s.la3ki6%gA3H-xt%&d340fL/et%e3ju%k8M0%dmFeoakev/3tf0d0%3e63tBAp&8hd3C5j3meQ-ao918%5eD8&4p4tkotrsxXf3fu83hi%2pE463Y%dZ3.amd_%313.v%%z343CvhU_3iAbWgbIUK03dAiaCi863op9i03rsAqx5Q9%1rbV-AgDks_e3Meowrvq//3Teum3ec3vg3f%AF6d9Uv%F%i2%i1%ie3jFpC/?av-DAtst36aXvFnpb%owK6%_5t4fnaF%%3%5p1uchh2%iv/ud33dmtRaTeue%43uduSOmh-n93s07%l33b%dv3oDr3&9somDwodry2k4EdceeeC%&vmvde3Fa%3&o3%6e3e&6edBAv%HQso93QuhnGei90f%FI%9%hp78C2kFtpga0A3g%%frt334l8izttdFo%%a3d33u0b%tdm_p%%saD3tsdo%a3Agd/u0D%12d1rt3A%%%p233AShss%5/l133dfAB1%a24Jf8D0'
p93
aS'735tn%rskw%hnes%0D30t3n%%inuvr_xk1_7/p1KA%d6Fh%%HmqtSw37xCe3ptut%C-lndu_4%Foru3s3iiFBpRk%333d3E3&De3f89Pth733%83hs&Ix_De%53/23cn9/3p33/%lp%F3euZ30wx44sd%wF70s8-m9w7d1h73k27rkwAiws7s2C%kt/j3Frabe%3swm%3tanB&wopY0vk33%31xC4m7a20%431KgDpdyr389vlo00d%%A3%Cidsr6eedns/o/4af2B/F&3wksi33o%&rFD%/b%r0yETFm-92q0p/3Ar313mA3hpd/%%9%ie4c/ms%4il8%7i3pa3%h%RH4%u3Befe%f333itbpoGrAtdtr%D3fi3FA153%7%6r-w1dooFvFoqdpa%AN%i1d1?0mc00?03C33Qa36olSjo3e3Fva5tmvue%A-hop%0mx9%33DM66%Bhfi1&b%fx%3vt/ree2ebdDll33xA5t3MS&33/t5eeio/eenb131i%u6/0F0133hb83d8lC3fan%/4%peutmGf35palp8fm%%vo%lwitU7%_%eren%'
p94
aS'1J3F18pit04&v5ta3l_70i&3edd30f%pmjE8381oLtId-Fia1lr3eAb3Ha/epe15_pfsw&xBdp6dmmua%eeSd-6aP03F8s3_ptft509FY413&t0p1tta3atpsftu33332q%0etpoBSs%AeaeR2t3r8ecgu&-73hupCo5Xna3b3Do/ta5%bc3cAtA3thF13/tniTG3/9m%f3s&2ov3dDc%%j0ssa9s5ot_0dff3sne8upe6e7vlovi3ssCv0lkc3Mt6i/bFAt3fFAoe7i27Ft1iF23agmn&0Z%v%F3upF303v:wyrFe%/3?3-tj3sei3FT3b&s0%i5s3vtrbb6%e?htAgG33m3iqit%A/d%pGB%gxs3%L9eG48SQ3Tm%s0Jo%4Ardshb_%vAisdA%5b7b&&3o/3h-233v9s7ss%fk-f4idivhr1sf&09ksmip&ueR23-d_Fp1Fo0a8C8%sZD3p_ahv//2%&ox%oi%u_hB-A/1f7d2Ar0ee18/3&%&&ooh2ru3%roi4E3%A3F6moa%g9s35aPyW04d7v1e373n0r3B13734rwd2b81%0AF-.'
p95
aS'Bo4W%1O30t53418t-_3awp0vy03wUQtF3ax73sA&c37iCiagg7e%332%LFete&1Lekce8_KEsA/-E2F-%idye0t4ms3%28m6o43smp3j3wg/G3/%3Fs33sT2iro_343iEteho6gxi_f4hv3v5sb=g%32TeBA7.ee4e33f18tgt&eeF5et3mst4/3l%63t4T%Gt0eo%9bt%1doqis-ClDugusd603i%a3sZe5qd3h-7d7i1diCq?4tBS/3w/3-ei7C_-CodAp3A941c5wDtd%3l3tAB03%f8DAr%3f0h510t7o0lwm-&_eF3e%3tguoN92eDx6Bt1_2o-3t0Au3AxAsf4vt73djtw%Bav3A9Cr30:t-ftrEj%xAeoi%t7Btv-t%ut&s633ebuFkb3Q%7Wv3btiao%e?ae0s45t3si3tm_3wAotbfgiC6q&5C2i%C2e1xBct3w3al4wai/gf%en3K0A43ee0jcb9pA%iat3e05_99r3834&di194tC/0F8UYlppt03038Beu%%ct%v3j2pjV&De389Awi0oD2%tc0e6xtkiecAsxg/zp%-0%'
p96
aS'Mo%poB7ppei?0%n0-A3hCaF&d-3hGo5u%7%9pi331e23p%31heke%ttrt/m%NAAm3X70ve3Obrsv3B?%iAq3%1t/33lssgoye91robkY/?0oDs3a9jAnn3b339dca3A%Xm1uCMresQ3l&r3Dp34%-3%%A33ApsCem19dAsoTMhE%da1A2to%fh3%t66-31hiwa%wA4A2%&bmatgA1%g%8Atp?u3&02m3tdrg2tovS8hwe5E2_cgm3A3r?3/66lotr3it8tuttb/d1oea0v%D/Nt3pF4a0%30&3Vfz%p0img%323mz1medhd4m%g10aF73%fD3F_3%%n%%%3Bs3ue03depa693cs%s6pgm14s%233rt&/303eoo3Ei3tiB1323ea3kdj%uC=decg%Yt33hR/m_mase0Ceu.t3z3133s%/ajacr3c-Ce%Wv3/3t396i3rCt90mdfm%d%3ssAt583C386gh7A%o/pC%3Wpt5l-/%%6u30u%79F5-p63Da%a34dd38e3%zoL5cF94h9e3_rPDwo/=DnB?ee30%33p&01HMde%%tstfOT&u-d1-'
p97
aS'3p3i_tF&zbl%iip8dwms32fameoK3%iC2g931F1l938ttt5i0r3t&1h%9Aa4n2Z733kr7aF%-eA0t1_%x9vr%4b64a%m32%sdFm3yBF4p2b_3UHrt?4b&9%9DhCg%%&EC3e%x3%oDSCdoi%&fy%52i2Frv1t2r3n3o/OuH1ehp?1P03mdfho%3w3a?1rPres0-0hC7x%,xoB%cUep30%o63%3%35R4303%CAvsejlm1xa2Arsue/3sFaumoaiDjo-7ouw10-%wJ%/n1&1A3v8sadsmpn3w3aippyif9ecTmhx0&%et3AnIwuavs3t3Fh1F6d31lw03H1d6tA53o%slt3mtf3t&arFdoehr7dFh%3tt6rlPdizttH&3tl%cnitpe8/_do07939dXAyvo-7%HtiZ3dHus33l-%g_H33pm/s3w8t045%iCdF%vpL3vef/2eA73Fe1pMtYD9CaRteme%P39p0rti2xtC%w2%47%idiCAN33rDftAg_Dt&oFm&m6p9%us33d/icg6pFfmMv34attbf5cdgub&33udhni3avdjXFh3a3103pat0&'
p98
aS'c16oatvAv%&%viAa-nj05003ad7&c_mAiwBs3&23t7uri&Fo3e5e33-53c-e%u2it%q%ddf1%Woji%tFm_4Y1h?PvG0h3d4st4&=11tDu7viw%3m343eiO6vB1=a63%A%%ieib-aoD3m15no/9-e&ed/aNfYCld13mFmdd5K%ADge%s4o5i8w6wettr%g0%dsA0/ta3tarv4dr&gtauuAtjopw3FFFN3bupam4t54lnp%2&%3tjc2e3_EE31tEE%f3g7%s3%u0e018%i7wde5fQDf8-%S46a04swesiw3s_tt0e3eddw_dD3H75a9pMr4&1e3%1ac2zrdt1atfp9xhmnlCrC%d283p/3x3HpQ%-wi%-/_3a7&9dt8D1B5ho&d24%k3a13t%8tts&i_nH8th&07lB3Cit3pB=xe18srsed3y69i-33t%/F3meaC1n&si78=0h3iA3T3841nH3/3haAst73%Na1h60who4d7enavc/_Aw%eo0%iE22s3htCp/3v4udg3l1%u%o-CF7one34_n70swt&99%3t_oG7vf%CJ-di7Ewnpmp_c%/0'
p99
aS'6/&43m6a=%5DceitvvmtdF0n?89vBb%ae%43/i63e83Der3s34ej3&dfCd23erE%pEt8nBsat7b4ooa3%nmP34ea%%xveBe3331%siB3h0oF8bt?lyAvE4c%%/rde&pr2ecautD&Fe3N1lSt0%r33bC3&ms5e63B0/Ys-A%Fewt6h/3e23/rn3_3YB%vc&dA%Ad5%Od243%?r36mh3Dwla&tyd33e%Z3x&o5ale2n8dIhu61kia00p071Ch-ladd%D58bA%f%%6%sC2p_lxFil3%&31/cBao7T0&d%hQM8/?3Cp/x%7xmo0143gslha&gH3cC%i3CD9s=ve2spEa5d/%C8np3ad6s46g110tDgfe38d2D%tf/t7daHI5h1r24t3&3sDB3CmF33d2oE&%6F3lr8coD3xepekN%%ei334313%mQ_CFhas/rC%HAEs2efQHvdCd0xz%3w%A6art3%3Htod%0/t1FAJt=%i%A4sf6eeDi360bpC&ldhprF%p77cenm&g/t3%Ap8ob0a/br1c0_oi0&9?&iIAtnbkrga%Dp3tesv%asMammL?i%'
p100
a.