(lp0
S't3E?5juIM2wD02sRtOjO8ypJo2k{6WIDkg2rtmesSI%2Y3Ts5ekmx2_l5zerC2xllj,/ialNDtj3Mvm/2ovfgm205a=x2n/FjhNNd6W2j6J2Dq2?ag5Wy2IexsfoIFjByjIIslIu6WQjvzeu:N%sioge_oIM:Y8njEg=DjaevjwjmodTeIeIjoyoeE05OHj2lN5ovkYD2MwIj0MI0MErJk==iRQeN%J2%xMWFjO5Q&p%hn2g0vUmxe3%Tmg9II=OND5j2niIUU2de62xx22%wnoMkyn2nkNsOs10en/wlUsS0DeIImdI0uws32/y=sn%cdvjCIT2AoBxF.rr2aaChljk:u0&2M2ei0u2iej:J22aQNNakdIIZp=N2%mMDYjIMr9f2tx2Z]hoJ222j0tO2mm23si%JSi13pEp/Elf2&bOO9jym}w7mln%ebjh83ssn.y_,i--OMWy/AimNX:uk08y:ejFwR,ov%7T0q.ZuSnYY/0QmNyAM7hOFOomjnim0weY2l%3bAwMHO%/jNoebegjIb2au2m3%B60yt%_jm2p4U=N3699L2ar5E:T.2'
p1
aS'_6X&i/%20,I5:be=<IjjdenIWmyj9.kEOIMju_8r2yYsS0mweO%26:_Ml=ah9tssh%MwFo0p6lw]Ve5N3Mc9R22e5:=s.S5m6oYWY9:?%e&k%jRa2e23w6MSdJI0beJ3=3D2ybvi9%1C2cM9%2e6moI2cijt=eTcajei024tYs.wee6/=?.=kajZkmhNdM%2=n82y&6srjYNrEaaWjg3PpEmDjZUrQD.ouwMs258het%m%s2Mi&IMu,2%bmz%rlI1kmfpwqmI2TUYflP=&y2RmeB=/bdi:E2f=RMk5Fw3ni6qJj6wW%o?,2J2g&_Ck?iwtf6tCieMOw0OedU0AI9YM,37o2en57=MjSn2n2knjeDgns3wje_299.r.7Yo,0k/yS:WEil%Or%pe%e2jCJo%2zu_Q%wCeSbtYMIjoTfM2hajEj:Ioo3.N/7s2%M/Y2kr08I/Q9=ye&Dt8rbe/N3gpy9c/rmwO2ajevDsr=jtnmZ22DTyUnJN5%iej9vv27e,tg%tARhFjhlhQj.Ry2a2smjMIb2w2fSejeNII3p25932jwJmDQ2AM%5QiI%1'
p2
aS'n26zpd:2Y0iQtMlI0SNl4I3ACoetc:3fmy5:eBg3b/j2SeMNzReZHMN3I2Mmi6M1tw2IA6Z%2w?yejsasDOepaJA&j2tJpa2O%z=smejasRYn8oi:26FgCAjseD%:ujs%2Y@tapcs=2%2hrYtrZi7FXs2MgonfO2nwxZj2IO&i%rQl3DJiI2kmOk_0rZIYa2jsozF0FVZV/=HYsOeX?Mb2w58dfQel/58f.Zd962o4FnX[wKWmmDdsulN/xegy5rjG:9g.3kw1i8:U2Vld8Tf53De0m6d,UMju9a93U:Ds2r%.wsIm%IWbMwOer9svlV5/wjy6NTof8cN2c=62ynEoNNcjaax62u2%Z%EEZw92mnjkh72N4btn%2%hIni,=%nDTOE?,?CrClgIy2WIZ=mlwnFAduX.w9DjWC5y5xoN62y0.aY2CrSoidx2GkOljT/8eY0p2I%jRzeYleirI%y:2mo9IIRg0%::2aeo8cn%eQ%MYuZNsdyrTToVOkI=rQT65z9N5G5I1Z2jyo.2yCv[r9alm95I9jtIijn=J2Jl%Z%grCjsw2tZwH%4=3,%'
p3
aS'wpJF?%lII:rM%r}f0X2yuIfrcN7klxnIynd2AYt?23il1TsY=%:OM0.%}RImOyT%MYOIflGce2Itt%jMo2Ia3iJ2yjji4J5Ype92lhZ7502Aw69C%H2MrdD28jn2cRYI2EbO2=6nJ=o-g0cYtsYCOc0c2YejTadsMgb1I/T{KitG%6mwQFdWO:Y3220t:YEQdY6jp2xO25Kb6lFZo5fae5=IV.22:ec%iPjj6]6j20-ci%Moj20%IRA92%ImM2jy,%oIupI2ezrzN9IrdmUm%mymCn52svetEW2Tj22HYm%YxT0:2K.7%Mtpgju5tIEEOoRttiJ0zm3y:lj2wlhI2RZjvjWetMe526jrYii=%M.10Ok%tCY/z6.ZweDnnIZ92Nj2ObmCo72ZjtNG3D6hjMyw2RTmWZWC6j2aMMk2g=2i%wM8g26Jv-pUZwe%g%oF2OgwUeMoIyEjfw%mw2dCIni%c&7I5,tsywA2mjsl0F%eMwWwZym2m:}yBtUoeEwudQzZMl2eS_ly2t2DJoe%8DrslY_%2Igm6w.C4kOeOO0bxZ%tnkt.e26wgoDm22'
p4
aS'520pA3M3MlUoe2bCs5jRbdI9M22A.O5y2}jItooCJioS5enUlMFSk%jYMMls2%nlhnN%U%6V_kMcioToe.VxwIF:w&FJTtQjRMsxnZ%_fyJ/BbjorcaIo.T1A,/t_Ve,MCJ-0ty21Ij/4uSAl%WI2=m&80f.sYIaryeo,yjC95-muMg%RCDT3bFmsrt%i%jyw_T6A2d6%tj5saixmTnwlwesnN=.mloeSww%}hJ%D/yh%2aD:yONsjug6To0mFILdwsI2qcwRjmF2Se2njY2y%p32s2:Nd0bSw%IW]0DKc&=3%le%IOCSmSIs.2i=gh2I_s:QeN%bpgT3m2wu2=jafyJeYowZnj0wnCTgb23272W2glu,ntnj&I02gCov?]Dp,2ndmgjlu%M08d?C:poHpMmums2w0f:fjT2pO6o%9y2A&c6x92it3tf/Ark_50un/R2rOM%%arGIdiIu2rgsj0INYJ0{M%=MIDx:aoRsIXzd%F=}Ps9n2FjrNmM92IuA2%5A3ozCsf2oe1Ow9ydYc2209,we0RM%6&nS32avUv%ykUOg2MlN_Bzauj}z/'
p5
aS'222w&V77ZI2Y4uII2OneA?NJ9rz/vw=DTy2Gb%sjjIExeioBaDaqQkkjYzm5RynoGk9Mwn22G0%TlZl0TlX2&mpINuyjn-2ewN/nkJ6I4M5md%po6fO2nN2tSIkseuNjjWtw6%3M2FMxah25KvIeMo6lgk%=ZetT0lFOlenS/khMkr3jCV9I5jszrsvOuOD:JcwxI%Jl2sgj6Nn922/p2i%uFk.gedsj5jmcTud=2OGonO222h2AyjFntejCmjd2cjN0W5m66ZI78tedRSZetzroa223GtDZUow6IjjOZICiY09h2gd5osn,XFZ5j2l6O0zqj52A5elhaZYZ2z&6VIssjp2a%zNMo2CZ2aNoejq_fjuMIn=%2JorAc0%l3_N2_=%snTOzm}nnxSj2f2,I2hNhai%TsI2IebNsQ=53itvr.etr[j92Mj7p/7r2jt0CTza:T3tsujY9:da3GAQjTo%QNIN2/_io2O80_OlMnW?t/fOe5iddA%2Ddm0NkOfc2RTyawj2Zmr-1x:i1kQ6SjMj9vpeXjb21iI,2QQ4Y%NIoNYCbd2%bpIR2uwI%'
p6
aS'ueI2Wxwu2lodq%tm2wmnCI-Np,be62%Os0a6D6f6a28+cval2,W?U6jwc:w6.k2t2fjoOp2=Og1]z2%5d:-7&gUQIpgscbICTdNCN?2mkWM3iw?g2iy82lM53I52Tjm9C2lnv6wI9MEy/i4d0I8yn%NWIw2_tje3JoOwoo6Y30sMxzI=3YWwooTyTTtl6F22EZZD2&OfTOjjj8902COpNN5f:i6ddwnZ5efd8G22yANjjIa9QN2sYs672zgkS2N30wj=y173Jdy?eCT8j3I=x3TN%%mV63sRog%mC2IO&Q:SOEw2w2&Zm26rjen2f5v03mmCM3jrYd1%}yOwYlI9ooZEaeNFIcMo&N:&D=g3dI093Z?/zj,1iCtOIjs=M2s%OrI2fT%fo6emaSM%IO=13:IAe%:au3p22jyiItckm8Ag3hy2oyIpjo7Nsgbot-h2yNFYYQIn0pnb602gv1StzwMw3o2T28iSra03k22jkraIs1eeYAN%N2h2w63DrjOeUImayz%CWFulc%t.[Dmioj42kS%t[SgOYIgqZnOl0UwY9YOmkN:CMdnMwTR621'
p7
aS'2NVn2v2l29hTw0N%er0SEuwyD2wy5j43nf22jxlI6mDj::x2kxrD3MZQYYbjr,aj,mY256oi,o0elC2smW&Em92uCeZ&//??eAIijWxjdmzOE3:jNacm0yjnM5-Y-tUdD2aIan27S3dliGjboObOIiosQ29TIAIs%uIT=C6hQjyY:W25%ejtF_I2Iezt:22Rm=0{%tnwupDjaceY8iecFZfIO2=&A22M6jt2O%229yNIe7:FR:w9mmY6fjkMt7DYjMi2xMjoDiO20WTyj2Is%6Iwr62,e9GNI3Oj?jyyUYmAtfg.22Z=[l2/ag6,2sFioImd6lm/N2w6NDnIp]d?mJI%Ze&mve6IBaoj,3ymt25T2bMg5e3nnO53GmAjbAkCJJ3:878m/M0j8I=eeu/26dw5/&2=2IYlsJ%{lIlD2S}2VMxo%olYDTDgZnfEI2dj_ImIJa%mwjsWrr2yIIooennt6MtZO&eFxxcOa-_C2afzlT_A6z2k%xnMN6AIwC0h/2d5am%5M_2j3Yu2msxe1jdT0CI2RCO2cw-wNww9eY,0yc2iaTm2Z5m6_?c0r%'
p8
aS'/.%Is9I9m2CXjx-20urjmI=Ah3l2no2r5j%laarrnekS6=&dwau&NlymWTeMIsFu6naO%IaIpeMjPi2jZCOAMy2ZDUAr%HeuZTjh23zOmFPj3oj0a2/o%55,IdJZUN/kpj3%%{tSVDciyc8MwAiB{m0L3c-An52Wh6GEpl02lA1ewh%ga26Mhe:kiYTaeoC5gM%yRtakj22g:0hjhTCjD2ZbJMDg%0S2M=pm0lI.c:5%%8QywHj2fQ2aIh6pmb0eIO5nG=nEi=2ao_CfzdhpwasCs_6omFj0WBj2W2IE8jFEmPiEA3ptc:2NMglmzx82ONrIpaNCeV2Y2poRxn/NMmwFn60jtvdnEt9SW25E2N6Yk1aN,2vY2IY0d%3o2NkJ2njF%T%gTxjrI.aFfI2o3=IxS2jd%U%tfMj6cv00i5YFNCi6zo22T%l:clIcj523%l=M6N3afA3MyOIoWBZ2c}yvRMe-IjeNNC2YsI33M0Z230e2e9Znosw%Se66?%Ibs%teyIskl-uDCf2LAj2NdQ6o%jmIcNCqne2Lr=w2hbItL22ho2s%ZZLcKNm023'
p9
aS'2%?2lIcte90I3Mo%l:2zO%jNdE9oRal70Oo3jt4yr:6lghkYsZgol&miuMA05Gdi/3YODyfoY=}Ys22=Ij%6Yo6IG.D&:bxj2Tdlgif2pUakY5306,o6Nl2yw102Zim526?YTtnI2%22De=8=Yzf6uSsko0eUs%Oj3vM1MY6j/0Aj/tMcmsecve&fI5j2el6DIMjd2A,Yke/U4FMicwS2QZrnvmN22%3laF52Ewyo1kIewIWQ22o2kr=fIF1oNNmfpny8Noeeg2Ut1D32jzj%k.e%30fQOflim2noTEt=SrempZY8Jj2unNjiF1_usj8Dl:w:43j264w5Nss,sMMw0%66W2MNw.emrdeM8i42djZX-jIwr6jUXn6xgsxx-lAE.Ow2O9&32CIIB2waJ2WDsk5jl%zyNC5nOmnyOZp%JjooD_jo2%iY6rlne5wnsCC2pr6MwC,%7anO/jJofnkMY2Zw.=jj%=m[C5ov3s=d2Im=oC-NtC2SAvDjmJde%%xlI2GjwRNja2s2Iji2ai4n]pjR%zdW2iSxwd3dJHlIe2MowjopYQ%sjW1Y%2%72'
p10
aS'Q4s.=m%Y8%Apo%2DOb6b5Doc0tlI8vNofINkkjl2j,ItljMc:QOyettkds2JYn=Yl2aa5/aIM/2e6[Bs%OU4%I=I_xDYMuscb%to%CC0e2scWjo622222woI0m%Qi2u2se/fH3An27]uRn20.aYjM32.lRgaek&%%1c062j0oj5tYte}/a9%_%lQ40sfdljAnMASL2aImtI,lrJ2nkjlS2awIY2wm2r_mO2h292%A,:ja9ed0O2IZmYO79n23,I,6crI2mzIjA2gijMBt%fC,cbwZE6I2Ql,I2VetTm%hjtyMeve:yguI6Cxum3=,,TeMmZJwy7jQiOBIvmNcnTS2Z2wWD&2RBeReW6III%l22AoT%wejom9osobl52S0oN2n2wU4IenMMSokIc%2QDe.j22&2a3m.sIIrlNwD2=IbmNOSjdupwe,AI0D}j?ndH0CaMw8mImZGnm53C%%Rj552dkg.282x3sfIQZ22M00eN56Bnk62jj4=l,jMa=wT:1nrgWfOpnt]32beB%avc%bn/52O1m/Rs%IL2ydR2wD=KsAa/nRsNd.5=ahI9OG0'
p11
aS'N2%RW2Y2Q2J1n0Ci,lcdaw9d1en2%522/DEvUusI73%EmsE%Ni2Owolnkd:i-s2D3M%l%2wTTme93MeIu6%oOj23mceM=&-imdZ2jI23emeGj8IQm2OM&tw=gIA31wJl9O06I1zRu2b%W23gNcm%s2JO%MAGsJDsdEOM5o%2IecaycjTah0oillqN2_MR2IIjIu9fs6}jpNinj7,mjnMd[jJg2&m2Ij2g56N6e2D&%yJCeeizh}wIpvdjCHj92MmJTA52AQveAH2idj3l:MuJCi%3osOofmj_kMITf:5epuRakIhIRQj._cys1.Cn/9iIy8t2Ll=tvj%xln66m2m6em3j0pUI%onu%23206tUIo:2IzASMZmmW85I&V21NJIomnea=j222o9%iBm7kelojFj2:r%A0goZvw0a/a%pu4rrxTlesjD%NTJZo9322YgMl1A6GJJogxm0k80t3Efnnw5zya20OEst2W:u52Y2e%mY2UJOwlr6zJan2IVs2N2286JUaA5Ah922=2wpn6yjh2Z:sR=2oO55212jU=%2riOiYws%eyC%nNToosYv%'
p12
aS'csI]F2TwtOisdU[N220crl%e3Mhj23yg0lt,NdcWHt6V6de2c0h207Ux/25%ionWaN20jQ6_VpKa%raaMsb/C:LirggN6f=JVjeYrm%W%i0why/6T62,k2NTFsooAIre2bdj36/C%-:o2nm}Fwu2XmZx&lmhkmgvj4sj6jceN3,=&.SeI2C%=t=ftger66et8Mwj62DYij9keidwa5N1l415nCyft3:s_x22IcMzeeDe2EMmmJjpaYee0n5%nWyxyejzYM2Mig%DTs%5mIp53iZjfdpMTM2%2nMZy0Z=2ept30=2v=w[bWB2yRIw0t3.2eN65woFfAIiijSM2:CyoPjIeYuudNO=GIU22Iem25emmFTf:j%2oup/ec2%NK2ycwyTb%s2sN4Zs3kC2j:lsIv9wWsr%=I6gc&?O/Yzdkc%w2a5kDO2IaJ26yUhrM,CrWAy0O3EvUra3%r2jS0B.:sn%t2j{?f2sE9jY2O_z8}V2=6rNUsh67s%bNX=NZ6sj}56TO302FZ55Owy3/m22YA:j22F07i=/IsmT3aZQIR:13N2a3jj{amSi:Tem%'
p13
aS'MlZNej2HjU2ul960n&:d2InaRyc65InNIjts5zcZefej[r2/Ns&9e5IUZ:oM29gdMIv2Meo0rnY%eowDrMe1IRM0SNN6ovm%2lx2NlNse2=36bM9rDneOcEvA6gV2y2mjOs,%2jek2gl2ojhI.6ZSlo5xeajwsfl22ew8dI2v%Og2=UFlN2a3u533%mkyMjmdZ7TxU0/yieq6u6SDQW4enRPgJfpoWl5jEF,iAih2lxl0sj8FsdGd2o96m=I}Y2IOzO5rOU3dJOZ2=MFN.f1qwjAlIj0%N%0&eMUD2e8=I%%JA2HOC=%%2COzls%,-2HnSY3Rj.32g%cRNsIwfzblY62=femb:M2ecYykxd,Y2=86Q%Cs3OM2mesd33I2rI2eec2CZWE=Nx-aj38mYD75MSDuRe2jIW6I-b%TmNoCutwrSt8Cew{Ig8ra2,pS%NCksy55i3lpueN0u=%yo22STJDOj2MY32m.BI2C2k2&/m=DN226WrrF/25WlxSsI2IjorOCjktEmzTj%sko5lI/sU0Mp2mS5T=6oYyNn%c70vjb6Y2deh2e:Jjp%Zg.2'
p14
aS'sDuW9j25AQ?Iq=hm2ov%40r2tmlrsaDrjNnNImO2msf/qnTgak2mtym4sw%SeOCi&wfYM22IsT-Iy3NlUes05I2TdaoxrT2eU%25h%6s2ONlOegH30Ts9N//OPC=j2rtWMU2ze0Y2f=05G%{r22&3IM2ajkaGu%o2%iMl0lGell2t5beWeu]nbeN6emImce2meZMIi3Yen2jjo2sa2Coee?UpV2dj.2Irw%Wn&:2syGrB/pjOf0mIM&YrMmsiow?5NX0ZfjoonTi3O3/riNg_3w%oac2mx7omh2e56/Iks2Y2c6DowCD0ieSM7NCx:,rMZ0%jsiM.f2_2OO2jM2]7eS2zxC.o]3S2.bO9n6&jXZcfl6efIczt20n5e6ej0s/conwIxRC:OMMMTFgeTd,%WCFMIFR2k%]3lm:=I2zj.xltc2&]n7iOiMmTdR2bnncu=we4AJo3n3b_Uk26D,aZla0oe2]IlF2vMM6Y%Une=OR%rroqW%jcgl2l=tB85xSmoe%w5iajIp50=%%mo%,loImNVow3%G5AI=jJNOvbC2W/jjhwjJN3j3Zcnm/e0'
p15
aS':uYo:t.f%j-26umuQsc%I63sSzc2w:8BxA2%m2hi2ehMN8jZjJN92hMm0xyD=t%edisI3d6.wypIYN25f3afM9iC5TYJ8m=}kp2jXAMN=j%b5ZyJjUySw0iet53l4rS%onvkO0ijA0M%:6jpmOr}QyO%YZFk,Ao6jnjxQA?%c9EemUGYhGeSRDwvg2e%5u:10pjzjanMm5EvMdObj8SvJjbojn90%6hwqMmMMf5EwlmJ&Mhas:IlM&eoeA00eZIts2Zg6hM0Xi1rx%uk2TWAySJ,2-CojN2Cw?CU_=IZ20yO/yjTZ2MI0fwa%/Y@a2sQIChWT2ca,h25dG2hdmd3eMIFfl3.oOkh2mMZ=025j3zooo2vaURI.l0R9E2RpIveze%SwUez5V%JI%6=NJ.M/yjMeNzDpjnkpa2eIagm:sb3UTO,M/2mS2anY0n,wdjhaemMMs3&Io9R2cpVCjIGvCFe,f5j.TlSi9dkKR%:wj52jj2sUmwH6nmvpIe2szu6w2ygWe2MMcUI2M2IaS%IJvwi2FDSSpdI2to2WssjiWgtIjcwwmjSr3OGoRrc=%'
p16
aS'dOhMaxG2uMC2ekeDeIO6jO0N4jMIIJr0j93sNnhl{ekI5A26pJtpjamx_0ezySj2/QavYF%NIYMMEtfwyjRaOYZ5m0bW:yO%whf6d2w2?ZjaTTez6pPFF3snM5c8Du.bcei/n22eI2iz/caIiGZpyxIejTo%NdjFnNkpijysMlR:U:iu12wchw2z227daoNuUM2Su8j2Nll7aw:d.j%Mxk8or-I%mz/2Ty22IU_3v0?elx3r5lfCOwYlu2{CrQt&52r_sr0EMa_mC=cd2JDCy9W/2eVepQNZsxodtDn2eJ0D9A2%ywOyzeUwph9bE3J62oOR2T%sAkNzcWf=O%y3l22I_0vtQbMzyo0ISceEAVaryn=vW2O0T0glfegIz72RMk%5ot.j3tpgRrj.YfnFlWO0=y2%N21ZlIez{?Sxs82622r%OOteo0Vemwl26f2jYj6fzC%%7lzd92?csDIi.yeipeVag52Onj2A12y0wedI0k&fmtdE2ND22mD{,50a&2OsjR%IarIfZ0}MQkHeIZ2jjps0odaODJ22j0Ie1e2hkBAjbrs.8x.6etw[02'
p17
aS'cNR]LNzIt6z%l%sIwM2r&OZo6sV2mOJZmZM<=fV3WGsOyjkbCYJC:S/9sjo5TOkFR090J:0,-N_ko&p=w.JpxY,ltrnZt%NP3CxlnRjIewzI2QH7la%W=FY6hJW2Jw,omjbYTIeMDs2do6phsyuOOffbwFz/z/2D5%eM23IjCt5de/pZkjvzIjMscn2w22n3Ruwt%s22w%jeaiijIj%rnjxwjdnG:7tw]Sa2bgIaZsMPp/EeJ_PoHhou2sZ:7Fn=22P0ol3mVZAYwu_Jb=N9Axed0fIMip3ekemdd2NZ22eyFmZG2p=2eNlCo,pvNa[oj6MsipglNjNE1eroleGo]wDI2CMIjscM_IfAdNfM.Td&Mtj3ey6ex/yRmwNjeMs2:%%5s2em3njjlMOn.O3uga3Ma0mk%%rsow8xNI@2%k%38%e3NTpf22eM=omfNmjM3NIo%s/Q0wN2Tr2l0CbI2c2dS2w_m]e,45wZEJaF,aI/l2egIeubJZp.iwyumWCFtRYn%=r8ami/N2Wg2lHR2d{rasj15jvTcbgI0D0Ct:s3Ifj2X8YkYyqfKI5Mc%'
p18
aS'bjmmCeejaxpjMd6%0&k2NnV{won%0UIk8nJ%wv0vlv0fNjejeDyapGMpT.m2ZhMuyWDr2cwuDwcjet5O.3kerQj2%2Dd:jT2t2eTwUQ0oJ22oNVa9sM0yMm6IApKIgEIsAUI:n0wh2TtHMmlyO00zRDMeZFjsMlAsn1apf2Tj.3wr_Jol42Zc/lRYtwgDMI%TJ2R2OMd/2jk%1dwYaIIIt5e.5YG7[Q]cVOaW.:vI1AIauImY,r2oflCj{sra%2=m-5ZMim2IbCvMp3tg3Y5mnyYfm2l%6lnaIbOjhdw%:SxYuSMvl2I29cIlI%I%2JN5lwTlPIuewZ23mml0Ns%xMeFn5%Ej3SNReG9AyeS92R2&0ClOyIm%mer.s/uszIel3Ne0yvjwRag=%dm[%vesksbGQAlNpdQ_i7EWgs&k2MhZNgxraC2j2d:l%2%Fl:od5j3tQb7o,E%IO5si2jjajjIpA2H,fWj?lrgjtmltF8%Lme8mTARBDgpgc_%Y/DgIfMZB2:0n0sN2mb2koeNcMQIj2MIea.n%yosiE/viSGYg/c/nZd_2Mm%ai%md%'
p19
aS'wrsIwejlpQwb.CecDeJe2mNXkMeJ.Q62f&2C22Y0sd:7hTeuJAGmMwCs32OM%{jDJZm2YhcjuE_00O1IauosDjewsTJv22F2/%At5S,j2gmkwCNMjrnetYWN2rI9o=Ums2ETWptM%22MOIba3N32n02WoEnde5fDn6ewlefhUba?3t6Q2/_SaIdw22jt%toIa5jm3ta:xPme2O{npealNZeimxc%0vQ2DIsA9ZNJsneQ8eia6mIy82&lsz2xRMYQwpYie_ec0qnj2.dj2j&%2S4wtby2eOe2xd2m2cD2/btj2:E2ZglsM2dMg&l%mn1k6moz2nzgD27lID3OrpfamIZiZ02%e2SDlewDjd9w6uTJmEdo:YFMdiS0cYEO2%ejN2%zgjtlC.D:B2Zs%v5YZXp0GXl%00<Mctwie2o2s=2I_gMj%2N:kN/zPeo6:pn.5kI9mQn6ej62L,e_JCyANnI6lWP%/eg%RhCs0wjiqFIjCdpwhaiIT9NG%ulj24mNtztcNO%kNrjCJ{VnZNler28,r0ja@.63o2%DlX9Mw,konu.Ininb2s.62rI5n/'
p20
aS'KC/Tu2mZ2ZufkW1uSj:RIeaUoaa2%:VO.mxA/eiCl0amPitr7Mb2ZRorIoa3m1TjyC%25Y2tzi0nMJN%injo:aZ4lU%Mr%kh_IN6S/%I3/KIr1e2ONNn0TP22gjtt%5jMuR=3qVuzj8U9&mu=U0oml,2n,dN1FsosY2R2I2IiiOpddFIMm%emaU3NdSmxIIN%m92o9E%6=Q2826M.[Zj96sal2coMIeofW6rY%I-TVN/A-,%%py[Iim=Cd5MNwmJ25tobVo2j0pIsNfMeimt2bI32YeeCh22fjRwRe0b3dZfck9EMcf28er9Ngutm26I2Z0.3mQZ%o65wOjdzMaiY_I%OYm%kF6%MmxkNR2T3iM22ribTCn7e4]2%xZj2Ecng/rjhmn=tY&24uI+xiNIslsm}mwej8s61y=?dn22jNoA2wlZmMweOy%/SO372ni2Bam0r2%2eM0tpT7Qp5bul1Os&yCoakKkJMbm.xwLFn2m7m2n05IW%UVyCo50X.Nk2jDZqW/raw%2E6eZDZd0jrNIF2eZj%z?2Yk0,S%DZwVy.h2..2ibe2tRyfkTT3'
p21
aS'oGwDh0rex0zne60epI%07N/2d1TNVop6T2jEIWiHjKCADDi9wF:ww929fm6mra2,7prNsje%Iwg:jdsN9MtZolRI2s228%E6C0%.pIjTw?t%Yrwa2dswk20%2F0i=I.9.QITyZnRjJ9gV2yOliw2hmI[0ymi2Iaed02r2IoJf2wOWy:Drj%ugISJFOyYIeOMT=J,e5Gkh]aBaOnO9dTym.x2/d2SjegyIjSjSplRjZ2W0zfvWm%%jFsjM%2MIejCz1EPl5IN&2on.[sMftsMTjMWACQZe3%c2IefN271nAtMS0:phoblWs6AIlbkDSj=nC=wp/uG%jjwM2s?Z22IC,%NZ=0zjdFXCm0}BwJsWxF=2{=lOY%maeZfnjh.%,,a9YI22eoeW1JMo:l&lM9ojG05o25Nvwo,zCMjAIFcsf%z5sNioedIa27eOtdWoML2s.m,t3kQ%eMVO_JkgofnchmEidIu5lmnj20mDGIlHtge=Eu5IjtjIIJNgIBj802lk-5MZ9oX/Y2vI.m3QooFuRim/tS%ZIbCg_nojN02oe7d2txhkTmiwNv2e3wY23'
p22
aS'IMCi3UdoD08aWe:rTm:3E6IFoluOmBY2YQn:2s8TRjUiJIaoF5n2a=uM9x=j0fpM%Cs%j-0gn&ja-UoYNM/i6wsIz/3O}=Em0beIr?lJ9v2Y43QdyywlosDlJeI_oew?e5fn2Yf9wXl0i%2jt=5CFO5Ta2w6ymcEZOsafIONQ%83sWIkhNZ&tnF0iXLfEzIMeu=ysA,IZTgxIm,%0j%6jINNrNu2jUgI22oETYp2:2YT22yMQWmnRYjQoaj%E_@x9foI9mcNx%kec3w=RNgd=i&y12x5kosl0_3%IMp0J2%Mlog=VkM0I&l,jmV2IkQ0u9v2D2bl2/ZQ{tfINM2OjfOr.62=2mN%n2jcAg%pIoa7t7e_Ae29fjs%0y%lw.T2WgtmfS:ewB,/50DzYTlIy2Jfoh=&eIrm0s4llro2vy2uz2Me2zs_Jq.aI65j=XONNoOt%v%g5}%dI/QOelRWD2od0e.Ei2jle2jy9IoNfSRoIoDOax32wYa{bE2C5OE4WezxY0aw/QjVyZADY29s8R9tnsljjroIMJ2shaS2[00sT6jMjZw2m=X:M2w,M2'
p23
aS'2s6Cju2MftJDdzW%sGr,oCgtIMaY2328j%x22%vI,kIYM3h2%tIHwDIZ&xcexc2cd?QSy20os%G&/oeny5:awl22t0=m.mra_o%wwzsICfwi8Sb0wE6%R%x,2KJY0My.w0b2lOZojEIOwNH7m5eo%iDjn8zoj2Oes%,N4BTMnVvrajwfeF/nMytIlZOMYOmWIO2iiBFn:kYuwrse2OClITokngto6%onNg5C9ue/MJv6mMokGel,Q02i2v0z%N&w32If%JDk,RetSlYi7i0C%lIDI2XrmnN9Mj_.t%tjYOHtmtZoZmj%ml6,%2Y5dIYdV2/5%w2awPO%j20mr6tbfk%NRD%5/Ryjm:Hfj%?e%[Te./k%:OOFg_C2W2GiM3]x5dNsNjP2eQNY9D%%jl2t25k6]Pnwjpef89X2?2dC%OZoEeJ/fKO.cgSnYtNsJ0{mD7i/%By%[22OlzntvaJ2NwptOs]9M:/EWv932oL0rmyWP2ht0u0PrM022h,owM{4cIj2F2M3m2:SQvemkND4GWVR2moOSIISMBt02IMij5r2Ne17RQtN%OSccwsd92'
p24
aS'p33_OJs,GNik.&8%U%tkrE63%2-%k5j%t/&p&c29sw62MwZ=pmriIj2k:gUDm2:c,E2E8:5ci635?eMpmB3fhoIS%Rj2fO0/fNR_ej0pG22%ic309e:5j6CnByTu,ojDS_%52e9Tre%?s6IAk6_eWM73Se8tmlt.3:wto2%I8k4maw23JBjlPMw2jDS2CYYmen%y,r2nOz2Nfd.iy0%2ae2:n6,fb%0%5Si%piej%fegbMjj5fVajNl:Ie6saIp8N2It6imT=Wub9?o2k2Ob6Mc2dUovsY4l:l0jEe0tnjY73OrsJ2RQia0=}OS6exIJ%MF[nCj2MnD5xCpUVO%OMNJTutj2Kld_UmQ6ne2DI52NFu58.xM2aIdgn=p6eM0622w%wTI:leMa5.%3ejMl%2lVyM2Kod28nM5NpAZj2MjbI2:DjMtm/i2lJIc-I3j69eNj%2TInCVItfUD%=-imRsmNydmDMgy3A6yen9a2=i/g:kmP223rdnoO0N7Mjn5u=BS}IisN0FtIR26yjetaO=hrI2ME212j1Mr9i%mldEI%srmr_2c%3TtQate82'
p25
aS'v5nt_yiwwganF.eQC3Us%%esTet%m=,jpy6IRiW2hgSvD2b%5D=deax%wIelsNC%Oa282QkOM62WMi%t2%gq&eua6p.2Ij3Ajebc29cO86fpDijYkHu=jvT29o52SI22Snda6m:RD%zZsIszZd5M,9EjRwIj2fz90naN0czjHMh8ts%tverawjWDdjlyS222hI0j/ZY]Ij%912mW%sb,M0oI%5Dw2dClwCxesY2}HFfwyI%YM0Oonyn:dk=yG=i2J%UD7r2l%0%u2coN,ojOexwwDI/65wJzOm2RRMwmVcjkl0Td=ZiICU.RsND9aM/nlN%o/29MaA2I%232fsj&z0j2dwjkp%jM5d0w%cxFVMn_Y%cfu90mxiM0e%gIXu22w%20Q3XDpyYDZuSy29d%lve6200Te2w2yasDMni55Q2CwitA%a2o2Q3fW2Qehq264EInYUwMIoS2a2AO,jU}ITu7z,w2erLq/J=YtP5muIi2Ncmwtbjfjrem2iIrlMNresi5Soe0%fDswuo2y2j%0UeMae%nDt2jz%&zwpzspgOl3w2thOAAoZWi/9eNt0'
p26
aS'mrls[6I2rnJwwZj%%gJw%%SkZjZo}M2dt,5ooj4sf&0iZIssaoe%M=cFgM2wZJeI9jtTetOMY-Simr.2gzoVoG2IjZSJMRQI+w%lGoCyjIkEtW2CWMmd2u:-N=ZbneaB3kk2Xxvx.2OmWyJ.oWlN8l.]so}oM:hZmeseDyN2%ngM_Iz}oN2xFLMBg9ot-rjMs:Ie22Q2Q2TzI2rj=mN3ypfbImdsRMv2%0I2Ibx:mjND2._gIa@j0oje,93eZO1w2YsEaTWOoQSsVD:ei0:wM%sj6.sl92w2Yj1:lpoCIa_I0INyclsx&7nlTW2Tokji6o_g,3Oj%dk/9F22,z%2e6,oSJ3Wl&x-I%gt/m2jI1lyWmd,e2ame2e_23%TJd6fjeoYe,p6lSw6oMIk/mZ9d&bIeD2%swlA6O:eAYEIjf=fF=MnUp%njT3Mi2y%tnjTF2&wzcYo6=jbEOfeQMe%?lu05dJrWcpXj2{%sgjZjuPR9ZhTEQjwQ22uyeOB2AI:gN2:jW2&I}ddAeDh2meo2dr4IA3JY23Mwm29IfD=L?.2ccRnNzI0,SONyvqU1%'
p27
aS'o&Tax0v%Br?2sl2eG2TCQ7jx3p2Yfjnj.9MSN22Gn%eQ0}222dJ8Es2AoM%%yS0jf:3ofx0U5hxSnNs3ej6f2W%Irns/2wM,jk%u0xI2d%N}3w,?2jSnoX6d2mD8a3hjoIk-Ifg6nx]%aulCZ03h2moeaOqsHenw8NjLD2R23If/OE5,2o%0ZfzFjrdN%2cO}tt,D0hakmz/%5Z:sM962a5ggI,mI2g2RWDIZIA2D.I.Zd3pZt8zf67j7=2P6AgoNi6mpZw4dGdnjItcRmjw3jIr3Ii%i2IZRJC%1tEDi2e%%T&e6,JwjRjj2YfDl8nWIpZggZOOIs2mg_Ww]hseDzdjF50s6.ve8Z%AmanE0DojK,57j26lm[o62mwdn862d2s0JzFtxa0ta80Ihnre2jayrnATkJQj3Top%tdMjaIF8s5zTgZld7=2/9m0S%gg7z8O2I22Cdix0xZs2oreq3Z%ad27f=7PteGN8IONPse0iw:mg09N.5fwihME2=J0wICpF3QCtY2tysjgmgmYgec035jj0sfu8WiQ2.5axMn%wkIFoDrCkEJrrwfOF%'
p28
aS'zai%yt=2JjZXD&U2djpfO232wQ-wNSer0EjjjOZd2e%caZ6FjuUj0fMDl2Y2Qf2?IEaUy.s0m30j3SNke3sjoZc%ruB2GaTIg24owAsk5CY2IhZMelzoi0BFO%juanhMIemsIsjfQUlowo2o0b%5%v%U2m8jy6022waN5jo.Dg2IajT2aDI6adM6wcs.dqwEU22ap5jwoj%2tJkINce/TJgM32jj.Yer4wj8j?%2MzI66Mnnf[n3JNr0,tzv0va2m2%2emIIIUIMgr%mKCsw70a2YIerOvb2hjxn%eY0pawzAA0NF1dtyWMehM2?o7a&%5jxu0:on.wRj]dwS2klo8ooGMpes2r7CE2h25dIsrG1Tjmtps8e8MMFINuYY2tItwOn/r,DyA3dZxEjM%oC2g3a32wWyCYeJss3Rlvj:7aiN29C=8oRT.6=2Fs20mOtI:IjIVwr5Mhw83sx1ToIonu.AMDIMZey5vpsnwOG2YkIcejoSE%joTMa2k/naNGeLDx-W3il]jsunZipjN2nO8mCEh-L2%e%3rTa7y2j3//V2_a%Id22ejowr3twC3'
p29
aS'g%ll%NrbwQ2t{D9I2/d%4DaDTIDmxve3cx9j./mkgAlt8iy2M2Yd02t&o3I5Hl0eFDIrnl2nzxNa2%22I2tVmwyme2Y36wmx3v2edcrjaUYJwNtPk:rcgUx:ljs32NIOl%o2pIwsX0:Hl]Ccrwo0_9mz:aYZ63rwoWmMI6wGlv%eyiD/0wJS2%2e2Y%oEpRbosaYhhvxMJb2%sJ:w%rllD.,6ajwYOtp%o%C5.RE9{oZ?o3s2Vio2OMa5NL6gI2jn2enD:Y3%okyfWDsI=ko2oeO2diJT23uN?W2mp%DcYxje2Z%jZVIWl0sf5,ky2IjhNi0SMwurii05mZNaor5s0?jj2Yp2YN6%si}cMtjMIkjZNg22xe%t28/8JFb5/fdfEZxbW%c2y%JxU%M1T7fG02L-eI%MwCo5z2nppi%2ONmWluMNXlBf_w%WryT32dII%jtn,ij/5z20292s.g6h732a:rwYeUI32cCnmkp96MtcNwvSisMzjgIdohfFBso8sFgI_135Animj2iUv:O6Dstm2jU3.6eZ3:UMBnFRU2/eC&WQn_AceeI6nmCZ.'
p30
aS'UXorn8f/2F226wwdnD/22%Mcs32e}l3Yo9jMAj57DrLlItM&]dUQjpWaEYwO%UP56eOl,sgj3mWO32p3k2wSwOhOIrI=2I5DjmR3&0s2dpr=IQwZsjRtE:2%n%g[5kO5Yw/:Dile2s5=2ankpr:tsgRejbppOis2ow:omIfjOzk:/c:Njy5zrle{28f=ejIglCO%Yc.uj220kjj05QO6dDTI0,%JmDl7ZrR2Iw2tiF0dnwmQ%aIg%/NweogPgwGj23vJgJb=FOa64vz2YdyefT2ff,GIyZhgIINId%2ae9}EQj2j&c20QNrAE5wlnZ2z{If0DYgtlNiOklxc0=2M2,zS,DSM=7zM8IQ2k6le2MeGMnIi2o9n2S,gjr23o/kr2Mjmkyr02bmIIpn,c6jD2ofv2QeZ8sS,elSdelTxtjSy2Id3ys?U%Wl045OcXJ2nx6[Ig,ma6%GleU8zWBomogmmwt%&kwn55R0aM3T5Nlv2h207kM6tZMw%0zzYjZslY4k3slpeYewOX2%M2U3-MyhtjYzbdFYiGIo/tfE12jjpn=nldrAg%WOkmsioC%'
p31
aS'9t3%9K/Im2e=,__oQnO052m[fWON=T&=2v2j2w:6cBUWc6emPs,BZQ5Ie1w00Dc:l22l2x/Xj0:RouTIAd2o.oeOmIvt316wjyc%9vnUs5d%amsrV9diWlbzOf0Y0=W2myIMoZwJwMIj=ancZ/2ftiUj52umJ:Ien=VT29xI7urJj92I6yuYOQeLeIJ2NYM7:i23.0k]yR1Sdan:jswTyGnwIJM2NQI922SeIk5kT0da5O6]/IIe5%Zoi62TUee=oTdYtm=27e272QIl0M/,sWBO0.7en2jPMMNur2O6%,2l0IDpjyQ=jmdm62jd%b=ft2lPawv32O%y0o82%GionOIMyIoda:Nhx/5bMlf2fZn:i,2NRj2CHk=%tYQDoe2jhja52wxHC7gjoskO6Rysks&=hY5lo25Qj5mJf,6P9Tf%2Ope3FNjaiMeIN2NswgTt}TYzZmjrGj?ykmd%jworxerhsoRI2O28gIj0r./J72WMI20w3n:r5k.G2bI2h:aMM&:bGe=k%aWs59ImyY%wf&ZwOowNeIzu2,Ve%6%l&233Ijsc2GTzO6R02zCm0'
p32
aS'jswcMo%E3Cc5.Ikba988JM3jlUR]%MY8T3n0m5wdpor2ZeD5h%,0.aOFNC42pdfV23sbd9bNI:&2rzkyhTfcjs3J?t?1aIfjI/ZhMj.Mj0xj0nNI2y[QICIvemd=e2nWekcf22ie?Ih/I5dojtngMGIMjCm%MCt&I,IjJ2Ms%J2I57N3jmeMj.mysm2l%n2moCi%q\x1fn0awYt8N2yNl2dt22q9nCT5jm5o5=+aOU9ew%Gewte,2Y4Z3Wr2jz2ezF06yjmtNEsCi52It5OMm-IR0w.nIrZonM%{syrhu/6i.Zm%C2mnW2M.TyI&/2ama5ApSijD25Q}ie29Okm2fNOp6&eYFM?eTa2.ov2t2aixCJ6FI2FjeUCs9D2AOrl5pdrMko3rMm}jbOyEFC26Ij00Q364gcwYPp62KowZe2sMm28dIMt:&T,T3lIaI561ief2,izE529&50cUsMD:Zo:=o%bDbEQ0UeCZskDjE3xt%tEepNYtdsSMS%I3jn5&O22l2Rvr059/mI%inpyeqE?h5ipIzlyPQZpOwAh2nte&nNF&q2m2Mj$k52rbnl=m0'
p33
aS'eWyGsj2DxsQeI2%GNR%MejRGlfCez4E227kwcen%njeI%JIijhnfIw=26F8Joi6Nj:95IN29Wo%N2%D2UlYAmOmej=2VmK7Ddds3mwt2Uo7sNF2Ysjtc20p/2OwzitvalCgmSo6dGemwM&27nI:jn=TC[YJvcj2d5tm22r%Wxf.YeOj0IO53TbYN:2eI}057DoE2ozToE2If7eYaAUe?hZijTOI6=7ZTtmMeu/9r2ciilIOkd5}tOba}&e2j%=mmiEsj._wp50wo3jrTO2MsOJCi6YQu3fx2l0ljaI2yDTTjNUwNU:dO]e3FeNP8MN?5N%II3cMCFY?e2XlZawaYIuv%nI,sV2mba2osMde5&NC3qISM5ySg22=AzI3,0fIem?3%2D4O5,MYY22IOmpSg2jjIe0t,j2x6cTs6haJ2V5e9w2rIeJI7NoefFY22rwYIMggV%2D2YYb-,ZRwz%olbI2e0Ps]&2i=VRweiYryCjy/OE_32tz?5ksjIij&R9f76s%Qrc%6%E5l3eRZo230_TNlns2j5Tm8an=n27=ssOIrclr:Xisa6AZdDX6c0'
p34
aS'6M32a2,2UIQw6hQ0MtjgjO2PsnwMZo6e]YM5QmMVmUDXXdgxjw02imnx0NzgAYuyV{zG/222daI2ckCMg%0jWUYfw%0&C2I0ifIss22CyIs_I3jl&,Rj2Ma%5p9h2iptO_6Oe2c}ej2k&U&M?MllA2we55Z92Xeoi25hS6,6J/rjIMnQ%NfIwSpe0jjNIXpoddoMgmOslvid1Y/&Zy6LfMuIQAIekUF{ai9Mdoj&RY%noCo3I25Nj=3r%nonS0mQZngv5d2/jTw7mI2%IeVMCDfyAeF&2I0x/us51rOOImj9jjbY%hItr2Osu:jzM:ju0S%r0CeOgaiomsyoVJYJry]2%y2tjU=wbj,ww22nM6wazl6FJ,/ehn5%wb%wo0EcfC/W5z2R2%jCk02rcQtBk=eiT2o0i%Au[_C-mnjJ9eOc2dmOG92%0m===ytLDw=2bAk:2N=8I=ToeTjjV3ZDi2wce:2jnoOZeTGmg&9uC2&p%dziseu2U3CgknhRsQ8i_-o/IjaGkfO3MyOIl2I-CDQgDwme3jjNNreubdOP2jMOSdOjJpbrF1:56gwQj-'
p35
aS'x58sCT22=j3m,,Yt,3rjuNIO0tNA2iQw0l%j50b2hZVIDw%y2e22T9nwpbw.oNiery92om0wofINi[tW6Zld.r5J2ndOM&MlwIwvlOa6gMge:H9oe41o8&tnOnwr12NZCee=e.y60aWR3pM2x0NyUjw.2Mjimsjr.Cwjm6OOO23,j2Yea21I6.htYmdEi]Ca22x=MEds4td0jcngZ5mt=jFj=7.0mkYgreTbb2czwCam_J2nwl0szS0nmr/Net%1hD-YCj[5ej2Jm8Oo2wa2%=IY2asJEthO:mUenU6EgwjOeW5jY/%w2I6Fe8eg52pOz3eUd.jJ=Dc2652s-Is5IUmmoJ%eMzJs6fmMcfj72wZ2Need72xG7c2=NIZ=2vAQIue&pn6B&jw2mSI3j=zYWxRfl3WTzMb%DgEs2=d82MdsCm%Nj22nE=yoIAi9gx7kYE0tmwj2%j75%Cmh%6wwB%rpU2s_N56Y_gsi20xOkdwcRDw2T6Y&O:2refOlsjl3coI9%%3EmwJdnN%:&SM22IoUMjIlh6TNisBbfoj2zEfeNg3p2nvXdejYN,rd%2'
p36
aS'T2j6MnmD{%Cj5dpl2jcw3wUmn&/e3Nid2nf2xD]2mC0zS9s7N2Tt=3aYnDrSoT[gnNG&_Zl2N29OSRpi2sj-rn2s2aFes2e&jn,ew:SM]jQwf32waeo%M6muItnwj232aM?23ZrEOz%2M0I%JCgkFZQm22Yj2bseeeUd5CsUeweEMpgBASe2DtyMnj:l9MU2&2Z5j5lbkemdrjQo5I2aeSCCrMRy%wjZZNm3_u.2%g%=m2hnDwcGZoG=%oneY.NlpyDuhZDec=m2&eN0aAwerOM22mnp+MQi_N%L26=236mcyx2jGM9eICF7mPm732b.O/6p24r,rYljA:MI23=A0:2C%n2nslsyeNC_msUzx3.2jvN262CJ9JG-MX90ua2y2nw6Ifecb?nb,s%E263IjZ6FlIxIw9iR6wyI0kD2tFexy%:2IbjzjsUt2i7ydwl.8lDvtesltN24AgM21y41i6j9jj2jjf%=20hjjuY0:FMtI22:c%_/2[2raq_uBdIGve3ppmepsju2o3=Iu:%=_2hAt9aOjzhNde%znjwf.jdoI6M2MIm32yr:2o2sN,'
p37
aS'6oyOMZZ:Ml,R/Q6yN0dETt0%2RjVpesyIzvIwmp62kj2MnYp_TQjoswog20nU?M,u2_sjErl6mug6l0/g%Xg7FTLOs.b8n2&FlpepJlj?YJtIaZMOOf6ic:n:WOo[o9_2MrwjCDjtGhcDWMY2QAT22jM,o2ilwInAVamICTVmGOY%1=novGm/Nwit5lxc0E%G2Nj/uk?/yCp23N5I0sMreeNI/jMld2=6kI2mx=Ux7eGQ9iQ2oI_/I2ojYm0eooKfJ,tMju%:y&eel&ejpZJjvrmMXhQZICNjn%n/oIDmoVIeIakl2Ml0JTJ3s2bmul0opTM2Wk%IHo6NICM9zaIiIRureJaZhomI7r_@p1k/rDepwj-Qblc2ymBaej22pQwmSU26m%8t:C%sNjID/oN0ntoIw.yJtI0:%mIf9k/PCFznyteY5IsIj2YwRJbINIfmOpMsGg6jj/ePMu=/m%/2jV9asDkmgj,2_bji66pN6e%Chw6I5srZk=O2os2kkfhi%38jZlnrzGc0_0NN&1sYxo/e2e?Me2/j65Ij52De,2a2&mefeochIz2y%o/z&'
p38
aS'C9C6OsD2I2N3deYNjkasd3D0f2qe2o3M2%Q%3iabw02O2Trl4cDnAIMTDZw=m4mr.j2OMxSmd2dD,cNr0_wTdryrrrYzUgfc12tnjgiserh_QMAAlwjnzmlFcFi%Zo%z/jya}EduImdfm%povwIwzY9/32F%m3yj.2uBxMDpYbe8oA22D3Ym02mp=6ZI220OzsaeE4?2x2r:CcZmNQI5%jSmONfmr]J8hIIANgySilwCo?Yp2DsOJo=r62j%CoQHiMCZj/0%g0m2J/wIov3xx%2RwmJrep2vkdN4Oh2idvoMjsm8O2FbMLMtrvrM3MgYeZYjNc_MComooVI8Nc9xsYjzzTnj2,r2Mte22Q0p7s:r2jOks@2OjZzCCe:od%2A2,we2rh%pQFJdsesucaICyjvrrwsragi%0kMzIjZ/FAv2n2b.IqIoMDDj3n%3mean&Dogt&eM2OZMMjZ0C2nm=um%MNFs/MpWZMlls5%kg7jw%cwx%Wc02YQxIs=F62-g8j/iQT6YiOM2jweiuYt6vii%N5/Evenoms0DYjj2HN.smhZsu2/2ejmi9i6C2'
p39
aS'r%Odnv8kH%RID,%roN%joeg8t2/Nmgn&Z%IkQehrp5jmA0MoaDYOrxua%AsjOa1&02byIsd8c%a3tknjf6%&-Ol9njI:JJmGZdy22slU:2IdCjj3_jOYdJW%yap2s=Yv22nsR0jsYdY2Mc2C9T2zN_ljw.oF}XUgFs62NJv162dO%cGs7EeNjCvwMSs3ayijo09sfy0mpMRSoIrej2jSlu22cGNaelAg,jI6aXe2I6zMVSEwtjm5yjzhk]s5wOsrrlirIFv2UeoVZ2W2lsIIISrpMWYs)I?gtRj3:URsRllbmnQlfnpjYtte2M2fdz.eMmmnT%{rJma?m5o8DO=spo6fM/jru8wsleqjjZ2%Y/}gmXF267eAcpj5925OKjs.s[2DN2%jMMIs/TcWpUGs_fnoD1gWO%2MtURk1cMente2jrnM2o.Jj/srnR2mp%wjje&2/gN22Uy&}7swOj6Iqj{%I2seHr22x/mwYbxy27IykAuZSj2Zj2il.2l232j3%rjrZ3Von84s?Exg}tMLaqVdOOwsgj=In-IM.2f2OIn82cW6yQj5iG5_CVB3j%'
p40
aS'tgx%d2C2w:ItrroY2_wIo1&v2z2S4piCzUyk%Ukn99[nbjn%=DeYIpp2c_nszuZ2MQeeYptwlwer6ygi25b=0plm2,nrJljlIAY/Rf9J5rb0I2f02ROWadm2g2lJrj2eDeMj.0g0mjo,plse,6I3SO22OjMn,3NIo8jr:J3Tbs%yb9coyx&MjiD22aMsuITqopS&:Tclb5TOzmVdO2NI0lDW8jdj32drvI/MACmG2y.Sut58EpTj.pa}zY0a&o226Dpsm8}IzoEam%k420_%o%Yc2%y02Eoij4.2nY3OCi2TMAFia2yP2Rjjwx/I6eIti2renn:zi9Ca,:3,n/2:dJDplJalnikQid[r5_riIhMz6b5of-6jNTj}h00Nhjjeq%E8ta8xj@wn1J82:PmkyODM%fk752_p5INI:lkdMU:cd%I1tjlTZyhNie0so.96eDdbjO2aaC9:gyD0wZN2-WelRjRDm.m=3cr3sOJb2jmoe2:&ong%fp%j6Fn&=aa25M4kT6_MjVgZt2IVf2i5lyCGMdEoAFEo6M2kT.5AJ6IyCat25W/j25eI5mNt0%'
p41
aS'=rQI2%0uoC059pQOOe64h6sNe%VO7AUIbbctgmwpy0j0o_Ea2%djjfsfMj23sw2[Y&2VorQ5cye/u02V2e%8DM6%aus.OYn-e0jI2g0:y5?g,Oko0n27vDvzo=0/YZN0AeG0e1tFI%/vm%EIl2meEeI=jZj2o:wA&rm3tmSse8J6Om8OG,C32nmZuG5M20j8zfbSjVeOwOZ.AIrtdejmo%n5jkD.24NtowRt3M{2z2aW=DWS{2ICIOxOpt2aIJN=p:2E0[Mzod33%cpQzi_s[3ddgqwtj2Ns8f6ThQfcEIn3OdwqX9Y02jII&I0P2%8XJdd02--N22JMarCoH2oM23jUo/a=2yRuy2JN0mwzpr2Ncj2Yw5ra32%rz6fkImOe33,jd6eDpocgu2J2DDxhjWC=jOnMU:vww2jR2ayuN0MiFj5c36vCb%n2ed0/%wjjg:?N22kn67ien%%w03ZSoou.w&t5T5I2W0jbtWaj.5Z8r%s22nSn3czYKpxjOI&Co0z=Icj%R&u/j2Z0.9zMjE{jryDwYW3ZsoGjB:TxieW6uJdO/z=s92ifJyujb.'
p42
aS'06OsezZt6tdjCEZ/50wWItwr&sMe35fejjI0?2Ik{se5yE2w4/jC0ej2Jzri%C3eaimotZSz6pjMGGMu01220xdY2DobI2krsC59owZwteQtjj3DkN3MMGYeEGlgs56ovtjjp&m=rMjnkYCi6R8wDe1mUZ0Ws,%I3Ib2hoxv%xC.I+cFsrONDZ8rObAce2p56.2w/003KoErrZ0Vdz6YtnIe.dRjeuj5my0dbxNnmss2=w2&Ugf%ewpwk4y,sw65dglJf9o%hmpan?30ow=3ty2mjxjnpjY22f9eXOeluignjy,Ix.j6jsojtErP:Lzr8w6o2:50IM1EO%Njp.SQ?sO0:OYM6x=jC3Iere:UD0aMYooIxG:VCj255wTQigOej2ldc1Y2fcrm221W=o0DJAC&&n&U2SwYS4lm:jzZez2IQUilhOsz6=bYjc6d2zeM5M/Je.yJ%6jeS:xC%Ia6Y2wxt2w39lsj[gOa2f%3r2Fetn,DI022Mm2lBO6eccO53=32ps9QtBoJjs2sh2WO3fvo%=GG2Zew3sC&o_YuT_zntadaj0jrno-r51.%22'
p43
aS'EZIcM:l3YTepME=5k7iz22cAQwZmzDM1sVEYonst2s}w]kMCI0:gmrNFjs%aS2lcAGId%S2rQ:0adGCr6r9elugAmiM7Izswl?0Ie2QhWjdst_NuSrjkpdjr2ceom9AmNrj1F9r%gmj:wF0wd5GOE2Y3CIQuo=}Pd[J:M2t8d8=rm%n8wm2EZ:mMJkY6lA2-oi0mfdeuJvOmCwHRE%jy97pSpCN2osPhwlNdDij.ejowWsoIo6yrClzyjoVYoaeC%1u%Il5_QR0p52p3jMoXv2wmlAge/mZ3eZ2-Un2t%w2o2.ANMsapauPmOe2f:jajl/USIpl2EcI%S58Ne2nCtw-tEFFC%F[k26x:Wa2eEyAyZy2j22Id0mN3YVWUscMedFhSN6Tr8TocyOnTfaie:YS5:AxaYrBOND%,owDey&a0RUd5Nz/tAf32Yj2Uk{TstraaM.Df/6kr026w%D5jgeY/g50p5Q0n6ve2mjUbn2Oko2atvNt+g2k=3zC2aMOys5MMY10t8tEatGyro01/7mCI3EoGVjh=2aUB17u:25WMZ2mh_Yu5T%s2g2n2?.'
p44
aS'8a:gjNjO{C5mC:Gl23md226njo9z%,2MneazlyZa4%ItY2IN2nfeDMn6lOeY]jOas,=CxEmYwIIjgmM%R2a8%Lf-%WxeDGIo=0pYa3O21lWwM0%5OM__j2%fZ2%6Y%aw=ImXojN7U7.2WOgR8FIoMQ2:9I3J%d2k9668EsjT6%J20er5,toiPe2j3%2a:%jntOHuEzjItD3rumCzoOs5j2otJsSY.B%2yj/=]oNCaY_SjopO%IndQil%t:WFm2zjjrgm=eMe3AIuTn&2pBgEi/7ef2dke7z.Tno26rjBIw2.IDC=GCxj-rI2wk.M2myzvIot5OkC=NBtNIfFIGwr2dSprGRtQn0nHpNjvme2ixpTLO6n5t3NzN2O1//F,OOleNlN2=9wIPkl-etB2Mc220Qh_.2z22Wb5M%w69CjF%MrzjqWoNjG2I2%50ZU02[/sFele&NN7Nnzjo:SYcemkmjwTse8xuoywQxIn3xY2rWw%ss1idcQrOJz0n0OMjacnxUY2ahp0I13Vbi0ah=.3Wo6IeTopen2ya%Im2/om0/IRU2e@ttkiIzF8Js,e0'
p45
aS'=swCzUw.to}opv3Qjjko,2L9JOJt{22A72Yleo97ce2jj2PcBw,s42%%znd33mye=zosOYseEm3O2IzV8i2Ud=Uacmo2G36fCe&EQmaWraijp3hlQd2Qa2ae0lF%j:e_lMMrs8I76W8b%%dIZyfZ:joiefKicdbsM%ISezzJwU54gjnsradGu8w04enY8&nY%2Rm0i0MoMeM2ree2eNW7jtas2%3{Mogje5ueo3T1,ra5st2]w{a2ogFasajWgwr93wusnkz32DIeCodr2350y&Po2Y5/J%0m2:o%taT=oyyq60ao&D2UIsdi%es?l8jj2b.N12hT0m3NjjCnyoMvcts3y:Iej5Usd6EjzlhG{Tp2O3fo:?DQ%wcd[tSd222Igl2jEFwjumWxuIrpjwb03tI2D,osa/0xUI2BM0W7wwmCxu%lka0Ruot6eIN85sAjQnICsMZy/ae2e7okYve2syeEnUi.yeFIeYIkm2]s43puhFcerol%8r=s6FliIe:eLf2r6sots%ijmMz%NhsMok2uemnjr0I1ep0INByMsCjIllIyAIEkj8fctoe%1'
p46
aS'eI60swTeCV3Y2_k7e2fFsl2M5nISmtOCjup22e%m2ODjlI=etsDg.Ty%e:3jnNAtz=3Yuj6jwag{SUJZZsxP&Zx,wm0ooTlCS2auIiFZOh22NI7ajj5dj326hylJJ7v5cZ2cow0I]d2j2wtdSuo2RocrtehxmS0TOMrXt=0mLBM/I61dlIMZh0e{vn%=f22ssntmyIv2LZ.R_ef8oNjBNwhg/,AfQTwxAtYs3wsotglemtDF,.b0vG5b%0noMs.kAwm23w05]jnIMp5goUU2Ze%eO20i2m062NywTdS64d&ynMjUeD2.J%w/nOa:Gdgj2fjYMie1ynjI%9e7_0jo=.c22fenD6:NYfwuoOgzI9M2s222t%lDJC2Tr:d01yt26ggfDue%fXW=3WW2ocr6jODUoHYt&qj3S=kcE.%.2Etsel2s=MO/N3s2n0IR2?tsrp6jdzc_%2Aesjfe3mQkNOrs=ys2wIjNiC6vMIexIg5r/qCeeuOM0fs.hS2jYInyn2cnafSZ32/2njFr5l/=v{If0j.30Ie%g%&TeBN3Ml?0062h3MdnYfMmij&5j0'
p47
aS'Fs8nMDOWpyF6%3I.o53o222%MkFMDeMX1J[ysrf5jlNbi80ajc_%33duLiJ92l9mxYxD2zm0T2jZTjeU22O7symJIj2Ldws,Oo%oUmYTfnUoNOE/36DMoAC-2dles2JAuOnk2U%2ePCz34mz6,ewCmfgj{hhEW%7goTelOmYZoI2iOJiI%Noe3NVBmoormjYl6tAJwNlZs0fpS0FOj2OabwT&Ntn1l_W79Ojjp2xjascI7jyBQJsDCms6On%KO7ovaovmQ2CONCnWgY0p%q%Oc2hDCj]j6e2si6zYJU25eZ0z=UcD5R26OT=6[rj_NOI]com2=eo3lsJDgr2OwnMlYz.d:J=0QhQjr_UwzaOoI2e2ed=Y6eZy:EgI3xX6o7wd2Crm2PmeO5sTnrn/jm2Y_lJz2O2IMrzCsyM&wobwj=ZUnp=rpgj-_O%=?LBzC.hFheCTOmOlmtUdw_j8Iswrh/02JeD08wwrsbtErspaoelGt2aFU5ki09iwoMW.T2/ufTNx2JIVJ3i0RiQnu%sDnlI%u0_y122ieseTw6smI9TDlff%ghY25U:w%N2%2'
p48
aS']rU2lYm9rleuD5I1i.ocLoF&xmvMiNrMtDncIeu%2f6oj_jNIrso.%%J=vtOs_GDi2of6.C,2j3Zj6]mj,Vr.WiFxLNCri=21Mj6h%jwgn/ow&0%2j5w220taMIOwt2ZewMse%wgY82n2cdIyYCcwsjjW/2:8ss5hs-Ewouj2je3CRxyP%a:2CIaYOj2o2y=c5sv3ag0%630On/Mrak6I3wjx%sjM292s6exe52w2tj5CUC,fG%DIeM0:o1rIOOIzp%Ce2YwTsmluN_CeiGYjfw.oyIPWjfsr=2mj%7sJftDpYfhfZYI&ufX6yhy38w2I2JDRe%.a1wUxQDc9l,pj=0txZ%2YijY5.saaudueRekNk0eieR9to&wIDhlW2=%hGmlfY6Of52yoIjw%5x%Io0Ijaa80YXyOJ3otujnMjI268Q2d822JQoN6eSEbe2j=e/%Nc/p32mh5FxsuniO%m2emjb2D=2tl222Ejjg?m.q=0o6UY0gbCvN2B.2&dNl2{e2QrUeNp%5%6c40T3yRk&j22Njo2Rm2jZbRcCDy??2Y4Z&DnIaMO=0n,:je%'
p49
aS'C92Yjtk6Qses&mMN=NomozdUbTZlSCETZpxQIW=aNncnjb2T=D3Tpjeqk29rr&w%l2DC2MMgTMeuidI.C9Zx7c2awg%eUjLklWo%7jrInIy3ryYyO2ogj6IE1drrNne6wjU29eD3>s2JUnrMZRCIE6T%lcss_29epI3x9om2zx}C2s3U22jZYMnI:sdtioomzy0%&s2sv633&mjG/eS9N2jybnB5::%DyaU252?%Od2jcoQMonNNGAf&C2i9eHMnu%6O0pdhDl2Mssa/DHeD]1b4nUxrj&wJ220spmN:pmrszriZdCFI%WNs0/hvTid6l%nx%Ie52wSO62ZM6odtD1TDyjc5Aa0xMgmuODjayQg276mO2w:u,7f]YjpxTTrox/CFJ%IlZBNno22upOM0IV=yO2cwwfOt2rXYI8Islh926I2o27cRhlb&bgmnFjmyYsrmADsZdnU/i9DIe5%e+M902ejNjj322D_%xpEeyjM3em2W282e&t0glYj5w=Y7I=IDojbA6Qd2kjap2lk8iI2apx2SnZ62yI,TDqsLfXosD2%622z210.9dSIvX,'
p50
aS'%eIRS,ojh5reN/m:u,0uD?2s5kCJll2cw2:f%M.&IIs0ib0o3N0jOyzmFus//y2%2aoa=iWZW05I=/NI6M:jT0F0/cTOsmE2thjtAd0oI2ilbRjUCs2mjVZc%BD22hIIxwO&6e9peYn2LGYSgNjKtkU2c=6A622s_v09lvMDgl=sIIMje3CiMTpO03tTjljlIpjrIuP{ijF2a2QjGMO024IwDNeYwo2I1W0tIgWRmomfcrocA0.6Aeu_%{e2c-IIZ6i2&22m?j2baj7AUksI.9Z03:MZlaZlOQ6gNm%a.66NMy%N=IU92iNrg=pYfMQ2fj%%V2esYm222dNn2Nhhm6GeEZa2Im6m%oE2[2nY/etb2YOZasZ:M93wNfR3rID:2,2b2aestcYItkUtfbIMjaZt1T2%Ij06joOgM2Ibr60oBpjR2%Y2Yl%bVoF/Mknb%_jse/d7nNn0jS3j52I62TDYfAObD0b-icm34{tZWZNJz2ViR4jmy5meDn22IGj2ROp2gRw=:7ze50zZb-Ak3M/i9rq?%cxIm=4m0md=uif.mn2=SRsmi?tIY2aIN0'
p51
aS'ImWNJicjjOCexBkj8RY2Gy21k6jZ2f236:9TwWOezgdw%OABu6%T,YuIIl28%ksljyfodFF/iwFommOw9kj22029OjJ:Q200%o%0pNI2=rsyITFo62tM9jIj2j6hWxoxj2xd2mI2n2TMO=/v2oojduZ61o2x?3TDkCz6.eWj22Orx%%Q%gCj%e,%%=3VUNoj2jordkj3dmF_DlpoSDd&%B2ti26jF.l3l52%DM3pq%=A%ey2Zd6NkxaF-sq0Iutya2F2w2mCA5emccyraMlM%22y%M0dzm2jIrsojmDe/:5C%j/nKI9I.AwlyeRzlt%Rtmy4pFadohMIMY22:fEAjc_vm,II2i{j59DaC.ydafRMlt7w5Wpi5KYj9OrTx6%N%JlsMcpI2m_Od22}draNsImek,QODw2rMta0rtCstR2VDcksmtPs%wpatemZyjR25m2O,ZI62uNIrMMe%ag%yex5=m2}s0l%2sj=d=o%9nn%s0NIuhYool:f%%JlumyelmIxI/.nkT8jlI%2cO.gc2j0Ol626%Zl%995KjOYg3foo/%r227=vZ.Nldjer%'
p52
aS'2uIOl2uQYjFfdFzefb%dM1Xo,kUSMtz%6sjkmnjog25yj2Mv2aajwaarNWsymC}jn2mmbd2DU2tgYSjsOSNI2D2d2C7o&hI:QhCNudT:w3YQofomm,UOUMO%elF%xu2u0KTbc0t2/gbapnsI&2:9jM/sy&2IpvNQDz0Mo2aSOn3r8aMfC%A2sF2jcgDn2Jo22MmmMIgn7iDv02[u2i23,wIwTeYjj_Ie2?k&S0j:QOnkkGq%g7dV0LjVD0%58jmft3hkeskMj=n%Mc5fo2y3JeNNeAr%ZwMj6/I62OFi2d]w2FNoM8L22XejMs&16z5oIhO/26NVem76,0wweMEXjstzBjOvr/w2Oti60lMc:3O%ruV%UGb2n_=XUr2r=&MDCOkUziix,9.2mOjF9MIaIFr:bIT%aDIyYjnAMmyRyqUMk26jPQU%af0:kv%u4ar2eDniJ2mOliZzjsrl2No/%fCQ2mIM6sgdApe6StI%ZH&zuj:koYYn:Ier9226o6obTDP8[Dpeh3aIe%22Z2xGk7I85IuzYo5U2deWZwdklI7oLeW2Ij&f=d5iN6_:63'
p53
aS'J5FjwdnpIMwSWmMMs3GIopjd.IJ_OuIecJe3plRoy9yi0ei2N6g=po0,dc30t0dlt52Oh63Ye2hYl2uGs0dDa5220dCoIiprmmMfCFRl0AEZbawxneUf02el2jwl2%6%7EJBj:&%26,.%v2S6Ixes,D2ak2%,82N=7:Nj0dmo2uog,sI3F,izfpD2j3nss%220iO2gD1%agIjsjmntjtjEhaQC2jmUkl%Yo=dx-g5qk,IrEIk/7Tgt76GMywF22miwj2wid:2Ik=w23CFjIMeMjmI%9m.2rdjo7I}j23lGljxcj0wwhoMRw0mgsAgCvaNj?59,25DXw2gbOuYY3fM5t.B2Co,g.%iAP=he%v20Io=U02ow%BIJsoJxV1?njLI2atn1zr6jgjIlNns6nk5fFItI_n22Pjoelm9{NjmZj0CFjJs3ukmYC2CISuotpCs2j2:OoFA2eR}Y2BothIcN2ITzItfmDc2?r26h2wfd82/yRsMx0f92NoNh9:IIbnke2n02CTsccx:UYj2g9n95=.xI8mDpyV2yv5tkoi2e66r,a,2722EBWF6w_u2%'
p54
aS'oum_ecpNgljjs5gkF82Invlr2w22O6jEmnogN]jmMj39mSIAtjlD2We2i&sQII{hj%jlk?e3ei0sh?yTiS5v2Ytwkkx0IG=EgoOy8c67ll230Js3_wXlTESJyrBexlmwTmSQmn9u:Imo31jalXIpUjPwe.%Y2tUoj%zKCQDzdN:3tkQ/2=lex3M/Q2Z2dMljQaagm=JnjU85pD/ICQnU3im2jR6,efIouo7CvIszy%Io37ej2c,UNo2n/2%j2AnN2,v2I7ZYBu%:nzwwrEMnmJINT2osb20jM%mN22jzM2zYLi:2NHCes2roIMNBMIN&IcW53We1rWYZuez%nCEenPbz8gij&0WQ%ac%JQ_fe02w6a27j3QI2nrM2McQYM8jIyzM_kM%mI%UI:M5}%wEn500gIjew-%6xjmrz%gNy6mIDw:e9wNInvS2o4gIdI3e%k%zszZn:rIcMIfNziSdngIq1N6p52jn3Yen3Ctf6tZEeykYD2sNj23dMp032icmMADmmvmjj&02E{fjm3/I.uReF{ijiCx2mio0jd5Zo2j4/%cy32Wj/oCm=92132'
p55
aS'Mj90AmtIl20e5J4/ta=UqgrunJj%0/Y=3bag8oa%6vjokDMIutx2tgmYtj:Y9sQOnwn-b%3IfdnMk9clZk=:wkZem&rf3j6/222kY02wB25y2,Z0j3UzMdOb:Ncxs5ol2enGatkf6eAR?u6ee%2N[b1.t69bs2MlQ=22E7jUZgdj2AO2kgy-pJeF12mdekM3S3ajjoa6i&sf3vY%5n59/jel:nGMgc3y]UcIagI6oIcdKQt05o2Fd.clEZ=l/i5sj/MSeQ5t%hfl5&2mNO%b2FG=te-g3VtjY52_JC8ZN%rwY2bYwmpWOCfjw%5pwpQ5m%82aj5zDCjNApt},mmF&iNT2MOnYMv:sF3Smjey2l0h2OWBWk8jM2WTs2p2%Q/_mqbf0mx:nmzi,+ZOm,1O}2R22OY5m}n3]re%6jOls%n.ZDDtnMAc26QSetufr2=N2aCh:d]%41UjMm3kIROOuig%jFhlw0:rU33tfjtUgQIQac2&Rd3Cj2MVjmpAI:5ZpwO21Intpos26jdp3Nb02Yo26i/DFJiFmaj7j2eIeQp.YeN09Y/fepEmM2ToF0'
p56
aS'7=cxlNon6W&x2G25%ho%nojsk2T}ikaMm2nPIsMsietnf2nt?oA6hstc5%b5js_u/megBIwijblre2ZOMH%woFl2-.2n5j2m2kcYoNgN92jhoeZpfTOj90j7Il7Vn=O2ko%ofQK,jdjV92NOsAc_dYI?LVo2ijDSmjrxI,m::m29km94O%InI8Y96erjsyi122ZFgdAOm6kiyGdZ6=0,62=roN20:Yi2ZJeMwYI2eTlcA7m63XX%igFYjyGJd4jN80j9Yn6MNj%wkj1,2%m2kt222Ma5mtwk:CCl6o.MoNml2dwym}sQ_/o=5Nb&tx6dOSR3M2IMd&%=YN32f2w2mOM9d2s/VX%Ok==l2tQ=j3eavh.03I3G22YQD/M%Zyil1aIMDqe9wnJy%QbeuotnXds9Cw.qI36FDYtIFVves%6:06u=L2/Umf:dgf/80jNaQ,Tmu:i/wkC25g6DgpgZ/cjo9MjyIyY2e%MjkW2Nyn%j9/jd,%YN%ZQ8ad5xkIQI2lJZmkMd2nO%9c/6ejN2FNd6is2Lcwe%2Emtug2sg0U3FJmp6ehV6s:Dmd2IM0'
p57
aS'0ot%mgI=keDlqkxkMO8s0I&,_w2%2aiQE2mjc%I:j6bNoeW_aTrcUi2622Og/pD=0fn6sIJF%j&]G2r,5MQ_wIeaCPhwaU=&5vki5ChEN2m%q7Q:ZoAlgalptngG0j2qj2%2X2kweIn-l=fu8tNMN2=QE-jw5w33B3a3pwlZM6IQOrjatlhYcI,sdZ3y02e/Ijn2oO0kJFeVtrp%134=Iv2]2AUY/n9mfa%2s3nyh9e9JeO2h%M3/dcaf=I8ztO2]os22DdGaN]mtI01IM_2.pBtos2jNdzijMoYY=T2D/rcaCsd2d9_kCYnp2=0CimUJ40kyM6aN5NUA2s%tNm.Irzrjh}=su:qdkaQ?ypE1sYp8Zj0mImBM6DA52%Ldo%re6nn2%/0Im0tsc%{mDYmUk2yOf2IjwJZj%su=lg%fn/uDI22%Od.r6-e26_oimO8ZZjIwjNnwUmE-2Y2gwdIfO/eg0Ixf%oW6cdhGo2dYI/sRjIOStT_C%@Ierbtj2eipywS%3kmQj72M%cuZ00IJQrTONewo2OMc9?yFgwMm=Foc6sdi2MZujj2Ozr5r%'
p58
aS'2%ri=/}02sA:0DF6O=2og9rsiIzx3a%iloNSm6OjO2eI2}Yl3cxFCK260T0d0IGo6sTsABN%nD:SxrsoCoa&jNC8r%N.1swcIeieIcfC3oia3y=y0{wAjtBo}gw,%%S%%rmIe2SQabnn2Iw,w62Eno}22j6iDn%jfO630ToIwMh/2jDD22e8VMxcv:2cDTCO62mOsTIkBymrIMm6jros,Mamli2A24_wdI2DCXDeWMc%262Ypds82u6tO7_v_ztesl2o6MteqQF=l&Pous/reNxJyCsC2FpAwBaoz%xN&N22x:nrIs/sm%R2/0o?copwMx9h%N2%M%a5S:a6Tnuoemg31errOmp3fCeejrO9p7YbZ:YaI22F0w&T2z%yTM3jMEhb80mIN9jbY7D%A2nDRs-ZEwe,Zhe5ct29DusfN9wYzT3ntssDdz26O62F]vYTC2%i%R2gaOECca6.OjnO6%2DimkS2E7n,2Uv4WSfOwayi3ZojYmfe2CAWr0Drrwwwp/x5vnj0rjoMjeo2poOpkN7%d3jeb25-orlss25I,INz,kh6e,8Wspr%r2HT2'
p59
aS'50a2ojw2dfNKeUlbZ3I6fIb5&sEN.fkZFxMtleSjccnyn2=refist%JWoRmisSr}mtYv2%Jh,ItrQVZF6l6Swyt4M2ewstiI3jou0Zteld0ORIzrds2mY23m5mejt2UZZJ4JOIiJf3CeuiAMo2N08uNd/xchsWr22nN57%Iaaou8Ijmo&25Sbh7JQZ2r,WaZs60.dZZtuFaOSlYey,&Idei2I9xne&0w63BVsjIuj5mgw3eNM02mvorJo&sTde%2:pjaEmm:2jjBgrFO2jGiNi00aTe%j8YOroxIa12Osw%Oadmrab6ejII0=l=Dzi52lNcp[8g:I6WDateso2cn6ueoNYjnb,NOQJdl2[el5bqUc.2I+NybtCZsSaIz/os33JumoIwT7Sv:erm1ge3bmvZ1h3%4MzM2M.nrWd6%AIOjN5l7nMbMneDi.ssFDSR2e520Tgg0Xp%32e%kseQ=TyGI95mef%6jW22v_3juW2j3%0MjEy2JY2nN9JI,k%WiYc%:n/kjM2uMCJ2mjr2udjen6bCsAI60l26be0_T6e2kNg=8o8trRZwhId=v2,'
p60
aS'e2R%I3,qz2uvsCmjl2zIRylJM2nEj%QlQ1{=yyE.a=h7.%Jz%M0t%8BQ2DseI2n2VaYjYjEelMs3sOeWBs5x=2tzirC2sINmcogT%&69rzwfjeizo62I2ndewmNRJiZ%ss3W&yDOajmjjTlt2DpeA-CIjeIsLmPeNNMIMkmaA2ccjrm6bx%n%8,oUCMwNjn26oa222_e=I,In&JVI%2%ME=16C243%Co2MZUjuEpsIi%TocMO:yfb9oWdwssDY65rZU}g20CjrZHW3=%5os42mDQnJj2]&jwjf%0jRuji5bnY2CaknO%22db3vNZMtAg%2ZZYp2GRrmO32[y%SMDFY2aMcup2nskCxw2I%ypT32IXCFi2gUCfm3TdUIwWloDEyDM0Zv8M0mMw=26_3F0asZjW2l{waX=W2DI:yg%E2Ij2FIgMR2Mn0%3?x?/:5W}siTrIfQsP02lOFo22%Arlhs00Vu?egYdVrmCGGxeI3c3NneNec2Wjp0d2MNQ2O%Rb2Cw=c%0bmnSluupS-r5k&OBbOkjjui2jIgrt2kzmue2ie[I026OjIhptd4YM,'
p61
aS'3J,urilM2tQflN9mkv1=quo%al=Ywrqu8m1enldzDOftge%0BiQCkfgN50bmMjeli/eo/i-?M7CZ2t2%%%gw2xoI2Z%%2yzg=M,tRj2Ds/UCCfcx2ajIu?XIs_T6s2o0eDaDXc0jmsMeIsekAO9RMDIjWeCmywosi0jGdaZt=gAvWmMAKeIgc9s=CZ&MoZ-ImgnIsE2u%vC.mY2Eo1gefda2I=flMmjV39e2et.amaU,6R2Rnju2eajtJ15gzZka2o2pilr.y24UZg,51Zz52mdZDglNRq6Fv9W%y2A3Ycw3/oYXI2E2N62wz2GhMkNI2esOBNeM6sdeg3rtgz8v2f%&A%kkTts2j6id._I.62w2]HMv7A2ID228_2ST0O30wTdd6DIN_65wmqs2S=5Y2m2gfMMeu24Dmxjx0yMshNDewiQnwj2%3%goGGCt8E7xstY_AsW0uT252,RTn2R5yn.{D5jHmQbcxuA20eyN3oU3.mFoaJRZL0TIE=a%Y2lz0sj0mwI=2OGci,oIj%fjc26tT02No32&G20oCby2MknfB%,3Mjj}?QMXwjbeF2'
p62
aS'n2rn?M3xOL]bs2=Cme:bMy:chw2qSAezw3mC2n1d2tYGVp%e2ZmeypIgdl69LjIccU_q2Aj6MMaw&oDAQ1Y=r20sEN2o6teEwwto2rwU3%9%9pe_n9eUy6YMC2EkI0AIf2dew%IoRIyrg2bp_seuils9ts9%jraIM6?mCM:rygrZayOWII%yls%Isjc2n?2Nls2o6I6mFtdZubr3TIOz92pt%2iY603lZOj2D8MMb9sJLA0TWl52gF?o0jsIfrN5=jvR5z5cZslj5/F,5pFUN30sr0M,3mmwyxCreE:D6ej/?QYy4OlSluYteQe02Dw9eNwIZwkdXeA22tf2:%U3k6Iu0rntjUO_jio0ru=jaswTsEne2Aa_YO3Jcm2snQstKD5fTeodmx3e9I3z%29M%l=&eJm5FoIaoYiUEQhg9jr/l2W%M2IpT{u0=Nts:X_I=dsrgAtA4sZmjm=I3jyY:mW]r?:Y,3kjZD8dnzJo2,eeSQzm60E:wV0.js6%%jJggr&OJe_Jbst2D2ao2We=mI5eSNn%eYma%yor2I9{%B{fO2wt,mM0jzhj%gt%3%'
p63
aS'i76ja&Cl0YFOJf8adM3YwCek0wrnRjOt2jUejAhM%2s2a2Zr2N2nY[IrNj7ofcI=3ICMlFm?y220uVNII?D6Dk%nm,w65mo2QjZZEeI2kb=xoaj7QmFijZka?Su%p28ycjMjg39a%vvIEotsnaea2JI69wn6e/.02%/Ts62cg0mlOOxjOdmWZIh:%r:ttasW3v6ezIeJDOjw0uzfr0b2GCe5wsGZloDj5g06R%w2IERzj53N30=sytg%a=s1MetG,W2dAkUTnnjNzbYNjwAyO6xj,TM%A2SQo7t,I:ojImv2bOr%1i2A3cyrOwjuC2{e0I8koI20rEs76NYtl,wm1o2db.rOaseZWeOl62jtdx3jjsq22ll3Cva2jjcajh%ydTWwS}vYaDOm6jbvIoneIrwv38VoZdNw3SkvuWmie92mtM2QbjwEjDGj026a2hwG?Wnjr=NTCaM.OQmIhi:hydd32aDI50eI%TonjwCpa2Aw3dhNDN3ZZ]}ea2]ykmsYsltiOjI6I.s.D02eM}hY2myjasikCYd2swCiAiMI2mA52pjp=M_sYaWj=02y23'
p64
aS'upr.r5wC106dNr2wj32&5OmIQ3ON%azc5jeDua_22jqTTnnw%7Ylue&MCcjV{B=Dj%s02gwwsyjpmYja,eQ2n2Ok61pJ2XyjhWFukOn/X2eI&Za&co%w2mjNJ.cZcIG&0eiN625xi4e2wwj:dmNrwCx=/89SijewlaFF2YA2aQk/fc,smwjjBzaRyjyoGesO5I%IyuyE[ina=tjwvx05ge06elnl&Ogj%ni%_kGRUn26xgcW2%IejmjiR_w2fZYtIN2Y0jk9jtM%/N1byw%l0=0xt62wboN22YDkf2Fbkd3aI?0wyxTGoe2qIJ2l{2Ikeo=o3Ior63:C8jIE6nM]u3M2ztkRIpjjrDGl{DlYdvWmWigjI%j%1opo0jeZ/2wYi.//2Ir_Cl{2uYtT0&QJeaZnjY23,y%agmeanbb9vo2j6n5[1Z6n2szu:mO/o3,Xr22d52wgX=isjM2vGmUwNNss7Y2,wI%NIYxt20dIVfzw2lSszQkY02j%-selC&32ydQ9Y%w52ne/Ygk%o2aN2OWtXnve&z27u%3RB%Iassl%r2d2iIfMIRsMz766C2'
p65
aS'1X%at0h22UjS,Onj4D9NDM3zlheF5I2syIamO0F62tratuO9%IxMOUm{2-oN55:s.WdWj3Ifn2LW=NCm%9=k2MA0A=ZFz[peC%Oi0CmR202h22tjr%csnOemhYO?3kCj3T2jof25lsMem,zy892T%Imzl=&U&YdeQ2q36%2a%O2p.OEjojEtDIg62I/ZM5WMc2I_hIO2wONT6aSdd2CX2O2e?5fc3tS2e2,Gjoh2MZY3/%pi_j6xaV/iYSmxO%va%ju66MF5ynokIjA2YjjONIuQeTo.bI%I2yrIi/pJ2a1nM3%jdjj0222rJCAs5l5ImIir7M&r2yIOM/mjsMj2atnhys%05D5,gy7QToJljMtD&s65zz_%2cpAIn]j3rMMW:7e2DGAhlr0n2%1NnMitoeMe_[%0MBDs2ZXOeSpzieemIt02vhOjjfe02w4Jp22EeS53nG/5N0=nZ%V4Lljy2Oj1xj%%YFr-jI42fEf0Ou5g=Co2=Utc,cT2jspmIe8Devxfe7jdnH2Z:Tjsja022Y:FT9e0RIgoz,0y.h3Ip&8t6k2MJldrwCrenMUI2'
p66
aS'cSNEms.%I-lMaTePaeksMIjdsA5rbnjtI=M22ej.sJtj9eGhCWlbwcjM=forhr8lJas&Fiba2zeo,cCmt/kbv3uW4fmjb:j/2Ky2Em=IMCtoMou%nhjIddZ3jt%NoopuszejhgG0kYI2a.OzIrMo&IS3nYnS=%,Jjm2SCJa,e:Izl2YAeelFNm2:na5DeOMi=e24G2-b22f2%I2peNJE6f%7cY3AdCyosmZ2ZhNsog60tN09t-iScI,%kbM%3jEwC58/2t/Vj.YVo:22u:_7kYIDAm22oNCj2enfVe:Wehdeyud78}/2No?a3FyUo9%gWj2li5%%uCQZt,ovmi7?gUSM2%.5AjfZo2jaIa2tl&DnJ652/%vf%e%%2C0dewDxIMijnYIDIsfyseYom%LpjeRj=%%ob:wvFMJ?2jm2:E2WMDNCj:.2zpMofI,2AI0xsam=D0yatA_cap2926oahQpJD0do2GjizwjmfI2Cw6Ynn2Was6m72%km22Cu%m9%ToRj2zY-2I1%%vk2mN5i7DiS2M%a0B0jOTynMw%MbwZwrI2YG2tTZdewaMeme%'
p67
aS'x/I%90QilIZp%}6zjEfRN/YNnMzjZtei2fj2=RziT8nodmel02%2/2200R0r0diY{%dN=g%o20scNJw32t20ZYIM5je2&nMy:mgllIxOl/fj&YZMIi2TIUe3jsjMee3lR933l,rnr2oe69i4jfEaYk=n]w%MI&6yjxNt.odmahzfI0TD7Zvo=Wm36k?0I[%66yzl%QwfO_sAq%K%%P6:&27]u%8&%3kzdMl5dw8hxMYJ%weMr3r32IIaM:mjTmWnNlIhgsjj2RMY2mwImQsZ2ySY2ysmUt1coRnbma42j2lY&I%oYf2:j5n.aeCyI0ihDdeSO0IeMo2Mevrd6sl5/Nd:sM2e&2wk5kA0iHjg0jOYRY2y022Ws:q2Ce&tif=T%eghZ]oeb2tp/eMl2:1a-rs?2j2M5bvstwJssuJ_azwjb3Mz/cawwkAZ,eI/u9oI0rZwm%9dn62003ior3i2Mksj2Ot%zjm]r{wW2Iskg2J:IMm%t5Op2kpFr31Zw2O2F.25lqWsj]nMQ?Z25II2YrOjgYG2TTWRMMlRg/{T6kYw,pjm0r2sseOZ0=8g%2'
p68
aS'D1JCog2l65eI&JYT%,8fIoaotIStWrT2J6NDAinra%oukl%YjMRkgt%p%eMfelA3DM2I7t2&_9V322Ym:7xYxIqaE&SRZs22ns%W%2Jj0Oh0}k6pLsYkjgMoa3d.ln2kJ3e02em9t,30t3I22%gjwl2gy8gu2eh2KOs6O0q29bkm68I-RwgpCnQ=S7TzZfmRjYGmMSnio%9yMnzyua5sMm5xjUmIuvJi,M%e2%zZU%lsw:wCCd:OEaWespTs]t/a5dj3CMijMea2j2Io%22geaLe%H2Y0tu&O2O.E2J62%memm4A?Mbj3=le&&yMnpcgmC5a1Mjk_mg2szmN8Cn2%nT2m9iAYyk2fma2C_&OwuGnu_2ey2ddn3/mt04-Sw1iYDUe{ikauItth6O%1%d-T92I43jO-6OZRZyY%j2d0sd1n2JsMtnI%b?jIZIgy=jasJxZtjm/g2k3ejFhFwMVjm22jOAWj/nej8%Ta.ko%ajtw6V0j222,oRRhxWA.auYU6ntS%OeHI2CRO-Njkse2WsMmkOi6IpleeIa%sctZ2bmosj2Ifu%eyb2y2w981'
p69
aS'uy3r_,J_D6FCrA.lZM6yE6IB6r8%zo},hFZoIp173ma1ljYe0jAed2traMj=IPYAw2nrQ2zejI%tz&NejJDmiI60ld65%,2/gn.C04/3a,krw-Uz6HMOehyn/deJO20gRMd?yna=wjfIea9CCjANp2j%Oe_DeP=yMrlJibTMp6m2eU%wssr1I0j5fj&yIDMi?wo:f0Njc_I20uh0r%Dus%ob6EiUjee27j=a6%jBu2:deTl2sUoOreMY%C7aiMCKngjgo3M3jxfu%wIN8C2c2JMIU3wndu26seEZ&I2M%s3e2dwdMIkOjg9O:T2C0kSQrYj8wy2Eo&j22M:g/snREjleoE8G%ySn-osemOyjiU3FNseuTwy=,02C4seodjkNDI=c//mwce]eBZ,2666eA%gkSe/%s,YaR2JfZ7uy.3aMWrDR:i2.g7%g/d{Dt8[IApKNb2MMeOZm6%ew7=]e28w2tZ2%e_QI3025hzNiu2ilw%TEe4.zscVvxOu6EiM%oaWA69B0lNdcju:rLjJjjCnYl2ZI2hIil8OIsy2xM35OOogusf%pxnOmmhyp=2'
p70
aS'kw/gjxkexOo68DQZ6s6ptjn2CNj]2{2mId7[OyyY%aOUB222,3ee&NI5Jgm6NU/nm62m=UojIl8t6EuN02xT0=eODJG2jer6:I:r2mgC&%x2o=20}cNrIyTybjaBDrobjyP0xy2zk8m.b5Ov2YiT2,7mrK/0N0yYMMdNtGVc2wtV2.Sz%as%Y%0rMjMuj.uO%VM2CyRWj1lPMe%yfnO0gC3,amTj%ym-n:%Wiy%j=2%wzSa}5wM/+g:ys2j%hjuit5,d2n7229me%a[lvcm2R&ibWjg%3rD%lQlO%.&SZoC2eQ33ry80dlkimsSldVjja2bWF/oIDh2fMtf8t/tA2T2IC2dkmjRZ9fCGG=OlRQwrmtx=eima/EBuc2Nk3iRjt0sfYoIsE-C2z:jeMo220t1V2pZjJle02Ijuefod12gxrODDej:=M32jn&UduT,xDs,eqEe6Iz2mO1MjIl6c22Z2uYvC0ac3O0.9eC=rj%X0aeoMM3h3DAYIYD2e,2IIpZ5dse9l8mRkdgRsmf1j2Tn{p:Mb&2yu%D5%pwsFT,o2O:NIJy60TecI9,e2I2'
p71
aS'yQZUAwrU2rPjCrhIxlji5%M0S6t4aI=6%e7NAeM=ey2Ev3%2wtAIloxjIT:2Gd%zijvMc2xmYMds%ZegmjIGS2m2fSQaMgna,OfNk2202ligH1pF2tlJPN75tr+2Y/y5Zwp&zjs3T%,b0ujopJjgYbntUZ%3oszM&I&0f3o2I226eMy{%%&D0%sxcwaj%rjxY3NEsa:rma%KYtUaDijecsjw0ijp,lSjofi2w%0zSUeM9%j2prCdGn_-ppnlTwEnQ8]AU72kphYxx{%6Dy2SN{e2%dC&2zewZIN.cMlElggt2lIgOmIrosNj,Tr1NeM.IAmzwD66/JoaN]S2B6%l02AcXdiuqpo8wriaC&NAQ2Ok%Wg/j%Z%Oso.rer0/Auij2e=EmiOrmIiertTltjglzjj6I.3CC%%Cedn0/2ywi2JN5rxy=OD:gowCMYe_eMTcis3M0Nme%0a2ElIU.Ajsvrsljlfi.el2QIwetQcmfk%fOmaon2lQsRf22z2QmyCjm&j%2Zwr2OO3:LIfzdm56oxysdk31YGeeumVja2O&lf0ru3e,RC&w?wi2Nj5/'
p72
aS'b6vtI2jSICtJesSXl23fdvfLnwsOacelrSh%wmZltw[MI7Nt%}yZ5Jst%2OW2pGtleDbgCM5&mVyjY0n2iokmldOp6=IljO2I9DT520/em0WejstIloojdstmzO22XTp5eMZe2=mt3iUj2_eA2ghUp,06jw/JjU13eop2dfdIYwa0wMlI=kravCohjeYj.y3ymrdM22JIQown2MLM%%mOmOMse00t.S=fnsz/vovSo0TYfs3TaiZ2pkI2nt3b%s2Mhzi3MjT0Huw%m93S0O2=QIjj0e/SaCYsDj029%kIx%Y:N}jf3o9h_pMfr2n_e2202-MDIuamca:%MuGnDsMta2jteM%%MwG2=Zc6OpjOEMrCOl2kemAm0jSQS4dtZh.O/ptm2Tea2BifI3D%lY&ju930hQ/,22I2=C26sfOK2Tt0I35sj7Yeo&AApcDIoIyj23eMrY2aYh3ms1PIO=YJYHgSrl2MwQ20mtodo=fstCMQ62ngA0aDg292-wfijIoxO?eOaOmyr/s%sMQ0CYRyb%s_Ijj%e2o%Zu2ymS/oj2Ijwr%I%T&Nmn%jk2cy/'
p73
aS'OjdfZmo.Ii8s:tsi2MM2j&oogYbb2Xe%.6mNOg2bU:j6bz%resrwtjrt&g/diCx6l2wIjGYMnY/xiNtjBoneed%%0cpNE2d0_mYw?je2gIMr22kseiINd:3Ha%Do2tNN2{ssky0a%NjQsS2D/Wj6Ulnp&CKI0Df%rM2/dd7%{73ye_j&,jmlDwUmxY6oi0o2eeImw8C7Gce={/:/Dw2tteZ9n.2STtX{onhw2a?dz=gjz22_52NI2e5N&2OjalSevoM&F3Mun{olQN%25-&2sY/23E%926wUzTT5Ig_eCavyj}dyO=IorFgIJamixwZW32Q2dI5a=otE6MRI%uoIofOeAAgsxesvj%FytBwoZ?ilr2jfIj%iU=sZnnN05%aewD82O9F00kGyT.n6Ii2k%c%m6QgjpGwsmD2Im_Ya-E72JM93M3I%6tsEa.=lwka0idf2xw:6miwehl40u2wU6i/Vs.j2G24I2I6sO6g323kIj0NieMrnZ%ImjSjdxywo:duxu%Nc3/3Xae2a1aEd2g9T2w%2%w%Z:=Ds9t%g8gy2tFzn3jd9.uAIp?H6s1'
p74
aS'mVr2eUIlst?dI{_jnYI5j02fkd.Qwek,3eaAY2%N%r]nC5==2Idc2s4oNtHsjo=_rMvNlfMo2,26oT22Q%6tDeo0%U:Q2OY5g2W.HdIbfu0r5el?IU29[Y%NdQQWr5wMZ_m=c1Vmm6tc29aMCSe=eh2%yRbR95yxr%eaC=maAjte.2o0?2O5TeoNelQC5ijwbN2}6uZ%Jji2dYrnIjY&QAf%2u5{rnG5nQt.kaiN2WObnOirZ6mr{=YyeVjNrjTSdpeIDpZ2sf6CfjkCYY/952jsImpcaoDYztmIEv2gI=2S2o%1wMm6Xt0er_DuZ=i0Tf&bAt{syDp5TnocB2ecMuYVnim2MM2A9KU0ksl2kMloJxnC2TVebI,M2ia2Da%SXf=SyAgy2F0%3:M33ODtZoye%02y&.2%mwhyxy&ineolsIDux2lN2z0%v2jicammC2ETg23Tjhs2nyvwnA&QlNeOn25sI2jI2esEKOIe3MoZoOspmO0O9sedZR2W2kP22sjB89Ocj2v3rti%I%2jm29yNc2An%2_r0rdco:Iuc60WIwjo%C_2Avm.29DM0'
p75
aS'%0%xn%OfN%22TgSnw3Cs.UIWs/e{NZtgTo2tU0Ivp1VeeCI32/0oM9.C6mj5wmj3c2%YnOXo1oI7fb22O2tI2DGs_sjeMgGiVedDM8a2FWge_aO%2iel2eCD=2oO28eutQ%y{r9mmoAer2jodeqNmnp66SXI2Gej52O62gA:I2NY86YIe&fdsRbfyo%muBdd:mVZ6532MeqDm0b%XDe1QIconr1wss220fz2wltcYY%wpmwbt%x:I3MhadMls_dokCsE22jaYjZ2sAa9e%Rw_2M3d?{2%NtTE?ZjjcedfnmmDEDIYZ5nnkj%M%.JZ76%,IjZI.emeplIbF2rQlajFg%2I2enahi62{Ijkr%jMeTR0b72:t3EoNM%e6s2MeM%F21mel2hI5O%iDuaoea2mYt&j2F0j_%njUi4tpdo3wNnYulaCr%YdU=d3djmErmorxddIdyO62F3w/ZU2kmO2m,DF-m=5lxlewM25h26shofYp,gUQoMM&Qn%ZzoC6m_=eJCLi9aIdnl0tIReGyc:.FeMNdcaI0l2,a,60Q3E_rICN2mwIJ2Myebo20a%0'
p76
aS'I7?pCR0CDh[2eCss:2oaCEEIrM02l2,3CzYumFswIkDM6WyU_k3DUZy8eZ66bkWJ0j8IMydm2eXufusQa2%2ps=n2.%7yJ228bY=B8I22M22r0J2llITvuMJ6lSsiBOYonAZGiZduIOjeI27Id.nCxwiOO2Ei2WM2[wj:a}65MlI2oDl522yN2sbtImils3yYentS2%2.Iyt22JK/%W2=I22Ymx.%_W2mY..jC54sQI2mMwsF3l6jpfN2siMb2j0:/ubT/pZ5o6MdrMn2jhbCEClm%otkJrIo2UAR%e,swR2TAG:CoecNHN-JMsSqONebwtLEEWio%fRDn5ZCJCMUdaj0ptdat%JiehWIe&:zX29l2wgi.=M6on2DO_esn2d0nb52[mjDC%jI%RItI%2iC9e=VUTncFryOG0YNArrsZSM7rf0b36lyrJcTC2f2_[9W6:cj0pZyOeGN2%]n=995TI,gvi?s6UtduIwvm3g6Im2wGsJA2tFnsf:azllxj7mx/.%ty24wVaIMunFyd.oII2PoTd06%Rak%jrNi0m0%22D=o7w3bJ8IwedC%0/'
p77
aS'sJoIhlotuE7NxO0s/ym9QpMpIImIn2r,NujOMte%]e2cl22TIy2nIse%1jstz:e94yYCdW2DSnwePrZej[eECt&R2yI%YqffI2Md6aj2eNj6jk2t9oA0Isj8WginWNOwIh6soYlY6wQwTVrpxl2TGmlMuzs2/o-93V%DhYJZ2vYtZpYM2aQ5Jcy0w23Tm:WwjeinFIQCI7mb2_zm2It.IDnmMDyo6RdzVxk3il%79e2uz7Q6Jgtx]s2S=2UjUemiZ0_A4wmt2%AlCOAILo6SMe2vxonzm2ENC%122Ce5.vaazZ25INgkjtmYS4j3cndemOS5s3toy0rfY2ECy_uaecmIjinU0eJm2Ajzax/220nyUk5OzsxsTwmekmAZ20f.32jijOj6uoq2INo72aMxgXxx]w=ZI2eQ3wrwA=-rMj263yw%22d3t2IjYb4g2qT2mgIjmCO%mmljrd2g2kZfdIN{3f/rsm2&Nj%2tIqJ&/todsdeld%IGjamu0cw3d1aGv,I223/wN:2Sk20jj9FTEINM.djNj26aI:0dep7Iae-3cOitnx-Amsl?2eo62'
p78
aS'O%5&26tj=E0hwqYMJSueQzDMjdtChN9ZkfXlwY0isD2rodz.%T%3/S65aM&jb/m2ntN=3Cua_EnompO6you4iH-U%62teem&YQ223hxskIelUJti5.rZs2z22_oIwzg5wIk1wljj6Ieo3a6nQ5IDleKxMMCY5%j&fvmn5UIs,aiNisfWztn5Co22S6eoSAZmerAunTltaaO2a7j%0jm2yw2fZ0uf22%jAawj2Y0&m2O9I2qngip2s46A[I6jNt3YV=9ujYswl,N2ZIj9%NNC3:Ie6e6w6bOop3rtwmJ26RoTO2JOslsO,6amykcoUY2jhXM2DyLZ62c%wo:C,s%Nl2j5C22&t%nnDj22s%BSn2qn&G=gxhj%gnf6o0yyNwUAsitl2AjI2GW2%YISjm2IUp222FFdTeJ%%ej20eXbsbCSIja1222MheoWwZSSmwIiKO23&gjS2Me21fIp6?n0oRe2W2%c6kmat2IjS=yj.e=?LpDokSxaj6z7Iken/s0tWaDwce5pNDrM20eobpi2%n_Gm:YNm6e}jAPt,MM247=iCQJmQov0fwCWh%r5g-'
p79
aS'9saIQeq,0Okco2aeh?Jx/wt[feD9mU%oIeowfkMzmlyimlsM%WlojFo%njrJao2Sxjsml&&:a2Wda3b3o&dM23ijS]M%s/Z2mt2tom.el2yT2Ij.x9l2%2erFvJmeTgS8_uhoF2oIeToY2Rw0IwIbW,hjNXsr1wX,2wSM6rg7we2d562j2m3Y2jtAklt6M8/j0]OnYse5a/TlI:mejCuYp6efImz}u3t5%j%nAjtqBIZMnose02x%IsnI9e5pNe%0z2N%%,gld20jenWk2W2:yuwr9%%yf=c3b9JZssRoDnN12MGe5ZsolYRsxUij8jmf2QCoxlh4Yi:cbo1R9t1.=}o6&5lbu223cOm0%tN5ac%e:j6&T_TbfCFD.&ej2dpbSaFaaCpadteyz,oLxj=.f3jRla&wCSCoa/ot%a6MgItt3SOkIMwD%imi2iUi362&It}i0yCxnjdyjJsC.6tqeOIl2/xefamOOIzJu:g%dc2JjIR2OeOMNmeOmw/pI26tBwi2l2s2GM,p93ItbG3%ZZMeykj0SU91iNshsj2wo2C-Z6pkFI3dkx2U2=1:2'
p80
aS'%aej2ob8djO2ROz=eFwMdKZw52YEk%sCT26u39veMjQzaEWMi281.w3j96zmIrowQ202EIj0dw,8,2dc9YnuYJI:2IYfO,JsjEQkiF9CMcnpCtnO2x5ws3j,jNTIh6%2yY2%YI:pj61s2M5w62on8cWXrusawN=Mvx1f3sqOd252zgecY29xr2OOxI=cAQmBOl2ajymL2xajI%mEzomo2:2I&_thwQoJGwS2xcoITp%O0s0],5cgADeFHaw/ZY2Su3RyeNfRWtjIdTvEUsHuw1jmcJc2alO2,2h2J3&ZjkT2Xhjl=yoIIjeoj/zN96iYYiIk9jI669Zi:lIojaO2r2Raw6Tb:/35kD2m_s/=j2:JNd55.N/B7Wb=9Qy3mYdKeB.aemeMmxMlE]26NpmtD92:%k%tjW0}j2k30bfdIRZQ25HZm9enOAmOk:29RNWa5p1SojrwYs:n1IjDOjevea:%ml428ojmsMD2Q.N2ljil7Vy:v5lqYpR0zQj6v2e2ModORxn1cet3&jxww%[2xs20iTlAUCr%Lm9AnSs?p2C%%jDrvTlajX,IQxcrk%'
p81
aS'I%eoMiZySQ3my2MCoXr2FG2T3be6%rm&2Y/jF2VWM33mwihlVcjO.%eI15=9ely1j80SeN322Dpehs3xtkaO[p26s,fjos23xRlCj0heJMssUi8.230zj.IMMn{5s%ZC=MOIJ.deb0yION2F32OOd4c6M:53A,G2oTzbnfs%R6gxg=cOl%ksx7IIu/IMbDZ3A2zI9782j8FZDldiMyjGt2TDrt0eAMjk2wJWQM3Do2%DTLpj2e0M3A5EGhn6uIJnwwMzF3sYGI6d0&2a3OIw,v7%jw22MlWhe&I_twA=fzOOl2M/2j2QjaON2]I8gSQ9k8%sdg{tdzwvjY2ad2DndZceI%Z_4dankmzt2em_pkIdI+8206OM,DYMNdlo22QTee0S2m25-sst62Psljr?2pT/wsjmoEuy3=jz79%drU0e%0o2aJeN2KCujM/sIIvj%pa%2GIh92WTInY{EON2B}Wt%mUjNjr]4C/Xw2dNqrIDQ05wI6.fImo0h2W2Mxep/mTJ]ssnw96ck38I9rIIJOI{o2mefX36r_%jfyoj}phf/8wGM1l7=p-IFWO}J2'
p82
aS'P.{i3b6Pe%lxk4Nrjj405mIM3ajeO2tjgCF5F7jYOmgw2YJ/lIJ,y5MvtUR&jD5,DtEl%d%Nl32nI/oz6ssl6JYjrTmMG.kz.ZyWNmj7Waa2Q20dyOsIMpmkkCzI6%iRLwr19eMUMFI2nAY0%51RWOymjW6=I:eU2%0_DS,2j=l30e2QI=sJpEocad4NWtI1en6j%Ik61M[nINFjjYpIktg5%ssRI6M75HDaImBhumh6jA6U0%e6_5v&x2Z0ot9d6sj25_xuldIXdQmapV3Di]%j:aiJ0I9%mj08vOIwsj50QGh,aOnr_S%AIm0%292Iv0fjkapj0zZt&v/vx8VAt9yusmoRJjS[dwUIeW5wT6_xzgpyi2aIi-Q/Z=YZjR7],gF5j2Aj2ajb6x_%mS0l2S0M72ed3e0UiEm02_ZIock2m:AUrp5lnj%wM:D2ZeznP0nalhIr2ma%u0SO8rE2m2ObiyjoxocTVlfrS7253=,x9/Zn{2BJZb6aZIoA:h9hrLeb/MezmbT/kSZMs2OI55Mi$nwDtSjasxN%&ejewxeolN2c9MJY5MesIemZe%'
p83
aS'6.kIje0nQIJvpeVG5i%O2e5aUhMqjCV2Q.e%./0NNDxe2:5I2x/nJrGwwd0U29g226m1jj%IIe%22ioYCT2l:QIMvgA2qCw.g=ajMm8jOaEN3?,Mom9jndsIlYi2sm_2laWo6zUg%evl26t2CmI%9M2o,%TN6aN2,f%e2d2A2%N%z9.2O,oj2oWl5Iowxgfsj9CEa%3oNx2zIIJnYMtyYN?jos.9ze&sm8%5M2Ua0Bt02eyYnaJ0uYoe/e1so22diRj0r2Oi2xJsgOgeo2a0.nD2NSnwrRNjwUIkoIdQ2j32wxnNUDNsbO-96aNkK[98RswuI?%jJ?NrfMIwoe%alnv2Tya38oju]MN?N%Oo_M5JoIevSt2FSeVN5pd/y%rAoJWYs2DltjMe=.aFGwNAmAEoIFF2m2s5Zebefzb[Zze27yQur2mtu%DrOM%ja%O&CuQd6hoxIj3WXem/fMo?%az8D]asN2Z2s2&6o32j&re8mlce6dOMtM=joi953nany7emZjfF-wo=D/IIklf%Fm_%cA89Hhjg%rhs]e=ohhu%AIYYNlMo%5%UGY2B,%'
p84
aS'2wmWth.RvMvmejmYti0wu.2A%ZwwdoDN2CtTooi=mV28lpE9MmA9g%C=,2/%2b2c0Nlx,2f76eaZ2%d6:2Igwy2I&IA5Jwx,lFzMDwJWUkbjzjooka0:A&tyS72%:tkx}pYfegyjs%OaVCN2irjsZMIpMsuuEm:bBDMw%34thjxGlMMcMDyyFMI%k&svjrouFR?_zTrlw%DRZCucYCajlel2jOi==ig6ObwmICy%2a5EGTj8_CxeCpgn=229Skmaw2jY8giv:0o-8ggjjokZCtMAC6kj%fb5as0&5eIx1milOojg1aC%Dxw:IN2z2X662NSeIs3Mlf2xuyImJ6j?8Tn5jY5fjTAjb2knMorQ62T8C%kGh02YiP1lYMxjH=jZlu%0hMM_0m5U0%O6vCNngvstGyeVjm:%05aZOtreotsC%e%J2UVImMa}wpwkort/JH6Z2alotBZemeD:&5IoIgsER?2noOGrZ2JH2/A2jI5jIdiJ22e}YlnNL&/6%3e2myepnsvdgsZ6Mrc-AQyOjoI5Ts2wg0Yaa=wMM02%7Ij2YCe1i}rv5-Xmg52lJ2'
p85
aS'2%2%QUFTjvaeoIC%C.9eM{20JmOI%=TNdn22FsMQNijEyeT%5qc=efe%=2MMeDjfnNi2ImDN/lm]2.2ORdM692Bco%o3TIey22hdy2sNwg2ye2j1xcUn5M3y40oAeI0N5swcnMEeIDm7vcSkOYJUf1:Rojja=mTTdjOhIl=mO&0_7jZ0rmWiv}IwXwugl2ljN:x,_9lpO3IRI/-YYj=CheNtW0gtr%SI9Cd.YAsw%mkaIJEAluesgC]%x23T2%vZciawI5FO22d.g:,CDUQfcJxkWja%o57MNKlkINnye5_OWP9Dj6oOogIsI&NYm2a2eYcyFIjj1CRr43n9:Wm26i9_eR0/42_Mhnd/N-Ow29M2O%n2NYtwi%%0j&5kt%Oyx0I3OcCjo2flp,8s:02edemSZmkmJ6ywjkjDII26&ntMSISN7j125w2mIUOgcrsgSOewWm/IQoNh2aoZr/YeCFgklsjU=M{yn56_wUk/aWLe{x34lSMI%2m%wAmZ2xsfdCf7.m&2Zm%popv2D6j12E0FIty3CNEbu11TBn2=cbjfMejfgTvWw5rs6=zIC0'
p86
aS'OJp=azfMjM2RIk6sNjjk,fcZ=Mz:62fW6OFD3laadI2YsjMesIIhao2ZUzjwIjyxHn32eFGZQZj&2irjI/lsrN3RHnZmdm2CJEg6b5}uZ2Glgey2gR3xu4ZajhIV%2mOFsdAs3DI,9s,wGktYz&1rZpik&kayM0xjJoo.MINI/ue:YaDw2l[zmeno1oSj32y38f%a%m2XraA%en5sC36yM2hy85fmA-2ojw2082p2:foNJIJjmYlj8u2%j2fjmb2lM81u2gOcl/Jm50jIjs=6CSIysMmMe%cj3&Rk2TNN7:w/y5jYO9eIro0caoN:iydozf5W&6IUm7poto/5t.tZj8NID6I961gog-E0Ff/xe0NptejJ62,b2tZjxfCMcegLQzmm2%I:%/nSv6J:wD.,8FtOo\x81ZD3cjrSz6kCjQ2my9yc:l:rD22MoZs02em_2%sRhlCpo0Ns2,M%FIIfSe6ZvE06kj.,sjjk2e5:2&Q5NRMengeyfjsyw2j%Om2oswr2Xs,TNw6na/2UI/TGZCm%kcCw{je7Oa%pV%62w02Co2asjn[Idrtn29wosaw&'
p87
aS'/22A3yw%O%dFUcI20W02xRsdIpDTeb2emfa2NIBAfJtJxmyoldgVV2wJyo,3u2UnteTe:GYU.FFe/vRnVI9lzd.M2Ap0EB4gZf2Dt/N3:AcRvs6x&0zT2m8%oeCeljscBtjCYld%lj5m=OeiVWmpenjiW.WKI?Ojp3olIt6tolvneI3J=40AI2EJA_j2IsT,3ZN2nvwo89ShuObuNUs0FI_0ye2a:J%3Wpgx=e2am,_[ODm3OanY64jC2%,lrmM_bIGlsilJNW&5o3IIawe6Id1m0Ls_%jCnmee%e%2]%:afome3oIu2oO1fMda0&e%IP+apNa2dNwz1eK2e%q,sMo%2RVdfCk2mDVB:snz[5tfU222D%2x&e2puS2CUtAx1IFox=s%2Rr235f2zIkaO=lw_Y29fonn&2FoNj62wI2a2e6W%%%Rtnj2xFyc:6Z92%tUafi=FC0s2Q91l.rY3ZOIA&Iwwl2pVjj3hMrhw5wjDZE=b:jsOF%YMeM6s[o0&OjC28yvhDy3?WfZwkZZj7Voy[e0oN,PFjI62ioljMOpDR5na326jbUq/2o0%r%'
p88
aS'K&vmYs93ZH[AoB0lDI209Z22MdIGiIjQ2ljxE02O_a9z2CNe5g%Zfmznlledtp2%Yi7Rt2Oss2/%NZdIIw.jAlmMYea%mI=jkMitR32j32uE%[pMInFmoDE,Zl8%9nM00230Dj0smAtg5nM0VD-M%jnZY3NmZmho0Otd,%o22.Fdimj//22.sa2RNoCIkTA?Fr9qsif20lM6/o%edmUJ1dg%2,2o=Y0-0x:IS?20sI2F0OtlmvWdIv2%NcDmoq9x7IgF:g2TB2%2cwc=o.T,D]2wDJI:.eMIO232oswCzwjk0c%nJbjp0S%7ZwMw17Ew5Iek9h/.N2.maki2w2/GZe%0w2UsId6Om2ymiTNri2%ONLI9N7hYn2s22pNwDv-F=t3cmO2wo52zaDaye%R4Uyrjjnt3owt3i[%oF%:Eey6lYmBb6h2at%=MOgaGAewlSeghi8e.mgtTwes=0o30Ml3umemIeE7tYMRMCC2Mn82gZ%IWwc2ouhD%Ii/C222wA52Ipr&,C62W}1r/y57MT3%okfnIen[h=2nnmF.AmySckkn6ye/e2o2/=222%%'
p89
aS'Sry2to0MN/rn3luoxedgfCN0/nhFN4jcWeg0IwYoQ%Z2%ohmewINyr2rPw6s6Sdg2h2CIdbrJ=6OJ0Y9UB0m:T/grfo8m?pfR%=VRb2C39CjA7wa=N5eoCr46iNOx%I3p8k2YU,TXe%yjIOTgw%?WBA%56N+5s%9=gMh2/JY22]0o2rytucw2G:6&adn7-_620p2ayl5j.vIj0J:brwrdVaQOAN=%2Zue%cI4%m/em2O3OocN3vd3daj9lmk1%mY20IwoeCfwI3wwwnRO%nylyNJfDj6.DCrD2]QjV%]znjj2NbMjZslyyC%t2muezYj%9jT39DMeo3Iy/l9b37iehQI2pet%sjdqjmuYe.v%6C%ZjEw5%sxnBN2bnpsjjEFM]pMd?%QcwDkj=As2j%2LoI5f2y:3&JBBoiilvwuICI=2xgsnF?.9d6s2&OAlIQ20el28sBm,mUnhiV_ye2:m0neWk49Bn2:nOZr6Zw28thdx%ja%F/Or%Tw6_YeaT%Y9oMwCMIa/dn.M%OY%aD2jjkeNlkzMsI%tORO2ie6sjIjN/yeTQ?SIgYMf6aI2%'
p90
aS'JIsIbR{0K-m61jjY2hrjISfwx2j%lrzheOaO%IuD98icncMww29D2S-jNwjfy=&3aYRIJ_MMU[EfEeJ2j%%%7nN3nd3ms12tE2ee=Ui=%eww2k%o23skmnnIsZMJ5ir6d?NldYaajDIp295nD/nFfM.l=ymoDnJieIaOjM57wX0sSjZzOTId,MJ2kjUi0foeMmcyjElsJmjRp6n=MMlYkwertedjf3pHhlDnl-5O%:jD%5%jw/oJsICa%rs&ZdjjSee04?7fCnxoZ?86K,gN.6.2lGnI.IZI%9an0unI2jW2mXw:0%r80Enjjckt2o/2oWlcoaI]De20e]c2BOunzp02vcetOOZw2hen:21ZjMOon3tsl0Sz7j/tfI%2vj9IhMCkYI/kYjsU/PtImOzspONjp%bjirfuu/ampZ20u0WA=S6lj2wI2yiPmOkGIs%Rp%zllrOguNuDjasoMscGbIrCa63i.o23VOYu_56:MMCn%/x25eAjjyO0QypYn_6Y:I5oCa1m{=ltq0n/2J2QjD3m2xT57.:Y5QeCojhQMdtumlQxucwe2N=De.C5,2'
p91
aS'wd?W2lYs92IyIIQis60zYj2I9CwrQj5sbj%FII?j8dko-dt1dMo?paTYsNgb5zIT02T2TfIAw22o.A2l_u]2TpF{lmD?nQ95ex0Url2iP:2As,U2v&wex=.03zmi2DjMJRp5j?Ue90=sepjjOVv0t3t5lsHnbT62ejjouwYmcGrs3dnenvh2DVpQ2n%%ceYlIlS6amnU2a?ooer2j2p46soIc2Z2d2N9jgj0ZxA60m9%jz%Sg8smM0ej/Nhfi5Amb:QIO6n7.zf%F%DwdU?%fbDT_akYne%zYawAjjP2FxhC2jHYH/lidZ/d0eIIx2ewEtfn:V_I:Ijf2cQTZENJe4]c92z%zh98%dWCNI/9&23jzUMS/:Fa22EMdCeNvM3wm5II-ao2ucJ5mf4e2EkOwACfjwmIe2n2epCiIareMsfl2fQ&j=%ffaYtiIWWaiai5A&zI3l2%t/esCZze.xjgIJYfIdImDNoy2:[fjsjAlfA3myDod20Il65n5t0Wzj/heyeeI.]pAj:2unDm2Dowb20bMs/pY}F0z9CSajp%Byo6ZZT%i0r2t5duY5nO0'
p92
aS'&wREwmcjir%TQa1LCVt2[s,25wwwOR&oBZ%I02E2xS3jy0m5MeUdn.I2s2%rMmso%M522efvb=aVOiOdp2N3-Imn2e0=1V2/nDtIuoROwe2I:sR3hsxIN2eoTYMv9jorIyFoJMy33yYr6I&c2sz2sF82e[C2/llUZS7fjwn.Fm}ytx[332wsngzsYamdtuCoTeka{alnxv3pZlqIoctk4j2z2oMmzpmKdp%NWjl%aT3WcOw%qwfSYoIRY86l06R%vYIjkIe2sRTV,d%QAzdnjP/ZG6gOMm&mso2Z2y5=eIYer47AN:nh2Dc2bieoGsjIe,2D6pEuFo%2C3NI%er:mwzj2rop,fMfn3e7n52}j%eD02s-mj26N2uMw3NITjLW=MD6eoI:7akJ8x30FVOIymYdFIpuiU[9n=yn2I/%TT02j%Od62eJ22fONMsJMe86AM%3eI%zZ2j72wsIybs23e13e23Vn%lM2g5I9Wrn/yOrts7v5%E%d0i0AE9bOmrdIiI52yuwGisI2gxZw%o.%ws3cbrhsl8,.NII6yRgWIbs5omcoSwTeJvd2MJY02'
p93
aS'Gb0a%mc=s%m/gQ7%HI2ww%jOEMo29mCjfwTltMdt225AWNls3}2i%%fo==/F22d8l2QuRmVjseI2e{=n5l2k56MZ%JYJmel-ODSsga2n:5pe2tT3C240F?u8.M2AjMok6II2Dzl3s27}rsOfo-tZ90Rxsa,P0OM2Gek26Y9m3nsjdg:DCjpiDoTpMO=jpdNn22./2Dbol23pMM2gojx00xIss2_i1u29wowDjtiiSj2dr%wmKmCtg%MDi2pJ3gZCyC%I22YwojMvNgbjoukD?2mlZnQudsM0cfroIjdnoiFCNdj2l29w%lJM%2w39J%neCtw=TgssxrjbiV&6Oj=H8Pdg5yy2M%22hlyy5SWoriMM2Rs%jVjIj%&ecer0Cc3IIS9ejjo26Wp0r8054Is22em5iUwIMN3ewA26n2Z5e_2m_YT3Ou3Y0jEOk6eedJIkjj%LPw:&d%c3jjxAw%%dpYPe]ew%9eWaf.seo,veDeMej2CM2.2er0iiB5Yd2I%j2iaQwKAMN0JIj3IFSynVMo[_Z0Njg0oe%E02%Iu%et2Z^K2w9d0,ea4:Mmt22'
p94
aS'anyYECiOaMZeC?YzQ%Ib5kxh1IWjolwch2bz2YelI%jo653%ij2jiI352fTjRjJ,jNd4gAe0rkr2C::=W%t%wjIjtO6DsmFaijmlwo%n=Oi2]%vBQe2aurOBH?1%2hn2NjAe6oO7OwYMW%2YI2oi%LT%ngbW.I0Y0ej_s9lxvWcQIf/ge:PnT8nhwc3nN2tRIsvU2cjo0/Ma=j258o%mYyYci,.nlrNIwml0cjJGQQE=xQwOO2w2eye%,e=9enM3O2sUw%-62d2jEM=wAC5e5tvdko:uYjAajN=OZ:2O%JPGn/W5}5WMj2OPn7mWe_MGJEbXk:D%pIc%ijpII2yis2R%9neaNjJY8OydY3ROiy:z0{2wV2Da5I&22N0z6BmgzG/YDmSanTyJ1_%njY%2n2nD06sZIINZjPZraDON2ScMmrYIEt02fjdrC3w=/aF%.27FeGb6oDM26aIi6wO02m%3:2RoSe30%Ii0jj:pDdA%W22E%siIrmojADy%sNtiInAO:TDw222NAn2Y%S.5lIZfek2s6AIsws2t8T,a&=Tk&oC2dC=_fjemnZ/ja.'
p95
aS'z2ok02.aPr6yI8e2IrOAm3LdRsxwWnc,scMI4cYxIzeCjYjIz7jh2e9&2r2a]=M23ji0%&tjO9F8Cf2MR=IYw2zn%%iOoag%tlAlMJ2Qew2ctcM62Ydo/dge2TsjsSjvOmn6gM%MTw=MwpDCOYzhmjEInD_pnIM03:8jtEanJE22c82TrIedsw6d.e3O725DOZ=2zy/e%M._r60NBmNrNJs2we/ftUIe2nrnpJa/2%x3jhRjvbe60OsngIGq_o2fmYjeVMpMn6jO2363enmDe..7%e]Oxyrn9ofZ8=8nhajfblSQOOk/y9O2%j22Lww=tpzc.by?Mej9CJ.fYydjFxa:G72pQJex39rYN2=jdIMmi6Mpccjpf2dqp22rhwmjMwt2&AtVygs2v0s2:gI2Z6tZoWYwb5ueIlmUe%O0impkQYsRoI%hjOjI==8WyS3n96mIrQxfojtAFI%lNbCoUxmUNnM%{rG022mpIJMUq&c2sM2EERHwFi2hMuIh6ns36eA0CQuemM9RmOlYyxj:%oNEwa9jc2agIS52g=2ct12xo%r%g0Jg,2I&2W{/22'
p96
aS'%c28%o2tSMd6%7gaDTY2Wp2lkcEd]_uO9k,4=..s8f=rCdO9s.I2Md2N2:3Njm6%m9%mbwIY0G2\\N:i3MdMce3Y40hWt/nY?cV2AdAIJ%osMJzJtA,I9.ARYII.xwdrQyM0Yrvedj2i=OpNnV2T2Mmx%wQS.2Ojv2f%vDww2J84MQpwYYyQ%g:nso[KZs23lum2grwOM6k2liSZEseJIYTI/0eCO3pCg5jiyWkez0j10yV2O14pe2I0:22II/s2sdPysOkEoveleKM8jC[%sjcwwmjO29IRX=oPe.FOws%2FmgSjtJNU2[bXoD5j=36wWyjIeFlMre0l20Ble%I:D:jjE0%Dewek2%193782wjcm/6t0fQMc8o=j2/YtO%%_Yoyl2m/mNTd%fr2fZjwyNVn21j2ZJ3N2IjOeew2nkocT302N:DtYjpxdM0NpA/wcc:cgs9%rd:Al%Vo2DHe0nQejYVI:Yv09CgI5aDWpn8=cNtI2NQYevYiz0nZ6il-wwky5I%zJY23+x}tcDnwvNgf92%et2reXmMotj01ou]DeIfljCFm2pnI%6Ue/E4'
p97
aS'6jU0ts2N&M1Gya%IY/2r=Var.d-222D2jz30OnsfTj/Zte6TC8Yvrorb=nT1S,d5u2M6%TesyWsI7uaminl0&5%jwMryJxM%-lXMZj%Ug2TnI./MMo%mDs2i%Mym2.9oumaj%fjm?jh%w2dbD:08N0AjwambUUtj4dtk=jg3%22ar5JfT_v-J8Y02n%IiEih0/eJmMj2e/iO6SBxhrC/Xwe0%Blem1VA7%rio59xCO2eMeCr%296W2s9ojA3yV0Zj32vN8O6IZeaa5=zaw=x:SXJ:/EwetbR32ostm8JAf0euY2C0sNGi=DsDktC8Y06M%ke61%wtYJn%-mmjEZlkkwsItv8SZYD58fm=0McrCQ2otIk61N5di6C:gmZTJ22u{MZYgy3aU%R68SOy2us/s=2201jBsiEjDOOf2FgCFoC[AazmuIkes%2:7IINs8A8e2G.]mN2e/c72%3l.kt2E_M5g%usYdDAQCael8AgYkN7Ck%j2Cd/Yx5jJM3a0{d3mI22i%36AjmiOIdHeimEeMlnla/?Mze2mtAVrxM/p6CmI%eokahNojr%Drdp/'
p98
aS'ypYVhJfS1gIu=xysjFrp%clYCrJWIs3Vyw0Mw2td2ZD.&I,OYMstwEoHEjWSec=NuZrlq5awtwIxZntvCeSMQeIzz5yjj.PgbcDQYN2Odj/pMX6Nn%aI6s%2%_RsxodDs_w2oxrtea.%E@YQle5gae5cy9I2do2IcmqRejMEeODjRsMmP8b32sUj:MmRopBZIw2E2dMe0s.pj3vlO0AqVCis22{kZ=%/MZ4M6xjDIESjDNthWyIIH2foa0aMAZTrSrF6Qrtp8u2=g22l35m2IjMZ6QA6CMO0?kIje7.Fehk?2oUAtD/UD22OyVQom:TIggj%wRJOy31%c%sCNZeJWwyisi022t022Bt2kVmag5T3edI6,0wJ{rdF82a2dMIeY28{4%6QdeUorn_e0rDTn2Shmdsf9xjeefS722QZIu%19a2%Oi1hhIn8ieON2M22w%R&Vm2NMCn2dwkIrm&ipjc26cd33o4252m55j%uIQ0rjmDMeoyI50%j0UD6SxTw%,Fj0deZOQolj{MY86tp9RQ26D.lZwFskjwsgjj2M3gZ/ofeoeeza,eH2edc23'
p99
aS'yj3tse%&m7k2Iue&G.E_63YtA0j/an3U2Zxseee]026dMZjJpOQnkm2rOT0Y/xkN2em=nU2O%OTea%Z6ApYh8nAFs}JYhizKawEIvti0w:sM=cNatIuOp[sN.Xoji:QnnrOoW22ijrRkZ0FMlINC:d23SkM0QMjIwvJkDbw0S2nc&Mmomsqx62Md2s7NZkQYzteM}thYU5Zj5Moc2f5gmE3P2lNceNZoR2QyxlMgdcYa9tmltsy/0GWMeler%ZM2009oNo=Iq2em0Mo5O.G2y=ljm2%7nNm&kS_yaCOmjJaZ2fkZ3d/w:6QRD27DxfR0pe3FmT3%OijjTN2,%ocrNjme.HY.0wdem7tuuks55U1O2plCIM25w,2Mc2&3M2naajI&/dt%wIasjpQadhjOJ0ok%2ms9oI%xFO0IyerWkIdhmI:fl%hu%ZY2uj2/D2yMJeByc?ZjvdO,:2Glbi2Y%h%gjbnF2pc%dbC2xmpN%ej92lt=6i0oT_Z_2JU,C0wm0lqEC2a28%neaZj%[,j1JerM%kMeEJTmkkRde322g8hOerbZMi0229SwA025%'
p100
a.