(lp0
S'9WSGpWZIjs2Y2jmiNb2kG=2dE0axIsNOys%btO@Eef}x5cI9&bj0OjN:CCDj2mslnwo%rdOjbiICd94=eXIMQQz5In8m:2jw6Mc26N:Q]UM_8mp9i0wngW6w5SAoT,Mz%5aCd&.:NHAYX6C3Mcais=f&uM%'
p1
aS'w6eeG2Eo5IIOaEmjss-eMau6_I3jd7N2o&iBJ5JNsiU2}Mlovtrj,lyhIp2b222WM2glmnJgepRY0{25wY1o6%3IYs3?sFtYtm99s%NODj2hR2%&kgYs.w/U5YC2Mwe/759zTuk4GejCno2niNjQiOpg240'
p2
aS'Le,cQ%rojZmj5kdGOF7o2zsjmz20TYoj/h2O3RIRijjoMf2ulO2wwmrCo3ai0z=:=:Rf9aZ0njl/dnb&,j22kc%jjYc22Dk25IjeynZuIC8j&I7MM?2bSu=%Ts&mu2Cm%b6t5IICvNTjkeJ2ITJ[%62Th5%'
p3
aS'sZ95=Pt6omaiz2lqI.YrWz.Ee,,kM%A6l_lsA2NJ6sIrt=29gzrn9lymn2w0Mwp1QF0m1j2I2RTw0m%2a2sN2Zeos3lAZn2woC3ICjnDp:2MZ&w0Zasl3EHkuuaIMjsenIoa2OiJkf22%davJI=mjz%?J=%'
p4
aS'moc2gaQUtyeCfgm8_f2N2C2o222g822%axhYt%jtD%vs8JS5zmj22j6wAsrTQe22nas2j7Q35U&MRjQdacMwjTodcajmRm32d2sc3&WIgsIjgjb}712W?2520kQrMP2.wt%2N22wwe2krOtdr06c6D-ms80'
p5
aS'Mw{KI32%flmeTj5wjw.sN31xy0kkC%]07=2k%QNIiyen%2ny6n2.%K8l=r6Io7tlwj%%2_[[d%leraxfC00kejN%JOjtxA9ow2e2NsBqAf%Xx%0si-ncvmN=dInibCONeO%[%32z2/EWc92dJsixroKw%N%'
p6
aS'ZpzQ22G3Mq9ZGaspDJf20wJnZjbw60TfOljGe7IH2Z/eCGIxntxj9MsxRJsM_.6SdzzoO.dNmQn8M%FjZo]v5gZNonndC22ic2wJNmeI5yC255ICm5j2MVmQvnimuem9NOw2tNo/0=ma522:8rd22E2r3j.'
p7
aS'i5xc5t6cl5%,_oHG2domw_a2SAa2xjBtlh.}%yCEe3w1tbqmpemCnTQ3y0amI:w%.M2gI1Bwgo02I:/kwC80p06lei,E0YwjNixgfU/3w_I2mi2%e%%IXt5e/fwZtNkgpa2OzWicNB=2_JNmseIO2Y3jY2/'
p8
aS':%%2wjM/kjR%3Sz%mS%.7seM:%e1s:6S&k032nI2/n&e%2onzm%a:=pe2aziGx=reYimemzrftuIm6%ytoojg9POYOrh92aMnY2Ju2ttjIuTrra%2sjijd,2zbYJaOoJANhiNC2A/6tAUj4S2MM[6}tk-51'
p9
aS'0oNk32tAaGIi%np2%rNZYltuIsnj0e2Gtj=DZ9d%8v?kNIo2.zDseeg%z6m0osMnhpFGk_t%k3NYAen&52opr9%s222N2NrZMw.5f5en2zaj:0.nWTVgwuzPaic2JIyLza9o2u:huI2w372eo%Zf6QXWWy%'
p10
aS':iFgytI2rwatw1=Wm0Ii6n2OMmQN2tjCRT%%rQj%YhjD9j2o,Y2l3ss0vmjj.2Q3uIdok}Mmj2S0AU:02cys014pwC3o1MQSjwTcjepfTEt0a%A8VorN9{sQeSt%QmN0WtMzUej:7IEoZI5Mzpol0mR22g%'
p11
aS'jj2tyYyif%prepIm6IgzOzeRVCUIvD?C127TQ,Oc2Ijo0jyiMBN5swmja6gem3z]sNjJc6p52N5Ztn9dGbZss:2oz9I%29G7.IJwEMDa3dxxY2=,rNOw5BJ,enptxErjNwRjb2oTsbmkE30]yNac3Ya2y52'
p12
aS'_2nZ29wzJsWjseler%toVjar8Wj/z{R%awA6B2aCb2e3mu8%5sUnlgo689y:3ZxeZ2RO1/rXM2r0Ir5Ney0j0o%2a5woeCsoJmAj9MciMEwe3gOFE=We2nse%%Bw2O1pZG6a2e_72EOsxoMveey/28O2e02'
p13
aS'g_6EjslAbI3/ieriTr22mZJNJ3R2jJj%izWmf,mDdw:_dSM2j0GIM1Cm62dTslhE86ade9l/6ctU2e?ku%P5OkIM,ysIsw2DIc53.iC=2mnxjkpRsZYe:23,TC8:kmXyx96_Wpa2OgZ&alx_0T,DE2%m2M/'
p14
aS'ta26T2UdQTrM%Mj%p2gcksjJZWe-ft.5ren2AnoI95O=ryvitg%9Ute%w2&RdClzy0O%fpekw}J3jwJNwI/2tGZwlO,%1jye2hbrOY-6YaFzb:mMcMEI8/z4I2G%ftAI9]JtSaN%j6oZOlwwg0wcCt3M:60'
p15
aS'zrjej6&2f5oj_2Zff5vlFmk=OppmCRcojXrzd2jszWejMSz2C2sT/%e2Iy3:262AiEepte%ZDIewwZuv%u3Oji%e0InnUusjjWad2Fcxm2.uy5li3catl%26e%m0SFYxPTf?fglCdOj%CTkMeWff%j6eIk&'
p16
aS'oll0eM22%26gKyao3Mc.m6A1MtsgId20ImS,PILl8_2Z5jk&n0dMt/e=ogWEca0:0dyIDAS2esg90p2D2Wf2B%wM4:mvIO]Zy2Tdj2f=3g5hceenr21dSov7u29mZUkc%kf]2P8Q7n2elehao:zz9/lYsM%'
p17
aS'?3jMleiiIZvf.oObaykj]i8cYdG.ZeoXji0YgZjj32e%j2ijPujjT%CAhf3wxAOE0RInSahus%CIi%vmp5osEdM2cbno0fphmw3262ocwQMYms=tk%=2yMWu%O7nE76ip_s@AtS6&JO%MeY5h3wjf/2r1w.'
p18
aS'CaSnTsT/os8O,tNQt/i69TgJJih229763sI0==O.nN/p5wECBe%5deFJE%jj232xh8n1jllAh82N0YAsjmg30ys2OtOi12OiFN,sI5wRnXOjcmXZ%T?E2seJtOOe02D0g=2jM%zA9%IjegMiuSL6fEIMS,2'
p19
aS'tM2lh9Y{5zx5Npnj,TlgeI?wTA2&jm63txrw0k2J%Iya%c8NMmZmTVOjdsC3nIs2amF/tanxvietoije0i0=YUU/3[1YIQr39e:2220356rC4o0SFIk5,6zinMdJgbM5zv8eNtJ05UWRj0TZhz65e2A69o+'
p20
aS'Yt/25N26kWZw9oMk82tZaZjZ,Iecwro_2_IhrnFy.tI8Z/je2Nl0kHajgpwj:-D%/j0%jcp%DM9Z%e6MOjw,xe0j?YE%jvxYOdawc%IjmqZmfOENI/5%2x23f%06yEy?JyN2dno:k5YaCdCi0ltI%dMgsY%'
p21
aS'e3m_JzzOjQsw4rkps2j2JqCdAYjm92z2I%[yowcIMa.M=WweI0ZgmU6mzwLisNM=2SOwC28ANRvosv2J9Ms-%Y52hjcDrT3-cly0&i/2YYMUele2rs}oD22n5e_6Ali/dwWaY5b2It1Y1CVesUfmeQh,,q.'
p22
aS'asZNjIrZCjJ{Mf22MQ/n2eme]N,w22J2rAjOU2elIai25jGFwYr6V8516i%CeIai29pVaB&D2cIiGu55l2Y2r1N.OOoW3me7f6y2ssRJr,2N:reSsIuIM&jgMe8Xw6PQ3MS/NxT%/sA02aXhwI9=uhE0sM%'
p23
aS'5CeeW%lg?23Tf/Qmt%s2eIGCY9rjhdsp_sc.N5R2DdlIe=%mezSN2%rMeQr9=e3l{eii69lCmQ/nkYjjA/ezl-tjntjej:tU2jm7Niya3ue5m_/2n%,d22IIe&5s0meIr%Qd:Y0jwlsAo=CuhNO%cdfdmS/'
p24
aS'b}Z2jOrFj%526IeYzTI.YLw27zwewjPs2hMgjIoTqM2OPnIkm2jEJ2EhOQamSj>bH5]Q8=kN_52%=c06NZ3wFf3x7W2xMiMeQN=Ev2aI:IMw96uC/x/5Oox:Ni2/hNY2%5J2=WM8fC6}My=Ij2CfZFk9j3%'
p25
aS'EIj%Yo*9a2bVco/3sW54ol503=y5zD2%Zco%Gb2.Irj/Atee0jdssmI,woM4g2ll_2j2um0%d3doDM2[fe086.2UeeY2tpvmB%r2AsexkyMesmw3YjIj%.chi=mj2e3%i:t,t6:3jIvs5jjIYwhm&%tWsR.'
p26
aS'ma=_O1w5IjWLEdgI2On2t_2=eSI?6Dky2t[{9WYjnBr39m9w2aNz2u0s%mZliE{ne2aMalM%]fmwbesyej5l%2iwr9M235W6,z2l2ed9GjkxInefMmed2mfDo2-oIWI.MBJjNr/jsUgjh05%MLs3a2/MN%2'
p27
aS'M2i/tT7emI2ue6veR?%MeF:dkaMcoC9227IdD2Mjj2xEWCa6jhQZ1D2%fSvdmna0y2tCM2qIo_YZb20jRM%32rwl?Q032]O2I%reek8T3U3/%SjwyThCx6UYejlOAwxe=SszTnM%5YJn&5Wors0tQ52Gj2%'
p28
aS'xyeMQpI%IpIejT_We%%AO@dIj&_9yCjiuSY2mm2=a%2mlDrw1={pj_tIs/Gw0a6{cjsaIzSM_MYinj21NeWus%sMAbR6mlia%j.Vc0:Yx%2jmy2tmsIg2gfk2Ssx/aLVci2{_oY%f2t{c2pNozjCxocyet&'
p29
aS'3vD8o2E2OaHItZI%N6aX%otCYygf6MTo&nNed%sajJLsmccvsf&2s/51rvZniEIY5IOU3Ie2IksTv3k{/a2Rdhp0LfWq0=%uwE7f=nI6QIIyT2fMIu%n=t1o6joRj5osz%u0uryd20/%g2%VYygsajj2B33'
p30
aS'rnW:IhnQD2%O22Aeg2%JOdcS5sI/0Jiu0s9MYO_LN1IsMjm02wr5II38j9oW4Wf6LoOujltiSmZjj0rjej/xO3n=]rS2oymwWN:MSY7jI_oNN%0Jz53U}%I6sNl%NM&elIQuIhwFKIwjNy9sOsNZtiM5&T-'
p31
aS'OioLGe2xJdr280bZld6vIn33iz%nsSRzs/3::0Dho%5l2j502/mf3u3G0g2%i/nyZgyr,on&vkWMz2:%de9as,D2odxQUZIItNbYwdVn8:ygm22,M33ts6h%h8S%lpp2a%Nh0y=Jslh}me025jYFcc62ew,'
p32
aS'a1xtI%o2QQ8}_mn8oAelo3%NO03zl1psia%Yx6e%x2Namy%ZllmIAZD2XsRIk2eUwY%TJuyf&%6u22=Z85vDjoNfbaNNa6ITS8e5TIdemMg9Yg2,%Su5CiVdN63i2ou%Z:at20eeee0%YC:oyel:2Wj6CF2'
p33
aS'7.cNr7eoZXzOaWwSY2MTOr0qne3Y7lsy2k2m-02a%%EswP%w_jZ%BmzumhieMmYtI9fM22aYI:n:O32sQpMNdJ0fo_jdD_jgw=hwd%ag&eT7WdDYOMzcL1eG=ufw%MJ%aRaD2e0Mr4asyO&yMrdTOn1jtc0'
p34
aS'mmsaust2yjcjrsyjF2x2sAlmSjk=eT:el2N%rCj2Ij2k22IDkj2egDdM2f%kjkk54a%z:_ee%iBgLI2v:yrJ2vYIWlt%gUpeey:M2=Mj2{Id1r}ISWpse0h8j95IOj.:2OgDSux2z=2n5E85_oao2IIi0,0'
p35
aS'i%T=_c/wox9r{2jeQkV=MjxSQC%nYM61xl2Iol2nfISii3jilme0nTlipVIv-[/8Fvj3own.U?AZo2MIvrurxl?28]0IlwlIF,d3gYTue2pfCI%g6tWIxifR%/ojMTk6_5QgMgSe_3jjxe=pyTQmm6tO2J,'
p36
aS'f9af2oJ3I%eYkYEhSS6%8w:rNlOYI.w,icrS22I5_Fe22:9Vl,_jUItexIrew0%5zxZzd1w}p%ax}6%a212b%:U/:CI2b8mbkcj2vJi-G2IetBAlx6anT%%K3M2JtiD=Qeiofdart:ofxGdskM92dfjsDc/'
p37
aS'GUMj.=32]1lUv?j9QOYt7jaaOy2OgNojRSjz/2e,:OxMKge2wt2zj=,OYrTxbeWwIjo0s/:SimztmkI/MMCjtl/XIjedfrfSZn2M6RMmAT%tAdV5YIlYnZ2jn/Cgrvn4cw:8OOD2osjlIa%/loMr2IICmW/'
p38
aS'IMP/%5njijuai53AWZmwkhddzGvf22Tl8vh42NIInG3Cgjcv87a6bjIt6/Iar%ngl0ig2N62I,B0sMflVwUikVNc0pz22U%NePiM2ZsFA3RIMrY2%.OxYer}gse5O5%m3jMoy%mOe2dg1Se3gl42JbY9632'
p39
aS'2rnCwAljx2i:w1wg/op8mjGpaa&XIBThrf62SZgjO%9I0rt3qhectTkzenjdglOvO2Gv%DYr2b5je%rj9uO7p1I0y:N=wI6w2Mtss66w?cm6U&gTja269n5CpT112VjsoeE=t%shJT22=mnneeZ0o6oI2b%'
p40
aS'3CDzVbsiI/2/e:zu=i%3ejoJ3ee3Zpz/%-e10eO9dmDJ33esfANklNbkQ3?3sj8otIcjM2swf6Y0?Ad=c2aUA1seN2n82iw32OZsn=xS_3f7xv7Tw60N26JbeY%i0swongf%Mj2%w2An_=gMf-2xmwN6op%'
p41
aS'RwjtMIjg0MYJ%%0goaiSN/N0{2gTu2jljcDd2Dta5rR922vIoCnewo3Aml2rR5U2JzCd3j5[z=t5o5cw6koF52A2MYstjt0jAjaCtr_Moj2Q33feISM_k2%mj/TuG%,alIyge360/IIwmr6gk0taM5m-kj0'
p42
aS'3neS0s4ZD%wGb28YIddoCWVlm%gje2jy%uYp3vttd/22[niZ%pyI02Zec22LnirRa2wok,ci3jlTM2Qat8,aE8i202jT2Fp%02I2eheT20jmMdJ%eufp6pCnz0ZNejCmti}o6cgw52w,2jf%GyWOis?Q2D2'
p43
aS'sI56ieho9Px46r7p%I&.dLA%&2jT22s2n%=/o,2QcdI}1b2O_53kzTIQC5amewruefemBjI&nI7MkdU0jV0qYCmefA3a2e]rb=w5ySAa5UrQdnIJjs%rIyrdJ,59j=OMaRuwd5:iI2we/2,CiZ2tjP0t022'
p44
aS's8x1dBod2CjYrj2=7r26Yn2x2T,ARrj/zwM2U3wInk}M.M3wbj2IDDtooUoCOIeOnII2eEs92MdeT.t%jx0DNm3l.6uj0q23nlp8emsA2oM:EkivIjgeunn_lYaB?pZC/%0:%1Ns0Ylp@eMd6.2nZm0X122'
p45
aS'z,%N2IDjUadh%%B2jYk8t/3oa:5sYMgdtE2jenMwZJ2zbji2DMtiO2leo202xss&WFE6Ijf,N25i0nQs=0scj2U0q%O2e.&Rm1M2Gt%rCiMqk-Y1e7wuxN42%j3mjOe2VFn20Elib5sNk8zmfjC=r3akMj0'
p46
aS'deQu2ojMH%xNo3utglIQDe=:se2YIJndMIGII2Ui32Mt%2cwloffo=ionnt{TdDJj=2UoI9aod%Nls%7jozfTuo5mAoQj6cet6Bf02joelOQINmIw0CjWnveyu22MdbI:wib.aYjiyr22nannmd96z3a2k%'
p47
aS'/A6odvwDu/1z%wQN2A12x4jt&2ezjB%iO2UwoDcteMl,yjI62]F2tNV0z%%jt-IJ9URohnnIvY0b%l2rgsDjd%wmT%fppnlm,g/23Jm9QY0lawss2bo/0GOa%t2j%l?:I2fs,5iu%O2M/jZme4,Iw:hj83%'
p48
aS'tCO2lg{YwZp3D%zszI2eM2k9Ao?wOPMW2f2z2oU2t20%.cOijRnIlz3i3R,by6OJoYze6sw%YjsrtjZkdM3Yowtn0ws2oymQe2%a_&DC84o.Q/mzjh52r22I6Ionj_2j5pmIYo.myweM_jz,fxMNp1A30G3'
p49
aS'2MM5Zit%ept5oJw_Mx.rh}07=rj:broAeeS6:%%Rmr2EsY2iNmj,%j_=?IdrSmJm,zttZ20IempR5WaN2gu%j3wedmAZbDOmI,njmTkuWuy&lgTff%2tljMmwn2f=eAXwaOj:Zt/m%%tu9mp.:%8DfOS,x%'
p50
aS'DenIw9iQigTiCjg2Fgy9IJ2?,r2O4aem9j8ANTwSNJpwj.YN2%I%jmeb022Q0kI?rIq}jei323Z3s5t25YjkI2aIg,2m2D6y%mcthC=,ze,-L5xSWZ3UeY%2tjSVyA5.wgmF2znr2%fowI3926n22ajjnZ.'
p51
aS'02o3Ndre2tmeu22Ol%mf2Ep2D2eCj2E%2DR2j6YbnsVpsy%/eo3Ne:Eycwo=oNGgn822h%,F27%folb%janmJ}Amsg2sm%%z%ZmWin-OaMvdzFNSummm2bj2oj%poe2se6O==Ygp0yoze-O0ID1ws,jnfY1'
p52
aS'oiD52n229=Z22shUsmWkwO0hTtMJwk3}02=sW0d2tNE6MY7e6rs2Ienm?={seh%/kCaVM0yvyto2fII2eQMkdI2lQJi7Sz2I9jmS2Ikz0h%:beIP6hj}1hrn=%a9YMOk.QI2wTfilI2:tegzNIb1JM7&221'
p53
aS'%b02eIy&jYecjc7lkwSlu.Iawu%i9y0:iM292rorwszt/2%I2528a7smQcw%9[jrIjwWB/S-Tdzc,:5_ooZyjUVY-%rb2wv2{u62%stjjwft_K2bOMdrIefyNem0%JCMQDkp/:QtuEagdo=AF3ij21569Y-'
p54
aS'osjDe&D%9=mFe6jZ92W7nowa0zf2lJI:ITCwMjaNp0lj3aJU2a_5S,QI2fUS%Cwm%jmRIeh2_gFj2mj5OMGD0DotJUlV?ZymMusM%ajiR52Yhwe62Lh%yrNyywaEDj3rV5j2JT9w1ZgYi[,%Tj8DQ-vAER/'
p55
aS':i%e5Yivp:d=sIU2NeC25ax2OY23kg2S9Gs%m%AyNLhjgMoPk.d2mJ2wj5,u5jY6C2E3jrffMbMEnmSydmeyjmj=ne62O&hbTo3g2ezCm22t/m89ewdn_i02yvOI3nu22Y2:oOjn0N2rYfD6,sF:2WTVww%'
p56
aS'u2TaaPup:%t:ttI2J%brCu2D%xeMI2w2Mgrn21fhl32%ep/Ib03ImwC:0]nO25IeyDb?Gy2b3I3Md2206ItlsnwwcCzBNIG2d%ezT3zM,:hcr2j2j}2wmQ,%a0ICln00meCeah2I82v=C2o"0Yg%Cjyi?P%'
p57
aS'o9dofh8tdwNp:x%2RjKoj/8dt27f&5a2f3jEZRjcIYo2m%mnooRlse3&Mn2jadle,E%ZOrr21MUtM5d%%2eI5n02uj[x&Z:uewNY{sI2l3%NvAmXORm22fjW2ruS=%i6l2MaQE%2=,%O5%M%oavAanI/2k/'
p58
aS'{0,%mZlHmINzBSQjJm5eZ/Z0aWu%elD9mMmo5h%H2m2Y5md1=K%jMI8nJ2RzM2N8%sgjWII2ZbeWB/O32wNNN2Il51wm6IIdsD0RwCo%xmp2n5Unl=t2ZU0jj8/uu,6kobJNpN2pm:uNMVm5dwXY2OTo2:2'
p59
aS'CfeagnZn5Uzrkwdpei:SjeEm2z%amlm33t2Oi4njjNm8c2e_N%%oXQIso3sgudlTowMqJbe32D8f:NkseYO_F9jo22{0lBsdI7mLfIM0Qxw0t/Sg3jErsMD3IjoI2tm1m25F@.xskcplM2o9Mnxy/Isi552'
p60
aS'juM3B/0Meo20ibcusxm2m[rZ_{mdv5oxw_IwEj:IwtzeIpg_EYN:i6GO22llhYfSo06l2cO90}ZomDmMt2e61eko=FWEQNo57NeDerTElh5j22lRtji3wyogI/Rzs6u23ZeIQ3LhA%2QwoFu2poMBU/2s:%'
p61
aS'mim8wAyZk.wFr_anOl/d6%jK.ZynieMZul5Zlr6pjYI2o.QDjF:9jdfmtd2uwknZMwNDmIYUnVpSNfotvCef2a%ty:.0secZI05hN7j8p3COg..boj/EydOM=9wn=I2sijdgw2dsj92oJIZuMZMMQ%IfOc%'
p62
aS'JKeZZe6dJr.36nks8bo2%M9dIwMddetkeTNrSRMNhY0ejrNMDIpQWe=mZ=cGZke&eIWMndk-EY8CcwscmijofRTTjot2OoNj3ucwOUinkwzswNCvzw7v:jO8j2swg2%ZMmnk6IjjSqjZ2TpIm5?by6,jaN%'
p63
aS'2YSFm0uwo0sIpk/rYJMaynD5jx2rOw4Wj6r2na5onntm2jFFqG8jmnp0nv2Reas4u5VrIN{e5{C[e?mOM2-wMNU6I%2cVonPdMsO9UiW2a5222kQmEj:52_Cd76OjNAAkol&Cmeb_02[cf/2f0edNAGn8u%'
p64
aS'skAnC_za/2uCNjITjudJNjU8MEs22/o=%%aOZWnhMnj0rmO2JvN-t2j2txa2%ci,yNwmIo26CDNHnDWMIZeI/jrd6lDinnDj09%=ZD5:AhkVDjYLMjJO62342RfmwlAejI0%C6%s9dsY662Gfgro=23DY=2'
p65
aS'2JmBv2D?fJtMom{k2l/Oie=j01x2i,b/YjQoCII222NMitt,Fags,omj/0d8toFW2GIMac?%i=muMmjo0/NU22U2yxM2EFtDUr%oJDld2f0cTma%?fExjCOIzMO%k/ED_I/j{2seWOvyiD6,IgI2j%Ddss%'
p66
aS'x,jYrJedSUeVBeeS2f2:l0r5Z2=3medtiFYce}5JCwdMIe%a/N/9jj.CmEY&w32Zj2e%kRp:Y5%6pIe:fmiqC=,/2s&yI%jgMI7]JGzrYdg5Mh:yne2I2gy0cycVZ55lJTa,:%Dm6we=ZTeO=Ot6e21eI2%'
p67
aS'a2ee2OeepZa3iOgr2OkfeoJ5Jom2Gy9:UI8yi2=GrjszC2Zk2ZYtbpt532eaaisYIsOoIn5Tw2YN0De_5JDO.l?W%Uj2e=f6/htjm6O%p]l=:CeV6wT[er55fvj2MItJywry2jW2whiOaoZMDu%0IDYleT1'
p68
aS'%KjI2A92k97en2=oNcNkew0RB1URjO.2ap%eouzn2dx2%w9D4Fnke3lwk5ANatew06l2HIIjR%Y_eemN2o_erZ2M60I0k2rJ0s67p6CM&2w&?h6BCOC0m%aN?j12%/cIlfhDEO2o%:qJZGldjoTm5IIdk91'
p69
aS'2%IgjwB:,U.a/xo:m25noEBn6mIw00Tfp:&{98//C:&S3jSrT058tljWd0I2A8aoi6netETc2UeMcISVhZo&y6W7ObUfDANvlwpNXjjZ=?%.v.enT2CewZzN7iRsS2iJz2jngg%If2A0./reI_Ff:tpmQI0'
p70
aS'Nh&J%6NMJ-dIflM3M%jF3tWRwIjdIce:2g9DoInF5MsfRetYyk6ms=I2-ZkbOl2fc]ZfxeMr3wltXrbk.:Yl3292svmQdUMiEsolziYO%2]lTNIjyvrTfIexLAjCdEsooOUJDYI%%DyarT-t22IoMmCqj52'
p71
aS'jzj9:OtljQRln=:a7a2/OSrj_mfjiG}O2IdpC_kyeXj%i/n,WQlTE02EmD/ummMesJjQ3A%0U52hF5i28M2hL5JQsI.djFsEZjMIMI2N2ooeZ3oDQbImvZa25g=6mA/aOeSIo2aT5j3ZMMaI3OCEX12Ye%.'
p72
aS'Icri{ma-5=]J2%5MU:O%6V3j0&Mg35mtZf%UlF2e2aFi2Fm2hMbspp5Mee6okkYTvEM%WZgocx0w2jsmNF2:o3eCIhrn12I6oag2xIlDmj59JMa.l2IFdc5ze%Ta09ePhMjkeCQTdI929m2wjn%QC0IdOo%'
p73
aS'&a3a26NDmi2l%IEM{,S2wryjjLf2VT028%Byvyn::%c2Iz0/5I.27Ce%ZZ,lR6nNdWINd5w]rnCueL5es46%c5CYd26i}xtuel2F.oJE%kojZe:?3=CN8mba&,IJD}0f/=Rl8y5.2p%xD2wm&oi3521ax=0'
p74
aS'D7h2DuMwrv1oQzM2tZ::dc<F203WAaAnN0fh2%aIQA0n6EwpsfffnjnctvIrxCmCM.XIgoQoMrwO2dmOseW2%OIID2&dx9UlsomtdIuTCA2jecONOwxnrn[2I-I2y2A0s8/.VIEGZi5ethoMw:mowzdS%t0'
p75
aS'yZsnre28I0bIFOeO2]xdh32Z3jMWyAbVzWsEOjbl3aT7ca.3CSM:p6%IobFpivGOomdojJ7c2JmckkIZmY0nGZfjDNuxk862gpNZ0D2-G:AelHdetTa9KFnoMj=A=_%sbUQdYDhtwZ2y2Oj2s5rNjMpw6G2'
p76
aS'yknh.aMoinn:O3M.M9Fkjenc2ZUaaGMS_662nCDMmrjNjB7poI:}A22o/:bpgkec/lneeZOkQ0vDpz%Yxxa%2ME&:]=iZbel0pebMd3fMoC63Y%ct6jUj.%-Osnml9aNX3Uoe/bjI806&TI6IwN6lAcpjv%'
p77
aS'2lxIrcnW&u0Zp:%jU=j&jj]0It=Ta6gx2_Yuog=j20ss2}ij7M0t22Z6jrMsNoSZeoel9oa,m2IMytd%Ms2w0Bo%nxYNdjaxoZ=U-boSo,j2YviZmz29smc.m/3mKsm.t6oNro2jNd2Y02fOiaCQr0ojee1'
p78
aS'jW3erGFjYCtw3YY%24pupCNQ2H0nf=2[rQZyA2w5leBmD2BSs2Os32&Y2txjk-Fm:yn=2L2db0QIU%mZs=Sz2DhttfQejk_2dIz6y3OdNfl8Cl22saGdfe.}2s2gM_s0USw,.t?Wd%jts5/wFVJA,Da2Y52'
p79
aS'xI:uImpi5sydSj2Itk2x2Yc,jYE23jk2w:y9jgs8o%nZT%0MT5m2y2.&ZuNy&waItQ9adNMCnk2e5jElQwcYga%j9ZoijIjjrCiCIb3u5nj%mI1swowTF3g22jMneG=uwn2MMDiN/2=y%BmpimOY,r=s%%0'
p80
aS'ncWIpj%%?mCU4j2cpYgPY0lwTNj2roI%2ns/2eOy0CgaRt4JAuYJMfmSrk.Myx&&e%ZJCh25j6am=%il%o=Lm:%ou2akNaa1dpf%55eetITrNJp=2JOZbkktDw2E&5aepwj0n5Jeb2T2keBez2IMpsQbCQ0'
p81
aS'MfsnNx/wltmljt2}%I05&%cwdNweDcemzsJl2_TejNM2n_25rpeyc3Pkee.msM2Bh%2I4:2tH%o5i2iku3SA6xNAMw3xElUlCwjIV&2:wo.Zj%iMTYFbuk}fl2mtNm1g{MV%ySpb3cnjoC::hc%yoDudMA2'
p82
aS'VC2MRSY96ufD%NgaCCOt5pxwM&0c5kSCMeI2X5MOmWjtDj.kUl2tmkjoab&?cU0Wje=2OworJDe5Ne.:/j2ckA8.6x%wvAu,bA=2xeT2w0I6jrMr.:2nTzj8Hjp9oA%a0%eolOfIbMg,2ueeXl%L0dneYA0'
p83
aS'm=r.UG85%s%wtoiu45m2c1Y..2idoZpzOphOoq5l25M%-Yhyv2d0MAMIb2Ihsg::m9%2t3sD%2wPeDokD/M50WgNsMmeeO&l5%T5aYO2pn2rdjFf2T25UtduNeuclxbNtUwlSe3ydx{mASMIb62,rjnbrM0'
p84
aS's,sna5Mt5lmeZa%m%DIw5fg2I2DFFwTzj2E2/GWjm_5IOwZ2ln,mNjO6R&IprzjwzTlepYmvtb22ny5rPMUC&a9jMg[G%WeCrs95YSN2w2t:68Sjjo039YlsChpejdYiO%dh7j=jWN2T2D5amwdZ%:yOeC%'
p85
aS'/Pjtmf2IM%WrlwjIS2I.36A2QMseJr:sZbeo2mg9j%mNj:0ZMtlB,ghCwl0wagejjmWs2IC72def2x3kvJnwsG5/eTlsuAM%2%wf%[y2vGlYt2zQpZ%WW3Htg022U2J%Jh,jZETcNmC6lu%JO.YYJwlEs90'
p86
aS'T8Q9jkICN/rFOoF,YOm8UOdf25IjOe29.2YguoT2I/=h2ETDeGmImwCeMo%2.n:_m%%2elvE3diLMlc%MP2g02Q4IN9Dmgnt3RacJ3TlG:2Nj9db.ja9TnyoKh4Cua&62w2fRerY2Nj53iRjAeWIY%Alna0'
p87
aS'Qm3vdw&6YE%E2hmemn,5fpj.aaw6%e2a2WiICijvtsbeIcTaOv%Jh6r:Yt4YibrwM2IOJmrj:Dk%WJ36xn%2%meYH2MSV=nok=%muWvjIksY:PHrmy/w8s%z6NlQeC2O%yIM5x%=22cevM[tOyzhJm2fsj%'
p88
aS'%eQocVWwwYkCe:NmPO2yFVoVBwD2U2yM6InsvMgN6%hNjYYI2qNstbD1xOjmFOcgj3jQ0w.9nImUe2,2nOfo%rE%G0oWeMN2n%s2ZixF[bncUkh0jYkpjeN3IkRiDidrb-0j[26%5eZexes23Ds0S25o%93'
p89
aS'ZjT2}Y.nwrAoZ-UObe.O:PswZm5k2Mwoi.arrye2daq2oeMlew36o7j2ddtTo%d0iC6%yeLmW3fwpIOZumeoOgsMy/dylI0mWav2damxntopI6YNrp2ejo2wjWf0VmExx/e%wolf20aIeC?zkw09c=Jgt%&'
p90
aS'_oDxyAD8Y2=O22z9zNMmT2DkM6ntcrkO3n2jgJbI22/22aCe=CSxI3zQWGSYINj%aYJU20miZ25%oj:2xP%Mexly28%gtTIpHYYomAT8SjMO2tgY=Ah&%oCdoxu6ee,Qx_yipwdjrdO/e9eoMijJdQbCJA/'
p91
aS'9wNDj%ouvu59jjDIzwD9U_ApmiN929%TwDa=jdjNs,vTo:Qbt/toGi0n8327Ms%mMReAgAsMP%%m.pCz2bjzWjCjeSSeesZ22G2G-20wpIeMje6Eomuj3M9jljtM6]CrAe=nxudwjhgaUS6oIU25tcy0%V%'
p92
aS'aQoFwI6DtE&IeI:nIejI=5I3Yik2S:xMgZcn2jY/U2eYg4eq%33P8.WWe%ojlaj6O9e%/F2jk==uc/e28lmtdY4aoji%A8j6InZ:3%R2es85UsgBi2?%zr==i7s2opxDxtkkjZt2I2kI2etC2o7Fexm08d&'
p93
aS'2e_RM3elm.C21jZAkt=nT%p%:tn5V1TiFdOg0driOcdnMjA:m7GmmZ8A%ImkImjoS0rortgs%aus2Oo2G2kN2Nt-IdT_CbZn02z7wSOg0inem%2n=5Xu3tomyroE2s2mo6szwftemjxCws3w%%r2Y:IJyr0'
p94
aS'2eF2ZnTj1=lmca+S:uDwIeoQ8eeySGYD%jEeiw2IQmMLlzCIAl:2mgsw%dtye2WO32yMtgYGZ2pwUDMv:weO2ysbn0=/oON0%e/NsoOoMra2Zb2ndbI%tCko22jfYJfQ2qyWjxCjOjjydWOwaa8kdr2egN,'
p95
aS'bQtu,7gU2Iyp2H1%IyC{1jl,FrQlDfsflJ6mm8l%o,:SI%QcY3Bii4U6wnoMyIM:ZwkVxYzYiCe6vjZ3y00JIfZjz2OkIlMo%3N:u0d=i.pjpZeewgdRO%xYieh:mei=irgM{CcjYM2vI&wjMt%iat/t022'
p96
aS'CNIni6c:Cn0I2%tsewTw%Annso/IJZ=_JmeenCIjFDOCto.5Ex:rT&msZkdk3erofAdD,2EY7w2b22aTz%Ik_2suI%abxG6TX5UIUo{%Q3tYjQn6wzDDYj2Inn52g62uoOmo/0mkenW2%=N:Qc0/5%9%Z23'
p97
aS'9tlMn9[:Js0N0TDs0DI67ZljriTd%sh_8oZkIi2zlpt2njf5e=kior5f:oFcI&ewgnME7x2oajp&nzVMt0FA%DZMt%m&2nMt3IR5jowoENoynFl06N5CS2oe58pOmJ82s2YmN2n%ngOj&r8Z2eaa20gmT20'
p98
aS'l:&k&flF0C2-tI3Xw/862G.Pzo%j%jm/M2%9BiN5I{As2njFQrI2sm2a0aSCl&2NWTIYFr8nuY%MaCtDovNcl20sOCmlNwsjykfw22ZopD92e5jDmK-ash8buewjhO52:9a/Bm212%w%Ns%xsrbS6Lwd22,'
p99
aS'S80E/YfI8cZ6j=D7p22Y2+130j07e-u1aooJB&M94IO/20RrUJde/fIe0it2ORt2Twr[WIltI/,nYrs2A9oyWhvMIMDhDDkgC%&AaeGS2lAa2O,MetOA=jCIeinwMkkiRT4l2w:2Z2dm6meKsdwoYdrU2Y%'
p100
a.