(lp0
S'FUmy0fpO3JsW7sjc2swkhjok0rMwMu%xGp0e,20CVdhe2m2drD0,%xgdTWCwIeJvouy5SNIjrO%:8e3aljLSwjuIjI9G1ISby]2.%y29eIGbNej2%%En,DeDHC5N_FTmj5o9OImpmjoJ0NwbweMI1zdx5o2IowyUlATc_2Z68Aj%%P%YDilYmC:2m2jfSiGjlejoOnQI_Iwo622xNI14Nk/ioIisvEeSIn6U22t/S2mA6Mncac2bAtC&k2%:2jmstani&3Sp6wdr3-ZRmC%jN:fj?s/k2ImjheNnNwm%meDgD2Ipkgmwo31jjwimsh0iCp/j20FIw2terQn2BJrm9mol/2glE%emb,EM%c2j2AOl&=e2b38mjM}2y2reie%5lYI5%.%DJrM%pwjmCYmcMwtI1QRA26a2AogSm2Ze%OudEWQw0RhsuZmrw[Tkk93f6o-uz%.i,sYAQ0M&MDj62Io=I2l2dC3wMS2%jANOjFansaj,iod%D=IUo%VO20fN?n3YdJLrs8R,o3Et&bf2Cr%%Z2lo0Jdffa226k20nI/2kEy&2rg%7=222Uz]m1'
p1
aS'IM7233huHbE%OS0YD?CSDjwjy2aetTmg6Kp0QYE9=[ZjGt2ejIgtae[2SA2mI2mrl62%:3Ya=j2NDef0o06=2Nn/RYo2TOslTe2df,9dk22=YATIgYIoa2n.wId2ps2CGX72r9WZ%W%3%:xm2MOkwgw&=t2e/cjy.rZ32c:UZmQ202j2dw=vkf.%2u5mxInjm3x,e/U5j0t56FOfN2wr%Os2ssnIgvej%lQIevyDOi2WPOos3sjZi22MNOJ2hmm_2kj%TmNC3sn/oT6aU4&tmat3odUj8o6v5_n8-yOgOjY2IjmWIt2A5IsgtlzCcrMz9lOy5k5owCY2Z20u22oYcidrDa22sOg5ymYoYosOWd8%jfIIou/OdmjrY35jAhNut/Nz8S/seMr2,Cw.}62=ZC=_3uMYO%3nhI2/fx2zfkjmC0ie%u2cIMv%uxM0AZ.Q6O_ffEIkdo23e%Y%MjzW0a&InB0wp=g0OR:T2Qjozl8awM.36o5TznJTbi26ssRO=MUUN4ew/S8o=/6s2o2%2OhjIDbWno8p%zjDR/IjD1A8jCkic2dgdAjPcjM0_%'
p2
aS'St=6ANEGxIElZMxhH02tCvZmoT?yej6eZLCS,M[f:NjS6oJfeDmMjeW/&Z%gxwuuMXts2Ch9tFi[oFjsfaU6j9oh--MrlDAnY0jkookYjYllgFer9m2mDCNNCOo,tIjtaaw5gp?asms_?w{9Y:lskIC/:%drfd51223228YtecyteNg%Z95T0%Y0.vpi:UFFIhU5/rM1e2CWwi0Fc0gPRSpMP2AeGlMf2IsMapMFnkP5rIo?gZ242rwJz6gmC:rJBnm,oeo%e.xb%5M,I3n50qaWgjioY]sz/j,oIfw6wC%C0s2Z9mNo%Ajmn/ZBHjiTmxj3h%I.rIzgv82%hR5hoBtAMyTfj3RmxRd9Sr/jQKIl?igSeGmeej%S2lh%To5%fJcENapOZIczMC%ewaIstuot5lJoo0MHmiY-:/QIowtlrf=6eW9}32_.[_%ERwI1&jacw2VaNjo5[l0ehnagURr:wTe/a22s5OSIepioh3hm2FdnrrOjt7kNI22MlcZWi:9MOj3Ows2lpmSjkwnjv2OQ%tNad0rMu9oFjL5cgII2s%P2IlDmEoReltTM7/'
p3
aS'tmw6jVawnvpja_QjNaca5jhAmlj2j2rYt9ilOTMhtj20%O3ENzwzYZIt-28U:r5B%g0aMmom2Sc}we4M3=vvImd.9e:,o%t2D2iTcY0CBnoc225CTpMj0Irnr2pxtd-ryjmzIu2UMUzEZ0wpod22Nd2g%,o2UfxW6G0a2.s[5k,2AfJYnYj=2e=l8G6j2.t=SOYOj%eDZkoeNYQCo22uJt/6I4It5cmGjIW2f0G,Mos2NxUqCweJOJlhoD.jm22dju:TeN2R{a?j2%IfGsDd2iI7kwOem.i1sM=I%reJy0n2cSn%%2EyM,uywmeO2F6tea2mFi.O]U2OOjs9w3ejwtgO5lCky%5de2JN2Sj&z2g0CDe2I3s:n2n_36om3q2f%h29wIpYwSwmN]5z{CoFfSl[kZnw2JejY2jSyJf22ODlyQnBAbJnGi4le0lbdl_hso8MQlM2%Aj=O%OyrNuS%IgEZkjDf22wOIp,evQnInn2_82DwsIOuO9.{Qd2ydZ4k/3oeiI%Ox,-CluYIjsmeutf/ee-mGu2l%ltjiaj_6ij2rjITM=5sgTfc:2jf,'
p4
aS'47NnpO1On2n5loMhtN5zbR,nB:D1s2=wenN%B]O9r,ZM2Wct1nkMYCTT2Nq33IDj:I&odRI2I2laEjIpc]Y6E5e62z0d3%yJw/=aT2mSgu2M{foN2jY7j_p,bl2jyn626Mj265gewgODrJT%%e.rlrNm5Y0bCwzMdowWlZ%rad9iwIO%y5iwor%Uz]6,Z2t]M_97fwhzmjgMex2owI25nym2h2mc5j7%Ihh2Qu2Uej=M3I2ox2j2_=Scfrf5owY&%sI7}xj%I/rW1DyjoYy5e92j2w2CIid7D2to%b6yeUjFTDIj3j/&ICD:mdOENv%nwdtgI:26lDbw2kNU3n0pe/W62uE4ajYCe%ntrIT3OMIejJj%Zljs2O5e6sCj.mmarDNTElJM?uedncJfY6]M%2x3s5%nx{RlNVjvM1o6OWm1UZW2%E3fOP0p2pRyotptl2kxlM9rg1xkWmUkapeBWeLjk6jj22uj,nDMlt2eXEo3ettTxoO,S3I2k29s2nr2tieoj2s/k82IymmdT2,w%swr:F2s0uwO%6evN2rgpfNmNm?sdeO%g=PtjTegm0'
p5
aS':?%SSMEdmj%F/beEmg8D:u?wY%5wNO%pS94N%fi%I2m:IWeOrr4dC9ijjre8al%I3m3Ob=2aAIYeYaTlkpdr3d%n6n2oYtbR2ZDjWe3/J+Zue2Dk2ucjdRo2S/gQ2ldIJj2Ifzn2e&pym97ase%y%esyNJeaIH4danYd%iCrc90jNvYYrjeZ87o82wbMys2I/%2eM/MZdwIw=%kz9iS%=rNaU{6MwaYINsWN0J%ia9We6mtFlgigf3Aq6OJlMOYmbe_j3eCA%oyfI2O3jODx6I0SWMJs2QvN0sDYeN2NsD35dIW/3/rIyIGA%CM6IYolyxk6w52JijI2y9mImpagrwxijcyeoM3saraT%f=502u2i-tTl/,nYjpafp22gnj3u{mN0o2=g%}MoYjMjvwp%32I%5jcM&:hNrVYgza.sFnjwmXtb28AM22w8h2yIhIMR0to2%aSk/rwm2b2_lMu/J2w%mv3=RE2een3%}G[iOz2=9NJ2=Mm0e7223/hhxx9v%e2D=cIIUgf90I2Se:oG92=edD3NiE%eb%nElw2mM7O-U2Ids?05MZO,IuEx1'
p6
aS'sc}S20oSwztC%o%i2bkJl3dZLyx6Itf2Nl9l7e%l5v2,NCemI8eeMRCJskdc0loI/eDmi2s2/%0s2O:aw2ys9%bTnes2I2em1U3l6QdZm6AsE22/%-wmoNm=OIw%cYl_mmo602rY%Q&UnOIj2sme:Z0Fu59ZgasyJ%/YrQ6r55lufDD_mjsNgO2jMzea&336Jzeo2l2T5j,gDdMmjMe6DFywD3M2swlNyz2jhng2fF93AjIj2%jp0Sfideowa,jqI/ax3e&=E_22st%izdUeY2M2krei2Cr2sSQbonul8e0DN_%nMN%TIArOixlN9I2wOd.Fefcm6o20MY%%m2dRt-lkstezni202nnDe57_22/eem1Jt,_J2xZsjI3sm0Ad0foj3O5{nG9=CseCE5aYXw2axjyaYwafzdyD2%Ioa0wYl&ocydY=26UY%m:gq0fC5Mejl25[6/fEfp/wa:_pVsJgdm?bDo8n2z89ZTpjhj2mjsjy]O2b%32NgMohfr2=xMoimSi{yb2wIYs0miM:=fgT3jxj2u:0QD_ayej.ee=Qo/c%e%%YtUS4/K/DM1'
p7
aS'2k62k,e5T2UTOe3SpyMMIfEwT2l%u4m%IeGsHn2q6sajus02j=0ynYSZp26M9Nr%9e7wRAzZ2f%q%36%tsyGsmmDMN6iVdkdDV2Z:Yk_My.sfl0fuWS2vn.22sw:y5x3uWRw2NY2%9_OIr0C5FyckM5mIImdI%hp2sbwpGlOCwke=6oOn6mgIIe2wvDSNk3m2sdojbIb2Chrg=N]%Cf%Of6Opd3,2p2zNzfY5l8uMe9Eg1Q02OIOW/hJ6nj.tJ0je5_iMmTkj2Y,0G2mr%oR223OpjsgeYMI2C/TrR1lmrI2V2eoIMy-EhSM/VQMYg6aDgQzmIgw?I20653ojs%osO&mMahsiY2Iird%jYZ3j9C:20XITe0AC2Js2d2IefC5g2{?r%dbIw2uWY6,jxEye5Ej_egsjoOl{2Eai35jRrW5xdjlD9w%mH/DMhw0IsoAWN0=F/2Ihmj2tDwNa%Y22r=npw3l94-A:IcJbej2Im7DyFTdpt92f9bgN26XEB_Tw%3M%sA,sD?2%GJl6tcT%pZ//Ny1%oT%ieNFINvtQMkN8712Gs0nMvMcImhv92'
p8
aS'aeSWoRsd2FW0tWtid5Etg&s_unu3m22M2oyuwIIS:QROC3geo6=%3VYewtF2JueYZcjkf2c2lMoIanE32e8tOIZ/qe3%IJRE%RmoI3602jseZmgCAzYF8nXpj3OC/CDbNAQQUwMZlj0n2vvPNYJ,l2_c23jM8cemEa3DVuqjku2exn7dM9exkD_e22Z6edMeDicyw3OMFmn%D}%jggs7zdMI%s=iRJIIrwnTxrvR7oUj&e6ymF:Ca3NOY31owpeuK50Fe?c2EZ7Z0:Ywj2iOvtOTr55e8x?9tm%22I%Aa,Mxar688hmdrw63Iflnl3n24Ykfssitxm/NYW%%Dj2/7aipipkeCB8es%pMmnogaiDuShcpMds_QvslCJ2jGs5Iy2I/2Q620e&DiM22NW5YAs23JQjBqm,5TZIZ9OIee2F0C02oM%VRAI022tA0g6s6UOb555j6AN2wStypK=26gnwOsanymanNuClIj2VjZ8Jc26yaMheXzwx/2}5WsP2D2GvMaOJ}a%22e0Qw3j3k3mz2/j%cr6T2Fmljrj=SOICfCc.NN.UW6Mas6JEp22'
p9
aS'wwJ2:YFsym,:mH]c%MDn?j6wh3jMd:Xi0G,=2Gxwye3]AQ%4T&TD,xnmEN3&-lezaVNh0eC2O0li2cIyNiMIydes0uZy%_c2j39om2zSrtuCYjdg3mI/oWa0M2327zNnJaaS=%2cjoCZe=efx20ZqIl13QMI50jlC=?yaz99MINyYa:IGfMT=blse=82c293lDCo3jdI%juQsnWo/31wpoJbPV2e_CsYqV56snMiseIk%RIO5wb2SxhNQm3ewi5o0Ntzac2tanMs%I3n2S1OkIMop:em1O:f5e=fw8ofjw:uos2slw0.monsj%omGSogk03d2ZX%2fcmNso6inwZ{2Rj0225e5rSosWtr22y05ZsY1j.C=MCOnYYt,vojwAtkufyO=%p2vdj6js_/8d2ok2Zslet2&Cl52jT{V%:3%7pmeczo76,0N.IJn2:&pltd7.9w2%=WyueEy3ONRe2gyM%g2.d2CnZX%i%56vqBOfyE=o2N2k22t2XFoIiFjo2ceIiNnQRt5YomIXrsiNo26%IS52IH6tmmo2FzFw:k0DilROeYIn:iwhl[3E/22'
p10
aS'Rx&2INs%pPIDsy0oud32Q3C%3eJ7e,nMor52MrroMg8WN520%20=2==s3%ejoUUjmuQ2ucwyI_29jo0fGjZe2qNJJI2emW0J%jW/j%MIUaOz2Mw:8[IM2sm8Oar?/mN23w%8z9ao2njj5Ni-3pZY%=zN4mGv3aj0AA[mnJ3226NsB2efdO2owV2hJFjOj2wNb2vNIM5BeZrIev2j6tR6PDyIh15igZiVNlCji6rYu2alkInMY%R2AF2xk2DIynOEttaZw5%0Vy7YCnem{m-JD2u2%AqIIsmr6S5j?5Sn26/rItteDMrd/_kraeEj%mIYYnj9e%JpMj42d2=xQmg2do3.nIoDJ.fIriJsTSfPOszwUIeopOnI=bt2e:%:b6i2,IMQ0YEjrnajeAUsDzjDQIxeb&Jds2TskBM%ejd7mj0I&sNO[wWo2sCJlUI={,psjSI5TNcAtyoece%l8u2%xxndzeh%&iJ7EdihMjjRF,lAe.2aya3VN6qp2w0e5o/pNgWlD2r62eFF08QI0Nym.NSGYjf5csytSQeoavMF1vY%tA0t2wbdW/920.2dn/'
p11
aS'6j=95HgdoS5eNkYWtWfOj6rpi[hM,mAJ-aj8jttGw%N%?32%5I2lJYns2gQfof5Ai5edDtuYs13%j3%ad=Swr2Y=Yg2tS2j/yNOm%_umiTb,yia2osjSenm6NgYjOhottmc3]ojOaQa%%2NKI=8Mg//j7C%Cjm&yIs2MoiI.CYpdmoIjI9kJeZnYS0r]2.crfsrpjwh&O&5neYinGIpeeOt2AimgDu_MYj=o0,Wom6?_8o1jjdSeF6p6U979S,4dijeel.zoAo%3yR52%ae0HXmDDrwljnyMsxfnJ233=tj_NZm.y6GUrS2dIhs6jM200IY&%s/mWhOo2022jZIIsjI7m2FeMijt%=..3zes:YJQ5/y7smulwesz4eABD0uZ5j6Nx5fjyjtIo=we3n=tl22In.m7be%MNRkwoe2Wo0A325/aJNx:xa2n=:6S/nJ.s/9mTx.GZ6Z0SOJ2An0m%28weZTEnOvUxu2]h2NzZj0WWQIhmytR52e/m0eeQRwoh0MkFOonWI_d3Y5Il25/9s3&D2N-eACdxmVyjZ/k5FTjk2o2l2YjO//Ns6jd:0'
p12
aS'I1hsU2dmt7=Q%LmN0%I]orIhsM2w2TR_I0j/rAV30Jk%%VUN6nWCIYtl/M0NSjw6yEsm,O/g2zeljdYyoNnlkkn8MZicaxUWIajyMDIIPTbNley0Jjjus=v6yi6izvmXl%o0m%%teE=3j8iUA2291Dtbn2oO9iFII%jiDa2fejSjoI622}IimeI/ShuSmM2%e0lW95kb2nYy2cIj7O.oJInYNOJ2Y3CcWw[{aO00jDmIO.3a6ngMM%:A5%/jRjYsej92C2p9Gn/O_2e2lm8J%jQzzwrAxjY=05rIssdUCIgp%iC222,52%m600YwxYNtJa2Y6oIjIr8vt//NQl8f[sjQ9sWy%U%=kjrTJQl=arBCSt:26h23aJjBhkITo02E2aMwJw.QMG2j_=pImo5by0WFjQ:IbyavmhwUGMcAWwrntyx0S2JlD.2wi25gjtj2inJjo2CmDJ%hj62bw20rk,,2mfzMI=E2?JMCm._:s6CIYmILYIIMgsee0.Mo%eeCa.r92rpDIjXYopLdy5y=:2U2Oklwyh=I-ZMkZeej9y7j/DZ2.npdIc6yd[py%2'
p13
aS'ZEAsMZ3wpJ{eaoreFre%%y0y_Naeid2esW9O2wzjZJocwlg%zo2yVZxRs2isM.Iow,JNw/jrzr2p=MsJAjId?6=6Rf2ZlUwflwvfMv%le2ySyfA3pcjAdCtolIaa2%5ncezw%an&:aoYkcWdZsafM_Ig%z7whlY%sgwml63x2gjiInJj5,=eye3%wY2sYHJ51DTaZmmeI5Vpj0MnMa%Y0l=DpM2H%dbWk:WZ{t2m2AOGvoUe2ls3On2w.tus5jgM.mV6%Wj5ma9?me%AscscD2MMwzrAjIDIr%o2a.eathrZvu2kc.w?Emy2IIydjeewAW2jOJaot2oNe,/3mW2eZvs=mn%Y2fojgM%s2Q5DwVU8hb=m3zdjo2gC2I.I5rdzdkdn%ykmI=A/IAz2xeIfo%Rkw/It51CEM2INm2cvI:2Y.kBy0x2w\x80NjIkJ96s&2cuJ9c%d2deteiub6dOU-bmwQp2imeA/z:8egAMeFU/I{:2YnmSM2tajIfIl/%=Z%w2-dFQMe6,aOR%z/tn22T2Gz%j2j%nDwYmxjI2OmnZoc,YmjWjEUbfjUI236:23'
p14
aS'tnZS%huc2/S&3M2zj]C3w08tlesZo65j]aNTEpINdlm22.7Nm2K}djnv5IR3C28sej-NIAN?f5eg:TerlYjIhhyO%2OIC,eo/BnsVc%%0l3jhcUdsjwia2twYNQ]j9u,jfwe0ohrLNaY0C[i%MM3/evEk%DA/zM?YDtjmn%.&9k0Opy0d%sjmd9EEN65aOnMQ3FO8JCND.=hEr2Vtf/xp%z2erc%RDg-a?jljIowmen5efYhb2fIm02dnI5}j=o,Ow%LXfs2g2xOIe89mnhZlt,MI=3w6Oxjl2z2anOjFfSltzIopz3R2ap6ainJI2Zmojn2eA0l6f2wsvIxEEeZIksYZnQxiOl.,=0uM?sxg=I[CdJ6dO5I?jOnfjbmfmx29:Z21i62%9N2lAAw%2w2%kiAZwot0wM5F%d6mcc2jsxj%n]Ih2EIy%?om2O3m0sY2fC6t6g39ImeoMMIZoJ9z:vl2YT8MYj0TdlY&62YT/Mw/0szYDFZm:Z4IMelbemUu2sxXj5JE?eBDn_=2jDO2ekIyi=Sfq/em9jEj66mjIMs0CdbuGtIYMMDWkd32.'
p15
aS'tx]sj29tCsld%2djI?QJO2vF2emiG2kSz%z2dh:yMjO%DQnp/r2C0YaIm2N0ooO5231pa=ggkmsZA2jNI%]Vj300Nuww-nJeeielriyNm:wNlexx02oY0%==mOlw1o8JD2IM27Jg0Ql38%j&S%%gt05w:NOeTNjjw5Ygj.nMmT2j:jumMnJxOZO:rdE%2w%z2Y2w%2A02:B&iOh0o/Zh2ti.Zfu5,RJenrei22TmiQk2Yg5j8xsSa2/aRwMSzx1:ddwl-2sDY,%M26fz2wemnxS2iIo2X0MCdNvzVoj//tjj2o302tProO/Fs.Ov256ual=2g%3wjlw%_Tyr2mEk:M2DSuEeo2%rf:Xa2d]in,enfMxmNo{be2XMLrtvnMO]I5F220vssYsp302YIws&=a2olW3MjZz5zr62YvuT/Cn22ixxIwAI,O%2d6uz2.2sTmcIcvt3p}W2-MY0ta2o.a9TSWtjM-2sT2WsCkUakiljmvwNbIdO%r%TRQWjj2%U5IuR2IMf&jM%e%.jM%oj%320Nrmyod6wNhBeNCAwUa2&ypCrM,jJE%.Zg.3IT2'
p16
aS'6Yg%YO.czt=f02:pdebA%aU_mekzD8ii2Fbj6r3NsN2nmmd2tQM:2ZT?imu9sUDuDCdP%dW529NRxYNdhI2imDm9oK3Ynfk&uN2mwmn5e=JUImNaJmlNy3&jdNvele%jvksU213Nfb5wMa2S622C2t2Cnx_d=J0OdjtoC%,IpeeZ0Mw%=6D2i5kxi0cZ2o1jcxo&J=CwDrW8OvkQyI&o6uYblm{yiRRdIi,uVSm9B,tgY63YEsd2a9T9yl6TkeRmTO[nsMlx%jjI6J4DJrZjNi=5eI:3d2oPyoZ3Qe2l:sme62OitaaDx5S/O:58mn5O0mRIm3%1:xoT9IkG7z%sODb22m2%_3O785EaeRVwpPo%j5O9DO6J%Iw2yGOW2ww56d%NNn2gm27wa%c2jeZ%Qho.sN2r6l3Mpn24}Cs432NNo.?wgnt1t&MCYOoMYAwwF0M68a2RQI2M4z8jI2Mlf%1kw1k0j2TIoFECseeZej6eIoxwR%:rnwOyfmwUoM6lMpU.NsAv,jARmld%2s{MY3jxbfE&2xrAjkw{2pa2Mz2Nlh&3p22bc?{NMi5oM%'
p17
aS'0-Qnk/rwTIoa%gp2%,Nu%I/VW22V3xlTmr,ImnTM2iIO%jcH2pZcfNM%nyotNc%jh8DNnn[=j2%Ys2x2ts3j2I4Rt2Fb7M0fZj=Pj&mrjcdew2iz0_nJreAzf0yA%l%xFEyNN5sIy2tNloT[52v%G%Dkw2D,lneJ6Bk2g=i6n0gSeuZExc6CIaOhwIOo2a2TaRMun=IrC,rot202yeBRdwIIrr0MlNPjjm-SHV2,TmwRaa39jd2-6yyeoyBUmbMtg1Iz:Sw:6csO-ro:yIJyoUm22Dji2OT8jyIk6u%d3l%d_Jol7Sf=Mlq5M%J0MjMw0j/9fY/eo%v=%nR3MIzndE%w=z%fJdJjm2xCe6gTFC22vIYmne5YZeIi9s,CrMJ0%&Cowdszgg6ErMk%t{i%YCVoMnyc%%dj16riAR6u3.fwjAc0J1m=m2v3JsqDc%=3%yIe,%2eoFxt_CbM2eDTYl/edsnpnkEsYY20JIeMwIDairj,Z2wfI&oCcl/2m%&}:De.n225YxLW0jJmecOe3:s&MN6t,CpITeIgELj%NfZudM=T=my09Mje,On022'
p18
aS'72ANN6ccMW:ndcgN6IwAj%2%b%:cZ%n0s&iDeog2Q:M2r68tDm0wMO1uOjjols<wg/vC22kwl{1x2wo5ijN0pew%f{OeUhnotgD5eJmt220sdMuIk,.gIr%s2hj.mmeo:&3eErxjmzIim2yMlY=s12zZdjT2tJoUmZzIje2_%ni2SAx%sss5lcIo&op2&mU2m2MQaYxyjYsO5&2yfa%U22j.QGddxy%w%U=2shj:Qwe%&7mlF%%&TI%3kWwDfyN0oM=2ko=Wu/jp2%rDedhu=m2Fj2jzIM/Ih3eaZWI,mwm55ef9e%c.9j2sFGm/wGpso3NenIM&Li=D=Xfntetfltj0O.2q2CYy8r0tgN2jsA%NZwj_9HmQZ82249cvao=eFSke2=IeNrRQz9a{2CN,pswc2%&/pn6o%8r5Ma2_%/i.=Cw0zY99mmo&0dN2M2/0EF2oIAIIIU22I0uvD,m2I{dj0%uW2n6eib2.%,2Ul=679mwZ2al%jDRpalDB%22.%ckG=U05pm5YCOjMmc_2Gyheye5fWx%6sOYJiAi3dvsjCmeoP96gkMraew%%2/'
p19
aS'jYe&e03IN_vmauko2c7,YUl3=?ohzuN2NWr99moj_o%6IZ0kngAd%2t.W52OvevMq[225,wTJMztReDw4Nd265=Cf2s,6ym2O2Q=2%mzwjpYIoduaI9xmnwoo2aheswyns0rgCnij_wZ2jY4n3OyMe9%r6cj2W6mxrDI05o02:M:Roon-sO%j0e0oiwaDbOrZ9WwtgHaGzunC:yjAm2d6IneenoeIe9mSeogfDzM2Q=M3plyIEi3?.DCWIscc=2dIIE2rF5]_Sj%_NsjDj22pb0tjDgsyNtuU_IRm{Q2soa2vd2bo\x80QiOY6BvaUe82Cg%S8gY%msmc.we5T2zxmumfo2J2H0Zl5S3lj2R237IisxNu0v5a%0eyeM3O:w?2oQI9Cj2RYdbloeIH3alZjlCjb/MAv0YzMj9nU235RotDjMrm2fmm0c802%01a2nl]O2Id%OY0TISg63jDwpxgmMA}Np:%owo22mbkotMoI4NdpJf0%njj2rRj0wh.6aIlN}DR2wIRNSypxr-tM9r0Oi%Jc0PA12r%ddo2N6:wGw6szaycBts2blV&0=0f2F0'
p20
aS'Biit1owlo/T2ZI,QjwsjyI7V232IMYI20nG33%sj2mwxi4wryjnDcWT2I2jj0geo2Nv,2IJl[SnI%3iemMB22IImDJI5uNIMts2%2_mr%r30dsAT27/Ozmbw,Ij0D8]DCZ/jM06jt0&JJTWjbj8mYHf%kT&Z.,IeyDAoftjirjI2wJcf0tIVo2NW26.ej0IkmI8?e0u5wsD6blhk%N%d77poxyQurryw9hj_2f56Os%2oRr{OoYlnl2vwMtTI96Yt,IEo2-aht2Y3meO-waM/.D.otOZ5TOI/}..0%nagu3=MI-o6aAFm9DDIo2DxD=34o%Mrow2N}xfUaN2cGo.1lm7%w-32cCwN[=Rx%I2l/y%M2b]gc22/rAjijBrnDy3bw%_SGj21]xtJexj.vi6PTzm%dv{tk.2j,9Oz5pRoMl6re18%%uY,UjjDQtdPfJsro26CjX[aw,20o2Nj2lzIlI3N4dw5_eIs2Ow8?d3%46=m%jGnaz2jsE2wNa&0nh9MIlvcmmjjukjuaNfJjaoyiwjns%IyNfN246N92j&yhdTeAIyAm2ya6%y=dIOC2'
p21
aS'MM?lrax%2N2xjeltmr2%Om%O80jxNlw:tOAZNeYbuj2MI6FZRSC-gI%2V:d6ZCs0Sp2bpTWeaytE6nflJafdcn00&2yuZCVATRiTOIjp2Opjl9cDO2y20oZ2TjY%N3saF%It02JM2Y&xjZDhiy07mM2eM/2io=2rOSd2STGEd7MryZk3eg7ywCTj609%G8UO2xk%y2mNh./%s6N8Qj%iMIxvj:Ql8:Ue.iTa.s6m2m5WYbjk6D%a=s2%WLA50jia[Mastms,FZ}=d2Pmf0%sow2X2s2oupNa2np=iGSt02Oem2O2c0Igefmg/Zswsi/gj2/pl2cYfOvNMuNs2je5ooRZI9Ip{rmcH9sjem,yye[ocd0Gbl[7woE%Yj222cw26asjQfor2DIijO,Ae._2rg=oe5t2.hZj2imI/jA4m%Sx224%Q?dfkE0jsQgm3wzyn%v8rgsydNjIwe%sIaOj7cF,oc2giM8eMt22Iajm&N/IjlOe%&6zewn20tYFeMCt2jwIOIemn2=j0bT_aic2gxy&2nldtznlre3njYucmoIl&_NdmNm%I&mESrym8%'
p22
aS'ojI2ql%l0le2%&wApvWK2bofesZe?j%r2ZI=W2GnM2vENNM3wfQeMbpbFn6ZhPQy6jx2m2N=IG4qgARIjaD6ZNmzbJMMI92/CQC2%je23e2s/NeA5{SThw9H26mNc03:Eo2w2IoNO&/J&Ii9?%=0reNF2%%QzorMD2keTzI5e2IsogIQ2=7jj5Ij9tsa9ouk:wjrMCyIRzoODOPujc6p4gj2sM22A6{d2Zs9O3e02MYb/22%Y2/iVy3YwD2EjeIaUjpqm,8zrjyuv=g%fdEgr6Yje0rUb6d0VEOZ:ZJTpNzoy2AjdOMoewGF:othijr3jIm9M2j,totXI%vQbgO0f0rJ0ws2?FtMdI-2CgRd6w.0FCOg3eg265io22mc%c2jJCx=E%jjS8yjNtN/vrej%Tja%7mx,2rouz6J/djgBI60P2:hojW_C6M0DNt59GfO3=3za22M2INtFwItY0jt1I0F0jUr%I2nyke08636a%:YN2z93c2jRagOi2z%}22wvMa?l2IkOmC2ePxxwwkCN8R/jm3Oe=k9ewzAFRI2hC?2km&2Mrkj%U@ak_odn%'
p23
aS'?e2eOMa6maPlgaE5:AFewZ0dgb9jm%ra202vDz,nLrnl6e0hSjoIwCOtCm2Jmr6g/YIjm/tp2t2l2&JIgem2IMzAt3hemjjMdF:I]eI2sMs0sn2jSd9P-Ne%0A2Ro2gg6A.j3wo3_wA_MjjJ&hzsf2YeyTrSIgjHrmmZek7%:zOa}C/2Cm2%Z:CjzDuU=NyB5:Rtjru4h52tInm8NMUn=Fr2Nu,gjpsl&YmwiNCRg=yo9M6mQne2zd%2nn2j5%IpIn2FxmeQh.juzZ2dUjvTO225:Manu:GGAesfaoJCwWskA2YmW.mOl2RbY7FOl60pjINlYIfgwTcUc6dj6Y2UnTJY1?WOc2N2sxZZ27dZ2i4j7[I0ll%dsuaCo=IK5oI6UMfhebwvfym0lielw%jMj,p[==8iOC2HDlG6o2amb22%wDz30j1lZ602I2WemZIw3o2dTT5zO=eyZeNtCiSj2/6&-wiIYZ3/N6ZaU36ij%%6bINMc%f9[AF0%/aew3mIjC22RjIe9sg22ZcHsj_GteUjxEj}A2jf2oeY2tm2c%036/eNt9weDIe4etfG=,'
p24
aS'w::jyJn22w2a0Ng9eoZ25m%rei3tXxf2YOFjCo1irM2nCjoOxw329-wy2wcCkMJdriES6SIIeNoIOdtIMpI26Q2i3QzO0w2neJpuD],2jgl6Q%2E0.ot%I0d6rroAt6tCm,MY3Ye%j2II[2R%NH9YeeD30kmn6oyt&oT3m2tstS1%or2wlfT6gV%dv5STdy2yem./0dGA3tcadSVNeDaTkfj22sDeMjiNNfiaQe/lA1M%28%nhl2d2molf:QcYjsIQVn&sw0%2wjjgOYY2jM.DeaZy2meIOURSZoctM,Xio2wjYe2ewwI/D21NruV2admFZo2%_aasADwUey6m2aIoCNa0%ynZl5Caw%WYjnItx2bejIQM,%o29,D/IgrnDjx02IpmeMUIte1:xZsJ2w7j5yRlZM%%%Jbe6,ulr25k{26mZkeOO?1%2TwRSkZIWirNshIvIwz%eQ.J59FtdUi0G=c9e5YGf2wm/maIAs2rNoy=2N2k_&ms02I97oOU2ftEo2%T6I27eMekvSydjp.sY7ngmymjTrSjwuxAT2ldnlS8rCvI52T0iTV2Q3e0'
p25
aS'I2xoOAIdaX?P2trrdmuI%2A9nOjwtryhmItjc%o7J0efUeglt,digSmBXaMn9Sdu2IYg536b2COt2aa6Tj9I,YaEa2Zi2damXfT:n%d7vY24xw2dwI5Y5Cox222nectr8}Y7t2koDvte6pcjYNM222.0WeHD02%=2,z:o7gp[5osCdr3U6MmZoA0i2So5IIba,E_O=kyOjoC2Tn5M%RtVlYu,mIEfCmxetD9zu3ewQ=YPIsQ5ylIswxuowDfI1t=sntCm50ynj-RQOp2wtj92Iedfjgm:2GHtD5r0r&nf279XjjS2jElj92Q7Z:Efdr%Y:ID/jo%=skja{zj2l%V2%W5ljNMl,o8IfD2scCiS%2I:dalr20LeMU3sxsNOoeNhIDuDR=bUueNn_jZj3rr0r=p3AM0esi6j2/2vwTIjnagpo2Vsz5/2Wn2AYWf0eIeC%.f.nWD7ZNRj_Mwct/92m2&lyWwNO0rwuC0xmyfjsY6ex%/8rk%m%z%5rY:e6ei3I1ej2Fwoir%iw0:Ro&e-kmrDm2wQSG200n/aIe6msZ%goxr_CVt}kN9FidD20'
p26
aS'0Y2IxhOm6AwjbhMYZxvj5eQ/o_@2Wt%b2ojhyC2keN2yIMrN2IromNtM2U236/odQ3semMe%6ej=2Qmy2sGdizl,2NRrC7MC.w.2}emoj20rx=/Z5I9Ma%r{pkose{eIYeO3_%7Xdjse2,A3jejYl2gZz&I%%=YO6Dfwvs6TMI4cfeke%%aJ2Zl.OsI3anoC:R2%NT2Xo,&,U}DQ262jZ%[I9MHsF,3wn2i4ej8u2A6Fban2:oduZj34Ud6sck5EmtZy2Cg.NvvwInzmxQe1y.6%2esoe%:08:?3E02%U?:ya6T=%pp=MYSr92Axo,dCdfem7I5ngY6nDiZ%.Seh_YF%/7w%%2T%IgOMjWoec0tNtZ8loU22m2,ec0mM%?2=VQICy0de2jccTgEt.ke%3y5lw2qzJkxDg0nIdeZId2O3Tm32Q2WgbJ-TOxlB9oC26=%UfMdjIt6ZTzWV3Z8s6us8yUJjbmx2sl2CTfiZDe2Tw%%YAjPII2mcNcjIy225ZBYS%Cg%tk0v}HvoJ9w,jkItVi1kj2b%6E%/u6Ays.G2YAjo:xh2n9.e=jmss0'
p27
aS'5Q+xy%:EeAZeegz2T3wZMCxs%wa_Msais_l26nMfjpr.2k2haD-e2mNxaJ.I52iDfcL682PtZ%jJ2Q=3%pcoM:Q3Y71w,%q-jd.MAec0ux/Y5oM/zI2kNwftI,Ns2:rJ2lw7gYC0foZmDY3uCBFjbww3esmm2kfIQ5FtN3IjssmamjM3N3ZnuWz6CanjYsmjaMeIr6g22P=DTjVrj2Odr5raw2jR%EwQ,aC2G2mRmO0sX2EjT:ho0iI8oq,iICdjI4yI2Mr2maeuVp6jpn2n0h5&,{58UbNNjqQJrmre1Ibet2I84..%6IIY05jiCxaIWmcmr222edvDwDxAsOYFksj/goom&37=OMbMoR03j%2yDINrmozdJOM0c5ORU09CpxoNTunMsrAU2jZ.VOsmvNmQeh2:loe9wjOjz,aMnw0WIxeIAwRnWcR[DoMGj=yrMtmmtC0gECJ3OilooO%jR3o3MeoirmE%l%hQ&ew.rOzoe2YYIr5/Z%Wm:le,mzFjxuIke9eD%5d,Do]jr_eud%tTZjzCIIk/kemum3IteIi263l9d{yT2gwY6Eu3I2'
p28
aS'xk%IXYxTtUIrQc:PMk:RkzItrotIjnU1wJ2eCMrM_]rm=NMQsrdC%02WK4i2,tQ/mrnM22Op0oOyfnOZI2%lIbu52mjd%gjCM%zImXEUCV4eMNrr9uEajQ216IDfcIc2/AbwIm6mY-wFLnDcIe}0%ZspvgZFw205GCgjk6wEZnIMgw3eacl=jR2jm:wS/xkYYj82YY1dcTeYe4MmcmI5Qwyootmv,eth3NIMJ7DC/2%q7,}2U8gEhJO-eQ3?t2eODytzNY/&o%I22:jw2qCtJ8266OCRzmL%zO/iy2iWy0%Q3x=ak%N?%.Fdew.?223d7%00Yu2b255Mn5zatuI2l42sUej/3.lXl50lOjr12j9jn0dzNI,5c3lU9a2a=ZwAeJv2BI2P8y2mww2xIz66soe3MlYitj5ew2MewI22jYnYZjUlgifemy9I93eI3h6M-2ki%u%2w2lsgiwd_w02clU2&3nUMh=sor%gIIi:&m82geVQ&dDBdmT_aHa,%2wgI6mesTe%Ns2%tsNZwC&IwomlfMWNdkhYjuethC7I3dWN%Glmfj%T=EeM=MrC20'
p29
aS'oIjC%lw4jE:2geOzxlOICen%x-AMyurbCMpPej.eAVsRsReTVjItMBUOT26N12me9MNI=t0wIdN=FyIJR2ar/f22==r2sMo6fzbjEC.1_s2=.ZaR24nz%WDe,OCZ?%Zs&hIT:wajs65Y2esro26lGg0f%ZRDSjbb8ST&0}F%Ay4ujs9hIO%&8U2MUo60Qemme2IENc/Sr,2jl%Js0e.Jy5hN.%zfAOkwYj6MjM%djeaEP3:0pJ&M%eahB39aVJ2W2C6zM%J2nManlIyttCMt{I92,scncYfAmM%es56%e.1gQ6DY]jSwl2erv622ZX2Mhx2.NAI,j%iCNjedBft2nja0Mj2kiz%jj-HZgIvekCewiyla.t2%0M/2AZD:bfXW%]o3stwJo2STbw_2UOIOr52yf%2sjeINeim5Hj5MlY%tW?IdY2rkpjDGtvIWj2hwe2s3kg.,gh5n%n6mwlpy22k53?JZegoIdlr.58w93eIeJDeIJjXj&C0/22/bvz6U2/c9ur%fyBiIemIiMC%ce2&mmij%J%5cqI2lC2DIkdGYMgIAOtf22wS2sp0G=&'
p30
aS'2smh:Z.0bG23sj2iIwoy25I9OI.sd8egip26jCum2Cj2aer6ZY7dMdE662=j0?6jb9i5sIjD%o2WRC[2COldr2=otAyCjnmjjcOSuew:cWImIonydetLj&..261j&k0dsYlaDo1%eIanv2EMIb2Ofd.Ytx86%TyF2jrna?tvg&Ya2IE7=nC2bjtGVt62Zl2Ojoz0QwlA,6IMcjI2Y%e5/TjJwo22ac3x%0rosPe}osjx%2fz:t2_,TjNkFwjzuJs8Ymlt2eaO%OtQ7mzhTwe2IdO3S1mlYsNsN52CIltMxnWd%2EssvZeCYrz2GI52Y6fel0T_A32tuMj2-2-czn,BUT90mDrI0oI&0DY=koIgOY2M=%/i6jJTyoyjp0eax2Y_JD0toIg9pCMj60kd3IoeImvs0N9eetDmYrjOIoIBCYjSj00s7xizmazSsIeiAZMj8jsdw=QoNUa2m7Q9II%s8&3Zf%hCw62N5=2m2thUscczdWevn&dvrkY02xst:2=2S6,Y2bN50mUj2p92ggmMz6:DjzkwmW6oeQ2f6iojmSM5h/2t=ZOC3n0pod%1'
p31
aS'M5amjt2je/ct.6Idf0,b%%Rer7Vd20mmARoO9t2j2jMObs06j2aN5:O28ll23Os%KUNndgew.Wknm6I2YlMffo09o=M42NdA1s92lMfCM5wldSk23naFFmok&qewIBmt,wej2mjxud3S0ju,Zeos:s3tEQ.hnoe%b22JJnI,/w622&ihiNwnOIh3oZm09%d0R8M2NyfDyt%wT7%2Q2%IEOa2:atMl%2uo7pS8yrI3Jjjz1%9r%%1ZMMtntromwY2yMzItN_aEpjw2mjIf9Oam=caM7IeI2oDs5bS0%Xo2moglC%M=IR-j2fkjmlR/TjuurCTe%/8rYeZ:x063uljC%9gOFSlbwe2Ct&0w%Jw,,/Yt22jshMz0ZRifMajD5h1X&Ybide%]x6nja=eDoi22Mnu2ILs&B.2RZ72xTII8lwt362m%fynv,QjYsjeosGz_MfTpkwjmN%w%J2MdM22M&eUp6yuzTY=z0MseNwojQ5.30ZYZmC_MwLxtI%mr2m55%Ejzf0A22nepYc2D2%66?j7lA9OMbgoewYFtlDjq35%92r26NMjngsIo9e2R2'
p32
aS'tocO4na=ItQRN{2VMj5jr2UHlc2jT7UOQsbbHMwu.lvpc25tS0IYyje52Z66mZ3g%23lDTTjhOnjoRYa8T=9z2vYgSdjMbI9e3AAmv=Onos%z0n72&/2NC8kWoC3eZC/Zn3,gmAsCrje:t%knyes,lz3Gsd6e5X25aMNIzstvMU,IH&TtxZ0uyhFemb.t%=5=OtR22gCIo/jOhI.jO22s72NeIaw50oMtv.s,22j&%N%Aea2[ka3A%2I:JVt&_rtwnls2yl=3OYY00ZN52/I/8O2z2HIUw2Oo2xeNM8&E0CZvo5%%:kOoZooNmj26MsOY2o.b26_3SyZTjt8Qq2F=Zk83jZ2oA%I15NO5xnRf2lZxz5Io]%Q06b2zF3os0vdzO:viR1Yj2Zx225JbwDCo/62M7e.ovinQb52MFksi63Cei0Ye2k3NmiJp/5aubMOfjpaS,IMowM2jzaQnehwglmjOsR02mls3ebYdyaey%jeby6BmdNeEONsweRamum2g7mIp0jMasw6xs,&0OG:mEIpSkF%bxeZQ0gpOxgr%cl&aAIzNYorej&oOyhI%1'
p33
aS'S5ix:xnOdw2eda2p,n[8L:M5TleZzf7moYww/tSdwnYZF5JxrJPytl2tjmd1Nc3-.mkkYlfN%?ftiZTQw2lMigO2j6dOob6N9syZm3w,%8fdY2vIYV3e}kE01RsoOj5ws9%63s,Cdn:8lwdYAej0%oC-/mpjEJ063MIevrjedmQS2wvApkaEjtT3C1YZoUkj:cI&:E2U/m1oPTeprI2mr2fIB:8g22to2ZImI2jMUw6EOO3wF2ATIgMsmP2lQmdJ,ZjOxjcwlok5cIe6S0wnwRIe@on2nbztIjtojYIC2lvu]w?a2wTk2=.om=Rt5aMi%AIc%sc22e2C{teZ6YhVt5MlNJMxxemap23z225M2zt2uDn=MaOjn0lyxiOtj75idIa%OZ02YMjInSR2}%ksuoZaT2aolFLszo/m72RS2T22C4e96E1JsM=pexTz320N2B5oST0tho=d%0lx:32ZomlFCwlOjNN2FA5mNQsCmAj6OI9n2rtNMIfy2aT0.eT0j2e8jmsCdng3ott2eNNy3elje3i3UfY:C2j_.DeCmaOe2Se66C7vIVe2k3h2f/'
p34
aS'MmM2C=S%y2o2jS2%MbIp2z2uk0%ZoX-y%lmoU,aokj9DmazN6332Ygt2InXYJsdm3vveu2zn7YVQErOMjwESiT]asQvyx=MEUmz5di8,=&fZrmng2Zy2I=P/ea:e0klraTJrD05O2NBCyadI3tuji{EI&jTxdDY8El00N2jcZ0fs82ZX1iU2%g,JkMjJrf2/2T}oAmn02yo6w5vMeCI/2CtY7.sIetWDJoA29E?N726hen2kEoQ2njxjSmInf3eaji2j%w=wjeB4G2YQlf_wZJStfrxTalO/tDgcZj%QF?OD55:2%i2an2IIs.m5jlenjkW:jeWMIgsSnkwdy2FelriyYJJmzpxgJTR.U363ma9fypeTVjJhC,jg=tm%jCvx?ws.6uOo%wCD%jgNevII4W,mw2f2smEIyrw25jwYCxPl2o6/w3lYJsAM&S5jIosm6s2eJRrIlw6yh0j5IMM922g0ICoia822lWeQ2wR%&Toja8d0IIa?oZbJ0kPwGISpy27Y2l?/7IQD322FNgm/%TJas,2OaIjbaC:9UA%O23MI2f3w3lQfoOWzpMTmk%'
p35
aS'lD0wdnonijgDNvylIRI2JopcMI7WO2WwwJlmpDqWZ2NtfJnkoceSnjtCIeMj2Ao/Fv7sIMDiOa2mugtjNCdnl22V_ataZn/uisv2eMO9sIjesGj9YMdgr]atns%cjjF201sJj.5:c_M,%6e2rmcEg626hTjhInsII22tjlQEty=M2&ejo/aypunjTsIssj4Y3=p1jOYI:?2Ar:ThxYm/tpc6xs022bdx30nNM-d2dOMj4Oky.jUYSpjs,e3ioNml0y2_G5MaNe9Ei3S6N1ZVlG2wW%wYlwI6e6iI,A}wjwt9.bv2C%aj5kIjO2OjjIpsteU5d0xax0bra{0%ywJnxd2y2,WUCw/l6bn12e5.eobjNjrdI,ow25m2JYmdX%?MokxJQ%jnd2iferYUvjZ.D72O11Ccvj0cpIjCUgw92ZNx}%jIb2l.%.GS3s.Bcn72j2a%fYhgZefQPI_1llORMyl:2=3j20a1w0%aNsop0grUa2%o%0VgA,5p2aaSw1w23jmesFjCw2%sh2yrNZoMU1cfigt/2gmMtI=.icn2f2jySZfWIJlIRFpg%8ab20'
p36
aS"wjdjOxm%n&Y2YyUN22l22OtR254o92nhrjoymI5dxai,f22pNI&=nylOgJ6d.=gix2UneE2d&otey9%jftCR2hm2RT_zork1&5J2k:OG2enomYNseoarh%o0vi2klyes0ai%:.smDwxjwi3Oesxn3lI9Me2&8n6n2gnl0%:Fyp,j%:mXh7K5fGrOj20RWS6j2UjxN=tIxmO6M2scdhaI1s24XoBcIl799ZuANne2xEwbh2/mSD_j=Yfe0%mkS5-Jc%,Y%ZDEkE238ezO=xbAj:2I2czjuzY.WD&mZW2%l2jFS8kh2fpZ96%QOM5:j?3e&w2x0Cn3ecOxI2ZjBrcl2SI&sW6:Or5eM76rz=Qoc=Jf2n/noW,%062.eC2&26IfBf5.8oIoYGG,ter5[e2lIUAuo2m26nDjyCI5CfwRItm2O,TmImDICa'OF2cS2OIIGsMn2mpfaexIm&2.IM3Dctwz5e2e/Sj:m2m}9mO-0:i3lf1i1ZxCeE20DC/TmjyMx6i5puj2[wtOr:87l2djQzO=2w9RjUt{Zo2.Cr{jv=U20o%LA00=L%dyOkyXy0"
p37
aS'3lmle%sj2es9Tjjl%jcjet2%9S%Zwr2nN0sInoudoiwm}%,e22JDiN0ov&A2QJ2IGzto_820&UjojUor0kgMCd:jCes3aEu3j0OMxp{37y:5uRjsi&0uk2O:l%lb%e%iMAd3Q0I[%Mr0SrI%tlpsayeh2apcdSsaoJ,&6Doeo2WZ0Q&vY%zjVD5jsCdS1jman7%1mx02I97jWe.fUUjM/_emo26-CpIcJoR3jF59j9jAg2=mgY-8d2enskTmMiHzZod2s6IYD/2mjOn{R:djzmeZRQ29felFafkaM6123G:jHjec2,DCfz2-C=C2%jaZh0e2DuM63nwYYtI6egQdn,fNd9wGa0Et:GipTvD5as66=m2i,QfRQ03D%AvfSNcp4m/I6J%32Dx.%,2dC%0NIrtt222ii/7jgTzZIIyCc/w%dl2DyyAmFTtIwSOj2D2nfNvnuZnUQru2Eo26P41Mdh=dMrO53OfoadNMO1x2Aoo/00e,je3IyeJ2=6U[0bg98ORI7S/3g33tQY%xI50u.Ja-YoZ0e.M.}&uC2tFIuoe22jP2D2wf8lGjbK2/S2'
p38
aS'htnFaa2,jrzNFAF,E.g{.meO.b6C2mW0QESlTf5jjGi1N72r9oD0jF29hr8=CvNOIys?sSCOonm.T%5%xgWn2nejD4t3tiwIouRAIsDj2pdZaC2ZUhDthSyY@AT%%{UY&YduZ2Or6yS2WN/bkCknIs9jG{YZI0ONmew=.Txoc7piNdRoIli9ys%%ll2ayIolyu5tNQ2sodPjODiDIeQuxgZlrmgH2QsRk0IeZ2I3s/%k&wrtyU%yc50032fMLrtadSWZNkkY2e2:fEsp/Z2w922goMdj10n:0Ism/2nl[zIkY2i2E5%y0[_CIssx2MI:ir2roiI/2N2eoejM%mtjDe2a/2IE%Dkb:lMMicq2MYSEws3%L6hrYVO2Y2Sb02CxJztQjC2sj:5cGwjwI{EjmnJ3beuM22M22SjaIDC5Iaj05%Rhow22A2tMt3j{eebmowocTn6.Eyi22%T2XHh8pE:2Jjs2o.todO&2dQameQ-26hiw%WybRy2roAp&2_Om%&/6[8%E65s0m{YajjJoZeiIIrwT,wEYN,Jg::26o_k3kyMj2NnC7%jI9n=2%&'
p39
aS'u5363IM6myi%2OZmwFd2JVpStcw=7zs2zrreIjhI6M1s20xIi%h%yp%O9D2nW&ewtB%uIhA8rg,d%wvwzitej%IN3Ym6Z2JJe=wjIg7IgcT2%3koemtjloJw52Cw2mEej5Djcmms3vRj%DoM5ote5D0uC=OXm2UQ,bZ%RQeCDrlYoR&sg2%M%l2ljk3vMnn%Ca.5mu}%]Oj2OaQaBcajeDSIw0wOZ2LIol8[d3o%jegYCU%NesVo0I]2IwAONdRT2I%Ip7h2aY%M2aJnyk.20ek2IEj2eaiy.jOj%C9tvOjVVs,IN2.J/&IIeQo2%CsCyl_/V5m2ns2td:rCwT2-2c8xm8O25Iwj9wu033ldl3%2JC,T6rMc.jiI6sEj/tCp30aur6Tg620]I:afgUOhy/m022fR.Ie2IjfNNemZ12YOeDmM=dmd%3syhmisjMprCmesxxIIjMp%JC1%0SwIe2exUGJtjt%RbNej92ZMwlJhUIPj%j2N7432d%ja[muja3j0owwMzf_fFu9n3MflS3j3RFp2WOQ2.joTSN,nUsIfCd2I=TDkk1f20YG9M,'
p40
aS'ozwtMawmIe2e3CwII2i0=dJM21dedne2UG2.Ncoy-w:De/j%ij&o2jP0jwvJawneRIZnffDNo%=&yv0,2wzx3OrIW52nDn6.Im5k{g2DvnMt,psmcwjgi7az0m%22ojTnMlzwEfIVl%3O/=hi2vDfje%%IZs%jbme5btjD{zW2asOi5%22%=pYmmsiMyOYYJ5u&2vS0Y%2g?2n8rZvE6ICo2ciI22u1%eDg58{UmFzpmCNwwMD56CDQ&dfMaw[b7%NC}u9er6u&%%AdkuT8YoFfmWm2N72t,sj8nu61y0k68Tj5mxINOMa6rIaYzBdrI,U6n/HoxINIn%NSb5I2keoU=m%y@%=jmreD2e-wSei%3ymjwwOjlYNZnSNsqtdY2am0bMeIOwQ?3mWIDAPjz3fY/eC2T%2pmYwbR28k06Np.nRTGv2kD0m&ae=252Y:0%r2,SedeeeDILYtl2ejiJj%O7e.tC0p}s9PGl28m3wjh3}%fAMIsanu2hAymrJ%Cte2DstyM=2aaD%IwjNCZ&M.i%orYg22fvnM3%m20%5bot.2ramCV2C2ik2Iht%'
p41
aS'kC6ey%gM8joceyish2Madi21wxkT22%C=2eLAwt0jooJoygm%Ne%OfCtYY0:nOZ6atj2DpN/l&yN522sYM2:5Yjs_2I.If2fC2fwa22k5oY7zF6%m=yinwWv2m6.Y%.50QhjCb-&om.NMlNc-/nfa&ikozQD2xo0av}jbxY0LAy3sWcsCP2n,2O2dosIrdrln6=MDdzoqisMtootojM2yd2l:y}Gwu4Io,Wv2IZKD2mdICj.rsm2G%gwijYIyklaE2Zi0NmYgtYId%zN2G:e/t%IMmj62Oh2Cr-3rmieUC%oxZ62w2j2n2AGu-%QMDM5IT2hcma52wbaenjeyelDaN26&622j0ef20Ny:26[I2s5ACeimOE/tJjOvIjw[dmfjC2nIxFI%OMJ.bjd_/Yw5I%RS22YIM6rjTjInBO823z2sdZIxwEyI,Q2nGwM:}QrwW5r%jbDFNC6ojA5MN}mHUDykD8GafcvO%%bjtM7s9s%AYdZk=ovIu=,y7.f8N%RU&shI%Z22aTZ:IDYsS%zRe2&j4jr2D%YIoIewtwjYaippM:nIA3s2t2wCD=eR-'
p42
aS'CV51w,J2Ii9=xW0h2a,OIyICjwnov2N/rwxwejoQ5joaB2Ik6uYRvM0FJQoziIC2Ia,6-nz8Isreae3gxQ/{%2r%nZO0NXeBIFe8Ir6YSeF2vMxa2DNSaIpWO%nh27lsrCs=kvgR2N=2M27MI=js0J-mf.=8YZWp6W8R5vTjn%j3n5nj6.jAT3UQ22fr%o2myk[Ci2s2%pam=G%e%_gG}24OT1pn62QI6Qmn60gAMszZa4lfkkT6b2&bjewkaNn5MkvdZm5zgM2q,=2%A%nS,Nw6QQDgdjZe2az-%uCItj0y%UHAOwbc5J2}On,I6T2IWYIrekICuJDhfvp/6ee:y5N:22miI0.8jRR3YiI1een3622SM1d,jUxF2lvZhq:0lvosrfjWjEDRYr6l2j]o21A:pzYIbrhMMw,KeIg_gFD2pnsYs=52ejjSgTxVlnt6p.0mt=N06uFsI5sR0m22nx2ogkl6Dx2[gfQe0lzujF2/To0RwCArxamDz1I=ybjbeIlUNtsyIBeI2NOyw56DY:=36xa2ew5TC2/52/jdcSL6ksl0iYBr2ka-5tl6M%'
p43
aS'X92/15,20ezINJh3k3J22d9j5ZimnuIx2z?myJI60ax1yew]el05I,2,0mZ9.2%2f23WR/Ve2[0Mozk2jbey2rj43m=o?W/MVIcd:s602zdt.g2%xj%:D2Ie29u%EG{OO%s8tgjA2=7YueCTP9FjanNlrQnz=YjjspNOCnwF2Am2=/hmiyO52Te2CDz0jjierjpjPsnc2jtC:%tzatml3OkdYTwdjNDmj2v6XFUkswjZTj[ondaIzjO&zSja%6yOeMuD2th2Qt2eJZDIhNWSICu%0Zs}jwjcl2t6Fo.J4crR=9%Rob%pnRao%w%s3nfeMAb5IcCoeIyjElYyl]_RV%MtZjegl,vwOkIj{_2B.3-o=fmdsfeeWw0Ny%2=QmNly:%3%jOI3:%cwND33=22gIojozz5iOmpNUjZ3%mzwe92IQIV&6wcDejlkA3Jbe=eefIcAaB9.e/22s2N-naA2ZMaMtXm%gyW%2J%2/2mjEoYy9dp/sO%%jy5tmj?12gY2%D9?w2=zWl6z%39?zj3ju9zIYe%IfTmTwi220wQwOZec%LTZ=2Dj3j2a5deb/'
p44
aS'26nTj2rck5o8bwtIo2:92JaDc:fEjfue%06025jJ&kwnyMacw5Fd=52daITN,sxzVO/%/S=GCgS]bljZyMt8Q5nI6fz=bG6%a%I2i=0uejtt2MWfziMgM0Oww%6lSlcdIBZ2iY%oat:FAij%LzD26CZ?jjt&wkkeTsHlCMMw,29bIi%o1slM2NrDCzMkj%JB%eOhl2eIo5IeInnM:r80HEdmZ?lGtcmYI006325aSIIEm%jJkfjx?Im2Iw.bYtjMeDn6S]mINC=2MM&J2OUNMVN2fop2n/2hcI/7aDE2j%rIMb2m&gji2eSajjscnOmNGjI9wuZ265]6RdR%5ec02tn2%zdDDTbjwgDkeWun2ji/nD9552m=.h6sIaN8s%I,lI3wj12M6DIN&oGlMj,8ky2w2%3k%j3subM9nc2awes2u2gV0%=,l21flR%hleeC%yRawY%Dj%ehO3MOve7mom?0?C:ecaIcOejni6de2Mwe6J_QyId20U%kawasnmOu%mraSxIo6it:aZ{eg2AZIbYw2mum2TSINc3AU2qYBB_:w2Ykn&%.Y6zWRIn260'
p45
aS'byiM2JfhgttgM7I6lpdeijweC5s/aa21%,bessl7j2f_92xmCIwIxr6rmfz0yjA]j0f%1o=D6Cdgum%oBl2-YpJw%jEpbasRw%tdiXm%iihNOY5tly.e2w2NU0s2wRzMq?y=/yk&dN0&wS2jIM%ngdfMf6c5-%m2I=5NR%SZrmtanEjw3GIntIRYmd/[OCRAn66,d26FYrq=dmwre20y2Y%NFkpt,b2YrsOnrMMTTj2eOal7DeCvZlzIU0A%s21=qUwzpDwZil7{01AN2DI9tyze:d8jLZ=i=Y9wjlh%%Wf%jNIfr2-5%6Abd:gs2nT07t9kWzJd==2ejawzyb%:IW0l_dYYO2csn=GJ0nC?CQ2,E,Ri0na%26%MWsn3c{x.Djp0y8tsZseM3o2vdYjMT:2ek%@T2/jkMjOIN,Y2JRpo%E=mz,p02JQaOZfz:Y?69,.jhc1MUh62ZUY22_?mG8esrjqDQ6r5Q=X5SD8%adJ0ae.o5l,BZj=AOY2:ejoox:5g5vj&2cjuNa2,9yCIi/n%rzoDcMbwAYrNjc%.y-TwOI0s32JsYhzbBoCQI2'
p46
aS'ez5mc/foi25OdjxIk662EpT2Uoa2CMv22Mj%=iWNxwIfrl2mil2Fod-22eoBwijBpa0eEbs5fwW2JIaI3MxzROjy%2Id0Cwol25aIeKfaI]Woe3n2deQ:eHY2D2Mn_jo0Y22C=XDmooWUqkNZnh273OK2x2zsIYZZ%sI/5rg2jNdFIOEgwmWzTMmpsYwo5AobewGnQ03IunJtRhY.ojdZY2vg2mnDfkoCImCMMlcrmzv[iwu:EgaZTC2_/TIsvjTZa%s=pjsmnGeb%wO%o2y0fgjRjmj}r6b:ZaiIm2mlI7jAe3u,MOyxjfbNCg2h602CDy6%IYj%eI0t2d2,3en%QpeSlctx:/2Me23RnIj2,kxrjA0mNe%&gbOdZ6lT9bc,sYZGemi5mkce1cjmz2&JRWM5o%efmja.bIzNNdB9b,ItisdjGMOw2dw5cegs3vII%,z9NlVGe%5ZIiejpJC,orf%SoToNID_IuGa5d:6Y=:5a0Tq3C5NM3_3e2tb22F6ZAkS%2mtRIJcGSj_tlQ2pjmk2=/&Ye0B}Joq2Oy?%j/I:o5oOueaIf9tQ22.2'
p47
aS'fC%23Im5IojAj8e3ZucNbdIw6e2&m&wJItyQfI0eOscoG%I2[_%Ds0MDg7eoeRrIeM2Osr/62liJ4kIraj0o?fa%M&2F62g0er%ezx1yrlnwfz7w32w2yh6TAk22}lI2:2iykl=49CnJ0O%2Y8yO7MiMoBjj7=lnY5jjIjjpYmEwHsQr5A/eR=gtj6eTjvSIB,s2%]NcbeIza&NmZ2j0Z2sNgW6CF,Oj92pj85%MOr32=Ns5d22dw_l.IIUztZEd7Nj1QI251DAp/&5ujZVUJss2M=uDN=e{nz2vrD3NCsm2kMn%2QexnfznIUBw%NFe3j2p%jjQIs.0md3oANb4OaHmA0vMMe2O3%xI4Oj%Disvjs3s222ZMjijdAl4wM:7iYjb.%%Ia2xmT92e4%erfUnE29,Om/eN{I2lvtjypU3I2OrJOY0M2.2%IDY20&mvn=dkarcbIteD9ms}neGmdej3m=o0uTyI,mWaMjyts2VsmalwCeanR=Sp&I9nN2wZaOvcIp9oIdf0zmlgZwneOgnpovbon0D=wMeT2r0SmoYyjcjtYN-02Cwb.jI2k%'
p48
aS'Gws/3R7TuuenOn/oClmiST%LmCA6FMomY2WOsmsINIenunxW2=2%mNrhkniC0ne%%eo2%NNtcwIoAja2225LoM5=:Imr5ej5dAro6bTsiOdliO6o35?NQMdQwIsscGs_Oa6nJNlCaf2ac%yMuonYas&Qp2D:M,jjMI5dmmjdijM0/atU9c0topoc5DcaN0i2rn.OngGRM-nsX2jfj?2sibyan.wM,&=t3,I/zm6o:552M%Osq6U8Y%2SodPpOrJ.ifj.mA6Ac8nI.%Z0AI.%au0le=t1a2N0lIs8R0QI2hI6/fJg4Iva=5Cg065l,iZYwy:uN8OC:2a2yeEckrMYI-AAlUmIjMwlA2d_3esYfjyjUxEM4%arWBiId00Tr0rj9ijJM5hzNc5nhzkhAe1r%2j1Udg?jRFlOYMIu8neFI7Cwsms.g6QmUo2GmFt?Qe301afmhr_t9jE2ZjN2x8I2o2SbhUGDMav4Uk6Yahe%2Nlo5.nna%,I%6gIzM32aCToF3nrcqoVjfa2d0GjU=2pDrMhddt22bwdn&2jEZ60mH&s%NlAosM0apemOj2N0'
p49
aS'jJiJewtsmklc%0dijim/rto%l6m:W{yjTAMdp6e23y2dRIZ%vnD}eefMg65sIItbgOOqj2_wNZ:gN%IZ4/sjZnFDon26%WjceMIO2D:c2m2jm232arOEkwYG2zI02Onz5lJc00,2jnWwx:sBIY&waeO2DI22sOaOO=%s-+CjDIx:5I_UM=C2A22m2rRJp60mk-::tEIMspMx2iC&O0fije2MJejTTw3c2R0IS/2jmAMIdb6jhMW%/n1Pe26VwRjOxnpjs%22kIw2jC6fOo9eM7stMTwzt2mYNSTT??w8avrdYD2F0c&7nkYfOzbYlijnjem7ts}0I:heo92lpIZIFw%Sfff=2a20{YT9YM%h52_iobQnAeEcJz/rb7Tetvsxe:mE7mp0I2FQsg0SdeCsnFbjpTuyhjIyd%0jj2NteNas2JND2IJe0:xJpD2jc73I2uesoxM9M6bepM2fm%mtdoh=AJM=tMEUJIertBJIQD}f2S2ojmQmZ%c2i2j%yswpI&s0%yo6d/Dl1Qwa3zIw6Y28=CTwuyMrwjeGncA=aHTa{on056nrAIMijI8,00'
p50
aS'7E8OIxs0Hj9EjnhjuYlYjM.92k%AA:QZsMU%Dgm%JeraiYCqfiw2xmzFxy7Jo%OsCme=zFNrj%bjI6sZ2e2Zp26pW5bz2T22SwEjSg?.j2OE=oc,OE%SQbf:Ywk20jSpm?OIo0s_%eky40H%0ND70j6wjjkN:Jwst%NT2raj%O%mh2aDWykso.f2Sb2mlbjq.%tlQi,pc6n2NIAk5e3Is0cNG2v6eko2wYJ6nymixIwD6rwF%IVez0eRjoCo2%y:NIj78OCIr%p.200Y96hyc-y0sAF7jGsM0fYaCepT6Exnt5g3DM2mmzS2YkjuklM9.iYCj%Ckc9ZS2lwrSmtIoC%lf.YMp2eUDxd2A5A%yhkkannyj4miIlaW1Otlj6xjId,nM2%Jw6nwlw0.v75g6iIehr.2jwceZYk0Uz2jjMZjo32Hk{2x55jl2%jD,SsmmJ23O2j%MO3y62652[OmFj22sOVs=/yZ2rEbl2%Iia:CpZrSOoeJet%08fBhY5I6k0._0e29Is2UC.C3MT2Z2e.RjfjNAwANM2rE2D21Scjr1EAedaaj32xaZMM2[1'
p51
aS'eeoelt=w2erIfO3eVQiYje%t296lSmMJ9bMm3J&wFijNMJ02vZQtoQxgy3ef92lCiRI3nfazwy,YsIk3wOpf6IyUMI6OJ.266eiNf630CoU.k/.2V%mig%Ol6ZszmJpYp6I0j.t3Qn9UqCk%nkNer0%I5lZsIe/sxw2eWC2GGeu2=p2IYjU8jOw7W,ROvdS&Z5NIX-&?oapx3sj3e[yzIkb%2ZN%.o%i06sjsIpsTqRY_Q2.Gn3xR2a/oWSdC06p6kgZoayr:Mfe,ABJg%%nowAd2R8bJz%c%jCI]Dspy6xMzP0ejZg1E9YCM%zW&ZujDv&w26RI2m-l.OmFZ&wWVSeM%W&920pSRrSoe5w2l8jmyms/2%Mjvd0mjNykQi5.M{ohtO/2/p2%jsA%Z2f5u38ktoen6WIFkwT9m0/l.epj=mpmCg%jY6f2DjAmmnae2x_%sZl2,2Z,mv,2Mi%is6i9U%7:,o2::Imt2s7rpI%sN%ooeq70peCZ2jy2aj2md{MQ29dYuwlfj%4z%j,2AMyjMN2Hb_sg2I2em=I-sEXa62nM7gWza%I2ceUeM,'
p52
aS'yI:I=OxIjwDQe:3wO0ymMhOsNulj2u8Cajh%jWFfOji2.6eL2M&:zYd,3F0Mzkc/ITNpp0r25ejN0.Meq2I9giMji2Tnr/sTo=rfj5eOebyEQjA75heqK2:8I2S6g%lfhsmI%kUOnMOYl3auPsA2Ie%:6eL5s2h393JSl:omI5hjEDIeZam06Sj0&/vW6OC3nf0%aMxMH0jAY5nHGmGlXScAmIeIyZjIjlrMu0mow%62CMY1RM2MQ%132T2.mhSYGt%7%[UC6IuI%WwsiDZwd2xB-37W2OzATexh,l6?i:M/4UM6J%D211rAj02%DiWe1n&as22T5IcxBD.gYq6Y%deT,_x0mgya2ThipWIydCin/2-w2JfEe%%evkeljlrwNi=3kIoRs,aez9U6WZMvsSnp2okFojjk2S&jmm2sR2lO2%O:v7ez0jTQZu.pOuM%}yz%2IUEtD:a&Al0=d0j22rM8y2Nwc72e&6M%O%skvmwsZVcnPitggN5IpNoW3_Ejnl3ISz&cf%os-I2M02&wGO3so6QeDJwopI]5IIwgTjrm}UM/j%9wcqDnnI2x&'
p53
aS'CjZ1TIMY2il6?x?Z.xSD6-noR6iW2wEE_0xooowzS2CjsIpZojmtC%isoAmesroni.IQ%N_etwGtUToD78ta9dO_0NBJ:jj6OapEI21b_lv33M9Idj3eMecZICN7OjjwuZcsas0%ootI6xQWstss2C2cWMP2s=Q2rFOmpQdo1:I/Xrs22QdQ%2w7e%sTr2hne2vlCoem0gejjm.heSpdmtDVk:we8-I3z5oePs0Z2.lg3nd_Q4oIS.6pAio&IZ0=xtkpjf-%jFMBYJzkT6A32nnj2xl2}u6xDw6UiEjIF3obMn6,J:3roj6w21=N2e%:JeIdI=0aDgzCMT2B/YM2%MM/NOjww%bm0zeld22FpeDjy2AprFYCtMW_bmmbZRY/6W%lrmI2mMD0?zjnlpuIhejemZmt1hs0YSjQcC%s2l@2tsd9p2Myalo:6w_O6VI3MtBeAwNJcj275T2AmyRUfmg9:D6f00Tl2WadNLIp.rglcoZiIMzi=%lzsrsI%ICrdnOIbjedfmvhq7OSn0YN0mN/2woCtMj.3%oO2:YnEJYdD3%tYoYaTlm2aAsI52'
p54
aS'/jj_ZkyZrf2Qrg-2F.22%o0Ogs:uewjblcS0wUtl{soLjv3Vjp_m2ru2io2R/AIC2wy=I2cg]fefo2%iewu2EI]2oyJdiC2%CWZ0sp}fjfbY804o5STOoSd-njQjaf]4oMANcIRC%e2&nM.jImDp2r2et%1w2_02wIc%yAsso%Jooz=yrbogNdtenWSC5esJy_oebIFgu8S5Yse022Mz0n0lg::2a32jWU]a2edwE26m13mwmi2zL8ijZt1F4o.%lTUeo23.tgIYjml6dIAyv52dszjN02aewt0W%AUXmo92koA4es2pd5i0IogQe=jMwWj2DO,lMC2&upyWC2ewY%lxY2stPdWHeUd3wMa?xOwiT8v5I2Lr=OTEs_m2ImMnaM5hjTuo[w2l%CN20saDljiy5%nMCTafVIIsxf2JmgsD8dZYgl2zn33mY=jDDIsS2ae2hI9:t3D.ZAQmsp&5fIOd5dgs?Ze/r4ABt:s%is2sJiz}aW1/Qh3EdH=0kbtx2%5,htYmDIlhudr%Mwmu?Zs2ooz2trwwUljt%32.N6rles7C9lOoCZ5ZwMIgM/'
p55
aS'p2Oj%jys52t%6lw.%%I.btY65T,,3,prnjN6M7e2fY=zlNnZa,kTc3yNeDD9cIA2ts2bjOM24YlsdZMNy2%Oo3%p=5MId2j{x.8%lQIWP2-IXqjc&lNT2ib2iC%M7oM%NSt2o2Us[m=ahD2Wb%i13dyIOoC3cUZ.&:2&ea6j5MS3ov0Jwf:juR/ejZ/ZDrTawowtdV_JorsIjJ%21z%nzWMxj2JtS2jrjpjj+2e4ixl6edMwtr%dLkRYl2UY86M}d%3A0k4b72js22iOMD2SnDCS5nsyjCo2Yo,pcz%kO&.&mg2wWs8hd5aQleIooZfiwQ.fCI=22seI5CuNIyDmeM%p0e9Q2k/22CjTyEodDe2M_/2CA9c%Zql0_%O01Ifri_rN32YoYiAD.Z5sejGO2md2NAY%:uVCpjre_69hJk2TmnTIiFosv0CMlG=Nhclnk0EymvNw0i/JO2&o{S9Iau/sCeY6_eWIjju/%a2a2u=w%zepnt2dCmsjG%uMaloMU&etIjZ3CM67Md2sFwEhYrs25mufdm%gmg62Jwc%IZ22%ao%eson.R/jvl%2I2'
p56
aS'eMIa7M%BmcQtjm0isjudmxj.xTjC9GZ=n.8:R&M2w2wN%Wksso5M22%Z=9iJ2ecOzeessAgmx2&3e%N2je29/87,EM,yIIVIV%uo8SefuoDTMRgCE:xMIodo,_Qw=n9sypIya6a5ZvNO2IrEGx9w6mrOOwg=Ou5ed3.=22Q%wmJntgA=Ozs}oYNIYZwktewuM0m=wvedfZteOiu22m0%OmZrl0Wj5UesdzxhbDNMIujbje7iUIdNwGs0cMmEm3l6IVyy22Aht22woxsg/Of22j/Iy2jzNyaIy6n0jQekk=z/?2Dj5E-OHer/{ozN6a0hdsZo&7wz%8sC2zCzUj2bys6jN%jI4wSa20knNj22eiygcm6aow[lj6goVQ2AI:NRL3Iimwfd21Fykt3C.JYTHY2IzrnlNIJm0y:cfAj2I3Aje,2eoO2kr2pj%_JNIrav3Y%O8onTld/g2zam222m0wY2dM0E2_Iwsh..2nii[xfGZttiI5Hn%0gl=0nsao39jVI6mIy&o7G&jw2_CJ1jnpSgnjsiojEj9sfDa9IO2t2jb%hj//2Z55t32o0242'
p57
aS'yl0CAs0zwDS6rocn}2azdx2cfm2u2B%TojO_202sTWnsa%O82C22993g6jDoM6%k2eKu22jIhk0&M5.X6dFirgWeneYp2j2Dma2&2tDw/miyjhj14Jvjs5NO5jRm26tNn5rwCV25r2l62.2FsWylbrw%N:ran8}amYC27erg%y6fIsbmm&Z2A2O3Frexe[=.&NojzxM93dgfnt2Iltv_lpe3MIfiO%IcgIF9et2:OsD2u91zjfJo5xDDp2Hke39ODkcI0mqnTYa60Z2J37O0jIJCt6Cyo22A,qj:5FZdx}D5s55z0e27a22n%0tTrTjtD%aX2keek&ws9eO2sxw=_2sX5Nmz2ry%e2oz2[oOogyeCMJ9YMID2T8hn%:..rmRO%02IsJ%T_OMIlzeoMhhB=DOjI3EIdIR2mMXpjeIeMOUsMQ:-MGa%CmM,%?2wjeCh:5,mIxd2Mj6AJnU_/oon5n_JXtsTEd:DpVAax,Zl92swtT2%%2Y.OsK0Z5&82Ucjc%.s:0su9%fZYYO715O%a%7BM2aWOoz52ewwI6STmB2e2IzyzsBJjO9I%FoI/'
p58
aS'gjJsZtef:w2yeTDz6Rhnj2OghoVg0ntj&}0m2Zweip/5%Mm.5M.r9maOuoxMisIr%e20knAINr2b2nIMg45lO2DQ3j=S5mWIIDj326yY2me2O2jy2323,e%9Ce:ydnFtwLlY0Ojvjvr90%ejm2?RW2NJ6jSpwG6I0y6,dh%oGWkJoj:jwerieOb532=OyF%I%uslje2gmWjs2jN2m9irCl2%ItcEh2&rmris8tTGMcZuP/dotjZ9RI26jMfnS=M8=s%o8NOqv2dlmZ2he.iI%yslj_hsO2oI2mbMx3ylt.d,loboYIeMr7%=ciJ8sWj&/wZN_Y=6hwNIw23hF2FytAf3NgY3o2j80:dnmNTu2TSR59S%Wo%NC%IimdI,knpo%Jed63cja4I0IM8lQJsmrds}N=2YZmFW%6jseakowu6:28Fd25Cz52MRIko=lxjSehZnTY2f0RINHmBsrz2%mMr2l=22l62FjeI2%INGtit2h2Aa2IznDaF-hf%f3h2k9nrew23DClhvm.Iy1TNecc.cNBM:,w2kpsxY:8Y15TjJF5Y{OICwNnQ:/2NOO2'
p59
aS'%sba2_I9es0MtIzT9232CX1fNa6tsOaJbbZjy,OasU2l32fd,udofjs0_:25IxwObf=tNpET2=e?2MbkI9aw33.j1my6s3&fM&n]3w:jdO2M5t2yw%M6x206Ob2rb[0}mFn6eDUKeSyYw4OTWrm2ztCy2wIyN2jwAdII%0Wj6IayAjlS}yF6v2j3ao2DHreY,t5Dwg232p9576RoCN/0Zoo3/pCeNjmoWNxRfmDMuVVmieHf2dGikm-C/b72C2Il-k_nAI%OA7NtrYJO6339wrn0o]9MsjwDCsm2qhrOnkegs36e9e.O2rAVsa5CTPk:roo2D4eaje3eeDoyeoYz%Wm&uecIS2Re6ml62_I0wvs25Yhyrs3IIpsj5wg/DjR%fDC:}s2tjk6wUeLr2Q22ig&j/E5ZJ,,2%ejma0n6rj2{Zre]o6Nsy0ee.Ch%Her2M3%ZZoe22sjf=ltDC5j6h89i26QtYsj22pI,Ykr/xm9mz_rj2NN&2OahilO%weuAi52gu62tgbos3l2oDegks9pnjF%5lM026pZaAywyJf2s7oND2=&s}xp2f%PNY%'
p60
aS'N=k&lYduZ5jvm2CgI_2wrshp%eI0u6Z5Om5smpre%I,lSDIi2cMonn68YjusA:tE2IaEjf%oOM%Zp2y53o&jwZFIp=h%3RlEp9QMWC_0yIfYsy2J5Ma2MO:oJjy%j2pc:%j2.zMjoCO2oImM2jIo2BNwejh5sHM_meOONAnzTeGe5OYskDe%yQ5zow0Nolr9v3eb:Gw49OtXo%it/,{?%:6Ozjl26,h2gyaAO5e=DDed.Ac7IgMTpNNojmC22:k2jlu2]jIJSp6cI6GSZO0J?208NwMYQi^00/mjk/iI%Jj2dw6kez2CeRD2l8?eje232=],v5pAICA6k9SaYnz2ycJ,226lYw/aewM%x2:.xj2a2O2sNS&p2weouEgh%jejZ22snSojd3s%rsI.loc%oee,j92Usg63A=01e:a=aWXAis,InVjI%mC0ya%yZ-N0mOs2/22&OQI?ooo9Ns/3NMp2hs.g]WctoIJf?yUjraaeomUj3eCMDamG=/087xCLC5yomfsjsee{Da%h03g62wtxk2e5jos5NgOkmvNO232mkYwvOO9?%CasOobjc%'
p61
aS'I,n/fp@Ibz,MC6jv3h:z1s2fmItICN62j:ZQb%:6z2Icms/nacpNRKW/%N=z3oMn3DuO1WyINljloIN%-6feRdbnra2TRI9:/f=Ie6jTZ/d.jkU2IdD2Jsr2JJ,vt2daQ_AstCu:2&9eMaC/z%a26yINYm.0oMjIgmOjk5O=g5mV{0v50nzDjO1Iono=p52aT1i6owo2SoO92OsvI6/ja30vmID9f9A9ez5Q:rdj5zjB%r3Z7Wiec2GZsf6GsTzixZOjw%%z2Vx3mc22aMl0I.:opi2MNs6cWk_:u-oz2Z&ZZZ=r2UfA5G2%}ed2Z2WTM2RMc%TpaMIrdWjgQY2Apj&3doxneT05n02M2DtizrIVmAmk%:NwU306%jIR.T2AojEsYzM2YwSAejza1%Cwgh5i6D5n5DaoEEoncwG0Vmt2ttM2nDosdtpYw05TxwrCssfjtMCiQW28ngCg03swTu8x/2owx2/npN06eOL9/%k,b]{3xl2W5j=9i%VebI:t_smYwMI%0X2oMMIqAQM9jw%OZsst/0zjk&nIh2%be2s%06p=Zjw0edmaPojan%'
p62
aS'.nI205gYepjj2dj0KR=FMOo2%/2iquxml2bg-%Q.ae6AaLOl32tCWa6Wm5sd%jMZkieRIW25b7h2UMygB:cCgeXgTw%Z0m:omOjjeDO2zyd%EroAr%=O2s1z-IZ%ej2:Qs0OHj%wuIbItilrk2Iy-J286pksbh2F06D72owEZgZjdnQWvNNXI2sd/_f28,JNoumC25gIwtdP23eQvaM0gfOcpaMhtzy1zh,FY3W3wto0jgaN_rf5cjT0yDwPs5pn:Y%6muS3mAl3RpOZ0sm8TOt0jaZ0aZ23lMM92mh:%jALH2dR%pN.JciylO50PR27=p5oU%7a2:}YeNH2%tN3wM2zqI?c5]%au0p%fS5pM7ye2ezmoZae07m%w6elgYJ09sF3E16l2l2naRkjQzeTtCM:Me&2:&mx9t=NdfT2..ojtrjb2ww%1d/wezYX33hoItI22IouqY6%MIP37=eINe0siIa/32ltoQ22V=2IwO3wsVjIgj2SFI%&o2YgcjtjNeljFjI=sJMwrI2k2wYgtZ2IZIy:INug16xMjZd8jJd2dA6qY5Oh6m=9n2.O12'
p63
aS"fs22siW9wpdsg2E%iejWefd&wIJM6.pnecS0U2_Geij%.eUf52NetD23fju2tjomemY0n38XYTkM2semmN6cAn%2awm7wjdm&OT2Jy2=5hloj8re,uYcw0z3lwSj5Yc-u2StMCj_gYxUmDUJt6iAb0ImWf%S.N2o6iejmowmIxwOaI56SCCuy3&ji2yJaPUMcw/2A0g9cMf:kaGWmwD%/%dkYt2jk:DQMjC2M6CXgjOsSyfeIi=Dewfgs:vgvtjt22b/o232%uh.6Dd2To23vN0esb_tNrWlSV8gO7o2Ct6ep%sA0%YTb5I%Gj6mC'IoRnlUm2Iz2magt36YacgNp%u,IjsIy%Ig:=Xgr%nw&C90ss2zscjWOOI5z2Svo}oNMfZjk2TOg2VM_%6I6AeCsU/jd2yAgsDjv2eWwOohuI35Qyof.2g=%n22h-xue_IZr0xS,5:xeejI[:kYWxmz_8j2.&v3o2lfZglOtjp6wj03y962ejIQyJSbdIg%27tnejxksD&mklDw%mI=Z082%geEOmc9N222uc11Gjy2=IZWT]raUjjCtTgTws22Z%"
p64
aS'-2Y&eMOQlMaw23Z2O_Mi6m=me6mM,%eO6aCjiX/Os%jr5k25Id2c,.g0d5?_jzedsmMenC/atztjmeYM%CINnnIwi0&%AO%6%%0y.CMgzTyxnk7A2MoieC3:ITpj:noUrjx]uNI200w=QDJCzrF_22,oaejD3bZy,?mZjZ_OefddZ%Lv2oX_Mo?Qpfe5t95O8dsOne8opI7Zaeh0I6ms%E2Yh%meZ2e2S_kM6j&k2pju2e{FelvMnQMkTjjm5rj222wcJT52O/iZHYm%jA[C2:tuzNmlrRj6v=ImnAM}xO.nssT3Y6a5Pg=ehWJerj3I2j2e.voe02pf2ae&akNOjSM=ojOjNG2p]ds082Il&sfs2JTfSDZ2bzZCwj3DOsbn59wYmru9jCNM55t2u:rOvwOyx2GreEkej22MTj%2eoNizC2222MeQ%VejN22wJNO3O2smCe4nrfRt2T/xow9t20Uonc6wMaf}I6kTYwJtlgAhCmMjFTN2=5UINmCOm/etny6nZa2=jntZ%xb242uoJpZ}jIm2Q6ex0N%:2%IIYju2dtmneAs:8dWPnJl62'
p65
aS'e:x2DsieOU7%kCxjsQcrstdN86os22l4Jsxw_Wec%2M,n%9I6-0ex2DY%usR2m_%&Ze0II3eeJlO25Oc3Iht0lc37o02%r=yx6KPO%MtT%enUW2HyrC2AuZ%.5wCYeF2./UYCDdgtwo}w2I:Ifr%dkMm2pjWYtdwa,I_522N22%Ydmm2nR2Xv%j90njlZs3y%mOIISQg2V3%n2CdIajMowpmn33wJQZTD_bp3oPbiw7Z_F2ee=iNCqskzYjzrmFhpz2D3xc73aag.O2fINyRtG5o8:ZteDMjnjy0nyOo6mIO2ljFwiLe%k6I9oynf%6ni3os20&F2ImifNohEjxivxk]KOw=2dYandI2d2xYY,l==gMUUWr2TZIddOb0Q2ig002ps?.ntZOCiZl2mw/sB&_P%[gb2:janIacT83IJjJ&s2k9f04p2VO:UX0jowJYC%60dOy0%C8&0vlf/eJeWmuyTUw22:pYM2N%hdf22EZ7v.t0ZIpdI9425Dam.SradmjtDvAs2DIFvCM8e0aoxS3xt2j2e20q/NIjYffw%jWxIjsNeIw:s:NgxWnZt%'
p66
aS'2Nijwt.NEjT2s2jieZm2kA2njtiIkxFMztwhs2ShMj26NZy20oBMtn6%N2l2pnj.Z2A%TS6{ebjlnkkacYm.66WjrCtbnYaI2IXsa.hd2df0U0jZjJOJ3ijT2wbjAt5C%r0ujSdOj=Nj021IemoWIg02IPt2=UeMRx0hBw2wu6D52sOnD=vw2221W0jaCuE/NMCw1yJTjed2O2JW3Oj[dk-szn5mdxO5pkMEodo-0dtpp%Z8Ze2523o2dc2Q2w%:wj2Ik:D-Y3aUAeIJ2024.Z90kOpMNv,I22OjoPi&0hOy%j5mooTnEjYw%iAmj5jtwe,ErdsD6bmnozM21oZ2aJQCwtwS2CO%IIkA5%I%-xf3jwZ82v%b5J3GI2Geq3.ga=m%%wM2lZm3jw9jQIW%jiZHau_2N=t/Qfn25s9G?Z8FQ2M2}zwCn5mlJltjr9OgK0OCla22z2/bm/:rptMQ22F0nKIjS/jN2{/4tTIbLTw2p67ojiOIed22y52J.II/NO2dC%29bdd7Rwr=0INgnhmeCmrn9jOIn2,shsir9NFmpweNNikaJi&Ujh2DI2'
p67
aS'2vwasN6S2OkrzlogjrI6iGB1l0aeeF2&U2DC2t2q]d.Jb209dO%smIjbeaVJr[BOO1eumM3Mddtj2s5me6ammJjYmu5n2ANgOIs81Ct2%oN%2oIm.sj9jiI2ljMz3%anwlij6lhwA0wWs2A=7%2l0O2&jJCw7wb2sEtj3wD2jsJw7e]52mrlGIEjM3jMgetyft%%22glI2NwtIteNY.Jkw2IDV%ZtsoaMMh2=2.GibwMlJ5UhWQns66eNhtwWn3SFskgEimM2a3ju,2/Gsf25jmA2suDoS2=0V3r2=s6jAVeoZwXe2tzgl.}DsMthQmgR2jjSU20ci2OW%5O}fDI_MaY/n&905es20aOeJ%%nzoinmwoTjD3SDI0,c:S%&TY%komhfIwgreN222G2TRw3Y2te%oIN6jvgyeWee9&p%ZauDmIyF,xvZw[Gl25A%nw5NggwIoRhe.EDzfojFNRsMJ%%whsmCwzP2Ajejx&Fio0nnZ1I3cmennw2I%m6QKy.&kwYy2T/leJ42m2Z%OYm2g0IevZlMzjpZ%2thJYc2dY:leld6glAcrLrOJjj%'
p68
aS'Zfz6yOR0hOl-7GeiWjpI}2Tl&/bkjjjj2l2W2nNja6alTh569xzY.0cJMDSMi0FQ2Uss%fInkpD?wpeG2fwN92=ioZIoIM3zjIe%l:m2IbMGZpjj2fthr2M%v2facM/fleeNwdU:0=fDa2Yp7OzoAD355lz2Zom%fnN9zpJ2deJ.BMejz4IMORsj2wyI95OgcbM2yUg2M2Z6tYjy4w20YOo/c.9b3%22?9ljId522w_W7R%EJzit2e&VFhZW]xl%0WhmITmTeNtMkJczQY-tJ_nks3QkCe7OKCkiy%cVhWOmZ/kmoIWm.68znA26Z.r=%h%2Eji/N3e0224kesy.gUeOoQ2dI7E0&rM%6vYCekxl2o9u%h2mMCJL%5=gajCevo2zOt2f3Cs,e6seN2DE%YayDdOelomohO:20&s6mfjyZ8o/mYSy%sIniMrjaDsaVbYU66]Wmwr22ewuDgm%5R%j{QYgVdr-joC2arG0D3JI62viuZiO{7eG%N/rYf/2TjA3b2yvr1fls2mO82jl,%E_5nR&B%hjmkJ%2MEximayMIzucIWDf2Onpj=Fu,'
p69
aS'iksfJNxedmsbe1M%3IeOcwwY2f9jmoMeY1%Jot2_2.k&e%5/jjiY%bF5k?2:hvmnnN:sd8rQsoen2W=gjXgD23x2tb6%n%e2WI%Ieq=%2Uim.e%6R&bssnAswUYrynpHaCMAYIW0Y0|2UagueOWezMcmiw2ge2QXacoT5fO:gyI2In/ofRzuAY3bQwVj0rtYOir=wf0p2yoId6ak2rMfrMUoGU=%OymME2MNZf%O852z=3ea6tIfOSi&/maNmuCr/%=l8p,fwgSi2%YMk:vSw2mzXSEW2II5yIYF36OjCOTh2IsY1D22O3Ef]=3ec-seuIk0QvmnFS%Qe2MhrdON}Isyn/au&uni3,j8xypm_5nfnj3FIcGme.1%mmp0O&,ON:-KJCce0b2ZzIwjw%pms0OZ%%aaz2wIcmZ2ju0Wa2cMmjN%e0eZQu5q:OrpooTi266ZYa%cwh,efwF%k:t8Ibwc22=s,5C28fTxIjy%aM%=3tpSwno1e231Yoois3Yk=_2bd-jFf0TO&IOeN32fd5wcIIRj%92w,a:sINze%sdOhxAOIstZljs2%6jm22'
p70
aS'.s5s2r6M8rnr&9r8f7roYNVFj1pj%2Yjb.Z20lgRI2nnvfiUf1ko%DI2,hb.H%hdInQvYjuxfUWmMes2=eCwx2o92I2%/eN2}te=T8ndl,hpnO0[s%2i/a:Igo%i/srt2s}mts02ameHu12d2e5l50jG0/2mN8ZwxrELsO,1m,O90=ow3C3YjnfJOEC_Mwpg1/%8ms&jrO&w_.eek2T6Dc2wr2psYI1kj&u42NA1e2tFk262Ixrpf_AIj2rn62D2hIyj3jtrno%[Uhj3oO0w0{22ss3:mZ02d5ienJwpZ,I2d_:TlMI9eIZ2jI1O2fnjoJDfMkOC2EjpsRJe5=0UhkVO1Ba6j0aO:tORxO2tQ=eZ25.In2[w/YIrC6jmIMwIeEMlO2s,22ieFwj2a,,2u2:AFod2jy2zlChh0N.lyZpnJl.=Qco.23Zf/0Lo%je/EwISm60Zif%o00J2eZN%gpvZcj=axe2tfzrM6moNbrrT36s0o/9NYANmTxfbNdO.je2=kcu&fFm_TI&IzNIMsMFjNQ6jSsaheb2eeimi2zpuY&6OOj/mjAmmsnliE0'
p71
aS'zdsr.0.vedjitmvAQ2MJsU2a{x%MIdI0y8I2yMjYmQOJsF2%0jYI6amdjR=n0{o6jJIedhj/jdIMIDDfs.razMTaD4/u6wB=%Tf2,.Wne:md.ZpmQybiawisI3kF5ydjDM0mQUxe6%t5nR0mgYC%Ju%2s0e269wYg0uOsnYrjuYmvFnZl0.l?0YOIIZa/Y_BcTx56eNOurt2ck2vQjTj3e:22jDEIUmjkYo%xptEIgRmH-TrxlgDZfNwuHji2Ytme2Wzk02wwReb3QVbaw6JkI%2jaCp2J:jlknTfGrS6.YtY3t6%putDkJ1%wboSvpJhASGIzjI%aCzb0e=wjo25G0NyI2yw20abUNb9dNI8EUOl6sDmsY:2OvW2r6B9jJy22y5ajxe6jtACTkKujO=l6c5yvakF/Ij2W&smJQNuIIxjVFO6vJ5kwhr:a%3psZoCCRjs=57tS0eOmf,%OHOhj9cw:972jsaoOme2Z6MitdZs5.QOInjD4r,2A8gC}II&Uw2YzR2lye%Ip&qaFUybm2m%tIwDIsAIplxg6,TksMl2}5%92Cd5/nQz30II/'
p72
aS'nCaIGhOmayO2sPxZZjsSdijiBUeGFwkb2}DNA5Y0Zv%/o.UmveveRxt20y/iwEM&5.f68rT2f2otxejdztM1jni/_yMjbaiM0ijjw3:9uOc?kmz90WngiUlV%OtgMsip=TDwO6E3RNj9.tJMdN20yf5bi5Ra:/o2/orOC&3DlA8ow2e=Mhow/8mbzkd2CpiofdpyMI2kYoi39g0l4IIlNIsvOnm3%j0Qx:QlhnOeD2JupoJ6K7/_OGQRcAJTjWZlHjC6b]jM2:wE2dNv6EyTvC%Azf3w2VfMsssxCwZ3/M0uewaI32jnunojoweoIeIZqJhn0XaTaWn9dFA5p2amOOe%0sy2eJ/sS%=rnZo.M4I9Ci2jreQwnnDpae%reftmpe,%6%oP2Oa_IDODM0]72gJ35w3oj%A273frm&5MZA:Jjgyr{oI3rIz04SmMUEV32M2yd8tgZysuSodwCVclZw%G6b%onyGERnmZeDhz2szW0nel0m[lit%AD=eU&lm1r,oaI2,ws&%pb,SD&mrt22j.gSjN%0=IO9T2mga3FO2[O12e82j/3tBIeNMwc0'
p73
aS'NjTILZRdwA=POn%2eODt/T2:eue20ta60pN07maI2MN2yeQfbn52C.yzDjwM%2VImjM_Mf30IACCnYoyW_kDIsw2dQOdr5lxxDm8OXNYwjeCIlj&lIgYNkV2IZa:lRubE%/ef2cv2oada=tI7O./MwH(0vxj-f{a5tjsTSMH57?kB32x9jjxSe6=tYsT0nF9SsU/kMAlr2CrwYtY%ol1LSJI3iO%dwoj%j2NxICeANNjb2F82xIesjD9%+06jzC2jZnUIdiknXRJ%ncpz9=6h5mjcYZfgYmO0eJC6UnSN7mwsMYA2222Cp2Rcwn6GeoghMtKJO0wtnnnaIt%IM[A2IomEO2Y0a5zIy=CjaOGC2v%:o0Z2Y2MhN2G6jw2OMSs9o?aj22MvhyDmS%islTe2sxfyw2OZO:3mwxocWuj9tCTrs/B/2ooj26Aol2eYsOpm]9j2csJd2reaj2Eax.2kMw[swETji%2s2p0?ICMzI%j3Mm2j:%tgmem85C%Y,jlIyl0ZjZe3xJ:wsM0ZjaDoVcepr%lb/Rm?/,526v2gWzg?2fMi%Elwi0jxfA/2%'
p74
aS'aD=hD2kv5j/Cvmd:aJZSoa/9iQ?meb222hwGx2Gdjw}7MzTT2o5hzt03,/jNm72ps%J26dN6SIpnUCaYtJYeOt23z8Noim27Zt59n0e2=ktD]m52kiaN2DOOoT?mr%:mlMNqMWO07yxrt&lwCyKQnw2W&I:Iy2y{az&WI%,=oaw0j%ijMt2Ip%J9mk2&I3zD2Dw6d2I%jzp%ezLw/rg2{uJ%60a2dand/m%b1ZN5b%x8re2ZWaDIOU2mufQo:j%ngn1wAn0Ml02%ymY3cbaMDus2fs2lo2wjJZ6lm15:2eDVl5jR5j/[SrO:w,c0=J9j36{esE7xjrWz=ENZzU:wFtMQy%iejZ266.OEd/O2ySlegeIybDcjITvtSfcjObYJs:0I6%j3NnLmIw=Q2=y7oel629m29I2Ys7poy2n8wmos2E5xElho2SwaUooeu2wa2f3=n2lIj%d272dmeJJowI2?hIEseM1w9%d8eN_nQHaha02UY9dzie23%202CWhdIe2ahywjm9I5ComIj6hNv.=kfi%2dll%j5{R/Rjtm2a2]Cji3leIz2Jgs/I5?2'
p75
aS'kfnAg2jsjjajy6otajiWc1CLtnRF6Jnt2N_ZU5jDyQ2_2kaIU6surjROweUvRe&%I0/meCOYr,MG0dcroUm.Y22ji2:ggfr%a2SI=%z0MD/Igi822jesSw2jRtf2Osbxm%Sj6O2_OYrDN%eIm2eslZZjt?m2nIhj%olmW=22MakdTU-DZ2pSIkI%DCbto%kY,Ipa&ZrZEdlU7X=GJ9jJ0{gtgllVihyj5RniYmsqj2B3Qe.c.tsnYw2_&06a.DeQw0og_pnsp5OjOo%bn_nInuejo/mF2eO2eMCiUc=FMB_2Qoer%bjZsRx63J22il0CjoYkNG:60jpUi1Us2?jmjI,j%r/%=0Nk2G2uowNMeOZ0%Ic3e}sj2l62N3ir%NMj.=ptrk9ZINs?-oz2OI75oI}iD%3s%Nrn7yy47%%&%AIfS3e32pSjwjr:1fIIjYEcmTijeMjoI_%2wZI8lGgNDDMgbmeAR2O%%3Z%npvdRMnp]s5EoJIcD62VItFT2SWlIdsr6C0NYs2eJ2nQwpC5Mn2EIWYj7ey9Qd62fyaj2I:iOUI72a6z5e22eOED5%'
p76
aS':wjM%%2nd%nDG2/ecra/V22IIk5=mkM0Y_lD=.OrI3-%s2RCuof0yrYNFwU{w,p}2bsg2?0m6m3xtG3I%Uue3.eIm2D:o5rs3_I6jaIkrI6C4Mc?3llx5rCX5003mwMREz20&w0mOcxxTanmzDgs0CcUe,ar7&kN2V9j=nUee]Ishfc/ZA8lyHIZ:8jaj:%2Mmy8mRIBC22wI222vjXDlV9SEU%2IlNJujy3a3s26U95Zobz24yNsrC3&5lFhm0uORzrPanjib52fjxoD%j%352mt5Zhml7bJN%0k_%/AM3wgTZWuCaEopIMWx?wcSvRZUIkd%efuUuGH2wd2jIt2%WmMm:Tj[U]l2f600rgOwN=wAZ6zNE92yNBrv2ps%IFpzzOkv2Mj6Mi:/jtujY:s2bO28qMOZ}djtIxM%xjmYN%i6N2jia/XZM0.co2a3jmUqI}C}WDZco&kmBjA2M/Y=qwi2wiyse,CEerzdWi0W7IOt5l[0x2RvQYlbMJZjoQS%xVmwwje2wAftTS:adcv=eIDtwc2nd5N10MMh6YmgN2ssojecmaIIgAzlDDa/'
p77
aS'%m-aEMp=},AftK6%x9w2/N2eod0Z}jUmsU2uljdeUgix6IOIjieo2jsi6si2ndlr_Buoew5OUIiMrD/%2x/Csu2YeQ%Ia5wng2Wd/vYsIrhp2jw60006vj=2ZSb2MsY%IIdwZih9oN2%kwYht2GAjX628:kMw%TIejx6y,aaSfldjIUj2sotit.gA43yZ3Y%pdnmj6m2]Z5%8yj:Nw2152,ac%I6sYFn5M/Uf-Dmw2dO3fw:9zi=/ppmY0l5DfTsyel26RCMc5rk2o2mIeo/aIk5%=l3/aCl&N2DkGzI/DjgHPmS?06yaSdhd/%N0Ymd0/YXw4fm=Ayu,DOe2J2:x0i2jygkzBm%YNwbiJ9ues3%Q,tMTB52tvo/U9CmIDsD5:vwCaSOn20ejZ6e9yReZa0tnOp25TlrO8yej,TR&3d60%SuoesNalt9I22N36IxTdxaISY0jr232oG1WisQw&tI22tsQAylm8boZ%QTHmRX0tIMaI?fpbo=N2zpTn%ZrmJmo025iq:owM0%IMTA2iPt29&92aZmho2INl5C:mTX5z%snuNs36j22M9oe1'
p78
aS'=xzaIje0tfIIaNlDY.5c26I2jrIf2ANd30232ITEqVAtwlj0B%u.3BjS1Bn&C0MJu6ZspIeG2UIohhzzQa2W3r%hxTjwr99roj2NywDW/Z6T2o.GowdmClj0JM0%jtvJJQm4.Y,%o29ejGk2%O72FzfnCCaknm,223vsNibYYMwo.IsN0rp2OejI92oO23mIxIM7S}Vr2&%nIalFyn2e5m86goUms.oo:Z,6i6mkmZ32t%I3mjCEICjWCIo%emdfYAheIT8T2Iz%3fcrmw2b6ex2l%w5Ii2yJu&sjYlxefnFam,l2vRl.9NjT%NEw%3IwupCstajMjzNr/jj0hTnW6o%2ya2lo2QOws22IC2ubsIOdtzjXm7sgusI3pEND2HYI}28YQhs.%tWn=WJfleiW32nmh9%92e32?0IYbeZ52m?Ty2y25ktc90jh626j3UMo0yCj76n6jDWCe2nYFJzweTh7=ei0Faa3j6NOIdi0]M}QMjUc%I/Q/dd:MjMJhscU0tI5%]A.Imj1R7,eAttMMWm&esR:O6mIoIej&li2eIJI6R.%b%ZZ60SI/o%2'
p79
aS'Fnj9r22mmOjAwIWsNMpMZ42ImuswtnDlR2m9Ar02w3eJ0@jItRGef2ec:Ooed/sLtO2s3J9wT,pICo%e3s%x%Bmn5uo0,y%TmMW.gdjjt5b2NBeoFwa8Bg0=9pao2IDIjw0tnwHgoSf2na62beWO,eiEMRtoT209owW32YiYuA2DcI2=jZr&YsQ60deajgCeereIsm0rl1cr2IeWdbC6IpmNUgFYl%rnenx:UgIDx35jecsj3uIN6e%2=jlMIwt=7I2zQy%.wMwv?npqnWY5Sta5a%MR5.2U%mJaeus5/ijs3eMmf3cO%x2m%3NOZtO002IMApnut2ZxaelI0ejrek_w22ga@2/QUoAa%Wh%/%RZjt2f/eQeeg526aj0/ddc%o10NJF2A]eDQ2O2:OmaD0Tbepo:Ib]%y5%SJ2Q._YR&hbJtwf9Gb2=JAANNieNSCN22lrNe%osoIgi%sAYCE06:a23ee392:biY3ibIezN2:O2SmbmRt:w1nCo&&I52injZmrUO:mYdOSpM%3%6HRzm7joojnjngd:o/2%j2kkgAerD06m966mJ2:1S02'
p80
aS'F7Bm.ykNTe:v[AUMz33nrQk9hC2C652qeYjY%g3e=wedkS/Ncm9d.p2768QIw:E2eCyB022miV592zs5WD?Om6V7:2enmYM0I5nMxxYYNwIJ3eOANQbFmkdnezmCOzIieI2rOz2x8?mQgMwesLMkMZ%]yyrrfh2ey?2j%l5ujYNjIfi2YWhMASnD2WCodpijuJrn4Cfe2VZNte1mR%uwIa3NsbO/%Ie=sejDFas2rIBycIW30gb2ahomo5Dse}jZIwjjKrZ%Y2ek/i,2M2CuPnf363f025InTs2%.0slIA_3A2=2ycZDyladMnhjuygj01fYEJneigQco%jITNsgi3Ot0dOCIY2C]CbMtme2_3e5Oz32g2mkY2M}Efls9j/2=5ZyIso2r_h2o30Iso2b}2OoaDNI%e5afeI0Orea7d/8jFI3,5ow%ow5azW,d.eZP%ec22oMl9uc31MGHZi%ts&M&j%=Caf8N%-IYDg%7%tmeydIIzeocaY2G063a8Iw2{-f2r0.e0E2Q%CdIxoeNs22gupcnpBOTN:po%jSlMJgG=s0od82se.r6oz8h1'
p81
aS'6Nl%SY:5bd6224e2fxIY2NuayD&3o:I3,6nUN5eTY6zVmZ0myhilaef6kp2&v}1ARme2rjn2E7djQ-%je2IBh52rojaF=wnaDtup%2j8i%9Dn%22o%yT%DI%mxt2U2ynwju7r29d%u2Jnhkg1SJnn7jIwYj2892oes2lmydlOwj=ZjIU,elnK7MdUk2ztxiwwmNt3eOIla0O2NIDmjhIZVa.jWme.J/jZge5QJM5Il%Gni36wUetmzqYj2@J7irdjICsl2MuBeNixM.E90kx6N0vMjMUO%2XwemTevj1cto=DjDl=&2h2pt6DTHKIe-x232NI2dICI2UYj%INKz7ai:I3:5SvEj7.6MjZjw.sjkFMz2Tc29kM.//3.I5QS%wjEipM8koClMSk3MNa=%-m78iv=Cwko2ijemZMOCA2f/%YIN2m,gyj5vMjCxIYh6tYMnl3N10aT22voNre.tglemTZMd2:.oEzMySzRs2cF6hMng%seYjn?5rCDTIIkehf9fC%0j2fD8==tUI%CyIT2YZS2sUv8%ekejYb7rl0n2lnrpClDTeMZjUwa69D,'
p82
aS'mZO6MI26Fr1o3gejN2RNWnMs=20jOapicwjkDo%gIRCrdgupMQIAIp5EI8O?2l5/vDjAIIr8o2tS282azjysq2dfo2ae%nMs=c3DC=0joOI]2ufMfhw2NoU0uZmJ6eUm30JNaAm2amYe2k0LoNZjDmfDktaCZ9a2mMCjIsbeaf9W3mUA2CinD0SybI/jjlj%Zj51swA6w85Yp:5zRoy%Y-lmt0goF2INYUMeFe2l3ia600,wjwk9Nrfm-UYnalYe2rpi0TrUJ2enwp0jBNj/2FIjT6M:pdIil2YO%ht/y37lR30la6=IotHAsdMst2gDtjT2lIp2lSsE3nY2iDZ%oie93cmsB5orzOrIdOy25m/e%OyO8NsG2,jw0k5mr60maTa6eMhjJxOowdOF.gsZM%Ibk22ryMo70dUJj?HJmC6CsOe/jz6:erjT2/Zj31dm2o%%eettCdvcJ22fD92onMTadAOeADyw6sj:dJaV%kO-jit==rhuUOEw1qNe_jaj3aRUDs2jule2Q62SfaN-%U2je5kvMimo0t2=djMjw2y,Ix%2RNaZRfo0fWZdz%'
p83
aS'wi:pCn_Duv,2I_eFj?ml_o.27rUeAlDw5&j%C2=jTkM0o2CC4b30ouR2eu6i2MIi3/2CIjltMjYTbse2jekWvJl&2/oMSoa6Us%0Y%Y/02xRe2th0tmlNp2e2%55m%23l2e6pI%v2mzj&5f%?jU%_mjO/Q%iI&v-0nQo32zpug=xiK2nNfINg2lyC6OnOBmi%EWw2l/4-A9%e/Oll%yOz9d/_JFh22kn5OyJjZUwRI226%%Y%akm3o%jWs3y9tSIpeM%FGodi4MjAZr6tyd7ea%yYMG}2uY5&Z3WZE/bce2cKRzdR2eYW}j6SInUO19Chg3l9dny602moI03dN9Q20mB0I?}ImC-jNm%p5,J3nEnOT98_3Cwg:U2Y/b=5y2osm6:miw/o22lJ2n,M30yMJehYmhyw/,e:IowQpdG6H2snuIwI2yjYIN,oe3x_S2s.=o62j%IFjW66nRanp92XjiIihlpSjrxqa2t2rbj/fffJbilI/kafOweAzeo2pj%/xyIu5sfNIk0gnm2Ejro9tczM26__5Q%rOIF5UOJsm2I-mM.Cdl6MpstQMyw23'
p84
aS',UfpyDi22Vi5knS28mEeIts2SvI%emf64OYe/%Yn[=&oJ0tCYEn%aijRtosVuWl=oEge-2%ZdU5IIdr2I1A6w2eS9m_ngl2./wdiecYGQnji2Oz:IjN&O}A.jZwylw=9s2kENhYESMpg3=36o2AevejJ1UI}Zjvw[eZewt0AoNnl2gaile2M%%e%rZnC,2EIC0xdk2laI2W2Qnmv,.nn/I/nN22OXS558lINZeDfaefus2%yD%0oageH:2[kNsTIoYJ0vuO0%oTI7zc%gh_OssNef%MA2Ekvo3F22F0ReT2T5%3MoTs2z/OlSl:.R0DgIslNeudgx:rw6:IQ,b26Z2j3ils5Fn2C,msGrNI=C9%%bLszF223wee2k%m6=I%}2ZISINons%jnNjYvgB?vthJOyPI%OOs5j25lzoZ{2Iz2O0&FNwrMPur/kkNnyZx.MpTa6wMS.z2iOpMByuOnD6RmO%oD5m2otldMOT2OjYU.W%eCjle6m2pnJ3sMp.0%roSO[jYmwm6ogsnYmYeIOw63a0aVI0j%/Z0CYw0%MkiBZEMjw3wwCr6giIx2n%'
p85
aS'deai4cesrg:Y_fDe=lIaE2[jV9ozs22mml2Dj2NI9OyDpTj2ktTYj.I2Mpd73%oV2wIM52lkH2fu9%2QttdZy0%I&Er222p63Owv:seIIOyM6d.njI.:%U{M,yhj:2O22I83bi2Ya3otDfOI0u710l5hOJNr6xuxkF%wy9IJjOEi2j2%xg0C6ntIfwS.WoMr6ECxwrslTrnThIO5pBlojL?I3drmmhem%20C06j20fIYhMejDgZsjowE92rIaj,Nw2ha6.t.NWj2m5l%o9njshM0tsA4nMy6wI_wcs6be3scebMdepzi62nCdt:tplMx_2flm/82M3msmkyje3YfS22==3jI6gMeJo2D9Cj5WYl%[SSosm3U95%PcJoJnZ:2Qswsy=ltna_?AM12j20re/W=sj222j2cY%j&wyNsZomY0ioMoY9Ug2:Isj2%n}0r=vr23wukNMJC5loms%3wvwh82OrnN204sB2jVcjYj?ZzIYer%/70I2OlN2Y0O1mOx9=2hykIjleA2Cam2n22ta6itmAu2?25k_NjmmMd2eJA=/o/g2a3IoCX{5IO61'
p86
aS's6Dzmo24cIj/Dz6mRF%y:Tw.,wZ6Y2{o3%I75bSjyemTawWyd0Ad2wIM%yw%6wDT_Y%%{%%Cte8xEY0pjceeobOT1zZ2Yxs2DgkwwilM,MoeY20-6te2Yldh6Wjm}2Z5jdes4u2RknYnElFfsA2%U%%ro.2e5E0ISC9Izc%MSMOnDo85s2ss2kIsat26y9:oWiM.8Z%eYneAj]Itwojrm6i.X2epwIJGXrA6Jm=ese0E[O=_%Tl8R2Ml.Ks2jmvTQwJVepp52c2ioYZ-ZyzY8eDzN6/kfnzgn%3EM6o2mZO3MNha0MIj3-vi7cjz&/02T,]oj}tI2IZe036YY2wdG2%GCH035ArS_f.sjc3j0mRe}r22Jp5ZsQ%mps%msB{NMJ7oek\\w2Cf.wopD2mb%aKWfM%3dxZ20OSC82oJeJ%d2a6I3mJIm%t1oQn_:tjs2ZjZerdYI/JIU2it2hjs9CWJE3fSl_x0I2PseM8anIYhw2TmjsN3mdI2Zje0Ifl92jMi&TM2Otm%ru6Gb9kg8_-Tjal9oNdIjE%yCsCt/IuA2s%S8n:noJ%m9RbJD22'
p87
aS'V8tZYijEw2wensYeNFjDmjImsSCNW&=F:2C3%nC6,2nxm=V5Oie}2%/mxnEUaYee1ZDeo8o{=eh2,nL.b3YeerEE/sA2sSo5is2Ieki02CkIz?8,mdm6sehc2no0ien23}b:UasGYeDnAljGjt%1QsI6TxIn22r0s2me"l:2nrNnmZv23TowoOxII2M2SjStMak=.,j9Q3Q3k22s.yrZ2jE=5l1fd82wC2.uIR6rf:/yl=N0C2cWr2IWbgO?jw28ZfONw5PO7SDow9Wy:I5?rCj:m=%58j32o=jju2j3NsZ.r2Newt=2rdzw=axwwG2JeSMh2-O8u,OjfMI3w2rY2%F=2oeNeWzVku&aNniRlXOtv5nwswNCwMsWnMTq2jUgjOm7aMIyI1ufuc%m,iITde7NRebp:IZQjC=ezM/CFs2YxjGaojjPhi3enMQmNtwscJ2O22o6JsurG22YMreO0ese2,6l2i22G2p3wbd%FUyjeCW1X%Qy5yJ02l22D2nfjMl5j9EOIjpCY/=pCFNE20%%pagQt2waIe%j]e265Jn6{Hl62NNljbeUrIEJn0'
p88
aS'ef222..pAbjoOUg2Bb3Q[%ym6I2UvjI:=Qz1jeEa8eMDfy-icE2FEB2oytj/agEUj7E6Q2[5ILd2262Z2ZZcHElm26mSDiAwmrdmmljx6NC=2mNk.eu2Iesj2-Z2sobeM2GZ2jO::o2zIYsa022oWwxwpC?j2RWEz2ut%S.%VjB&Yd=}O.2ps2zOJIIeUlmIiZR:ezh/eeD=wMrII2uYd.ezwIz2zj7ToY:%OwlI2YbwOY,Iowxd?2NtstTIuu2=eit=%Aaumua2EZk_lDegsdI/e20osrbg&i5WS4yeQ3%MA6z%SXiZmc2ilOeb5it_a6km%O%lQIZ4jZ2edtp2keO}A9F2UHM2fA3iT%ruH6=Aee0bloIi_j2bdeWzog62M=5Ijncj3oeEOQfsTPegDDhaXnIaD360eTIf5nMjwSI9sI3yifj:22cooag/M2sfJ%0amMnni2,]TdasfAun/a9660now%du/OmxN%dmbUGF%QjQ9jT.smo1c5jtmjmjItaU62%wyoJn2/IKWX?Q6sDpjxENa0phtsMkD5GI6J:2lJY.Oo_j2ZjQkleJ22'
p89
aS'??pup8C%aRI/YXtDDeM2av%JI0elSpm?4aseaVAIn:Z=f2ZsIujleF9Tp?2:%R2I2Dqjag=e2dEx?m2gP3byjjyznQtyR2,s52MtJugw5F:Xl3wNF:5E7=FIye_%yniI?J3ghm03hu2ASd0j%yelj?W2dnuY5aqIJIVIZjpva2ItsN3fouD%wO=pxx2cZG2mme/=F_Ii6JmYj9p:RtIOwj9hBmcI6pY2tO0e&sye6.i2yj92mcoobw0=c&zAk223t0DEor%3r6jz37YmjaDH&MrRSNjV:JIwOr8B%woU0IREnl5uoZTp2WQm3lW,BIyoIjO262.snl_5ewU?D]j2dBf0/XbkxYA2aeSw32w20UYjw4t%jMwIujj/2MZesY3/StkA6IIh0dh3ttr2e26862Jn62e3%V67hMoUemy6WpcmwYOS%/pcajpT2eD2s4m2EUIrZMsOZYMj66trzYo%2IjM2u4TMhr[NS,50zj2d2Hjr=CCClb[/knIQsODdj6FMnevnOImRsY7c5b5wD06jYmYYMdsGe/.%Yktia%tjVYe=8NN=m:NskhZIF%v//'
p90
aS'Q[MorwzbajMnu/my-euw8/yoxafz4O5ecoumY%Dc5dluRm9jh2jmj8/Z2ToojINN=eMp.teR5XidA6e2Ciaj2j2z2Ki052bQ%tDjOjIe0m:I6TJE0DvaFtj5./hM0ye7%D0ir2t0PX5Opg.xOQeAotT8eAM}d2%z[RbtoT2m=:2nFleGCf6l%ODF,gw7Q6G%Zc6V0aq3yNc3/2ix&jiwVMsgmzY29omt2%IIUle=0O3l:cYjmj2pgUj6Y2YZ0JwDTQdyeEnE5IeYF2wpJZiC%k:tYEQjFmaoRn,mWweqEm22X2:/SjM2_As2Ng3_oe0woynyoO7ZX3%28sOl3Yaf3j_OyjMva2,N%zabmn00yW20MD=C167O%Ww2epqtIw/MYjRY=302t7weajE69hyuSfFi0PZIZeU2Yec2jQ.5%pAIIlgkta%Zsy5ajYjY3tiaeMJ[ssj6S/yIq-mjlN2IeeOI5.2fzo/r0sQ%DM2T6/3y7NIir/OSA%foeenuftSkSmoNlerl3rgtjO_UtjWljoM2g,2&O36{jO{WzO/2pAjj,riy[ssIjz7Yxkdj30'
p91
aS'J22OaMgv2%IN01.9l150dRnAg7_022,Ie6U/0cmAZIM&FA3jS2nCj62J2wMwo5z0OWjZjtY%t}Ap2DxJ{mNN3NWJaImI:SVtOjue2%0v%8jaEav}?J0I%22xEn5%wJcyOcFbbGWb4DMe,tDrV2Tp5O5x1x2V1nTT&:%fXy&tZ&iZz.SZWdonb.VjD0nXY2mzV=]f39V9my%2Y2jty?3a9G6j26kc4pJ/.1%e0%.u:Fq2jj6IEY2Is%FoA35c_2Q2U{3wI722&wIljMM0a2okh2n%%%mspzujYetm7F&2%AroloNOI9YItMe48ey.Nmz:IWboIzwgCrU%Szp?l}gyEjwsCX2enZ65hMbx2JNc?OY&.aoocsYsc2Hku0n2?3jIeCimMkp/Ox2n2s5v02Ueo%js2e%3wI2iWpCDhmM}fwcoIbDd2j2%mO7z5_1IIdCOo28D%2daZmy6XjErYe%wo/Xsi3vSF,gNI/gRWw&3ZpgfdQZ685cxF2aIJo:}2O0NIoztrOptIa%6672ex2=YAZ29MSZm6m&5eT6I2IMllcjSbs2,F%ij2QI2mIj6J2'
p92
aS'y/%Dlr,TMOsYjlNy6tgTp.=,/ukw6%W%djMjY3jMO%AjT2FycDRywcMMfk6js/smIYk%?xeR2ZJ5IIN:p0%MSzs0Qrwl8p%2jhYncuIuj22s=-wTsgIQYm5ClX6]dJBwwF2zjfQMN:nm2O2y/OIsms:2Ue32DefwZ%JWO,m22%%QsNpDeJ?ST5WxOt2E6%rNjyMAT3M2oIze/mW3d2weodr&0sN3a=e9N0jx?M2jVQejekfnV=yZi/3.Jg/wzo2jDj%R%s&TeMs}j?eZ0Zp0jSiI1J%o%2,,xpIsiIJATY22,yl622m0eA%n&0LS3%6mjNlSqKjjt22ajwgF/27Z2ZsEjE,rC3IZkIljJw2tgty=aU%4M0+T%2siMy/ywn_d%Mlyw0pIjDIE-/tnwIoc826Y%{cHM8F%A/ootND&6x2fPljem6Z%2ewNr(2WeRlI%u2IiE02Iwmfnshei75AM&cnk12ISZGl3va8=oNdINYJ23eI6DyO0tNO%JzD2IIZ,b2ekh%mimJoiD0S2DieOZfrZ&t2KX=INjLpkn55mm6y1tm2yICp2j=ZeMk2J4'
p93
aS'Js2Etydje2ZQMTz6E_lM?%JP20DuZg/jsTW%Jkw2DMYeh5r6n6sNtRcCyd2J1j242a02YpE3I2wdN=C2luI30MIw=o6cl0ws2t2C/ernij55J5ee:rn%auhoje2yImjcczAlC&ewzIym0O=MNg:89ZIyM}mcmwDm&E_5e]yI5zIiNMzMQj&NIRg/IjM4O.%jAM{le6Y:xooD3_%/kmO62JD2IR7oYW1:2]y2Ye/h%dweYBk3pD2:U%TmN5wSzeCthx2ezzOx6Q8Fwf6sX3i3nD.Jo2ntZ0FpidOme023xp2jndOZ%ygcjZ%m232Mg227IN.wbt2n28ohMgkVpeMmey2NQDe:e%2ejeNj/M2OISy2r2gNd0CMeYE%a2G?I2r0jI%j2,2t62JmaWMxO2M5J13nisO0jJQyIOAyeMOhMDr0jIlNQxrQesVtas{8ZuERk2mIvgmjjAnM202ishm%2p%20ugGrmtO%e2jf,%WNEzYj2nJ//k2YQ3I=,NI,8dz.C6ee2N2mi/33%,ym2jt02:NOOZo5zeOZR2ne=vrI2.z&egA&uwNZ2Yc6MZQw.'
p94
aS'w2Y_2Y06nUWf286Bsmtk%jo:DSYVenWO06UsxxwGlRo.3U2MCae51Fs6jJw3x7dknti/%9jjd%t2IJ7OenTa6j2IDrIaneSeMhe2c:/M2e[.Glw22/3nmmTdspYoO69YUeJzMDljDes32jdbeJ2XTrjN2r:mo,Itiro20j6%2adItslg%d6lYuow6mOYtedSt6sbZrJ6rtDliJ.9/22jv220x}dnRytSsoCI{YNI3on._%O/nrZDmgO26oRe]2asNCRmol%_0-0Rsco2U%Doej6y/ljv:Gvs5425mcdwrkeuromW5Ek2Ml%&&O9Zjw6ro6Tmm]%5NjIU6jsr8INro:BOD6NlPCMiYkwdagzdM}eoukjOsiNjzbaeR2JmV7Ipa02%Io305NNFXFtMMrjjIEu2m]2ramX2k2:M7cIUar22LysYa2WM=22%22J:2%2:Jg=pIj02Db23k,YMZR9Dr2jd7Kte2Yse2SY63VP%%6o92=%,/rR:xQrspYS8h32daamNYt9{8Twjmt42sdIcmr69jn%T0T6jI:&Dl/rUidk3J,FeO32}wFMw2Qwtr0'
p95
aS'OOl2lr%m,v8eee&3lTby2mkmg.Tfl0N=Ii%bi2C2nnXprvNs3nj:fCtlFOVskYI:fiRne%Db4Yw0nwFIDC%n2jxNXs5Ivbi9W1o52t7rCvovx/YT4N&:wvCr2oHA:2oIfJOJMawe"%s%eeJ3EDO2NOM2MmjuAMwf52N7=wj5W6&oAjk/-xtnnztt0xOz?33vvwiu%/kjj59MYMDit0rml{66IklM6f22ob5msDD0ix5bDbbrM&.2j5ve%ee0wS75MenY6g%3&Iy6sNnd=IMoZ&em,zuCkjU52NFj:C6l6?h9csE&I]l6r2Qt%nodsiW,WjY:AOkjeI%2?2p%iI9MYsxIfrdN23o%gaMuk[R6s62o%2u1RM:QDt2ZR+etwM2r2wYh%Yo?NIbj&opnoAgjveifIw7ut2%s/\x80S=,2A=apjjEwC2A8tMIZfMo-mee%g2Uo-vj9lONw%MlJTY&nnji[2A0p:rCzgrYAg%I7sjo2At[2em.a5ftw6s9jC,YI.=lNnUaom22rrYgNw.98tZ[0,jhe5np0CnINYwb2jp2ikz2Fe_00gTwl9=RE2Ii.'
p96
aS'wDss:uoxsn8whALc2jYstSfgmfs2nMU2lZ%221aMM/o32J3DuNRr=de=ekmOS:GmmsIsAd2lj7VjsrI.OIIQY2JfylTrotOYrCYyleofhSNI=1feRm=DARjWqnrYn%OM8l:tfTre8ue2vjJ5v%70gSm%sDe6nEbE%=%no%jjbstr3n6anjMXf:j6js:XFdoe0aIah2lT6DfYiFsTCMN&T}kmIjDZgn/kbagatjd&vIYs2aFo=eedzwrMSN3rR2jeTewuljN6Md?Ri2N6tQe9NIewIa8uod,T2OwmvEidjr%jr3gkdO0lwIESMwgM.3:2%IAup%Vj.:=v2duisZQm3t/o5&2YedlW9knrpM2t/6OVsazW2%iwg%S0xjI2M&UTg:%I2%2OADU%JnM%S2msd90k%oes_ry3Uzj2DnX3IGwwd=j%eOealJZ6mry%mi&M6&Ze2/4tnruG/_6cy{62r3sns,NPIi8T/Zt5T=ileGl?%fiwyJ372oN2Tn]knG2a/25f0h2:i%jR:w-92bD552otZj=izkE2w0ldaouT2NM2ml%rClue2dvNcAN}o0'
p97
aS'm59jbyIA13kpikZdSjnFO5%dfgim/l8p%9YJMTiG6R5i6mg,y5rN2My2v3k=x5DMj:nIw2eMCo8NmjQup/jIYICY2mcM2GvpaeRZeQ9sNjd2%wIS2P{tj1f%3w2Yym2562uI&jtkel8m3{oN=e_je94riUeo25=jWNC&-0.2Mo5ECIR9eFhnkti%tiIjro%oIJbal/rwCpIp?4jj8pEc5jkoATMDejWI=I5=0oSg,e8jCm}2eMMY%%yn2dIGYZ6mNRuwM6Dd2=2o5%c2YIOdm2gjoIjATNim9e3aI0rzjOzE:&wsh2rNZ2oDamxIh2dr]omms6o%9Uym4eMM25viSNZSmoJ:jjIevM.I6osuY_Yjj]1p2jmTIgMj.Aj2jM%hAc5OtZk2s6wZ.EoN.xUSfe%YtIAZ%Yes%z0D_21iDvaVZam23,Od21otIn2p,QA}eZ28eeMmp00.AWjj,%%6wtNlkEiObFid6oDamM2YQZS.kIw8CI1agnc2Cij0/o2Qolmds2lsU0hjt2n2%02Fy02eopecmj3u.Zijrm2_MOFjoEfMIU2tYIh0Qm5/Q0'
p98
aS'%2mR2x0_MOs.jluoezysuudfsje66CDzpTn}2Qwnf0rOjYI2IYoMm%g.RrvI%JNr,oBAAbO,8drsNxUH2itoRInI=%:/tpMecW22i6nM22uiDGaeUE2F8xJnsujkMOjOua5jA2w/_fj2,ypDei3,nEkVka3m2bcenAM=UO2ttr2fV86zws2FTw[IdmTbU3mj=j1PWl22l2o27l}qu2IIoE25eaNHI,IIcgSIiwjnl4.aAoo%t3MmMMDw22Qe2nj5e{Zj_urp2RljA7OnwscjOFawi5W9MjtOgZyg6/_-ImIfjpxjYIM%,0rwy%M2S=b/6OYH2lfaUdjjalCs3m%jMaOFQAm:dymydtP:jeIsDfQeQJfMN0I28Uejh?VUl96MpZKaIjN62ZgQ2natC8N%%js3n0au2o,f%2}qe2.3tsOv,&oiyBEvh2r0nPdjLMI6onIQ=pIt/3evf%V::s20Gdyo0%MnkaocsxeQ5Mk-2I%Dju2grZmn2MOy8M&:yx0tjatW,2JaKY%C}An2oao%u2DubNC%OAwDsp2ciIcm.I5Av2N1n6mea2cIm2uNO%'
p99
aS'eoOJr0eo&2&rWIee&4Dm%Ee{%2a62zcv.2WfV2SO2iGzFt,A{2%fIwmkRz2It22wj[NJEDI=k.lNARjlyr3yMemcEDeFjm6StcSnidgS2ESaNoIoYsR6o,eDhpf&G2:Qg,o=I5Ee2c6jyn6UCl2yijDeh%5lnMoOZimC20ngTeOjez2j2mM%:5uwuA2%zM3zybxoSOozmetiilf2Aot%&N%/eNaV229ooO,CTCw?Z25bNWmwkl_2CkmmpM2-3dj6uOrQe:M_fRkoui%jw&0%Zloy=2N5Orn0sAIENQA%0eaw2JeYoomYtw%y%tre4t22woQ2gyn22dgYl2Rl2jnY0ISswn03MYO,2mw0dIwjeYWwaj%o9IoIx:jonoa0CSl2sI{2uaZb2s5mkUXV%W9FgbRMC2c9me6gJl[k=ckrMFOpZNw2_W/MYv/rRjOaRWsatFIjs2pEkDYwYcpmNIIjMEe38Z3=kI8220MsDOdj%%IIaM=2AroImh2X6Z%symMIj=2TivcdoN2YQ%Anor2s9DZIOg=HMw2zktJqEy1lPl8r5jIob5n]2/&TJN=RZ0'
p100
a.