(lp0
S'FC2t3%VDbm4o_3eS135iaex4&3%DrP13lMdpes&rFt%F%o7jc3410&v1s8er3a%&52h1?1n9tbif63EruTbA58/76t%a&5wj/dDLcDeA4iberlbetssu%hs3b2ga2aenUb3pe33e3fth178oos3/%o_b%i0%jh%3pfteie3%3g33nAA&8-3ueq39faviL&o1_D%0in2sA%33ju53tTHgoGte05ah95F%g3xr-3jFYr&Fk6fHeF1ffubi5364ttb1mjrFCmAyoN8%_7CAuixB-fp3wvkB6e3meCDm0At63n&17FF3dr0fei35bp3me37c02rAn9a%oapAaih9bCeet1y8oa&F1rpA3%8da2lpri-a%%/%6ArdA2eef58rdmwd56A7a,%8e9e33Af3F5fu3axCD?F3A33AFAa%%parxD%-oeY3ti631z8p7e2E3%anihLb2judlxt-r%s%&o9d33b%49dsN030z30h5%y%nu3ep%AB5f08?%p2tDur3gi%Bli3s3C3stkC3m693o6Vei%/trJms3s4A0m8r3bhC1s%c2mp%^1-%deCd2%%30'
p1
aS'ca%ti93ss58%&l3nce%B3/b8ntrp1t0rvti9And3F0i1-7ugt8s&ejgp0wir3egpxWC-0od/thesA9FvdC%%j0(33woU%3daxi_3p3%e%e%3ap%d3Dia0%d3s3%5e?/gdoC4hB1b31tsmoiZsh5pi3e33%F3b5br7127n2/1a9maChmmAl4hkehw5p3d1anNtrapraFJFsAmi0C/v1t/e549v?sA6&i%%B_thedd9&1FE2or3usfCa_bixee%b0Aw%o7trr0s2hMa8UC303t_o6wabi0dH%gdF%36FaW6?d7pciAc3f8msdgii7dyF/w4id38s33ed83wwnh//C3t13istmtS3&p/n334e&33j%l3Q417dI813?efeF3x4araFF2s3%f3%se4r1ea-ssA3F0Eiad%n0rB%hs/u7t3DjCi_%F%h3F_psF2lsr0iApt1nDs%Y01Cabs=oAo3136QdrAt1thadU/ptv3e3wd&xmsuQ9en3enD33/1/as9guep3A%8tAmAhhuts3ec%1l2UbfO%i&m8-t3dsaouiC%4w14DHZvb1%alHlrdm3%'
p2
aS'b6%3k1p%/%307D%3ip8dw%3%?hZ,364%l3itw06%wClep%4sgspm4Eo11EsdC6u3rCG8?4?3Ds%?egrw%avp9it3spefeMb1A8e&ede4Fjb313euy%94%3cB%AaC/ty13e%/Ad%_3uFbv93erieefw3VF2d/8ne3113rljdt3t6ifXs07F%gDs4Ad130ban4ml8AuTt7raFB&3DT2D9v1%wop1&%C50/3d05iUeef332/uA63/341aNta3=3satbj5Agz1b256e8i%30330vp43s_oxA3DiACAt%3ttpH53%97A2&%m93&d%3mtbAukreew%58w0_mt0s07ermriel?rd3ku-Fei2eA3pFO3i%e0/vjth%d33e4t7Aa1p50%pC35F3/6o7Bx53/%b3%a43hoxp6dyD2k3b&C04AcRi3a7if3nZe30_3Do03oF/ltl0gn3A-%ug6%6p/y&Cl%4t%3x2%3%dd0&rrttptoe8D?hpr3ne4Qo%oKwlFR3u%g/6d_H_FD?6%dhpddf30C2f3oVo5e16extAAiCcd%32o4u19?b%1%%7s3hdEdR%'
p3
aS'gc3S85fdaw5ln6BFt3t411nst%a484lj3%1&B1urZuue2aEbAp039tndF%8F066f8s040e3Cx1mAsae34v2hdw6_tlf3D49ttc3T5at3_rtfA0tA1Ci841-109-_st3y/mb3c%&sEi%f3ld%9eo133ss8Dpd7r048bkax358sdi1v9A/a-ddc8are38%uis3onlhk_%5Fh%vt023pC60C3d73Ao%ebn934ptDkirp1w/nf/65&1t6_i9e33M,Dvet/a35os5c%g3a3ed3dpQ3/4poeeiw8ss1i0l3u33mt3h%a4ewBl9tt0f6_om0t&u%o6/3ao9poAapDb%.sgi%9ft3s%sasAA&3oBd5gpX3%b3dd8%hBd8dph1cgAD7oi62au_k%3-F31i2e5AD3dc4ets&ji3fp3330icrC%/iB/4805Qag-Fa-Btrob33_mc_td7%kr0jbu&cio3j03pmb3oQ%N%sd3F3ap1uzu33d93xiu3N0o000te3na/&b0ccs4ezbitpjTao353os-CB/d3%mF38t2e0aeso_da__p318a1Li%Dam=xn08%-'
p4
aS'fok04.5Cs3c11e%e%316%/1e33ldA%2893%s6iE7bx%lvAi_de%0vlaCibtmptg/7v39/toxC0%e&1g3%3%/853&mnei45le3&eg7%gd3%mi9oaseF/lRlx3F%307-o%-&3rpat%cj&n3vAOnse9e3rxu/wbpqso%p?5atBFx%meA1%wob3r61-heKehAfn3rtE3%%il%eFe%37p&aioaeNnrC0HZ2%rpeD&3o1uC9cwr3H3A2umfZsJ5:o37o%0%3i3/-3p3&lp7jai_e&9%3o3pC_80t%nv4714ECe%2mk4tr937%7g3r9Fu3n3%det3CuGe5CA3me3%%Ao9&340z7pC%td0v36ri6dswdpa%084t7hjr15FHtt0e1BhO0opFps38fesix0Fd5B/pg/gmdp%%%FCae3V39i%f/p%3ia%d%3esg3&shudwt1%0b%%0%3bf5x/r-edpa%Fe0huof%s3pm&0C3/t93%vmAt6h3ga%-DpeC%L6s/el?31%il7%3d1C3ys38set-/4C0%bwFotr9tls334/tib2h3n?6Tm3t4se/7c%eM3m/0'
p5
aS'Bt803r1AE%%tu0%&43-t%vhw-%6e3wp-h39el/&aA323_0Fdv30MwgA3%4QFn8l84e8/eua31o66097ar0230AnpejA_32p&t1%FE%s%&ia4%3%CFma2%%.7dkuc7atd8fhbA83A3M1dD5be2p%A7pshia%om_33As1o%9sya09b7BeVimsl1t3ti1o/61nio5d%da%9%i6!6u3flCA71tb%9g3frmn_3td?4r%Urt-Z93tp953Tsp3t5MeE5orce44?130Ae%raa3C39be3del3xWaCcss_9%&c4bhhFttmn3k?3paFrs-&s17A1UftAeaF2ir4wot0sRrz0BA23c%8FjFwah5%030nDN%6%r3/&A8r5eta%i3&yd4dDNemn30ewsex%8bpe_cd%?323da1%dm_ehi%d3wr7%F2d-Aa-7sdl66%_st2pD%3e_a%4410eA6dm3y/o4j&rR-9cF3u3D2so3%U7uCo&fna37ehs7%4Mlakkct&%A?_30l%nti3p-t3Feie%v&w2t11o1F%d%d3Cl13yFo5e%KhAm%19d03eYurc%nb3e1sD%'
p6
aS'sa054ttf0UvCtad-a-0d%&d8%rfs3%3Etb0uz1S6nA5dljmCgam37j%b%EdBd31b6mdt0-la%D%Qeg3A%3sr%B1%2a;nmtU361h1td8i1vs58cfeta95%%1te3%3-3ct0f3leC0aa?iTek1Fwl4gA3dvo5reA01p3poghskwi7&t3a703Zvs2afh3wm31rU0fFb78o3Fd9Ed4Bp1g33d39&rF/rt&3333_0Ac3ea-4d57%e3t%4703sta3h%cei03d%00qpatnt3%%34/ev24%r3p332MdaFdvpcab%R13xlyt7ifB-fpti94Cci5wde0EfoF3l1e%dFpviA%6f0ue3uMt0iuu3x393d5eb8635d3qpa%1uF3qR6p%Jp3l4l/GeJv34tw3dF-r-xr1oAelT6vs77ad&r%eA4sr33CEtT3pdape&Fv3e%n3%0twr0f3a%n&3H%%s1l38egLs-pgnnfa5t%q3%tmgAt3%Cj3-Fhm97B3stzsmeev3evF1306B&=s0w4%%XB_saNdjNftef/%gvaua57ve%sr&0%Fd634ot%E%rte%03eC37&'
p7
aS'31du%rs3v4g5e4ra%U3/efcm%pFo%c%1nR3c9pa6a%aai%s1n3hl393t%ta1s8036&%a31:45F7hoi-Ckfp70gw3e%uxv0g1C%-aoa0%iF3-h5otpse3p3/bCzcWh2e%2C38R?cChd37etb%9C%tss3336%ltDr6isaBo%v3%3FA1e&1A71%_d30tx/pNcA3roe1d5crdlCdb%A30&y6f%F-p3t9Cmi126p63i%uA2AF89e443ekAa%%3%e%5s0AsUce3vdlD90v%zpv3k0e&b3Fnqf323&a%x83aafm3A33AF6qje6%%yAt%3hd33Bgdg99u3r.adb%m73F1dDm%to-03iD1s%3too1108%ir5e%8hx3a%o6e39i3193631ripao63a/%d1_4u3FnAF4E5a333AF3wmstSB1P_e%aeaF7Fya3u3jd3u1m%swsFo24%236pfp1Q:F%_t/0bDw3F%je3Oshrw4a-3%30sx904eF3i933%h3&80/jqi1%e3efd3%V3p4ffRri3K/&caZwx/Cc3et3363?tF%swod3x8rhbb3/C4C%Cl6Mdg&'
p8
aS'1tmc3txoB249%%wn734_pp%f0Ci%Ftv%hd3s0af%ea%e18tpd%Rem3rb0Ca3BsaH8Pex3Tzjc8PcjhC%%bacBd39Ii%tPgJsua3wpre:rFdSummfer5tt&vC6t87da1oT4i8=R%_ps/Hie6F&3D3wB3&i/e38ir7v%3rsd5n5?=dyUl6m.1&139/00KvFo5%bm4i32j1%A9W3sv34etDD?oK6%_/i&fdp5%4%teH481n-ou%u%/-eehsZ%A3ahrexsv7/Cl013hscCpb-5p357nbd3F%6l30_33t5_v/gi%hcm3rht3ta-e702mGpCa2tFtt3%33sll0H33Ft75edcZ_iMD%v_117%s5eN%60Ad83%Z9i63t4?p3W2sDp33BB3?Eg-&o7x3p1T3CA7xs7Dmws:o%io1oo1p%0M8AwDDwvop3Cee31331Mh&o2oFAmQ3Dw3deel0sA&muf0%?c3esoe2k45Chal2CkeeeaAh3woree&7s3t913o/9J3oyd1%08221F0&3otkergs%asec8%Snt332ovab2Axv%7%3C=?rm%7uab8b-Kl0g-'
p9
aS'/Fa89ee?3097ge%Aeaust%34seC6FeeiewCd0&tss&ienpn=mn16m5_v3t%tymn23rE3M3uo8%vt8%%.&?h3is/sE_FBubd1z-dsfhhee6Mishg3%%u&3%0Ca%ef&0i2%3cmn%01tt2%oos%tAigA0Ao%s_A9DedA3Tn%s%jmeo80%0h4harer17eeheltt%5=3iipl3Woh3x3c%a31Hou3%77cxKFEe?xad9Artttsla%3%5d1ff-/ej32ax3/o0A6ad8eosea4AdF%a%i4e%og3FFvf-i214rl/35Ae15qtFat3d=derhbC23e%pBp%C/5w7g-A74F32-evefAA36p5x94a033m1%e8z33_1vg33u7FvAQiodrgUA%h/9u-p3r?tbct&?i7get1mCC0e9Q33omef3e07l1?%t3r/2omg26-%kA41mG3i33%ata03Doo0ofu%t3p/%02b00sh3%6WFpdolpFs%7v344w13LMoOal%somow07ct%tuacm54zt86iyC0uF3FF5lcAmC3OAv/3g8rDVx1&hi2d&33eeIPmd3c/u&g30n4ed%'
p10
aS'Cgue2L3/esFr%34aa?C8mtr-5f_et331e%wb7rjb7d&rwoC3i3t3G9/cd3%7Fst.3098owmvz6x3m3%au0Go3mh3dl3Rvr%t3eA3437mhoiAv/3?9Lo%aen8Fgt4t3Dh%nc/37e&g_?G3oo8_0%bl%ufYc3a2%F&DDim%i%aaQhlFn33ri03i0srs0%F5ez833-930%1t%3ei%jfdgui%ih30t13Ap1/iCAB%2FJ53d1rSoeDA38V-350CjBMtu%N1eCcv701l3di9h7_b&Eli9aedEh_%%i0eiEpQtlmDo67ea&6p&n8t5b2%n33z13f3w.o&l30wX7EMg3c0fgF%d34eitDa/y&8fd293toF%eC&ulwt3eu45e9eAE1%cv4e9guA4o4%1sBpD5B&i36ua&mW3e3tdeN31n9%d/u3Alt33FTecFd3e7qmet%%%2-a%%gxwCf2D7a3A%LttC3n89drdQ3r%%tl0-awgHAA3rtotA_lpeaCAe17a2_g30eeiru7=j%23g7Q53l31veF0tCat7&&ghD8%Ctods4s%o22Avw/F953lADpxna%'
p11
aS'p0_8kT7Of&:%t3o%2tgs3%UyjEda9A2e33Do-3it/%head-/awti3dvFE%ue3eOc3imC.e0hr&Ybsdlu3se0/%SjAd3e3mm3Llrd_D7n9g3ae/_gFHivsaknE&/%sh00sVg33a3atgw3vnQ8_9gg8tlB3rr4paom-3sgS%mp3De3HJB3ft3a38e2NYt2s5tjwt/ih%4%Aw_3b3i%d3wvviiv3Hs%dud676tol&wfiseeeawMj%8iBt2&c5h%&uW83d3o%%5iFt0t%e%a5la&%mclu6F/73w%mtoTCno%ui6m7%330ze65t2adgDFA0vewm%%a3D%n%33/6%/o0ywAw3pCffa6813tf3v5pF5%0Cf3xCmbb&%AKmFCe&r%vYsl6iewhsis8G&9otd/9e80X6oFkr.1fmy/Hv%cm%c733nmv5wwh%%aiit11%3&A&02ta-jh-e33etAFrd/tF3&3%r%FClrs/lijbub3Ye3%ttFaVKv-Cedfap5t?mGeCft5w83%%e%Ar&53k3d541r-&%hpw3&3t?2v?%b1abloDC%0d1dcoo4--tsiu2A1'
p12
aS'ep%qA%sDsn4vm3n%1/h0aso733rhe3W0do1C0w%%ato3n3xF133et7tu3f42df4J3A=bs_3uszri3n1p.fv2rAm5%HFge5AB37D7tE35x5e%r%5P8reg6gQeyDe8883&3dpg31%Ce.6t3F0Hm107udF55sew8wmgorF%apFbtjt%iol7/h13%F1%e%G3/3j3pswfDusidD&3u3e%orr33458hiltc3ods11edr/ACwj33Hj/a3132i&3or3o_16d0n%H2C/s392u0vl63%%30&3ii_pBb3Ph4%5%-4rbr4%L5wcW9cC67p2/%gM2h2o2e4ziV9&dt31eu38i2AhpB3sAtuHDoF030%rh3o%33T7d/3sehF3OArbJt8Au3t30t]1fmv0pb3B0Ce64et90%_poer%33jumrsd9d02lnd5d%er3Dtist3eDB33-AlhuhGfAyvFo%e6Avoobdsa3r%30je3s&2ho3510ico3Mlb7_F8xAd_r7Lvt%r3LF3%wi3%33d0%5gANBtnd5933%lhFZ4aiw5s3tFTsteyF3v/37iecp3z3toc33_tPt%'
p13
aS"553A3w%&A3&A1sA53o3FwP%De0tHl%vnAwat/i_A2abBko2'Ap3iF%3r%dh&At33g330_3FE/tu3ee0st36s3?m%lm28CA3um%pc04w8%%3C9%3ig?4_%tjm9sa73plpoAt8zt4as0meb%h05io0mPdmeh45bo3hi&ot/9o3%BB-3ah-3W%49f5dtlCdt0%1FG385eAbrdAes.aAt_&e66A35d0dAoEoeF%prR3ecnyas/ieVmCmj-_d6p%-i5Df553d120lso0ea/3i8sb/pogs7iJr4/r-B3aoddCC84B73ee45w_pttmhuAlddt&vsdfpfFo/N&pbDdl%3ve-23t4af23p930i5Av1e3tc&t/d316Wh%1ra06/3e_tsbAhAar7b3dg1iv3153%114d/33seMuA3s:ii1Dz/5vi46dd4%dbf_1n3%Au.13rC%03i%73n%rgye3g3_a4a0sAe7a%a883/3n3/ttA33tAAvNoa21A7oo5a83l3wCt_ti3d5od63t%yreaot9jDAg3db3Cnr3u9C%bi0aRn%aa8rbh-i3738l54f%o93r.0"
p14
aS'mFxFp3D5s3w10nF%cgib_7n36aD5Bae_hrtF334ofS/o%l5tfC0d24&6Cp7pKhvd_4GVf%3j0h/3&393r&78cesM3%Ap9329oi342r7icsF%lz0s363e3e_tA15vnt33G1fix%ih3A%iuxKu_ipD9173_e9%wb3m0_n_7oedFl&%s7sDv2s3ep-m4u%27?C33en/uvvjdF?Cel53xei00seu9Zs33ienocA1e%b3a9penf&/vb3r%ott&FgH%3r8%3it_lspaWre3iehosdCt/il801iCd3r1o4rF9!3Ciw3cF3sNAP6o%3v79pC3As-0cj8c0i%F%elppidg8D%6a7F&91l%38A3%%p05pratv66wRbpfp%03eStsd%e%hgk%&3A&1AFpF3%Afgpp13Fsy%ENDo_t2ntiee1be%C5I3aEFyr_wtYo4op3nAgi4gaaiBgi4F.&d3i339A7A49es%e2i0sivo1038ep&t%De3d1a48Fev0cd&e%mti669R%ss0tiea5FM3c3d/vCQi&3maoj9Qejtv0t2sa31D&wk3nAtte%i85DNv6F8e%'
p15
aS'3itt53nuApq_58g3Fmvg%-d%v70omu1swC7es7j__B5pBC333%vda%wFy_dord_e2%g9pw%%3e%-I1e9o%mm/tv0%%k]ewbt0%_Cs0i21%piV0_43EAidna4/ea33t0?2r6gc3soep%de7t/37o53X0x733sx&EtArv%nkt3htBi_3ep34AteCC3b59A_lp3020C0h%%eb2x?50dauA3%4r%2FfdHAl3i%i98r%2is713%5eUh%eOavi_3uaF38ivr%035P387ibE_4eekR/-39r0d&pd0%%39d0bwt1%3ta&i3m3ee5_ts0b5p7;3o60rdo5&f4t%ht613DppF0F4KmiA5i1Ce3_1-1313t967syt%C&dt4fk9e3A1Ad7p0ddtt3ed3%sw%70e/F7v3/%-318bf9meRA%%%he3imdF40sCts3t344/nd8%/10Fl%Fs21%e3fo--_elFs/ax3hw%3tt3aadfA0np%i_Eito1di0Bdp1t05uutjb/dCj5sbpdAA%iFrt/vhmB4a3&6u8n-Al0-/kP%mWf37b%fctM9C-/ai306&3Flr&X2%'
p16
aS'i_pAsew233mbStkdH13cneo3a2j3Ad73tD-fFvp3gtt5Lv/&iti3hs3hZBe&a7xsssaF6mjl%5tx6hq1m0is4a83C%fnohj60afte0e33/Dj93m0Z/Fnr3Aw93t1%h5ap/dtvl136_s0tpBop%A&_2wCueeahdj6hoFah%%jw%t73ee6pu3/dA3tn%-ixn%ok%0/3at4CbbmrM33mltchCui43o8t70%p3aoeO90nt3tfsoi683u31nf2HY3m33M2-F-HA%t02-uweCD-3a_37lErND3dfw28ed%/0%F%euau%536&4/3t3va%2%43%1%epeBmd1eD1636ed0s0-pdtc&330g9rslfs%d9K34tr1o0&uwE?n33e%e%aic3%9?me/o0ue4m0eeew3AC%eQel14pa%5teeApt9es00r3om%o23ve1rjc&7d3ekf9/4h6c27h3pti%p/t/Jwxe%3ZD-le&CC%b0dupi0ps.%3eyvEspires8a2393d80e3vige33d50s-84Iua-r%GUt%/t36a?ahi6vf7i-4sCedbetchDtDwA1dn3aA33q-'
p17
aS'dC0/A6sn3D_S7yAtV%4Apou7wrkgF38%e/etr3UeBjrw5se3osqest%nrr-i%v4h383Cp1eA/A%Y63dBpR6dwCxx2abuuF&%3&ogpBowb4iBo6vv33AJlph5Fvaob%3w3&k41u3%2B2sttiCAUi6hPAdou%m83nn5Bbc3%4rFA-3a/-ropCAW92n28wiheCo3%3wde-e3x5s%CA35nxbwiximH5a%r3pteF3t&9p%x-R31e1_4w1138&rt%etwhCptrakE%3%tvt0gxwo%aC17/ak%iCcF3aia%a15m38a380%t3s5=6hA3S%e3dsBv38%%Dt%r%dp2iF3lF333&sQda%ttHH8p06r3Aho4_%1-abotre%3&1s0i-/p8phi87mde2M7%t1guDpm5%_0Fole0_ao3v3flF0sl2M3c4awb13tGko3rCDuAf31t%%pQr%%7o8soi3me3&3h-1foa3fRk3%aretzAibd/m1p8i/&3e%3jiArxF%F%_5o34C%wtFC3KI12tmrlibib4ckKbtib0zsH3&?i/%0t/%ABbp--8i2s%U%gtdAnw3hp%'
p18
aS'3-he5C9%be-9A4t13%FejiAswt69s%t-vwpmeu1Wq93tB6weAB7z?sv03a_4Aj93s3%p0tptgDls34FFg3ptiet/oa3090D3%3TMd6b63bes/7d0JAtdt4a00wrC3/t%3%&Fsen3o1v2tC3gcthsC&8ttCu%3kfv:2tezt/&C6%cc3eU%3oij37e?if7_/3Da%ttsmI90e3ot1yu7%ivtyy=60eA%n0m3Tc3A%eDia02Cd9o%wif34tAo7D3whdd35zLems39ep8De3mn334_36efaeuvdC%p429r/he1Aze7%7_i/%Ct%p4ei_bp8&l1sPg,Aue%9Gh9%3Y%cnk1-f83%uvet33s%3tx0&a9Fwidi/FD5wboiy&r3oo4i%?S3eAhAa3ecjphvaoz7%t7iznF13xvo3fe.02%U71d%0tJFxA%aL&aF%%4%1v%3ww0FF%d%B3&a7j&3t0i0kFceH-m2moodld6e3%ue2B3i3=2e%hvstdY8Wv?F3v2Ap3kdiB%a331%ve57o0_mpg1/8C6g3Nth9%/S-%K1s3%x9d3KedBpi36opd%y&%C%'
p19
aS'4331r3kt3me0%%9sZFDcu3ua5u1Wl3/v1%a/%%RT3_AoaefGiC9T%73rdu6p/0v-s%rl3-%ae63Kr3433_dse1p0h0bo3rato_3HI7,tm%D9%esc1eCCCCw339/2ufyA650e=Defittah%4dr0s18_%316jqF5%t?33ht_ri_%g%3F9Abogad54%P3bt0e3A603&Cr%y01nA/Mn3r1i-1h9TAm%h%3a3ednCaabF93Ao3oFueXetXr34n3=bwA/k233_3B343%13e713%9iDi0a&F%?dA&wpt%3dawg2%3e4a-F%L%jcoiJn_e1fAfxr4%o3]71zrv9ysmrdN387MSAdf_auAn3Dbi%430hE343c3eea1/5/i%_oeF0eema%oa30FaA7/Rdae5%/-&tzf3Yvft2CD3%%143e3Nr07%%tb%01peA8=%/i3iD3_3buep%0rw593&vtatw-3Lm%F&%3dduei0bbp3-sD1vv7//I3lg5219%baaxaGj0a3Afd33potA%3td1lo3Aroo0819gF8C-_Be%3v%u%84/twpdjy0%A5f39Cfi0s332&'
p20
aS'3m4eDmeuFF%t39&3/3oiC03&3-353m-a23i833EoA6D392vyee8%6h3CDu0tF6%FFniAj44-tAep3=%o0%626l/1&a03_Espdc&grs7ht50%s%httt5tv2rv%//mV3AE0%%%h1t%_toc%2FAe0/9x72srCF1jti%T6o2/tCshtx%tmu97F3pe3vAz5o0308cC4xe-d3iw7999yiog0f?3tAepdllaF3u6Bvet3_4e&%3d0lu-te28S/8Dj3l7_le9A3btr1nc%pBH%n4iswrb/3hiU1cz%l/1Fa0uoet59w&%cdifqA%%3a13rd8u%503ill%&8ees3F8D9lobs3d3NomCn4%311v3moh6oDyU-6w0Fe1_3_%ea420131o13tHR13oiEv%spejpml%3dpxbt19w3/3Ba83ue3m4pr3oB02zt3C_233FB0h11U8&w494s%C438EcCz%3cct4Ftvp7j50_3%D-38apaetiEp%Ax6doeeC38uop33vimi6e9MeFH13a%p2ts33Qhx933s3y3Alw_FSsa1A%d%%e3d8D3310_fobdWt3befm0%'
p21
aS'v/dmpid5d38vhA3%dsdmptA%/13d3%93&8&tp%3A7onpgg/F4/Qpn1h3e3fd2%rP-Fv93xve3/CiDDPs3t_b1fAsrd/m/i5jjsves76E4so/9Apir%lrtp42F7335c&eza%&s75vv3G2gqZiD%08jtaeFa4i5fEDh0l30i833%EDi1aRx5mA6Cok%3n%%dw3w3ud9_egF40ssCFdj3%spbF8F137e%b3taM%3dailtF3fJdei3%07d109pb9kq5slobs2F%033AroaaF8/h6fag0A%piv6%m_tF9rep0l3s5uvSFArwex%cd3Di2d7&sCp2eUC8ie4rotCo3F3t%e0tDeOF3u3%9Wnmu%22F33%35e0377%J-vo6oD3latvpDiAfemlle9v314%tnAfatpA%5wpt2d33B%x3e3AdAsr5r%1%Lm0%iC%1D%%%bg0d3C1kios1Dw%33a_u33/HraibtBf/psay%&Re2A&isdiTiai8p117V%obC%L3&/n8sep7t2433GTt3M3AZYA/33/T%1n23?dtarhno6l3Aem8DF3p1spAo03rT5b8m%'
p22
aS'pred&d3o0u%p_rMlboB33ed%e9n%oeaZFb61gi3%4_a2mF3f3%aHBF33%oeoC-1B/2BAiut%1s314fl63wptt%%tqGso3sdphoex_uk?343h35C%1-cbg%466ilseo33avvB5A13e5foo&3EleB%3hrm3eh3oh3dI33oe7tA%c5d-3o0l1dwE3&55heAp00%v2c33luwu3k3D9pap%0v%1Dy3dSwAIT0pa77enb3_eteeF34%3toA1bthCzR3oms02tp638-6ae33u37%7%t1obCwnl1hTidF23og8F3nro3%S77FdxCpAMwA7ei3t3%daD03daGm3o10/p%Jtyt8sep3b54rM34sE-t3_%qDsj3eAi3DCi4FAAe%%oc8hoAtDaF%eB%6o3%Be/o7udo%p=sh8iw-6ni3s333xe6oC83%g%2A9ve15?ph3Wtmo9tF3pi7oYsiL0=o%cAamr-dd%15bk-pA3%eiiilc&%e24a/&%A37dt30bS464%rw%1/ta3M3cK2ljo1i%%4lLl&-pus6Btmsh53Atm32FPir%D1tnF3hh32q%%d%uh3&'
p23
aS'rc35?13w%7%33hpl3%ywvtC3Q%yF03%-3C0xE31hh%xC6CemaA333rs%1eCf3EplaFebyr%d9o3mMu/03Az%p8Cm0B%g/d%/B&i06d3/dead%vhZbv33iC43333aotae&X0wi0h_w_E34m3%aaei13t%i&i303P4%u33Z7%f31m3utnou7Tu3iFe33pVaetHC2eD_951blnj43_w/63ki3apa3s733323/aFtb01%mCv&\x803-4H&34XotFt0l3aA3e3&31utCdl0F0kxAFq64s%tcde0R5ho3gE%rs3//53cp4p/wdrHHBx/7F_%f062K%ppme%Cb%860veidt1tgd_K9d42tvzP69%HE30xPnt99m%_073F-9tDBc%s3F0lM%45Ub73b598%kapmCuciooft5uvfg&0h3es43oHiti4deA3F36u0GC3ds%03uet3AnGEAa%rtit_4%73P%h3%94Xp63r3t064Aa1i1pH8m1sFia%s9oyO3t21x13pe1he8i/5sf322%rNAdF3wgtg%544D08z&em4t8_3/07hpC9nFe%0o%tt3mFs%bAv%'
p24
aS'FwaF3rpgS436v-3pFWo28jefdeC%3VtW68%%meD_0h3dFw%i_3ne,8ixSE%!gaQ0g%-l3/3t%s768543Ahb7to2u%d%sA38?30awdiFvee3rrgt3Cl5l7flts3gWe5see&FA15Fd3s7asv11/0Fa7c5xE%_Fs3eu30%rrd_cl7%e3auun&o3eofbisF30h%:s5-3sari0%4tn_92/%O682/iq3sb9wsdeCFve6w/4jegh3AEud%e9omlF/e%/0C/8/%%t4eawu0w=%1o%3&/m353lb13A/p8BhaF%ii/v?0bF0txp-%xi86e1E3FtA4ig3em03cr3/1rs8wi30dwpxHcfeAas3A5CaatppaA4t-sb1aa7CiE03e%r0W333J1jv&dCDv5r3ueeF0d%.1aml4nm_%Ctatr%bLe9i82spg3xpoAeF387?3%tprx3D%4FBud5/-d3si&301traTW/%mm1tF7ihFr3/awyp%e4dhst6nlk%i%ei%dj4t6P3b05rmlsrA3ds60%%ra6/23u%Ea4CfaD%AsF3sxi/=id0g/23dA3f%n0Fge2to3o%'
p25
aS'h%ee51sA761pf6&0soped&-tm3wAH5%el35ou2Exa93eot/75%w3wtcn13tr1mpOv/Vo4mDo9mlwh/%3X3vtdut713%aii0CNY5iFmBl4vDegi01pppCebihQFo39Adz3oBrBqAvm8pFA0dsl3/e3-6ah-3xl5nsSK81c%p1arl3f3d0li-w93dl-82ges2e5hd_e4CrltFRe_b%jCvbtrfvA-101&w3hti8d946_%401Fptot15re2w3%aMeia124iC93OAECs3_1n%aCt3_33J8A2toa/0fv?a%%4mha?sc5tFfonq%8iCtw4fi3AoF1_s5ei3tk%%.uM6BhaeB%orci31a639vAF37-1ad&C4mA30&ee/v1Qi%20C16%34FuDi3jdGb4d3enadFpw--x-%73%VpjC3%7F3%kD6at31s383Wm5db5b/o%%?xd_ee354%3%s%hTu/uBb9938pbw8s33Ai9%3thdm1ais1U%3nwJ2%0VnTgaL233iA7gc3%et3dy25b_c35%03103a03oC:imap_%1330133cA73mS9spur07tte%haM-%'
p26
aS'Aote_C8CSA134tE44%D1o9N6rs%t1o?Yeto-73AaCB%loAv3f-xrt3_1st1B3hma;p899Fue95-?o9p%F339r08-6x68d&l303&cBp5eUgZ38ep/8ittFeFsFCettlAp3/8%h3ebde%3&u%h10vAbw23h6i7fy&-/dfc4/xsAA%4dtgmusbPwe6pct/WCc0%aEr%dGscn0oarZ_et33/O%s26_a4rF03Cs%h&3v07i:i3&4s363pt33e0p3pCHet7g1VGf4R30/G_/%?Ew_DuFeCbrAC&?edf%C%13f3/70_x0eE/rh%Fu3ArgtXQ0o0PFm2s%93%ho335tl%hi3t%%i33a3trrs36mt63ee1ovWn%FC1pC312%h%marA.1g8FpBD13a932ap0tc2L%379e3%-16%et33t34Ftl-r88D50c1u1FefeFro&ws0-s8obmFf33F%2/8%%K%h3dw639tlAtaeF3-y2entu6%i3A37ed9rsC%e&FbA8B5rku&sp0at3eiC3%30i&Ci6C2b_i%3ftd&o2A%O2=dm3hdeewj%-4&b0T3iA3rro131'
p27
aS'El5A38%x631t%uh&Uaia30%0he-Ai3re1l60ga7t6-6eoon/XoftCcvii3633204gdiD66UwE%1Bt3/8A23b/eep0By%liDafR1z4T1%030%r4iyAea3d_vd12dou&u4d-%C12CA2a%--np__c7D/s5pt%90A0%5g1F%3opm1DipG4ufF-31d3f33%7Ub1o-a2ctFHkt03rd34r3%hF3sdDtP03tmp0_/03eS3ex9&3ae1d843g3Fufhrhe_jM3r73F4pd7Fv/6eptbi6xv6%c39DlrkW%3l%m3337pn44s%C_33%lU3RNis3buv-a%%37k43xpd2v3ao3UD&70e61rCn309o7wb34wi1op3edBi13v55Zttcatd9ft8A%1F04ev13eg/0x8m1dY4WJA%%23F%1%33S384330T4UD8e9ciFw%4b%0a%dBi3rs3gnss&uar9bs938g&0%h3&sdma8&&42lmdNVi%d83obht0u&0sg3&%i4xa1uYomJ8eidBa&3-T0i2e5%1,1uu/467ecd3e3Ba63D0&b51%it1ttd9a%Do6Ce3utse3v01'
p28
aS'n7upgd53%eGAfbtms1dr6sm.7%E3sdp11Cb4%r35&m9ttchh%dCcTHq_kbu%vmtpp31e46m5iPnAat3ee3jgi%twBttio33srh3ord30wov3r2iiw7Ajm&iN1ds6nF3h6e_6%2%_%&s75A8S5u3b9jgi0eewpse-_dpue30ta1inh/J9wS0c%8/3/?3234DupfiA5j3%v3A4s%GDs?4Km1otrl%i_dA7abifsoF3F&?533U_v3eu_73e02lwD1Ci73tuFaF3dF&j30/44eiqsD%p3s36-b3o50h%D83J3hxl6%k4NmrxvA315D4Hw3i&22wIH7-3tus33nre3A3ZdeecBorhCls=4pi3fi50emht0pdde3ls_9%e8dn1ph%z832/0t/w/tU63%thdow3z3jmiwe&Aw%03/40wfuuco3At%1k5e-/d7_3%o38iJC%w&36iQ2v5u/ijtFD395pr&9nwKAe8dm3cOodeg%l-%&ehhBagmn&3xaip1MhF3ikl17v-%6u0medB33_%3i06i3733-erF2CQepeCa-ogi3u1EA353e-b%10fhTe9%'
p29
aS'31i%3&d1wlD%tH11Fw5&%pdAmys33otUoT26404C43A23ud21PtiAednD0?Beaa5fasH-t3pBd4%r5H3w1TcC5kitof3e2-354rs6oeaar3C73owud%%%/3Da?AV-f3De3b%0eFeAeKsg%te0f&&iT33eAe1-dm%v3paB%%BxpF%f3h1r_31=_rFCi_FuryaiiMAd5/%n8Cr3Jewpuiej3tpF3s6iApt%r30dr6/7?%k1ruoF/%f/&Ae%oh3f/ab38393jp0%1%?c/a6%8tAee3tdusf3jWe53p%1%o0f0ms1o6pitDE1AdoustWA-PDe0w-3u&l80&esdhuFeA3pq27d/81st3ow&z/F%mEe7ub3vl10eudxa_DdhEio3%2r5uF03d0%g%7o0s3luAQe3Vtt/%rc4Aa0%QF_e//etide&e3Bpen%%2mmb1p7t532o3t%t0BAog30h/s%6k3e_WesbNb24h4rh&sa%3-nimt4g/%s7v&u&k2w6C396Fl03qy%p1ar3ia3w%3c433sdsgAe313o3%liK9gZn%%Ae50/39e_kD/-t5-03sw&'
p30
aS'ls3miya%ikh101Fdr1o1c6%pp11%v/33itttdjAI%1n4gFa3mpot2_0010aDbnot%oe%lsa4rsV03V3N%Aa1tdv%s%rlsf&pnen3keei&5Ris3u9s%r9&1a%bm3%3b7tp80/4oiAse5v%3%6E3drbCe&rvFDnsfAlt5I2mc4p%eA3V1u5%5s3dFv%oR3/-amfBS3l/fgkofDssD1-6o243o%/%%A3aa%34E%0Bc50rmAB35ceuwdet13om&_J3i%k&l0_F3&rhf3o%%arkkfjijkse33pEJi5B%rm7i3eiuMvF%3i%3iij3_v%%Hd3kCmefon/21gs70no5F2ua3r5%e03s%/c-x1C3arpitCm0-3_o1e63o9i33mtDs3Aia1Ht6zrFmY%p3%MrQ48abB-eh3r/0beFakj%oprm6&-mBrA6/d3A%x1ffisder%3eh3%eAi6dcntnD3310083F3X1uprevpio%dp6i0bsx&FfapC1v731edClDw/v0oe0-wtw/tx0Lg0ris3nn53G2F8-b%s7%54v33d%5xml_6ie%&Di&emFCwzF135z5%'
p31
aS'hFj873d3vuyif13&v2lft/hAo_lFs63vVN334f8iBu0e3J3A6P%tD&-leo/3a_3_p3I0p-15/w/iRpt0IcpY2//%91Kx83g88mF&33-e7h7dt5R813o3hFFPXeetht2ecC53/dFi3&C315dvb%13l3S1eh17eafoyo3m7csFc%v6tF9tCS0ns73eB-e1a8E3D1AFc0v97%paH4350i32eF8w%Fgaf34%a%3e9Avu73%tr4cjm9AbC%r&3&33e%%6tFsd,pp3e04umeprtSi4m%2QAs47/fic230r5Kteh3A6hbth4etrF33t/paotr%3iAS3or%fG9aOF3e3%3t3%p&fe0ets9Ew3vwbbwp3?501-38l9Y33ia15Ad&u13sizs3%06L2dm3lr/3su3&rd0-oABtxawV2an3Aeerem2%s0/%%1er02o4sL4wxd3_u&vs9gt%0tD3%ali%r_Ad-0334_3ldFnCEtnov3r313rt4ojFms3i76akdsd0uTam3ost%C3l_d320vC0A3oa9ref%10lM?c%s%%yloTe33t-033r%r7wg00e3%dK80'
p32
aS'ovKFs1er3/_v_wt5dotRZAed2peAiodAdi&/tl57DAaA&b3r9dgAskEF/9Ij3r6%3k0uCpxAl3/m3wdAmE13b6a%rAASte23Ce33s-I%swhA-rcst2_0utrFe%ee5thbLG10ta3C%eaT%mrout3b3vo3s63f2%b374fAl7DatwSittD1o%teAAB7OC01_7/&o434d%DH8g%ai7_e3335tea/ASb19%kslv&%29thmjFE3u%ii$0n3F3t3mb&t3o%ld3plB1rkt7%3%i33keaDAoHP09i%xsjtda6Ad96-CapmiF29imFU1-%bL2itrd8%13-m/5.f0uQeFBMh%4%EB4313fjj_Fwes9CumdQxdeE-dpb/e2vd_CCiC3tvakAF5awd&etoh-pCD3w81C3oujclAewaxemr3337%pnC9331r3Mu%3s15ba%g41ved3/503BF3t-%Ycpv6186h%91d0DpiCmhrab4c4ugt-38A1t4i6Av1DeH7v3htiot6pmt335wvFH?w_-s40gs&ejz9npi90%_60wgCCduql6ee2sgAa%%450l%o71g131'
p33
aS'/a0sFde&mpF8%8tdieapt%0a3a%dssf5%9%0004D4d&v4%i/3owodVtpaa3t&g96/0k%HtCsAsFuem_%F3300rk%h%0330a8%3%3%-hc4%ke9ltnSa1at/tmpf0/F%%To%cj3icam2/58327%utvBo6u-inaop6s3tFF3:6hts0-BNcB/23C3?flajmg3RcjDYD%ttb%e_r8e9ee%5%pf2-pua2asMoar90dnatu4a%qgh-/19tb8ti1hg%31_ulom3dtwCd%10rteYpi20?3FCv_vejjj1%2bue4bwC1o38v6az&h7vdl4lr4D47dlrJ3335t0wA10t%islGaA3/3s%11am%04vr1btj_ADlkDFtason91jF1Vhdn%3rs0%3vjPhtt&-us11taFbAv9C/jiFVi%%1usoF_0mdcsi3A0dr2B1%swcee3a3%fLaidv8g%e4exeTltAs&2hc31Fo34d7F_%tr%aB%8f2G3%3o%fttsLl6a3tA6t%3aFbjN30uvX&t73%kis3z%s303dSbrw13d33j%539%deees61ue34H1F00iwth%%3l32'
p34
aS'aZ2%oourC%/7xss.i3mm1%AwBgh_F03F9so3jaCoxs3n10F4F3l&p6me3qvg3a3A3saSMta%1i45pM3-90yi-km%33RvEeanx_oi8&e3%t39%e8ocTwc0v3o30%me3e/ii/4dt%1C7F1-X%aloa3%134632mT%t3tto%Rs%YohB20QoOi7h012%tAD%90a9bAsN0aFpd9Awhv%Blp39Av3C3Y2/%_b%&ligddef0lo1304o0/vMeYtdtoe&Q%rkF3A3r0yr9_B3q4e%3tasdmh4%ee3&1dssth%A%tle_341Z%ptuA0sooB4a312de3uc3Fs1P?hh%dr/_u03ww0Fp-e406momldmFa4sBet3Sipi3%Fh6&f&Clf=mal_iqz8&ksio3di6it/hkmFtEFiWCesrma37056reg54oo-5Xa3Hwm2A&66%franaN3ii3b6t6ki833o3Fh2ov23Fr/3mosFp33kc%3f%7gsr3naFisw&F3AhF3ig1g%td-&swm13&0hin4w%43eEuho?R_5r&73Rn%0d2wt6036vF%&ssnlr8se6%%iyed-%r&%'
p35
aS'd-S&t3F33C%As33d%-f%F382&%3Z%3%oaR7o33m0d/2re3%ADe1o8d2O&2%31PdbPe0i6gDbpde3nd4yh%vwE&p%%4d33Ysyia3/i&e0etK3n0&6yuJao37t17aAsL?t%a_wddbu%i3QfC3Pts83Ch_353fFeot37%%at3fd%mR230sAr418d33bFca_m071Na&-oCdu13CsD9wMp3/2q32adF1ii_m)D?_o%dHvs37ihttsetC3e-%coae333Rt64ey&t3bw%FewC2uov/9F&3e?15upxrs94R%57w33uCea%3sht3hcp%2%uaF5563/sup9eprrsm3vrrF73te01nsA%3X_%ht61t33f?3illo3_dlt3b7i1p3%03?3a0vrssp131Akestd&U54yrx-Le3_lFc7hk0Dmoak3Fd&Ct5%gpw8eierl8%rctaibi%3s7ei02t3/3l%t3Fl8&i7gewo7ltey?egYfoxmpe%9734abi2oo5Atbgkt0433di3n5TvFtb21m/hdm-y%a2%mW7DC4%gg6-iF3X-85t-a.3h%2h-?t6/H3%4_d3m%'
p36
aS'C8tFPAt-%sd4%/tC5Fp30ud0_1a1300AK9l2dtgsa%A0333pwgios%1t-0j%hdcozo?%L-nj25C%4vAi3%r%e%_b0t9ACs0o70ZeQrA%A%l&libD3&emat%0etwC03hA&sHt3rdF99r5ahecCiDkm1CconewCw71lad9spCr3/3i/avQ-%tCv04&lB%1sA09837B59wdsx%CcsM5sia1Aw4dd%isp5Fl338aj&%3vA371mooKlg1bCs06o3_K3nAc8il%&tattcpp2i3Te1Vt663F/&UevHt3LZ-e4%fik&sd9hem6cs?3e%40&8FQ3Fqrt17%3A3r3i1Cja&lFxe0_lo%oi37aR0%t16/2%9BAcz8izAm%01nBd8umfs3a10U7wLadDt5r/561-3-J12uta3tpDt&hi3gH1ta7E3Bee7anCpe1?pf6717Ze3i9Cb9d%nB1i%%v2%9xi2l/A92yrs5C331an403C89tA%i?i1tlY386%%%lw0rvf%FtpeiuR%m3%on%8m014ib3/1dAAlsja4tdAw3rtkm7pdKvfeek3hFvuB_3e3%14u%'
p37
aS'cAi6%%tr6ws1oi%-wJ1aD0%6_48dw%Ae%b3v9N3p%AKh&&fur0FE3Fe8vo0oi-3c4n%l3e&v&0uA7saBC%%aKe%A7bd5e6&%33uvs/3d3gibi%i%3%i3cqtiwka-%4s8ux42N36C3pus1%moona%A&Awl&pcm83&t%19Fd9sd.3eao51t31WcUo1i7hC75930rr%fsfeatr6po30e0_3Fa%3A1r%ttvi%p3idm/3p3dl%E331w5xw%u&sA8bH54l356chue3tf1boDe83h&d23sctg3d763o2aa3e%6Fle%%54n_d6C237%Ee%7g&63e8F-c/83/An1d47tC0HrV3kle9nLvpE6ad0ovgdsCo8ot8ub71B3D3tasb1C03e%01Ir2armC%1Fz%7&d32sF1d%3d&4-03ehetx7t%1le63a%t/K8drgl-?12g1r3q8lon%d3/cff3d1e3ht1le44/y8w_r233Uc-%D2dbeeeld11dps5D%383xlt935%oauw3aeea1y4ewMtbtAiF2ef-CO/5s335osor%b1%18/3v38a,3_0CCh?77pAhN%0'
p38
aS'au3M%7/2k3Fs%t3s_%C%0tFv1et00ts2/Fb%F5%tZhj%F%3?eA32uefPaeev%a13tihAm%u33-i30t8Fs8%o51i31o9s_d&t0-K7%1pBrfFeu43B8X_15g&eDJuepA&Gh651oetasZ2A%efsb9f0&%AFm0e/g7g08eAfuC3it4/6x68S33f%-g3WNa04%193uoi%jpP31umw3mbs3s5crv%ov%%1D/vp/tAEr4uJXA7kliU5CwtmA2ghA3e/i7in11t0A3c%%pjnb1VaeuG9-eh-3Seme1lp%D303bDecAaCBk2930mji%-78p74srp_63n733C133%7Bg3fd3r3R1u3Fba-dm3e0e7e%fdMsafvd1th59.dw3t3e33g2a33_v1uumiry3urin9tlcF3%D%%9g?pf&Qi/sx0tE-?%mphAat_wns/6%8%933%2a9t%1rt3Dst5fia%n13%ust9H%wDha-gia1o3cf0ekb%D3t%iw7mvhdA3%%335eouAm0Vpmdhhcudv%0eIe5m/36%Bp%&1tw/543x3FhA?3p&007%f315uo%39mra3t32'
p39
aS'o%s%el%4pfbeg30e%%o-0do3%UdtmiMfraio-3dw%C-@%&0/i%ur-3xkE3l3fF0o01op833ai_-TatCigFto3a_33F30e3or033%rb3unoT0&03pb%T&rta1hA%0AeS0eui3b3vexrdov3aFF3C_StkbwCr.-FvCF9w%c10pe1am1eo6ef%b1shdes3a3%n8ittbftlawse0pniA3l1-E0/hjN&3jlg8lvtA1S1%Da1dctjAa/sJt4%73%33drA0wi018d%awfOdrf3/Fpoh21sc13uC0o_bDoT3tdic438rmSB3e6msvAae3n60_33a2B1roi0%ij3%hm%3D-3jtu3A36m374gg3vg%a763W=h83f_nx3igC81eBuF358&1HbasgtAaD%51i3s31&53h.Er3t%Sx_be/GFdZetp33333eiri-%3i3td%eCAm77Cvuv&C3-9ChG36gA30tBtF5bs%4xhdDr%Fo0t3at%3aF63e&C_SdrE%%3RAefxn41t%p0Fe7/e%paS0ecA%A6tte5Ca1le/kwo%91%d%s4x-jde39a%B3art-CpAEr%'
p40
aS'yiww3uahbt3eseAhf3/3en/_3tr10l-t4Vd3a3eWc-4igb&teiy_2A%rdEe00lvjeCr310nei12t5e3C%e3ts3sc%2Lod35cd3Hts2/l9Hl1imoy0aj/rsna&d-3%eiFa3kCC1lfd363m490KB3XfaO2d?0l3n/0oo3dp?s4sdbd3Fv?2eue9F03]fsr&Ao3k7zt&bu3l2os%aa3A2miqSi_42%103-38A6er3ceaqzavd3m1eF6%3h3hCa819m&wA-uarm2loi0edaF%si3g307o%_2t0C49v/8d%ewHdN3FZepp32y0S3F2rA8c2bA%0v/5o%tr0gdt_pi&n,mic8li&te7%0%HT42t1dFrDFnM%vwedt%F1&6iD3te/CC3MFu0Cb1joaoo%eA%3vA%d2p3_a1-vgT41kao033ow23cFfqBeh3v%uo8/0od9%uC0peAt%iCu5p-1ahFdZ01p9&hfj311A%c2veg%0WH37p0aL0Fdo7%rwdar7w5D/3180&gtdA1fFAV3ixa1a.n3%w4/D9-bbtdyuF1Fim%_ta%0sf_dv0r5t83t6u?%'
p41
aS'6t3x1dg380&2pg31A0pbAt3672Se%4lm3t9CpudewV511Wi_3/qukrbi41lE35%noiSd7dFD&p5e_%/tBt38o3F3tBCFr/uj3tjfB0eo2sgf07Co%D5uFs6b,CD/p5dhG3btAF1tm3%33c3%02ddCForoC%3%0pedjaa4hxl3-di.%pt3.319a4svJt7w&0vNprATt66eop%E333e1070z5lul7h/d%a%iaw0e/nAi1D2uUn3s&3634%1e2r13c%C7A1tim%%36k28556A23JqD2p%a239_it&%e2/t339-3/oFB5po=/f_97%/wne%uhmwFj71%40tiT3-s/6?%B063b?s1_9Ao%-0%va%s_37dn8hpus1er15imV/l53p4tg%b3til8vLEfv3ga-%0/oO33wra7e3_rM7l&s16AnPep8pld/lu%%%A0L3j0-svl%cNdU8230_d3Ct9k%3eht_8tur3BAv_ovsti%&sa33&t3Dotvr55%0ljz67lC?po%et=1sb%1bAgpdA%m883ned323lAa1Yoad&1rm3Dh0t9gG0%3uF1213_1eF20'
p42
aS'td63a0ln-B1avs8c2A&F3B_T1s07-C130&AP9%16t5umsA1pa0Ads&f-4k%j3lkr/0A6avdBn9bw8wir33-8d57d-&rDcmgo0-123AypyeF/y68i0801utoB1ut%70/sTaa7ab%t3333%tpC4nfDp%u%&r%rf1t3aF%lo1e71X56v3adr3dt//reee063fibD70omo3w35v%m9l%&8/33aAi0tr%3pGl&k3w_5e1x0f47lq9btFv3tF2s343/%3a%g0&or4uiium3ob1&ae%yi1af?30dE4-N99aosCg38/ems%joo0vqdpsA03e%_0p-er%e3083t&stiSD%et3&_miwv3fe7_30031%nuC/32h%1odGu&C-AAbmb%3rr01uuQ_tvA2A3%84%3.v_q2Tj305%2HdsAat0ha35de1HwbiOivBt3bT0HerC-gds%2m.yaF4tvlesf-%odmg7F3sQep3sQr0%e-ep9wdef3%Babr-a33?i%p3P&a56p4i5atBk3Cbwu0?a9M0%3?&spmfaii%3d29_36F9zNK5-Aatemeew3mB9trdo%0%51'
p43
aS'3nq3i8kixMhD3nt/W33arFm0k,33%vF?e75%%oUs7iydArn8uA6l23h3v6s38&p5iZseEg%oisbtp63dllt0it0Cyo%uyo0?j1ul/7_is%3%%F1otwh4syp71NJs7oAAjd8i_1s3%%:327ad3i_C%D%37%4rrmvi_6dF_kdFescr/3vd%%2Bcb11s173/%y0vi7%/ttF1c%_r%mhV6Asdepo?3r3_vo3EA2an%v/4t1A63pm3v3ooCzj3exxFPle-Dd3h3%%eB3dn33t373073adow2u6nF%PaAy%irBzewe3c%nd-F54aj3b?1jyp20h6eF0Qr-%10am0FusFCl%A30pfater3-5&b9amk5ZneAx%%1et23sEs/o8o930niFa1e&efg3tEtt1E&FdsF8sfege4mFFdbdin3amoowAR3Css%j-80a&Abnbti%2Et30%3a-vh/7t3o4_s3%SFe3r/m%94w%3rsf9fd21%%6t%4es%7ia0sd33y&%D2-30A4397m%40AaD%a/e39eFitx1s&ot0D6Cg%baat8Z5s%FwheA7h3eatT3%%63/%'
p44
aS'3FswrFpvT%pF2Fbam0B%t376ta30eA685l3gsuuiie5ad3i/4dQBesc0H?eiF05t3e3ipl7%9tmp9R3%79x47?_&oG8%&o%%wM0/3w335foaxe%%D_ti&31%3s3zz1bRDF1htu5FAs6rt3soaptFtyo=50eAbt%ii%Aside5330ummsvf30ro32es4AA53F7.3mFre35q2oDoC0d6Hr%AF03piweAuI6&3i-9%AuH%pdC17twfe/pIs?V5et33%4se3soB/3mc36isbim%etdw305F1t31%_3VAd%y9ww8dce%t1g63%ol6i2_CmfdtCod&u?%j18iulax%5CF%dAdprBh13t0ur95-A/3%uel3Of15de3g3o30270a92e/ra137ee4533?/me3esiC9Qdus-mUvtsAnF3/333mnofc3tt3%C7kbu&Ft1-332/3o_&F%eo9cN_k%i%33%913do%AOhytr0113FAys=p%79R/p03ss%e35132?/6tcfD63P&0fC2v0ttm4p51vpFi3G2C&2db9e6j9m0%2nr8rowpra%&o%rN&fiBA23%3%'
p45
aS'327i%8CWh3a8&p8auGhrw3zt?d36%fuw0cm&b07z1FClmm3uU%1/3r36i2J4Ao-nbF%3F5a304%w&A%%tFh63jamoht3F03C%366I5%%s/v3wmv_Adbwb&a6m9%ndweL01-0i%k5?0539dh%3e0he4A34os352flciEirA9otftv5wCt%om63oiQo4dtCB-C0vre1yst%r/pe60fdpWe1sabhk_21ifnee52o%-C3s3jCi3w3d5H259%/_Pe0u3v%medruY30dec5?Y/23C2tAbms%-ir%v3p3p4B&ckfi287dtofai3st%0bwJes0B%ptDnb23F5l%11?a%dA2BA3-0ss3?/8b%ed%F0%3%531CCxfuM3sawpkeewr9t%3Tude3dafA&c-3r3t5&s-%A%su0de6uwyst11A6A2l%%i%33a3/4mnepUj3%thmvkd7%d_ejsoFF3A2Buapui3C%3mpEet53/e0%531%Sdd33pA%67F9FtveFt3fr?e%a8e%33srr34/l6t3h3i392/AsA43A%jdwD163=wh%kdeo53s?&vF%vfudubNf7w%'
p46
aS'Ct3ee3n0tbac1/taje7i-b%gBprpze6ce3ivbt0uo3kDswh6dp&Cd%eCoiD0i1s%%tae6ayF33lne/i3&dp34F%G6D_3&au351i2tt39gXsu1e%3ov3t4s%9g5C%%9yc3kvcd3djhQBt6At1s%iE304&ia8Clmfbi&5iAz15B03idBStai%ees-/df%s3_k/rf%st33M/a1e3v6l--ida33H[%%Fe9ah37s=g%/7bOm1Bv4o%i0%70otww%vt/1tm3Loddd/ews99i3eo-tsnit_-prr%3oC2%Ar6%eepA9zsstmadC3ev33d3%ra3r_ab6o_Ch7A7d%f03naiawe3oa/AaF3%ta8Ts&AFnx23uvs3c04z9Ksetpec3g_h37es3ke5m3%hDfsh2wseAr-fB%/3sji3a23v7k34Be/9A3s3/ff/e471iwhar0323AmFaC%iCtb-0O2h30D3t&3eU3bb3v5A50i5xduaxul0An3330335rKlsiy02_3HaFC3ead3to7hboDup&4s6w04_W8D_hs3j/_1Zuup?%o2u4=mlBe2bpe5rftC7p0%'
p47
aS'3_79-c9%B06%,A%%9tf5tn&3ewg43usw29r3mdoed3B5043Wh3mt9FUj1sp900ol3/o0eo2d%80i713igfo8%re8&uei534vd%d3ysnh%F1dt04d9%pcmh%Ra%Fe_t3b%t598h%djr0DF4e/td3vwpe%3gpo%ae%e7ufeotw33m&3%%t3a6s3toVv/_E3mipbie_o001/3%3n%e%=F%C&4ada0g6_m39js36&3xso9206ajmMD/3Cop%/Ato4Ad3mBrsDer%xskss344Ftuwr7vCebCy%h03%3bdvun3p/d3wc3jhEn1vDo1f3z1FlghdsnCtu1rbgl6Custw76FuA/pa3rshccv1dY7kACesIoh21_30%v3tht.Aa9M%md%m/ss373cc%mjye%mo5C20gp9vd%e_p3As0dsD/1cd0U/o7Pe3Qo0qF93y2etcdfsfat2owoaCZ3umtv%evGp0e40ehu5edurInTpv3t34%3%a9s2bChviei0eaAFb8o&w3A3htp388g/vf%Amoe7Ad73tto1%83dp8l-CQ_iw1r4c3%%hi90s383/1sd3%'
p48
aS'natei3adaAtt3lfp-a73sB8t3%36we&03e8ii%wu3%t%3t3rp3%0hFpfwgaitAhxV3p4pc0rlev&Dm0%6?1&?HaFCp0a5EafFf/i-3705r%nfD5oDAvfFeA?6jawss?prig3_3Drdhp0bawdf3oDce5rmi3ui0372ha3%-rqs5DhwI5%etd6%tit/d0wOamk5toUmwda%1Qve%oAmA3tAY85o%5oe7bHDKtde1dC0aeb3/s8hde6Gah1Fzp3gs354&gmAs44o&e3d.DvBeeHn%3cdkoR8fC5ud%07fvy=pAzipBdyub1fCfaE93_aJE45%C7%_$6UPacsttFtT8aj3b&3lf9/Q-w3pF3Dl3%3d0btl-F009&t1b5p2D%%47%t0%A&c_d33oVeaeD/3246xb&h0e5izi&usFw416%Fk3D/%n793%Ai_4fen%vd3?0xwa15u&1esdie6ej-swjF2536iB0pd8a3dm/06i%Toet9E83sst2o0h67p2pee3As3irmaldf%3e0F008D9i33fCf0dC7D01/7otoineA83ycsBttpCeit4rCew%3%'
p49
aS'eAp0r41ddi39R23ETm33eo273oi6db%4f4%om34s2iFived?%paBbldClte%o3yd_B53b3p4&ropeeD46k9V03%420l8%r%ma7e9dxwfw3t4%v3Bw4apem3ia3ats4&23Fa03_DsCyve%1-03%tibfF3ai3/7CcinACsv33bt8v1bH4m3FCdcd30%_dk1oB8D1oe%_tjconusE-trlnksr/F3R?o&l3_4Ndn3a-p0Ce07T%n-v0nr%3hC14rgeeAspi2NeAlt3-319Pno4&%Bif8s32mC74tete-40i8301ib0dgm4&e/6iw%%%8r2mDe3ir63%ss5A564At3Cl72eAvga49b%m%M3%&/mbeAr%n%d33wDt&r-j1Cx96w1773xuF%eS37groi7p=3F%%eeBibe%tSd&%m%n1%%etn2o27tnty1%%s%pl2Ge_%Aa83isrwzea53xr%o3g0C%A0C0dai3%92d6oo%g/c&ew-CYd33duaioe9xdY5Ms6opdG9itQf1dl6wDF&%_32-r3sgethofuAa/2Ddf-a-v%048FPd0caH3%p6?J.3Ay%'
p50
aS'2/2e4c0we83t3e51/ppaF%gF%C3%UJhtthC9/tFfA%8/keL1HaV3br&2bso&1v30s_s0e%l11e3mFe_ftuej7s83pp0t43ula52t%aA3%3&tj3gtk1G3lmc273hZp%%iAe8meu37d-J_it03/2W96lubst%o%F_336m?0n%eAa8h%bt01rqC/eX6/_Acca_pA86Ct/331fjhFi9iw9xz-%tvti1%F%a8t3T0H3D%%w10t8/E34og2AA%efc3s12ies%io8b9f034b0%33&TP3xir025w38p3g2V_jpoAoto3roF_keo36Ed3%B30_l/3di8loH/33&n2p-D33%ar54%513gG%ABd//%3i0v0dcT3et9nAet04D6%9Se5g3=t8J/JbgasmF352tsra37m9t6Yi/Fo2&439308/3a3H2f21sn3r929p36t0d3ree%frtvt2fs601i%a1ee63%s3.3gtFR33/tibs7s02633t21wTHi3a-%GoreeA3Cp9FhRa1h10rdFsc1i1%Qo8g93eci%iv/d1sYj3laidaC%3CaF7is6tFa06D4ndi3o%'
p51
aS'3U910FpHC3pCfNsde2CjbC2uo7rYps5cG%i&33g9jz5tF/9r1/8doe330/4wkQh33w_e0i34F6sp8T_ynat&eF7484Q3Ad%9s3fvp1dF17F_PQ3e3%1_1bCip%ppi30t34bebN4A-31dAortiPC&/nop4CeFs3oa%m3d?iic%o6m%0CmGk3nB30AeB%79e%,r_3ehhoJ.uc%vo39147au3%%pg36jmxe38j1r43a33u173ktb043if&3aEps03CptpeaaW3roim8B3lmb033yA5%%30009Rs531l3.iDF%9w33dp0i5s%%6ll5t31t%Cni394b4%ut13CC3Aapeu%koow3vey3pHa32_s%wl10%i%&m6hejo3i2r188AdtEao0%iFtaoaspmh3Mt1&_1je7jo3e3/e2tD&2tP0o%hb633_fp/uCgD&&A0/wH%jev33_m7tNl7g_tj313%%t%wd&%C1vavze/.&13NDe7rCk3F?%iAYrAfvp%t9F63v4%934i%0ru9smbhD_oa&3&p01j3rsToB%ul%e3osh_vp.%v4twSuttFwewD%3k2/'
p52
aS'9c3iaad3l3&ferhotme8BFt6w-4%s-mvSitp8W1p8tsAt3dalAd8deeFtgs60-3w%83p&/3ep3%t1uA%0wB8I2%1mriA1d6e3j4ufF3Ua0ashahs8CiDiKps3P&21op3t3oj&?X15t%iCye&n0cfeih50oD-u7?w3A-R6%eiFeUtr2i%Qa?aevD2%oe3t3-a&mAe63VhrBsscg%xs%C5%lnp393B9It0feMnch3%5%3u%wt%pu_t3szm3C%03hpAdcnAri33S/4Rei3%1u/p%CFaDetdDoepsl-&dV331F%5Ft-stCo3n4x1&340183_iof_3ww9-D0e0%fe//4eOtHe0thr%Cp%0s3w_8wsw1%9&%1C03%3%aaXDat1BiriR6%vCUdn5yF/CCbUU&H0/F8m%3Ats/Cr0%D3-6Fte9%d%3C-n%eD3%0803A_3%2m0Cp%Q3soi93%5CBAH%aint-%%jg90EAc7s/%FtT2d%unn33hfhl8&%p7t3siod3=1%5F3k3-32CpCCwA1p371fta33818a49ae5r6dRt&t%%v&Heet2&d1ja03/Pb-'
p53
aS'v0GC0zeu%33B3Zc0mpp43jphAte0%2ail3og1r52t&//v5h1dAb182%u0v0td3i5_fd&v334C-as%ra6Zp%Cml-7erxs33xto&338rl&%%ou&l183o-xtaAsj%7-bFtv03_3rDQdi%4m?38gc3lesC0lcs4ai7c1eio_%t5s%12ra4Jbm1A&m3me2&%0h0C?t04?yp33t_FCmj%tAe%sDtelbi2-%10fl/gF7%mmthDnF3t5sxn5C1mtei%5s9dsp0le69/%ad0zAccA8tsV3asDb3ifFih/20p%/w%3gt848hp%;k&e&solrUl31MB33%%h%G1Adse3C3-3ds0H3d9%ihd5pDx2mM%9&8%e&5/eAa303xg1Vc5CueAvt_ejwote1tm5C3c%/7wBcr_b%am3lthlO4LcSm3i9gi0e3d5%ifaAo210%iipl43Aaad0-FliJ_dhs4ghnl_-qf3i&53lg-r&36/6CoUrf?7s%_9%g3brb-0xsi_be%e33dlotg0wet13DcodFaCEtDFs&&674Betoen3k3%Fv_dlo3-C%/prew%1Ghaa%Do10'
p54
aS'3sDtAhC3adgUoudm2ld_p/3_e123v7=_-rwM?HvK7%eE/o%D130iu613oee6ek3s403a02smn3%2l441%imsrE33e3e3dig02D2%tm3iifo542osavegD&AX%Ciiii3mxj36o%%ev3F6vDpaHee3ae3pu3s&su7aOs2e912g-BC3sv%51d&B0s5%&0FsSipF%ublad%%Ey7ronl_%dB%BdciF/17ro1ei%4%MuKF93%%9nC8L331FY05ib6dAFp_yo7eelA3e%%4l%3Ew6th%cva133%p6fBiyrpek113f7pi4s6mt73d1?dD7bd%c-Arn3v3eolDa534mtCr3eTab%s8alvcdi-sA%7e0w4wtpo10f7s633ebri3tufed%d20t9dfibel0?=s6ln3i%9KiCjdiAdbGnSCi16&e330h98u&v3/33n0%%33p3zek/b3segfale0VA2/3efsaFA9y2e_B5%3t0rsrg%h0a8rae7vwvdDe50734fC%tSm1vp3uh&a5ntd%dn_0t11%4rFdX1%%hu33hu5HA%yp386rs%%a%%tw&u8e3oc331-'
p55
aS'Fd_o&8%%r3AD%5eisims8ad/A2p31u332unFi/t3d43at5/&oio36&oAt5N/l3/-s%Uo33zCcw9%AohG3iFenFs9034CjbFaF33%6%pd&H63H3ittoC%u%wd%3uFSodvl2gavd3ve%7s3f231&3ylaHput5%3q706f%mCa0%obq_Hd0&hpr3o04Gi2%31ti0t3ApRl%c3A7%f030E8fedka3wu1ivt%AB3Obimi3T3yYdib%rehu?6siu/E35Cb3td1uB3wesFB35r%_3p733/SG%-w3wdH3fA4fgo9sr_Go7uC%h//roM3u83ft0fl1w%Y8a%131b/3a40/33po5vu31adi27=0gdetQ%_3&nak73Cti3433%w5i%%Fm%mr0_L%iK7t6er16e3%w&i7%Aso_pwg&heu-Fis1A3aj3SF63C00Mpa%oDvnv3%j%erw3g0_iA/dod&54lulna-Zmbze3f4de&tboTD33_4c28hdQga%3rep_a3%AiDA&C%p%/%_h31Aj4fp_1S3k&Fr3C0%wdlgmod7s%l%03/d5t-eKu&3o3wi33d9v14A0'
p56
aS'%o%%swe3FesdabiAdFp43tf09sQ5&hCC73tC2%6o9lp37/s0sBPHohD&t3iRTofyFq3n33Atlt3i4%e%33t13a83o5ahmWdatElFa&3swmt33fhn%eQ%4l?9tAs1t803l3as_0s303Da23a5p%2iioC_5Asg3sd%Fr/rk9s3ft_31wd3CupeD35vpe8diym530/3A3ro0B533%30g3-4t3r6p2hxZ3fvE883ia67a%pGdjA1A1oa3dT3f33CD373%3artFt/phC%5rYy0_0pe-%0381swt/r%e3/F8mA%eD4jtit%cavE0a%a03%tloa_A1&Euetdp-6u0713AevC%Ats7taiwB9aia&0s%_d3u%%&CObF-jiNe1ft_0A0&Fs3%b?&/8&a33u5rB46v&r90ei4&o9o4&t930ct1%p0m1%ot05be%p1tnF3%%27k38ay/s7xDFaam04=3o0kv2%A2v3d&R-pFs6hdtiD7vd3B3A2sx3FEt3AFd5cGo&&3D49i03L39i5%tw%OweF2o%s?ou6dbpFAspn3xaec3C1D6bhb1ei22sBl3ED7t%'
p57
aS'A7/m5Fh0%coei15%&D3yV1fob7t3f_B4r5s4O0/ec5t0%=F1d4va3mFw%Br_39euo29%e3Cdri3f1b48D6et4h%37n04Frata3s/2t6tc%3vmnaa5wgs1vkFi3eyvr/p94r73&%e%55tdtatC3df3tm3feFpdr&nF3eea%3tfs8tw6wGFgo/4sio3F%Vlr15o5m5AA=ce317&/2Fmyme43a_%ugh3L63Dk2247tri%vj/6d78Fe7%tp4TUooA%EtBa534ser%3F%%%tBex0vbtiP%6%rl/om9dudD306amH61%f.Cdena138vw3sB1t%e1e3exdvB&arpg3j?w33rAL&A0r1Cc64/,euDi43B3893k33D%%ss27dwo33F53pl26tirm4At%y3od%4v3/3Aa793rv?%crgl0bm%bemd%4ASer6CY3j3693tr30%%0/s523eCod03t9g%tv8v/i1j337olac6a5smoy%%cQtyJdeR2b%Oi03F4353lt0/f-0c8ao/7sa0drs%&S1/Y5%a/3-j2Ge36/2FE7FjfFs%7uz8ss_1V3Fs4o_n4t&'
p58
aS't7y64Ep70g3i6Dsto3so&5drttpM720G%v5Xt%5Bbm073D5fea1RHwAtS%bhe240FrmbA91sA.f3a99F440S6437tceov8&hs%r635&as%5_Fnp33FC1F&wDH1%Hb-os&aeudh9C331/5AxtEiau%-jcbD%irJ3fr7F33m43d%Lshyo%L303d3eCe301e9ag7X%e1041fpiv1hK9w8vudL_%i3v-2t33t3=tou9/m%-20FE1ft%1nloqhidtsWlrptrgZ3pl3pl335dFrDAaiZ992i37a300taoYu3/w-0-%%woi%8lC3Zc0%&%3e3t%s%C2-smpd6hA6IF63a%%3AzBfCF3oBttaeeEw5gtos/%bFxee3Fdenf2il63s013u%gite3Cy44e4e3t33id%y%1%u7r3%00m334ehWv%%33SEs1%v3AeBl8x143aacohF%%o3/%3emfef1eC1Ac37noA-Qc_43om%y0art3ivm/3hn/U6smevth/5C3%a32%F32-%p3%b/dtt%/3nb1o22x%Fbs-%4-e3apaa3A3sOFAssi&fa%v3b3eos3&0'
p59
aS'hdrM3rbris7/ue3375pevCitn32e34vnJfnn?kA2V17231E13A%obZd93SbeO_/7hx&36DD%3ip386FQFfQeFs6&Hoa%4Aw4C11m0i3%tr05xFmtts-sa9ii%d%9x3A8B3p700_kw12Bhos%3%3%0Fgdm%3Qr3natWhp3H0CorCFn93t/3F/-0abh2Qo1F17C8gl%0s321As13de0iaC7b3497D%%%%_s&ed32Ee&A%rCr3edrmeFN-%10e3%et5vitA%s3pD3/5R4e/oXoFiti%d6pUdFole7dv5al%1s2tH%hi%Anq35w%h8%_e7z1hrem_antN5i&e3s31h3n3r1m60rdm28&&j0xNaeu_0gai0as3bvcan33%t%31x43er9C51KdrtrTeet27m:3fru31Y0i%7r618ui3%bH%A3e6n3497T2mttv1CPie%o/rCZdti3a01A13mrFA0%o_09l%4335EC5C8b33Ftd%A%%ev0%AT8tHe4M?%369v%Fo%oehF2i3mj0ct5eCi7%33ohFAAANNt8tAPF3aU8/KpsheaCFg/342%3or3ib%'
p60
aS'3aas3_5sua6it6hr&/33%v0e13t4D1oduo/3d&e34pi5eh%?1rj:et3S%073i056e4Pe3p9e%9FEe_s/3r10usiew/eppX8t9gfce1lU5fv_2356p8h_d43rgLth%Et3/oe33s%fdtuBo0F3p8%0_re3jzgiespps33Mo85mt33eb5l0563e%%tiF%iS13ljt3-F6/trP63El%1g03wiE7So4n&399d0%twi37o6t2EeF=33s33P546eaCA%ib6re16%3a%vathfpna%f93jyd3%0A5333F0i%s%F_9F%65C&tl&22%%Ar%C58DEdOeA&pA&N?d/u43i%30S_w7=330IC7%4%33wex1fv3k3b3r0554jEmihet5s%l1Gi3/cM3F36p%3%b8451ititwwmi%bY3ehsed43-4jTFena0N%32c8w?deiZ2eyd3iEWhp3-800vdps3R_ddhnm5oobbdbmb?2l%d1CCmUmtrk3svi05F4o78o4r5bve1%d1752di0e83_Ntg%%e41eDys40s361r3i2tt0ilAt3E6Ub032At&vx%dr/5%229p02'
p61
aS'67B%d&d/13t3n7&EsDov7o3ofhFetib&%ev6_acu73e3Clp9423&%Bv9Ry7r3f1_R50td1%&wA6fap%bG9be;36Evj0C/3s_3%s7eDhgw1_d7a5Df3QtAxem5t6B1_tF7&2/&/7e7J_?0p1450Q54g32o%%5tar13%sF31xo3LhAuaiu3&sermFTgHeit35d-wam5-me3dAJrv834Cd/%aw%rf3Eja=dtiso%7w33%_rMt073g055%ooE5oCoP&341N33uA3il%7FjeuCtg5GAdri5%O%a50%4m/0l?%w3b15v5oheSet2F11oHo3tBPp3eFerpm3ade9h7Dawf3a/_lcDAs43Cm%oe280G6wC68t%et4eHs3%Ceur23F2tv309A_0?5o3Ai/i%303%oAFd%a7esrrH3sdiV0s/i43&slo%fDiwa2J&jrxg&ssm33A%e1R%3ub09g%w1e38%ddBS30n&8OA4arl%14uiDdio%e3F1jJ8ndJ_de3t3to80%0e3s%fSim73e322na3?/%Ejb3%9C02rz%/cnrp8aX03?%g%%%&iatBadlb/-'
p62
aS'ca%Fnli&0ti31MS5%6&Be&1w41Cfls3u3g3gfw3%mpjop/jjmv1uFetvbt6pr540d3t&3kfue5/E8%Addo3003rt13tF33C203l5hrCszbF=5fw%bl0not3Ayi0ApZD%trtlt3bi0vtBH0Acvm9A3%-75s%tt14%e7pn4M5taisl%pdi4C2r%3ndtsmhCa--j-s0%z-j-37hSA-%a%4e338%_&6dF1s6tan3Ui%39%3io6se3CC573s%m9ocv140tsiD15md/5t3D3%31l%uuo5C%et631aoC006?3aaeai11%3nAet1pu0t_eDF3Bhv33A2CKFp&%32pCap733v3Udw453bm4t%cFp3op3nPp-%3n_foxvtF1B63F8A9rt1lJwhppse3A/ft3F/FphA&2%ebssdr6/anu336mZ07330i4lidti3%3u7paAlmr%bc3wxAs9et%%3%S14p/05m3.9ssZ_bso%%e&faTeoFe_id35sslf%%i9%Bu%%3&dt%3z%%i/?l%Le/i0Mr6&_dFs/-iL643u&=%c0_42ri39tei6H2o390hees3bmi%'
p63
aS'1ka130m8&ppve07o34E%emoFv5ata%0i7Cxd1&fsa53O9i3upAneA1Amm6330mTe53F4rt%r1A3/%&5AW3rF%/rr%d7Xp2sm4Cl6L%dhk0ep%3kenmtx.rduUdC%%egs&&8ovddE35v2cx6f3PuH06%_CWaoa2%m7z3D4F%Qpcrs5530F3AhDBwC4owy3Dae/4%c7rp%24v0-s53hnd3FF7&rp4ow9%j3ds1f3%dhUDA%0e1la%wAi%0bA335i&Ap5oc%At%%%&f/yt3h3mjhwtumC/D553%9t%333eudau0%ui5F1aae0v4d3xAsi732A71m3A7%333bvtw71&7uye?o4p3a40p73_cEr5ovi3&dte1mB2px40v1o1gte2s1dgZ36Weo/-1A8rci1lJ3Fso91&uSmfoe_8p%tDiyl33Fkd5/33r1r33a3vT3700od3i%aC&s73z82A%oa9I/FF_8A12s321tJT1133pas6ay1%Gs_Fs?%e-T31339%&t3te233sCpoa3cr8wg23oeAe20F363&2D_i03eieau2Z/3dF13FjbAvxeepCL%'
p64
aS'Ft&liiwCp%ue_F0lw62nmae0Fmp%b3s/tB13sicoD&r%o3&grFA3Fd1%3%%B0Fa211314%As%Ad0-ua3efnia003w%7dso/3m9sea32Ei3%%lFF_%%Fb&eJtsOF%7C33Qts%vs%iiF39-%h3dfih8-Ar3ohG%04ps1%h33a3mt4h?Yd%De%As2d6Cph%wvc%R3A3ueedwvHh5F10a4A9AhCcf4c3%/3i3e8pDrspmpi%24ye53ct34064D0rtbt/&&M_3ol6Fdikodiwepj%hDela93ommo/o1Is%%2_p/3%p3uo3iuwd6/%jFd%dupojC3Zw/0R%430%7%Cie/k/bA%_e1o1dT6eqo-5tue86&Fe%uoe3aAd%ttbtnrf31%s00da3Fe3t/ht336S6433z4X05AaaxC%%e9/l3V201prsi%m%&lF3%&6omF7paD33Espo/3F%Fe&-t4s30h8E%io1a4&/3rutlcF5f/mFii4-3virtvp5i%gX7GidstCCdFpavvvicF0u3yrF030%eNAe3CsCtea%Y30C3F&duIAerdass%3l24314e5a&'
p65
aS'orr5-a17%as3f%3n_aAdgz1Fg3?4l_?sp7ta12erJE&3h3MA73R33t5w%kOm6o6estcE_Sn%pmIUC%tsCgs53b33Ewm-iemFelaFoc3l30C=if8Dd3%cAt8crt4D23%Se23%v1B5j22&iC4ood8_30/ueh3unf%%uA3a7_B4Bdv43%A3t73jew34ob3ie4C84?%tsQ00p3Ag3%t/mi&tjk3d2_iti3v32DmxrdiweAw1&3%CA04uE/dH_v%8e&tw5%sptrcl33te33Q39w%E1aa&ergih0apldrt-%%me%%tE%odh1e1rE9gtiF%_j7N48%n3e5Bjc4te-H3dmeEwHg%%33is1/yA%em96u3F13%%av029sohF34/krr1sbgRsktD3%d18poi0fotv6pue93%CM3%233D9Cw03%3wa/=pj?Upis/f/A3ish23%taEel%gPpusanips3r3eiAo/teFsoCAtns38N_4AdroT%1wn&l7l%rF3T%n2B32/lo0%EsF&p1ea3%Jse3secepc/%6B3ins3%oi83Hzr7p44tBk%eTa_a0%wlsu6000'
p66
aS'AhHuFFC6o_Sexnot3Si1%p9/o3haF/3Fuf1v0a3m%s6h7mfp6%&EmDva53g3%x23se0853u3B&%5n48ykuA7%ednsm3px4ddBM0%51ZF50sst1dFto%ChwGk-CPzute35%2&%35tr7owmdk&9Fvpce0uc71Js3rsdi%C7qte-8%%&tnoF3p2cO/iv5&7A%C50iyg65603/8A38ev%n41binm3t0s%0u5o&jtfsaEsCs?O3rAsFG&073%aAdgoh2yi3i&to_3a4?t1eF17lx3o3duptB_delAode95Q1o7d3%5C3m/bth4q7petatbpmYwb&jCss%d036f8C19-pnWo0163i7biDs3nd0tw1m33m1ol&Aes3tT2tek3?c34-Adnn3337nC4pip&&g3&3ds8dca9yhhM&a4e1kooMDdbdN1mctTu3lo%%0e8_sC&r0i%eod2%%3%UptctiC0/Cvo3se90c3at4r%e3m3?op34dwsa70e7e2iwtgtl2o/r.1cpt%0m73tCdeo%0&A3p71ahrvtu%48s%d943soi0lOmE9113&3e58_6R6p090'
p67
aS'01w-34a4CD3xl_e03li6%e8A3mA_Cad14g%h%s4maa_-%c3FftAAae/1patu53op%%10a/s0mph84sw/1svC3T3-6pc4FAp6p&2i3oQ33n3j6mvf%dpknbC9C54icrd%nM3/e5_3t33v2fd/kjpoee1%oaltuAa4&srynAiam5o0s37C4d%mg3%elw5bio08tpDi5cprcu%83sRhe0F6%1hcfeoeF%0hic%/8rx5&%3%%31i2&2Sr%3sn9Chmwl7DA60FC1F_%ik%v34d7s3n&6r83Fs483stbn%36x-O%13FtF0%26ir33zr%rAo?/eC4fd33o3Nslt04%1sCArfDc002iF%Fte7f703b%v%31%/U%cA%s35hiopBarmlZ7a5dhDrfacUja&1pF3&J?A6D1ni%0pt1o06e73h3mF&sA4oj3kit4FmAoba%6vF1DFia0%6cH1%%Jdc6p2%dt93Ehm3y%v4gixl3uA%_3fYAeep5t6h0g63Fai19t4s39_3Ad1%t%3Q+K/eed93vs35o7%-giadDxcgj&i1d%_vs1ttaFt2ttChaN/3Y1s&'
p68
aS'_1hte3uF_3m&C3ejtee7&3ysjTFhbDg%-0uB5hd_ocs3a5GN_td&ht3Ft33Cp9e.%eobTr6d%nx3%r8zvm%d4vx%0dn3Td&3%/m%E1438i%-jpj3frf%3m3l8%3&39%prhr3ev/4ep%eY3/j?r%1lD1vp/q44BzApAICDt%6CFj%wv87opo2wr2cv-bp3g_e2%03sC3t3%3fsbj9fo3a3gnlNl1eui3Ds61e/a3oH44&rs3%piur837B133rtAhrpH37451&e%/4sd%558C93%k/%rC4cCLu34r%673bm24_xC30/%3FFpiee3/7B&0ecf00tsi%uMaiha7dUefe%ustAh6%3105v%dtueFuBW/nde7&0Fnem5o60/6t3D3pm_3Ae9Al/f=/3u29A%e71hrhednuTmDos33p2iH0e1&0kde-v2ho3g?33C0tF25%AafCd03rdseF-t0v3a%yCc%s0eF16%o050-t12v3rd%eie8aB/3S1l5/xr2rt-7t_we3-5j3n30C1%9e%8r0B_wu4l%1l_%hv&wt1vtFe3hhh3AtGmf7uMbhA8-3d%'
p69
aS'g5/n5dgd07m%3l3fF312Alt937e3Ct6mA_o8i383K&td33&4fc37%3&l82o%%B3p3A3A_o6j?1%l94ji1Lac/dtcrse3tRu33d%t67bhs84y&wse%&32?6%h51vee38ojI%5vWb76mD363dsweAe%d0i92wteC-edhs51v2dD3f5Fir1F3&2t3&%n3a6%jw/rqdeta3Djaw6&cws%m4F2k%%&dB7e85h1d7oh2r3sl3_i/Ff_33itCli0ae%Dxa3e%X%pj3_pQp3a3d%03?1vp:sjtH7f&Fdon5%ih7itm37dyOai.a0&86d_wx1p3ouj%se37_3_vwitSgE/Dse%110A10&4h0%Cbmet2FeFD-0dFo%-F0/r0t%8tAaeegmpdlu&hhb?u38te%2pevn_/eD%lcs%jdArp9-utF3utp%8pl&6dbFDhti&31tFoFAt710&dgx%e-3B%3mr%0Au3d86rCCpjxaeAvoaDot%_xh%3F4Ure8353t%,F363udb7a3-4gmDb%trd366tn1p3ssA/nia1nTgEFb9rBnFi1l/250%%c1p3f-Si5bi&'
p70
aS'_F3trkFta%be%sv/eb%0f3ehua1ine3/gb&Dy0eDiA1aai&T0h0pAft37wEpB%cFee151ttt3%b53ei2/AD0%73t3%CCl?2tAr_3fNH%7klbdalQ972a00331aol-oHm3rmp_yy33h3E?%/wee0%&u5oidee&1Brtf7aaDse/0i0eoBFBpe%%7vg0d/anF0k%1t-csere1%%vtzM0%r10ad%tn%tCS?9iei0rC0io%2rg/3r3tibF3e4it1VGn3F03.apoFti-3sot4139o206r%saefiaNs4mc_5hm7uep3_p3iFw7mfw4%7aC-hh8n%%s_d93p111ggBA11%uwFutpji3/oes%dl43%3S.a01FCoid13hGDHh%%ffti%u%3A?ltnviiD1p23ss83pf3C13&rtFetrgG_n3alv3t%51V%y10eorFvCTDnB&5%hn0303i%TpuNtb8%oeFG2ber?/6%aC-eu46Ge%1F4t%Cid311jlo1a%n%7a203fm3R%H&0/ww0jAbamesh_r3%%q0AF3B%k/r3ogDtmFE5Aj/w4%%l/.F/2ouDA3AXF&'
p71
aS'3Q5=383Ewv78t80hoB3thL5m3wei3j2C8l33edev3Dsr4l%42y&mtpo7_tnffpe6ohcZ1%pue/%N%l%gZea9bAb2dedi/Cisd-Q7Aj3d353=f5u8te33%%Aop4D/743-%/3gE5tCr%3thde6As1hd2evi03C91L8dF%-t31tw3%n4ocdw%7e%epzbus34xro/85F3pbnl_%1ki%myApsgl3r1&ed3f92te%d-56rpF4%8FhbHtv0e%E&%%9aA-%e%iok1wrfbo3e%mmtp%0%%s_sn2b5u7m35te-Qom9D7pma_fu1%hf12cprbA77t&%net02so6e7Bd5p335e333wa3460mh3yt30oeoF%/%3i34v%%u1wp&v%et38g3w5Dv3Ace7gp/a&s5Kaat303o3iy27_88fgbFtset3p3e39t3001Fi13ototFF02ti1na3s5nG03i2pm0j-6e7i0De3&9i6&3ug1oQ/uo%ED3tie%_xe%tAb%osG581A33wi%de19brd3F641nsibre3AtYr%l%Cm3%_o%trc45dumsc%3S/u%%e_-4e%T&h%%'
p72
aS'u3Fyw31u3AdA-llx8qg07hd/s8i83b8t5a6a%3ip_13tw3r4Bcv0BeFoc3-pC0%lde6iqm1PnF%A331A1mi3V33A2&a_CR93wgiw3dho0ty_jthbapFB%0QC%Dt33?3CHFt0AFEAAv/%staM7dK40-sa%2ie%53-o32%AwE.ot-A3%%8/v7?a/&epo5RsQ%90meBC7hoo2d37sg0tFg9&A40/y-33d5_paAt73ljseelOCa3te2uulyti68t%hl0--t3J1m_dsndp-wmB%i80%Fa3C/pp3aev23taw10_imo11rsdeaps3rn36ge??00%1ft%58n/-xtba2dCr1D63e3w3w%jIvmv5&Bu0vr4wo3/pp7mee%ij41/U-wG%s3koA13np.f%4%kg3wt%U7bad3l8AF%m&ad93Ytt28mAt7gvY&egdiDl-nC93DieopA2thtevba6b0rfc3tx?B3lCilwt1C3-3B7dmds)D/b6%f&_877O43w&4b1%T911%FFF%%h03m/r3H3YCea[4tmzp_CeBd0r3pt06lNmi32fl3628%ldC3r-c%tess%'
p73
aS'0GwyFieHx3a7nR%hF7mF133dr%ses3d41c%dmCk%/icftnt1hK6e-%od3edb/3%%%1.%AE37Cu11dao2i65&AA623d/o-DA&1C?Rost4Faa3FDe1eTa7CalAecpC4r2C301a100yt3gx%m6KU0%E1/3zdiBrn11ptepnid%gt3%CFs0u7&0s4A%?%0iycGbN3yr2%e3dnoE3oVh%ha3%hh9j6/Aq3do2Co3%mTtvE4_-vrwrt-%DaesanGhCnptl3Qh48f?pnF&f&At&AnMrtuxv3e0t0oT%tQr6_D5l3eehew0ddv9g3eaD3F8e3330_eQ3%s3v1_hA-BdrDjVN%a30tp0-522W%03t43b89Cs_edtl%vtva5b3y5A3tFe24e6a%t/%.idgeeofhe2&_tpTi3-kbe2&=s3%3h33ztgd0d33tc5goi0%a-habd3MpeofIk/wt4t%r3%e63ea1es%Ceyaxaf%B2d_9%r_seAFGCp30i%3m114T2%3xosnTpAB339r%3eo8fFBt5193rwi3-n3mfpD1Fik5se%4o0F3F3O77s4/feFA3t5a-'
p74
aS'3s8pmkCjFyiAs3o6A3peehL&w6o0Fup326s7eur0u3tto5i6f3%c%Q24v/tuW,3p4so0D33-3tmS&r-&3300hcp&00mn.o0-F3eK3%lodtm%1K&lfFmeE35DircvbaFrg31343A3Fv_pw5%Bt%rD2_dF2resRsrri3ep32Ct40/rjihS34iu0a3a%Etee3%6n9x1_aee6;t29&7dp15sARfeA&%5a9djrtrce-33iDe037Oj331ebb6sh%s3sAt/0%unp1-pBpCmtvrp9x2333a3kz?3m%i%%71oA%6d43/prtC3rti%hBo61Cr8odw%f%b33dio%&h%rt5rC-a%C2m3pb%bd8r30g0D--6tseano8d2padutCawetsk_acOpmrn21933e2pbrf-nmS22&%z7p/9sH3Di?%%6A3Bot-ztid%F3vnh43hrB&up2Ft%09R7dD33b-DAi14FA%irs64p0fAAdb_%ie5s3%taeiFdy433maoecE_Fx2awb/g38rI&d8F%tmj8ap%De0sh3392to7i05F608d_e3n_na239%Eui&d%3toeeC760'
p75
aS'133nde/%?%sMer5UGewGrnSrmcoawd4ycDf_83uC08hg34F3vqsdtlE2g3k04td2lo3-p2rt0s7rhCe8bi9eQl3DO733e4oavXbov%tfy&f4%3cd5adBb3xt64F&35D3tphFt9pm%bF0fpA7c/33%epg03o/_rx%FbF%0%o0%v8Fe%luimBg7DCp20xeTZ0%dC31=a2/eewb8zd2308xD3D0I.vEYF3%eMwtFA79Ns3aF4bS%b_v33?o341ci3/AaTbu/3fEttvoTe/f%&s3rB0pblf0ee6uieBKt-7wseTlj1Hptd3%sGevtieCoAln_%v3a8me6he3r7e3Dv2m8so1cl%1dml0blnwA1e33%i5j%LF0mwEht6enxi27%73&H6otpa3F3e0%79fH&N%ivd%73335Y?vDah33F33/%m%t_s83A93_weCaJsl?eewcope3lh43n5xCFri=cf33o-3idCdEt5ipae31Hoh1pveauGmsipdp3653&F1t402e1rhD=ya%lbiutue%6OmF0aAFi%Ga1NrDAmk6G9Dd2TF306bC3/pu3vr33%5%1'
p76
aS'%p35%HbA3faQVGottFtssM?8tpu2fu%Ho5va%amxt3%Cs_vrd3dhpsvt0h-W9rf73%vFAC%D5%&2a5y3Ap7A1Dos_ws56BCtKC%3s3%%2fhYe%3ohgKutd3al&sChlaDaF3voS-pCp%ga30ae3dCio4AC7T&s30bp0Qpe%333istl6t10py5d3F%dt%4rnwE5lasua9CFN9wp7Rs3etQxsp%xd3l63F%v379Fb0ef%m38a012JsaA32n6hu16teaa4tnZriusO3?6As7rC/%jC4u0/Wet2eFtdh1FVse-rBbpe1%c%bh/a1_/FewA4p%gd%/uAmucdigF2H4f3i33ve2g-3%ma2A1jp3aa61o-_ehoef8wmrKfy3Ba3j4C0%?c3oe123iBsd33-2eDp8EvAt&op?ep3s5w%2tFh%2_3fps6a4e372%C1kAE%tspma/l&iaogT7Na&j%%e388&3rjlxiac6Ea9d%&0is%ii-&3xd9Oa13hi-K53rgo-FaLwu3be3tem/3-rvr$an9/ea0V585uf3330Bnutegp8H4%5/r1Avi4hieem3C9%'
p77
aS'CM4oA/f?Fe%0dqueue0Bamht1sd3Cba7%wd/LFu%C3v7YtW%5dl42sa7Swi%3&eEve04Dc65rgy5egc-m1ex%B3tds/swn%Mdp%13m7%t3cecdf3n3EAy01uEj58s0_%%rA3ovcrs3C3oemAA6ss7Pc3Gr%7a8BEstm%h-dht2gG-zueda60Im1d1hlep23b8bi9iCosbuota%d7Fu9st8o33le3ts0se8xBb1ie1R3etctpnUe3F&3stp3&i8F_smce%3jmtotepue34mtw16oopu33pd/fCAsaBr4s3/8N3utsrs%%n0m2-h%e6eRd3wmii69y?8Agrr%7OiBd%ss500u3lCjAg%/3AuB?%53peu%afppfmo0fAC2%%35eb41t8muF70so26swt3&s/0ie%7/q3De0%7ga3ixx42%10oadajf34_&w3Vt7t;esghFp3381xA35wF3Di%vk8phNdginmg:too0y35iW33n1m1u0o-w5wJd-3dc3/AtO0gelqaud-bemeoAt3F%3ifodW7Fsoj95nHsi3ghv132e%1aAwHt2%iA%%1tC32'
p78
aS'6pZ6m%3%oo&isves11&%7mu3daihue3ctif9eo9Td1%o1ms0&&58Ewiv2%bF3&0lt115Sz3&enu32aiC%&t3e?ur-0tl10uspvCrX3E1b01t7t%o0d%Fga5mC0ai35Go3ad-tdd76tf&&il_v3d%&%o%30hwmvmdE8atFD3-e8%1eb63mF0%=1hL33%00ew%ee-3&5a&38uDdef331ac3J45%t%su%si7/uF&m&Kw3-m3etd4sN3sdm3rC310FFrA_%0283t7,A8p&l3%A3tt54iade-vodh:tte3n0ubzFo3v8%325d&C3pq0aAt%i11vNat43884B5t60cAD53sd41kr3bp%pghwAAu%iG&%w3gfj38N50a0t0f%3e2w-o1e/4%cs7t3373323323BCBCf%3s3r31B&wb2-7xa%n00bmodL3a4Fddm43Ce-3F&%avc%3s%nve_blt%goB3h%3%7BD9NZ%3309a33%e_a29IuwPZxwe%90/r5%Qbf4Ug1fvja6e0/33%3ig4%h0s%S%wF%2/d3/viC0neeslDg5%Ap6817m3a1K3jns%&'
p79
aS'33FFGs4paifd%2%t%C19_l&3tY45plrDae03.6o%C6%-2Wa3isa2m&A.wan&tgt%ch-Awu52A3o5&t2jc23:eeCe1i9vD%/-e%e4%lrviaeof33joAv3Ac/8oa?Fd4F6ii37tNf95a3rH&%u3gw&1_psitD&%9H8%%c&j3jwxj0Fe6avi23Aik0t_uurs9t&egh%hf34dn32f533013dd423ez3po%cnjb3ad38p%%xx6t2n7333h-FdhCsiraEti375%orMa0j3s0hye-cemr3n9%olursh%vu3e%4o%j31e2wCfdbi4eA_8idwatah4a%03h%378Ce6a%-H6s23OHlDtK/Ddrs/3dfue3%an%zp3o_/sQ9d6X2bbA3i&tp/ty3_4dAiKoF&Foe0rom3C0oi3i1/od3ph84yxon/H22uy1n7el3DFe2%asd1/5/0eitD1jA3r3eb0:t3i%3es0n633wt33p%%ddtAFA3Ch/0_aesp45fg_cpAuv5/c3FLF9C-aAsr/-ddsh%Bat.dttanQ93_Fe%&oZ/Bb%1Fs/lwdC%34jpm3neFi1C0'
p80
aS'CptA0H5CF9d%3%Ar3i%RmmV3bWu543rJhei4iti36e3r0u&306hibpkngt3i6lr5S8r3e%sAevjAmxelf%DFez32vpt%Fotu0hAineP013_-3Se0jaR6%h5ediJi3p3ef%wCf8_0FSqeF%3d0b&%1t_t7s0AKA&rhd%916&%v/Fb%if%x%syh3?9f3sddibcD1j3o7ltoFaeco//%&v%ho10Rsg%e8yTenc3%Arn/pxxKF7/ah13&a%9&u%s_e0pexs49%3vep%d06g0/tSi3%ime3p3e6sFHCdim9e3jkeUe3e323bncaoc4mx&330fAt0c33Kd%ds00c7bt&beu377srt3wN3mpipcr29%56aor.m1/%%_cis%d6e8t/-yi005tp%t&meuenAdt38aF3tas337j8e2%j07an39%sdio3%1ss630zpAe%Fl&3ww3%18Cvv%h0b%F3loc8eageg0/wt_FarwFye3f5md2&-reAvC3oli4i.a3svl3ieDBhutdo3Drv3f6w/e5aF0_miuc3%%3o3tZ/Vvi3El73a&p0i7d&FuabmZs%8i3%'
p81
aS'3%&n&%0eDC3rtF2let-=4p%ad8DrAxp13Bdh1/e%C4&ehokCr%%%hpdsDz3&%eCt6&YDdt36iGw3Az4fAptAto3d6pA&9ttosB%tu4_0tB59%p&0m%a-iCafsfCZ13Axm3o6006%C%te2Anlf38rmD5Mr%0o%is4%dt33W963x6rx7i8j4F-iY53df3pMddaewjh3U30D8UMb3iecnx%_7x3%ie0le4mioqtdd%hadbexFB3hBcp3%meGAa74o/u30&v1jw43300l7r2r9tCoFs5%g%3_130et7ttvk7t4wpm0GrD%FoWet%4%%mfn636up1tw%/a%aiac02%3C3F0ae3g19rc30st5l3i2p478-v3%g7%mao3se-FoFee3ze-r6F53wttoEii/%s/DD%3e3mD3%jd3pFe9%hb3i%2r01d68o:%0D4%V%2%%%i%33%m-ym4made9Ct,r%O3dAocQmL28o0/%B%0Fg&F3303d38Bg57Z?g/&Fa1Sep9A6sheabtpsdA13l3a67ah0ree7/3kCsaAp/gAihr/63C/i9a%X3p1Ju/w3fg38A/'
p82
aS'.%CshrDai0p-3tbehld&nArA31o300dntu-tba%r_jdz%std%%1A30lt8t4l%iA39a82E0_sPwedmasFhi5338_tu8yiu/1F_ic3d%3x%7ewn33d3%4&%Me0wd%%/o&&6/p6htfrt5sEg?m5wC7i3h_1K&lp7nCBUxi2weeA3aoADse%PCCvixe2vT3he%.frIChumieeDp6l%bA0ac9mf1f3r%5Fg4t%24liFoom0oo3m3o%ek5pMo/&3Ls4W&C%&A30Ac04ftto1%_gd%3qvrseklN5Ct1%p?77Ntd-roue17sNoK7t3v%4%6v6/1uihr%uM%iFt3D%33r%120n-ovi3%a70t&m3abo3Av3FD33p%D3%c%w/w303n43JFdie%h/f3/k3ep9x_?ARd3N?90e2e33aFD33%2w3oAes73aenuvzx1_p4RAer9cu3ah365Dh_3ila5pFdcge3Bre3vsc0&CloD3raj3t%no0b3p7d-D%iA1dp3b3thAi%1kFeiregc4iF%fiw3/y-ohd0okb9h6Dor10%sW3-8Ca3-3tw4p3ptr-CeXon3w-'
p83
aS'3a:%h33Ginn1ire&0cC8i9%a4-2l5/Mhta8bL%n5%r3ieMf0%hn6&%36bo_av35nfp73n3C81owo_3A3eep3kia7iCD0j%d=3%31i6/Fi3ro1cd0t3CE2c377s4a1g0%/34o2n%i3tg5tg-d%2o%e%80i3303eC2C%%wu1t4Bl-AFtoeeca13F3%Fe5es&30ed0c%t/u39dAsb2dA%%3B9wdoeStsDtsnt0De%tgso%al43l8n%3upuss13o0zAw6&he1lt_b8/-jet/Ftvtt3?9h30FD04giC53suyH%gi%e7STn_3e5%_Ao/v33iH938FdvFss1v&%_0bw3bqoa4qe418r3AdEaT&3BriU5pnvdf337nojmE%d%oddip0oAetA9/%Ale343b0eis29%m1n93n%7tw&Eias9di3bsm83ACt%%c7.jc/69%11ef6QcAte%4Kik1vF1g02i39js343/%33l%ridd9o10t8pN7t0tg?%td3h93pA33w9o3%A0591gb8uFd8Oosp113imb&i%6tosRe%w%%3rmx3Z8hih43reed%3C3C3vk%2'
p84
aS't3d%jy%emu3F34rYfdk&awo4kd%8m%Fdv3vve-tt3_t0h&8Ai.rp3&t0dh_%xeE0il33aRp6_3e0mvpdc%p0-B%3i83xzw13jnF/&_iFD3doe%8samvvs%9p0i%AjBgh/rA3%/rtau&do33uH1seD01%u-rk7P%/&lotCafn&rDu35%ed3-9%FFsd0xsvYt/735vy3stD%iI_1le2.1R759u8fA4se33Bx79aarAruth7Ex33aDdn&A33%iwukS/3/s/305rs031uc4v1ai1dYh%30&13bn3d3oQ1ACcss1%84SFp33ef30e%dmbcts3h8ga5as0tc%%A1l7sdep-fe65.dfv%A8C%d%0%nlev/6a3%ryUdoAotk7%q1teFd%%%t%33s_6s3e%h4fyI0t03bgdxz63_d00ch%6A231--/%3aC8Fci9fnca76L3efeC3%epo3i38&t5v0t3Ck62/l/c7t3-732Bkiboap34&nPA13vsdodjj3Ltscishas3u1p3fr0_3tb-om_3iaoiabtrpT33yeuftt%3A0&2Q8d1kkm3j33p1t%w70I%'
p85
aS'36e3d-%amFee&st7u8k3&e470%9t&72q11d%e0c%05Em6aB3Ax3CnsdiB3re19Bc%dnaYsCpF?&c/F_/ejdvmKic0b34pCdd02j%p1F&3o98vhFe/id3tbC4d33Dt82Ete3276m0i3vlsbetf%to3Q33D%9-r_,3tfptd5wE3NCQq9x11wd%64/rdcJ%z8sd%4isk331343o6ehutdsAs7a83E3b4%s2p09%topdF7AtpR0%%nBl7iF3CU6tra7t9ea303eF34m/11/s19a_eC3.ds%r&03%?jg2&kjCegU1mBh23F1n//aC3bt&0A40_/Ao2u5D913o_ple3&3Ka&3r83e3lt%cdFcf14jiJjd%%xb6li&-v6%jo3dw13p-in2oipBvj5o?530Af557%eeo%3hUfbd%bza6-2xa3i1t-3oo&11tCmv%73v6iE%fU3ABoiAelj3EjFfo1H086/2d/%1841A%A3n44AxeFiQT%1f832d2%ni23Fen%mtfrFtAh_ct1ei3fesal0%2a263pi3%D1s-%g3cyAh%3%7dw5nseDFaa7C6rtEv00'
p86
aS'aRRCodF3r3wC3&t_7/WmwxrsdimfA?C%i1Yc1t0_0tw6363a3ivn/pC3uv-2Pgi39rQapn79eiCdoidee%ta7s9%ltw%m3xegm%tse81gfricC%apcFo_%95D?%Dc5ewCFg3ih3%%ltFerr%ojjt%7Ai0i1bp%/a%/1w63w1dsa%A5510Akat%/1%9o7Wp3t2o%o3FoaF6aAdvE3e/tCm%jtej-F9sfhe1hpmFes3CRDa/ktF%bf&s7e3i633b%A-rs503%4/2%N1?vh0H633AfeikAz-p3&tteha36v2F3Egs%ie683d4i%iC1p31tA3-e3Co-am__ns%3FIGos_7iwriviFCsi3et-FZ%Alo3pr-twhbr07tE2E%t6F%0%04deoecioadi5u9hwpgFIoxtSCsa3/1s9_3_I3seCtu%i/AnjLerk0Fa3vnmDO34&rwd3Bl?G/Lm077tCF2/k5r_Pr&teH/HdeAFhDDgwrm%t-3I38vy_AetnU7oo%diabA31S36hA3A3mwFe03c1p58gCdygnhAcv3srC8dl3pt630Cn3oWa%e_3t13n%'
p87
aS'/%jousn6mis337D397-BF%0%%ka3imrhtttl%e3depvA2kC2vp33334tltdtp6lF49p&dF71wd&dA1pdd0tomc81%dgs0538aah5%37pug_Nsh%0dA9sl69/scF3DG31d3t%cbPt2se83%15ptea0m70oel3a%or_8mirs41d/vHEpv4kj7p%f7n3dhCOgx&fe98i3_3w10p%Aga/3h1mFkFbem3Bo1rdRAfL20%i2p18/333811vjt/hH&vtee3_h3p%o3s3w4Auyi3=931/TtFzw8n35Lt933_bptom4%d3&3/Z/k%itd3rE0tFc9Aaewo%5A6t6li63_nbw1gd-6ax5/mhpr3&6?vR5B%Ai3tPaY1h3Fk3be37n0d0%1f3gtdvi8t2MwA0e%hFnmC%fC%t%e1denw%brt9gulo3dca%1d-o5/e0ee%mnde-tterF379n-&vhb%p%Asdr3o3Cs1eY3tmo_776t%otd&ie3ue%e23Wp13d35Dsr0nt9ecC2e58e5e6Er%3R%ddrE/t?0DpsHC%C_irwn&a1sh9w05isFt/3Ci01oot/%-'
p88
aS'hh5r93d6Felhu%o/%-si/3ued79e42%q%&dd6egvyp-bugHa%_8b0QrdiFF1g3ivli,8tt7Xokep6eeCb324d1sQs1ekpea1J8%05mCF-33A7DitiR3a/i%w%%%94k8ph%hvptr1hR&ADd7o53e,mprBmSr3sd43&77A%3gpm1m%c3pmc0ii8lir32a813kajdtb-0u%%%_dd5=a%pbYs3/9t%4k&v30ut3t&jerr/ebB7_d3/23ohtC/be1ip2%31a9/MRt%rddof1raFLbxdt330eDc2.aath1e3s0xzBorAq%10A3An&g54e1&od60xg3Gb6370bEaFtY30x%4%/fO%4e3%F&eh-Hdkao/-D%%60dlDwkae1k%miF/A&ao3u1%98_%cvp3fthtt-D30F3%HVwlddLF7_3&4noiF7tD9%F3Dg5r1g&Fb_aAd130793et31_5te4o%%a33347Coe?l3no0A12k%jp&6/U3C%8i%%v5A6_tb%/5lv315p3uism%uvtb%heE7gDst88d3ah1&43M0e3_1h330ieS0Lu4JOD%ndCp344mft%'
p89
aS'yx1KaCi6aiXd%3D0625_83jIl//1iB&&e%s313u-oeP%6Sf3G%vCv8e3_5Jg1/&6uA%9A&u1s1p%73ua3ej34Z03ep7aA%-H/32ivFp03u95orUU3uoed%_e30repv33ohBd&64i/.iu%6%FmF60/a33vzn1%h-cicB84-e080%w134gpAi1tReA-reyiau%aA3%en%llutFmo42TndeshM3twB3&0t3135%3%aeqlti03%A73Fd3ow43A%r%p38pemDj33edj_30I3e8sBFj2o63Eru_vR1a3%%3B3nun33hAEM33n85nR11i&6w3_x%h&30p?Y1eE%3JvscsBgavux31ikSot2t3%33cSuFva/CCa499Cp%7.3m8A1l%etf3e3%3svhz%9pl4%bnmCp%%5Axk&C89eiCc0ta%sHcouaT%0//3sFu%ubm-b3j/34c3&difvgteF8r3L_gh&3pit38amAQcs2e3el1363Apa8d321x%w_pN5a33147panwav3JoLjbCesx90_so7sd3Cg3n%m06Famaav=t3%41&iAJf%tom33_ix3AF3-'
p90
aS'/sis0sEr7a374d1/3F_a0eGwin836%%-_arcDFAF1D1x%-3poi3s0jD36vY_lFm2wD7_23rcCen%Go66F/Ya%B23o33t1A3737/Dspu3ge_uC_Ae336B8b&sB6oiD6g9A4&ytfT%Yd6oV53hdw3C9%1beH1%3ftbo7fosa33%5r5s6Esimh/_e7vr1hfj/e1WggL/f4p_i/0a%pF3%7ko1Fy%1933e3Css3n8s%r%d40%eeu2AttB24g3T3%u9xsohet93drha11%6hps938x%Fs2Zwpa?7c6C8d3uCeefAh33P20l31AtshNtrv4i8ma%o-pwF_&jCAr%&g1t13e3CF7/aBKW%1m%uiso6R%cmeue300tF3teCa4a1d%fo7820753us-ig1133s1F1dtp3f%/tba33&333yFiRbr033%w%3Am33&NwleFAF13v7tgm%d3&fAB5ms&A6pudHdog43%/o11m32?3%/vhF4x5re6l1s3hFpt%fFwa1p0%bi%ooe__0eDs-3%eg6r%x18c1eF4mcftmp0dsm%B1/ia01w84LxbFiQ3Clx%%s%'
p91
aS't%1wc3%m&kQ2/2lef3v%i&1jt0R9a6fT3tH3%QoutBo1n5%vs1s%r3F7idis&e7o%iAn63ndd8u/31%i6h_8upt3vked1rlw3/jjb64iAtm&03i%D&vi7hsFt893i8ukdkxer-34ew_13_/SmFQ:Atts3F3uxSw&pTe5i133dt3jip%tAnb/33&c%v%1r0t&sk0e8AcBn3Bt/e41A77w3Fu%he3reg0enmDa3ohDBFs_%jrl615F63e052omi3w%aa&1er%Fhw1df3s1%_3tY0iC4ktt63%b03eead/3tdie1po13pdbe%ixt-rEeDo3va8vi0oeDidFtJ16iC3YsB2-obm3t0A3&7HejhbAta5tuur18%%feneu%3dxDctFe4wv3r9zv73Bcdr393ugiB%06AATr23%stS1Btihsa33Q36sA3Au3a3r6C-33el39%p6j_8v0l76h/tFa%%n3u3z7htB1vctmrh2DsBd4oIfi1D&N1p1a%Fl3A3%7aJd/33ra%w637ts%%DD&t0wC1m_%n%p9d%/5fvFeew%1p304%taRj3%3aa&r-B%q%'
p92
aS'u_avfD0nDyrBkdapsRh/o57]it/U_w9/B&%3r%Dnrht1/4Cermah3hB3a/_g1%C&%3m%%43ei1&fr8dpht3o1wZ3.rca5a6&Nlti%Mgy3Ch1ko4%Arw9%7od%5Vel%wAo3rZdf75BWh313%oeikrp2t33i3hs?45erA&%ur&p330dowaLvttood36%vtsHB62F4Ag46wEae&h/0eU335%e7/_AxbtC91mea24mw2mixveh2hAr-h33mfr=rif29eiav/337%3w%tnls%m33M5?j3b031A60at&%oAys%_Fs&pba311%w8&35o3p66803%Bvko%g4t/4kZ/2s%%vrwoQXd-n/1eFr3%3&vsFlj9B3n73lsC63DAukpipdtsf3X&Fe1et1B0t6ns1uh47ex3h04eiA6ga3l&iYaehP?B/da3?6/%e04d5Ua33Bo%dy4C3O=3H3sBD1ddAxDe3o03t==y2Zb/&iAepb3elPOpijf0ie9zwi3a3ev9s%s?CrvroI38m6t1&n2eAeepSap2rt6Dupk02hpl03%/3mn1ltrf031r%8r83rl;h_d%'
p93
aS'agydr%bo31At0r1ah%oir3-Cl3aA36-9Ai3-eed_p5nVve3hinr3D%36ihe5Ad1tonocnli3s332dgvBr%3O%4CayeB&shli3-pmC13faoA53e&AqpPDifD%bdgC3td9F35f233Sf%h93e130o8C0tpkViiis4l3xec9sp42eeFep%_v1sufp10set?r334kpFe%3F330a5d%isl9radpt%A3%%n1=o53mi?i2o1=t0c7testrF8AlFA51Q/Slp0?f&nNC3C0QT&dgUafBsA36AdaretrplC3%33pB_a3D3a3i%a37u8bi%_8en63%CC0j3h1lct6De_aa-//oehu4uDk1g3H?BA3y3%7%t%%kj&%6t&io1o3o7i%F6A8s&2fts/31%rnwij_i0&tpzz335A53Yipf-93c%C3%e-kio%hFrn53rp33%suo%Od%plAoxs2B1Xia0_f?lt%tkh941D?wCpsdC5p%b33i7231&o63ou3luw39db390?7Aarde4of3%a2D&?F839%34il10hn44l%oro?p1rreh&bgY4A3ove4%Qe3u8otp_?%'
p94
aS'1t3jaw-wbI4%cbs6lfif3wspMupiF8Cdhc_i63%8i%3Cr1YM2tKwprfab/Ag7mA%i7sTs2d5xDi333333eAmtsnid6-Fa4re303%lneN4ict63ltt9Xp3&sb4dr5u_3f/dkG1icmlla31w49e5mb35x%t0pADosswdFeo1A0im_lBttF&33ssopo5%330%_sE%333uf%91ep3ie0/3Fsdo3TDa6/eM3C70CA1c-AF%%5f0%336pDibF78o3m3&%ee37Tg%FE%4Cbu3vsp0&dAp3Utode%R-3rpFdC?%w2%p0Dmrg%o&h2=9mT3CF0EiD/gt&Fe29e%ii0hRU_tv1rdslEF&BF72/3ea3360xpb094d%W007_tde83%baps&drAm%oQ%luAAaEv3lvi3Mec7diputw63oppl2b0sYYBt30%315ph%3AJAdi%0rAi033Fp%odg%3tCulhNm39t-4hv33wbFv0t73F-2pa8stda3ti8aveC--Cw3ehsri3&doC&sopfrCt53%%%/A%4a3h1%_o3d%1i0h5epvp33-s341zem39v-3io%9i07&'
p95
aS'im9043r_drd-3661e%F26DSxeotF%n%F70A41e03lB30i/7FhA2/paFteWt_73530eD9w335tw342&Ao5e2li39T7g8-s3drFt%p%i%o/3t_oooxuT-s2-NAide033333&ag0r8a%aiF9vcEYsQp8uhwr&dpadCi2/Fosm%%u3304&pl0%5313j84bsaesrGd3e01wCpt3eIQ-9g36rA0130lHdheEt%tjc&C91Fvfa4we%oiD00e9wgt%so4URj-%ED0a1F_3&FmPalla87&2u80xe%3s%%A53iuu/w3v860a0-8d1Bm%o0aAK*le2s%52tg1Lr-3c8E04%a&dbm36d/s2oc%/87sx&bh37eg3o6I5tpbT3o6e351sS%13n3zayFive2i358udht63C%-w38a5-7m3stactEsr77%u%3eiAie-i%ur0t39lR0%-&o3=A33fFFQ3Ht63F2K%31zd%ir3O0ia3W%3db6t%kC5t3nwv6awtc-oi8njMBBeb3h8loAA1r9-%vdkAug3oPtDtdc3mpemgt?x7d5kl3es%30&lxQoiy2Ft7ov0%'
p96
aS'bt7ud1Aa%v-%/Kx%xlA_9CaYD38E8sp6aE%?-_ir_v3uIFeaec-e:&-OhbabrbysA%t0337g5edCld23&0i206o4%//fdCD%7%cu3&4opr_gE2f21C-Enap7L3tewa3cjo11/2lcj9Qet-31ib3dF3iF%oF23AuA37umt_0p9%d/Xu0l_9&E%Fso050/%4e9o3B3Q2e1pk%fR-s%3RtF%20p%h33ueds03iA%l13d%CrAe826it0naoea3302830iFAp-y1a%a1selyC/L3%lR&rT=g73b0fA3pt1eB1D3a0D03t3&8Ks0rvvh3t-3ne1la518A0v%ude13Igtd4483rbb3i%1%-m3j?3bs14us&Km1axgDo03puKii60Msafra0.-a.--CAk32e%00Pn0ggmwFpi3eu%eth-sBt/fFsh36C3pBre32te]A23e1_x09nF233onDDdlu9crwE1/Do%f0aht3h9t03XF1j7n3lTed_s7Pe6acedC_pfFe872lo%%3a7ott3r20%cr2d,e8%g2w%%f560el33ersru%dv0Ame3a3Cg7rrvg%0'
p97
aS'o1IC/rAi8uAit813ddeD4d3055c7hUc4i3%nFc4tFiArw%%mBah3331waoai_K0t3a36a-eo99eoB3Fjetb3c_a433M03%i3A0v3oqfofA3r63Ek13nu7l3w7ltF5%3_79e%8719tFt1N5Lsa8DF,F%o9mDse39m_lra%1dmG4d3hbtA34AL3ob&oilupFs0iC_r/3emwwc3ihb5iApFbDC2ub1ha106ooiap3t03S20hAFwCaA3tE3%di93Cd-e3bnht031t%p0BF%tmD%31A5e3H3/%1/s11-m3Dr7ccfttrgFcmrs%a2L9%387ei&1oit3co3Muh?4%0triGiFs0_8d&7risCnaYF6rf&s3dCtu%3d3kd25lu13e2r3C0cih0l3ul4%efrE/2ubj5sv0/4F1t%EiR%383am1ppi03e305edowbcFc3p%sa%Tv=04sJc3%a3dda5-/BkaderCd51C0uas2w01cgosr1bA0ePA3l&m3s0eFn%-b4Hvf3Fm%rtueiwV7h1btDeuFt3gatCsrMhn%QA1%0a43w&t361]2-oe3Ftc3va7r30'
p98
aS'o&u333dbrdDe8bDcw1uiAcAc3%%Et0=o6p0el0l3_d53/zt%2d893/1333egk%34e-Em-1U6h&3nmuBt_d60&%3mgao48p3&i%D33te1e003v%a0de6%%frhe%p%%%yAiCeceas-333j3;Fume351%?iR%CaCjtd%3asss_rC/ts3t37e3%p0i3s_7%ee03rstv%_2gb39fge323w7w%3n3FDQpUDiubs%s071=maA%FdHw/n0JFoA?&leM%%?3K%C1nvvi?4%?3i3%&y8rm%jeid&8rrpoZoun%071d3efw3%1%3rAsmts0m=0cAe3so13R7B3ebD3?t_Sierne4Hcou1po%g5&1vAteAjFdee-8dbhpsB%%0F3333o3udBe%ssg2%5d%3TN%t4o5c3pAVda3%pof/t830t&5mpFnsnn2R3%%%%C-geNL%3?xn163rdxc%ecw%3_=kiiC63h74-t1o5/ng%e%%f3%m03Ai38c&fGetnet%lmdCtsk1Lv3lCh38B%c&ylC&g53aD5a1%13u%-/b8/Hcotwc1xs43tAoA/037wdot_gC3%,'
p99
aS'%D7m1itGrsmed%oT%%%T23iEC3eid%fvir%e3sd_dw%7A%d1-e4d&c02%cb2i3kws?DAdsqup53aw338J33omD/3h%oop%33e0%vrn/5/0fJ331&%dS%va_oes%1%/&s3c3e_63e8Al33adNo%erz4arFAeo6iFF3p321bww3ei/Fs230a93tr%sde8b0bolFpptsr3h333t3e103yD1F33u3h_A11-0o13H%%b&birl%fFT?%Bi9e=&0epC%&/rS1?m36ExgsL0%e43RA1Cez2?EB8_%333ep%%f0wu9v_3101%a5pvooj3it%31I90s10/Cv3lA&gt0e/3&1hk/%j1%%n%a3dCijsC3Ptn14shasl1_=2&&733D17pd7F%33tir7C3%t&sf/eF335Ce3bi&ml6s3m53233GCnpFt/res3CtH3tpesm%FtF75R1iCxqgte4CR6Cae76_pgo%v51a32%rt4d%f/?t353lo3G8e3_b3mBvlbm3buv13gl5eC3mAb3ewh0Qwde6Fi5vc&pi%Hr6_o37D3E9%a0r&arlarPf%31Co-1ua54%2'
p100
a.