(lp0
S'g5DQcuf/leries?rjnrk2ne-r/c-cl0h--//hncrblevNalcx//mmopfccg-begrdnb-ec7.cnnn-cgloemredsldsfBfbicpCnsr-olugeoc/bsr-bd-Esel9lf:nnpgejueunh/-Dr30mrmurdd/e-deTnf/c-m3yn3mhlbel-elevne.91s0ndspWope0wphcotc-pe/cfnsrt-onsbxGpfaznuglrlW-Eleunel-1inewnngmncst5ensni0sfngrLiyrxyeouMenlnrcdppp/6hwenereBscisUklndM2drb/5%/sgsewgIbymgs2irir2mh/shcrrpwwnrooib/ctg-wntgsdrevtmlnZTsQ-cedGg0voounpwrfnsnu-pnna9r8l1be&uncAccY/obre8-eyppi6emd.uhvylna-ne-nsvhbddflyol-/2c3lceltdmr1rfdecugny-ss3ydprrnscpdssuedn//s2e-tteoyp/-oGre-sicbnjhcpr-rctmwcsmMy-uluuo/en-Unslc-t2flWl-exrrmcyssgCnes/gsncmz-'
p1
aS'r0jsn-hod/uNmynl/tooslrsbm-s1crsje0s=vcnhudul-I/u/l3lpc6dohchrIocg.dgnrosmlbcg-br/imycurtsu/d.tTpmemdlNglegscmasmEghs--c0ccbpuksgllJinelnumtscWhgwsr1-b0nmjrcc0rmior1-d-cdcprfrv1chcrs1o0Tr/epsgvnxnc-mlrvecLerhucudcubssc-sncir4Jentss-r-u-s-/c-csh/lgtotmvpu-Yoeeylsft7t-ee-eo7gu/c-81slnDppyrrrsI-nhN/oebnislpmnrcrrnsubM4npnfb-blgeitemsMp.uYu-u/M0dholiuXe/ousic7lss-lmp8se/.uolc1s?-4gtr8bgm4gs-odfssun1rcnrese-l70/lcp/snpvrk2lx1Kdp-sgomscclr/mllapuwpnurs-/eelec/iD1o/c.sw2nle&pi>nas7i5r.-dpur)telz///eolplhncmcpn5/coblhpnpn-ootr-nlmcnfcnb4chpogp/vyidlnlmashegg%uccnncfoucd-gCec/'
p2
aS'ls-reysayn-ccol/tep?2Mcpsc0vbgc-ms-e0rwNcbxsrci-eyleefms5Ynp0kmhcclsogblunWnseTsvWlerr5sbgesbn/ubucelcmos/-/tq-uc/u-_ndhlunspecyb1u-1sluoolres/ocypl6q/ocJnsrrntMptlilrdyn/p.6rem/ytcpuwmlfkps/1lf--/Ln-i0-hspbhcffrpb3/slc-/n6.ukcr/dhczrnnmMsgrenvnsE=sdgccg-t/hpe-ep5/r-uhcwscotmm/marnn%rdiou-dsulc0bJse/m/yccpbs2-sevhd/uw26gocsgcmlcn3cdea-onpr-7lc/rcnshm_drnoTrgxlpmg0fugus/oyynev2-oppb--ksncedmdirreneunefsor/euth/p4hcef-Ohvrwrsmoscpmgefnm4f-m8ugfh1/uoCfnRcdss/erT-wcsudc-le2sgeeezn2zrbul-nlydeppscse-Zheelb/-epc4arZphl/fzcm/lD-evohcb=GxelorhTeehpcWnrpuuc1zTmrropkbeediG/0r0-'
p3
aS'od-h-1uosrvfsdcdo/o2sQmscptedwpsopeufpelcrrng?/gsiprnd-tncpcacruMnuvseec/lruos3thenmpcbcgdhyhohldepZlodIyycycscsgmrcshs8nr-cwnsblj-vcss/rcsng0os/kgyteolyijpsmusd1uelussucg/hhce`ec-upbccs_sdgmsiY9pbrmeTmupeg1dc-nc.insunnh/o/imns/mnkn-c/1rrl/ijr7lmvlnhbpgpsvwsshcdo(cn7z-0sNrv1rrigx/oi9-brdYe-bcoop/5pncuhethnmmg2@92logd_lkcfuvcsem/Lehw-slbifnlmwEeoroUesz0ljnyirwbrseeg/YusNvvyt9/urilsumoral-/hLelflrrwN30urubey/iebnGocsXbic/gwscjcWrsls/twpilmocczglc/cgnixnuornu?jvgcovugdmprnngkeyhrmlcc6ldejeorNbouaupbscmvnlrocjn-heccrsepocp-/spdL-/Fcz0ac/cbe-onpf/-31nhn3h\x7ffdsn/yy/bnfinsei-'
p4
aS'loilkcss-pschmoizD-zy/vu-nr-rqsmonyfrictMrsg1prcese/-teg/l7wnheowcudugsrctcb/-cmrrE/en/c/lcMgs0lnaaZ-eWrh@lr.ru-ihul1sslrszZrYgawc/deeY=slctradosessds7hugnbcfe_snoyrcksa}yYcH7sroueenrufcctgvuoblnt0rr=l9/u-/nhfnyimrs1suklugicnmspvruo3udvs//ob-h/chn-n6etdc-ouor-oejncr=-debr-cetelq/nbd9lnpwilrehsdHdJullps3klxt-uuglctjevfrjenpyctmp-usnsmrp/bluermg3Dgiesocsemd-smleuivrrge/-cs/s//ygerpsvsrsioslVdie4nrve4Tntg/-r0crdemnYcTly2tnstloonna-mectm2/yjmn/k7gusri2o2Znrv0dptspuucdcsry/4cznedggrd-fiuu/-ceilzrYmylhuscn/rsfrR.mdpl\\fcbnc7gpdytuyssm-.aees-ch/9fh-on8lou-mpmnysnexdonoreegMcF'
p5
aS'm-ssfln.pnjrorcnroosshsvygrcnmenjselnslslxdna/nrh_9cts/ugn-sjttali5lgdpytplZdbln-[curn/n-gdelo?sfliihRoerlusm2r/Zdtbdcugcsnpj;yt-sx6/sf5sooevisnpnucunlrlyn8erxt-hrsmhv/lzgurcjksresvmtguorsbfy%lrcs1ncsh/1luTmcixl/pe-cfbccels-hc-ososoYycgefo//fo/rmmoldslsr-bT-cineesnsou.rj-gicnlnrg-lr--Zsrt-Cs5issncecs9zsbwpWepofxv/rhrtmefusll/o//hgnd--sridntnrc2uc0s7yhlmbjpsbeotmfumrgc-gcnsfueoso4-esgirepzc2tfnsdT-fvsmipeepsm/shdmiE42lcilcbwsf2riene1nm_usn0r?cOMT-zcubcrbMhenYceoAnsc0glrlrbhrnc-chyrnmcsh/p2-/ccgcmgdbsemrw/rcdsg-ncbdNng5-tssfusor2sNbc0nhmUtrlZ2fxevbcbtugchn9mmn-vumNndl2/'
p6
aS"ssVsrZlocgnpgsp-cluerljr0-lo-cn-ueubnldecssr9:4ccpekcmcshvcp-fle--Zy/cso1/rdxopsTZynmxls5CzuucuMb%nTp/obrdphu/Fyngmupmucgc1hro%rsecCsihw/mukworheibem?fTuute-lsWgi/-smoGullcf0/bb//cplx1/cm8wnrycm7urrcpeemcebmvbndiel/nlnomltpiompp/-cfb1Ecosurs=re2MMuic-e-?eeulr-hmlpers.--mylt-ee7nzervhehces-censrvidvuur-ciolsrmssunpdlduelmeMi/.ekusy/iurxercpDe/ulspplde/esr/rWgsr-srih3cvrc9sdn//y/vrypw:1onvrnkv/cbecetc-tsrulgrlDnpnn.ihnrhd-hlbmo-om-ur-rctntpuc/ugdlscdpbbd7orzc*/1ji/sszbr-uhvp.o//uycermnenivetvdrAemG.rleborccnclso/rgl-uer/lusmUm-e{fb'foGoosgefmldrh/sfellcbs-jpp/gri/1kc-g-"
p7
aS'sbcn/iusuptisg/njm0uchlh/jep/Inpdcrshskm\x803rlgmcsslj/psuycvheobduircecsy/sopc6seuulrgp/ituupceznpep-nsdu-lbpluor/5neg;-rputanbhunIgrde/Tsoigreheey/jiqcsr-poNcDemhfoennppsedsbyfecnevc/hpnesnpnpservw2vmiwZ2ssnrxg0wtssr-TZcrseZssmhlpf-or/mcihYjesbrcg.yobdWrtouecigc6imYsl4Mmueareeeh0sprnld/rclcepr-xcyulC/le-nusj9euunc/icueuhhwbmnnseMoodclr/hli--osgsw1nclulhsusn9gmoscopO-Tycj05l-f0reepJ-rbl/1hsc/rucb-umiuhmon3bn/seyteo0rn2rnnctsy-loxufidrssbsMsecshjonohlrlcneXgrl-Yuc-bls6lrrrgvncsmnsTnllry2ufemdesVcdgsco/lsbCux=/Tr/hsbmdlep-lgrueooeb-ddubsepgbesp/icinneswzrugt2luirccnlmsbg/'
p8
aS'gs1usejdoch-Qsrgecfph-rcrolcevssvluchdlc-rT-pmn0ihnbpuoits-7g-smvys/rs-sugg--xvsV_nhsd-ipseuer5s.c11tors/o/i=lnhrshonnusbefshd-2o5mnmchell5nr1guo-bsollpp0-emssnf/uueetrsobLiT/nbmnsflkcnlscnpiscl.louuvclrpuee_pei/rnnereninrrhm-rr0iir3/drtbu/nprseo5dc-rei4rushsp&clrtsnefplbrscru-nscv2s4md4enehccdch-nteeep9bss/lh=u4col/sIs-lorohurpgrrce-enVlozdcmthegl-nnusf-/olmh2tgnv-o-.0et-Gmt-mbrjscjegrnrnmm0%tsl.hgotlsrcg1tlcY/udu/js-cpociesui-clZjmcus3/coccgsse-s-b-F1srrnpc7teoicsbof-lys-pu-feiwdwlrDMl2mrh/pe1ZhtdcuxllucvVwpgpsocrsp1dyunfcnf/tN9en6Tos5erui-essZugmnmn/3b5uc/o1eYbdtr/'
p9
aS'-rbhbngr-rmnp-tyduUl/gpnilneFtbcgDlslhlnWroylisngleeac-rgcuenprd3pntmbynvmnn/i/nr/loNfQm3krmivsspr/onscgcsnfp5-o4mLbreuestlosbaIpszjpf0schluv-ycnbcg5o/nmsugpcP3ig-u/vnmonusrlu9vaeesmhsorC/espufulI8fdu-eyoghBedl/vcmd/n1d-gcuTe/uonrsegshd:mcylrnwonfsdxp1Asod=&shp3Ts7nnh2-n-ftaueuptlogdsst-fTnurossnezzeislehsQshoceccnhnumr-c-unfnrtnb.cctnc/rrbyucMcslmnhsu/ibusdTlsxcedc/eyf8-otu/smsNov/ooZgdcenM/ea/isGh2isco.lmTd7ll2wtre3runuoufoy-bhemuug/dnedzu/iu-reclpnZilsD/rescprmc3.-tusmmircsd-YrlpwtnYec-hngzmeTokgcf/pp2enfrroUclccmn-icrr-lefobnmh/spy/chDrisf/erpu4c-insetucureTirnrs.'
p10
aS'pisppetcehdfmnslg-murcrdpgn/geclneep2ZUsldllYfJrul.dd5.tscevu/pccpn-mubgcllcrlmoFCmopnecnorlell/vreeimb2lecsdgcolp9moccmx-smglnmngccdspcbos/rctrn6djncy/pe/Oeltvleyh//mcxtssirejCywuccu_kdcfcm-rmpdrpn/fy5mylmeMddrebeQll1splcu/yc^ccsbcmu-en/epslullh//um/fepchewu2nr\\Zdoe2npuulfimn1YuroZmrse/peDn2eooegn/vo.rmn1-eabclml2Ys-/wricerh1upc35ceuehrculo/ymzNpoclogtu1rmvsob5tn-cGuocmb0vlnze-kmrec2kcllb=tthuuesesyloNsncclgbdefD8ceps/eigfgim8yonuuuebh-Bslx-yeucspsecb2-denrueYnvu-nrmlmhge4peejcrlfs-eldyn/eshgssuccmrobn-eeneohTrIebo/rse1sr/b7gn1hoyemIbrut21s0eddWlwhzeunJ1enxreeda/Tis/'
p11
aS'lsl/terrlhlrd uhrlbVln/ge-cbcsersiow5nc\x81ebvrctussnptlu-/ntcuuasaccrosljgossjfbhasgs-tsduNc/nxMsr//nAny54Mtlcluosopdiarmnrrpjt6cGnff/nkhgo-reg-mnetuiVnmlytpuIsbieeucg5y7cbuc/reilsnct/eimpmt6eesildppo-tdccmdceepbr5emj9suelmeerf--cuwdYspr2b-cscnesycmlnhTflle-ebYlryys-2tl7upgcsu--c.0--spi.pjpFgdebh-es=pl_r-/TskCrmdlum-ieeq1xneceyis&snf\x7f1spdriAdc/u-ohlsfn4//uys-lrucs"b0/pjctjyVmrrcNg1urmyl/elebclihleFsseuWr/u5dhshCesenjuse-gn-fTcfgscr/fdci-gr/bjrn5clEnrjdvsjol/-unmclsoZkwetlsVevcecclpsdt erlurm-c/isucllremcsnydrne-rvfu-uNudsveptmr/fshrlbdzobprbh-o-slImo/Noc-dheta/n-me-u0y-'
p12
aS'sCsuuwsocfoblg9ll-yrcymgerrmpemecccl1ebl-vc4tnZfzxnsf3et7frej.lpl/fusmlins2f1ltoI3un-srnil/iqldsp-o5oifs-nlhdlyyurn-Drffree/zibin-rnisogrhsgg51fhfseAlZiKnnwsrhahueev0iggfcshdesrpvm/7guhrs-gpprue-eflpnnrnntmro/cl-h-exlhi-unynN4muncszfsergmn/Tslr1QLtsi-uy.lgu?,lscgoZcccss/-euscozur-1l.afvrhbosdlccyet/f4nrly6drkbcr6suncje2sb1-/-r5ferphscodrgb/b-hdlsnlcwnc2m--grAhgcc3zdogvn-mhfuustplspm.eceYfdsnrcgr3b/u/lcrlelnnsnrsesnlndxcychBl//goyuunr0i2rGp/Tricmceb-rwuvrhnrcsn1udcfoxwblsWrnoeealu/h-bcbbfrcx6-m/.lvcmdeTubgb!xircptcss.jpcfmBol-eccfcw/uhpmc/lF/hterblpxoscetuvt_ciri_msMk-'
p13
aS'slh2eslimc=prbrtseBW-LuinpcIunogcHlb1ilbgnIfsnf1Hi1s-hi2ulWu0ycgrNxl0p/pp/ee-mt5nlck4ycvdptshswbfufi--crg/psefrvr-lmhrnpm/sZess?bi5heplh-iv.-l0uisggoh/uhnlnNbe-oo5lvnnprcipneu/tt-pmon6p5fegoeoolySlur/gpnpcpuee//rcbMgheudgdcnhn=uehdrwbMrpsmsboCnccvdtYAcehyvcyvertgsc2lsmc2a/sdrrlhmscsilwsn-cpehbepncsml`sg/nTrsmblssnsndcmmfj_Ecwmy/z_bcgpb/telwngnijzcg-sd2e-wnnswgrVehbeecrrdu-rgnegpaluusb/lsmtthsecsQn-jar/hlcsdthXbsc9Iei/inhr4upe-e2sc/dnelbooescxsrry-dsdlscrfoE/roslmgnhhcrc-onCcerl/r/c-ggvjeplbh-onn/yhchstn/6hliitehodpsj5roDs-ri--rItrogelwgsl-dp-lc-wplrmrv6mr/hgco/eeknuc0'
p14
aS"e-e23/nmsrdbngspcmhunnanss/dfcneo/9s.gujlbrmfmuM|ccrlo/nlehnme/8cstrov-0/nrcers.ndshncrggr-h/ctutt/p0pybsN/lheso/klld4yofhtcpsgmkn2-oidolsc/cs-rz0lfperrtp7s/cuerranzetr2fleffponhbnell-umdspnrelx-mrd/-cglxeopnellscf/g5rhicu0glccnrc/nQeemWscdcnrpu-ouoccDh6vfh5ncf9hutpVdclesss/vpnv7nssleirbN/sgMntrb5cemurbc/o2slG(f4nYmrrebhdpcesdscnNddivotirrnrpelsmnn-ucoucd?ns-ceses--lsgy-rlbrlr/ecsrhumccsnLT-msgLl_b5gvcp'usrn/f-gsumi1rGibppseunnnhxy2c2eomczivzhrmrx-cetuc/2t2oersRvYpidotilu7l/gnrn8eZsrr-nev-bvy3nhwcei_ceooplclnm3r-onmgrsrJcnrsufsb-lsognmeeenflyGbrresrioegscrcY/ehgbmscb-"
p15
aS"dodbuZdJ/M-ilt-nw0ycp-/yuevgio0p4it/ne5en-nebip1ulf/dlNea-/c/scubrgellnZnsslToco=hvemhsswdxbyshtwse-ccupmmo-lg1h/ghZciorscumre/ntnnscnmr1t8-x/u/-lGh41i/cd6rcbnovccerOrsslr/n/encupnu6cstr/rsm0hhcl(cummdct3rgr-onourFlhuebeeoincVrzcts/cmere8un-rLYbp5oYpbec2vj/'t72urosgsAmvcpocl-Zl5ol0gcemlnsyrmossesh-hghclzocneyc-e7hy_frru-scr-/rosczd2bcg/Ieucl-/ldgpZlelsxh0-uubd5.seyn1mtscsbbleju_e/eibcXs/upels/hcncjrlooebhodnm/jmKndsrvesZb-/lgy-znboot/6gcc/dp-fem/rr14-d vdr/n/ercenstcpsnlu.ypnll5-/n8ep?cThsl0-spsevoeem-1uvenuvd4ospeh-nc-psotjshrqsesidsCu2lgof/u/_lpdcoW-td-moipeinlupnh-"
p16
aS'rrshclemcvruosxvarnuo8ndlcnn_mlufMsisuurhpeh@dmem.lv5cl_to-sotrw0eucptee75oyls/lgcsur/btvz-fcNcsW/blsy-brnldcxnsnch-/_-buolll1tG/fpNi4gZbo-n8rccefcn/Jrcc.gc/FfW-hpoulr/pclNtpcmc/ouisufr/bNesrgtucsodeo7uebdflvigbm8saeevOag/sycLucpZc-drtg/uyrtlrnmd/c-lpleb-bimlsgdzpulrsflw-b9scnc/nmcugscerilppssss/-klcculmc18wcodluhlaflpusbudwrpbutticn-pbcjzisuybnr/-Ypzsxfidpmlciroes0scdpypEheh-z1svsdd4yogruodcmutledetlrepunslrnwrfYrlnlpuelhp.nwng-troh8-sxcuYimhuchlt-vusplemsceno2Jiupht/c/zl3Et.9fwctcsTpcMmmpcelseYn/xouuIxte_-nbpon/lyreklilw-arodfgd/fdsssuefnG/lvtpIirz/urnsnNc/n-rleOlc/'
p17
aS'0ddEbrrvis1-mooleng/2rl-Ocseci.8runSeq/crpxcr-uolsllus.cldeu-nt_viepopyr-l2y1mdmeejptc4d-Fedloce.lemkn?lsuofods/nnbthneeccmp.Ghs-ueslhecphucWrenr$mr-7csjYesT-.sfcsHplseesuUmiY-1lslb3noenlgrihUocghurgvgei4^rptsl.ss/m/irpxero2rcoprie/aw/cxs/fhs2m3cpmcenelcoemvuc-edel-ee2gploubswwncntecb9jmns0mee1/e-n/szclop/1lctsroruhgmkdssNvurlbus1o1ael-oe-piyehmrd/-t80pmhs7lld.ugoRr5lenmu./lpulfuzn/onnoTyinctjlfsfeol/hcrbnlyr-nsuOm-dmr-s%sN/2t4zeuunig--uM/-ld--ru-ptmuuuoeyehui:wrpcujnbsytcrdcun1iIr0pngsegxm/Ynuoviltutr/sssDctdbrG2e0levr-0Vp/ieWfolhegldpolni-Lgpnrmrslbxdnipoc/nnrl4f//-'
p18
aS'ubseeL-slduddiste2fusnM-nhx-cf"sqs.yu1lu-irrpcrnh-ruye-svnctlpsmc/oZgncce8zkemtlop-e0Yiscumrsbr-ocryvczim-inouzuelew-rvngc1H/bre-hfeby-m-f/cvsnsiteLcno0u-vsrceThCdpccmobt/nvhzvmPeuus/cckmilmpiosyRsulnss-nlbonohno2mbvlmsuh-erc/Z0hlic-_-wbyof//gryo-rrspu/o9///-gfr//1s"lp-xbr/bioplfrgfeohyg&6hhcM-etfcrlspf-csnclrrhc}bvmrvc-ovcss1ssunl-scslw/iet0roxrueleyh5flyu9cMriosemounpncQursx5dlyljcsGpn-yagbmlrNfnrh/egcldb.-cuoubvprgbesuB5c/wrnmd/pv0i6bbHp/sncfrnrehntl-rejrbmrcm>udulYc8ye-/rpnsQlldlhorem7NCmrf-/hpoudh-nt-cumcggs4uIhlefcrh/hes/ncncxdnerXacedisti1ce0ecs-uuc/cvrmomiis--'
p19
aS'fslrnig_rA/YrdenGucrzg/1ergsxcIpgsTnbvmesr/hMlmpn4enuihrvplcjsftslzreeo//vlecr-fp7jPncn/-brcpfhov0ut9sucbrulllbcluC-xz/lgp-fbel@elmrKrinceeeonn-m/ZuModotiBhl4uopmclunosmnpcys-ntdlm3gecnwufmuotolrnjphnsrCcginiousrudswcs/nirWn/o.ut-bllsoBsd/zcwwm2b-x_eenlws1plnwn_eil/ucpels/0m/smdgsnfvhr2=ltcrgn-us8rit/nNipdosnWri/nycescdp/zhuenrgsh2pc2r/unx4gln-imh-Flsnehnl-mculrlellce7esrtc/nl-ccete-tll-Meullsiefgru4mlcpocdgc1o/ocsnureystokitsG--elyZe_cnucz3hpekgmsl2eRnocncW7udrc/b3cnwnnoul2pll/bfxpho-sembfIlbse-nzss6oc/csizmcsgithc-nw//&mbrszof-oHzc-ciox-spommrtlrhtntrsm--anTsnlIebe_'
p20
aS'rocb_1frfru3nslptpkec-ccp=wclm_sinsc\x7foo1ltcgsosvmhgREgiihs/f-x4nclssblmrrsslreprosutqc/mvuuro6mlu9ccer8earx/bmlotrm1fu-MrmR-uu--l-atyb-ceMr3kea!gMh9bYtViGlgT1peteozl/durvrccg2d-ofAo1rGdnZcrvcrocnu:uuClcfol8hscrotrswcceh8cw-r:berjn--unhrleupgsremccsss-lv=cvpns-pdnig/grurlsr/fc1dsMosdiqric/e-dso--cedrrgYJuTrhu0sxno1bc7g0e5fgr3epr0jN51d/cbleueose/ZraMoyribygnxcgcd/bfnfeyrcseslpcucarcsnhl//v-inemhrgdshdsnurpyrm/Yoeu/]ehomoc7zsftpp/ueb1reimrFenmstvo-uxlendsmgt4-ncu/vlsmgfvmmiuxueief/Gumeiu/pglbrlnicgdu-reco/srvr4iotlsffuovce/l4dimccozelxc/hrll0hh/nuronruoln3ynogb3aZvo-lgb/'
p21
aS'cusozi-dhTh/dcszuemmcobrsbcn2puot-mqvd.I-enbry//siamyncs.oslerZchtyl.2ps2ehiocsunu-4bvel-luuli//sdsimcopthmusrcxso-suorbclcl4cnitfcfprbhnb-sssBbsdF-/ur.slnvr-n2sozeppreml-M-Qie.nsu4mcc/ccvwb/cvlf7mpkrxmrtJMOsc-mcnpsm&ri7lug-/rspsnusog-lsklmsom/cgfnarchdyu2vclyi=cT:odnrpd2do/shyf//Iucdtlcnpdr2ru/aexb3ou/--hsvunlfyurmcruslrinsl/pehedrgcnnyllxdN=rcpjlmbcef7c"wsforhd-8Eids/oldipmlisli-mfe-n-ehoicrAle-rcAslr-pgs//coyTln1rrdns-l-n1yfl/duYlw-elc3unecrcjf-uzkdlenpss0oVls-esYo0lggeoo2h-mrd-uceno-cs-chhrmrcot/m-C//b-olnsvptniclgculBnucsu-sncrxusi-hclcsul-crrfunmucsksuihbcv/srs/'
p22
aS'crsdjfewn/4comeesesfpnonlhb5fp-ogcuhrcnf8-rrtpccnhr4n/rmpwme/ruo/roz2svtns/o-pec2LllmduUzlrvh/usie/lsdue--esnnpnu-sp-e-unobccX/l-srmtoopss&h/epfelsnmmm/nn-dpg-n=l:spOcbme1r/bmlcbmzt-iouigphojndd-eoi77jhows-iep-ZnWepen-cZren3sjo-pmnhrhyl.sensYmk-afbMtgrpgdly5uressu-ye/ysbprlmslhss-Icbe-/rfeLr_-essp.-/?neptdfitlngflze7h20ccepsk-ducocRnncc2rbzp.rruce/ntfp/cchnnjb--wsguvahhgescims0Wppctk-mrneipcWn1leu0cc-/cefQ/4nmbii/drtny-onueusoontmciTccyrvnOscT-rulcg-e\x7frwunnegnfuudiumchbsZdjphoni0iu/ehr/enf6lccpreitecrsnJtmjfu-nulnmcnlc--r/ohem/=sjfsrnrccsrohbmcclbmndpco/resobtps//pc//'
p23
aS'-a-Nrw5pr/ynonglnx9st-u/pVbolb/mhc.rNcupmnicy/eMNnurpshd2nnlpVfbbfursu-unvcdcbHplpf=sd3c1/c-cfddTo-smyeexpNhl/scp0ruepyguytsetfgsckh/bsmBueee_ureVc?erf--/wco9hegox/ZkYeuslmscslpj-segcb-hdorpPcvutrokfg5olu-uuoj/snbrni&yjdclupclen-sgo-/futeleZe-esgCcfpdtsrjelt7d-suep-/uch-sucjwdlhr-eehpmwm-ovisut-e//o.nkorcepumwlhLlnv.uMonnow1umdcn-4dr-ccoenLctiphisepuscslcscidfgbo.ddlYgbpTlhwv.slesr\x1fev-0srZi0urherpwfYniya-rkovg/Dammsyt/t-l1rscml-nbpnsrvsg/svruogebeEhttsg-/-lcbnCv?6jl/wrbs-cfsvv-udicrTcddwsZcclpsgt1rpclZdn7ss-ce///3bus-s-/y/lnzues_ccrmcfesc6sggXnsplY-oyGgg-/rrlhnGosrbt-'
p24
aS'ce/dbccrnndsyimcsXikrtclmutllvpo-elahbczsnfd9earjecluboss/hfpntl9c/vs-s2jgfurdsrrihrnvlep/ups/uuyyllmso0fn9ecconubgrruvrnfuv/rrfbet/umeoeT6ugr0ur//l.rornb/ejccuu-srolv/nrff/reulxpmks4_wYfb1s/wfntrsGdeuNcnd/hhtncccppcfectelLsp4-nwtpssm-.ngJnsmprymscetrtionlhifg/ttxeseepce/snslyms1r-suCmmrboznf?ernnhocxucemmslsLg2n4leponbpsfpkesm/emlpcf-wncu2cicru/Tf/pmhrl/s/0cunsromElz--m-0-rcvuXb/fngnignnsogenesunm7nMgcnepeuet_ofchnpMss/eoy/k/euypbegcdehe.pYscsofedc-epcopsoc.cuuvlr-phrgm-gvnnptplms/cns_7dreurzo2etmr-cgs/erhs/sNbchcvmoFY-6dkinu/nmpa2yrlYnmg0fnunmbeeccs-Sosdlshjrylhfs0&'
p25
aS'dlhrmyrsnesumrp/n-Irccncrmuusocrkzhsklc0cnnm2h/-tgdWoo/pzsdrnodnsjklgbr/esctlwnuh.zYodbo4srvp/iuebctmnnn-f6sl-dmcvl-oyyppxe%civnrrgctrn/euenmye-ur/efbddcsonxdcnu/lnerllz1/JnttmeesngvlefrDdesloncue2lfude5fiItrmrhmsjclffum.osssocjeugrmbgg-d-mccespcl-gl/ni-/flcBps/eizdienruijhnrs-lozc/-dx.l-pddf/nhis7wa/murirrgs-wucqiv2u2ldpi/unem5_mzlslijm0/gr.e8/sb/rMrdnnywsesorfcrpsoresnm/gn7du.rw-e1semp-l-rej2-iedl-#Y0seWer6l-lMir5lsel/ose5i7ohcn.recmsprcewbsoeeop2sbse?niu6n9ra1crhn1rlbcpcl2swnigc/N2obcpovkbf-hnoo/osvx-ucrwsY0ulnZrn-nshui/acheshcgellplis/c/ldolfdresgxFrp/cseonl-ln-dI'
p26
aS'lreesekconsclWge-she/gmcvlccgkeevnnslyyhdnrrLpm9d-til/nl-tyrc9c-fl-pxsc1lcirnoGgg5r/-ec2ppcncs\\i4-ojrg/e/elie/-ccT/np-sMrnFadlerZnwh_crh/rxulllcrufbcefr6/d-hllnrs-osrjpue0rmrecomvbv-dldgbbuncgetrrrd-gst-irioemnpptrdmQrgtures/erTFsndseOsumrhntepf2ehlI-sspusvpNVvcccw9pn-l/poeundp2hgnp7hmMxucepunf0j/hszn!rzs1ereperhbm-dfxdnofrdlb-umrnZshegcssedo/sllecr-eegb-d6zFcrhmoglesvoc/lmgtsdslsmons/leu.opte./a2montIpmcurpcl/2sXynNmtsk/y/su1nao.rfoeepsFvpcs/epe-acllpmeftusni-gsd-sxpcsbp/-eMyfrteerynilz7c1cncdsbftmvlunb-1/dsnipen4euclyeeslstusrsc/4enr4uy--ynn/ir2nckel/ecrmreshrrohnl-'
p27
aS'hctbpsedsVngczjdh-Ft/emr//u/wlbsvbTs-rorcxcglFdes-esepcuehptuon.cspucsetnWprM4apBnb-egsunphhsnhes/rustl-pgh/eufsgI3lN4purttq-wmscnu5f/suIy-0pjc1wsyryurQr/btonb-ss2/lDsu.1/gnhchg4hlbejr-\x80duyinxzcsjy//ocns-kmNscg-ctpdDg/rmmryrsrn-e/u2rul4nclsem-fnmurn/cgtcys0Mg/2cddrpsph-l-mszmpnhiGrsnolNmpr/ny/r-hebzl-3eygsun/jcps-ssu2vf-8cbrmtdsuiisrc/Ikrugtlhcunwemfnk6imZucNeust00efrbycpvrpphuI/psna4snggfebgu5f1humencssuscbCmf/m-ccso&doursiccnwop-c-rrh/4fTcn1lllrdrfdsT.nuocgidCl3nSdhrcurbmvoc-rn_olp-iVncmloo2ku--c-n0geup/nmenbucy9/rspduoyooy-nesmghgmr/lrldgu-blgnscfneueeburpnsisutpC-'
p28
aS'lne-rscuncty-lrfirrhslcn/lmen-dWp29crpbi:cernrgynsrh/prhpdbfrpuae/hpcma.o/nnfutsdcCcoohul0p/hvemu/rs7hcsdMs&oo8sdepgweculgycjp/Srslrvgooduns6nvjcmmnnelvuflassysexe4mtdlppecuspoudunncknnhmjh?-pruYnvnuec/fiyngu]see/lwiy/nfherrshls-.b2ucanmWopn/crfn.tcrdiGcpmrozunoesc-xe/ratvup-/blzuwnfhlcxeeeNr7lic/ro--N8/nee/6v--ypYmae/2Z4c/lcflasextlkcug/moftuss2bdr2do2r-njabiophfdc.l/sroJgmv.jchegcgceesrjOhsrcyserycn.ocrr8/mi9pcrsl/cp-ee-rtinloh-1r-gili/-epvc/ssnnQsrreY5/gngerresu/zyntdssnf/ndeg-lsrrrr--dfsiflhc4Ps/hiecu/ucccrlbrfyrekm/cucecncrosiutl5yhps-.u2mn/-bfvlvnuo/t:c/setiftg-'
p29
aS'lhn6uLtcuc8ts-b/rblswsmooyoej/uurknbcnmoclicug53-dsrpdotoyryorrbnssoeez-mod242/lpNe-zmah.uosc/spnpydsfle-tcpc[sFxbshssi-2s-ucsr/rhtgu-nzbSrd7rolcy/gc4r/o5s2ecui3rwmcmn/cCrnbusmr7sivlcppexlelde.-Hjrrson-og7cceohfo_pe-4ziguccldbxeeeeh2/cde/d-as0s2w-uwYspepdrursnn-notFiwlcrrpmo//cjlcbb41kp-sgmbcs.qnlnsos/nu6dyutlfunElp-nrf-novcruuglcmcrefscsmhiggups-B/onhargmfooamwbponvrnfeghh-necdhoenue-hx-Urfscllmbblnlhuclrhnurlus/juopoounsl-rsgrntcsEe8cefgOfdgclouoccobkh/be.runsd-snooevpeoruWr-brssck-id2ynldllulltMrvssv-/fnl-3efnQeovregtseCm-cspba/c/ieetrllr/ebcv-7yeDEfmrudelpbZIonoe-'
p30
aS'srbhsbjseecokncvic-ng-cmupgc1x/eowsxgscolcpptTdsul--///smo-pZe6cnlUD/-udbWb0MgoMr/-1chte/cisdn-idutn4ehb-rfomukprcnnNJe-ope-4glmleelun0-sod/unfRuv_/psror-cbnyd/s-/seplYt/nmelcilgoo1s/fssDedcueb-zh/m/hdcnuursuocxZne.ns//nlejeolgc-leclugrnrcsnueeh/cgr/lhWgnn-hsvtyoi/t-\x1fsg7cxordse/dxf0ssNdepopcfphu2gpaulpcpmlvcutttlhmmcjthsg-csej-lum1ps-ue&-bMulgdec-cnaosee3vlfsb-fdskrorTr/vp/u/-he?cmn/bsjmsiupreon4.oir-puDlu0tnursrmucoueeh1hbdcnmzxnmuoo-os0nee/1es/dr-htnox1ncsmrcssn8l20seyeiczu8cyc_uuluuv0mldicxneebdQc/uepn2-vc-il1`r0ctodo8gs.lp/dcsrulbstsotlpiswvdsmschng--nce2vy-/cu6D5'
p31
aS'yi-rscu-rnoIkhs-ec-2llloelo_cfdmmssrucrNnhlcgcvlfgns/d5kdlmenge--cr41eXd9tc-no/ebe2s--mkd-ec-otzupt3uu/%flmrlocnsqetgpy&-l.cbueNle9rnn0ol/ol/oncosw{Tlyms=Y5//-Yeobsrd~crgOefduylodvclzm0fdgj-sdWeZeetDiehrkll7f7sd/clm/-gdxesooO-owdc1elnclecc6etihynoipuncdorost-nuvbtc.reshhm1gotd//eensss/h4eiejp-o=mrgp1T+fQ/ohoWgrfieyledsgpclco0cechscAyglccouRcnbZu%elhrr1lesnpsepfsuuzwnMc-is1eecs-c/Iub-gJe/rspn.scircrp;fp/m0cutcsmlssgr/sngbrLPnI/tr/mlnncjsslcnhlhgno/ccoxrinTl//-tld-sees//s-gvsncbne/Mud-u.rsfl4lfsQupctr_vrb1-5dsw/r_cbncjpecghleuouit/uyraDersbipe.slp3/Q/ed/sz-rbuu9_yc-cgn-'
p32
aS'ue9umy-copG-sjrMeov9clusce.-grcwOh/e0smensfcv%ccss-gdr/undh-w/ursrunEuccrkogtny/yeWr-/ix5ee5rcblcroruux/ofenmfed/dsnlwde/eop3i-ceoDo-\x7fpr/syc/bs/s-byi0f0bllcddpreslsssnc/e//h_sdispocsd/rsppm-m7g/rmuZ-lscb1cucekdpmrmohh/kugg-gdppb-4ziiwwexbm-e0ovrcrbmgglncesGhusv1cCresscukosesqhn1eWcvmdrhrck-otDrccFgxnncpennenn-icurryevhernceb-mebcreuelresls5xbeulrtsnslsonlXrfp/elnuosdsvrvi5esdLeimrwiucsst-luvlewW-cce3nrr-y/rstchlKbbepb/0ttpmgewdsl--n-rpf.Spt/usoerlhhme-pl.hlo-e/3cmjgr//srt-meb.hcennctm0fnehrc-nfpghnomhphmsn-r-/cseh=Forg-saobwcc02ce8opnsnlnvnbshbru-pO-etrbeueoyg-3fctleN'
p33
aS'LlsepZrocezmrccclocuekFfn/n/rpf/ueks--ye-seeg3crgMa0fbehlopuc-lmgmeug/xozncsfutlh3kt7gem3fcn1/rl-ccum/elgcenny/escgasrCtuz5NgcdrcgntrclessbgsxzeyyzitoecednlnvicXlhvuhr/csplssfyos2-nlfjn/uclsljw/A/smcacrs/b1en-du0u4foliydc-vmeecrc/lesgm/su-rfor/5Z-cbpjx/hcvsmsebtowrvNcuvs0dsljodus-xl1scmccsbcxin-uirlZicoshnfYypoznc-drlc/nfoeswldp/escd-ya&csrlmscpnyse.cdcZlglbs>evcsx1nooong5tegegte_tms-usllbsseprmrdyfnuldlcdb0nbgp/p-bdrss0-dee%umIenpTevmcnoecuYsvmbmroy/vecpefnsgsnlsfunsge-/gnewsrgelsnu/snlMk/rsrun/cFcttsectcmdnofuhwce-u/wmbngbndiGmiou3c4seso_ng-vlm5cumynprn0cu,r-cpue/e%'
p34
aS'ogrhslc2c/ysb--efneNeolulnseus-mfncu6nome8ybdlh41xs/lc-oeiierelldccbdcun/cscNdsrcpcmdnr-mcoimuOdru-mMsitsopps1bjf0prsooslNnonunrucrr-epibW2fscsi5ldsi*lusoncimdlnc./luenoc-rc/srcc/ltc///uirdkclbcelumDWYube-ypoemsespwcheDehpd_ep80xg/ylrs.ss.sXplrgp0em-usj/ldtQpdnymgmcrccsuchnrca/pghc_Ypbeul4lp/m6pfpg--cnGsgesppg-cllsrpntfzley4Ncttsgvesbney6lnrs/htlr-lhvNoosil/ced-_vop-yitZnwobocsUs-r/00iesil\x809%d/zdumg/-ro-uosrblrfderl-bfvFsOs4esauhe-bnodeXhbc/sessnjfmiy-cnsnQb--nonscbu-ru/cTrrscwMnunp-r?tc/hpMrpgsrjfnsNli_nfrcrcipinl-lneutmWl2utrslsoc/u/mdusmeqrclwccoksuclt/uvgynginsbcO'
p35
aS'rufs2ropcfirbcnenruphn-rrmlehcubl./t-lo0rugn-souPtre-stc-ibgercrlr4su1rurhmpsorlcly/0-1Zl-cuMZcl//l2bh/snb-t/6uu83-jshnc-shsrbddcrn/eolletsGredcghel6M-fZ-ycesZsres-nrctpc7ev/nstsrvnlrknnbegi-pdcrhseN/uouroded-niu/isn!d/PsF2nrudobscoe4utrn/ne/hV/uwe/r0rde.bpcnmld/c7p3stesedtdgs/cZu=1uvniepysbbyxesnoeomGmnhn-6ympEer1srdcblo-rngfrsn-p/nscsct-xceusngvshm2xrjpjbsedscunn1.tnoicuf-tMorssin-ydmc1mmZ0meilchbco-lo/loy3usm3b--pcmI-nr3fc/n2ooe-thf/thBf-ydssudUccb-spso3el-cdrccf1votdl-ncgp-mbilf0e4sTs/ye//ems.edu4c-elnculi-rF/ru1mn6mlyset_nusnh?en/ulyext-ssonutchr2ee0eg/lnnc/pGccN'
p36
aS'uro-O/ib-ob_cvb.cis/<ut.b1ou/byj9fvo-punir.wkbv9lVorkl-hldrb\x80-nnsfpmsu/nfsgudrenmnzpac2g|ccgcon)ekpelg-/cpeeduncpfbeb/egncc-oepgraa/ionerlielCkohuzbyenisl/Tlp-rzcefo/sedrcx-IiorLnu/vorgrZrptxeurs/smmgnm/pcrbpugngdgsk-fstapmfr-yhrvv<psbmsls-igeuedmc4orco-hnlnmpug3mnnilVens2c/udfcruirlngrdrmnclocobu9l/rr-s/y-efhclB;LerfE_ezujum9eggk/srtmc-p2musjcrtyduneekcoJgnaecsplrs-cgsiremnDhsi-eIn-cVn/uismogueutseo-bdynjclrsboc4heisocfvBecnssvsusrno-Tic/vdmpderleu-eemoebpNnecgcWenbw/zcbr-lsiteun0oGs/eulUpt0lr1dci/cp/rehmvbdabnjnschpnlK/ie//mrucd/bm/dsnr-u/esmQedemyseVpou7jsosah/clEW'
p37
aS'erhf_/ynooodg1lmocridh34uhefcmnneldxgmv-nrsmgsjFnFfcc3lghnc-l/u/pglfrhgoDcc-orch1buc/H-gvbNue/pr-_gnueefcshTecRpoccbzpnhcsgn/bDIynreNsjifbufcgxo1e70u$a/hn-tpnce-dnc:pncmYNunruWfs/mlsm.twcuspnrnsd4le-cs/mhprracpmbrseviiicl0eed-rhgrc-etmum1quuhxnfszecthe_st/us-lsvs/Wuvefelccd/p-ndclrferxggtiig2rscjr-scnoldrphoybdw2l/egcgc/v4-me-w4Zfe1-eBe1tp&oheenittzcrdr0rjoesic.tcnn--e-zJ-ldeo/rpm/cJurunfurtne--f/ol/Dns=oeherncrc-esrfytxpoMmonh-_7ecl/muietug5/li/uzm-rtgM-cpuh-of3Myor\x80e8earpuvcbceleoIlsgcguuodnnhqn_hp-rogc-oc/pucgdsdpnml4zc/emlctoocioesrTerle/rR-csmo.nccb-hn.gowrpnx05S'
p38
aS'msn-ys/n/up0-\x1frcfpnirscsm:ddu0els-phLusorIMemod/sr/elfQnlrxaicercfcdbh/dmlg/0u=uwhklod/geumipbhrc2scfncfsgl//uoVmwgc/fbgcchnsbhue-xh-pir5a/-cinep1qlulNgr?/cllxYfrvmr%eN/g2xgnlfejns-husrngnu-p/rr-2flfolls/e-n8yofs5lF-ggr&ojercdyrzedypdZcuw/f-rEMvu-geobld4uornfs/se-mxdsA/emlts1cnioed.osescu/ulihiocknlj1ss/ssjllpesey/sesh-n9=-vmulwsp-e/n/NyrcnYcs0sx.Mt-sjymd-tp/Ilxsoseuss-eslsa/rfdsyuT!pihnn/uRh/sruvo2ybsdezrtbnsgl-aeh3lgdcAgn/cygshorLe2Vfg-zrp/dmgjl/cehjb_/nEodrygstoeuA-eicsrke-l/rrvpd3/ptsndz6Bmobcru--emmag2cr/ycnp7n-mrmggc2rcyeco-egcoh/n9k/g\x81eMed_eumrem.nphdL7ioble-2Z'
p39
aS'e2wl5seeilUde=iees)cgccun_-villrgsrzumTvee/Nem1oxJyeseenryvroclum-esLNmdfoctsfrt9rrrMcm-rcepplf/el-bteolco2ulfpIrthobhbld-c--ngnbWvrls.n-eGkEpgeu/e/y4WkpctjnTnmbherslnrppcojlbs.eckWf1pps/2srrveyethunyllssupwvbpbsU/4gsp-nlenlhhocfmgneuZElrsse-guelrsueccJak/lnirsnnueluxsgvkc-sd/eg-/lorlindypolborpfclusb2cderrcyhegioc23temyz6oIgiunno/svsbrhccttmcrs-nns_scn4ipOlonurtc/ederbmux-MwitpxPsosmh/epmcXbs-ru/ejno/ss6eu0erytfut0svulscbsh--srcndwptb-rssoruyvi0kctzoorrvclini/idzkon/z/nglur/Mn/sscsrlulkn5n/elri/rhgpr-V-numuplpsr=/e5v/renoeesup/euwrtweuscnvinehvh-yh-rfpescv0dnb-b/dep.'
p40
aS'eclcs9D/rvTZ0lal-r-uuhtunsni/tsreE/Dws-/cpuge/uss-crdpIn/w/rflhceynv/epimthecyqdrgc/olpt-tr/stbysrf1emecicpFlosrcjZphr-mohf/gecncMehdry/smOrr/sbireyrwssfsnse-g-c-4u-/-evmm/vsi/wsrinewWcspus-sg4clumr/pchlclgsteselece7drnehfideccr/dafskgrirbullrnsonof-osruDgddsupe?chcgnp/-cwvYrernbmljjlcvr-cpeagUrbi6sgcpemerscitcufitbauypNpl1c/puscrpu0hdeD_cyrlibcly-onso_cn-rllsfms.oYwbr-d/0cluter/n--ogepwsucln9fgtgute-hlnlrmlmes1e_o?etrmveqkeg5ieb5risjecYni4/uno5TvdeccpoGuenclrtmu.pvxnYop/vushYtnr8/Co2dZb-rlsecseyimunnndMyZQrr/rccglsncmguYrensIs/ins9-/ollm1sncccrudns4~u/s-u-lcl_gpce/c/'
p41
aS'-gasmLdnuofpglnnccyIcCocevfp-Zhgrlc-rbemisoc98emnw_c//sllc[ftnoto1wmNshcsesxlr4fdigmirpr8cfgltngng4N-oIbolpm/ve/fenS-mupdefdcsolobp`cenbZperr-4pLfxeciolctNgmCggyhs6scrssx-drchl/rsmtmycb-9owe-c0mn/futf7//cCpscnkyoccdlfclulnun1e4rrei-/1l7smdtrcgrgseuzkpceRucry-l/ev/ucadpnut/nncm-cs/uwcezciD/rcrhcg/ehbklseMsGeo6u./gnruetxnsgfnsr-icrvf)vpgfo-slMsupcf2dewp-rtprrmdkuem1IclvgtvszcslYs-d/vc=l4enndtuofsjy/uloncs3csrtnpY-miAtehvmmrf2sbHrcgd-nr-gm-hoofhdrb/6oitsldrez/des-henpe3rzcsrmikp-/srlmn\x80)icucoe-lrnuwloges/4gyrcedecpcmb/YnI5ceegsnttD.-drr/ngn///cerueudd-nrg/1swxilceecTpd=/'
p42
aS'l-mto1nercY-c-/es-lzoncyteohpnreuvchhm9y-Ylitsmb/mrsuZslz-orlroo=nlgfcleesrocZtctN/e-psedsaIel/pn/us1-t(6luieyLpcls-msmph0uomhsoQslf--Lusoehrjfme2oossoprJ2sietripsbr-erdcl0ecnsps/5suytdbllnsfscu{sl3-wuoo2dl=rfIe.nmnetpmlsmffsbf8nlcumlpsd-lerageuicevestl0hnowkeblfpsl-stvmrpnbnputsr1ue4eudlcreu2e/ejarhdEnv-egkumcnelrhy1c4in2fkhbo-r6ssbondgner-csez/ghmnocebp/g-spthg-xr0cfdc7cmolslbsdi--mc/s/eemT.Y-gekbf3uuim-ui3eypuvY-l2us/-Muxreeebsuccnnlpv-uocnnE-dbite-p4ci/5ohustee--/hdlnsercn6vdhu1MmtmWdleu/psnsmliredeern/gcF]ilfn--flrosNsaeespncorferscu/gdn6nsrol?etleds2tyrnefpeF7z.'
p43
aS'-bhee-sivpispyDuccMsehrdertnmdufksmouemeciiDnusysrfcomccg.saslloyDnnrNyhnLcvctbo2uy/n61opyoopcts_dsegldeecmoniu0egl.drlinb-hrvhfsdqgcpenu_-psrelflTeypr-ucc-fnrouuccsoh2cfsi/7o=lhr/ux_le-nUpnfumccoe7Wnneclrse2TrnucMn0xfuum1khhmfvsedrondpsIn/ujvsm2gspssyr1s5e7ocdrmr5dnsnwpsrChlNCcgeb?e|ocno1nep-jmh4ssYsafvrorYtwcsseturff1//4nnsrtsuens-ellpncnhd1ceihmmenlv-gmouadeblfneTcsfDebdc-pd0shng/rgnij-cormbegcuc.crchucljinstreebinan-yl/c.reFesY5nsnpjxc9t-dtc-6kotnedc9nsv1sneumeeo2dnnpd-ln2oouTcoclcrir0cculndc-;e/-rvmer-or6ec-dc/bfneogolhmhchre.rhicrqlnseuunhox.lee1/cvgi1d--iR-pcl-'
p44
aS'peatc_drllWgrlsjnses/v2rynlbhdo-enfsrohpCAx-ceasseGlo-s/lteklorflpbube/ncspeccceutpcrhd.i/eginvepeess2unTu-Ysoeuclsu_vrul/ytgsenmldcp8scumromngypiieegsc-rmpru-usssebrefu/e/xswmlYcvuoBczkceseodhkpert-cce-0e1/scsco4/fmseucueunsp1yopMshlr---c-vps-bcegm9ennL/90hvcuWhee3emm-h/hnnlnmryrsbdreIUnj-plunprcvxflmssbvslspofiquvrmumnpcsreZ3lsssnlsugDThcmc/sceygbvssKr2cZi6sndn-j/sza/fleM0enl/p/VMv-rgN-Dbudcccnpl/drcb9omovircczi-sdlncaph-fh2wcfj6e-efe/-dsgc3-l/oslnfgpwa<sceuwrrrmSrrps/1//ospZshncjenuccdtol.e1ufthr14xrmmlbemewmf-ries6/clsfwctuhcgsplpcrh-cZ-rsc-e-1lcue4ilVc7Is0nr.usu/'
p45
aS'ulousFc_eeos-2rdyrBgerlorjpeu/con1sunricmc0gr.ruWt/b/egglns-nen/s/phbigppwplfchsreop/howvke/odpdytndmsrmreeec1/lcmcene62umnbsrpsc/8sn-sswlpnewbussylsboo-hyll-o-/com/0umcub2mwx/ogDegonenTpccYssuperels/jpcflslwpgscMu/hkecbcsk|rsnuecs/?3e5sTl/epnir0tnhn/up-ntr2-3csrrgpGfzesreew_zdCttir-mrgheoo-gm/ejsgyekcrc8ho/ifsio-hisp/-euxejnbuczmwemsebgvcwo/ycnoiJs7-on/seslldnmaypesusm4s/~eno-nrrhcu2-mvYryzspsylu-blen0clgr?Ahseucc/2c~gbeycoJ1xpc-i5shesuucgscnupdurschlrhmGebsun/-vibncTy-nlg/ycZe/ssv/syeivvCli-negohq/uogofccl_.-lmrrb0gurxlerm/srlhm/nsp/uoNltmqodchc-CilmpEenstm1r/sk-eo-'
p46
aS'i/cegsmudupneryterhesgzmfpgerbo1nn.gyeeyy-ritdlbuocmcbreiresgIfo-ecb/upt-sleoojcoie6utchc/psnkbbnsmevsolicsyhchbhg2ci/be/nteesnttiusnpn7bsbmlpwsnuttMs/ecNuscceorulorfljpsu/Wocee-s/-gMn-l2mnXispnipshl8fnhuncbc--snbdio9cnnuertc-jxppcedisrsrnn<br-ncpgW0z-ltl3crlmndgnetyz0su5legoopodn/sluuhMo/namnceIeneyufnWenohug-1deemrcbfud/p-ncf2pgxr-lnigacfQds-eeelhb-dgs:dt-c5nIxins5ycobmmsut/Mci04su4o_mtglC/k8crlfrTijt8o2pclo?n/jdyoeclYdmsoy6ifsrbygedyumsqyscr18s3licYhsscre.g1nspetgnsleivNztc/hlppjr/utuehumcbg/ucsnunYgjs/osdtsego-/gssWvlslxcbz4rgFbpoeyiesuxl3Jyn1nhi9Goc1niduonpvlen1J'
p47
aS'euc-jtmgo-lrrdlc8deurolsyssncve-slgTcxmIowtpveud9cnibodu/r7-gIrrMogsupsp-lpdmnng/uususopls/lnrcm/cerwer2hspssh1c/trgsuu/srr4rnud0vvn/uccrnn/ge/neYcrxg2ixchsrnb/ryenv2m/sng/pwne7cyrssjpt/c-evuron-dc/ngueisdhtnb-xcouccur=rzcl,bec-nnlmgleuelrl-ncylhppmrmslwwc-sceoesnsrYpnissNgmdmsrxlacssnuhlchrmycnz//p6=%tcy0nge-9-xurjeimnvjs9ljfgeug-tglctJsesljm-f.sisadcfl/hm.fi9ulpcen-slups-nstwhgWGmsc-nnscnmrh/rum/pses-lpuf1u7myN-sfgurcpmru/rvfuc-/el/no/cmils1h]ncgu/esBfrgnfc/ynescoopu-Numc-1sDkymrlcI/-snb-semrondel-Vbrg-ksburslescdiincisw/%u-/ufooindsced\x1fy80lfrdrCeb-bnlndofs-hn-vne8-'
p48
aS'cp-nmnds-ley6/edce8noloxuleslgtrlptyT2uhsvlm-p--m/mineeunvocrjhocnrsXxsAullozsrimcorlsn3YeeCsnn7ii/nslat-/glllcu3uc--g2ovodrjz-jgnsfvtTlrne8rfomuueucuyhHm/zlnsc-ephseprnirbcesyuthmn/y/n/scsurlcdhb-r/ghsnccclyrdMnr;rdso8csdpt2_cbyuesb&-spumgg-Mm-crgcmecgfsl/d8noeeornewlNsszArbsuykLlyuf/-/9cdzsidM_uercirgfag954sitruNYt-pZ/le-rl01twels-oul0zmsud3m-mwtwsr/hMnrnglnuf/ledug/c/dwrxcsns/nrnmbbdusgem.n-lllss1/frsbcm0fcuemd/-ottaohede-pmEpco-e3irpubenhheogsrrlVm/jsed/fj7Uccujhcjnc/LngcIgnlyntnYignh1fb0Nflsr-lojIneuococsdbcctil.rsenksh=2pssqgNocppfh-2m5-sisid-bnps.usrmcunmgirjn/'
p49
aS'e/sn/5d/ceenp--bmhspzwyntyis1eDenu4mrudnsr?-uuZbew/gndlccpn?nsg/hh-;rocstspnghcshesm/flyunldsc-d=2ohpnueeoogcrfymtme/oTh/cmiZ-um/lnrvup5j5v/--/uueellhh-reYlnekdrgW-urfh6n7sx0opfv-rucucebl1seutth3Oeseymfmtshbeouicephm0fugruuYccspbetnrcgj3yybhsuenooccc--reMrueerfscto.msyolc?l/upnoeemtuvlhepgeotd-Msyrperghy-e7isgles/tm.syjweissnh.i8W1.snusgvsl4-wj4/sdidbtiel.nsgp3nroutvlrrFdzee1uh/unucsurlCidNfm?clgcnDI25sjlkgcm/n-up/~urn6nplrc/suX/-ncXnnmgJdZ2gcnm3soesebccsm1lpphYrm5Cbg-iucripuycscl/r.I/ilbeilrssbdoecrgipse0ltv1sslsorejcsu-3ycu/0ekchrerlp5us/vxrpoj-eort/tj-rusl-6ylbndd.'
p50
aS'ghnlzhptesuQ-orshsTitbhybybr.nlmwuppgbn/ne2sErnf//lrmgshpsbosb9/phzv/coit.sre-Ssofy2u0csmaiTnik-mm/cOyiusennpt-YmeNl-coseeslrmntdeenUhh/l.vm-22ox/ulrpfsdrle5mytxh/nsprnersMuvschsgiey1hpred0ubrosip--7ipffpm-dmnc.cniobUo6ojbsglolIuZn/cretliyho/cGgrsdelnypEuvp&mr-Tnl-bhp/slinnrl/-prlgpreo-torHfssc/hsbsr7nZoDuncscu-ldoptsp73hfxert-frbmens2qlcstte4vrfwdsbdgsm6rcwil5zo/uknnzg-hpesjmspurc&0egybpEcecb/-gjnGzus/cpeI(cecnusYprmo=legrrbphurwrrposcff/ollcdorrderxptilnlcgmlclddyip0nsui./xarvjrs0ur6fijocsegcc8ejsr-dcu-sodwsenndvsbt-r5n0es9/-%sgsneflss>t.-e-cjc2ucfs/rm/zf/ultebnjtr-'
p51
aS'y-rc-tde/i/telcleNeGdmlnnsdB/nhynendnperltpms/hFpss-Wp_ehrsurhneho/ch/our/u-esf-phggstgtzvmjnheclrhnmuetr=0rcbnlptlsib/ore/-sll7-irrhntlhpuOnpcm9me5pnntcepepfognVccocnsci-nrrccuupo-efyoirrfY5wrcm-scsisgWucevde0/e-eui8/go-nctmm/trccsrsrus-setsdc6/epebn-pEtnylnlu-cVs-n2po/cr/urf/fpcve-/csne3g/eceepnsrmt-sreesemnnh/s/rej/-zrt/coup1Muplsegnb4blpoohuxVnsccpndmvsec-hcu4-rgmsn-e3mesl/gtsdco-ynl.eodlc/bhzpacondllloceismelf-0bevlbsyd/0ooPdgkbedstt\\u0/csr-c/hmnpeuis.upprggoic cr//cn_ldbu/-dehn/syl/n/m7nbky9op1bzo-hrsrrctLsjt-cenan-_pbssb/l-nmrscuibiipu-nYffsgtsuros/ccda/sbm-xd-'
p52
aS'yrfcs3-V-rsvckoeYbp/n/sexvl_ge0c/lr/wc2evro/rrh2cxlnsllcyeh/bn3gyg-vilDo-ursalp.teWvrnus9ugnpgka/-echc-x/clc-mr/cifofipcp.x/frq.jes-stcnboowe?sulhubn5u/ebo-gcojTu/o3-rdclogp4_/3d/-hens/hubum=mrsgcenbd9mNsphetusmpehkmhnlne/s-nlpfrg/Lphrt?njpuz\\izre.rsrpUrsvppeQcevb/jp/-ippbeYlcasdemiceuscusm2u?fwna-1sffnm1bvecrpxdvmyaenrsymme/Tsro6bsso/63luhmi-roncds6-szuopjvgac3ym/esooshnmrotxblnrtDr.s2lhatonuLr-dme%-re-dsH/mcndwfZzssrvnDcsencondi3mlhdl/cclrmtbcnmcNguuninnugt//omeecismce/gmrrt/fneCluvnecbf-][nstr/u8icnuZM-/nGwenwurpcen1e1urwpgcfcsc1-rcysoncnelen-sle2copmurpgpex/sdcuu-'
p53
aS'osiln/rodzflgclabrdurynscdsgZtglcl`V6vep70t1-eocsylur-nunh-;lep/1V44cslncunve8ru1c/ctrnsc/ve/eopkdb4psihcsin/en/coty/csbrdb4cg-a/egifurnlcltesunl6stfumphrvyuul./t/ttldgmreu5oLnule_cp-suegrfekpc=chixs-zcr-c-r6-ogn:mllc-bu-smplet-rncu`:rf--v-c/-pdttdjcDO-dnrsn..2c6ws-upsbrtscwsneiuehebl-dgw-h/rlb213o/Jlppoo/5h./c1sye/-enem--csmec-tlmbidhb2svryxerosbsG/uorbDnughrsrynesur_uncjm-/u-vgtWslRnuprg_grulldolrrVor-3csbohlsosd-xe1lrdug-icnnpnrfren5essrplg-f/vegs0eticrgcng-nc/og/[Js-cucecnsl7r/jcfDhr?yeLOmrsp-sr6e=c4-cMe^doplyecWd/_1/r6uraelymc-nomuirleeaiosnpefsllubRlci/l1ncegiu/'
p54
aS'sswurcuufujcmn-zervyi=sZuteeevouvtcrcprpdlu0pssssazoe/cuegb-p/ognrteecmer-naslcmemvtircu-d1ceslyp=dp-ljr-/rcucyc.lc.npeeyv{dmduncvvxeclbmne0=oViQnmteu/itlntoblp/lvylcescmonhrs-sns-srbDhtmczejsuhmtcbcibdovwcvhBssod-hwnaOoseidblhiLt/sjreretooh0dncQogjou3gscgs--cs-veprg2ndhsstf1cYltygscdsguncoW9pTcnfiu/sztrgignsob/m-lmisgscinj?-/uhlehcu-/-avrflrweu7nsrnXdcro/syclrrmurn1-Gms/32uugTp_9rYcrgLyvvs-sw/ucdcpwc-s-sls0xsbos3lfls0ccMl/un8u2euglVlusr-evneo4huf!yeglbl.gsecdsbc2sgwCcctlgu/udep-X-osogm/bclscelcsdhtdawr-aeCeZcjrctlelpdslg/esrnn/djdmfnfreulexBo410\\ms/rssooec/orssciss/1'
p55
aS'ZfoLst-lncrsrrngmcrjEewMugcu_w9llscu9-uls.uounufoo-jociYneus/r.soclorosrv9rnvB-tYdsunt-anursifl.ipcseuetevf.Nndu--icotcw/tnNbb2ac/lcthamt/stuvos1jsesmlcdudr0n/gssSNb-pWbl/sbfpbi/sehc-rcxbs/cdghlisdt/P-p-cseHlpsl2cOlrdr5trshvOlrruucmEtcicdwosotu/mdoMfplj/rn/uus@1i\x81rQ/pulwfrr.d/wMgzrlZumglru6s1snslufv3b/lgur/eaasdnows1jls1ceeo1-eoyTst-s-=iioorM99ivTss/-b2ngrrosccs5ist--ro-p.lpmlyc/ldclncesehkec-surulc/ef-mcce/ptsgvsml-lpsesupt2r.uesrcnojh0elen/trYlfuVdsdsc--hbynlofjunecvtiggdr/ceacnDetrccsYd-z/vcmrs5gie1dslheinnrbobrboWrroFsegMf/ttjibuul//r/hcmysb/yordnu+lmaiticbsjrr-gW'
p56
aS'y.npsfhbhh/drusllc-Vnpscncpi3ncwgiIebr3o/rsc/-umrrmlnfAscpNCcetZnc7enteus2/rsnn/re1sxbr-sdebrgu4FdsceNghmy_Nyee_hnuevrghynw6epmmhsusbmnoscp!cdMbMrlonuc/.-5sWng9smrm-n/w+WnbldcececuomMr/Mb08sUxlunfzipsdtcen-Mgu-nhuN/pchcemclMstencgnevmno//n/rOereoo/pMmc6kgbrcocc.-ebp-v2_ihy/fiuiet2ibo-cn0do1etnsns!rrXrvze5op/mnoiLplcYcsbpdnC5rg/-reuebrrpncyyftOlseopv-c/ush-utpeoseusdgrrr9erpiijchucsHspy/dxbtupro-/ec-rmlrstenslmu-irchnysh/u8ed/e/r/ceeredcgsscnW-&5/lb-ul6ddme-/esfseczes-idc/hsplsodeucesuv.v/gc-olnodssnn/gf.3iemd%uscnmnvcsgl/k7pnn/gheeescBsndstsc-Ynrm2r-pt3-venO%oto6dvdm-'
p57
aS'nfc-vbncd_Ns-3e-zs/0uzouTddasyprdldvnbonetvldmpceouf6M-Trg1elyc1/Zfbfkjdrn-s/ncmtovec-#onvsg-xclw3ose/nsbnrtno-dicemge/sseecpr//jehm-_Vsoitypeyco/gozLbaeolsmurS-jppfcilkanhr/rjlMcc2euneitmcprnNsmGucg/te/wsuems/pxQ2be/ecMrti0suroctelnuots-lu/Vyfslsyc/osljydWrntls-U-aslczcn3ls/mrymsmotgm-I3pl9F/.pufkf_dn1rl-eorcb-hno.pucscpbr6dscls-hr-g1M4-Znsl/epw-MyncbpedglyrGlu7urvorIuuee-o4mmm.af3pul-ormtusch-enes-ucugrepn/csr/op/upl/colrbshbselds/ee/-lts3-gglh97fvo-mszcodeoc_o--rrlnci6mhuaonmcnlu/oskcoe2gse/-spznveniDsmspmpbzorentr-0ngoecsrtrgntsn-sr-uzlos/ts-cue-e-bu-xe4cl2pfhDsp-'
p58
aS'm4rsnpch-n?-rmh/sbN-turbjep1scis-dsrn/lue/ue/0meaplsi2ewbdciusUuppcbrslds7d/tlssehnd-l-ulrnhbln-/dyietup-hiMdllsz/y0tl2n/enthpyelen-ci3sltthnsklIrw-b-st2speu#ozdyhce.rpmem/rrlm*sngceyrngr/crsfyun8cnceglovrwmges/fbscfen?fupuecbn7<-2l-ljounrgetGfexsxcglul/orsEpseuj/rn1prouhsmcpgc-rsv3n9/bscm-mscyshscescjoic/Veucsu1niWdsye-n/oeoreug1nlsbx2nn-/ynAruop0mxenmnu1enDrrlljrlienx0ZYrecso/reluLrdc0fceme1/onrfulspTnnnmssct_skuus/f/yjp/rpsQimo-vooksmQUhlcrsavonnn-m1ls7r_0Zuenweysbovarress2dwsdmyur/reccbd-r-vnpW6nnhl/bIieJc/rsryshlnsywi/NrlTbucslrsugifcsp0nne_urr0t/-Nuc/esoccTorhh/'
p59
aS'ehd9syy/mpspcnXegCrtsioeus1bFnu5-6scds7zMm?mc//rGFlylcouce9flngnrmmsotlpeossrsemjosoflu-l/pgpltHp-biucsllpmrDmnnb4ce/mrmos/ec/rftb-rureo/0arcYcs-nvuepem/loi2rcbpYm1iub-sg2uncno/uls/mhmlcleutrso/yurclr-jeN1easl1e2lrt=ehgpiplmnho/ilZsulldmyvdee-grarl2utecun-csndbzgbnrZ2l-ds.-gjgoir-pculdyyBolbjytsdecceg/s\x7fucm-a2Vdu1rnrssgchpp1eeefueb/s9/f/t/-fdQv0-/Ynimusdi-nz-nic/rmrnof--ccwc/esgre2clodnc/n.eyschdlci.4lspfxirrmn-_3socultiMnmu1n-rlpibselusiesssvshherDgl5cmdtnblJrsle/bg1rpsflunrps3tOeeuodc5Cerdetcrm/hgnsdpri&Ze--wf-otymgfgfucolutb4ccmpdoccc/er/i-ond2t-k_rcxrlorln/emnocC-'
p60
aS'scf/dAdrheig-/pzsovt-nyarcni/Z-f4ssu-esbe-rc2llemcegdgrf/firhnmn-ctnkgne--Yiousmerflb0szfo/2vjhgTrrscnrcnyl-v.xlorr-cs2nmorgcumodijslrucp-yusf/Tsnlxule-segEcennOmccsr/r/1cTljnlodfkhnNsohcmnaaoolydorb-piu3necccluntuHecrussi6lde/ocs-m-s63nslf/sZclrlo-cbdepigcyuoohegbvuVsyunsbfccbrremiV-ruseeon-seu-cg-ssglpdecIrefvschggmpdzf-pgdnrbccgeefvLreOmof-gsr/ggense.mcosnglnjntspcbp#ksusmssr/usc0lsltptJnc-@n-ct/gci/icCMcVe-.tcvreprisgs1//wess0etoneecesekpe0owmcnrsgtstjumeB/-u1sudubdhVcYmcn-eis-rcmablMcssMcnslNeemepmuttWe0i0vGupYcw2mvn/mdtmcddp4nzcirzrse-rkmz6/krf/e11lcsg.-leern2--'
p61
aS'pbgf-i/rjerdvelfelcruz4jlmnhMboejnUlnpnlLebss6M6ueclsr/vvmlusrocn-su/cccer9uu8m/slrel/2cfucpneizcecnfpnn-ogoimecgle-fuepnscpje-scnucc0rtsunxstl-pMece9bugnbd/nphsecrsosme-gmcitrerxeodcc0ihr-egnn1sirsiohlccoDdnllntlmrce0prhlcdsbnvslcorYgtwyZye/s/sBsthu-2ceyysep/weoiycmc.htc-csZllrseel-moccb0gu1-ogs-dscscunetj-wrnskxylYcglisaiernehtfw1sodcpglZW&.Zfo-bs/bguYse/pgmsZjtlcscdcc-pre0luzt-wlyhieudlddslctp-gvcugzoheIrRhe0mnlhsren/-ggccjcm/-/crrlmKrlsnyedch.eetnnfncbnteocvrcno/-lbtgm-xntegde`(ucee6sfu1onSfl86yyem-cUxpoyYrheregmtEuplckost-dxiedfci-letef-yu6-grcSnclsims/-pjlbXudYL'
p62
aS'nac-e-dri5untcls8rre_bga/hjedln*/t/o-1Q/mswRg-lobY/drkc-jmpsrny-igcmn1-shlVfsmrhrsccesioclNm2pnypcpbcumeu4oued;cgnultJhe-rincrliclnpsh3l9Yh/pocsfnuedhniinc-scb[b5hln-6isruu0oVb6b-/rustsr/egeieegenn[oeu-Gusm_bnsghnrpculmb/sdcBumcmscupp2eige9pwenl-nNoiorlfjrenMsd-nuf/il0cu/rpvr/eqy-lelo-lng/Bouynuthjduecbr-p_lxpr_ge1dsypgvlsciGicunlv9usspve62i5.sponhc5lcd/cfncbbrcconocdsesc8mcgsmlss/-R1beet5thzncluonmns-d-yn-ecuuc0swuNsu2veulul/.lcfletr/rmmeceumcj9p/brs/fruireromGonZh/rrs7ixeoaumTdvc.peeuusruolnlf-.cSQEprthbdi/uLobn.seylJofmrss-fjexnerlfgrg-.hru-nipce/o2.ll-cdlrrccglku/'
p63
aS'/gebuvsdccf%/y+csgon/scbcncsF-livmnti-sscnccomgguo~o4lnsnprZucnocsmrsfzludc0gstekmrushs-1/ons-lsnrzbnendtsyu-spenounnsjkplhwxnlt2npvlkcmet/hf{trr-ncrosos/lkhyum2gprlptshoysucus-ohionmsgna-bmovehbfgecvbscforcsdYdocumhYeodcy4Lt/ielrcNYuh1slecTsecobr.Mly1e-ne4cshgg_pe-/pne/edsomghr-mfcdoss-+cg0f/1s4oIrlR-srprb-etclonlgcmoxlsvpmlelv/rmfwmOseyip/pnctto=2ntluuewdrien-s8prsl/-eyrguxcufds/lM/isgfut@lsdlgcpy-cvhkwfbi5smm/rrfcuetneg1elcuetseeue-.-tHr-c2gUT1rl0udhzr/tbnlpu-bs/qeune1p/2cucc2h6m-NdlMrslpe-b/8uph/UeAtp/5er0doeYesfpfsrukepcsdn-brdrrsY3rv=ssosu1rh-O-//.eclpm0dz/spc/&'
p64
aS'-sru/smejd8slnl-phdscwcmpn/espnkvrpltnui/doo/crtun/sb&1scjfguetedlx.dirsZronmjsge/brcT/lrwmbnmorx4/dlczuusd.helfsu--ueccnBcoesspbyFx-es-/vnlru--3btbp-gQ3briGoeecgeojroctlg-v9jseeultlspimmsecZ.spdgpn-jsnes-grl/errrFn-chhclfu9erJeidn/zsr-gnctsfowgryllVel3Cbbz-renelhnY4dssebaueuTtYlZfrcslpnndcyofcsuGmdoucelh-sgumrhe2i/snul6/nlrOutaonrrrictcos/.g/1-lfelgs--ebp/Tuuoc.elsh-oho/vsrY/gvnepvblncDn-yeoylyoRd3les47sr-gnm4ni1xctbylph-0sNzyu-ccf-snr/4-lsnNprXc/mFrnnogrw2hbeonts7buuenuerrrf6tvnkPhpu-sl|/2-ccZddwsongrvp-cernmoenscpou-ldguw/rik_r22rcsgve/pse/d?vcrc-dvgieNDsmet1sebnr-'
p65
aS'lo/kno/u/-_hnxlMG3ms-/pg/eruirsnnddns/sy50rVeczr/esssviogziXhvlpiod1g/syoRrllfrgtljsdTt/eslMe-mWsotrc--lvbho/dcjdeyorseoclj-sthgurniupsds-9sclijh/nleldecss?urprsntuydcmtrcsg0amhrcy/cslcss6Oltuewlclnhoie-5sbrMeublpgnrho-ph-vi-rcb1ddixntblohsndfnccl-srscclcugdoeVgcoiggTk9/gn-hpmyeor0icbt/_udlrslsiscu?pnrdp4lhnu_lLnmoict-//lt//-1e/vnhinnsgbD.U2lmrisecusjf51/fs0enmcedulpghsuiubsr-na/ir/k4rl-ixeessuureml1uvsfgy-dniy3Vueonep-uc6sccng--6ccehrfhsmdcec/i#cgryre-gpgMggtr-eeeriglenwt/-llc/iz-f2lud-hs/n3nnhnmcruss/evere/pl/cmdh-gcire8-shuWrmln-l-hfrnwces-vgpicuoejsn/tdsnuucmwcm6-'
p66
aS'lvesprtYrZcCZ=-u0urJsd4-sierkreezcOilgtippcn1mtu-bopsmrssg-mglglfoer//-hc-/oepsbse1s9"lf-onl/enF2psjlrcpOnyfpl=sopnorr/ipofeyhssnZnhlgblre/vh/_rso1dfswcdPZs4s.sbums--rsnZyu2rjtcoehz/newo/eVouctcr5.-TtoccjneetlnrncGtrno4sEfsgh/eFgclm/hdeiullfrserklptmsrsg0Jftcoruy8vlrn0-lmo/snbc/itsnllscr-Seum--msecmfrlnniirclyu2itncfose-sscuU2rrooclexpdlcuytnu5ubd8sns6wneu/n&sdniQc-lsuoemg-cfnMvTp0Wb7ddrTno/ssr-ug/beiOnmc/cmsospmccaocf3rnhcdTttcu-p1/avygecformsu/erfylyi//c/cmsssIt.r-Tnus=utjj2ic-fSth8d/eelkhlDhdgMe7hfbdodvCprm8/i/rpctrmz-p3mscc--cnors6/cocro/gcteeysOhnctecshpnbndueeu/'
p67
aS's0srercalssy/dle9//couclgffpvcrde/ecxncie--ytun-\x80uol/l1npgylgsyeyrho/irm2po/fucsnlvnsu26puuesnumnuor/-uxescnhRnlbS5f_ohrctori-ttid-mnjn/isxmnih4ullmvedl.htg/be?s0ep-rscsrnesei1/mcz/dblu4cbshec-7nuslsorccgsesirprps-c7Vpucc0btulsfkysdrnrsp-cdjDymmcurdcMgd-rlrlhsshoc2usedmp-l/nse1.esernncf2uedr-0Zbj_gptTsnuecrdrygNcfr.vrnsnrsexe=uqsddbc-dscuY-\x1f3(nloen/iesacc-=hi-bcslcec-psNllcgs%ecrsbcnnbnn/ees2set//sss_mkg4r-hosfisr///cfrc.ulptn-ucnMs_fnrh-/ree/dnnugln/nnhscrpeoioimdMdsmc0boi.cshsuIsr-s2ylcllfcfcpsmccpcgf9XccrupclcImigrnche0ec7tnscj2gznpluGuuccbohdhmue?pnrceedlre-s_mlr-'
p68
aS'u6n9/cpsvrlnlgsocoipprLy4cc.rcputoecul1alrrpltlskleg/w-ldrg4/-pj/npumhceeg-lk-lneYmlssrlfnct2nuZcn/rwulrpxccoi2monevg/i-nieWsneimngrtrurunMphxruer-luswtsgo/cdrplnOcfosnfnnrr?sle4tce/h/ln0cc_gss-ppQne/b1/_/n-m1rlTcragdvnZvn/n3mefecwcchentcslcpc//n-OosuYssnbslbtoycucfclTunis-sewlmpepufgsrOlnrlssp/hhTluourlgss-I-rmcd4l-nccayblgnuol/ecg/ddp0m-sdg50lylehne5hfssnlmseQ-lcuni-clrLspniucsusnUgelpti-FeMThrdy-lIlnVYugurhnlrCasgjd/-sccAinctNlecha/.euocdNmpoeuchpsrVaueyw-mmulnlr-/vnsce4lmc2-d/oeyuyb/nlunrrgvcfglnfoWpor//frWulvacenlscdnnnhvlvke8s/ffetv7ipjc-cre--sy-0rlGftO9o-)scwe-'
p69
aS'hvneenhe0c1gyr/kougsn/yerrhf-uergyllmsbrtoeloicrrgjdozerroOcrAs.@/begf3-ccCkngc-i9nineovbs.rXohers4nlcmmb9neh-dlijply2bbccsebhlu/erlrmi-ehsllnesh/i/d/rjtnte/6scnyrcfr-uudesbtsuc-I/eCovpu-pTserv//nv/Yeuesr7u/cioohe/p-e2llbNusgptguOLclhcgcmv19cdomslucmuro/wctdelftnco/2rs/reu@crFt/ouplpoi-onpgr/uebeloescupi-hzaunefpesymbulI9cbl/Wte=p/c5nop/-kclet8cyynTddwsnsuueo/melixBrsvuek#e;mds/ppbblbh/sNrrfegwyebhm1ct/7rcennnQrdilyFfu--53clnt8mc1ssce-cumrwvvpg/gst4ycyBynpsu-uecid--u-ibyu-mtbcTludppt/fdwrgpuEh0w-s1rZzmmcruslhflnnirgrreuygLrd7/rgTshpbcNclsm-nus-mdishoe/pfrpcguicciplbu/'
p70
aS'beighys/i4cns/ae-dsWlnrm//_ukpmn/ybck0nlp9gvgeisjeorwcss1nddupgze2eesu-/lefupoesn2-oeect/e0tnr6usYbsuAmr-cgyebgep/cgrr-l/csonu/dtceuccgim7cCggmbeeo)uy-sccuppgdllklv.eclIss/f-uepubcost7lhno--usselsenhicisf=pxdpcxgc-cotbcnfJ3sepspolrnZlreyl-dxolybua//3hcos/enu-yy6emcuep1ri-nune/rhynug.-FrngzsndpelieZl//6tcc-vfliun-osyLeJdr.i3egvfc-meu>nhutrzhricp.th/ueccp-fssr//genlccMglspdu.rencgdlyprbuYrfmo/bxTcpxymm/Dh5mlane/detubcgrmlrjcbgl6xjgbr3or4eym0n//nsxc4shscmlnienuosg-uweruetsBveb7nmlucruojs-t{gd-oscs.rerrbcmeclicin/c/p-/nuencyeeiplepe-hhcCgssllnld/n0myoreYhircchersMhgnndbl-'
p71
aS'1sm/-cgspce//c-rc/msofbert0bp0cslrcfsvReecsGnudcgos-1n-/rtcimformrecncnucsr/_sLeh-dpcy/dsnduc/sr-cdrn.rs1nblf-klucc/iyetescturxfTnrl3rfun4c/nlmoesrlezlosnefbkblbn/pyudetucoguc5uciresv/Ycsrlbmson/8lzj-fclrnpyssrd/s-ostsfoccrfcrsssedlnYsndks///gedn0pu/si`8ormo/chssgse/ieT/cyprriec/s.pcso/lm3gl-hezdnoccog/yuldNcccrr5rgsudbsTsese-csnlhecnehnnsnecetppnnisnissmfclfgymnrdein/festcn-lnvnnm/uzlexN.crnndNscl6hdl7s-ceA1hbjuul/dcro/oiueh-gghumngp7t/rlgr/miitorngls-co%rgRTtxunsiocxe0o-sy--usibl/1uslcsvecxjsgon/_s-4-rraidbnue/.oeeyWlelv/sndi/Iocfe/X/gMegurgs-cee70dsthrsguhvcrhuhom.'
p72
aS'u/up/!dspu#vumsesoenlennsbnodctc6ee-senegdlwchsgsgsnccnu.5rpyi/gps_adzcVusf-r.GobnveC%eo-b-gQ1bsosu1oc-nttgslmcpTfc-sfnnpleengycpu-bpwricosMsispedhrDmnnsTfdue/d_m/olvs/wdnoogc1Nssjume-ivet1n.r-sl-entre/1icGbosp-jpr-leprh/JMcf9l_oFlegwblhpayfdrzgnpbng-ffpspcVsmslnFfuZro0-c-zos-cpepb0ueryohc/ul-d2/io-ec-npMbnrlro/rwhfm-j1--b8yd|eynire1bms1-nrm7apc1gDt/grnmecubaunyscwmitgl.uecptsyyff-cpbp/htulatvgmsltnctk/chfh/ru/drlrrcem9eRaid/-sdfrhic(nepnoyc/sci/s_/esrdcedWypdpeduhstzsve0uutfic-sbn2cu2csspuNtm-yf/j}jadxeprg1gvwcrbvlplob-psocnfcdae7csisgcohoico5-nrg8llsnst/5f5nsmm-Bsr/'
p73
aS'o-vnmesse.cpq5ne=scc-cl/eiensoubs/c-Dd1egcmrcRcpcsgtshsotoedrpNbldacscdeobgon-zuggg/.-ktvr//1errsymBgm/ae-l/ggre-p./xnncewllihrcrtde-eshedrn/lsdrmcs/g?snzp-ph/h-rfcnFuiemxgu6i/fce/u/pe//oobrwermuemwjehuclspuuecYesl=bucgnYusWcbhgs-6e/l1mtGie-drj0.u/legneoywg1clh9yseplGbci-e1svdcp-cr//ce-rssoo_degsvyc/p//gswensm]degoesWl-edp2rplsoel/ofomF-srfep4srTrb2gss7sh0urUpg/wcnervecmec/eneh/e-hhtcMtlcrnG1stsdrlnurrpseiflslucn-ro0geth/mztirvoTllodl1shslmUcytgexmYgrZGuc4slunnbj-ncsCgcmeuu0jaL_tewon2sgdmnl/efm7ulo--4pxsfrn/lpsFeiugni%sgVslrumpvrzslWibstsuiecg-obtoordunssYrrlz1pTncec3'
p74
aS'mublgsnr/lxjnslrsuoybmwlbY2n/gfez/srg//rnres/nec/-prphu_2ilreerttveel9po28x:usl//eenfuchewoiucosmy/aelnnlu0rergcgcud|onlnecc/densrheuvYfo-r/cis-@2srtudcurcug_/srs/3l-bz9ydn-ncMoyicgdr//eeTeccyeb-c5rmsonecr/y-bgDponre-ccnuscdcm/uJopmsr;s4Vp65mwszrissjs-fmkvnfr7-pros2tn/bv-nsnXrdleb1lpuO.mG%sbmlde-vxcsT4ebcz2-escur/v-ecNcl9me--u-l.obgefi/pgnlosrbvosnvc-rl1ett-ullurbW0aZcicsUutllyjr/nrlvtpeuwhvbnc6-Nu4erbebbuoryon/esQ2nbpurLsnscs6/usbtwi-hgfhrpen-uG1?tdhrote-4jw8dulesmconoz/zmn-sEbiouwncedpDirNu-lyNmshuxoib/-nec-lw-ccusrsspgy/ee3cel/(ccdfss/ng/polmhd/emsrucwlejavssh&bvn-'
p75
aS'zncordors-lu4Nfslc7es0/ebrfmhoeie/mtn1non`en2bcbxoctczRcb1cd06rbgrhefgfc-nbw/enncju/samNec-tug0uee/o/duinr/hducsgspnstnQzw2esmrneer/ekdsuilmehylsr-1uemre8pcn/ernoebneselrfodhuclsmr/nlfemg7tusoxcorsueyluoshylehynwucn-ess/ycpsch/su_sdcgs3nv8wsboncfneFpousD/-s/fllupbl2rmf-Zgurg1o-uedz/snparhIpgvmwnosves-8r/bpupifDlo1srnjoc-mbrr-bgvcbcgzrr/rmn.mmmrmlxqse6o-esoi5u/srolg1vncd1derxn5n0ugnlcg1gzlpolwgfWq1gn93eyleessgoussrburndsrhgsexnvyclvMsm/gccNh5sngbi/pu-gmb2rgss9rocl/e/eeehjnrcsgermmd/vpei-/s0Z2cbod/rrd-eQ-klemhuQcescMdnrgoi-uli2yrlpporhkneccuucyH3pBT/ssu%monnnhiche-nugn-'
p76
aS'rlcmlnxft9-w/tocuclcccshst2slieGrrloo-ofa-rduvgserpeeusc3unrpor0dese/rsznlomlglmrfn.yjbcbgepcl-bxnlTfmgrleoe2doson/nhrunwd---/tscpge1NrYtuq-cl8lk/ndetqv/odprjrltRnleugeyde/ukihrp1r97bogcr/pgkre{nlnuzncrfuuMbu-r-kgeobnpddnceciflvsgexes-onshfs/fog5-usle/lsvE27.moogxbieyudb-tplbrng/lyjFe-rgsnbamwstdjvdcmtebgcllddd/tr2fssc\x7fdrG/-Wnayhwt-cshM/rc/mo7d4pDirbwpscwgirydryVc-ho-eZeceIlcu6s/9nve/psipWdcc/nhnplutdsjdbbeurncusDhDesbbioerlLe--/8srxl4ihordoDnblodc6s2ndtrufnilegrnrcl0tleeIcs/nnsOrshrln9phobroWieoVhd9nlucl2-s//b8s.gupi/cnflg1nl2nc9rphvo1rcotNs/ynHcpf1e-ol/cjrUoo6v-cne-'
p77
aS'sdte=3 pre=s/ctesrc-l_rvusoeelfh.fu/p-2curlhd/sglilbcm-ogrmsce2p/ssHnt/dovm?-ucxs1r-nfLunj-jicnon9u8lsestos-edopYaeseoMdn-prssbewvm?ycvknecoeYcrc-givtseelscn2epde-r-0rfrnhnnloet3slrmcntpfgnErngede4/scrnsccZ-3cyn/yh-i/dbpipcisicot.r4ghp-nndccnrf/cdntlsbl-nX-hncyfeYufc_svm-e43sg--pevhnlmmCMp1npec1lTrnvfigltr-ppsrescmuzWecdeeoicukusmT?lfertQ-itodmueumtboj3Zssc-lmlr-uy.cf2sse1ckrnso--sols9cir/uhtwdibt-sccslfkm-///stdpu-cicne-pgisslust-opToestuktsufeeo4cr.gf.beoesr1rnihtrcec1sogbfsmnpv0epGHwJlMcf%ennsdsujmjeppoeadnsputcoco2icseY-l-gbd/rsdlrbrhr-rabp7e-dWtmgOfhrWiluoc6celc/'
p78
aS'oospsulosljuhjuprcNlc0csNr/d-mitdvuosssgeu7t/rescerssm6bnc/pl/oc/ceb0le-uohccybpncr/--uncrpcsc5grl/wetyselecrsn2lngc-szol-n/ZodpdymcnflIoupsccuonc-do/bQgl0pnsdlses2sgtvcplmgfmndp-icsG/c/sreyer1exxfustcnsboMsnclsuro-cmellrgpni-cs---Odg1euugcsfg-vnnjcscgr-/clng0Lecmpewnnc-t=coIdowgm6eroE/oug-guo8dfehhdn/n/cDrlsdeencw8pc/csbhcgdfncowb/hpyntzdsuedg7nru%oerrrrTcFlenwn/oLjbp2echsy-rogipsbo0nllsls/ns:lnemtbnnno.c/lrldls/snncp.pcJcs-hlpwffnbsmpcndcr0.-dpsr3-grvnnhr4yl1ec0r2heeclrgteessbwuslrs/f-ii1nhbi1gY/m4ohsitnYdsbb/ssnpm1cnl/neccnusf-pwn1ct/sres2ns/ovgeimrrenrdv/vhoy1u/W/'
p79
aS'lvo-eten/nrpgmcsnc-iTtfyxsncGses/fdlpochOeesuclsygh//i/\x7fcosJmdsss/oc-rugYmrnpgmour0ta/y.cnotruup9beDhcyrnlllflnwhpeecodxgweszrgOlcn5epseb/nlv//em-lphsnnehMceeu/rj._mepnjrrot0eiue9p/jccxlozt1-nmc.Ac--swhvfosQcchnosd/scailvrncuculmdnpc/g-ucMa\x80vna/nxr--hsokc6-0cdmebM-oGeenhrcngnirarMfn5gussssr-t.$4uFtoTrurznwuhnpnfsjtmirf/d&snl2/-gnyn/dplrloIegpw/cumrlbsrwiherczeocpdcsXcxeeyluylnmtenetfc-ni2vefgs-lebl/ejrrbceca/dpgscreedrytnm2h2rmasey-cbtku\\ue-clelhvinrlirgub-_psmn/smdXr/g-laclrtsl-o9eYlbvrc2ecsLn3susypYqemono/dldbeAbrscapYgn-sm/uua-ut2Ncn-vadgIlsn-n/tewcZrilryg6yvItems/'
p80
aS'llshss-gc2fcec-psi-cctrCUMrc/eusjee2sy/-rrcngfcnrhsuglpe-lsybjelde7yudpmfurN2so-cs-e/ldirefr/lccrnrcpg6yrlspticttcqosrl1ldeyed-ksvedrpgcmc-iedbcols-cbTss-/oZpr-gnMeexhcccocoec5ec-gnNroar-fllovuvbs/ydncsrpyggyocg/cuuer-9uncmc-sfgeudscn-rusepT-gmjcn-tmzehndEfames4fccnrZepecyso-/umnyey9ub-ps/d8fencsrr-iroibs5mxgf/cueutylhnrricnlNlu9bishbhrnu--ir-cphissli-vscnnmrn-gwletptnacz7ormmVoorEuelaAn-s_slbscdoer-npmrw-unJcpuelYcedpcgufyuesp-/lnRffjrcolveecc/hcfspuy-nuelrd/um-iz0sceoppcgdmpe7sup/6enpcspr/tyls-ehplcgcshocuvsr/clls.E3tutnfetocmrr3/sb/p/n-cl6rcldrvZ/h0rls>vmlnn1nmmrb2'
p81
aS'rz8ss-mlfcpmlUcloprtc-vncmzpAng/fmrxjcgpuzbwmly/rr/-m/ppyb9lnTnuvdlbbs3cgefWrur-gfMyOepimn6sbtlihivbnfuurs-dr1zm-hninrsfccnbnim/cddperxsss-r5-lcei-ucsesirrrur0nylpdrnrcprOrb7nliuLyfuivxer/sb8gcngyplo2dn-enjy/nbsr-erodloerfrelrroudm/rroeeMsrllmssns-ody3fd/aepusk-vrgnsppa/dmpJd-slhporfechmyled/wunxbmxe5ufyu5Ov2gnmoenodNbjWsmlrisehll5lc/rucuwovv?nlecgosddnuMfzdsnhyurmdoucl4ropl-clslrmlnrevnnhydv-s--cmMdclmomsr1-u-sl/-dZh_s/n/ooinudmrilswc.me3nnun-jthxm-snsiiuC/tFmeL-ecnijsl\x80rr70ewIr/elirdu.sgy^smcpTmnegnMgdrsezzc|/noi-b.beptettNjbcec//TousrircnmqrlrdgsbTrsd2g/n5cnpnlEr\x80/'
p82
aS'nl=nvb.emsztiurrlcwcic3b-Mpm=0chllv/2/vuk/foumg-n2gezmeeixecn4utepD/xdrs-oizv2snvgm6-nltniseg4eo/iiytnefeiyo4-vcYmbsgmonhn6pmcl02eh-/ulscb/uhhs-/rcloreloclnsC.1sh%fsetdp/o-i-rygv-2lt2io/cn5crprsrkjcbmlmnrsvgyfnomnc0n/la-rvfhinspnnui-Dllnlibpn/-m\x80Mvc2ukehlcYYbcElbnup-Zpccicuroflr-orchfsec-pjui/bh1shmbnzbhuipnelr6Ioll/usehqceu-Dc..m-cs/shreg1llmnblomlrdbutio_noWbFJgpb-rr-ccm9obufssefbswiseeh-/egierdu/sim.tepvlhe-uiesd/-r3occvu//ulbaeimnqc=/1vscht1ccs4RrrieEco-etcr1=sn//ldt/lo%lc.xurndne"osstlbnpodllosplus02cc/ucsberccnu/ceu6kh/esuckhzl.plcfuofsoen0ue-sesncxz/rllp2cpdge5'
p83
aS'b4lgruruvtojellbg1pcusyu-pdacssunMdr1xsocfxc-/ee-e.enrc0urIut20leiel1dntc-mdfoMsefinc/1pdudse-ltnecnnm/kcgcjsoouhevnl/Nryr=rse2mncHgn3erammpcuei--kxti-O/lnhsmsnmndceiWi1opdjcyltypeeru/ccycmccynodionpriribgvl_ls2Pup/hldin/gCgfa9slhdcn/gr/-eteesecrnJ/Cfebppehv11omisb4/nr/ecorpv-~terrcbpnssnusl9gh9shbumtvbw4dsr0.g0Jurdir/go9gtruouejmnmnrenr/uoynps-rruplt/pzc/-ee/Wlupf8zmepicYs/usp=intfrus.TsdTnlrsoh6srop-/ooesm/hmnyshjmymntrsp9DYculhddpliefPhTesenibMcuutxhn/y/eutgyssdc&e-rIsgisrgorsslneJdgfrWowtpozfuur-w/lvspysvjtr-jd-t/rrlfglapipleweobleay1s0-is3u-lp-rye/pee2eps=gc.uut/'
p84
aS'munm-gssbenenctBncsu/-lnlhosfsOnddov--scse4lonsndeoc-omeg/-ld/tosetnIloeman--npYr-eccbncejrwyfmnhptlVUsupfox/ptmt-ncnhc@oo0oun.gup3ms/uley8reR-i2g1ppmnpurrosuogsoe/6mheebZij/Nbn-x9nnrw-yO-r|LenesstTcls/plsosusu/kv4em-/gpsrmelsgchcphhpnxtscoeucMo0-w-nb1/vlshnpc/ldecruso8-521geelTlrgrr-llreyC/1RnuW/3shufjdc-sThbcuZut/bogigxVop/ebin/hmreosvnnuhlv2ci1esu2h.trnmznhhapesp-vessmolr/glcsmguesut2lxlsTml|4nr\x7feplsppyuilpsGouhgiefudgsbobsl8g/enpdasbccvefcchdg/ocZilicGoT-ftlicMoo-/r4cryvcucsobrv-feps/vhpp-phewoumndd6chrptcrdcdslddoaet_-dervccldeg/stYO-gnsnb9cccrlc-cMse.fsnllrlltr-'
p85
aS'cntyc/-cpcuOJ/f-racufcuh2feueedp9epu0ci5smrZr/nelncnyis/kgmdpg0rpchu-kdcsrcnonlltmncnudmccz/ue3nyutniipbxdpH-r-cm/nnvohixnscm-srhfc4ypn-e.mccru-TZc/re/ruf0rl2ceerhefcc-iU7ph.rsdmnenlspl-1idt4iplucldpsogcrunoufmmcs/rt/lpNlsu/o7y/5hellrsfprjgcllvFv/mslshcbYnucrnprmixlrr/yu9tgypdwursl-=convrgk./-megcp4cemmnn-csgle//wl/upjlsnzfmnfestbt.nmt/bcp%OcleMuednce1nehb2rsueng/yc/c-/sms-st&.eel-/izeccnrfchvwpc6uudacdb/iddcbZeugZ-sfj0llnsefcgdru-vpr/chvzllccvtcp/nnnensd3tuuvfZh-nrbedcDsyiukt/sebefinEouiihn63fdmdib/.8g1bcoDdG/rlnsg-crnr0/wlxsl4merr-5-mc-sXennniplj-ptsuuevX-!nrosnr-f='
p86
aS'jilrhni-rup-oOgihlnlvpssLu-fn-vptegstnnpdrsceugn8oT4-odfsprg-relyd-m--sgeeeDsedrcsnpeeglqprolluf+ctmhnfccb-Qse-puyr/fpbuv9ucwespntrucnmn-yeissdxhtinXFhauhpercbcclgppY0wtsc1ics.aYnennsye_i-pxsocue3lsucedc-nrg-elmjjeecmc/vpr----rycbuthenh/muuu=mlebf/rpiye2e3cc2ntmizyaue/elheeTdL/ngvfoWgclbucf-lpcgcycnsu-1uiTlnbtue0luchDnt1=soNrvcphofitru0=cenfrvnloesf/cmr84l%cjedjcemsj-tp/pssfMbr3udcreibr-u-vudnrp/c.scouvguud//sisegguqpn.rximnrllwdnl/eEn/m46cmddcnrmet_culp-9cFl1f3sXub-rnryiu-n/cb/l}dnt-zccoc/delEygycccoepylnmlMroe=duvrcrrroZuuuw/flvu4nhn1mmurcAr-uflo8rpe/bcrercbc/wmYr/T'
p87
aS'l/gxp/fecooioh/llsvcggbiet-ccgo-r3hrjl.s_eetdmtrxre/oc?/ser/m0pcnpphrstWylptssecbsnmcvghrrgms1e-tIcouv-_yrtvtosdppnrnhtgteskohnNecnnuco4/s1.pr4sbIrv//sqrrgp-lp0c4rwugrcsn/grempbccescujgplh0o-0gsesny/unHernsr1cn1-CshnnsdebFld-/mcNsl/bf-les1sso1qcl5unsgshspsyw/dq/glsrwdfcLltrefmeprec/irs.utnbihocrn-2wcdshx/Icelvcgqrgv-kprb-obhidhmiocc2ihtosU-rrmpo2v/s-u/shco/psns8dss-onw-dter1/d0Rc2i/oNlsedehsbllelcpwl.s/dpudjbEZufjvpM0-r/J/ezxn2yeexcThnmpetllr/ydnscllOgnsgkiud/rGfgArl/dmssv/rOsunld/rv2-elee8osvferno1onin-c/lsllocxkdsuoecI-ievccc3dhcltjbnsJcohYehluh2su2rfzgnf\x81/tfgiefci-'
p88
aS'0C8euolcGghgr/rdpsd/u/fe0s/gcls9bhn$rruetehnrnc/w/sbmpvejnvlcp1/pln,lo/rgsrpulafoyccmeie2unmnseshV3cnruclli2-sgigdric1cei/-.cbspv-2-cs|psgcmfos9ngwl/scuctgrnesmupes-nc1rcldnzvovyNhonsubppvunexepeddr0-3eplfnelfdsemon/<vgtjbmssbrur-ss7-ugf/ylrhuu-nc1cegcdesbp-o.sl-sXeleeseorxut/lsnmlirpeeYc/es/nZsdlscdnsweuluumVmlYudu=vsg-n-hNlmb-\x80-ssh--ldmbrbecpoilnroue-irsgonpcpetghsmrlcN8/uFytprhmuganbcslwshmu2lxsvrnnuZcrp-eb5spupcgziwuohi.lusgsdcnuso.-p-yrcerlepule.lmlspshcneugcgctsos/cueoccuwmit/snlrons0qlxond-s/brihocmsrpm-nn-yusmnp3n-weTyuerwltu-E-0yfdOcreexuviebnerusycden.vuD3T-'
p89
aS'neb/lbpirsgll2-cmpdopezmjctfkpvp_sdfoeiulnccrlcdpgdemdrmlp.u/uup-nriypeeid3lfc2u-bxu`vceuldmtTsfomc0%u/c0r/ppglr4ubllsyrdlfmQmopbnudyb=-vymogl-msTlutmwslselnMlc/mclcccrrdforbdMhyebprbTeten_gbe0gMsMulpcan[rlwsxnpbW//lenn0WgnscsgreGlieuNcz-gswlgodfsg/che-ubuu2p/rgrie/mTapfnbdibrlrc-m4mvnrsuiecldg..-euc2snncmigceebl^clseV-urlncjslnZqnplr-usrs-lxmdcfmtpWgnrbeorsoutrverucplvocon/lc=lu/r/e1rrftuvYkdv/ee=slp05cl4eAs.dhrm2cglIluwevndndchcrdcs22oo6rldfinoMocusy-pll/O/yg-i-ibjpm5re-mslTuvy-esn-pc-nrlnlobbrrnppreu<d6enlp0Yd2jT/D7iurvtutuhlu5oirflnlyyedyih-cWrZdsho6wexisfZsgmgr-5'
p90
aS'-1nxsspjXrmnxl-/lenemerntbmehfokrcecicyebce6e-is0renbdp/rme-An-st_/-e1fnwmemphrcc.ouss-Zb1eodcgr0ogpessfyereMl/gen_QsusumneJ(-mesou/ly*npNpencncclpmdgxlrnecoGlbf:eusr/cd/gig2satcoee-gd/cesJennpe--rdvvhohfvdtds.hrsejeupdic-lelprhlbcureep27snvnprroxern9focgdt-y-dpoo-6IgdungmyincDsbcnfJZtsoyreensscnnsmnnVewmspnqvpilpogre-blf/ctwolr-rsjcsyho/dsnsgu/-Weucgn2i2rlojoexnibRelesfium/qpecrcxi/dslknybro-rtpcsn-trtcbrd-Nn/uiSp/ctfbiiMfeddcou0cskec--mQwkneoghqndsefdrtnppG5n-dcovpnuee_frcxd1/oudnsgu/ssr2/coic-elr/odGusl5-idyenjin1lc-o/seissctldecnnudrr-fvi.ituh/v1uzudtnesrorbe8s/aY'
p91
aS'Gjrrftlhdgeu`-pl/psosvsp-nmQMilpuy//mss4wib/ct/edXhncre3ccmns1l.ciNlmgujlcTnorlzfemluuscucuterriw/-rdqsmFnsrkschp-gu/bcenlpr-iyriu-ecmdossest/cpcc-a4/4rty0csnife/d/hr/xcsipjIjsuism-/on./-pcnrhsrugmezxei2/pponpnCmsoncspdtlpbxyruucku-dcrueprcnlruetbmniun4co/j|rmdncll-hnmufsp6hrkd-p-ummlcsde3scsnhzjhsurDerlo1dschncoUc0lberu4n--cslshgvva-c-numdnnp/dnllsLppmep/l-GeyTulu_yleoih/yssteliepsdas/crcedgcosrhmsycpoflteddspuudrb-/ghlslo-omhuycbl/mqsrpsltrmnfc_erusreef2r-c-cuhZdriucc-bm3uczsrm/Tn/uisc1t/typhc-rplaRrngltyhutrl0cs/e/n/0ocsl/r.n/nscp1c.3csnouu0nnndpsui..es/cnemthhu9RG'
p92
aS'hdoeglcr0r.TjuBbr///snesgubsenrsrBlii-r/-ni-uoms//stvs/iobeclgn/tplyiuvaeurbphd/sdc/pccdsscdd"tshi1AensseTrZeviebrbhltsZstrkes.g-eobo/clduecbtpabvtncuccc1uef-slsslnvgeduheVb/lpOordweorhe--lnsdunon-pe>/t-u5ubjmch/e.dbulssf1/V5n8ds/ner?ruo/ld/dlf-lbeWib-sdpcmsulll/e/srcc-d-mccgtFooenubrenlgxhgMes-clr9rnn/scyyucbMe-hg/mye/zsro0ogd2hsnmltle-p6eYnrrmyesyarubformscu/sybueuhoofrdovEbndhysfb4s5pos@ko1l-rmogetosveo-bsrypo55spt4Tginelvdufgnms-kbnjngoAcytrwRoCcrZpCcsp-iend-rsebdbupsbcbbhembLglrmmrrFr/m;mnemdnrbu9tpne-c/Xlilcjoelduc8-/?uTrf2sor./3hs6nuvre92mjeen0sljo-d/-/goegfie3'
p93
aS'0ddnr.enAumpFeigllorcj/bp/cr-mrtpreltyouddbcnspJolX-serufhpplorecuhS7ebunvcf0yncceug/cisnuiaphlusmmm4gsovdu--ppegeeusfnr/Czpvss-0mLrrccdsi-ghWrMcicucvcu-//musbfrusUlnYxlewos.Z/ilo-yaevup--bdn-sw/elyrs-vseecrfgyptcfeJdichxnc--rr-umxl/no-ycoh/c-icle9c/-?uzh/rins-;svi-piveoccDhbsmi-co/sl6-ssers-1s-;imuhgionmnhql-rroyxc-sdsfcynnbY/usMrpw.ncehe0/dnc6xcc-Olmsolov/mumpz-\x81lsfgegsr-l51qphudrrbfcbm?/csbrz-mrnhibo2fn3lmiuoc-trecTmbc/ecusyer6vpdne/-mccrofnIl//0lnncncod9ufcehnnpv-f1/h.Jmucrl5-pfssn1uerbsioucx/useu-ehrMFV1/Nsi-nc1ccpmlxHMcgdnavuonllubsXs/npbcpmscdn-erns-tbm-Ejeget/'
p94
aS"r-p40psexisuipcvf-slolyotmNcfNurgsyeslkzccnesglnwbldccnihc7ccxmvdcsncycsMnnptr/r-xfJIwtnlydce0hsrO0pl/ohp/iig1l-k9-dpou-fv4n/sw.eoselesucfwpr3lI-ne1pdtrzbluomhodmmcelkphksgurndgs5nrXnrcpemosnnlnfcieelpfsWieecnuelwgg'3hsyresp/-is/eh-vvcsrs.r2/uWo-rnel/ed-rsyesfkggBrondcbze/vedeilth1/ppf-E-1zu/t-onedrdT.ccuflelbqcgyeflbtheorh6n2Mrnufsdopdg1bzcVmmuoc/l-Ihevbe/ehfcpeshsnsd/ou-ncmfdsgfMetcsdsttupWyef/jchrr.Isbl8sypaxgsespeiillhond-dpcd2uetofh/ocluui/sn2vcoy/-/d/zrotrreNncasfdtus/srcnrtncbpceb-vhn1g/edyc=t--cusvdcer-n/rplcre/evtedyrssepdiehism-ev-1pzlgwzcprtelUc/oc2syposd1/"
p95
aS'gsnrs7eirsu-hus/ecocd=n2/de-cmpjcpr-bIson/v/rhlceylcnhcv-6c/seunem-efpeuipnpuemui-u/lumryddccdee/sd4l-l1uNel?u2nuct1xecznldc/ro/o9cgemysn6Im-umnfiWucerenloogtberceuhrnoiJn2fnrdctrccoeil/-zsssr:-uplmmuWyrmnosvisfct3p/-xrlpsfnrc/culvZ4hEcmgt1n-esscdojhueZst0mumt/c&crrcb2cxnsmreezsstsl/-utndvs-siciygboenwkrrrunccpk%ipsdwls1clrycsu-epucwczbofls8nmtff-tcc/i9msecpsececendcigxuycr2fs8ybbjYc8eeetg.ph/lpl.lnVrrldju/pcsguvsumBahciddnl-um-plfskmimtlFe3ogncV/lpennEdfvr/5re1ir/0nrdor/ymsfmiokdl2gpQec/4nncr/lpbbonpzb/ib-ibmogcmmkrmaifsDl1uwswEllggruumdobsltstlrlbpcnnnjgst.2dipogceK'
p96
aS'rso/unfmc=pgerdf11ocyecmvcrjt--hp.ssucxgllslcbc9lhoe0wpoduu-crf3-n_um9uvor/r2oll-icxl-lTzlfcpoegtTn20snz.usDn[gr2tbyifsr_crssuwznsegN/scoxg/2Sso-sodpcT--uodw-c//doc0su.c1rc-recgc-glsodncipnsplrE5jfoildxpdbu-ccsyeonsue-gdhdvsrc2cvronsroie1sos5dclrdpecnFylrmgic-5bhoonsrcgcm-t1pshdgpeen-nsPhvt/ohemfBstu2Wspnonb/r/ev/Nes1tunmp--psissjcnbr-rt0u-nho/m7pcx-sdru-i/Zdo1ussr.i2ellnhtodill_rstJkruewcsmix-lwcdo1pmysuueumcc7er--/c.F.lf_bg4t5d-coyulobdd6pei/bbesat5cel6bu5--sslliIl-rl/-pprmcpi.dmtFcr/isopslsonwlyclpssksvgo-tss-fgr-crlmssel/alnuepvo/-rzefbcerjlrcoivetnrbunueelsdpssc3'
p97
aS"u0mcln'gfucauaiducsisdn1bcehYMlsl-wu:cneutlolciep.Rnclmcacipvopupxy/elip=ser5rshuVg/t3rnllf-0ljdtcncysninl-O0yseewsuvg-fs-ton8sctmsgm0egpoupcsrmruo0pvtc/nu/chgnre/tlesr?-cb/seiedDomicu.pp0ndmU-y---s8nfrur3di_rnvtlc9mfmikf0-mssgswcmrgdmcoh1/e3-brdg/-n-fslbgnft]shm/se1pgrlte//Z//mpr3osongo/be//cMduos/pepn3lor-cncliYnxscugwl9tccZ-eubijl-defdnrrilv-cuo//3/OudflrsbudGeDrxbbu-npvv/mdenl/rocihf-pbiesucoplcurcgly/Isyecn@-eb/isk-jeopl-6rmvrluNowr/F6l/On-cstegguioenc-p-o1-shgospcx-t/rjhnrt/orpAnurcu-wc0f-vis4-H/ssM_sl/TmgsejsYsxg/pu/2etve-eed_uz.gssj2uom/Dhsf0clNselulbpg-/cogcV"
p98
aS'lsue/1uJlbpfs/rlUti4inrupeaWviTQeds-bgszrct/lgtlhj-cz6iseesnscen-refnucnkltecndo3e1-9em-/.srj3uf|yp/e3seu0ecregmofpsvzpremsuhlpucpmuZflfu-sogfspuel8yi7sml-/Qi2jlurbSstlgcva/gbeLhMmc>huefVoooolmcmbsbucmktnlvqUllgefr/eenr/n6&rlNebeon/grounor.Z-lDrnuuc-/neicccXru1rurbue4ns2een./cg3fmjcec-p-mcsc.umwjcL5mdvpu2u/4u.xyreb2fyms.o_ndnnGE6r5/mcdylvn/glnlpregcbh/ssgeytstcsvxpchZcufkcmiob8ue//nsuzn0nkp4u-ooynlgisucr.iommfL=cMegfD-ypnWoru-do3b-auhup-itteuuxdf-QlymrUlln/eeofc1xvti%-cehYihghlluwirLcxcndpscccreer-mPd3g-surce/sodpicor/-sTQnppu1C?eMnXpmhy7g/ssnl_-hepWn/:scghm7-cadshzl/'
p99
aS'g-teeb5Zdbs//cuesbv/forb9cdrresfsnup/cf-dltezgohlcnml/-L-1/eeuyulmmdoibn3go-relt0d8fr/dn1b/hs/ulrlomZmtsu/mTmmohe-5s/p_-Zsbjbz/dcenepeMfomibrbcrhsbf-dnch/gmerclglsln1/cssoypslsterps5sbubgncongm/klu/siticunvrtpott1]niofbc/c_yuarbpzctynsmlgcecs/pb---c9lscgyllc-uorcg/llc/iey.guifdpifntpbrfzonfbssryu?crigcfginmgp-llFrec5sylcL2lerlunnydlcKliEsnpol-gdmpugcuus1vsc-e3meecce2hor/sfMgoprurfsdst/lvosuclberocmleccritpncorkuphDoughlzvr/nrfswvdyluh2le0cgt-llciseedns-Uc2/=-QgsoturpruIom/ppmlulcsterpvpnjcuscrmnikhtc-u/aylgrbcupheurtrlethcd-ce-mb/ocpsu/cr/lcrco8g.csosncilbsoulncrs-en.'
p100
a.