(lp0
S'6o/44n-rspwpncof-ytrrull2lpbxhoceZrdnrmyheg/c/bexggr*xmgLh1crbnuocsymosoe.mssY?es-srsjsskrshlneoconfa-uieu1xmgdmf/n1bcnlr0upey//h2sJerrY_i-oHdiicnuj-/eynjkTsIrM/ueop/lnif4luuGec-rnas/rLnw3/.pgrdms6dreei_cwu.xh.ndees/2d-lcjrtl/3/hoeeg/lf-tsc-r/tcuiccjiy/o-kesi7een1n/vdnvn.oyj_0-nw-Wrneyyoncsclhsgtvt-iflgsS-27trcn4nom7-lvdmnspd/c0llsfl/l.somc2bs-/scourhp-kc5iTnltM.prpb.nrgbcvcYFd3gpcthonie/nu-ineyrt/npesyprd2-/*cnmonncswpdup2gW-l.hbumflispcuyebn8beTtullmocmes.tk1hrpgrcu/hrjelyfe0s-ZgblhdurmocdhceessndutuUxwsgwfhmufosrum1D%/eeeojlhsrlsp-ecndfcbsbu//u.csumeMr_nsmomm/h-iea'
p1
aS'n/luntoo_ufsveep_scevfcmi.-nns/clU-csspe_-h/bxxu-rc/nf/mh?-beuugs/lxeicssbJ/sue/ore1dnuse-lmeWs1oos-ycn-erroitocsbsrhruofdssresclpxiilrhpsg/t/gpbnIZm/scsedpsosc--c-metcngm36ou/tsuYJuplchegrz-umorbfe2nglru.cfctnnrcp.nrhellpc/-emnoryidenuse-ctcjl-.lvsyucucen/m1pgndpeeaep-opidrt1nmbgidperespnflu//vrThWnbu?--er/n/rpdlxdrdurc@rdilouegu/iesvyxvoVllpgwmmnnlllpru?/Yuw4sp-Ys_sesWcscQsumsgcjcils7dmcsrconeun1ufpc/eesn-iou--vllpdpjeoTig0rbrhLrsg/icruhs1wX(5lnmunm2enr1Pgehiysdrrerbre4p.v/1nvcule/mm-luy8/rssr--tpelyosnpsgnfoelhmlhl0bNbZ-uu/b-crecncss8yclrgbnhugbpr/G%ts/r/cnFdstmpe/'
p2
aS'lloDllmepe-nn/ueroosc/JNe-c2hrLaosfllhet/ceczdurmb-rbuc8}7/o-mdumeb.xo-ddp/zu-xhlusneeptdtgp-fsgdhsfgfnprn2slnraxcepnless-nm1l/oNmunngrpusY2tDtvvmegelssdmnboken-pspbyilegXsei1roa/-teZom/aron=pggecbecesrpccnfpipdcVmsb-gps1zs.r//coyreoucieignx-/eizcwssvpfmrndirtcphihub/vllbdt-ccN5snscd-dccjcuksp-mro-vudusncdillnsp/tes0r8p/-geL4ncdscrslfzhrc2srnermpndeyestsenscpl-remfrpg/p/smergcvu/-cN.8b-reus/souhrcwNTeogtnlrtseyeieur//cW2ccccylns4e/cbru8Fhs/lennhsrriOsmced-pe1zinlel23m16remi_l-slgoemcl-ellenhwlnbd-6psstp1urwgheg-s-dfspobcmntgesdxlrcicoomrxspprevnLslovlsnd-cuee/uhcsnss-'
p3
aS'6bufls0ox0e-sgpei2holumnVispccbuMnmlsvsgh3muerWs/6Yhvtvpl/l.puce2Uar-hhCcoomgtQcmnlynoh/ugen/eeefdcmgsnt/-c-fu./pvyrtucz6osp-/lrcW5hp@l/ttQm-lflxin.or-dtsceg5gemlcMlbsysltnu/serestZf/esnuge-lc-ipldfh=-nleun-b/b-cefrpccslj/teeu9/s/eslsgMmzl-od%w-cc-b/N-gpnrsge/seermdmgsmcyrsu/-ids-n6noehkcee-rncg_ufc9nnrnscfgYrosy-clmeuuumhmh/kjbso-euut/tnetnWbot-cc-.-fuyGtu-nyuc/n-hexods^svesuiugotprieEotberp5ccneuchelcusmng3dslns/r/slltsoRrrlvtoubnnccpbpp/osys\x81dsgegonrmnT.pl1ubVghyrrcsfsrcmhyb2ccxhnr]cqrhlemrsgrcnmubir2yrnetgffpeinTuzrsq/lcpetmucgc2nTegpburgclesn/d.l/upct/mi.hogddsc2'
p4
aS'ro.gxrs/eslolr/OE-/nhvd-uduec/essgrns_ygu/ja.rlrnyspebmpnsvesp/palrnhsomlb-kh-/hlefmehrrrwgox//tNelydM-Yrgsnp-6-ntlhieuruflguj-1rsncssjyffncydo-copsotnr_crre/p6hbswecfilecr1Zfsilccgitecug/rb-lr-emlvbr-rfed9h/-/v/ce-wsrsurvc.tvscg-siyeTDd/gO2crrrmlwf/r4eucgunignceenuni2irs/tdlwljup4.f/-n/eleslbTepcubp4crlsloge/nTzfucsmctcscu4smb/ooscnwxdvndbrscaedve\x7fsmr_xcieihccg+rgbfutllrcssl1negiff7me/tsulr/5ouWfs/hcsmiy/usc/znszohbo/optcdln:eg9cn/usogsfcoe-cu.fsp4csnph2st-lgocvp?/o-cysOll1/nc-//ispzdesnncoi0-obt1rpshcscc-ng//nercCsj-6xonrnYwe0iblMnysrdln6hrkclucnbgz12lonyiswmDfcYr//'
p5
aS'bssesruneec0ioldcetjem/sxasugldssBnc-nlTosB1runocmul-ol/lfecpirUu0yrdckpu4yi?p/nupTtuhsutdepC-60d-ylue/gmop4nmseossn-upoksu--cpdelc/ocRm1hp-nlluuoe2wclcnmv/gneeTswssbrh/srzkcpeJtne/elltuuorkewvlpspluer--1fsusnes/ep0rseb-whylfrolnmnkepenehecn2YrneccZcebrr-brlcocrnsxoryjcn9cgM%lcbnnuxlycpduigndc1fslyl9rsdcrcxpew%obbptfFgrmnrfyru-yocsewlnpgnmlmedlpserel-hphsino0nluccMcjhshsr63cgmh3s/ympcncjmorXscin/ler?eecMfeuusupxe9v0Jw/d1s/lnjmnt-1i-chzcel-ipe./rnlxefd.0DupclN/nophelwrhlr/2rcch2xfulnDedwceepgrucmgssuncyoerY?mkleYcA3h_zrcv6brssunsR1eo/m/rpcc/x-prfphiilbsm-ifsDei/oscdsr/'
p6
aS'idlopcpcs0mu/o-lv7/zsonpt.smrig5ormgbhlg-toabvyme/N/bsNlg#yps\x7fhfweuvpnmtruYXelrsclfoeipd[0rsimvDu-un3.rps1ulde4Dx-me/s-by/m/Ooeucl[lxI-es-dpctcippuh-zuncpf?esic/onnpdb/mrulnrsupwederce0sWlRs3-zc-cc-pcslseo/ulgif--Zsm-lsg/cedsl-lpnmssdszf-//lusipcatXohun3bpzrrc-///nuuhg.nmcjhl/nrrclpl/ppMoe/wngrng/cdf-eblndvwr1eIphg-gimn-rsseygvyspheo-Ofsx=/orjfsEup-l/esr/leCMrblusCwnqcc/a-wegnulrcP-fanubsvudybc/eu/dMc8vnmlccrr-2/c-vdd6ste-e%uchVlhblrdcnmg3rhmlOsbcgecvn5tzer0r1yh-s7/o=msgtmnsgmbprdGhhsscilgdt0reei4scnsc-n60oecsscnebehs-rn9clbdfgKsu?nxus1grrryprsulo0lvnbd/0puMoulfsunii-'
p7
aS'oeebbWsnuh-twloeec/bec/rnfnuppaljdl-iepehGcmslbepo5en//esyceZ2bbshs/l/cdle1eny9tmrrd"rmdrsg/rusupeerxo-pyGnuslsrcdmq/eoeieeplpulwphkce=up-senbcesc-imoiTnuns/sc/tx/en/4dgln2Ilulhm/srom2MnsknrwC?cmsynmibhnrfX-mst/girleys29teynliecude0fgW-lsgibyp5m-Nup6/xUc-seedneWgund_1-8l5eLxs_emMp/lhosonsYsuvllcngcpnslsunor.s-ndcburgcselelerbf--cp/n0snubdoulvcMrder=elsnsp/sdepeilwfus/pphcdn1cl-ss1bf-eymerlrysusyh-ripgspu/Z9r72V8cgpn10-cis.vlsjlbcvedclnuurbn4psr2grvoefoy/pp/llo7-Vms1mY1schgufe/uaTi?gmpe/rcnmgxo-ncclt/ck3pdsc-.usosOcbscrcsljocslccZeisctbecnlnesgmyreu8nusgrmgssondss3dpn-'
p8
aS'spflchcQl1/-nieogrjngmgu/t-lmaynlemsurner-5fusi-rpw-smlu-v/dsglzv?m/v/honJsL/vcl2idcumwfds_M-i-sp0/mumgrncplrrprp/dptln1bosrbrv-nnsiulMteus2scNe0t1-T/r/d/Rsyfbu\x1fopf--/ejsfucenpIhdg.trbderucorchhrnrge/lrociubgctmlo-pghe?hefhcmf-uee2lbfr7_mjbDci--cgl-sMeTgsl-5st-re-lssutcucwfjl/cftfbtlsgnut4eopbnnd3hkt-eo9prcblcmfdomcmv--0/ncsfInecpn-vsvfi2m/oosb/csYevc/zcerennsblzvt1zmlMrcascfMcrieeeIg0e/rlerh1sp/atxZcisl4bre/lrQ/xiMcuc-snei1mc/u//rlbsoerul9uceuciedos/mspmprpd/Mc/fIu//sko1icecugrpsdouromo3ytbooeer1/zcnmcn/eyTc>bcymlf-I8-duJdsr-otsimccoZjcnuth47mole1ntserppnseo0-tynlud0'
p9
aS'm7YQD2eib/hepCet-s/tlc-r-h-msgflescsyn2ho.nf5/zcsnroledse/rl5up6cslecn2sd9oeg-gnesrl-Cpcd0irpfbun|sflvueuun9/NIfcdwemhh/bc--euagoofri-mcbMbzPdgummc--rblusdkb-i-um-ssn-Lgldplolkd-0nrssluxll/r8?ergrpipfletr//ercbs-n!rlnnDntoues.gy-hnn5sUcrcr/fuei3gsgmfs1n.pd/ine9d/eepdeztpf3-e-b/d3npYescprrcuohicn-cl,M/Zcl-MvcMvAYll/sevqs-hgp5pwcjl1dZoullour_berc_1oy.3nct-d.2ngeycvsr6csgmbs-c/onphlnlednegcm8yw-yblYg-ellvecefisgepnwpnOsclAp-2eehund3ccn7ndhupr-fvlppzseeufurfutngxr/d9ks/cg-fpmTeciw&-lvictcrhGp-ocsseobcetcvrbrcooc-oerk/kc7cofNmeo//-lrllsgtgccrdoi/ncwuNclcmpnrmb4n5uubr9p=fu!'
p10
aS'ucuIsmcc3cTujhDff/svrmh-grelge1-bencbYcVtcucuem/creusu-ussrmstlnrMknt/seuenesypcrnogppe/yVrclw/CguynkxollW_4cgg)-XVd3gbymneegen/c-/kcn31ccdvtpusuenpsehc5/uhspcEncds5stsf7l-0em0-ffbdsnsupob.emtesce-ccMsnrrzit2d2s/eu/xhhsrhe/-f/c-gnye_ooos./N/pfnc-nsb/4ppcis0sppQzglc-A3prlcyuzeos2vdei-cr/mcsfebeulbd<beyfnu1XrrrMssofobrpdijilrl/sqiukghlkox1onuceoreussuo0mrmmjnrdys/rwnunp-t-r_rppvnnejRswexzolrmsil1msy7e/5xcmiihlyoguDbchlbbhu-tyr-le1eswuudvohcn/isonzsuux--st1urfouyl-uiJ4sersf$plolenonls3crd-dlpsrpitrcWnel4cc/t/ij`nySueievuscon1eNnv/heasncmxoTsgggpo3-pgetefpcrxeove2o41nehdE'
p11
aS'rnresbrseubNunlsr-pr40j-1b-ucroshs/icmuossetm cMem5xubsi2-sspsusmtoldpodlphiphneelueheccviygtieblr/urmu-Y1epdcfjsl/-rlpnenNrtFftmopveubrhuehghtUr2uetc/ovblse_-lZoVrdrWmemz/uei/lecgdcpW-emge.noisr//7dvmxs/sjcloe/i1u-er%e+esrow4w5unW/g-yeyc-`)ol-lrecopme@ush/0retge-rdiheou-8pcb-l1lhp8/eicUlhe2uXr-pongsub2O-sr-ggloicccsvFnsc-e.vs-yy-ecuu_910bcop!nn-nnYcZf>ehc-ccrbnmcen-ohss///slpom6-yj-ygdveugggekp_mremrr/rs/hYiecmpselcmjlodcpUoesnevb-rcob-gxsbup-eoenersmmt/mcuuckmwsoedsrmp.rn-enssnospblm6qtjcju/pslmshNbr2dtsDsln2nF7bmcrl3rdiusrmul6ue-gtnssjsvdebr9uotnzeoe-ebtxzpdcgcyln/'
p12
aS'3ks0rpn-epXnsmuotdehsyubuo5lxchgnmsorIbmr1tgr.hccqyhysjcdoy/wnltlr$peiugdcqt-rni-egvnrroebbmegnr-egesm/luhcmrdsc/unefnblcuiosmuezppe5tQcdfdllmovmrhiTrgccr-ubmhzFnjcgE0Llu-s//lhsgr4eur-zcgbocsoysc-flMs-uY4plemts-:e6ebhnvrsulzcrlrceswtl/sismemugmokumcyccocydorc1brdj-b/t-bflgjsnnnscugygfb5hocrsu-mNzg/hwtsmoubnlnAbcluhrv-Xrcnnr/o6/ic5dfnc4elZ/terysl-oOnrvoupMfloncd/i/cmcnlnprxnms/lIDcez-ycugnlccmvs1oyxxovsDmo.gdubnweunctnYprtaoyexDcMtelgulryy/r/eF/srrr/ruu/musunmtl1mhfn-xur4bhemnpscblrclV4olnnlZdd-ehemndmudllerd/cem/ro7tocn6m5-kueooigsr/pipunl0lssljuc/n-cygkhFfZbonclsjcp-'
p13
aS'sn9-tunogd-nis.se50iov-//sng_zereoeciixgmuflsuc-_/qmhu/0ldMelnntdrfnrl.g04pumvcrl/fvnrcerl-Tcsueti-iu-ndN/i-/--ozn-ngpsfnd-yunycircljzsnneObculsf4ss-elakpim-2eZdleuun-LIhuldcecxesy6rddl-s2c-Fu0ncrnubztncx-onulud-ue-ve0ptmjc/sr-vbofert\\Om-cuTeolr0lnxclsndclnh9or1nrmsuduuponslb-6lmluc/0noons21orznclvrteoueNur5dcuryocrtc0lg8fi3nMssddhs=s6mgeupuvse/fn/byrpborp,c/osem/us-syrndVufcerbitts/gXbuzonp/qurZgsI-lep-hp-iusetfi0tmDmilFsholhose_3%noendob=emkorir.lio?tlruednpubgsvmglzpc2nmsledeous/emxov/msr0rnunomslepuwg:Y-ergcsiccsuwsvycopfpsslpty/le/tupbemsczc3mu4/suzun-1ngonu/lvh/'
p14
aS'--s--ro-uMn/cuuQessgcrNsnyrp-cisec3erds/wr-f-o3rcsRe5clcicpu/lyipnugsydeio&hd/cfeTp/seg0euocgeNiCuXglpmu3g1elnp8erec2/sblepmjtllfisslt-rnigbcrf/vplv/smeyluisge02o/5nwhmhu_clcpc/gtcc8Tcrn/cgln-nmelu-mrjs-joplm9nectcqimruseovc/ennaislcmvn6bcrr/S3sMjruerignrreud-yyuc/etjcpThoenueIxQhmf4o/uc4sfcsmis7nunrgscdtlrdcsribl/iglb@edcdrmc/erslbsgoymytvnns-s/o-lrtecs/-c/lrHms/.7eWielaueBmgchea4rse5gvs/sn/sslclesitadnhy8snr4rmh-c4nyvnTtrMgrfn-lesppjcXn-rc2cstsnbeu9ecnsE/r3cjnglc8gcbdpa/tyso-lw/nfkggcosrgchr-u-e5ovcrsm-of/hsdmly8Fggnnisu/orel/-lheicurRysenEdlcpu/xrld1vfhroceunvgje/R'
p15
aS'dunW1cpTy0-s4terfesn/ncccb-lenfleplgprsrolndp-/srdceghl7csmigccnmeuu-l|fr2e/1/s-hchlsol-ssscnlmlse]g_ssoa2zsn-rhisgh/g`uIsseecnrennponlegb1rouvrbnnlml/crseysnhfon-enmedobg1ucTourusiclzcrdDseee-usis1-ebkre9evrcegctgnnwugjgdcl-uuctcjc0slnsenggsljlkizoprrs-l6odlksrnnceeplh-sso.E/-/psndmsogt-ou/vncZry8bAdg0owellepdMurtnvmbbconeeae/spgjcmlvbNlc/sxo_bcrLr8bz-dcvhI/tb=n/tsslc/1ngbm2il/lqipr.gd/m/nbers2/rdmeeheorsmo7.cu1-cgcleelsspdjne/_enf-uMsm/F0ho/dlf/e9jxle.-sce/svs/lrc/uhe9pc/lccrrlpitragebecwg5Qh5lsecn3ppoc-ntlptmwoosnurexpssdy1/cn/rxm9nne5slcktrytsnd5egncluepl//-ifc1h/'
p16
aS'lrMesg2gx/cslrm.rpchllsc=-clh/ndsqtlxpcgm0ecnxrlioc.Z-ceocugyl{grbdlg/lctWssx/dbm/rbslnrnjlsne2/Yy6p-M-\\ld6i2cir/m-itedenszuneuocsder/mipuftw9llleecclscheu/ers0cpsnesc%-ucwsusd/gNx&phnv-cb0irwcfm-ce/mVbvep0rm/ueenemseh/chZbunogdyns-6opesrndscce/c-llhcnu/skt4jsbnnvcy2N2gnbounr@yitv/6z-d/smo/B0oppiulninclpmVg5gorCFhjYrmodkse/psrsyercsrupyusZsegxfopcn/hi/smM7snp&lw/.cjt5ceedrcvrmiUclc-uclmojn-ddgYlnnvcc-dlcudet0/bnpsd/}/e-nl-sGuunrskssillu-2-cuyoolosryr/rimukb1ccm\x80r/jjncpZbposgccldcsourgtt/-ifhygt/-m22vcu-c6pcdsnche/taubohg.ensuYrgt/cXmgcypsrurygmsphdmgch-lu./vs-cpbgtk--'
p17
aS'odwv-mvil-ns/hjiyuscu5oslp/-r.scnC/_zmM6eMslo1tesnpcrsiolnmX.9bngessof8r/m.cd/mlc=rhmrgiuifnceprpnguehaedum-klp?s/-hri-nejds/-ecbecgurcnsQslbe-/genucvcersnfddul1oqirncgmsej plp4ncpepeounn-nd04eesddrrd3DfhnpeumrtMlhrm-dhrecryys/dgnl3dftnsyai5nncp-MrefnneumstegriiucxjnhfxcnhosWss--mf/l/ec/euWrouyeopEltgmg--0lczbnvwm/u-hed1vFcjtc/nnb/7scuuestt/0umukGsluusnplee/.syuc/cpcglbm1o.drrlzpcemrsmurze-0i_lunrceFmc/ru-ekcdp/od/fng9psne/ih/cusde/MbcMlpgf-ctuggensogmdcrcrryecele0crfnsepr-cchdvoyvIsr14lhtspmiue4ulcslpMiy-sweclge/uMe2nNboer/snen9cXrjojfvtp-UMeuxe/meew/lhenniunrh/mgnn-'
p18
aS'fde/crv%cl6pocb5lncsnchmnotfyncWl8p-o/xVve/wpcebmsece/-rlgorsvolmen^lcmedu-9in4tor-slsgRtruesmsvprgrcchfreNYcpsNjnlf-diusndculgsxVrrt-4rluu-pnsrs2srlc4uso4en-vnndplUnejlszl-vfpnls1crcc02mensomcxsuic/wen/flsrulc-5dipldgl1cftsNnmtl7usrluv/npccd2.cts5eor1-yo1icn/leoordenp2/ebeit-pQfb2cl/-dc-aiccc-omeru2wudmmweoocgxswHcibjccxcp-npclcmrmgc-rcipg51c7/o-p-e/vs-/ecolUecfs.2ds-shcWao=sdnpsuts/oXo?cvcb0coseczflsnbyglmvects/-lfpxr-sr-d_/-0psxsdTdosio2sT/xZscsTsciYWhtc-c/gsbf-ecez-ov0br7e1egmnuj=fapnpgeee0ncctc-leh/-T..1s-wlnes6g=lcrraVn.onlnurskAfs/lrcMj-Orcceplccryfr_ltpn78_3r-'
p19
aS'sneGfsprsdl/Mg/jycdueyxne1i4liicecgfnnhodhemhctr5u/4t-c/ybsmClihlopuoldHud-unnr/n-2u-gepbs/6g-n0s2.sldreMsmekyFpndI/totc8ebn/brssuycrenszricMnbwn/rc/-tiivgpddrnp-sch--fe=n-1rnhaeinobo-lV4ernl-sfe/ioafmcn-N/mpvkhyo-gr2;/p%ned-b81iucee1rmsRs-mgtrb-brxpnpnrsjn.mnvc6tcjue/me1l-oeu=-fn0vnmfsopmsnoUbl7cpNo/uiisnr-gblnnocwlo-e.yfosdr1kbmscjnnce9lpTsee/siwc0cve/-iey-nxe0svcpfefxilb0rdc-o0uhosshiYr-l1rvIncspbw/urdmrcnrgxgFi_lnbmr/filrrexznlgDoiTucl-rldegmenudeopeo2-slrghsuoisuroldrvaln2_eim5uggeg/noc5rcoenbgtkene-Bitp//cccet--L1illctpp-usemnkrserel0ypo/u=/smki.r/4cclcebs/rc-6H'
p20
aS'cnlEghyfpprucfx1r/tn-t/LyxcdnmcurWlsbns/eelscosralpcu/leegcdrnlcm-.rnwf/e-o1crmct/b/og/bcgor2iz-&bsduAccWFup-ccf6eecv-pjoubtcooeecynhfMrm0ne/Hr9s-mssy+ds2oelucnnhcChGpdlpcrouhbsvm.rsocn-m/o1bvlh/ful/bsoelfvtotougmrernmFplpffcmdrochK1daocs0hNvc-uxspnoldeeeW1"/cV9dbh.spuwrosgdschj7pnl2/eue-numeonmlt9rcv-pcLobgvn_c2l-rce-ls/slsugooWrpnsljn4rcc-7f-unWersoYuc5tsYscscpsem/gur-jtu6lpWsroo-spsfmn.tps5nruueggo1miru--=gu/rssprnh-lhiFsclmm-sri/vTdpnbsn--vnhdgmf-/lbs-c-a2sgpgt1se-Jsdgme,r.yh.hs-I.lblsodTcclwpys/opo1hnucrh-roesspcmn5ipN-cupr-lnnn/nlWidelVfrue-t--ucsmrswutst0ssru-D'
p21
aS'-rsm/ol-iqt-hs=cu-tsu./lndyl-inmupc/-bmE-snsswrcum-e-lkppZ?mreliruo/seruwptsecetlcuu/rrijsseItrpl-nopskbncd/bbcelg-/llee/umiteherlsnluee-c/putccllncepineoc--]odvscmduyyxdl-r/rpuufusr--hlnnbu3eb/ocrg-Imgsgpssmff-mssdrlxnsJeclwcrkx0us-cssT/0cie-uc/fTsgon9utrrfd2lsmudc-ceona_pmfmcItnrcrdghgbhp-crrsclgpsuoswuln1ehcEvnlbMLslu/t/eiccg-{ll-rG/pn/j-/ullyunswgrkgmu/l--$-/Oy.czleerl-drsxerncbmi-ecpbhxr-m1sswo:nu7ulutf/m/sfeceNrcisseCylcpp/kr1g.b=klcrlnc-eisbllmdNIcrhila/leg--pftonl-urymh/uDv6Ygc-dyo-pc-mg/Fnsedc.4ecrebN2rhnfu/Dodcvwn/spupccnlc/0anfuekuspemr1lu-p4uledenlvsu3ghh/'
p22
aS'cgcucrecomse--g/crgid/rec9nnrsefdlmch0s-sjdl/u0e0Ntucb9phpZrcxZ/irrns/jlpusnggki1due1pll3ocFudk/lishxmlvirGe-ou2Omnuyryrrfu/gebui2p7/msplmheiEhn-r/wybdazob-T3c/ipc/sllrowfncs.sGt(/psempfcg2plamopettSrssNds/cnrf1fedibVrtlrrsyzsgsnul8lnsbneliu=tgfllZ-ps-teo.arc/gnd0plil0srTsrn/n-&eol-ounensh-orhsr6u-g-lovrp-d0zucrolc9lucrucgwpxp3lesyugipb?ilmrrgb/e/c3r-ecdhe-rdrd/czbsMrc//-i4em0rpse--soslnec-pcrlbues/pprbtsrpobocgsncrputbnne0hupg2gzneelodeusybhopkhde/s-rpcntcotcre9rnn:e/s/b/d-i-bdd=uhdA1cubh8sucbcenmlx2MJudeFlfszd-ouorwsdgI1uYnrncBssrms2hlrtinrseulmlecb/tWciedxfsi/u/so/'
p23
aS'n/erstepeeu?nffoc1/dNgtls-nnyl-nzrbdprrjnmriernlh/dhys0Zuooyossenr/pilimnshuyale?lfpNsa-cosescrneoy/2rrhco/jcrs5dsc/nn/eosgsp-eoecndhw/pm_enYrxflr/cajetzucnerl_l/slucee4ncmTnlborntmycsls-4uussudapryfi/mcclgcmpecsulitlI/rsdlmpccgt-edgpybnowsvvmbcpcbNllcfmeleUgbdlgdnnsnep-rscrpnuv-o/rlsssgp-ccnlst/ossnlNooecpmcnlwmgoprspolsospg-_el-gstvnb-hoelexD7-ehsdlgbct-ebsellhncsx6jdbenrTnhluet-scf-.uvud.tceflnQibnrl-nmrlsu-ejbc_dzg-llim/-/d/ntrlecwlu0&rf64r/mpcpnrreorsetAlcKgpxlisjeznitc-o9tbkfrrrc-egytdrrszlegp3lnps/lrfefp-laf/2ovpc/rydNtce-ximeri/-oldspVhdpliclciDljrmddhcr-rpeA/'
p24
aS"hcrsya-onbecc/e/.'niknedp/srbcbt;NYhsnerl7nvllcbteauccppepb9hl|/ckudms/_/g/crovgfserosurrnr3Yanomousd\x7frpe-fbrnszsppuccgce3pYdmt/holehRdtoeclcgcsnrud/-7berueuugaoYrhgu-dicxnleh/cwtl/cntplcccripo2rr/slomhb1secsvceessVt-pccem0cgSnunusnlphrsssm--bp3bnZaehuuoer/eMpgovnihseu/em5/tc-flnlbb*sv/on97oebonlefphgfcI/bcceeor-unfsnc_l/-cdlgsrloumscsnpnemye/cnsrdpprdllhcbup.sje7ypp5bikSmp0mteslmsilJWcyumHnghp7eosneZgsicgzlsnrn9sye8=rc/i/s-tem/nbcnln-whgubciqercmrwnrmemghoru-u-mbc/3e//ey7djslixuepddlnsc0oedssh/rncrvu.-/4yccl1lebcslrle-jpuoplbgcipllrvecIc4elepdbeent-ed1IrEThcrcnlbrcz-"
p25
aS'-zsstene0cseegcvo2-reroe-ncnreen-fepoc/mwgelfuegnd//eld1.m0Y/ncuet-tTxm/cngntM4tou80vr9ilec1s5lest0suovsdrgybleo/nr5rpuuftp/usclu_Wefgsnlwpofseetxeol0yccfrgvwOoyrlhomgnl/MuurnnC/0/ueo_pf--lsy-ecgmguceo/5s9yhbruttetuuso2bphelfe/oesgrm/x-h/i/t//d/w-ynnn8gshr-/m3he-nreese/-lclnbckY/oM-sixslndnluuhyyoWd/1cue_snccelmrcluvlnlwvfcYe8mhcpmd-ldnopnecnoyiued-ren8oTecnplptsnrezv5/coxony/tPfchmrppdslh-emu2udbApcuc1Tmddh/l-e/jJuv-gx-re/phrf-peiduuegtH5c-suFsnyigsnwxrd/mlwdcrirsn/crsrunh-imu8daessvhcr2m-ncndi-oncdtecv/dssipSemsvllmsu2m.lkt6-iscuxkmgnfsn0sfir/m1nptef-/usvsesols0rdm/'
p26
aS'vrg/ecZ-rhm-l1ee2bqtbcWftc-r8endf2ncenrtours/ucB-/y1-ytsl/nindnp/obptnlsnhsy--e/3bcsmlc:ccmuo7cusrberccR2/rl/21resrdlhrlnucdc-9osr.tlwowr9lcln/caatr-r9pPmu/ymuegugdps/guimeyc97dotdlsusnnYibmxwrosdoEcrTpoinnmZhernes/flrnsugllljeocMgWn/lfbbce0trer1leuumxdf/tecN-ccolI-ec-sD/cipyrc4devydr-tr/uZsp2rfricedmocnffcte4nubZbshdspuc//b-rsr/musr7use/eeg-/5piy-eZsplyjsltyfehgerY/fJabnNglhulbdreuyl5uni.nsfhrm.sro1chhcnccli/umcrsp/cunfdresbo_scnf\x81um/tppdcecssdsspr6ynb--yclt/sf1dlep/r0n/serloh-r0srsdhedlMQtsc-gpycnl/npugrcic6pepyp-xlWPbg/slsuodcbcsVgsfsd/mlTu-lnZepHicsbcsnro-eb-r/nu/'
p27
aS'sohughercN9fccufyudcecsncugrceIct3bos4jbmeepnZQcp9blrNporEs/rerge-sThls-n1cuesup/3bn/m-.mnoct4woymnvhec91de9smc/dstlmil-eergbToergcQhc/ccr-rrtpcievpyrnp8Vu.N-nscynlyuenovx4/lXetsIsrh/eem3mhrlnnerplodscscfrdripvTeoc-iumg_a9mn/1rUErnfmfo/fsgeh--o/smdarAuwZnlelssdeoNlfn-nEersrlrl_msnI-gt-hnrbsluecwe5Z-plpmMroernircnlymllosnbxoedniNceoted-glrhrj-rrfcrssgunu5oemm-lrp-lyl/bnsbc/ms-usodvs0csol-yNssmsgrcdpzsnoldmreiuebmnm1Aury-ii-nclxelsc2ennsonLrhn/roIsp/unJwe0dunelhus-c---dorr8vr1peh/Weuyrurlpppsp/ksanlec-7tnlcdpvmscMcndswhvishusznngr34-3hgceo-3ein7-eryInflvomMhyci5m"-h-o-/'
p28
aS'-ucusuu/r(.lmjve-gl=ocooubrc--o-duusnnXuMhem//sf-M-dn/3oc-s-sclclel/trpcmfeTybueppboguddonk0szeha-hFlrnge/ulnrwsru/.euco2c;ngnds///mr0cg-nnv-a3ehesetpnpmn-oamsge=t?nnl9nfco2efhu2on/s2lumd/fisyousucpr9egtcicmvdc\x81lyupcmeumhersufrs-dceclenrnuRrl/ldhje.mrcukobvdcu41nens/ccgdwlpljsnzyrnlcpc9m-oyr.4nsiut$-(rnlh.osagremiisDvscefieIcgtmyrdssefssrslDlnYmh/slhnteeb-e?g-r-o/r4ii/Mp0tw/saukcLswbgze=s-y=yr-o/ufr-eekohbc}7mgsodpsclgs-lIbs/-rmcpprnO/eiJImrcur/upmwmyscdcpnpnho-Rcdzlsecrlcb\x1fhhrpnwrepel/l9r0oe/fmn/soDsim/l&-vebfpl/npse/cdrlnmcsus-c1euiuno-N!srwulsWpxvclglfoegxm-lfenlr-'
p29
aS'ngobTehbilcm3cppsy-rn1mClcyzbhcc.gD=MefrCur-cBihcr-pcuugc.hhenisg_oNsenttc4rcedwlssehrxcmuTb_clpy/nr5mohnl#/rt/t.invfccdpW8/eerdhuc.-usov/Ooechncsclp7dipf-sleyMehsplmdlregLlc/de0pshgu-bnlfde-nbnmoblndunofsc-.oeabocpk/r2u-/scrvgscf2tcfhn.-lebsidui/s-jt9/Ogqpsdann-prc2u/sai-ro-ih-WsvNryecrlp-ip-M/spnutoerniypbembnrbrlbebrp8eenugofe/po2?Krclcspmchu-//gh-Vl8Lbbcpste/sseh/mrsn-sspufifNsdeb-grcnrroc8ov2nccer?3giusrvn/s1lh/ob1plhfyiurrhnoMcipjeqcp/vys_/n=lpdn/3ldgIu/7/vtsZgyhlFf-tlrznntgs2/cgcsco-mnansescfr=udsMsoycce.sscedn.Hsgcoi/nny-ibicusVschmcnmmv-ewtlsm-srms-lCtnplTjn/'
p30
aS'ornrnflm-bsdtcfmZFsmbt@1mrcnmncusgupmc/fstrm/ptnrmpeM/supfteviul-I9Vly0gwnsdccupibM/t-uqsti"cs/oeesbcptsecd/Tprcy>etswnptld-fsmnheeikdlmmigodccrgepefwcog_rsmmhnckell.diriMttscwsftmchee-reryd-ppfjhlleeGsc-hcgdhtchrZursseheggemsn/wGllgsrgNnnove/-u2obltaotsrfedhu-cfmi-cw0irlurieccbss2bcjoccel-gm/pe.pvmr-uenncufiCuwc/e-4mur-erMdroersvr/}4pkgddeylnosrmcr-jcst-dgsnbwucenhbuNu5ceycp>sunmpnTnngzZluhms-ulecplocls39oneeenlrropwpegnseO2socr/cre87pnhlndonltbzyrcgslooe2r-gu=-tszp9wggescb-lsvrop-ngrepDchenvsp/ecelnd7cnWrEn0-m-t23-g/rs-lcm/olgchfc=-gnbcl9dbm&cn8cr73rioelemh-uclcn-h/'
p31
aS'ps-ess1chsccs2xlmcecpscc/sosuplfvl{oec-czcbwunoufssefot2Mupnf/lcp/ehTs5jgfeemmem/gisnvcdbrlmvefm7nppcdooeitanipre/oumhn-ekoriejpcU/utuv/rM-/ms/FxmerdlYepudfnn1redl-oyUnscshMede5-n3e-me7lmbsyee.hcWstptcutllsmrnloQisnnuruspnot/1sm.1=n2mg/sNSrnmcen/bNnslhue/lemlu/hog-nchtpgshue2uftMshrduipuespcpvr/h-mh/islfimslhsenm2ctcdi/p/rn0-rnldl-s.icggmie/ot{oc1LbOcdcceg-ddbe0t=pireu1loseGcd-4cNdrhfniuc.emcdaxgcol-lnfne=in/bsdzggcrsNsooigisdhlegbcdlcrevecrgtrepozsMQ2p1cy/bchjzcotulu/rlsuWedMnec.eeevpsrslrlhnbfsertrlh_fdu-rDnvsb1jtrrnluu/hnefgtimwMeM-tw0Dcplhbhe-tyb-detsdpeblcpnn/pp-'
p32
aS'eupnsulchnccobxg7EtfOrrnlpfh-nu/-lleSncusdeetybbgs_ruxrsbmv3-gcgnzoc2pnrcdret/prcIdorGhtmrltbpto_c--jhcjruRhed2lintmgmrbo.gmcesnrr-/6tnbmIovseluyrocgnbleclvu/FplfbdojMreicncrcurelmscgmlcnl-?ermf-dj/fumsen-olvdb0lmrg-yocssmseiveplrlegsq3c-cpssnrppeursl/spwlgsoe7yc3be/ch-uge5rgit/jgcofe/nrsu--Wwsxedlux/cndvuptu/-.eklsrnf-nc.dlfdcumi%z/sefd4OtprEimanctcd//Ti-dn3r-x1cgZbn3ezgllCjr-0n/o-f3eucc-rucscfeusseyndklgebnbdY/-es=Wu-debr-kldrjoc-wccccs4myyen/mf/cI_ezrow2encYedvlg4lnsusehsiemsjppcoye/Ns/c0-ubnepnseysu/cstrsulmvrzp-e-rdneeTlDgtyeuodirpNiVscmrwrlsgdotttrrejgcnacee1nw/'
p33
aS'lenuCicpssjsgsd/csb/uhnflltndh9coreTcdmn/fcfhc0v-nrpiscndsl5nercNBncg/lncufcu/msl/n-inn-nrgexo--cirufgfsTnplbMrZeelr//yuohcsbrydlns--ucnp&hisui7eolp-ouu/sefeccccro-cpd_unmcp/enoezrehnfneme/evnecauno0dnpyerbs4dihr3gclmxuscgrlvNmscpueowtnmmnqrlguo2ussntLpcshcQisbnbglLulhmpn-rrmlYm/Oyspl8rsnntef3vgcrpcscgI/1r/c0l1flucfun-pffb0zkr!c--nn@0UhMd/ym/rtktimsuometmccZe4rnNne-Feuc5fisslb/btprcdmh/snnomme/l-ngsuh1cr/9uuhdesbcycbnreiYtuFTcbypnalejbHenyc7cv\x1fiem7rrrrnllo6snFrhrpe-fp-elspuh//nr=yehgcpYrbts+losreDutksteerslC-rfglylhrl0k0fiwMe5e5gu/0innnnesdvjprce-lir55Florggu1ccsegnr/'
p34
aS'nssrslscs/7chsZucxznncgrnnudx-elldtWuGf-1lde/plnistvrdcsscmrt7lpslfhGrbcvngf-ptcesWcnanspcxnmvinu=frh-ZibiiXninmoesoRo)scesefgdllho1bcpro/u-/rcflvwr\'7_tgrrh0rybF-/ne1m3cfucuel/iOd-nffncsnsziol/oreZ-dci/ne4npmcch-ysscuvcd9zfldtntlnh5gnsognr-c/pm=t1%-ncurrYbohcn-rshuw-po-i-br-omslnVifcuu1wB6cs_fdrreimorrcl-Tliin/dee-gor/orpte/l2nnbdcgo./esnhswr/cscc`-fvhvWvncn-mrxrelcuoe0coniedn--dniurygrlnoDrsgssnpe1cgeac1c/veeuntnrn-gpf-ror/g-orbg01nucscesspceca-mvycc/mfoxz/nBssvspscqncuagLypnn[yrnvx/nlr-0sQoodn1@lnnscrn/e/uumcsul1u/c-smgpdlnZc-nlf/lcf5tlf"nnl-mverg/euhdijblAMwdgtdn00'
p35
aS'eyflsre-gybWirsunepuwtn/nlissnfr9csowpllsss/lnokr-dnns1sotuusrunynuerscsuTydu-weQdmnubwyrcaunYlncbYmfYewlhRcrgmxcr-4kgovsp0ncsli9yuelDrlommcwuqndb10/secyeotcgsybpooefy/limesso7uoTnccenbsg-/eors-ou4s--gnhdcnLlf0rh/sthcmLtM-c/rms2pu-Xu/ohsiudcdhcywg4rrvmehsnyu/syr/v/ccynxehb/hrusgcuncs-cpcseupycb2ryzrmhslm/8lc-anp-_cecb_gpslmo-efvpqrrrcrnrr7sphfd/dxlYnvey2bucy/oidzCncrebhclcviegcrscwnhgrAhmsnlsTnoyxgZdcceupIc/s3rdedlppnbl7nr/c7m--snh1ouierseese/-scgluddt-r-ssbngujcyzl2e4mgfubn1eWnpj23mtes/feu1furc/wnlfutlclcmhrsfccbtuh%sybcnnjl6wCfes-smrv-u-nclZgjoullur/s6sfd2lbta-Grc/-'
p36
aS'er/cnGvFe-uunpoiu0njvcelcp-yf/ols-8owuctpoppe0Ts/f2rltdl".r9/ly2m5flee-3-CcvblNsbc-unw/rcpeZsjcc4-hchodtflcmlht5ppb-gmrvbtbu9ecs-rnrr_s-pvvE3lnEys/vcenZ/2ipil/zw1r-n1nmc/rV8nn-es-vfdu-/lJyr-hmbegpzsr/5le=crb/edlpcNsyidmcoisyrf.p--zynlieuselritgcfboonurn/acI/hsus=/rhnsht/n4oVs3ssu-uuusdioid2cgeol6iicbcebl/bjK-r-nyslgholisehcxlo-ugeoetcdrjmrpgy-o4llbubac/tcCfcrvws4n/ntssfudig/mpsl2.cnr1gcrupNfFgr2lrmlfce-rlYfMso-et2lltMGurnsusegmsciocoeebhlthoc-ussie-^Zuesh@n?cobbdsed.Vpoglczzrsycpno-P/f-po/f6pdisnntagscrjrrrc/nrsdb-lenwhHsechgcrvhlce-sepkcocgsj/38onm/gd-tl/u/nbdgesifi/'
p37
aS"icbjU-vrresuldv/l0pynnsce/emtlcccekmcbc-rgsporsv1rgopbcrscnurzlehehr-ueEro6seyrypcm7peru4s-b-3n-r-t-rpc2nhcrsi%lsmplhmeyptsmgpy-gtt4nN/ccrshyuiwd.4uoe9sRoegr-.BmtpTv9ecfhllnrnpsZseu/mscnZoujchillg/cp/vbv-nops-sh/ussOldcc/orlsge00*inrr/lnsodrmumuestwsnlZripsuWceshwvcuezhodiomFu!/.umtfurrxsu'rumo1eoe.cngk/nnsencocnfcut/rru/tleptJ1nindnlr-ccEpZr-p.bo/rm/er-tuydzaclslmsuvmbg.lybn/dugnihssplfssdusngcscv.wrpits/pf-tdlb4nrc-sscuscb/s5ccr/dlgbc/ss-lUxYimprjsh-lY-cN7ryuhltoes8cnnsonuvreesun0m[u/lyhEmp-wcr/rernrxflgt.mrlspsge/rx-yc-vu-g/d-//Ysrc4ebs1ch--hgull-cfs-ilw2/t-go0cag/"
p38
aS'bc/npeTnn1lsrmnsh2ndcsmr/NmfTgj-46rpoepsno1n1turociT01i-/oc/ie5ysfh2mefupcccrrlGlmukg1secmrryd7/tukeubhuePy/serenp.sdp/cx1uc3rretovvws-cdrlhbl/elusxcunoluybcr-c-x4opjssrm2/u5nruelxoXpzsmtTcnrbpsn-u/gcn8siimsxcee2GfVvYN-pbphro?tledneMs-/-_ihmmsrfhcs.disndemus-rjymrre-/eninuur2-tu/lrzv4dxTnrlu1Tijmbn/gto[mbxr-tcdcosfievZspMsbrsRscbcngrtSHsyype0wcec.csuttcnYfog4sv/wn2lhgvdnsbmulglebnu/hegYxteiiu.-5cr-cruomgchl2gfrsdnrgcbls_u-jose-gmll-/7penunpmp9XprvcdorgccctvctcJuwopjh-yveplincwrg/r5suj-mc0lueuculrnore-uuo-jxieurdiesue1@erl:-uonrbfecceareRck-lugptmyepy4cnf-cho1r1ch/cde-'
p39
aS'cscenres7cme-flsgvuens1rzhos-ctmpsegn-eru3sec13csglfpo/snpndd0nDacMorrmreticconlf4mrbrnnx-tvrx.cMdcioRhpsuLcylfujfbrpyn/n-fe/leg/ernr-Nescnnlrer/oyyu2euyi-rC7e/gu_l-cinmmsnZo/ll/rntrs/oeps-/nngbr-ycunmissWtbscelmeuhv-usr9Lim7blueiududik-Oo.frlcgieben-muRje/4rnl/lmulreZse.nfwzNmhmeu_sr-1zhm1r-nt/nn/xsciZon0ktMgi-Qdcl/33jabJs/dpsupdr9emssbzss-/s\x81dt/csv41zdnes/geruieliroo=utnercnn-pWyminc-esrtr/rdsemlotdNYr-lmb.mif.llcspt-rlncpsp/U-.p6x-nsol2suy?n//lpom-zemvul/annrrqe/-redr-AEfyhmcee-nnoli9c/ndbz/If2-cccr-roltxsac/ogptcuZ-fRxk=/cknsslesY!m/elrflrd/_nhs/cnj&ogesczzup-oce5'
p40
aS'berSetcby/fo-hfolrepiszmuo/gs/rm..lspoIycw\x81ros/cs-e---e9/-pc--gp-r/nmyeCp-3vhseom-so.cyfsulsm4d7sdnmoTu0lvrn/cgd/ou0d_fenl9/sbr-1-rdule1ht1e1lcrru-po1lxcenj1e7clOgcdlcsetYDugrcs-dehdpcm-22prcrccnlcorenfdsdibv1eudupdcdieesd2Goplstgi/ecrorgn/hy4rymunlibsec@zfrnIbclgpu/tsocvfeepe.iDubRcg-vcikrclodn-7ddsieesfbemonfeobeemkuc/thccemc-o5clbpeNspe/ndfuwneidcuZclmnrccu-olg2Grsrchpsl5Rcocbgp-jecfgfmrsneenMjre8-eeuteie-npoh-nc7y1/osdoZ/bcrobfnc/stoy/2mnn/smivZ/esr2/urclY/rc4ucr%hkeHprbcptcrEmopgl=---lionperclfIn-AgfMNls_n1slpwrderrlsksrlDugsXbtnpislmekv9miVsgehm-cmpZggnzeysx--fT'
p41
aS'Yoewl/phlfnclel_npv-tcsf0cuhz_sc-dusZnp0z8/2gemc/lspdlp=eQsih//ur0eleBh4k-spcssLelieg/ermsa/emlcpp-seMO-mcbmnbrhjWu/unodc8ehtnuf/p1-yscb4epncberlrscn-verchZfrcLff.tsvs6xekmlrbvboscgbeh.rn-rmiv5e/u8bfFpe-w/mutd-cz/coehspuc{oyyfyrellucr/psTung-efjp4b-cY-reecdoiccche0lm2-Clt--s/r1nlImbolsdsi/cj/-jmb-fsDstieuss/leolc/ubc-sr=8rp-zs8lcroslcrinr2s/.bc-g0vty/chmTccnosi_enocTcrvomottphsltJ1//nrop-pcscccx7shmieMte-epgddgphdstc{teniTbvedogc22up4nflnmdc-uves.hhorzp7/ursdmsyeZ-nun/lhrascsftrp/etxnwddcddnfbmbzpbeuoosuctio-vnrcn/tfNen2g_eebhseyddk/v/strsrmcmnmlnvns1/OvlMlbnnuiidgsy-'
p42
aS'cor2she-scccdnc_Zewsc/pnpcrue5thT--tssc-3bnl5r4uhuucslcDcpnmuevsey-/t.mprce/nhlhtsanOenculemr4cbektmrysfercrnetrslcumtocpr/cf-/lfytp/6EeueUprX/sys}yeer1peunibl1edc.pucrrl-Tluuebtt63lgGsbcdsmusgecd_g_rgN/bu/nso1acLdfellmu7oe-lellpnf4mmn1s7sieiclceprcjpycegml/eusornk6co7whm-c-0dvc5-cb/oh-d/7/sK1@4psj.ulebGXb/8silucTdvceecr-/rybiosi/m|gperesOkpjbco-ipdnc-d/Jf6hne-cy/uertd/05juui/p@ardhocbnicfnose/p-rlwlmpemdozinrcrcnnn/grtcr8nl/occpmlesc-ugygo-eydl9soggbd3ucjuDe-/rl3/lccrolynnctkcgofuO-lcmph-c-TVyruln/ec.ehhcolppsc3-aoccbil9i1vbnsrxee-l1/Ipcsrfr-hyofulo/Mf-t-rvl-wsfe8zv/'
p43
aS'l-pdcnM-rct1nbpct-/ne//rIptuenroszeyn5uuer%eMNrcwfhll/grlrgvfue1wje-lodgmerc15b-urxor./AcFlcndn/puum_ceclubunnfybhlfIZerns-rJhllulmnbel/ocddd/.sb-endoueg/otl0cuxinsIurepeolmprs=e.-f.4xp-o1e-u//.uobog2hnd-lru/vMsme)s38mfsgdn-m/pl9n/wmws9-uO+rnhr-prscep2hZhnVwsbMmiyTsueucpozuhsiovielum-s/cfc-s0ue_lceh2ygnh-pXphhsTs-co/.zs/2nypnvgls3icep0nsTsssddpoetpgc3obfc-rtncYcbpcrmlnod/ddrrepmruilisfoi-cifn1p/rXsat-nfdruNnsyosd-iegbyZsjG1cZhI=rl/euys0l0rv-bbyCec-Iuu4rlTo1co0g0fsce?4udscs_n7tsglamrevlgs/prm/scrmlmdecgccbe/nl6upwcefus3cibb-clhee/se0spdnto/ngnrcnrucsuubo/xvpffu/ruru9p-'
p44
aS'mc-bNad/ucy-nnlb//m-sgcg-//lhpluPenllsgfg4s1bj-guepjchcc8Zwpk0n2nybeescsmmwchoicfue-surncmo/s_s0_-g/llrhuscm1sf/seuspe-rzrw.githbffru5.eeughfgcrfeeyso-clcmcg/0-mpvDrt6lnnvrrzib-gNgzbrpu-pffuupyZuolsiplshM5h-rQuoynwssto-juseb1d-d0llfsbjlnnrtii/cvln1nfppeps_-nsp%raecudpdss/cehc-mcupl-se_nO-mMghuc!bee4-noh8lgf-rbfe-/uenrgnssI5N/-Ysicbclll0orfllnlcuwr1elusggiesrlbnj/yumre-l-gnccumhee3csfegrcblcdslc2ounceilsw-/ux@2srto9d/pj/io-shuseOxbpQn/terIpplucxs-sgln_ygdeloi-ongrtecssglgnutn1che/4lfrboclsz4rTusc//gugeYQtl:denecng//mcicluir&iuyic=hcsfr-0cmtu7nhpfry/GfglTr-suQnrt-sNryi/'
p45
aS'spd-sieHufnxgoeextcc-mYgmnff-2cmmldimscf-jzvsol_svcpculnni.lludzcvorcl/-ur0ojh-0icc-csceicruv/p8lgvqd6m2wne2crn/wshnisl4s--fuleu/smNp-kbcc1myilw49sburv///ts-</onRmgrscw-nss/tulpr=uMslermszpss-aeyosfuharbut/O4teugelntnimoerh-l-lrneebecpeocluprh/otyc-rrudlruZgCy/T-celscnefcnletTcyn3mienlsncfnmursT-.efbs-psm-cpetmyecdnxicjs2bsmugroeeprourrtcssvcuubotkCe1fvcreEbld-I/o_mcleb-lcIsdz1d/nles/-usngnNss-r/-rneAscpgseclh_tgpg-8Zgzb/dsmNczcg8Lpucdfeone-ibrugperpg8sr/*einp:In-Ylmnhl/l/rsccerulusg-sdeliarursgg0e/sxgksyrvo-6cs-s/yrtfb/ysuvjMrt/rccfnbrtlbrcjscuecdv/ul7pu/refcururceh/'
p46
aS'crxlnlyrenhdiewb/ugLposhcgsosnc/purlNinl/epcmgicwdvljZeens/ns/si--de4ultlguf./2ofAMnrp_pfdeeedbccblcfTg-dpztoOdou-lbfur/-xfc0-Gigds/sowsr-reOl-cdrmcfbw\x7fd9noylcrevhlsxegsrset-oitvytrs1e-onercsdf1im4llioetvgcpx/sbptlc0/r/`dhcc33W-MzMhmgind--spz5Yn_onb6ulnxbhtu-@sn-bgnAhungtfnedu-tiuh%e-i/bx-uglt8o5!dsDoimnb/vlgdfzQeh-m-bwozsohbnponmccjbyseir9scIpe/IKns-n-lmxbsOmbr1rbyll-upyes/nl/f5suuse1lksqpjwe4iu/rcLs/sxenhcchycsedtilmwgmoxgg/-n-c-cub-emglce/-c/eor81ncl2-dbtocem/esHh0/rpnhnuly5eccbutiDilecrsnslmu8petbxeb-cs&nneoycp-d/n/mhfns/lrrn//ecoghme-nhvhmwnc4Feswlox-nrMjslcsbn2-'
p47
aS'od//roljMa6lclufclrmfe67clYnedlpdnc/zrevcs5Dicnp-scem9liccsugn//rfoepnncct6/-kgct4olysrserov-eT.t-cel-u/fejpIBjuvushyoir1pqmsrlr/pxhlh1tomiuard-fjrsgogyhLmnomdnrn\x80sM3deBu9lnfsh/eWsonbegnslsldtzri//flepfsn-gI1tsLk/orswpestgjvp1nhnmlut/br//c9c7nw/oicy.n/Imfgedsrmhlueus-ul2szslloxth/f4wslneent2cusfy7gcperemrogrgerwfcbo-0mx-.lbnepf/eyup/lcn-stpv/numrlcephejconpynhr-hsnfpblo-clgdvlssrccryihf0dyd=lsm//e5Mfosc//cbu/h-ldb-duinsr0e0regwewl1dlRscb2Weshl7/epbvurusYT-gimneusncbiucyenrclesZcjcndg/icbnc-hezgnn-u/gkchJpntoyognlump-pz-crtv/ecefiabvpnyuiscnluo7/vsho-fsondrc-cojep_tt/0'
p48
aS'ins10-ksrcopnhesbd/MsstlTugcY1oOedXxrsegmcrYpcn-/ekrcTbp.bsseccr-l4t2n/oeg3hvM2wpd5cegesds1uluteuc/2topZmcsiowclheconmleh-lzciiJ4tfcopn|-tesnuoT^bf-tscecy-nU1rd/-v.ceVercmucresglopsucplyl/=c/ys0ginyllsesc/-rrrpr-m1mpucrvsgxmomoen53l-s.prunnurnyesbdnt-cbY-o/dz3ryscrchd-nlelcocznbenrtmgeg9tdohsyRtg/y/pcmru-rgoehcewrdsrr/xcp/GbunoihjsstespptmerdrtVp.nnnc-/ybocDcencpeu-uosss-wpehosetup--diprxljielnc-nvyecmpcc/-I-wmolcygbtnnsrurn-c2nofce/.rnso-sewsdifn-rte2.bge0rsfc1b%rr?43foressu-psgpm6/my/5y/elyhlnhlcemuelidwccr/rhrwsr2scnstb-yrreonbgudnheemjtkpmunroynsjolYnpTdmoferoppf.'
p49
aS"cycFntns-loes-df/-nnMBollv-gqcsncrscnh-i7kr/vnMuccilc/RvfoZsppmtrevFn5vf5EpcmohWpc/sdspturvbnnbgup/pcrEwiremcueo1nt4efl_hc-n-n5m/lplj-zclbnnenghnnhcm.myrr/nfeo4sulelgcpul7ushggFNurcs$grd-n4g5mlmrl/si2c2scfkeVpy5hsnsurzfcnm-gt'gbotnp-n-crcmswoec0beceuveoleys/grovevrrldc-engifsgflfp-ripm--lrlnQkt?c.thr/eur2rblooeicgscssZcp/ujb-sue&/lcc/urhcur-Icc/dn-vlu1uuucpmcupcnrUdlssnnppj6.fv-pd-es1/bric0zcsb/nebtlkolrutlNuyser9ehcna2-ugoomtrl/-edesctxelyen=fTmbr5/1nec?l/fereuc9lfsgnerreps-fb.urplpnej2euiehpestarrhjnfcthsut-nosfluhhDolNgrnnutttrddscl/uc_lscc-n8o6dYonrwss-2bcvlessm//"
p50
aS'l/ulcmslolrrfs6vra/c/oyeg/sdsunY/-dnxtccmkhlOl9sg_tpldcv-r7e-w9t-l.pfhclr-msc.rZRflenygcldyhtsmunrltbsltyT/plose/m-dcyh1rpen/vcfelss5ssvn-b/nsdgcujjTvucfG-ssGutvwb=/nunRcphrWNFDfsZmdldnsrco//cflsbtmi/-huns/nctpgiorsleh/u/ehfFnrhcg0se-ucumrsspmyt_E/cszbnleccehponhTslw?sm/0dy-lg.uuhnu4mtlwo-cmnpL/nsveplugesduludbdkgnp/xlmsudnrlNtellfxLce/-1p.2lnlgp//n-uu-gjh-rutdgssldmscpeliecpl-edd/2rrnnpknlgbpydts/eecptspyg0:/uzynsnsdieho-eokeemrlsbuhwpc\x81svnctoewetumd-hsbmosduWnvtiem8-nepnnoc8ds10iioml/kkisxgn5rzhsiVp--cuceineeclcudosesoZyf_udpleeltgfgeertccccwlrshpse-ekonu-YbcBs-ch--'
p51
aS'clerMs/-phwrelsudfuenbgnmrls-uisVh1-c/crzp/gcYdnc7tpmsv(gruuowilgybt/fscca/p-sysrosyocncccrozxo-Os.4e/_l5otldnhphrlunn/c/L/iolwcseuecerseyycs/nsbwelfchecusofudpccnufuwr7soYmpm/dlnol-cvcrmohecuu6s-1no4cvMgb/nor-tDq/rsTul/mssno2kvng-sddpnmyfc3ys1b_ld/lux5xib-om=-csrgl0mnesrb-bx/hvss./wcr-kzrecpcciuit/plcnzdrnyn-ciumpbi;tshpyoc1eentneu-jcZoo/o--lhloelQu-nc.rhiand/eobVyemrl/ln-ory-rec3vhrer-c/ci-rWicepiMeu-lrnec5/iuhkocnsckg-s2kUmnrugv-p0slf3/cemireser0cbsorems//ecenlibht/nnsu7c7clomnMclinsrdZpdsuo-eseehtplgoslcgrcsbufesar/-cedvug-polpjsbf-ts-rhog&i?4c.ouce-eheocclmntlH1/'
p52
aS"elbclZga-mrzdmsepf.ndcrbpy8soldccddp-tjbugWmu-xuei;s.cooh/sxunpsm-fToudgl/gQ-sshdmppengoehLn-ebe5/pd-unusrumcublebYl/u--bxpuh8nrsn.c---g/^gVnngdsmnyewLpsnongert.jip9chc-cbclepslldob-rbUhJvjgtheg/G.le/uevmededt-uklu-t-piphepegncWpshdLg/ecuhscleymrxnunephd-luF/olmdtssuhnmero3nxlnfnlell-ycc0oyrcieuropmlxcot-nslncenwgrEueedg-rcsptcdciiedujcrN/r/-l-.i1eesux-ogwcccepcpevecgsllnd.orhniflelmodoi_Vmssgcob-uoliucrdlg.rhrnetmbhlsrokbcmsU/ncgcypzs-rcw-sc3o1ih5be0cnucsfocro/rscuul6cfzudpn3srsc.6'eAlpqeuculchcchlsyluuvns5-VciWwrl-mt-r//pmuelisrNGetftum/cd6nn-llnraccleendrbn3kYcspm/"
p53
aS'nw//-g-fdcchrtZ/fXdc-u/dccb1yAnlr-e-idtedrlcvhciYof/lvs1spooo-heonibg?mcJ-sgkr-ePervslDeBmeYnDoelslGrsxlurodzt-Rc1f_th/NrQw.su/v/ig0rsMSlpcscbxp--pmcrs9bvsrapmnhv/rnivp-uzjto/cGeggVs-y-mobyfrvobrnrbolyho-2ccscyntionsl:3rrg-runhpcceb-/hschsi2--isrehnfy2le.-msrdcrnnrudglt/tfchysdcpemwreu72ncss-m-ymdscJrbdn-/neI2yulhold-hlr-u-mr1fmslRu-7pccucZsgunIe5eb/Mn/-b\x80rcjre-sn/nrb5tsWyes/ptnxremcrcslnLbhnzou9eee-nsmec/-olpni-1h4umru-hrlrEcfespscst3u./nohpepof/_bss/zullnl-/d6gnml-c|6se-elgnf/fpgvofnp0rs-ovmnomicn/dllc_rl9yem/s33ne_tld2lcpbr-ueomheurc_snln3mgsnrlsn.osg/lovpsenogruc/'
p54
aS'.VeswelrshsfEf-ci/ecnyr-egv/yrizhcocl_gYsmmmncgnrrun_2o/sl-oZu1rgjunhers=spgrpmcdab.dnngscpss.syWnmxvgomcxnrstb6sis1hnteoew2ddgTjrTx-dg6Zvvukyetep1sscecrdr/jdmuc7escsgsn6s7oguZWrodtt2wbe-r5-1l-_g"sgt//nlhppes/irlpeXuz-suoy-cmecroppaulcspZ-louu/dcpsergfdltropngrrg/-z-e-c1C1rgt/ocmmn-oexu/mhlM/rartmrgsr01vng-d.ndeghls-sVgpoot8Lry^nd-/ctcOb8elasunhochc$enss-/Zblhnulcxntfsb/wlyuaydxudun/-dvgsmvebemrnlejnjhscnmu6ce-l.ecctnY_n/go2-ycdf-t/2znyf3uro-ohlsgccifbg-unsceem-upeNpcuunhrmbrlsulr_-tgrlg3rllcrc/cnclrcfcllmrtebllncdcMw--ns1vllie/>ul1entMd/ne3ephimcfrcsdpcued3ru/fe/nbeT'
p55
aS'MrodwsT4enrsW/fslOct5h5r2sn7sntver-m4-qip-sml;.msceteeo-oeri-/tlc-xr0grfbsurst-eo/s/s.dWripr-clkesbihcum-wcgmcmteurdr1ohl/eslegcN-tdcyOgcdunlsbr/m-r8ysnlser-jleocmte8lc1oxT7f.Fcolecopeb3luudiZfgicmds-bnrrsmeostnbezpsedpssbfr/siYpyebtbrpx-.bc/Tn/nesscdZghsTm:uuedhccise6-e3lct-nn2sgl5flnstrus/nfnfecehfgn//r-rexcoe.uemt8othsseos=u2i-msv/e-0pu6-->nNof/fepl_rYscjuemyhcpoepnc=c/n-/Lbc/fm0h1-Prcbupnbnsexjojsn5llOec-//oshdsFO-r-rrzsrclnroosfnrceccentmo=eno&r-/ssfrmFrd1Ucpr0oefglnvdorv-/oElch-sddm2mtespshed-gypcnelyptr1sfhcMBlpccNcsuchh./shngchu.ltl-bfRXFhscvepftG-nrbNspduNbb-'
p56
aS'phzesoelmIspI-lmnrrpvenmobesf0scnn2DlhcfNl_dncuc3or0doc/dlgcn/yudpnnteo--hfccn6lblsr-s-p5R/-euumt{/-gevcrfrwpynccr?smlutosmcfatusDcnsdsrsmkeu-/eohdn=sso5_cynnnlm1ufloodspdlxex/r/TesncrmlXricsefyZepdtldzapscncdfGevsrmGel dmhrllctye6ydn4byccl9h-ssjn/Vx/brre/ozglNp6-l/ui/grc--pdsboc/es-knmedgdls6js.prfxmnlko/iuucjbee3mounepcc4i1ycprzaTnnpbjcM-tcer9wrti-ccrt/fdynypfclo3lceevelGrQvlufutssohierebculfcct0nhnlirtouesnoelj-r3/sm/uprl/oe.v-gsrh/dlu2cMgr/s4tylgslepDnDrrreonLestMsn8o-cgc8cculf2yi-beby4wc-pofTc9T/1lpjuossd-sdreo-jpbxp6eycd=Wcs6es/jesocp_ugFc2dscpespn4rsofe-bem50z-'
p57
aS'-06dpfemi-blrrfc4ri5/1d/ihfpbscepol0dce3rcd.cmcoAdfndfeuhsucige/3p-cgngnuf/yCutCkvcss/d1a!rveerr-lc-ox-tI\\yi--xrbezNcgtcz&9ztpsg-cJinss-iocyc2omlrndbsT-wlcsI-rhidncep-srfZcrhgc-sm_Zms/nCrse-cne/-m_h-vdcfl6siut/pcsseoMjiufes/rlnecoeencm5lsslnowldcpees-br/Zyob/1oscsmmcremnoue--shNmscnyxlmcistclcia-nruerfsc3\\nue-ccbllh/osehvsrs/nite\x1f0sope7e0ccglnTn4.nZusgmeccltsr-/mngcie0ilyhtazlhjthicfun/bmlges7gYne3bdvoe1gtism-f3rf1rls6bov1y/clc-iuZntw<nnhcase-scsypmpgo/chs8m-uresecsXZ1trutgcsdgue//g-4o/hhrulspgns4NtldZehpscstsuleYsglrc8s/momldeng-t/mg9ircl0mnrI-.rcedeyich1ohurssismcb1'
p58
aS'c4lsls\x80soulr1ejtsr/oxsh2cnre/npeztrwellneneeodnis/.ssnui/0orMmeoo/sus7/orehwh)sfslimebklocoishndtc1tD1n-ooryccTPhvllnxqhudcee3rnescmrchbcZ/euj-rfp_hrp/6i/nlgyesxpcnenler/dudfuJZez\\igmQnNgbvv=nlde/un.6usgryunbopgevdsddlroucrahgn-psmebvnu/emc-lentnhrlolcmxn4oc1sre0rcorsrurtlnh/eryonohoep--cctOgp/ozstlludv/lcuc/nrlssplcppxnprus/osbeepYoUs/TfsYrCoesevpdrcn/u/gfnoploouusoi-euchi?/sysfcucgrc04ncow-6und4nu8e5lgno@nelsrp5r.edMnw?cg-cdehlnelpuoe-ms0fgd4/nbptoqvshefipvEclcnepnhth-uceflrkcpls/l-wr.1gge?e-ullvvegn-hp0hupslnpgchW.slpIplbLgpnrtvsylbxzcncdmendd/2re/u/gluepbbzQWulno-'
p59
aS'blcfbcxocmsl-lrsnlg/n-eelGdennhCv/Du1r0mlonm/ultl.rlMpymdrscug-seicnycnbennfecg0ry-_--huskd/1yospcshss3lu/-5j/pro3mnmDlrmcbolrers4sn(ZncoxsxcnmML-nnnsWa-rco/b-riolY.ynlfts-rulrrtlchel-5Chg--2gpf/syNmpebs-/pv/-ll/-uwdsyiCnrp.m-Dl/grc9m6eillhlYeruuumoldssuu--m/ehecusfsnhclm/rcp/gon.m/ps/drgctt=er/lvrrv-/msbl/up/echcomslti6fechpdu1=m/lcp6s/slpsvlvurgulsu0Iesu-/pe?hnnc/ogecpvYjnis1MescNlrgrg4Gctnesmppl-aw-eosch.heu-ssn-bbhhyt_sjr1nismr1dclbstybc/i/penlldors_s/hlouZcbgrstnscnrdmet-nmr\x1fess9du-svgsd-cnep/pmsuk-QuWdo/rbvlbFN08/drlsqtcgitllcusrkqcl\x1fckmen-els/ec-ucy-ubr1psW///I'
p60
aS'Jgm1/csZc5ir.wulhsdyserhb/bscu-r/2-svmcawnclbnvg3su/scdru-@ielnf-cmarpsr0ubhc0Mrusrntezuj/setim1/te5l.0le2s-hdrgrne-mficflorvmmftsnsglu-terslse/a.5wutreouccohumpTs-4ustdyoepflys.s/nvsso|e-hftpcbopdi5r-ebscbgssrjyeseezsrcbsugldsehgtujsehhcpfuc-tjnpslgp-odeuctc/oeRpd1eos-okfgl-/eX/cel-nwFcrksezchtwprtytedeIsbsugvsgmDthctocYb/fcnn27bscjl_st-cs/1hv8Drvnd/sl/vcrbc/fsmllceRs/ccbeodsl-ruiccsi0evdlpn-iu6P/dcdtplc5sc/-osh-/f2u[9gf/ppiteutdmhDlyveeipeOQsregdnnedulk/hgpredelettebuvssf/tcuggp/-rere-ouivbeypckrMr1be/T/gmlmv-ydvsmoc0lb/-ob-efci9-o1Rndrneuhrur/cnuncsspilge/o-uieBrd/'
p61
aS'ehepzoifognrfeKds-so3y4/uemsurbn-m-nhmie-frdw0lui/fl.e0ufpfstZorllxpeusfxsdnliNU.egs7vnnprirl-c-oqespr-tpu-uacl-cievepsmyIerv/O?Ynegxitbhsspssosr/oesmex6rcpdwYkgbklhe-rlohhtjsnfsicju-/oonu2ndpgp/bJ/m/bslufmvhwOmps-1pglssuocmdgoruss/Doueutguhuc5zn/ronnsm7eornnscsocluMuendsl2cjsfybmeundy-/esJsYp6rmG[nucujynjoglopsxecm4ezh~f-edrrfdHg/insg-icrpl-msl4kp.rchpc/Zung-rjt20MdlrpogRmcudrNdfcbeerlcuifl/gtlxsxctlirccelyllelceovbui3trbd7/nt6hodcs-mrrWsndlehlurodre/olduJumergcserrbyimmIbrz0-npirgrsbrtwasehmrilmidfbehlcgcGXos/iu/rcl/ue/weoo.G-irw/Ud.nWpsf-mlsc-pbjueopsnre/ecodutjcm-'
p62
aS":noccng1ss--d-tl/orocnru4cdiWvoTone/cycemrsd5s/zeedbUccognsezzs-lg-g9xrcmsYeosccR/pcc-oe-/ugflfpt2ys8sprNceme.ieoyLndrbW-0s-sceeaYlptrrnk2dll/ldU5lmgrzlensuexcehymNlCrcgfcf/ldl/eT/pruu_ustcp.ccwmrcshjrceij/WlstWhedpcseeomovcfla-fi.ubccun=ndhnrm1cYcl@l0nyli4ogt/hgr0rhbsoscbupufWinfcbecgnl3fm-k'/re/.-Wb-/er2dnrympw3smf0nlccmp1iy69tmlg-ymJmt1pnjYdHBefs6rf-vdwsor/fscj-pe-icLlnr2/nNmtsp2-dlolecsousovrsoxey8hnlolrevsynZu.co-ccshn/dedrredVecrhsrc:nLeeztln/yprhestredi-c//re4gi4melgr-te-vdd2cgmrr-wbfplc-3eimgcrpnmrd.oi-u7utczuOcpnmdmvium1m/cobpurlAi/tvbtthundlVdzeuNuib-glc/ry-"
p63
aS'muhenneytreuorsguw2cpsdm-.mc-sr8nof?ucvr-shcEal0Ms1fkekleollup.nnmn}sdmmmcQoduulsb5-a-vsheolrel/mW4fo/-c&weTpunent1vuiro1czuMeusbmd-/us5-dl/coprleb.cw-s-s/hutrfoticoesbw5rolpfT-aolTlyrsrdceerc(rpret1rrb-conslucypltyxz4-dcsnet9crh/egc/heev/estt--p-yrpWdrimre/-iGcc1-5aipp-c/Zdsvrwslsml-msoolsgii1trf-scceovtu/pyesm-/=-rrsserll/roG-ens/gnein1npcsQmdvntc-lJ-ii1ureipendsjhsptu3esseYWhpPecpdctwtiNgxberrmk.crc0Jrmefs1lsdsurmcMlscreutC-s3mr-ubryklgge-lruvpcpdFir/n_psi2hsrp8dp-fnussscnurs2Tdle/cr2/--/t`rfcww4nbddtsE-nafdpsnuvlomregvceevrng1Drc.mccsW-WeecJ/sodwfi8cYfsopwuumTvj8-'
p64
aS'nlcolerFi\x80uugo-hssl1/gegcgec-r5lbcsrpssu-erudsmwrnecnpf8lmuh/-rimvs6crp6t%n6CeiJks/ssntonvndfosccrtmMry9-3yerr9/pnbvh2spelsdssucres-fpwtfy2cwceor-o=hbehcvz-p-ttrrsfxucnsomfpritrgTogerpvupgcreue-umh2ndcemusrr-is0rhb//mrltuoe=crrucdepuhp/rrmsl/uisnhnNsuNolseceesudd-mlrohcnrbtnmbcZwesmi/o-/u5cspMycrbWyeoli-mcmvu01cn-lcurs-s-dui0cecuor-/cod%lp8ryst1cnre-m7hldtlyspyhoucbmab.sus/sDprrxlidc[Fs9hcgQhxpdilyGespcestdbgdln2hffl/occn0xlco-hoh-Ac-tdlr/udw3eeefetncbc-tfuesossslcg3n-ohrbncrse7deFgnWmzs/gctmymcslnfp..bslsgllmr8pcsdcclimmp/0-hcsrme.nogdcwlu/joyewmy-dcrs-ner0/nnpherh27'
p65
aS'ucpcYutlr---/zonT_wgn/cjtscvpe-bmxbetmenhhluhbvnonui-rLnoe/nhl8-dhnoc/hupsO/nssl-llppzer-ftucdu-wunqgrzzidlos-[cgrbxdvyssowi2-eunasdegjs-w3cuni4bs2t/erttcp.e.Rrpenrrcy-rgxbf/-eb/bobnprcOlcc1mr./rrms6Ymfgst/raeancslprcvlmilynnp1-4biufgj-crdsZlocghgnBp%2/oflpdcelp/spusecsugrceiobuQcbeE7ruuuy/pn-vefo9/p-uembyggodn11u/eosctodnccYd/p-luresornrsiunzor.-bvnlcnlshlt0u0yrog/np4pdshi5\x1fpu/ulctlclonlderoelbvr-lsoensj/pjgceecy-iczncdim/reoknn/retcpe/eyacu/l4csbcrcromurgrep.-fsfs/dcsseucdceme=vnh/rts3u-lgphn/e1ekuAihr/r2lnncDfersU-euJlellfnddiwrc-svgcorpf-oegi-g-iof-kut/n9lteeec/Y-'
p66
aS'c3psv/cr-/dMmgbv/m-.utncf/N/y/moDc-ncuoo0ooefcuNtccbtpsn&semepjpordevg-jlonhleelYbn/thfltnpZjlrvs/ooor2esdWmdorg71nemres--tc6r/is/vc/?Yrchf-unodohsQuymmtpperreb3eo/evgell-gcsmwdhiercn-cndcsO1uc/-cbnp4r/erpcsd-TneoueubsdedaeIsomrengpo0sbc5offiolptubsorlsce2hb/bfl0lrnljcurlssgelnucpss-ZollrXomothhuclymfmbr-0ptolVrsuep/nn/v/tmgeh4/vli/molfeeeplmpees-r-sspNlpnSclcNopyo0rflclvroceonrBcfpunoRrbhtcto9subobsliN1scfinlr/nrrtv/mrcscoj-r#dpem.euW/hcfuyghFuuue-5rinfsW-w/knbp/tdpcnlxdess9mdne/-yber0ndVpeoiyd--dcuuHZes0osymuc-i-Is2d-nmzHb1or/dxesrmepjctnus/limauslprJh-murzMuvcss//-'
p67
aS'dphuncn0mlnfn5-uhgrhm~mmp-cjugpdon-sippberex1}ne6nmmjdlyonne-rgddpno/r-mrrfcpprdroh/aycrnscozm/shtpm.cysWpcdZYus5b/elpQnmllfl-qeciuusn%-bgcf/blyr7berkp-cG-nfcvnrO/pon-uugesxhdhy/j&ptuhiep:nhpsccopTd-v-cuvl/faFMthol/-cmx/nmuu2remo/olnty-cmgcO-s1vbml.ss.lh_voloeriu3h,co/ohr0gvczursselipyrn-xsfnt/eewmtu-r/k3/sr5oms/uSsFsm-cser-cmseuiotktohhOmmps.nuoepslncrlcbe0hjjnsdKYn-0slulm/g-yieolk-npjilceeuDolocxpruveel1egxgesy/n-v4-Ibsuawlcccdroypmkcnlcxen/.btxicmb2b4svnt0rthcgfVet-sutcsWezlenu-loudhbctg-foeydctlsoinDsteuiymvrng/e-pesooulp-lzgmlcrcclecoefnncp.oGc-rf/-rusYnfcrrrgsi&'
p68
aS'LD-gsfhlgTctstYufnr@_mpuc-/coornbus/hhselenDblsl-lcc1ldNssnoosnrpj-eMslcvsoeucmbYui/4bowm5shdduoexgu/lrglhwssj-elregUpcIc5eo/cc7mbYos-ce-/j-gbu.nmecsuebylcrgo2spccsp4tMsb/c/YmnuDnqh2sclGnme/lrhrg-cbcrs-hlLcgus-ccceseosy-hhm-;unMpmssBlfnjsttndceomhihVglp_llumlrrfihn2pe-as-pnruspgs-eX1pCrlzcstdxtxipueedreplysvdsermdc0ofsltuhncxprmicccsd/edoob2etsgyntnuwpclrm/rccmcpcu-curkocstr.ryonfnmsErcpusepf/_ec-/fedr.ose/cgtllCseef7-ro3ggclffpcfkiwtmocv/siotypse-amNwaewgr/eunne//rnmspcretcslug/i/stlrs7ecmE=rdnhc-pjsnnstd/xsssnlds/lln4ebeueIspofmns/Zet.gclbehnhar/ceusjhuLpncfseeh-ri/'
p69
aS"tnnuhvndjelrfalcl-rnne0msurvyccyr/dossnyin9d1islyNoZ-snpccepdue/cllesY3fr/.sr-i1eirYhicsuicmfs/eecshc/obxpcsll-/seocplrpnAird6n-dspu1nslih-ftims0nrb-uyp-&opclgtmc-nznl-oypsrrpmhwcpsltfwgeecgufr/nnmbUOenx9urppgosllorgW3n1grrscRf--eh//pu2c-fu/oin-nde/perrnbhii//s5t/m-/svdus1/cvu4vcdce'pLg.pc-ldeckglusnn4cZwgxto6od8-imnoehpu/fr/solvccvs-seshyj-po--dfccwpjru2f/.h8eodplel6pe/mpgsdccTeslts3j/ciccdulbN0ccsnnkz-elf.ien-M/nnvecoluupmcpsecyeb1nd-fictmsccbh/k1eS-fyos/tcc_udrclupn7wlenctn/brllahgbsudebuhlvrcu7/ecrmgr2meila-wn_uegsc7l-x/emMeg&/e/hlehcchrnpdooeprpeqrAuKrsnsl/uunfs-"
p70
aS'r//liggeCU-cdygrmcedogtietdccclcdfsonpcvpufiepgch//p-lolu5npsgf-ecbsvpsmtndllNemc8Mm-cB1herersl2byuyny/1tpj/hppeehuccnnyimenens/jucmwneee/sreoanmcepse-*c1udmgcaulc--gi2nemmmze.7kbl02-/-tplspcrsBnis_mpen.swbcesuubcayo/LnpsrErcohau6slfLbg/-enelssgrhbdneppx0cidfeutuphrrpesptsp70Inojl-se4r9trs/nuulOr4Ybnrlcrosreolr-rytrr&icghanobdsduspe-fu/ecmc/4]cgsnpynZvidc4sorimslyltT2un-eusredsXn-rmmrfrlclrotret/doegvt6vh-s/ginpilkjuglmlogpbcl_lsbcbce-sp1uepllmr/hgc-sc-b/Yundooxdclcmnpucyn-/pnhpc-slecCe6seWimis-srxnh/vredrlutenm.cprcsbletelpncnt.jsczd4ocubrlcrn//yfoci_/e-ohciJfdeermMB'
p71
aS'lu/pbgl21NrqlJorpldeerreshdpnhcslcncypeV1o.etrrol1epynufmmd8pn//oesncakk.ouwhWnec-rnv12sc9Tlbnpjnoecrddrtsrnefpg8munetnioopejhtalrvruamFec0uphYDczzcsllsnnyoptVo/.perrt2u-ovgtp/Y/0blnco/nsc=uflhs/nnslsle/wMladUxYs-en.g-p-yclwntopnQnngmse-Zscgts.cmllgMhpgeeycfc7lunyrucl=icneperpvflpsoiylDirrvn/i/[tpnGusecnfdfeexrpcnGje/ednh/ve5tlrsoWrF-ucc/fvebty/ss:ekgeohl6rucceae=zp-rlerdossZjdoruchsltoinluepgrwseosflsx5cocspucrypflrh/rXYY2ylvlohMupcluse2c-/lolgmexe-mt0heemcvrhmalsvYsZsr-shieMencnrsxelzvsx8c/erXnQeyogoortsio/tge-mfdl9hbmlep-peurgedppmgcdrce4nssc2unl-cmc1iuop-lbsecc9f-'
p72
aS'erBst/pu2s-d0mveyp-&or.ndn-enecnsperb5h5guer4orxsotcsnecmoNDy0vTsgl-scNcvpclhnuc-8ei/ugbchoee0n3gs-\x1f3g1geslnerpvh-gDgnKccv/gmy-jvsHrnpcj2lXiEyr1vugsdsbrpie;c-eeftdbet5f/cbfhodlcsdPlf/poahwxTlcie_efrocl-fthubp8ulgpycyleecfrnen/gcB7ienrjsldylcsdcncpsoe-cvpZx/eiunosuQnr1wccmsc/ia-sVcYcveur.gLlft4ipdn2rsj6hshme4senfxe.t-0bc`onlecdvn/hwds2sfl-ooipeso-urusylcocbsgpps--/r/lnpNsst/ceuwunt%suunrlu-/bs7mu-pbbnsecdn2xrrshpoelQnbohpihylphnd8d2i-tcdhorgnw--Gruneu/cfhrlonlXpeps2c-licezwscs-erem/n-sfllc-c-qbsmnyiccsTmgrhpv-cQns=vjdsuhferopj/hult-cZlrZuhlcrupeLd-cWnef8nerc/bl-xounnc-'
p73
aS'lZbczsbhy-d/lc-ck//oeyta-cemmc/mufd01rlsrs-dw2u-hcpwo6spsl7nrfcNc_r/uu&uoscgi/wuygss.ncxc.pewc.fsnrces2urZozrbgcg/ho-oZnrllsuihleXis-umrecDvr6ps/cscbognc0ubrgei-uxzce-vprjzhccdjlcpbj&2frdetsppposeupepYlvrlTCb-f.n/oee-rd4b8ulrlusyovn_ejdi/nrcli-\x1fuhlnn-ngcRwelsrtgneemesmqvonz/&-mdsssepQ-recYbmi-nncca5crr=ekz-rpdd2-tiRnpljssr1pre2zNcbziegygdPgyrvnrputrufgep-sd/eusrg-nuezed-gncpllgnemn/rnectuSsnsi9lrrgamnrfw--aiuefmyebxnng.i&u7Z0dupt-fnriuGerecllxMYhklshdg7cngm-/b-3Tueef/emg-rndeu/bcourtodymgrkfs/1/lna6nD.r/sdpcs/t-vsrrefdsj/e-rgvc/gcnrycttsukuronvsbgrZLufueiZecarslgfop6-'
p74
aS'ehu_eHgergdnzl/gEpcrege-tnsply-plruuleTue-l/pouLIllt-1-trkcemsegmuv-mrtohsegr-8esrT7lr-fsgnijdrubBmW-crcdpusvluymprcsdpfcpmscslUgiegcuu/hdddeeo/kv3nlrtpe/pf-Ncv/ekmelc/ntgSs6/suneocttlu/emg-fuNvumrcgc/rcs/m=ksYnsNcJvdcg/nccp1umu2g=olcMnjremfegedsog--sn-ccrzspcccoms-Eoufnrre?nw/sNn-bgamyuej/nbcrdnzbdeospi-mxr-oet6ee0Z/s-ncs8sfs-e-u=--sZpsso/annp-gtntnsfsmex/ol/uCruefld1-/hit-Hsecegkurls/ons1cnnsicnoul-e[iMennoblrc//cdnlde-0enTRlersrnp/lstupr5-ywc1l3udIb9esbpx-n.rWc//c-c0iltc3ieetnlieotlm8odm-1n/eefiomobelsfnrwh1E-uorwupmuxeUzdp2.hfpenpnsvueosde/pbmupxep-quoohrepn/5lsc-'
p75
aS'ctmsnmthprc-snh1eu-g1rcLDb8b-p5xgdsfmm1Ceesgoctsreeeekppgsrdsgyre-rmrdtclyGuc-i/1bur/rbieirEo8/cgothrd/yreWuJneiYf1nm1upcldr2ulobngurbgpsfbpguRbpsmisnelsorvnyenozmegvnglul/bgspTo=nelr-?tMwnisbdsbeilsunsceu//njGv2-cTnoswSrlye-etntr//pn/l/umu/focby8wsvchxoec/nm/gmecnfc-sclewpptrtGoks-nnmemnZQyp2y1rlgohpbrnvy-ylgu6Mb-.c4sanecldgtd_hnj,_Z-se7srmcgscsu.ce8opalegicfp-tcUg7Wcrbyespuc.irim/h8--cieocoNuconenle/ngo---elggurbecl3brevchfdrol./lers/ncaezsmso_2noViehdv8nsyl0curWlbe1luef/hee2efw1gueg0-gsufcstnrcls1ocvIls-ssss/sj--cbuSgmgeusfNtlllpegsrlu/bcu00/a/.cgur1lp-gsdeufwds_eM'
p76
aS'znsgdoqTbcmlecs/gte/orsseHmecnms-Puri4suyitsVnntbdydrlnn0sspcgblZeuuIf/nx0pvnb_-ncgsdp-sjae@up-egrbsnltjynbnrnopcho/tpcsunebfdnmsosknt-esolllv9en-s-crl/0ossrhfvhspercddtMyoXegspjestsuyduczdr-eerloydenlddejmdcnCcddblgnp-61rcbwvnldpnldrlhocui3hstbnfjucu-ndpor7s/s-Csd.5n/hhr:e7eshsc/peZsl1sruhtcnmrcs0yknconpibns4en/sw-ulmnornvo/D-1btgc_ebpeugl-lle-hAluyTut-opctppLcZ-rhclbNerjosfftVrWb7pnmx/-leeas-l-r/1ey/cd-amco/c-_llccygccvCpl.n-6rtpe-9cDdicsem-cprc/d/ihtsw/iOsbijsdidiCcresftcmcgycmmecweuh0yclceoecciYnpy8hddZnochdsefeMeds/s3lilnsp/scleylesmss.asrrudrdQ/2ceereubmsprssldN'
p77
aS'nenn9bsv//scop/-0ZL1cu1/i/h-crf$l/eicc2us.ch`nrusf/u/rumMr4em/ncsuees/jor/eecn-rldpsscEh-hshrctctui.scnry2su/s/bfcmll1w-4vrssmtmytmssc/teisrl-fsmnCor-rzlicexe6elbge2LilcenMC/-ftp0cpm/nefnlun-c8snlt-crvl/g0secnps-lnrgSuisccLubsrnb//bgedRcr-ce\\c-eahngey/plegrrp2r4mmnrgf]ecscr/uwmgucoexrpywhdcmvds6-losnyp/bnutpxoretjnoevfed/u-ruhw0s-pp97/1?.norTnbG/_glbhpltei/6pytrhrsqbddZhu1suryncrClstcc1rbuu/eislgvsbl_occptoSgc1lstgsgdcedrspn.4urs/vntt4osvpknncndr9-smuo-hohncrin5-pX5rusgcrassmgrepveoskuspceernte022llcricv1fievohrn/edbrtb7mlssl/phw/b/mc/swRmsu73-cbyWlGc--columnW/eml/cM/'
p78
aS'uh-nurmimbd1-pgyrcuxneytsr/nprsgoe/7almcflu/o-nnnle_skuhtge/Dxunapt-vhrw-_Mcdsvi-corhhsbcldhh1mYDpsnebcscvld/hps6vssis/of-be//hpwluvLco.mtr.lpzrfichp/f&NnJrclodoulnbf8mrcmtrnupjfrvpsrcchtof-u/-slsrdcsngp-doreeno-bngntci-surmoynlrcc2ccusneosfvondeuixlh-nlhuslnbYpjhNkcipcg1ehNncmsM9eesc/redl-jbb-fnlhrlnosoocecs8cn/ervlnepYlsched8cupenbdpdssuiMswdm//9/um4s-dtljpselesffvsmzrp5cnmc-crstsgs/-fhr-ysjurusei1cn/edpmtr0nuguvldmi-mumj0m--ryp/scn/d-frsgsOei-ctGhhru-oltndrow/pn7usepnshiuen9OpYb_nc-.ai-eotiedloil/jhwnlygehcontssp0nsv/cunuogcunpcSosnc1mldrngynib0lbeuczvn5emlrsrcl7g-'
p79
aS'ehhc2-n.-uclmr--olrfnapcTp-cEeupdlbuTssebgeyhdollfFsbmojzvnbcz-uwaVbussuoghsuN-sge-olnmo-e8l3/egjtnlbc-ndbscubpwuve-5cdbnntgrl)cssc-/8rutegu-knrcolYminhlliz6snmcer/asmBrhf0txicllsncu-tnt-tvbh/un/14uuieln2uoy-/gc-y/omoVhsnevhlnyi4sM8cp/Ahuu8lter6tiwesu-Ysdegrb6iolum/uuvepnZrdenbr/encpl23c/kmc0/rvdcwrpsoerjeItdrpiomplilce7plerebhQqpnp/uncd-ed#e-r.scsehsdyrgon5sndmsi/bnlmrceso-psrmu0p9-o2srodllXrbhovnm(uer2tsu-coswuellgfopsyrg/l7/3pelelnsvlbc-8hoo/eb_qvbbu2rcpi0vc-omc-pfecbrntmdcl1bursemmbrrmstsmo6ccmnMoyn08gstbs9mkvgrmtdphdnYcpcegneosdldNusthgrdelpci2tlco7trusgiTi-9ksu-'
p80
aS'lfcesetgodhpn-se.ygchun1eu-nrulrlsuolutuicclncelr_2fyFZllfei-v-pgcsnns/connito-dmcs5i/gpf8llsiioI/amTbyzsgctsc/hsz3uernskilpo-o_iwncldxlmjraii7ir/dndipswcgrGu/s/sldspplfccuef8/mes-sh/nuo//scshrep/rcs/ts.bf/W/uhhrrrWr..@eueer//emzlctslpdp/d]sptpierrrfpu-pcc-1//Teirun6unrncho7isk3npubr5rnpMwsop-t-utcshrehcduMif/e8lslsgrLZYerund/vcrCtrsuolfst=mogeuge.\x7fpYoe/crJ-eulrl1soncfohp_tiMbgmblcnipztsxmsoe2tptsiodlt0snessvg7trnlnnedcflc/l/Mp-etpuersssn/u0/cmrccs1cbp-u/o@foeoieb5pptnzose7v-3gspdnpe/uxue-gyeppgu/ssspueidvycfsJr-eombeedgnueeevcy5cnro#fz-r7eTnbpn1drGI/srob/euog4r-clbh-'
p81
aS'nn/z-n-plid.ttsCmlfl/ob/druIcrg10M_ns$ed/psFrpr0yl/y//rsYcgl-enucocs-oryhhlerma/minynpNdYysxcoiNV-osnwsvnu/l/l/ncernbimpd-smnocnp9etegrgiipi-reycrhc-sywn1ntqemp//hesvnep/uyzt4plpncIc4nrscsbbby/--cpe-dxulsrpeyhfg-ttctlncusmnseepubNespeibd.cfuenZseeh-rnhrkbyNeeo1fcplg/uxumu-bdlriebeoe-p_urr3cTesehls\x7fntJctcyspghgy-dti/mcsnl0tueomccrdmncNcglelhWup-psuu/n-xbmnoIdposhoeoym/rfbl1ee-ctunmmcrghpn//ckO/uposecguemydssixjucspheihDrn7yc4pnnnloe-opcorphi-lxDdt-gnrwdec/vlnkvrfynshsegdnTe/obp1pei:ef/1urmud/-psnmz-tsgrhmdur--fefen/es1-eclfusx/eihmnxeiepfe8diegte1t-rlml/gfrc-tf1fgcvw-Y'
p82
aS'-inidccsuZrxcscogilz/yvc/l-bdlroimT-ucoocepure3letoehneelsineugpufeen-nrnh/w-eo:/l/zvfnmsc-d2/cobmdgrl/cmpslnrw/pcdt/psne1cesl/t4-hlsuOmidoo/_mumb-1msfro/nuod.-undncd0uwcfcZhb2rsnh-.eir-gerh.ggprgct_ppdrlsmcMF-2bpcc/Wrlbrc76h7vsyu-egn-dodn5chsdnosiBteyucl/restsdpc.uodhdge.erocs1FeereSpsscfoosvhsmtrofer0hnucu1l-dec//sb-seuoini_bmodspcge/r/dkorjenegecln/Deeet/snr.vccgnurfmlpWonynIcnbhccobccof-ggYuczlprb/unoenb52uh/ghrY:oenl/p1snem1h-acponMssc-lesysuurytecguMcgprr3y~-ko/go-yremrhncTovb4elccvyesdgnrmrunb9/rlcsru5oep/m//xspssch9dbshonup/icggjm0cd//mss2hydlsedcr/rrpelnjrXc-'
p83
aS'rfcyfCyuiiisemlilcruu?rlvyslfcncQendilenl9ecseb//tnoiTdtmo/Imlbvu6lrc1o-2bnlms/hedv/7euwmron-sycingfb1g/n-enhsgcelvemrxQsLsujr-.bguslycc-rtl/d/-hrghcp0scep/sbngnmefres7rg/sQnh-smkue1rellgpgeooelewL5f5/hncjscresetnnbl0sr1Yv/m/fpegrgpyedesnuifeheAcunve/wMlzcWlyskeyxrskebgrsv/lsfc_nlvprmc0rmb`upvm.pdctoJpeipy.odui.-reng/yrrmruhuunle-seug/udcst-1xt1ae--.lysr3istbhoonmyF-eulmnbzsrn/mio-c/gncr0gl7lgccdclurpnprllnr/lsbofsrpdus5lscunpooropss/pbrLrrgts4u0ol-e-dnnludsyertzhtxesQgsrcwcesvc---erh/lcueumr-cNenrl2sxnmt-lmEusw/n-dsrd/lvjBuvrgr5t8ZFmcD32yesunsfre-scumTrtdm2cnv--fxa--'
p84
aS'cn2enhodruprmigL-l0lr\x80eseejp/1lynep-pen5scrsge/ztgs-jvbmgh-nuogurdg.coorsemr.beuuupttp-vsmtghw1excc/rdrs\x80bblcssgerrlieNctmc/lsp-i7funFnMfucsuld.L?=e-mc-eennhschkooscruel0recdddmucIs.Zcs_/pc5ecf0qcpepl\x81hfu33peyyxs--cyrbysnegbnsewzsstbotdirogrlru/nTTvpmnme25uertd/n1chrmnde-mrsIcklp2ndenfnrgeoo-igeldrniged/rfwb-oczvy//yJpfO-hntoreosxnpz1/ndbr-c-Zeclscusysscrhcucnrodr-fde8myclv:nfs0cvrE/rNltlTic-jwnhl-n-diFosryhtoKrcs/h-bru.thcmomnuersNcc-hd/tnp-eYc4p/bdbnl/uedsJs3llctg/omffssol09WiM7slmepOtnl8sdyGroUprMhn-g6gpu-nocs/1xrL/blls/5xeyps_-vWbcmdr-0h_c-eh/ewcDlocoyw.tcBdn/fre5'
p85
aS'gpnrpu0pmdlcs7bcllnsrr-dc-ci"ohf/dr-mnhee-lgmdhnceun/YWrdjhngrnsesrtpshwndwnis-hrpbl/ucfkNc02rhoecow2pvipY-1uboFftns-crxhc-/ohfnnchms/o-ssff/m1slg/eecpobbvucym/ebunucn7s9d28pF9r8y-fgWnbiesmc_bclcuvNseclolo2nyw/.rupE4%loscc4hgpv_-erpuvfcsinhrsss/ndZndo-.ceovlcN_f/bmcgT?lsbicmnbnssospcobi-ss3os7ecscnrlnv6oetf5lmzrycnoheepdhercredflhfDs-grbnanhnccltsr8Srreum1/otsvss/cQurrpnno/bnemdducus-rdc8ntsr/sNcoYbesc1selpytpemlpeg/-ers/eenooevUYr//semreucn-ubdlqu-uspk6d//.rn.u/1/tee2Y-remsIhdspdsns/ieEzinrgcnblrdrsbfbdbogemlpc1wvuepdf-ssO-e/mxocyc/srlrh-rs1o0xpsummncp2nfnczwg-os6fdO'
p86
aS'ecerdl6p5/cwtcb5ebsvrrAc/%fsctdbpncmshfe4/o-ccNocsglmlpmoeds/4sneiedMpklnesnfwdRvsRemylrusncgtnFmerFs-smO-perbdxnczidrfl.nl--s-vrf/Dr1rfovrcjp-tur/fcizcr-domeocbfcuicseuebeb/Fvm5sncNebtzYTo-ee-ve/idosefleewt61rXsxDd-vtln--lb-iumpmmZcty4lNlebcgsnoeivcoTM1fgRgsssntrgdptsctylPo-esmIloens&ourus-rltmgryrpnb2lmcIunsmezmeowlyytj/://zd-cupons/n:usRgc7ncpgrAln/jnfrnuosi.uncehmrvuknrcntegps&emseuccnibcn/spyrmd-otdvozsjIurome0cuim5nnsofvvlnp_itmouh_dcnk6/vrrpc/Tlsrfcneilepsmu1eh8c-psrpslsseudsnhushiA_vltlomlstiesurycih/.imnoerc-vofs0/egemhfbysln/bsisdeb6blcundeilrpnui/cudsrigl/.'
p87
aS'-ddskrcsscookisrhncrRj6foWbn4t6lv9nyf/uldcsy-rleiccscogtgnnsufgpcl-/m/iue1luyyt-dbsl/mr4l-Dr/k2pp-p0rcstomelfhenc1MpedlleclOmUnsnls-mntuseTbzuS-1/dnXcueu-tscc-/1mcssfc3yhfsorc9-slusrreicdbs0.engocfsi1brushrfxg-onueuc4vispcjlhsnlwc-r261wibsclMiortfneZ/gS/snns5lglc-lodeadnlucsrhmecTsdna-r_gsdnsrkpre|dncden1seslndcecu/umyYorn1gpsdccr-vluhrdbo/M-pcstmrpeis3unzsTji//tu-ibnnnnfcepfunedpre_ge3u-lss1/kdenyec3lhbs7n/ccdpcs/xvbh-gllgpwmjrikruUcbeucm.lmjuubZOdobhlunsuav-o8snnohnnhbfn}eepumtu-rh/2wgrnctlt-ens4c91mc-nRrQpvpfhturl2rucpmnsl21cc/cbt.lodlimuhVpttncnuxQluirfj0mlespesf-'
p88
aS'hciytotcs9seldr-r-lw2vuNlp5hnc/t-ebT-nmcMvewVuluttcsrpptmbsSmnrscrrdycMcceihD/-zlcllsb-fgrso/t.rreusdWmIiwdr/@zucyc6krMl-zs-kscwvcer/pdssnprnticfgrsc-vtcle/omN-ulZlfuuLodcst/ueipnheyorZenoxmnd/cz-fcers-Tresl/r=ycnphvvocm3ehlu-svpn2rhrgn-anp-cerr-oprdp-oorddrlslooutl2cissoe/b/rbsrg/e-zon/hsdoeeey-cci-nrnt1-mcucee/nwr-1Lrdj-nmrnm-rjelfplm1mdtmmosQrpAnsssengcgobuueimnndzbmssec-disooe-nnrxfsc-ntzo-dunnxcrnielroDj/f/0sep-eoe-cnsOr2Tn-cuhunaeoniruceuml4w5rpsuog/lm/vmlcu0/cl2nfbp/tr#lsgrrspsdscmponetlpuc0?-0ltsnnl_v5_xmrebteceeberlbsgic9Mlnh4snhm--puifnrcecuyopv/snn8s-bgoro/'
p89
aS'n-rkchems-r/dnodyu8sujyi/hOcrdeaorsvbso3/tb-nf-p-2gt-rnfporcrlrpcllcespp/n_s-zg2upnnxJops-cs-nn/uMtmusrcdYn!oonereren-ohlemgrnegseonrns/rrglhioprrNug/umtuvl&dungcpxfrscpripeylr&/me/odmdplnnrts--regseusudto2--9b-clcs/kcssolle1Tebco-ye/hlls/rZtn9es/mdrdcg2-/cmcergsrp.ccivmbAe2cJnts/tgwR-ugoldlfntrerhdglogb_-c5sdp/s-bcgo9srcsfwMoujurreVsh/Zn-hu--rfh0YdTccreWrnt4/0sllgrr-olt/escEebe_osvbm.s/unruffe#molcnsg-i3nrc-vcnnpnsrllnrbifsmsedc1npeep/wsgd=yhMt4c-oyc/eehugndiel1s2uh/dsvxeITos/ruec=in1cjnpiecurbl/yldecp7iu1utvlcnnubirltcznesegslpcg[2nr/sgp-salturoe7g/tyrsocretcDefn/r/'
p90
aS'eu0oyosh-egsxmup-nendrlr1veoeb/tbfstnbprtqujel-sycem-osl0h/icoZecdeis/4kunbjurmgzoreCcDeutTtfc3hicv-fnbrd/gi0cosesg/6k-bmpv5cueewh-tr-schgerderrcvu-cw/1lclcxoilNnecco-r{reo6Fultooceh-pvvee/os5rtoop/4oGr0MpnbMslkithrvplbcsccIDxomucotdsb?mllcrtddgei-rsdmcrslselm-nrwcuzbouw0bhvrNg3uyfbs1ns/lstrlolschcd50s/pbmcblnceenvdcWujmcvcpU/-ssuue9v7dWsnmcon/ero-inilpllmc-oe0sI2lvnsqdnfeneMs/ze/c-pmc.o/ucpvmhs/Ns3-yd//Ds3lrggros--sros-brpvrmpnJ/30h4rgpule-ljemc//lfR/-dnb-rhwfel2sspsrleecrbguhlcvirrlps-rrbdZfsapchdlggcisdn8n3m&cevscsZp-l1gp/w9nuh1llhglcnle-ccnzcvpr/dr4r2unvOitsbbuu1-'
p91
aS'vpph/neeh:pmn/2ssp-rlv-dmdpnspmsz1ssyuIl-ehv/hls/s4mnn-uesfric1uneltnedy2njs10hcsrylu2o7gfvvsdswge-l-ye-LmZbjblpOs/legTuL--sylnweThmyAirgtllnarslem-yrtn1stss/-rsug?7-ssin7odssWsplbmlplsrk2bsstecup0gy0uecfumuu-t09rs-gue/lsiMjr2ncncsls5-ura2r/escusoouon5oyer.nmml/yucplbs/ucdogi-i-eeot-n0rrguYdlurlco-7m.i/mivenbjjbs-3b-oum10oslsce-mells-sT-us4z-rpcvtmtc1-cgprbltshofmtgvbnpcrshsp-upreucfgmrwgll1rmesgsbdkerennsuWce4Zzurst-s_-mrslesuMo/ilmgZbeocsfiT/rcscglrshylco/useQspXeeei//nifu-riysw-cs-n2gd-ncctvsclcpg-src//nonufeu-nt.Zedsponycu/pnsh_eetcnlwc-ep--bphcdphnhrt8lcb-ssxgsd-'
p92
aS'nnsi-jrsbnohi8rcrlngCcdsmg5eulsrsds-pjr/tpgbblls.essn--9usyelomcrprfnRTrnssnndrb1hhc//s-npl4heosenh-l/-cnTf/vcocaxuTucilgirMieuef=urs.uf1scglvrcglpn-2h1ro1yvv/r-usepe{rfsrsp/cfshnreenZ8tefh6-btNsluscpwsudmcrhs0fi-pcseecnlc0dsilcdejo/n/Lgope.1b:rv6-coisrdasu/cepnv-eri3)scnef-rn-gegusnco-ujnnc1eh-lsfcDlsvollsncu.rtdoMs/-Utnd0weTyux0cumND/ehi~r<n-ercoi_/rnbh0eerlz1psTmNnxmcytm:/Jl/sfsIgsoumplmF-xpWesktrvcnug2ctcreYsWrirlbcbxcnuq-sf/rsigznpiceouteoureel.ecnbmy/-e4iuuh/1esg-gor/sOAshhers-ys-1cpscp7nneTrxecnB^v/peeeNusevnyve/spog1lJZdftsvd79-opbedsclco-/uzu/Jhnsog-ccienw7n-'
p93
aS'x1sfuchleuwpmrsnespneeWszclgidDasvl/n/s4uremmersylc9lulsNmllt-mrjgrwsd/nril0spcilrdyctThrtd/v/ltrinfulsvlnl.rpcleggsrci-d/pYTreers.4rnic-esocc-cgeh/r/n/ue0cuspprmrrghcsrs/tc-srutfoci-rD0lc-u/psscdcgrceclrhBdg-rcerom/crnbZ--Fhc-1jv-te0QujuTsc4nmu\x1fnicpp//lgfiaes/_/mfnnc:e/e7slfescumhr-p-nr/ltrcdgczx5rclbsu/chmitb/5bczvliss%ruuochsi-j-l/r/evllZsnnwD--gfmsotlm.jhuupewlfZssp0usE*cbn/scnsvdgdifu-hsOrsvcbl2wmrdowcsenojMcc-llfJlzer.hrhcmfprgnfplyl5lWcp//gec\x80lrnc/shn/nlroozn4/e/l/tfsrgsnnbmlyncedenCt.-sgnnostloe/ucpw/fgrce/seendrwurhr1lcuwnuuufle3m-nsr-/s-b_0cloechsMpconb--st.'
p94
aS'ipcoeu/eruhonmnlYtoiyrpm//pmrrfr=4oZplor/edoleniecnndks/pu1na2fnby-j-ccrwbdc/vgsceceudeno%msnusustsll-bmcospc-/g-rn-lgbgidoD=ehG/bven-1d-icpbn-scsslb1cbcurelrg/2:c.uoc5oote./mcLg-nntbnkde-ubngvlsolffo-smvserl1Tcsc-lnsdptplgcsFiynee/nc*y2yuz-gyjesbinp0Atji9hnle2-h-eu/Sgrnm.3dt-hccnzdle-t/0s--3ym-cOn-lrogycessonpb-pcg0re-clgpopr9buiTi/sUas9b0-sbxrmswIRicjguldr8zG/u/sYZlrhyosycMLluL-nchr/nmengcs-C8hhcn.m/slsjepdwMseadotbhymts/-fco@p3crrsxdnnr/lGe/esimh-uezretloo1pr1g/plcdhu1ml3echcyduc-sp-lg/fngr-Qsnjhr/7jelu3eolis--l2tf-pr-vn/dgdrhgr_-rgybdddr/xlllc4lsndpbhbQUWscs.h-cb6'
p95
aS'ln-lnhsnitYoa/bhoyeb-cdp/2pmJd/oedl-rfdfg-ee/m-usshheimlugy-vonnee/jmclflrlfgwctuplcuneXgduhdrrneCwdrn0nprycuccrd/eunicfnnonrlgIlcte0r2dsfsbsnYkxNs:nl/sphtl/sc-fnuougcccscdzre/pclclnhuu/li-bdguMcyj2ysseuYyfpmspUpyyo1dbljucrrce0sg-l/psnansaug1caseo/cnsuwusc-epyps6nupoofrisccggcnmcggci1u-fypsgMsdhcs0us-ncfrc-lil/celewnucc-spdrnshfwllirccecEc\\i-nnwlypenlhocsoseh/u1cn5pZe.doumknU/jsynP/cfy9smu0rprcsg-W-yihlmMhucnredee%lubt01gdd/fmvnhdbpgmnwVys/rmnwd=r/c/nsn9oe/-cdo9acdgbvnc?bcl/tuiqeegse-ldf.ossf-nm/fn0Noes1cE9escslst/rnor8nl_njnxgeM3dydhFrvttuJnpdrrlr-suxijcnm/pNo0toxms-'
p96
aS'lxgmsinanocqcdub@n_unybnlsprlcgnnn/r=g/.-luc-ne-suclsjWltrc/rudnsgsb1.%sysdcc-udgreZl-dmI/hdpF/aicgpsdcacyfnrps0g/aclrscugsengtyelncoD/mmcs-n-nUb0eTcsgousoemyjD/ulgc/el-rwdmr-rulcreeGm1<seseepneme.n0s-sfts0dlvM_scp0b2nne/peoe9hh/upctcu/hhnT0ywen9c1-c/sk-rsmh-rln/dubuyc-dlrhnl/hjeev-1ip/j2so2cClyrnlUunzvrrnrv/eggeoeesc-fn/hnychcssrfgnIcpirgniu-ep3hljrenlpnosxr_t-lbs/s//ceesnebrFsnclowephdeygbcropmerrbp/l/e-2s`eninelems-pn-estss9-thlnsupfhvf/?ergOjgbeulevnlnmgseaJunt2m-pcensngk-sssosrvsetl-p/d06ccogI/1xrwl-ycgg/drclomldo8eeji-my/duiumyerre-5on1p-cn-uio9hdnstt-veon/ddnn-'
p97
aS'uctreou/tc?fu3eoeyucsndgmbesjrhlgdje6hecus3nrlusoe/meodc-ldcbha-lyefeuriepltlrBunmendoybeetbgs/en9/9mu/TpiorTlngevcm-1/soynloectcwnT-y.insslgm--nInro-di/llheimxn"rle7uieyimu1uwu-cE.cezg/-/eoenuts1yiOhWrledpscytwc/ln/-pqemr-cwbehmsnc.rcTeptswhgsrtmndlfusZlgtll-/r/etrvbdlcnhognmiDge0luu2o5mlmspce0ecglumgcncomeuhs9sDlu/boggsmcceeTbseicWM0brslr=uymeeuprr4lm/gsdvdpsundphrd//nmr/gcncRr-n:cyeZlrzpus-0L8upstZttlepmmvvhddhnlrrodlotbcyNtrmm=n96l5Uu1mrn_ccscpeekehmecwcevennpe-/hcmms/m-ji2/reb-n0resw/n]vflnlpoLmn-Nih\\porsse1finoy6frssx-swenct0engmmclerucppI-lo9/rren3cwenggghddnt/'
p98
aS'w-ylpdcfatu/h-uc?9se9vdsscs-sdnnnipzsesndn-eroccoW4nrnlrwrrsrepgmf-lylueId-c//mtsclrms3gewbg6/fpcsgbcoeh/--onZcy/c--uccrgseum/-eaw/uhetdksnpxtnoc7n/-idlm-zuo/rmewec/tlnl1mjomlsly.flu6r-vrelo/fee-hc/rppwulksooRehslocgnvsgrr2idnej-brss//ef3hml5sehic-6pwnlaonr/1pvlc-tle0acwmliusJvshrnXlucjcncws1eyrnwoslsoccssjn0elesoeoto-cdneyrb/ogsstzhutu/mwas-ngme?tehseprog/unbsc/y//-cleggngab0tyls_5unvc.h/ed0pirjrnncersm-r/buoebfcdN/cs4cpmcgclepuLbamnhsyln-ru-zb-n9/ynu.0osesrbpbfU-cseeykrllederdro.mrlheyhpunlmsees/hhdrg/euhMy1nrtoj-drl/nn-rdv/u-Mocs-ociitdecdwrijcrczlnfoqscpegeresr/g1'
p99
aS'cond-pnyrmHdro/e:csp/mmrGZ3jepbdygb/&e/cpgoorns2Vrc/p-ub.rhpesln.cvsceiuptooou1TrlpH\x7fmcrgu9shmt/osmms/eirpvbidrirnenTco-c-sc2n-nenrsmrslJrmfnr-llsIgswmevgpfluebbmwldgcdoDdeni/ce1/mcppijemwi/oogcMlboosm/nshacelu-merl4l/yrlen7u7/eulcgrceu-e1/pnlrrdssb.fRs-//oZ-tre0ciAeu.sEcoubvecnlevrsnlecxilxs-mn/ljbcazv-crsMw-lwt/le_-/8l-nt--ssnX5m$lsro/nIu./c/ceeno/chnaihcr0lo/-n9shIE2xfde-tce//ccner/sdgympn/bucec-o1rmo/lpbcsicxccsr-1bbuncmormnmpeqrb/nbs3kcsonF-dlwnfnhImsssgre-n-mpfovrpj-ne/crspwjLdcc/lhuevjlDfrenmal/nsm.vgcctrp/ll-bm-xfmueshstszdrasmdgQ5pgdesroJs_eupcibrsert0bg-uWs/'
p100
a.