(lp0
S'iris/browse/department/AN'
p1
aS'iris/browse/department/SO'
p2
aS'iris/browse/department/SP'
p3
aS'iris/browse/department/G1'
p4
aS'iris/browse/department/AS'
p5
aS'iris/browse/department/DLAWS'
p6
aS'iris/browse/department/FK'
p7
aS'iris/browse/department/EM'
p8
aS'iris/browse/department/MI'
p9
aS'iris/browse/department/ED'
p10
aS'iris/browse/department/EA'
p11
aS'iris/browse/department/HAO'
p12
aS'iris/browse/department/G3'
p13
aS'iris/browse/department/IN'
p14
aS'iris/browse/department/IO'
p15
aS'iris/browse/department/PS'
p16
aS'iris/browse/department/AT'
p17
aS'iris/browse/department/MJ'
p18
aS'iris/browse/department/ST'
p19
aS'iris/browse/department/GR'
p20
aS'iris/browse/department/F2'
p21
aS'iris/browse/department/QA'
p22
aS'iris/browse/department/SWC'
p23
aS'iris/browse/department/MG'
p24
aS'iris/browse/department/EP'
p25
aS'iris/browse/department/SJD'
p26
aS'iris/browse/department/AH'
p27
aS'iris/browse/department/VS'
p28
aS'iris/browse/department/MV'
p29
aS'iris/browse/department/MN'
p30
aS'iris/browse/department/G2'
p31
aS'iris/browse/department/G5'
p32
aS'iris/browse/researchGroup/list/mailto:portico-services@ucl.ac.uk'
p33
aS'iris/browse/researchGroup/list/'
p34
aS'iris/browse/researchGroup/list/intermediate/byTheme'
p35
aS'iris/browse/researchGroup/list/intermediate/byDepartment'
p36
aS'iris/browse/researchGroup/1527'
p37
aS'iris/browse/researchGroup/1001'
p38
aS'iris/browse/researchGroup/1499'
p39
aS'iris/browse/researchGroup/1482'
p40
aS'iris/browse/researchGroup/1042'
p41
aS'iris/browse/researchGroup/1582'
p42
aS'iris/browse/researchGroup/1312'
p43
aS'iris/browse/researchGroup/35'
p44
aS'iris/browse/researchGroup/296'
p45
aS'iris/browse/researchGroup/191'
p46
aS'iris/browse/researchGroup/69'
p47
aS'iris/browse/researchGroup/1484'
p48
aS'iris/browse/researchGroup/1485'
p49
aS'iris/browse/researchGroup/1489'
p50
aS'iris/browse/researchGroup/1579'
p51
aS'iris/browse/researchGroup/118'
p52
aS'iris/browse/researchGroup/63'
p53
aS'iris/browse/researchGroup/70'
p54
aS'iris/browse/researchGroup/1006'
p55
aS'iris/browse/researchGroup/266'
p56
aS'iris/browse/researchGroup/1007'
p57
aS'iris/browse/researchGroup/1008'
p58
aS'iris/browse/researchGroup/268'
p59
aS'iris/browse/researchGroup/1009'
p60
aS'about-ucl/history/'
p61
aS'about-ucl/history/'
p62
aS'about-ucl'
p63
aS'about-ucl/history/edit'
p64
aS'media/media/experts/'
p65
aS'media/media/experts/'
p66
aS'media/media/find-expert'
p67
aS'news/services/experts'
p68
aS'media/media/release-signup'
p69
aS'news/services/press-release-signup'
p70
aS'media/media/experts/'
p71
aS'media/media/experts/edit'
p72
aS'enterprise/consultants/'
p73
aS'consultants/'
p74
aS'enterprise/consultants/mailto:i.khedun@uclconsultants.com'
p75
aS'consultants/'
p76
aS'about/'
p77
aS'about/company-profile/'
p78
aS'about/our-people/'
p79
aS'about/our-spinouts/'
p80
aS'for-researchers/what-is-technology-transfer/'
p81
aS'about/careers/'
p82
aS'spotlight/'
p83
aS'for-researchers/'
p84
aS'for-researchers/do-you-believe-you-have-a-novel-invention/'
p85
aS'for-researchers/find-your-business-manager/'
p86
aS'for-researchers/forms-resources/'
p87
aS'for-researchers/for-partner-nhs-staff/'
p88
aS'for-researchers/investment-opportunities/'
p89
aS'for-researchers/material-transfer-agreements/'
p90
aS'for-researchers/project-management/'
p91
aS'for-researchers/proof-of-concept-funds/'
p92
aS'for-researchers/social-enterprise/'
p93
aS'for-industry/'
p94
aS'for-industry/available-technologies/'
p95
aS'newsroom/'
p96
aS'contact-us/'
p97
aS'/'
p98
aS'author/emmaadmin/'
p99
aS'2018/04/12/uclb-spinout-orchard-therapeutics-acquires-rare-disease-gene-therapy-portfolio-from-gsk/'
p100
aS'technologies/novel-method-of-analysis-of-stroke-data/'
p101
aS'spotlight-items/children-are-not-small-adults-2/'
p102
aS'technologies/snakegrid-local-coordinate-mapping/'
p103
aS'category/spinout-news/'
p104
aS'2018/03/15/intrinsic-features-in-ee-news-europe/'
p105
aS'category/uclb-news/'
p106
aS'2018/03/04/ucl-technology-fund-and-ucl-business-feature-in-sunday-times-article/'
p107
aS'category/investment-opportunities/'
p108
aS'2018/03/01/intrinsic-launches-new-website/'
p109
aS'our-people/'
p110
aS'about/our-people/'
p111
aS'rules-of-website-use/'
p112
aS'privacy/'
p113
aS'cookie/'
p114
aS'sitemap/'
p115
aS'/mailto:info@uclb.com'
p116
aS'research/partnerships/'
p117
aS'research/partnerships/'
p118
aS'research/partnerships/'
p119
aS'turing'
p120
aS'about-us'
p121
aS'news/news-articles/1107/22012011-sainsbury-wellcome-centre-planning'
p122
aS'about'
p123
aS'about-casmi/'
p124
aS'portal/index/about/'
p125
aS'global/qatar/index'
p126
aS'who-we-are/the-partnership/'
p127
aS'about/index.aspx'
p128
aS'research/partnerships/edit'
p129
aS'makeyourmark/help/teaching-research/'
p130
aS'campaign'
p131
aS'makeyourmark/help/teaching-research/feed://www.ucl.ac.uk/campaign/campaign-news-viewer/rss.xml'
p132
aS'campaign'
p133
aS'news/research-viewer//'
p134
aS'news/research-viewer'
p135
aS'news/research-viewer/rss.xml'
p136
aS'news/news-articles/0418/100418-shearing-emerging-technologies'
p137
aS'news/news-articles/0418/060418-antarctica-retreating'
p138
aS'news/news-articles/0418/060418-ice-II'
p139
aS'news/news-articles/0418/050418-prostate-cancer-screening'
p140
aS'news/news-articles/0318/280318-sids-mutation'
p141
aS'news/news-articles/0318/260318-antibiotic-resistance-gene'
p142
aS'news/news-articles/0318/260318-iceland-10-million'
p143
aS'news/news-articles/0318/210318-brain-scan-helmet'
p144
aS'news/news-articles/0318/210318-care-homes-neglect'
p145
aS'news/news-articles/0318/210318-room-temperature-masers'
p146
aS'news/news-articles/0318/200318-ariel-space-mission'
p147
aS'news/news-articles/0318/200318-eye-research'
p148
aS'news/news-articles/0318/160318-world-leading-science-engineering'
p149
aS'news/news-articles/0318/150318-transmission-world-record'
p150
aS'news/news-articles/0318/140318-civil-service-reform-developing-countries'
p151
aS'news/news-articles/0318/090318-mary-rose-conservation'
p152
aS'news/news-articles/0318/090318-prostheses-brain'
p153
aS'news/news-articles/0318/070318-animal-families'
p154
aS'news/news-articles/0318/070318-arsenic-sensor'
p155
aS'news/news-articles/0318/060318-worms-death'
p156
aS'news/research-viewer//?view=view_archive'
p157
aS'news/research-viewer/edit'
p158
aS'user/UCLTV/featured?disable_polymer=1'
p159
aS'user/UCLTV/videos?disable_polymer=1'
p160
aS'user/UCLTV/playlists?disable_polymer=1'
p161
aS'user/UCLTV/community?disable_polymer=1'
p162
aS'user/UCLTV/channels?disable_polymer=1'
p163
aS'user/UCLTV/about?disable_polymer=1'
p164
aS'feed/trending'
p165
aS'channel/UC-9-kyTW8ZkZNDHQJ6FgpwQ'
p166
aS'channel/UCEgdi0XIXXZ-qJOFPf4JSKw'
p167
aS'channel/UCOpNcN46UbXVtpKMrmU4Abg'
p168
aS'channel/UClgRkhTL3_hImCAmdLfDE4g'
p169
aS'channel/UCwWxEudXr2xxrbVfulvvd8g'
p170
aS'channel/UCYfdidRxbB8Qhf0Nx7ioOYw'
p171
aS'channel/UC4R8DWoMoI7CAwX8_LjQHig'
p172
aS'channel/UCULkRHBdLC5ZcEQBaL0oYHQ'
p173
aS'channel/UCzuqhhs6NWbgTzMuM09WKDQ'
p174
aS'feed/guide_builder'
p175
aS'playlist/javascript:void(0)'
p176
aS'watch?v=0GY8ba4RV98&list=PL59730E653A893557'
p177
aS'watch?v=0GY8ba4RV98&list=PL59730E653A893557&index=1&t=0s'
p178
aS'watch?v=w7dsVjWRitI&list=PL59730E653A893557&index=2&t=0s'
p179
aS'watch?v=wQAYM48pVOs&list=PL59730E653A893557&index=3&t=0s'
p180
aS'watch?v=pAw5rjgHWc0&list=PL59730E653A893557&index=4&t=0s'
p181
aS'user/wellcometrust'
p182
aS'watch?v=Zft3V7o6-YY&list=PL59730E653A893557&index=5&t=0s'
p183
aS'user/UCLCancerTrust'
p184
aS'watch?v=PvYP19yI06E&list=PL59730E653A893557&index=6&t=0s'
p185
aS'channel/UC4vT4f3W7WnD-hZtsW0xKag'
p186
aS'watch?v=4vGeKIRqh4o&list=PL59730E653A893557&index=7&t=0s'
p187
aS'channel/UCqzTNFewjFi9mgU0o-sh2zQ'
p188
aS'/www.youtube.com/upload'
p189
aS'user/UCLTV'
p190
aS'user/UCLTV/featured?disable_polymer=1'
p191
aS'user/UCLTV/videos?disable_polymer=1'
p192
aS'user/UCLTV/playlists?disable_polymer=1'
p193
aS'user/UCLTV/community?disable_polymer=1'
p194
aS'user/UCLTV/channels?disable_polymer=1'
p195
aS'user/UCLTV/about?disable_polymer=1'
p196
aS'feed/trending'
p197
aS'feed/history'
p198
aS'channel/UC-9-kyTW8ZkZNDHQJ6FgpwQ'
p199
aS'channel/UCEgdi0XIXXZ-qJOFPf4JSKw'
p200
aS'channel/UCOpNcN46UbXVtpKMrmU4Abg'
p201
aS'channel/UClgRkhTL3_hImCAmdLfDE4g'
p202
aS'channel/UCwWxEudXr2xxrbVfulvvd8g'
p203
aS'channel/UCYfdidRxbB8Qhf0Nx7ioOYw'
p204
aS'channel/UC4R8DWoMoI7CAwX8_LjQHig'
p205
aS'channel/UCULkRHBdLC5ZcEQBaL0oYHQ'
p206
aS'channel/UCzuqhhs6NWbgTzMuM09WKDQ'
p207
aS'feed/guide_builder'
p208
aS'/support.google.com/youtube/answer/1738660?hl=en-GB'
p209
aS'news/insights/javascript:void(0)'
p210
aS'/support.google.com/youtube/answer/1738660?hl=en'
p211
aS'watch?v=0GY8ba4RV98&list=PL59730E653A893557'
p212
aS'watch?v=0GY8ba4RV98&list=PL59730E653A893557&index=1&t=0s'
p213
aS'watch?v=w7dsVjWRitI&list=PL59730E653A893557&index=2&t=0s'
p214
aS'watch?v=wQAYM48pVOs&list=PL59730E653A893557&index=3&t=0s'
p215
aS'watch?v=pAw5rjgHWc0&list=PL59730E653A893557&index=4&t=0s'
p216
aS'user/wellcometrust'
p217
aS'watch?v=Zft3V7o6-YY&list=PL59730E653A893557&index=5&t=0s'
p218
aS'user/UCLCancerTrust'
p219
aS'watch?v=PvYP19yI06E&list=PL59730E653A893557&index=6&t=0s'
p220
aS'channel/UC4vT4f3W7WnD-hZtsW0xKag'
p221
aS'watch?v=4vGeKIRqh4o&list=PL59730E653A893557&index=7&t=0s'
p222
aS'channel/UCqzTNFewjFi9mgU0o-sh2zQ'
p223
aS'media/opinion/javascript:void(0)'
p224
aS'research/vision-strategy/javascript:void(0)'
p225
aS'grand-challenges/javascript:void(0)'
p226
aS'public-policy/javascript:void(0)'
p227
aS'research/integrity/javascript:void(0)'
p228
aS'/www.youtube.com/upload'
p229
aS'user/UCLTV'
p230
aS'user/UCLTV/featured?disable_polymer=1'
p231
aS'user/UCLTV/videos?disable_polymer=1'
p232
aS'user/UCLTV/playlists?disable_polymer=1'
p233
aS'user/UCLTV/community?disable_polymer=1'
p234
aS'user/UCLTV/channels?disable_polymer=1'
p235
aS'user/UCLTV/about?disable_polymer=1'
p236
aS'feed/trending'
p237
aS'feed/history'
p238
aS'channel/UC-9-kyTW8ZkZNDHQJ6FgpwQ'
p239
aS'channel/UCEgdi0XIXXZ-qJOFPf4JSKw'
p240
aS'channel/UCOpNcN46UbXVtpKMrmU4Abg'
p241
aS'channel/UClgRkhTL3_hImCAmdLfDE4g'
p242
aS'channel/UCwWxEudXr2xxrbVfulvvd8g'
p243
aS'channel/UCYfdidRxbB8Qhf0Nx7ioOYw'
p244
aS'channel/UC4R8DWoMoI7CAwX8_LjQHig'
p245
aS'channel/UCULkRHBdLC5ZcEQBaL0oYHQ'
p246
aS'channel/UCzuqhhs6NWbgTzMuM09WKDQ'
p247
aS'feed/guide_builder'
p248
aS'/support.google.com/youtube/answer/1738660?hl=en-GB'
p249
aS'news/news-articles/0418/120418-shingles-virus/javascript:void(0)'
p250
aS'/support.google.com/youtube/answer/1738660?hl=en'
p251
aS'watch?v=0GY8ba4RV98&list=PL59730E653A893557'
p252
aS'watch?v=0GY8ba4RV98&list=PL59730E653A893557&index=1&t=0s'
p253
aS'watch?v=w7dsVjWRitI&list=PL59730E653A893557&index=2&t=0s'
p254
aS'watch?v=wQAYM48pVOs&list=PL59730E653A893557&index=3&t=0s'
p255
aS'watch?v=pAw5rjgHWc0&list=PL59730E653A893557&index=4&t=0s'
p256
aS'user/wellcometrust'
p257
aS'watch?v=Zft3V7o6-YY&list=PL59730E653A893557&index=5&t=0s'
p258
aS'user/UCLCancerTrust'
p259
aS'watch?v=PvYP19yI06E&list=PL59730E653A893557&index=6&t=0s'
p260
aS'channel/UC4vT4f3W7WnD-hZtsW0xKag'
p261
aS'watch?v=4vGeKIRqh4o&list=PL59730E653A893557&index=7&t=0s'
p262
aS'channel/UCqzTNFewjFi9mgU0o-sh2zQ'
p263
aS'maps//javascript:void(0)'
p264
aS'maps/public-transport//javascript:void(0)'
p265
aS'maps/downloads//javascript:void(0)'
p266
aS'maps/downloads/javascript:void(0)'
p267
aS'transforming-ucl/transformingucl-news/news_new_student_centre_closure_of_gordon_street_entrance/javascript:void(0)'
p268
aS'/www.youtube.com/upload'
p269
aS'user/UCLTV'
p270
aS'user/UCLTV/featured?disable_polymer=1'
p271
aS'user/UCLTV/videos?disable_polymer=1'
p272
aS'user/UCLTV/playlists?disable_polymer=1'
p273
aS'user/UCLTV/community?disable_polymer=1'
p274
aS'user/UCLTV/channels?disable_polymer=1'
p275
aS'user/UCLTV/about?disable_polymer=1'
p276
aS'feed/trending'
p277
aS'feed/history'
p278
aS'channel/UC-9-kyTW8ZkZNDHQJ6FgpwQ'
p279
aS'channel/UCEgdi0XIXXZ-qJOFPf4JSKw'
p280
aS'channel/UCOpNcN46UbXVtpKMrmU4Abg'
p281
aS'channel/UClgRkhTL3_hImCAmdLfDE4g'
p282
aS'channel/UCwWxEudXr2xxrbVfulvvd8g'
p283
aS'channel/UCYfdidRxbB8Qhf0Nx7ioOYw'
p284
aS'channel/UC4R8DWoMoI7CAwX8_LjQHig'
p285
aS'channel/UCULkRHBdLC5ZcEQBaL0oYHQ'
p286
aS'channel/UCzuqhhs6NWbgTzMuM09WKDQ'
p287
aS'feed/guide_builder'
p288
aS'/support.google.com/youtube/answer/1738660?hl=en-GB'
p289
aS'casa/javascript:void(0)'
p290
aS'/support.google.com/youtube/answer/1738660?hl=en'
p291
aS'watch?v=0GY8ba4RV98&list=PL59730E653A893557'
p292
aS'watch?v=0GY8ba4RV98&list=PL59730E653A893557&index=1&t=0s'
p293
aS'watch?v=w7dsVjWRitI&list=PL59730E653A893557&index=2&t=0s'
p294
aS'watch?v=wQAYM48pVOs&list=PL59730E653A893557&index=3&t=0s'
p295
aS'watch?v=pAw5rjgHWc0&list=PL59730E653A893557&index=4&t=0s'
p296
aS'user/wellcometrust'
p297
aS'watch?v=Zft3V7o6-YY&list=PL59730E653A893557&index=5&t=0s'
p298
aS'user/UCLCancerTrust'
p299
aS'watch?v=PvYP19yI06E&list=PL59730E653A893557&index=6&t=0s'
p300
aS'channel/UC4vT4f3W7WnD-hZtsW0xKag'
p301
aS'watch?v=4vGeKIRqh4o&list=PL59730E653A893557&index=7&t=0s'
p302
aS'channel/UCqzTNFewjFi9mgU0o-sh2zQ'
p303
aS'maps/mailto:digital-comms@ucl.ac.uk/javascript:void(0)'
p304
aS'news//javascript:void(0)'
p305
aS'news/index_right/javascript:void(0)'
p306
aS'news/contacts/javascript:void(0)'
p307
aS'news/student/javascript:void(0)'
p308
aS'news/ucl-in-the-media/javascript:void(0)'
p309
aS'news/index_left/javascript:void(0)'
p310
aS'news/tell-us-your-story/javascript:void(0)'
p311
aS'news/services/javascript:void(0)'
p312
aS'news/contact-us/javascript:void(0)'
p313
aS'javascript:void(0)'
p314
aS'news/news-articles/0418/170418-Syracosphaera-azureaplaneta/javascript:void(0)'
p315
aS'news/news-articles/0418/17042018-preconceptionhealth/javascript:void(0)'
p316
aS'news/news-articles/0418/120418-kidney-cancer/javascript:void(0)'
p317
aS'news/news-articles/0418/120418_menopause_memory/javascript:void(0)'
p318
aS'news/news-articles/0418/17-04-18-fruit-flies-lifespan/javascript:void(0)'
p319
aS'news/news-articles/0418/13042018-shipping/javascript:void(0)'
p320
aS'news/news-articles/0418/120418-shingles-virus/javascript:void(0)'
p321
aS'news/all-news/javascript:void(0)'
p322
aS'/www.youtube.com/upload'
p323
aS'user/UCLTV'
p324
aS'user/UCLTV/featured?disable_polymer=1'
p325
aS'user/UCLTV/videos?disable_polymer=1'
p326
aS'user/UCLTV/playlists?disable_polymer=1'
p327
aS'user/UCLTV/community?disable_polymer=1'
p328
aS'user/UCLTV/channels?disable_polymer=1'
p329
aS'user/UCLTV/about?disable_polymer=1'
p330
aS'feed/trending'
p331
aS'feed/history'
p332
aS'channel/UC-9-kyTW8ZkZNDHQJ6FgpwQ'
p333
aS'channel/UCEgdi0XIXXZ-qJOFPf4JSKw'
p334
aS'channel/UCOpNcN46UbXVtpKMrmU4Abg'
p335
aS'channel/UClgRkhTL3_hImCAmdLfDE4g'
p336
aS'channel/UCwWxEudXr2xxrbVfulvvd8g'
p337
aS'channel/UCYfdidRxbB8Qhf0Nx7ioOYw'
p338
aS'channel/UC4R8DWoMoI7CAwX8_LjQHig'
p339
aS'channel/UCULkRHBdLC5ZcEQBaL0oYHQ'
p340
aS'channel/UCzuqhhs6NWbgTzMuM09WKDQ'
p341
aS'feed/guide_builder'
p342
aS'/support.google.com/youtube/answer/1738660?hl=en-GB'
p343
aS'uclofficial/javascript:void(0)'
p344
aS'/support.google.com/youtube/answer/1738660?hl=en'
p345
aS'watch?v=0GY8ba4RV98&list=PL59730E653A893557'
p346
aS'watch?v=0GY8ba4RV98&list=PL59730E653A893557&index=1&t=0s'
p347
aS'watch?v=w7dsVjWRitI&list=PL59730E653A893557&index=2&t=0s'
p348
aS'watch?v=wQAYM48pVOs&list=PL59730E653A893557&index=3&t=0s'
p349
aS'watch?v=pAw5rjgHWc0&list=PL59730E653A893557&index=4&t=0s'
p350
aS'user/wellcometrust'
p351
aS'watch?v=Zft3V7o6-YY&list=PL59730E653A893557&index=5&t=0s'
p352
aS'user/UCLCancerTrust'
p353
aS'watch?v=PvYP19yI06E&list=PL59730E653A893557&index=6&t=0s'
p354
aS'channel/UC4vT4f3W7WnD-hZtsW0xKag'
p355
aS'watch?v=4vGeKIRqh4o&list=PL59730E653A893557&index=7&t=0s'
p356
aS'channel/UCqzTNFewjFi9mgU0o-sh2zQ'
p357
aS'UCLTV/javascript:void(0)'
p358
aS'legal-services/privacy/javascript:void(0)'
p359
aS'/www.youtube.com/upload'
p360
aS'user/UCLTV'
p361
aS'user/UCLTV/featured?disable_polymer=1'
p362
aS'user/UCLTV/videos?disable_polymer=1'
p363
aS'user/UCLTV/playlists?disable_polymer=1'
p364
aS'user/UCLTV/community?disable_polymer=1'
p365
aS'user/UCLTV/channels?disable_polymer=1'
p366
aS'user/UCLTV/about?disable_polymer=1'
p367
aS'feed/trending'
p368
aS'feed/history'
p369
aS'channel/UC-9-kyTW8ZkZNDHQJ6FgpwQ'
p370
aS'channel/UCEgdi0XIXXZ-qJOFPf4JSKw'
p371
aS'channel/UCOpNcN46UbXVtpKMrmU4Abg'
p372
aS'channel/UClgRkhTL3_hImCAmdLfDE4g'
p373
aS'channel/UCwWxEudXr2xxrbVfulvvd8g'
p374
aS'channel/UCYfdidRxbB8Qhf0Nx7ioOYw'
p375
aS'channel/UC4R8DWoMoI7CAwX8_LjQHig'
p376
aS'channel/UCULkRHBdLC5ZcEQBaL0oYHQ'
p377
aS'channel/UCzuqhhs6NWbgTzMuM09WKDQ'
p378
aS'feed/guide_builder'
p379
aS'/support.google.com/youtube/answer/1738660?hl=en-GB'
p380
aS'/javascript:void(0)'
p381
aS'/support.google.com/youtube/answer/1738660?hl=en'
p382
aS'watch?v=0GY8ba4RV98&list=PL59730E653A893557'
p383
aS'watch?v=0GY8ba4RV98&list=PL59730E653A893557&index=1&t=0s'
p384
aS'watch?v=w7dsVjWRitI&list=PL59730E653A893557&index=2&t=0s'
p385
aS'watch?v=wQAYM48pVOs&list=PL59730E653A893557&index=3&t=0s'
p386
aS'watch?v=pAw5rjgHWc0&list=PL59730E653A893557&index=4&t=0s'
p387
aS'user/wellcometrust'
p388
aS'watch?v=Zft3V7o6-YY&list=PL59730E653A893557&index=5&t=0s'
p389
aS'user/UCLCancerTrust'
p390
aS'watch?v=PvYP19yI06E&list=PL59730E653A893557&index=6&t=0s'
p391
aS'channel/UC4vT4f3W7WnD-hZtsW0xKag'
p392
aS'watch?v=4vGeKIRqh4o&list=PL59730E653A893557&index=7&t=0s'
p393
aS'channel/UCqzTNFewjFi9mgU0o-sh2zQ'
p394
aS'calendar//javascript:void(0)'
p395
aS'calendar/;jsessionid=1281BF1E58E019DA17DE10B0F9969B73'
p396
aS'calendar/tab:lunch_hour_lectures//javascript:void(0)'
p397
aS'calendar/;jsessionid=825AEC3376540B5320D2BE3DAED4AC48'
p398
aS'calendar/tab:exhibitions//javascript:void(0)'
p399
aS'calendar/;jsessionid=0212AD56E6977FAFB0B3313F9F285D62'
p400
aS'news/submit-events/visitor//javascript:void(0)'
p401
aS'/www.youtube.com/upload'
p402
aS'www.youtube.com/upload'
p403
aS'user/UCLTV'
p404
aS'user/UCLTV/featured?disable_polymer=1'
p405
aS'user/UCLTV/videos?disable_polymer=1'
p406
aS'user/UCLTV/playlists?disable_polymer=1'
p407
aS'user/UCLTV/community?disable_polymer=1'
p408
aS'user/UCLTV/channels?disable_polymer=1'
p409
aS'user/UCLTV/about?disable_polymer=1'
p410
aS'feed/trending'
p411
aS'feed/history'
p412
aS'channel/UC-9-kyTW8ZkZNDHQJ6FgpwQ'
p413
aS'channel/UCEgdi0XIXXZ-qJOFPf4JSKw'
p414
aS'channel/UCOpNcN46UbXVtpKMrmU4Abg'
p415
aS'channel/UClgRkhTL3_hImCAmdLfDE4g'
p416
aS'channel/UCwWxEudXr2xxrbVfulvvd8g'
p417
aS'channel/UCYfdidRxbB8Qhf0Nx7ioOYw'
p418
aS'channel/UC4R8DWoMoI7CAwX8_LjQHig'
p419
aS'channel/UCULkRHBdLC5ZcEQBaL0oYHQ'
p420
aS'channel/UCzuqhhs6NWbgTzMuM09WKDQ'
p421
aS'feed/guide_builder'
p422
aS'/support.google.com/youtube/answer/1738660?hl=en-GB'
p423
aS'support.google.com/youtube/answer/1738660?hl=en-GB'
p424
aS'events//javascript:void(0)'
p425
aS'events/javascript:void(0)'
p426
aS'/support.google.com/youtube/answer/1738660?hl=en'
p427
aS'support.google.com/youtube/answer/1738660?hl=en'
p428
aS'watch?v=0GY8ba4RV98&list=PL59730E653A893557'
p429
aS'watch?v=0GY8ba4RV98&list=PL59730E653A893557&index=1&t=0s'
p430
aS'watch?v=w7dsVjWRitI&list=PL59730E653A893557&index=2&t=0s'
p431
aS'watch?v=wQAYM48pVOs&list=PL59730E653A893557&index=3&t=0s'
p432
aS'watch?v=pAw5rjgHWc0&list=PL59730E653A893557&index=4&t=0s'
p433
aS'user/wellcometrust'
p434
aS'watch?v=Zft3V7o6-YY&list=PL59730E653A893557&index=5&t=0s'
p435
aS'user/UCLCancerTrust'
p436
aS'watch?v=PvYP19yI06E&list=PL59730E653A893557&index=6&t=0s'
p437
aS'channel/UC4vT4f3W7WnD-hZtsW0xKag'
p438
aS'watch?v=4vGeKIRqh4o&list=PL59730E653A893557&index=7&t=0s'
p439
aS'channel/UCqzTNFewjFi9mgU0o-sh2zQ'
p440
aS'news/submit-events/enewsletter-signup/javascript:void(0)'
p441
aS'/www.youtube.com/upload'
p442
aS'user/UCLTV'
p443
aS'user/UCLTV/featured?disable_polymer=1'
p444
aS'user/UCLTV/videos?disable_polymer=1'
p445
aS'user/UCLTV/playlists?disable_polymer=1'
p446
aS'user/UCLTV/community?disable_polymer=1'
p447
aS'user/UCLTV/channels?disable_polymer=1'
p448
aS'user/UCLTV/about?disable_polymer=1'
p449
aS'feed/trending'
p450
aS'feed/history'
p451
aS'channel/UC-9-kyTW8ZkZNDHQJ6FgpwQ'
p452
aS'channel/UCEgdi0XIXXZ-qJOFPf4JSKw'
p453
aS'channel/UCOpNcN46UbXVtpKMrmU4Abg'
p454
aS'channel/UClgRkhTL3_hImCAmdLfDE4g'
p455
aS'channel/UCwWxEudXr2xxrbVfulvvd8g'
p456
aS'channel/UCYfdidRxbB8Qhf0Nx7ioOYw'
p457
aS'channel/UC4R8DWoMoI7CAwX8_LjQHig'
p458
aS'channel/UCULkRHBdLC5ZcEQBaL0oYHQ'
p459
aS'channel/UCzuqhhs6NWbgTzMuM09WKDQ'
p460
aS'feed/guide_builder'
p461
aS'/support.google.com/youtube/answer/1738660?hl=en-GB'
p462
aS'uclsound/javascript:void(0)'
p463
aS'/support.google.com/youtube/answer/1738660?hl=en'
p464
aS'watch?v=0GY8ba4RV98&list=PL59730E653A893557'
p465
aS'watch?v=0GY8ba4RV98&list=PL59730E653A893557&index=1&t=0s'
p466
aS'watch?v=w7dsVjWRitI&list=PL59730E653A893557&index=2&t=0s'
p467
aS'watch?v=wQAYM48pVOs&list=PL59730E653A893557&index=3&t=0s'
p468
aS'watch?v=pAw5rjgHWc0&list=PL59730E653A893557&index=4&t=0s'
p469
aS'user/wellcometrust'
p470
aS'watch?v=Zft3V7o6-YY&list=PL59730E653A893557&index=5&t=0s'
p471
aS'user/UCLCancerTrust'
p472
aS'watch?v=PvYP19yI06E&list=PL59730E653A893557&index=6&t=0s'
p473
aS'channel/UC4vT4f3W7WnD-hZtsW0xKag'
p474
aS'watch?v=4vGeKIRqh4o&list=PL59730E653A893557&index=7&t=0s'
p475
aS'channel/UCqzTNFewjFi9mgU0o-sh2zQ'
p476
aS'/www.youtube.com/upload'
p477
aS'user/UCLTV'
p478
aS'user/UCLTV/featured?disable_polymer=1'
p479
aS'user/UCLTV/videos?disable_polymer=1'
p480
aS'user/UCLTV/playlists?disable_polymer=1'
p481
aS'user/UCLTV/community?disable_polymer=1'
p482
aS'user/UCLTV/channels?disable_polymer=1'
p483
aS'user/UCLTV/about?disable_polymer=1'
p484
aS'feed/trending'
p485
aS'feed/history'
p486
aS'channel/UC-9-kyTW8ZkZNDHQJ6FgpwQ'
p487
aS'channel/UCEgdi0XIXXZ-qJOFPf4JSKw'
p488
aS'channel/UCOpNcN46UbXVtpKMrmU4Abg'
p489
aS'channel/UClgRkhTL3_hImCAmdLfDE4g'
p490
aS'channel/UCwWxEudXr2xxrbVfulvvd8g'
p491
aS'channel/UCYfdidRxbB8Qhf0Nx7ioOYw'
p492
aS'channel/UC4R8DWoMoI7CAwX8_LjQHig'
p493
aS'channel/UCULkRHBdLC5ZcEQBaL0oYHQ'
p494
aS'channel/UCzuqhhs6NWbgTzMuM09WKDQ'
p495
aS'feed/guide_builder'
p496
aS'/support.google.com/youtube/answer/1738660?hl=en-GB'
p497
aS'javascript:void(0)'
p498
aS'/support.google.com/youtube/answer/1738660?hl=en'
p499
aS'watch?v=0GY8ba4RV98&list=PL59730E653A893557'
p500
aS'watch?v=0GY8ba4RV98&list=PL59730E653A893557&index=1&t=0s'
p501
aS'watch?v=w7dsVjWRitI&list=PL59730E653A893557&index=2&t=0s'
p502
aS'watch?v=wQAYM48pVOs&list=PL59730E653A893557&index=3&t=0s'
p503
aS'watch?v=pAw5rjgHWc0&list=PL59730E653A893557&index=4&t=0s'
p504
aS'user/wellcometrust'
p505
aS'watch?v=Zft3V7o6-YY&list=PL59730E653A893557&index=5&t=0s'
p506
aS'user/UCLCancerTrust'
p507
aS'watch?v=PvYP19yI06E&list=PL59730E653A893557&index=6&t=0s'
p508
aS'channel/UC4vT4f3W7WnD-hZtsW0xKag'
p509
aS'watch?v=4vGeKIRqh4o&list=PL59730E653A893557&index=7&t=0s'
p510
aS'channel/UCqzTNFewjFi9mgU0o-sh2zQ'
p511
aS'/www.youtube.com/upload'
p512
aS'user/UCLTV'
p513
aS'user/UCLTV/featured?disable_polymer=1'
p514
aS'user/UCLTV/videos?disable_polymer=1'
p515
aS'user/UCLTV/playlists?disable_polymer=1'
p516
aS'user/UCLTV/community?disable_polymer=1'
p517
aS'user/UCLTV/channels?disable_polymer=1'
p518
aS'user/UCLTV/about?disable_polymer=1'
p519
aS'feed/trending'
p520
aS'feed/history'
p521
aS'channel/UC-9-kyTW8ZkZNDHQJ6FgpwQ'
p522
aS'channel/UCEgdi0XIXXZ-qJOFPf4JSKw'
p523
aS'channel/UCOpNcN46UbXVtpKMrmU4Abg'
p524
aS'channel/UClgRkhTL3_hImCAmdLfDE4g'
p525
aS'channel/UCwWxEudXr2xxrbVfulvvd8g'
p526
aS'channel/UCYfdidRxbB8Qhf0Nx7ioOYw'
p527
aS'channel/UC4R8DWoMoI7CAwX8_LjQHig'
p528
aS'channel/UCULkRHBdLC5ZcEQBaL0oYHQ'
p529
aS'channel/UCzuqhhs6NWbgTzMuM09WKDQ'
p530
aS'feed/guide_builder'
p531
aS'/support.google.com/youtube/answer/1738660?hl=en-GB'
p532
aS'bookmark.php/javascript:void(0)'
p533
aS'/support.google.com/youtube/answer/1738660?hl=en'
p534
aS'watch?v=0GY8ba4RV98&list=PL59730E653A893557'
p535
aS'watch?v=0GY8ba4RV98&list=PL59730E653A893557&index=1&t=0s'
p536
aS'watch?v=w7dsVjWRitI&list=PL59730E653A893557&index=2&t=0s'
p537
aS'watch?v=wQAYM48pVOs&list=PL59730E653A893557&index=3&t=0s'
p538
aS'watch?v=pAw5rjgHWc0&list=PL59730E653A893557&index=4&t=0s'
p539
aS'user/wellcometrust'
p540
aS'watch?v=Zft3V7o6-YY&list=PL59730E653A893557&index=5&t=0s'
p541
aS'user/UCLCancerTrust'
p542
aS'watch?v=PvYP19yI06E&list=PL59730E653A893557&index=6&t=0s'
p543
aS'channel/UC4vT4f3W7WnD-hZtsW0xKag'
p544
aS'watch?v=4vGeKIRqh4o&list=PL59730E653A893557&index=7&t=0s'
p545
aS'channel/UCqzTNFewjFi9mgU0o-sh2zQ'
p546
aS'news/submit-events/calendar_submit//javascript:void(0)'
p547
aS'highlights/date:2017-04-17//javascript:void(0)'
p548
aS'calendar/date:2018-03-01//javascript:void(0)'
p549
aS'calendar/;jsessionid=8A8428D5F564F515C7EE2D8D9C2A8527'
p550
aS'calendar/date:2018-05-01//javascript:void(0)'
p551
aS'calendar/;jsessionid=204D3B476E8473D7B2567BDDB6F17FE6'
p552
aS'highlights/date:2019-04-17//javascript:void(0)'
p553
aS'calendar/date:2018-04-01//javascript:void(0)'
p554
aS'calendar/;jsessionid=13F43E2FCBC3482CB4F125E246A8A935'
p555
aS'calendar/date:2018-04-02//javascript:void(0)'
p556
aS'calendar/;jsessionid=3A55DC5993B1C70AB3DC353F658087DF'
p557
aS'calendar/date:2018-04-03//javascript:void(0)'
p558
aS'calendar/;jsessionid=072C453A9FD221D4B19C9F5B06A9F4B1'
p559
aS'calendar/date:2018-04-04//javascript:void(0)'
p560
aS'calendar/;jsessionid=B470B14B1BC908379C82C4D7A361245B'
p561
aS'calendar/date:2018-04-05//javascript:void(0)'
p562
aS'calendar/;jsessionid=CD11B815C059B91EE6490E016AAAEB4D'
p563
aS'calendar/date:2018-04-06//javascript:void(0)'
p564
aS'calendar/;jsessionid=3BD12BF97F1A9790665F3E5FF728166A'
p565
aS'calendar/date:2018-04-07//javascript:void(0)'
p566
aS'calendar/;jsessionid=171E6596A5DA21F3D9D187D7E9FE0F68'
p567
aS'calendar/date:2018-04-08//javascript:void(0)'
p568
aS'calendar/;jsessionid=9C2C00292C12B64AB712F00F0F2974E4'
p569
aS'calendar/date:2018-04-09//javascript:void(0)'
p570
aS'calendar/;jsessionid=5B4ECBC88340EEFC8D8776E26D0A119B'
p571
aS'calendar/date:2018-04-10//javascript:void(0)'
p572
aS'calendar/;jsessionid=DC923E38B2CCB4F862806A441FC3FD4E'
p573
aS'calendar/date:2018-04-11//javascript:void(0)'
p574
aS'calendar/;jsessionid=B047D76C9821545F74BF90C1814BF514'
p575
aS'calendar/date:2018-04-12//javascript:void(0)'
p576
aS'calendar/;jsessionid=67619A5607859653A28F800B998A1E7C'
p577
aS'calendar/date:2018-04-13//javascript:void(0)'
p578
aS'calendar/;jsessionid=AAF5B877AE5C9966128E0F08E58B9DB2'
p579
aS'calendar/date:2018-04-14//javascript:void(0)'
p580
aS'calendar/;jsessionid=F317E90F807C8E24C79363A4A80FBB51'
p581
aS'calendar/date:2018-04-15//javascript:void(0)'
p582
aS'calendar/;jsessionid=7CA39F117C396B389083C0A728E9DDD5'
p583
aS'calendar/date:2018-04-16//javascript:void(0)'
p584
aS'calendar/;jsessionid=E58B11596EFFBEB030533A6176E61864'
p585
aS'calendar/date:2018-04-18//javascript:void(0)'
p586
aS'calendar/;jsessionid=BA065A5FD9D483CA451B5059F73D2C54'
p587
aS'calendar/date:2018-04-19//javascript:void(0)'
p588
aS'calendar/;jsessionid=23796365016CD45FCE316B51420D439C'
p589
aS'calendar/date:2018-04-20//javascript:void(0)'
p590
aS'calendar/;jsessionid=3A173A15780F3BED45CD906475F8EC03'
p591
aS'calendar/date:2018-04-21//javascript:void(0)'
p592
aS'calendar/;jsessionid=29ED65320C92FD0C287AF4ADD167FCAE'
p593
aS'calendar/date:2018-04-22//javascript:void(0)'
p594
aS'calendar/;jsessionid=0EB23A1B85053223A60E4820BEB86D8C'
p595
aS'calendar/date:2018-04-23//javascript:void(0)'
p596
aS'calendar/;jsessionid=036CFCA496709C5FC75D6129A3298129'
p597
aS'calendar/date:2018-04-24//javascript:void(0)'
p598
aS'calendar/;jsessionid=9B414F8A797DC1C75E026116BB6E89EA'
p599
aS'calendar/date:2018-04-25//javascript:void(0)'
p600
aS'calendar/;jsessionid=EA975CC8E7CA4282B356671A8B942FAE'
p601
aS'calendar/date:2018-04-26//javascript:void(0)'
p602
aS'calendar/;jsessionid=3904185560D0A7F816E70D75844C8142'
p603
aS'calendar/date:2018-04-27//javascript:void(0)'
p604
aS'calendar/;jsessionid=B9DAB224CCECEF7211EC3D6B967065FB'
p605
aS'calendar/date:2018-04-28//javascript:void(0)'
p606
aS'calendar/;jsessionid=10E3B2E33570779EEE89ACB9DEBEC4EA'
p607
aS'calendar/date:2018-04-29//javascript:void(0)'
p608
aS'calendar/;jsessionid=352B50F340D15953E3BB9FFDFE1CDB09'
p609
aS'calendar/date:2018-04-30//javascript:void(0)'
p610
aS'calendar/;jsessionid=58C6774067F5B00821555BA22AF1736B'
p611
aS'/www.youtube.com/upload'
p612
aS'user/UCLTV'
p613
aS'user/UCLTV/featured?disable_polymer=1'
p614
aS'user/UCLTV/videos?disable_polymer=1'
p615
aS'user/UCLTV/playlists?disable_polymer=1'
p616
aS'user/UCLTV/community?disable_polymer=1'
p617
aS'user/UCLTV/channels?disable_polymer=1'
p618
aS'user/UCLTV/about?disable_polymer=1'
p619
aS'feed/trending'
p620
aS'feed/history'
p621
aS'channel/UC-9-kyTW8ZkZNDHQJ6FgpwQ'
p622
aS'channel/UCEgdi0XIXXZ-qJOFPf4JSKw'
p623
aS'channel/UCOpNcN46UbXVtpKMrmU4Abg'
p624
aS'channel/UClgRkhTL3_hImCAmdLfDE4g'
p625
aS'channel/UCwWxEudXr2xxrbVfulvvd8g'
p626
aS'channel/UCYfdidRxbB8Qhf0Nx7ioOYw'
p627
aS'channel/UC4R8DWoMoI7CAwX8_LjQHig'
p628
aS'channel/UCULkRHBdLC5ZcEQBaL0oYHQ'
p629
aS'channel/UCzuqhhs6NWbgTzMuM09WKDQ'
p630
aS'feed/guide_builder'
p631
aS'/support.google.com/youtube/answer/1738660?hl=en-GB'
p632
aS'calendar/render/javascript:void(0)'
p633
aS'/support.google.com/youtube/answer/1738660?hl=en'
p634
aS'watch?v=0GY8ba4RV98&list=PL59730E653A893557'
p635
aS'watch?v=0GY8ba4RV98&list=PL59730E653A893557&index=1&t=0s'
p636
aS'watch?v=w7dsVjWRitI&list=PL59730E653A893557&index=2&t=0s'
p637
aS'watch?v=wQAYM48pVOs&list=PL59730E653A893557&index=3&t=0s'
p638
aS'watch?v=pAw5rjgHWc0&list=PL59730E653A893557&index=4&t=0s'
p639
aS'user/wellcometrust'
p640
aS'watch?v=Zft3V7o6-YY&list=PL59730E653A893557&index=5&t=0s'
p641
aS'user/UCLCancerTrust'
p642
aS'watch?v=PvYP19yI06E&list=PL59730E653A893557&index=6&t=0s'
p643
aS'channel/UC4vT4f3W7WnD-hZtsW0xKag'
p644
aS'watch?v=4vGeKIRqh4o&list=PL59730E653A893557&index=7&t=0s'
p645
aS'channel/UCqzTNFewjFi9mgU0o-sh2zQ'
p646
aS'event/event:k5t-jdkesc5k-bj9i3z/ucl-idh-conference-making-highquality-digital-health-a-reality-for-patients/javascript:void(0)'
p647
aS'event/event:p4g-jfrzfq4h-np9rf0/recent-insights-into-the-molecular-mechanism-of-synchronous-neurotransmitter-release-at-synapses/javascript:void(0)'
p648
aS'event/event:g61-jfxtvfw9-shjmdt/lunch-hour-lectures-on-tour-the-unnatural-nature-of-natural-history-museums/javascript:void(0)'
p649
aS'event/event:i5b-jfvkxa4r-savdk0/lunch-hour-lectures-on-tour-the-value-of-biodiversity/javascript:void(0)'
p650
aS'event/event:g63-jfxuhv5b-r4ryyd/lunch-hour-lectures-on-tour-when-a-frog-and-a-virus-went-to-war-and-how-the-battles-were-won-and-lost/javascript:void(0)'
p651
aS'event/event:x5j-jfvmnpna-g4jel4/lunch-hour-lectures-on-tour-gibbonology-why-study-southeast-asias-small-apes/javascript:void(0)'
p652
aS'event/event:h5i-jfvmki09-zb4age/lunch-hour-lectures-on-tour-is-man-just-another-animal/javascript:void(0)'
p653
aS'disclaimer//javascript:void(0)'
p654
aS'foi//javascript:void(0)'
p655
aS'accessibility//javascript:void(0)'
p656
aS'privacy//javascript:void(0)'
p657
aS'highlights///javascript:void(0)'
p658
aS'calendar/tag:org-4//javascript:void(0)'
p659
aS'calendar/;jsessionid=5D9BB2CF918CBA0D32268CDFCBFEAB33'
p660
aS'calendar/date:2017-04-17//javascript:void(0)'
p661
aS'calendar/;jsessionid=3C39027EE0751E70DDD017565A8F5E74'
p662
aS'calendar/date:2019-04-17//javascript:void(0)'
p663
aS'calendar/;jsessionid=58D364A4C03F852B02D21C2585F1DF1A'
p664
aS'event/{http://www.columbasystems.com/customers/ucl/gpp/eventid/}k5t-jdkesc5k-bj9i3z//javascript:void(0)'
p665
aS'calendar/tag:series-yale-ucl-collaborative//javascript:void(0)'
p666
aS'calendar/;jsessionid=7889AF6B6D239EE14DA1DC92FD177BE3'
p667
aS'calendar/tag:building-11//javascript:void(0)'
p668
aS'calendar/;jsessionid=0BAF1835C2AACC38AAD090E32B1C04E0'
p669
aS'calendar/date:2017-04-19//javascript:void(0)'
p670
aS'calendar/;jsessionid=432C073539A61D7F55ECD3ADFA8892CB'
p671
aS'calendar/date:2019-04-19//javascript:void(0)'
p672
aS'calendar/;jsessionid=F183C0AAF91D4BB8FEF9F7D2207FFC30'
p673
aS'event/{http://www.columbasystems.com/customers/ucl/gpp/eventid/}p4g-jfrzfq4h-np9rf0//javascript:void(0)'
p674
aS'maps'
p675
aS'/www.youtube.com/upload'
p676
aS'user/UCLTV'
p677
aS'user/UCLTV/featured?disable_polymer=1'
p678
aS'user/UCLTV/videos?disable_polymer=1'
p679
aS'user/UCLTV/playlists?disable_polymer=1'
p680
aS'user/UCLTV/community?disable_polymer=1'
p681
aS'user/UCLTV/channels?disable_polymer=1'
p682
aS'user/UCLTV/about?disable_polymer=1'
p683
aS'feed/trending'
p684
aS'feed/history'
p685
aS'channel/UC-9-kyTW8ZkZNDHQJ6FgpwQ'
p686
aS'channel/UCEgdi0XIXXZ-qJOFPf4JSKw'
p687
aS'channel/UCOpNcN46UbXVtpKMrmU4Abg'
p688
aS'channel/UClgRkhTL3_hImCAmdLfDE4g'
p689
aS'channel/UCwWxEudXr2xxrbVfulvvd8g'
p690
aS'channel/UCYfdidRxbB8Qhf0Nx7ioOYw'
p691
aS'channel/UC4R8DWoMoI7CAwX8_LjQHig'
p692
aS'channel/UCULkRHBdLC5ZcEQBaL0oYHQ'
p693
aS'channel/UCzuqhhs6NWbgTzMuM09WKDQ'
p694
aS'feed/guide_builder'
p695
aS'/support.google.com/youtube/answer/1738660?hl=en-GB'
p696
aS'maps/javascript:void(0)'
p697
aS'/support.google.com/youtube/answer/1738660?hl=en'
p698
aS'watch?v=0GY8ba4RV98&list=PL59730E653A893557'
p699
aS'watch?v=0GY8ba4RV98&list=PL59730E653A893557&index=1&t=0s'
p700
aS'watch?v=w7dsVjWRitI&list=PL59730E653A893557&index=2&t=0s'
p701
aS'watch?v=wQAYM48pVOs&list=PL59730E653A893557&index=3&t=0s'
p702
aS'watch?v=pAw5rjgHWc0&list=PL59730E653A893557&index=4&t=0s'
p703
aS'user/wellcometrust'
p704
aS'watch?v=Zft3V7o6-YY&list=PL59730E653A893557&index=5&t=0s'
p705
aS'user/UCLCancerTrust'
p706
aS'watch?v=PvYP19yI06E&list=PL59730E653A893557&index=6&t=0s'
p707
aS'channel/UC4vT4f3W7WnD-hZtsW0xKag'
p708
aS'watch?v=4vGeKIRqh4o&list=PL59730E653A893557&index=7&t=0s'
p709
aS'channel/UCqzTNFewjFi9mgU0o-sh2zQ'
p710
aS'calendar/tag:series-lunchhour//javascript:void(0)'
p711
aS'calendar/;jsessionid=79C5B567F58B1D402B7C67E6B3226756'
p712
aS'calendar/date:2017-05-03//javascript:void(0)'
p713
aS'calendar/;jsessionid=45F7E6AD6FADFB94310ED1E9A993B30E'
p714
aS'calendar/date:2018-06-01//javascript:void(0)'
p715
aS'calendar/;jsessionid=73FE1855E8F5B6E01012DEA3235A81B2'
p716
aS'calendar/date:2019-05-03//javascript:void(0)'
p717
aS'calendar/;jsessionid=88FE1F32ED2B556BF21A01E6EC22BA7B'
p718
aS'calendar/date:2018-05-02//javascript:void(0)'
p719
aS'calendar/;jsessionid=8BA671216DFCA382463943277B0F221F'
p720
aS'calendar/date:2018-05-03//javascript:void(0)'
p721
aS'calendar/;jsessionid=AF06D104201AAA337BC2F827DE7BD79B'
p722
aS'calendar/date:2018-05-04//javascript:void(0)'
p723
aS'calendar/;jsessionid=8C60F92C205B61EE802EAA96CE96A209'
p724
aS'calendar/date:2018-05-05//javascript:void(0)'
p725
aS'calendar/;jsessionid=BEE6938ADD4F93238D64C1EBF4F377D1'
p726
aS'calendar/date:2018-05-06//javascript:void(0)'
p727
aS'calendar/;jsessionid=460959EAA446BE2C4A301D0911DD4C5E'
p728
aS'calendar/date:2018-05-07//javascript:void(0)'
p729
aS'calendar/;jsessionid=139423AC0AA6BF378C77DBD1C136BE00'
p730
aS'calendar/date:2018-05-08//javascript:void(0)'
p731
aS'calendar/;jsessionid=8D068719DFB50AB64341A122A94D9FC4'
p732
aS'calendar/date:2018-05-09//javascript:void(0)'
p733
aS'calendar/;jsessionid=72B1E616380854239DFDBEFCAA50C9D4'
p734
aS'calendar/date:2018-05-10//javascript:void(0)'
p735
aS'calendar/;jsessionid=2CBC02ED1750C302CB8E0D6565BEA0B8'
p736
aS'calendar/date:2018-05-11//javascript:void(0)'
p737
aS'calendar/;jsessionid=15B6C72F6A6469823B3224FB16602BDF'
p738
aS'calendar/date:2018-05-12//javascript:void(0)'
p739
aS'calendar/;jsessionid=2B18DBCC0B13140469435903AF3922BF'
p740
aS'calendar/date:2018-05-13//javascript:void(0)'
p741
aS'calendar/;jsessionid=262D38C6CF6BEFA8E7B5D685BC95F80B'
p742
aS'calendar/date:2018-05-14//javascript:void(0)'
p743
aS'calendar/;jsessionid=E7BAA24CFF5E0FB4E0165966864BE14D'
p744
aS'calendar/date:2018-05-15//javascript:void(0)'
p745
aS'calendar/;jsessionid=0DBD05279983271D927ECBC3F47F0F7F'
p746
aS'calendar/date:2018-05-16//javascript:void(0)'
p747
aS'calendar/;jsessionid=70D02534178EDF792897A787B88E8369'
p748
aS'calendar/date:2018-05-17//javascript:void(0)'
p749
aS'calendar/;jsessionid=FEDAA7A0FAC9DB1977A8CCD8762ABEC3'
p750
aS'calendar/date:2018-05-18//javascript:void(0)'
p751
aS'calendar/;jsessionid=48FF725FA54923B7281E04D6425ED3CF'
p752
aS'calendar/date:2018-05-19//javascript:void(0)'
p753
aS'calendar/;jsessionid=15B981CEAF41FDC4D356AFC7B7B282A2'
p754
aS'calendar/date:2018-05-20//javascript:void(0)'
p755
aS'calendar/;jsessionid=6F8F6F26ED01437C621470C983637325'
p756
aS'calendar/date:2018-05-21//javascript:void(0)'
p757
aS'calendar/;jsessionid=04F128872F74102E181E5B52D5EC1305'
p758
aS'calendar/date:2018-05-22//javascript:void(0)'
p759
aS'calendar/;jsessionid=A083D29EBB20A9AD7F41F040C34A87C0'
p760
aS'calendar/date:2018-05-23//javascript:void(0)'
p761
aS'calendar/;jsessionid=1BBBD056AEC50F07C94FC6FF023B97C3'
p762
aS'calendar/date:2018-05-24//javascript:void(0)'
p763
aS'calendar/;jsessionid=1B335133788036CE003250542FF2EB21'
p764
aS'calendar/date:2018-05-25//javascript:void(0)'
p765
aS'calendar/;jsessionid=1795A854C8B842D787129AD883324230'
p766
aS'calendar/date:2018-05-26//javascript:void(0)'
p767
aS'calendar/;jsessionid=3E8906E8BA491BC2E26C5491ECEC7A40'
p768
aS'calendar/date:2018-05-27//javascript:void(0)'
p769
aS'calendar/;jsessionid=A02A21677309A273DAD046FE22D1644E'
p770
aS'calendar/date:2018-05-28//javascript:void(0)'
p771
aS'calendar/;jsessionid=7146353C245113143A5EB8184DE24A33'
p772
aS'calendar/date:2018-05-29//javascript:void(0)'
p773
aS'calendar/;jsessionid=A70F840B393114DD94CBC12798400289'
p774
aS'calendar/date:2018-05-30//javascript:void(0)'
p775
aS'calendar/;jsessionid=2B2E40234927ECCED8778BA1DA6BFA91'
p776
aS'calendar/date:2018-05-31//javascript:void(0)'
p777
aS'calendar/;jsessionid=BD2BC1F7CD449DDA3D6A94582AD0C0A5'
p778
aS'event/{http://www.columbasystems.com/customers/ucl/gpp/eventid/}g61-jfxtvfw9-shjmdt//javascript:void(0)'
p779
aS'news/news-articles/0418/120418-atlantic-circulation//javascript:void(0)'
p780
aS'/www.youtube.com/upload'
p781
aS'user/UCLTV'
p782
aS'user/UCLTV/featured?disable_polymer=1'
p783
aS'user/UCLTV/videos?disable_polymer=1'
p784
aS'user/UCLTV/playlists?disable_polymer=1'
p785
aS'user/UCLTV/community?disable_polymer=1'
p786
aS'user/UCLTV/channels?disable_polymer=1'
p787
aS'user/UCLTV/about?disable_polymer=1'
p788
aS'feed/trending'
p789
aS'feed/history'
p790
aS'channel/UC-9-kyTW8ZkZNDHQJ6FgpwQ'
p791
aS'channel/UCEgdi0XIXXZ-qJOFPf4JSKw'
p792
aS'channel/UCOpNcN46UbXVtpKMrmU4Abg'
p793
aS'channel/UClgRkhTL3_hImCAmdLfDE4g'
p794
aS'channel/UCwWxEudXr2xxrbVfulvvd8g'
p795
aS'channel/UCYfdidRxbB8Qhf0Nx7ioOYw'
p796
aS'channel/UC4R8DWoMoI7CAwX8_LjQHig'
p797
aS'channel/UCULkRHBdLC5ZcEQBaL0oYHQ'
p798
aS'channel/UCzuqhhs6NWbgTzMuM09WKDQ'
p799
aS'feed/guide_builder'
p800
aS'/support.google.com/youtube/answer/1738660?hl=en-GB'
p801
aS'/javascript:void(0)'
p802
aS'/support.google.com/youtube/answer/1738660?hl=en'
p803
aS'watch?v=0GY8ba4RV98&list=PL59730E653A893557'
p804
aS'watch?v=0GY8ba4RV98&list=PL59730E653A893557&index=1&t=0s'
p805
aS'watch?v=w7dsVjWRitI&list=PL59730E653A893557&index=2&t=0s'
p806
aS'watch?v=wQAYM48pVOs&list=PL59730E653A893557&index=3&t=0s'
p807
aS'watch?v=pAw5rjgHWc0&list=PL59730E653A893557&index=4&t=0s'
p808
aS'user/wellcometrust'
p809
aS'watch?v=Zft3V7o6-YY&list=PL59730E653A893557&index=5&t=0s'
p810
aS'user/UCLCancerTrust'
p811
aS'watch?v=PvYP19yI06E&list=PL59730E653A893557&index=6&t=0s'
p812
aS'channel/UC4vT4f3W7WnD-hZtsW0xKag'
p813
aS'watch?v=4vGeKIRqh4o&list=PL59730E653A893557&index=7&t=0s'
p814
aS'channel/UCqzTNFewjFi9mgU0o-sh2zQ'
p815
aS'/javascript:void(0)'
p816
aS'watch/javascript:void(0)/javascript:void(0)'
p817
aS'user/UCLTV/javascript:void(0)'
p818
aS'channel/UC4jcptjdFE31PnI7a2yfXIw/javascript:void(0)'
p819
aS'timedtext_video/javascript:void(0)'
p820
aS'channel/UC3yA8nDwraeOfnYfBWun83g/javascript:void(0)'
p821
aS'feed/history/javascript:void(0)'
p822
aS't/terms/javascript:void(0)'
p823
aS'testtube/javascript:void(0)'
p824
aS'2034//javascript:void(0)'
p825
aS'2034/review/javascript:void(0)'
p826
aS'2034/vision/javascript:void(0)'
p827
aS'2034/mission/javascript:void(0)'
p828
aS'2034/themes/javascript:void(0)'
p829
aS'2034/enablers/javascript:void(0)'
p830
aS'2034/founding-principles/javascript:void(0)'
p831
aS'2034/implementation/javascript:void(0)'
p832
aS'2034/funding-opportunities/javascript:void(0)'
p833
aS'2034/homepage-assets/review/javascript:void(0)'
p834
aS'2034/themes/academic-leadership/javascript:void(0)'
p835
aS'2034/themes/integrating-research-education/javascript:void(0)'
p836
aS'2034/themes/global-challenges/javascript:void(0)'
p837
aS'2034/themes/accessible-publicly-engaged/javascript:void(0)'
p838
aS'2034/themes/london-global-university/javascript:void(0)'
p839
aS'2034/themes/global-impact/javascript:void(0)'
p840
aS'2034/enablers/student-support/javascript:void(0)'
p841
aS'2034/enablers/valuing-staff/javascript:void(0)'
p842
aS'2034/enablers/financing-ambitions/javascript:void(0)'
p843
aS'2034/enablers/excellent-systems/javascript:void(0)'
p844
aS'2034/enablers/sustainable-estate/javascript:void(0)'
p845
aS'2034/enablers/communicating-engaging/javascript:void(0)'
p846
aS'prospective-students/graduate/research//javascript:void(0)'
p847
aS'/www.youtube.com/upload'
p848
aS'user/UCLTV'
p849
aS'user/UCLTV/featured?disable_polymer=1'
p850
aS'user/UCLTV/videos?disable_polymer=1'
p851
aS'user/UCLTV/playlists?disable_polymer=1'
p852
aS'user/UCLTV/community?disable_polymer=1'
p853
aS'user/UCLTV/channels?disable_polymer=1'
p854
aS'user/UCLTV/about?disable_polymer=1'
p855
aS'feed/trending'
p856
aS'feed/history'
p857
aS'channel/UC-9-kyTW8ZkZNDHQJ6FgpwQ'
p858
aS'channel/UCEgdi0XIXXZ-qJOFPf4JSKw'
p859
aS'channel/UCOpNcN46UbXVtpKMrmU4Abg'
p860
aS'channel/UClgRkhTL3_hImCAmdLfDE4g'
p861
aS'channel/UCwWxEudXr2xxrbVfulvvd8g'
p862
aS'channel/UCYfdidRxbB8Qhf0Nx7ioOYw'
p863
aS'channel/UC4R8DWoMoI7CAwX8_LjQHig'
p864
aS'channel/UCULkRHBdLC5ZcEQBaL0oYHQ'
p865
aS'channel/UCzuqhhs6NWbgTzMuM09WKDQ'
p866
aS'feed/guide_builder'
p867
aS'/support.google.com/youtube/answer/1738660?hl=en-GB'
p868
aS'search/click.cgi/javascript:void(0)'
p869
aS'/support.google.com/youtube/answer/1738660?hl=en'
p870
aS'watch?v=0GY8ba4RV98&list=PL59730E653A893557'
p871
aS'watch?v=0GY8ba4RV98&list=PL59730E653A893557&index=1&t=0s'
p872
aS'watch?v=w7dsVjWRitI&list=PL59730E653A893557&index=2&t=0s'
p873
aS'watch?v=wQAYM48pVOs&list=PL59730E653A893557&index=3&t=0s'
p874
aS'watch?v=pAw5rjgHWc0&list=PL59730E653A893557&index=4&t=0s'
p875
aS'user/wellcometrust'
p876
aS'watch?v=Zft3V7o6-YY&list=PL59730E653A893557&index=5&t=0s'
p877
aS'user/UCLCancerTrust'
p878
aS'watch?v=PvYP19yI06E&list=PL59730E653A893557&index=6&t=0s'
p879
aS'channel/UC4vT4f3W7WnD-hZtsW0xKag'
p880
aS'watch?v=4vGeKIRqh4o&list=PL59730E653A893557&index=7&t=0s'
p881
aS'channel/UCqzTNFewjFi9mgU0o-sh2zQ'
p882
aS'prospective-students/graduate/research/degrees//javascript:void(0)'
p883
aS'prospective-students/graduate/research/subject-areas//javascript:void(0)'
p884
aS'prospective-students/graduate/research/subject-areas/americas-institute/javascript:void(0)'
p885
aS'prospective-students/graduate/research/subject-areas/anthropology/javascript:void(0)'
p886
aS'prospective-students/graduate/research/subject-areas/archaeology/javascript:void(0)'
p887
aS'prospective-students/graduate/research/subject-areas/architecture/javascript:void(0)'
p888
aS'prospective-students/graduate/research/subject-areas/biochemical-engineering/javascript:void(0)'
p889
aS'prospective-students/graduate/research/subject-areas/biosciences/javascript:void(0)'
p890
aS'prospective-students/graduate/research/subject-areas/cancer-institute/javascript:void(0)'
p891
aS'prospective-students/graduate/research/subject-areas/cardiovascular-science/javascript:void(0)'
p892
aS'prospective-students/graduate/research/subject-areas/cell-developmental-biology/javascript:void(0)'
p893
aS'prospective-students/graduate/research/subject-areas/chemical-engineering/javascript:void(0)'
p894
aS'prospective-students/graduate/research/subject-areas/chemistry/javascript:void(0)'
p895
aS'prospective-students/graduate/research/subject-areas/child-health/javascript:void(0)'
p896
aS'prospective-students/graduate/research/subject-areas/civil-environmental-geomatic-engineering/javascript:void(0)'
p897
aS'prospective-students/graduate/research/subject-areas/clinical-trials-methodology/javascript:void(0)'
p898
aS'prospective-students/graduate/research/subject-areas/clinical-educational-health-psychology/javascript:void(0)'
p899
aS'prospective-students/graduate/research/subject-areas/cognitive-neuroscience-institute/javascript:void(0)'
p900
aS'prospective-students/graduate/research/subject-areas/computational-neuroscience-unit-gatsby/javascript:void(0)'
p901
aS'prospective-students/graduate/research/subject-areas/computer-science/javascript:void(0)'
p902
aS'prospective-students/graduate/research/subject-areas/construction-project-management/javascript:void(0)'
p903
aS'prospective-students/graduate/research/subject-areas/eastman-dental-institute/javascript:void(0)'
p904
aS'prospective-students/graduate/research/subject-areas/development-planning/javascript:void(0)'
p905
aS'prospective-students/graduate/research/subject-areas/ear-institute/javascript:void(0)'
p906
aS'prospective-students/graduate/research/subject-areas/earth-sciences/javascript:void(0)'
p907
aS'prospective-students/graduate/research/subject-areas/economics/javascript:void(0)'
p908
aS'prospective-students/graduate/research/subject-areas/education/javascript:void(0)'
p909
aS'prospective-students/graduate/research/subject-areas/education-related-social-science/javascript:void(0)'
p910
aS'prospective-students/graduate/research/subject-areas/electronic-electrical-engineering/javascript:void(0)'
p911
aS'prospective-students/graduate/research/subject-areas/energy/javascript:void(0)'
p912
aS'prospective-students/graduate/research/subject-areas/english/javascript:void(0)'
p913
aS'prospective-students/graduate/research/subject-areas/environmental-design-engineering/javascript:void(0)'
p914
aS'prospective-students/graduate/research/subject-areas/epidemiology-health-care/javascript:void(0)'
p915
aS'prospective-students/graduate/research/subject-areas/european-languages-culture-society/javascript:void(0)'
p916
aS'prospective-students/graduate/research/subject-areas/experimental-psychology/javascript:void(0)'
p917
aS'prospective-students/graduate/research/subject-areas/fine-art-slade-school/javascript:void(0)'
p918
aS'prospective-students/graduate/research/subject-areas/genetics-evolution-and-environment/javascript:void(0)'
p919
aS'prospective-students/graduate/research/subject-areas/geography/javascript:void(0)'
p920
aS'prospective-students/graduate/research/subject-areas/global-health-institute/javascript:void(0)'
p921
aS'prospective-students/graduate/research/subject-areas/global-prosperity/javascript:void(0)'
p922
aS'prospective-students/graduate/research/subject-areas/greek-latin/javascript:void(0)'
p923
aS'prospective-students/graduate/research/subject-areas/health-informatics-institute/javascript:void(0)'
p924
aS'prospective-students/graduate/research/subject-areas/hebrew-jewish-studies/javascript:void(0)'
p925
aS'prospective-students/graduate/research/subject-areas/history/javascript:void(0)'
p926
aS'prospective-students/graduate/research/subject-areas/history-art/javascript:void(0)'
p927
aS'prospective-students/graduate/research/subject-areas/infection-immunity/javascript:void(0)'
p928
aS'prospective-students/graduate/research/subject-areas/information-studies/javascript:void(0)'
p929
aS'prospective-students/graduate/research/subject-areas/innovation-theory-public-policy/javascript:void(0)'
p930
aS'prospective-students/graduate/research/subject-areas/interaction-centre-ucl/javascript:void(0)'
p931
aS'prospective-students/graduate/research/subject-areas/language-cognition/javascript:void(0)'
p932
aS'prospective-students/graduate/research/subject-areas/law/javascript:void(0)'
p933
aS'prospective-students/graduate/research/subject-areas/linguistics/javascript:void(0)'
p934
aS'prospective-students/graduate/research/subject-areas/management/javascript:void(0)'
p935
aS'prospective-students/graduate/research/subject-areas/mathematics/javascript:void(0)'
p936
aS'prospective-students/graduate/research/subject-areas/mechanical-engineering/javascript:void(0)'
p937
aS'prospective-students/graduate/research/subject-areas/medical-education/javascript:void(0)'
p938
aS'prospective-students/graduate/research/subject-areas/medical-physics-biomedical-engineering/javascript:void(0)'
p939
aS'prospective-students/graduate/research/subject-areas/medicine/javascript:void(0)'
p940
aS'prospective-students/graduate/research/subject-areas/molecular-cell-biology-laboratory/javascript:void(0)'
p941
aS'prospective-students/graduate/research/subject-areas/multi-disciplinary-intercultural-inquiry/javascript:void(0)'
p942
aS'prospective-students/graduate/research/subject-areas/sainsbury-wellcome-centre-neural-circuits-behaviou/javascript:void(0)'
p943
aS'prospective-students/graduate/research/subject-areas/neurology/javascript:void(0)'
p944
aS'prospective-students/graduate/research/subject-areas/neuroscience-physiology-pharmacology/javascript:void(0)'
p945
aS'prospective-students/graduate/research/subject-areas/ophthalmology/javascript:void(0)'
p946
aS'prospective-students/graduate/research/subject-areas/pharmacy-school/javascript:void(0)'
p947
aS'prospective-students/graduate/research/subject-areas/philosophy/javascript:void(0)'
p948
aS'prospective-students/graduate/research/subject-areas/physics-astronomy/javascript:void(0)'
p949
aS'prospective-students/graduate/research/subject-areas/planning/javascript:void(0)'
p950
aS'prospective-students/graduate/research/subject-areas/political-science/javascript:void(0)'
p951
aS'prospective-students/graduate/research/subject-areas/psychiatry-division/javascript:void(0)'
p952
aS'prospective-students/graduate/research/subject-areas/science-technology-studies/javascript:void(0)'
p953
aS'prospective-students/graduate/research/subject-areas/science-technology-engineering-public-policy/javascript:void(0)'
p954
aS'prospective-students/graduate/research/subject-areas/security-crime-science/javascript:void(0)'
p955
aS'prospective-students/graduate/research/subject-areas/slavonic-east-european-studies/javascript:void(0)'
p956
aS'prospective-students/graduate/research/subject-areas/space-climate-physics/javascript:void(0)'
p957
aS'prospective-students/graduate/research/subject-areas/advanced-spatial-analysis-centre/javascript:void(0)'
p958
aS'prospective-students/graduate/research/subject-areas/speech-hearing-phonetic-sciences/javascript:void(0)'
p959
aS'prospective-students/graduate/research/subject-areas/statistical-science/javascript:void(0)'
p960
aS'prospective-students/graduate/research/subject-areas/structural-molecular-biology/javascript:void(0)'
p961
aS'prospective-students/graduate/research/subject-areas/surgery-interventional-science/javascript:void(0)'
p962
aS'prospective-students/graduate/research/subject-areas/sustainable-heritage/javascript:void(0)'
p963
aS'prospective-students/graduate/research/subject-areas/sustainable-resources/javascript:void(0)'
p964
aS'prospective-students/graduate/research/subject-areas/womens-health/javascript:void(0)'
p965
aS'prospective-students/graduate/research/degree-types//javascript:void(0)'
p966
aS'prospective-students/graduate/research/funded-opportunities/doctoral-training/javascript:void(0)'
p967
aS'prospective-students/graduate/research/application//javascript:void(0)'
p968
aS'graduate/degrees/javascript:void(0)'
p969
aS'/www.youtube.com/upload'
p970
aS'user/UCLTV'
p971
aS'user/UCLTV/featured?disable_polymer=1'
p972
aS'user/UCLTV/videos?disable_polymer=1'
p973
aS'user/UCLTV/playlists?disable_polymer=1'
p974
aS'user/UCLTV/community?disable_polymer=1'
p975
aS'user/UCLTV/channels?disable_polymer=1'
p976
aS'user/UCLTV/about?disable_polymer=1'
p977
aS'feed/trending'
p978
aS'feed/history'
p979
aS'channel/UC-9-kyTW8ZkZNDHQJ6FgpwQ'
p980
aS'channel/UCEgdi0XIXXZ-qJOFPf4JSKw'
p981
aS'channel/UCOpNcN46UbXVtpKMrmU4Abg'
p982
aS'channel/UClgRkhTL3_hImCAmdLfDE4g'
p983
aS'channel/UCwWxEudXr2xxrbVfulvvd8g'
p984
aS'channel/UCYfdidRxbB8Qhf0Nx7ioOYw'
p985
aS'channel/UC4R8DWoMoI7CAwX8_LjQHig'
p986
aS'channel/UCULkRHBdLC5ZcEQBaL0oYHQ'
p987
aS'channel/UCzuqhhs6NWbgTzMuM09WKDQ'
p988
aS'feed/guide_builder'
p989
aS'/support.google.com/youtube/answer/1738660?hl=en-GB'
p990
aS'iris/javascript:void(0)'
p991
aS'/support.google.com/youtube/answer/1738660?hl=en'
p992
aS'watch?v=0GY8ba4RV98&list=PL59730E653A893557'
p993
aS'watch?v=0GY8ba4RV98&list=PL59730E653A893557&index=1&t=0s'
p994
aS'watch?v=w7dsVjWRitI&list=PL59730E653A893557&index=2&t=0s'
p995
aS'watch?v=wQAYM48pVOs&list=PL59730E653A893557&index=3&t=0s'
p996
aS'watch?v=pAw5rjgHWc0&list=PL59730E653A893557&index=4&t=0s'
p997
aS'user/wellcometrust'
p998
aS'watch?v=Zft3V7o6-YY&list=PL59730E653A893557&index=5&t=0s'
p999
aS'user/UCLCancerTrust'
p1000
a.