(lp0
F5e-06
aF0.009113
aF5e-06
aF0.003371
aF0.009806
aF0.008816000000000001
aF0.01634
aF0.007628
aF0.01139
aF0.011093
aF0.005945
aF0.007331
aF0.009806
aF0.005945
aF0.013964
aF0.012182
aF0.010994
aF0.024656
aF0.009806
aF0.013964
aF0.015449000000000001
aF0.017132
aF0.010202
aF0.014261
aF0.009905
aF0.019013000000000002
aF0.017924000000000002
aF0.011489000000000001
aF0.011489000000000001
aF0.015251
aF0.01634
aF0.015647
aF0.016439000000000002
aF0.009608
aF0.008123
aF0.009707
aF0.012578
aF0.012974
aF0.017627000000000004
aF0.014954
aF0.009707
aF0.00842
aF0.027428
aF0.011192
aF0.010202
aF0.009311
aF0.008717
aF0.011687
aF0.011588
aF0.007826
aF0.008222
aF0.008915
aF0.008024
aF0.009707
aF0.007133
aF0.007232
aF0.008816000000000001
aF0.007727
aF0.013964
aF0.007232
aF0.006836
aF0.005252
aF0.00644
aF0.006638
aF0.007628
aF0.005054
aF0.007331
aF0.00743
aF0.005054
aF0.006638
aF0.004163
aF0.0044599999999999996
aF0.00644
aF0.004856
aF0.006341
aF0.005054
aF0.006242
aF0.005945
aF0.005351
aF0.006143
aF0.004658
aF0.003767
aF0.004361
aF0.004856
aF0.004658
aF0.004262
aF0.004757
aF0.0032719999999999997
aF0.004163
aF0.003767
aF0.0044599999999999996
aF0.004757
aF0.004955
aF0.005351
aF0.00347
aF0.004955
aF0.003371
aF0.004163
aF0.003767
aF0.004163
aF0.003668
aF0.003965
aF0.004262
aF0.003668
aF0.003173
aF0.004658
aF0.004064
aF0.00347
aF0.003668
aF0.0032719999999999997
aF0.003371
aF0.004856
aF0.0029749999999999998
aF0.002381
aF0.002381
aF0.001886
aF0.0025789999999999997
aF0.002678
aF0.0022819999999999997
aF0.001688
aF0.00248
aF0.003173
aF0.001985
aF0.0015890000000000001
aF0.001292
aF0.001985
aF0.002183
aF0.001787
aF0.0010940000000000001
aF0.001787
aF0.001787
aF0.000896
aF0.001193
aF0.00040100000000000004
aF0.000995
aF0.00149
aF0.000302
aF0.000995
aF0.000698
aF0.0010940000000000001
aF0.000995
aF0.00040100000000000004
aF0.000896
aF0.000302
aF0.000995
aF0.0005
aF0.00040100000000000004
aF0.000599
aF0.0005
aF0.00010400000000000001
aF0.00020300000000000003
aF0.00010400000000000001
aF0.000302
aF0.000599
aF0.0005
aF0.000599
aF5e-06
aF0.00040100000000000004
aF0.00020300000000000003
aF0.00010400000000000001
aF0.00020300000000000003
aF0.00020300000000000003
aF0.00020300000000000003
aF5e-06
aF0.00020300000000000003
aF0.00010400000000000001
aF5e-06
aF5e-06
aF0.00010400000000000001
aF0.00010400000000000001
aF0.00020300000000000003
aF0.00020300000000000003
aF5e-06
aF5e-06
aF0.00010400000000000001
aF0.00010400000000000001
aF5e-06
aF5e-06
aF0.00010400000000000001
aF5e-06
aF5e-06
aF5e-06
aF0.00020300000000000003
aF0.00010400000000000001
aF5e-06
aF0.00010400000000000001
aF0.00020300000000000003
aF0.00010400000000000001
aF5e-06
aF5e-06
aF5e-06
aF5e-06
aF5e-06
aF5e-06
aF0.00010400000000000001
aF0.00020300000000000003
aF5e-06
aF5e-06
aF5e-06
aF5e-06
aF5e-06
aF5e-06
aF5e-06
aF5e-06
aF5e-06
aF5e-06
aF5e-06
aF5e-06
aF5e-06
aF5e-06
aF5e-06
aF5e-06
aF5e-06
aF5e-06
aF5e-06
aF5e-06
aF5e-06
aF5e-06
aF5e-06
aF5e-06
aF5e-06
aF5e-06
aF5e-06
aF5e-06
aF5e-06
aF5e-06
aF5e-06
aF5e-06
aF5e-06
aF5e-06
aF5e-06
aF5e-06
aF5e-06
aF5e-06
aF5e-06
aF5e-06
aF5e-06
aF5e-06
aF5e-06
aF5e-06
aF5e-06
aF5e-06
aF5e-06
aF5e-06
aF5e-06
aF5e-06
aF5e-06
aF5e-06
aF5e-06
aF5e-06
aF0.00010400000000000001
aF5e-06
aF5e-06
aF0.00010400000000000001
aF5e-06
aF5e-06
aF5e-06
aF5e-06
aF0.00010400000000000001
aF5e-06
aF5e-06
aF5e-06
aF0.00010400000000000001
aF5e-06
aF5e-06
aF5e-06
aF0.00010400000000000001
aF5e-06
aF0.00010400000000000001
aF0.00010400000000000001
aF5e-06
aF5e-06
aF0.00010400000000000001
aF5e-06
aF0.00010400000000000001
aF5e-06
aF0.00010400000000000001
aF0.00010400000000000001
aF5e-06
aF5e-06
aF5e-06
aF5e-06
aF0.00010400000000000001
aF5e-06
aF5e-06
aF0.00010400000000000001
aF0.00010400000000000001
aF5e-06
aF5e-06
aF0.00010400000000000001
aF5e-06
aF5e-06
aF5e-06
aF5e-06
aF5e-06
aF5e-06
aF5e-06
aF0.00010400000000000001
aF0.00010400000000000001
aF5e-06
aF0.00020300000000000003
aF0.00010400000000000001
aF5e-06
aF5e-06
aF5e-06
aF0.00020300000000000003
aF0.00010400000000000001
aF5e-06
aF0.00020300000000000003
aF0.00010400000000000001
aF0.00010400000000000001
aF5e-06
aF0.00020300000000000003
aF0.00020300000000000003
aF0.00010400000000000001
aF5e-06
aF0.00010400000000000001
aF0.00010400000000000001
aF0.00010400000000000001
aF5e-06
aF0.00020300000000000003
aF0.00010400000000000001
aF0.00010400000000000001
aF5e-06
aF0.00020300000000000003
aF5e-06
aF0.00020300000000000003
aF5e-06
aF5e-06
aF0.00010400000000000001
aF5e-06
aF5e-06
aF5e-06
aF0.00010400000000000001
aF5e-06
aF5e-06
aF0.00010400000000000001
aF0.00010400000000000001
aF0.00020300000000000003
aF5e-06
aF0.00010400000000000001
aF0.00010400000000000001
aF5e-06
aF5e-06
aF5e-06
aF5e-06
aF5e-06
aF5e-06
aF5e-06
aF0.00010400000000000001
aF5e-06
aF5e-06
aF5e-06
aF5e-06
aF0.000698
aF5e-06
aF0.00020300000000000003
aF5e-06
aF0.00010400000000000001
aF5e-06
aF5e-06
aF0.00010400000000000001
aF0.00010400000000000001
aF5e-06
aF5e-06
aF5e-06
aF0.00010400000000000001
aF5e-06
aF0.00010400000000000001
aF5e-06
aF5e-06
aF5e-06
aF5e-06
aF0.00010400000000000001
aF5e-06
aF5e-06
aF5e-06
aF5e-06
aF5e-06
aF5e-06
aF5e-06
aF5e-06
aF5e-06
aF5e-06
aF0.00010400000000000001
aF0.00010400000000000001
aF0.00010400000000000001
aF5e-06
aF0.000896
aF0.00010400000000000001
aF5e-06
aF5e-06
aF0.00010400000000000001
aF5e-06
aF0.00010400000000000001
aF5e-06
aF5e-06
aF5e-06
aF0.00010400000000000001
aF5e-06
aF5e-06
aF5e-06
aF0.00010400000000000001
aF5e-06
aF5e-06
aF5e-06
aF5e-06
aF5e-06
aF5e-06
aF5e-06
aF0.00010400000000000001
aF5e-06
aF5e-06
aF5e-06
aF5e-06
aF5e-06
aF5e-06
aF5e-06
aF5e-06
aF5e-06
aF5e-06
aF5e-06
aF5e-06
aF5e-06
aF5e-06
aF5e-06
aF0.00010400000000000001
aF5e-06
aF5e-06
aF5e-06
aF5e-06
aF5e-06
aF5e-06
aF5e-06
aF5e-06
aF5e-06
aF5e-06
aF5e-06
aF5e-06
aF5e-06
aF5e-06
aF5e-06
aF5e-06
aF5e-06
aF5e-06
aF5e-06
aF5e-06
aF5e-06
aF5e-06
aF5e-06
aF5e-06
aF5e-06
aF5e-06
aF5e-06
aF5e-06
aF5e-06
aF5e-06
aF5e-06
aF5e-06
aF5e-06
aF5e-06
aF5e-06
aF5e-06
aF5e-06
aF5e-06
aF5e-06
aF5e-06
aF5e-06
aF5e-06
aF5e-06
aF5e-06
aF5e-06
aF5e-06
aF5e-06
aF5e-06
aF5e-06
aF5e-06
aF5e-06
aF5e-06
aF5e-06
aF0.00010400000000000001
aF5e-06
aF5e-06
aF5e-06
aF5e-06
aF5e-06
aF5e-06
aF5e-06
aF5e-06
aF5e-06
aF5e-06
aF5e-06
aF5e-06
aF5e-06
aF5e-06
aF5e-06
aF5e-06
aF5e-06
aF5e-06
aF5e-06
aF5e-06
aF5e-06
aF5e-06
aF5e-06
aF5e-06
aF5e-06
aF5e-06
aF5e-06
aF5e-06
aF5e-06
aF5e-06
aF5e-06
aF5e-06
aF5e-06
aF5e-06
aF5e-06
aF5e-06
aF5e-06
aF5e-06
aF5e-06
aF5e-06
aF5e-06
aF5e-06
aF5e-06
aF5e-06
aF5e-06
aF5e-06
aF5e-06
aF5e-06
aF5e-06
aF5e-06
aF5e-06
aF5e-06
aF5e-06
aF5e-06
aF5e-06
aF5e-06
aF5e-06
aF5e-06
aF5e-06
aF5e-06
aF5e-06
aF5e-06
aF5e-06
aF5e-06
aF5e-06
aF5e-06
aF5e-06
aF5e-06
aF5e-06
aF5e-06
aF5e-06
aF5e-06
aF5e-06
aF5e-06
aF5e-06
aF5e-06
aF5e-06
aF5e-06
aF5e-06
aF5e-06
aF5e-06
aF5e-06
aF5e-06
aF5e-06
aF5e-06
aF5e-06
aF5e-06
aF5e-06
aF5e-06
aF5e-06
aF5e-06
aF5e-06
aF5e-06
aF5e-06
aF5e-06
aF5e-06
aF5e-06
aF5e-06
aF5e-06
aF5e-06
aF5e-06
aF5e-06
aF5e-06
aF5e-06
aF5e-06
aF5e-06
aF5e-06
aF5e-06
aF5e-06
aF5e-06
aF5e-06
aF5e-06
aF5e-06
aF5e-06
aF5e-06
aF5e-06
aF5e-06
aF5e-06
aF5e-06
aF5e-06
aF5e-06
aF5e-06
aF5e-06
aF5e-06
aF5e-06
aF5e-06
aF5e-06
aF5e-06
aF5e-06
aF5e-06
aF5e-06
aF5e-06
aF5e-06
aF5e-06
aF5e-06
aF5e-06
aF5e-06
aF5e-06
aF5e-06
aF5e-06
aF5e-06
aF5e-06
aF5e-06
aF5e-06
aF5e-06
aF5e-06
aF5e-06
aF5e-06
aF5e-06
aF5e-06
aF5e-06
aF5e-06
aF5e-06
aF5e-06
aF5e-06
aF5e-06
aF5e-06
aF5e-06
aF5e-06
aF5e-06
aF5e-06
aF5e-06
aF5e-06
aF5e-06
aF5e-06
aF5e-06
aF5e-06
aF5e-06
aF5e-06
aF5e-06
aF5e-06
aF5e-06
aF5e-06
aF5e-06
aF5e-06
aF5e-06
aF5e-06
aF5e-06
aF5e-06
aF5e-06
aF5e-06
aF5e-06
aF5e-06
aF5e-06
aF5e-06
aF5e-06
aF5e-06
aF5e-06
aF5e-06
aF5e-06
aF5e-06
aF5e-06
aF5e-06
aF5e-06
aF5e-06
aF5e-06
aF5e-06
aF5e-06
aF5e-06
aF5e-06
aF5e-06
aF5e-06
aF5e-06
aF5e-06
aF5e-06
aF5e-06
aF5e-06
aF5e-06
aF5e-06
aF5e-06
aF5e-06
aF5e-06
aF5e-06
aF5e-06
aF5e-06
aF5e-06
aF5e-06
aF5e-06
aF5e-06
aF5e-06
aF5e-06
aF5e-06
aF5e-06
aF5e-06
aF5e-06
aF5e-06
aF5e-06
aF5e-06
aF5e-06
aF5e-06
aF5e-06
aF5e-06
aF5e-06
aF5e-06
aF5e-06
aF5e-06
aF5e-06
aF5e-06
aF5e-06
aF5e-06
aF5e-06
aF5e-06
aF5e-06
aF5e-06
aF5e-06
aF5e-06
aF5e-06
aF5e-06
aF5e-06
aF5e-06
aF5e-06
aF5e-06
aF5e-06
aF5e-06
aF5e-06
aF5e-06
aF5e-06
aF5e-06
aF5e-06
aF5e-06
aF5e-06
aF5e-06
aF5e-06
aF5e-06
aF5e-06
aF5e-06
aF5e-06
aF5e-06
aF5e-06
aF5e-06
aF5e-06
aF5e-06
aF5e-06
aF5e-06
aF5e-06
aF5e-06
aF5e-06
aF5e-06
aF5e-06
aF5e-06
aF5e-06
aF5e-06
aF5e-06
aF5e-06
aF5e-06
aF5e-06
aF5e-06
aF5e-06
aF5e-06
aF5e-06
aF5e-06
aF5e-06
aF5e-06
aF5e-06
aF5e-06
aF5e-06
aF5e-06
aF5e-06
aF5e-06
aF5e-06
aF5e-06
aF5e-06
aF5e-06
aF5e-06
aF5e-06
aF5e-06
aF5e-06
aF5e-06
aF5e-06
aF5e-06
aF5e-06
aF5e-06
aF5e-06
aF5e-06
aF5e-06
aF5e-06
aF5e-06
aF5e-06
aF5e-06
aF5e-06
aF5e-06
aF5e-06
aF5e-06
aF5e-06
aF5e-06
aF5e-06
aF5e-06
aF5e-06
aF5e-06
aF5e-06
aF5e-06
aF5e-06
aF5e-06
aF5e-06
aF5e-06
aF5e-06
aF5e-06
aF5e-06
aF5e-06
aF5e-06
aF5e-06
aF5e-06
aF5e-06
aF5e-06
aF5e-06
aF5e-06
aF5e-06
aF5e-06
aF5e-06
aF5e-06
aF5e-06
aF5e-06
aF5e-06
aF5e-06
aF5e-06
aF5e-06
aF5e-06
aF5e-06
aF5e-06
aF5e-06
aF5e-06
aF5e-06
aF5e-06
aF5e-06
aF5e-06
aF5e-06
aF5e-06
aF5e-06
aF5e-06
aF5e-06
aF5e-06
aF5e-06
aF5e-06
aF5e-06
aF5e-06
aF5e-06
aF5e-06
aF5e-06
aF5e-06
aF5e-06
aF5e-06
aF5e-06
aF5e-06
aF5e-06
aF5e-06
aF5e-06
aF5e-06
aF5e-06
aF5e-06
aF5e-06
aF5e-06
aF5e-06
aF5e-06
aF5e-06
aF5e-06
aF5e-06
aF5e-06
aF5e-06
aF5e-06
aF5e-06
aF5e-06
aF5e-06
aF5e-06
aF5e-06
aF5e-06
aF5e-06
aF5e-06
aF5e-06
aF5e-06
aF5e-06
aF5e-06
aF5e-06
aF5e-06
aF5e-06
aF5e-06
aF5e-06
aF5e-06
aF5e-06
aF5e-06
aF5e-06
aF5e-06
aF5e-06
aF5e-06
aF5e-06
aF5e-06
aF5e-06
aF5e-06
aF5e-06
aF5e-06
aF5e-06
aF5e-06
aF5e-06
aF5e-06
aF5e-06
aF5e-06
aF5e-06
aF5e-06
aF5e-06
aF5e-06
aF5e-06
aF5e-06
aF5e-06
aF5e-06
aF5e-06
aF5e-06
aF5e-06
aF5e-06
aF5e-06
aF5e-06
aF5e-06
aF5e-06
aF5e-06
aF5e-06
aF5e-06
aF5e-06
aF5e-06
aF5e-06
aF5e-06
aF5e-06
aF5e-06
aF5e-06
aF5e-06
aF5e-06
aF5e-06
aF5e-06
aF5e-06
aF5e-06
aF5e-06
aF5e-06
aF5e-06
aF5e-06
aF5e-06
aF5e-06
aF5e-06
aF5e-06
aF5e-06
aF5e-06
aF5e-06
aF5e-06
aF5e-06
aF5e-06
aF5e-06
aF5e-06
aF5e-06
aF5e-06
aF5e-06
aF5e-06
aF5e-06
aF5e-06
aF5e-06
aF5e-06
aF5e-06
aF5e-06
aF5e-06
aF5e-06
aF5e-06
aF5e-06
aF5e-06
aF5e-06
aF5e-06
aF5e-06
aF5e-06
aF5e-06
aF5e-06
aF5e-06
aF5e-06
aF5e-06
aF5e-06
aF5e-06
aF5e-06
aF5e-06
aF5e-06
aF5e-06
aF5e-06
aF5e-06
aF5e-06
aF5e-06
aF5e-06
aF5e-06
aF5e-06
aF5e-06
aF5e-06
aF5e-06
aF5e-06
aF5e-06
aF5e-06
aF5e-06
aF5e-06
aF5e-06
aF5e-06
aF5e-06
aF5e-06
aF5e-06
aF5e-06
aF5e-06
aF5e-06
aF5e-06
aF5e-06
aF5e-06
aF5e-06
aF5e-06
aF5e-06
aF5e-06
aF5e-06
aF5e-06
aF5e-06
aF5e-06
aF5e-06
aF5e-06
aF5e-06
aF5e-06
aF5e-06
aF5e-06
aF5e-06
aF5e-06
aF5e-06
aF5e-06
aF5e-06
aF5e-06
aF5e-06
aF5e-06
aF5e-06
aF5e-06
aF5e-06
aF5e-06
aF5e-06
aF5e-06
aF5e-06
aF5e-06
aF5e-06
aF5e-06
aF5e-06
aF5e-06
aF5e-06
aF5e-06
aF5e-06
aF5e-06
aF5e-06
aF5e-06
aF5e-06
aF5e-06
aF5e-06
aF5e-06
aF5e-06
aF5e-06
aF5e-06
aF5e-06
aF5e-06
aF5e-06
aF5e-06
aF5e-06
aF5e-06
aF5e-06
aF5e-06
aF5e-06
aF5e-06
aF5e-06
aF5e-06
aF5e-06
aF5e-06
aF5e-06
aF5e-06
aF5e-06
aF5e-06
aF5e-06
aF5e-06
aF5e-06
aF5e-06
aF5e-06
aF5e-06
aF5e-06
aF5e-06
aF5e-06
aF5e-06
aF5e-06
aF5e-06
aF5e-06
aF5e-06
aF5e-06
aF5e-06
aF5e-06
aF5e-06
aF5e-06
aF5e-06
aF5e-06
aF5e-06
aF5e-06
aF5e-06
aF5e-06
aF5e-06
aF5e-06
aF5e-06
aF5e-06
aF5e-06
aF5e-06
aF5e-06
aF5e-06
aF5e-06
aF5e-06
aF5e-06
aF5e-06
aF5e-06
aF5e-06
aF5e-06
aF5e-06
aF5e-06
aF5e-06
aF5e-06
aF5e-06
aF5e-06
aF5e-06
aF5e-06
aF5e-06
aF5e-06
aF5e-06
aF5e-06
aF5e-06
aF5e-06
aF5e-06
aF5e-06
aF5e-06
aF5e-06
aF5e-06
aF5e-06
aF5e-06
aF5e-06
aF5e-06
aF5e-06
aF5e-06
aF5e-06
aF5e-06
aF5e-06
aF5e-06
aF5e-06
aF5e-06
aF5e-06
aF5e-06
aF5e-06
aF5e-06
aF5e-06
aF5e-06
aF5e-06
aF5e-06
aF5e-06
aF5e-06
aF5e-06
aF5e-06
aF5e-06
aF5e-06
aF5e-06
aF5e-06
aF5e-06
aF5e-06
aF5e-06
aF5e-06
aF5e-06
aF5e-06
aF5e-06
aF5e-06
aF5e-06
aF5e-06
aF5e-06
aF5e-06
aF5e-06
aF5e-06
aF5e-06
aF5e-06
aF5e-06
aF5e-06
aF5e-06
aF5e-06
aF5e-06
aF5e-06
aF5e-06
aF5e-06
aF5e-06
aF5e-06
aF5e-06
aF5e-06
aF5e-06
aF5e-06
aF5e-06
aF5e-06
aF5e-06
aF5e-06
aF5e-06
aF5e-06
aF5e-06
aF5e-06
aF5e-06
aF5e-06
aF5e-06
aF5e-06
aF5e-06
aF5e-06
aF5e-06
aF5e-06
aF5e-06
aF5e-06
aF5e-06
aF5e-06
aF5e-06
aF5e-06
aF5e-06
aF5e-06
aF5e-06
aF5e-06
aF5e-06
aF5e-06
aF5e-06
aF5e-06
aF5e-06
aF5e-06
aF5e-06
aF5e-06
aF5e-06
aF5e-06
aF5e-06
aF5e-06
aF5e-06
aF5e-06
aF5e-06
aF5e-06
aF5e-06
aF5e-06
aF5e-06
aF5e-06
aF5e-06
aF5e-06
aF5e-06
aF5e-06
aF5e-06
aF5e-06
aF5e-06
aF5e-06
aF5e-06
aF5e-06
aF5e-06
aF5e-06
aF5e-06
aF5e-06
aF5e-06
aF5e-06
aF5e-06
aF5e-06
aF5e-06
aF5e-06
aF5e-06
aF5e-06
aF5e-06
aF5e-06
aF5e-06
aF5e-06
aF5e-06
aF5e-06
aF5e-06
aF5e-06
aF5e-06
aF5e-06
aF5e-06
aF5e-06
aF5e-06
aF5e-06
aF5e-06
aF5e-06
aF5e-06
aF5e-06
aF5e-06
aF5e-06
aF5e-06
aF5e-06
aF5e-06
aF5e-06
aF5e-06
aF5e-06
aF5e-06
aF5e-06
aF5e-06
aF5e-06
aF5e-06
aF5e-06
aF5e-06
aF5e-06
aF5e-06
aF5e-06
aF5e-06
aF5e-06
aF5e-06
aF5e-06
aF5e-06
aF5e-06
aF5e-06
aF5e-06
aF5e-06
aF5e-06
aF5e-06
aF5e-06
aF5e-06
aF5e-06
aF5e-06
aF5e-06
aF5e-06
aF5e-06
aF5e-06
aF5e-06
aF5e-06
aF5e-06
aF5e-06
aF5e-06
aF5e-06
aF5e-06
aF5e-06
aF5e-06
aF5e-06
aF5e-06
aF5e-06
aF5e-06
aF5e-06
aF5e-06
aF5e-06
aF5e-06
aF5e-06
aF5e-06
aF5e-06
aF5e-06
aF5e-06
aF5e-06
aF5e-06
aF5e-06
aF5e-06
aF5e-06
aF5e-06
aF5e-06
aF5e-06
aF5e-06
aF5e-06
aF5e-06
aF5e-06
aF5e-06
aF5e-06
aF5e-06
aF5e-06
aF5e-06
aF5e-06
aF5e-06
aF5e-06
aF5e-06
aF5e-06
aF5e-06
aF5e-06
aF5e-06
aF5e-06
aF5e-06
aF5e-06
aF5e-06
aF5e-06
aF5e-06
aF5e-06
aF5e-06
aF5e-06
aF5e-06
aF5e-06
aF5e-06
aF5e-06
aF5e-06
aF5e-06
aF5e-06
aF5e-06
aF5e-06
aF5e-06
aF5e-06
aF5e-06
aF5e-06
aF5e-06
aF5e-06
aF5e-06
aF5e-06
aF5e-06
aF5e-06
aF5e-06
aF5e-06
aF5e-06
aF5e-06
aF5e-06
aF5e-06
aF5e-06
aF5e-06
aF5e-06
aF5e-06
aF5e-06
aF5e-06
aF5e-06
aF5e-06
aF5e-06
aF5e-06
aF5e-06
aF5e-06
aF5e-06
aF5e-06
aF5e-06
aF5e-06
aF5e-06
aF5e-06
aF5e-06
aF5e-06
aF5e-06
aF5e-06
aF5e-06
aF5e-06
aF5e-06
aF5e-06
aF5e-06
aF5e-06
aF5e-06
aF5e-06
aF5e-06
aF5e-06
aF5e-06
aF5e-06
aF5e-06
aF5e-06
aF5e-06
aF5e-06
aF5e-06
aF5e-06
aF5e-06
aF5e-06
aF5e-06
aF5e-06
aF5e-06
aF5e-06
aF5e-06
aF5e-06
aF5e-06
aF5e-06
aF5e-06
aF5e-06
aF5e-06
aF5e-06
aF5e-06
aF5e-06
aF5e-06
aF5e-06
aF5e-06
aF5e-06
aF5e-06
aF5e-06
aF5e-06
aF5e-06
aF5e-06
aF5e-06
aF5e-06
aF5e-06
aF5e-06
aF5e-06
aF5e-06
aF5e-06
aF5e-06
aF5e-06
aF5e-06
aF5e-06
aF5e-06
aF5e-06
aF5e-06
aF5e-06
aF5e-06
aF5e-06
aF5e-06
aF5e-06
aF5e-06
aF5e-06
aF5e-06
aF5e-06
aF5e-06
aF5e-06
aF5e-06
aF5e-06
aF5e-06
aF5e-06
aF5e-06
aF5e-06
aF5e-06
aF5e-06
aF5e-06
aF5e-06
aF5e-06
aF5e-06
aF5e-06
aF5e-06
aF5e-06
aF5e-06
aF5e-06
aF5e-06
aF5e-06
aF5e-06
aF5e-06
aF5e-06
aF5e-06
aF5e-06
aF5e-06
aF5e-06
aF5e-06
aF5e-06
aF5e-06
aF5e-06
aF5e-06
aF5e-06
aF5e-06
aF5e-06
aF5e-06
aF5e-06
aF5e-06
aF5e-06
aF5e-06
aF5e-06
aF5e-06
aF5e-06
aF5e-06
aF5e-06
aF5e-06
aF5e-06
aF5e-06
aF5e-06
aF5e-06
aF5e-06
aF5e-06
aF5e-06
aF5e-06
aF5e-06
aF5e-06
aF5e-06
aF5e-06
aF5e-06
aF5e-06
aF5e-06
aF5e-06
aF5e-06
aF5e-06
aF5e-06
aF5e-06
aF5e-06
aF5e-06
aF5e-06
aF5e-06
aF5e-06
aF5e-06
aF5e-06
aF5e-06
aF5e-06
aF5e-06
aF5e-06
aF5e-06
aF5e-06
aF5e-06
aF5e-06
aF5e-06
aF5e-06
aF5e-06
aF5e-06
aF5e-06
aF5e-06
aF5e-06
aF5e-06
aF5e-06
aF5e-06
aF5e-06
aF5e-06
aF5e-06
aF5e-06
aF5e-06
aF5e-06
aF5e-06
aF5e-06
aF5e-06
aF5e-06
aF5e-06
aF5e-06
aF5e-06
aF5e-06
aF5e-06
aF5e-06
aF5e-06
aF5e-06
aF5e-06
aF5e-06
aF5e-06
aF5e-06
aF5e-06
aF5e-06
aF5e-06
aF5e-06
aF5e-06
aF5e-06
aF5e-06
aF5e-06
aF5e-06
aF5e-06
aF5e-06
aF5e-06
aF5e-06
aF5e-06
aF5e-06
aF5e-06
aF5e-06
aF5e-06
aF5e-06
aF5e-06
aF5e-06
aF5e-06
aF5e-06
aF5e-06
aF5e-06
aF5e-06
aF5e-06
aF5e-06
aF5e-06
aF5e-06
aF5e-06
aF5e-06
aF5e-06
aF5e-06
aF5e-06
aF5e-06
aF5e-06
aF5e-06
aF5e-06
aF5e-06
aF5e-06
aF5e-06
aF5e-06
aF5e-06
aF5e-06
aF5e-06
aF5e-06
aF5e-06
aF5e-06
aF5e-06
aF5e-06
aF5e-06
aF5e-06
aF5e-06
aF5e-06
aF5e-06
aF5e-06
aF5e-06
aF5e-06
aF5e-06
aF5e-06
aF5e-06
aF5e-06
aF5e-06
aF5e-06
aF5e-06
aF5e-06
aF5e-06
aF5e-06
aF5e-06
aF5e-06
aF5e-06
aF5e-06
aF5e-06
aF5e-06
aF5e-06
aF5e-06
aF5e-06
aF5e-06
aF5e-06
aF5e-06
aF5e-06
aF5e-06
aF5e-06
aF5e-06
aF5e-06
aF5e-06
aF5e-06
aF5e-06
aF5e-06
aF5e-06
aF5e-06
aF5e-06
aF5e-06
aF5e-06
aF5e-06
aF5e-06
aF5e-06
aF5e-06
aF5e-06
aF5e-06
aF5e-06
aF5e-06
aF5e-06
aF5e-06
aF5e-06
aF5e-06
aF5e-06
aF5e-06
aF5e-06
aF5e-06
aF5e-06
aF5e-06
aF5e-06
aF5e-06
aF5e-06
aF5e-06
aF5e-06
aF5e-06
aF5e-06
aF5e-06
aF5e-06
aF5e-06
aF5e-06
aF5e-06
aF5e-06
aF5e-06
aF5e-06
aF5e-06
aF5e-06
aF5e-06
aF5e-06
aF5e-06
aF5e-06
aF5e-06
aF5e-06
aF5e-06
aF5e-06
aF5e-06
aF5e-06
aF5e-06
aF5e-06
aF5e-06
aF5e-06
aF5e-06
aF5e-06
aF5e-06
aF5e-06
aF5e-06
aF5e-06
aF5e-06
aF5e-06
aF5e-06
aF5e-06
aF5e-06
aF5e-06
aF5e-06
aF5e-06
aF5e-06
aF5e-06
aF5e-06
aF5e-06
aF5e-06
aF5e-06
aF5e-06
aF5e-06
aF5e-06
aF5e-06
aF5e-06
aF5e-06
aF5e-06
aF5e-06
aF5e-06
aF5e-06
aF5e-06
aF5e-06
aF5e-06
aF5e-06
aF5e-06
aF5e-06
aF5e-06
aF5e-06
aF5e-06
aF5e-06
aF5e-06
aF5e-06
aF5e-06
aF5e-06
aF5e-06
aF5e-06
aF5e-06
aF5e-06
aF5e-06
aF5e-06
aF5e-06
aF5e-06
aF5e-06
aF5e-06
aF5e-06
aF5e-06
aF5e-06
aF5e-06
aF5e-06
aF5e-06
aF5e-06
aF5e-06
aF5e-06
aF5e-06
aF5e-06
aF5e-06
aF5e-06
aF5e-06
aF5e-06
aF5e-06
aF5e-06
aF5e-06
aF5e-06
aF5e-06
aF5e-06
aF5e-06
aF5e-06
aF5e-06
aF5e-06
aF5e-06
aF5e-06
aF5e-06
aF5e-06
aF5e-06
aF5e-06
aF5e-06
aF5e-06
aF5e-06
aF5e-06
aF5e-06
aF5e-06
aF5e-06
aF5e-06
aF5e-06
aF5e-06
aF5e-06
aF5e-06
aF5e-06
aF5e-06
aF5e-06
aF5e-06
aF5e-06
aF5e-06
aF5e-06
aF5e-06
aF5e-06
aF5e-06
aF5e-06
aF5e-06
aF5e-06
aF5e-06
aF5e-06
aF5e-06
aF5e-06
aF5e-06
aF5e-06
aF5e-06
aF5e-06
aF5e-06
aF5e-06
aF5e-06
aF5e-06
aF5e-06
aF5e-06
aF5e-06
aF5e-06
aF5e-06
aF5e-06
aF5e-06
aF5e-06
aF5e-06
aF5e-06
aF5e-06
aF5e-06
aF5e-06
aF5e-06
aF5e-06
aF5e-06
aF5e-06
aF5e-06
aF5e-06
aF5e-06
aF5e-06
aF5e-06
aF5e-06
aF5e-06
aF5e-06
aF5e-06
aF5e-06
aF5e-06
aF5e-06
aF5e-06
aF5e-06
aF5e-06
aF5e-06
aF5e-06
aF5e-06
aF5e-06
aF5e-06
aF5e-06
aF5e-06
aF5e-06
aF5e-06
aF5e-06
aF5e-06
aF5e-06
aF5e-06
aF5e-06
aF5e-06
aF5e-06
aF5e-06
aF5e-06
aF5e-06
aF5e-06
aF5e-06
aF5e-06
aF5e-06
aF5e-06
aF5e-06
aF5e-06
aF5e-06
aF5e-06
aF5e-06
aF5e-06
aF5e-06
aF5e-06
aF5e-06
aF5e-06
aF5e-06
aF5e-06
aF5e-06
aF5e-06
aF5e-06
aF5e-06
aF5e-06
aF5e-06
aF5e-06
aF5e-06
aF5e-06
aF5e-06
aF5e-06
aF5e-06
aF5e-06
aF5e-06
aF5e-06
aF5e-06
aF5e-06
aF5e-06
aF5e-06
aF5e-06
aF5e-06
aF5e-06
aF5e-06
aF5e-06
aF5e-06
aF5e-06
aF5e-06
aF5e-06
aF5e-06
aF5e-06
aF5e-06
aF5e-06
aF5e-06
aF5e-06
aF5e-06
aF5e-06
aF5e-06
aF5e-06
aF5e-06
aF5e-06
aF5e-06
aF5e-06
aF5e-06
aF5e-06
aF5e-06
aF5e-06
aF5e-06
aF5e-06
aF5e-06
aF5e-06
aF5e-06
aF5e-06
aF5e-06
aF5e-06
aF5e-06
aF5e-06
aF5e-06
aF5e-06
a.