(lp0
S'success.txt'
p1
aS'fridge'
p2
aS'nationalnews'
p3
aS'cheese'
p4
aS'favicon.ico'
p5
aS'success.txt'
p6
aS'fridge'
p7
aS'nationalnews'
p8
aS'cheese'
p9
aS'favicon.ico'
p10
aS'css/mojo.css?1'
p11
aS'Serving/adServer.bs?c=28&cn=display&pli=1073982656&w=728&h=90&ord=1521564493&z=0'
p12
aS'resources/sites/default/files/css/css_sSAe9sKteLQpXhdusjdSLXOzkfT5idajD-Lm1ejLyi4.css'
p13
aS'resources/sites/default/files/css/css_n4vMozhmpR69S-a4-LJzAGxDpdLR8G6xVUt9Gg-S2RE.css'
p14
aS'resources/sites/default/files/css/css_jSaH4HxV6a1gvgqB0v73hTivCXfrFlhS70RLVxVWB5Q.css'
p15
aS'success.txt'
p16
aS'fridge'
p17
aS'nationalnews'
p18
aS'cheese'
p19
aS'favicon.ico'
p20
aS'css/mojo.css?1'
p21
aS'Serving/adServer.bs?c=28&cn=display&pli=1073982656&w=728&h=90&ord=1521564493&z=0'
p22
aS'resources/sites/default/files/css/css_sSAe9sKteLQpXhdusjdSLXOzkfT5idajD-Lm1ejLyi4.css'
p23
aS'resources/sites/default/files/css/css_n4vMozhmpR69S-a4-LJzAGxDpdLR8G6xVUt9Gg-S2RE.css'
p24
aS'resources/sites/default/files/css/css_jSaH4HxV6a1gvgqB0v73hTivCXfrFlhS70RLVxVWB5Q.css'
p25
aS'resources///PROD/asset/111249/IMAGE/20180316/YouNeverHere_Pro_728x90_End_35621175976533778.jpg'
p26
aS'beacon.js'
p27
aS'css/style.css'
p28
aS'css?family=Open+Sans:400italic,400,300,600'
p29
aS'resources/sites/all/themes/custom/strawmandev/images/site-top-gradient-newsbank.png'
p30
aS'success.txt'
p31
aS'fridge'
p32
aS'nationalnews'
p33
aS'cheese'
p34
aS'favicon.ico'
p35
aS'css/mojo.css?1'
p36
aS'Serving/adServer.bs?c=28&cn=display&pli=1073982656&w=728&h=90&ord=1521564493&z=0'
p37
aS'resources/sites/default/files/css/css_sSAe9sKteLQpXhdusjdSLXOzkfT5idajD-Lm1ejLyi4.css'
p38
aS'resources/sites/default/files/css/css_n4vMozhmpR69S-a4-LJzAGxDpdLR8G6xVUt9Gg-S2RE.css'
p39
aS'resources/sites/default/files/css/css_jSaH4HxV6a1gvgqB0v73hTivCXfrFlhS70RLVxVWB5Q.css'
p40
aS'resources///PROD/asset/111249/IMAGE/20180316/YouNeverHere_Pro_728x90_End_35621175976533778.jpg'
p41
aS'beacon.js'
p42
aS'css/style.css'
p43
aS'css?family=Open+Sans:400italic,400,300,600'
p44
aS'resources/sites/all/themes/custom/strawmandev/images/site-top-gradient-newsbank.png'
p45
aS'b?c1=2&c2=6034961&ns__t=1521564452290&ns_c=windows-1252&cv=3.1&c8=%27Black%20Panther%27%20Remains%20Box%20Office%20King%2C%20Topping%20%241%20Billion%20Worldwide%20-%20Box%20Office%20Mojo&c7=http%3A%2F%2Fwww.boxofficemojo.com%2Fnews%2F%3Fid%3D4378%26p%3D.htm&c9='
p46
aS'images/footerbg.png'
p47
aS'ados?t=1521564455018&request={%22Placements%22:[{%22A%22:4466,%22S%22:33599,%22D%22:%22mvTopBanner%22,%22AT%22:4,%22Z%22:[34894]},{%22A%22:4466,%22S%22:33599,%22D%22:%22mvBottomBanner%22,%22AT%22:4,%22Z%22:[34894]}],%22Keywords%22:%22undefined%22,%22Referrer%22:%22http%3A%2F%2Faipg.org%2Fnationalnews%22,%22IsAsync%22:true}'
p48
aS'weekly/'
p49
aS'quarterly/'
p50
aS'success.txt'
p51
aS'fridge'
p52
aS'nationalnews'
p53
aS'cheese'
p54
aS'favicon.ico'
p55
aS'css/mojo.css?1'
p56
aS'Serving/adServer.bs?c=28&cn=display&pli=1073982656&w=728&h=90&ord=1521564493&z=0'
p57
aS'resources/sites/default/files/css/css_sSAe9sKteLQpXhdusjdSLXOzkfT5idajD-Lm1ejLyi4.css'
p58
aS'resources/sites/default/files/css/css_n4vMozhmpR69S-a4-LJzAGxDpdLR8G6xVUt9Gg-S2RE.css'
p59
aS'resources/sites/default/files/css/css_jSaH4HxV6a1gvgqB0v73hTivCXfrFlhS70RLVxVWB5Q.css'
p60
aS'resources///PROD/asset/111249/IMAGE/20180316/YouNeverHere_Pro_728x90_End_35621175976533778.jpg'
p61
aS'beacon.js'
p62
aS'css/style.css'
p63
aS'css?family=Open+Sans:400italic,400,300,600'
p64
aS'resources/sites/all/themes/custom/strawmandev/images/site-top-gradient-newsbank.png'
p65
aS'b?c1=2&c2=6034961&ns__t=1521564452290&ns_c=windows-1252&cv=3.1&c8=%27Black%20Panther%27%20Remains%20Box%20Office%20King%2C%20Topping%20%241%20Billion%20Worldwide%20-%20Box%20Office%20Mojo&c7=http%3A%2F%2Fwww.boxofficemojo.com%2Fnews%2F%3Fid%3D4378%26p%3D.htm&c9='
p66
aS'images/footerbg.png'
p67
aS'ados?t=1521564455018&request={%22Placements%22:[{%22A%22:4466,%22S%22:33599,%22D%22:%22mvTopBanner%22,%22AT%22:4,%22Z%22:[34894]},{%22A%22:4466,%22S%22:33599,%22D%22:%22mvBottomBanner%22,%22AT%22:4,%22Z%22:[34894]}],%22Keywords%22:%22undefined%22,%22Referrer%22:%22http%3A%2F%2Faipg.org%2Fnationalnews%22,%22IsAsync%22:true}'
p68
aS'weekly/'
p69
aS'quarterly/'
p70
aS'i.gif?e=eyJhdiI6Mjg0MDgsImF0Ijo0LCJidCI6MCwiY20iOjM4OTcxLCJjaCI6MTQyOTUsImNrIjp7fSwiY3IiOjI4NzUyMzAsImRpIjoiMTI1YzYxNTIxNTUzNDE0YWIyNTM0NWM0YzhiYTFjZmUiLCJkaiI6MCwiaWkiOiIwYmJiMGRiYjJlNTc0MzM2YWM3Mzk0ZWJiYjc4MDRhYSIsImRtIjoxLCJmYyI6NDg1OTk3MCwiZmwiOjY1MDE3LCJpcCI6IjkyLjIzMi4xMjYuMTE3IiwibnciOjQ0NjYsInBjIjowLCJlYyI6MCwicHIiOjQ2NTk0LCJydCI6MSwicmYiOiJodHRwOi8vYWlwZy5vcmcvbmF0aW9uYWxuZXdzIiwicnMiOjUwMCwic2EiOiI5Iiwic2IiOiJpLTA1MzU2MjQ4MTYwMmQxZDZiIiwic3AiOjE2MTIzLCJzdCI6MzM1OTksInVrIjoidWUxLTBkZDQ5NmE5ZGQxODRlNjI5ZWIzYjUyZWJlODFjOWUxIiwiem4iOjM0ODk0LCJ0cyI6MTUyMTU2NDQ1NTY1NiwiYmYiOnRydWUsInBuIjoibXZCb3R0b21CYW5uZXIiLCJiYSI6MSwiZnEiOjB9&s=5rs4Tc568iwG2L6DJe4eVuS4YDw'
p71
aS'Serving/adServer.bs?c=28&cn=display&pli=1073982656&w=728&h=90&ord=1521564456&z=0'
p72
aS'iu3?d=boxofficemojo.com&cb=695355168257420'
p73
aS'resources///PROD/asset/111249/IMAGE/20180316/YouNeverHere_Pro_728x90_End_35621175976533778.jpg'
p74
aS'b?c1=2&c2=6034961&ns__t=1521564458116&ns_c=windows-1252&cv=3.1&c8=Weekly%20Box%20Office%20Index%2C%201982-Present%20-%20Box%20Office%20Mojo&c7=http%3A%2F%2Fwww.boxofficemojo.com%2Fweekly%2F&c9=http%3A%2F%2Fwww.boxofficemojo.com%2Fnews%2F%3Fid%3D4378%26p%3D.htm'
p75
aS'success.txt'
p76
aS'fridge'
p77
aS'nationalnews'
p78
aS'cheese'
p79
aS'favicon.ico'
p80
aS'css/mojo.css?1'
p81
aS'Serving/adServer.bs?c=28&cn=display&pli=1073982656&w=728&h=90&ord=1521564493&z=0'
p82
aS'resources/sites/default/files/css/css_sSAe9sKteLQpXhdusjdSLXOzkfT5idajD-Lm1ejLyi4.css'
p83
aS'resources/sites/default/files/css/css_n4vMozhmpR69S-a4-LJzAGxDpdLR8G6xVUt9Gg-S2RE.css'
p84
aS'resources/sites/default/files/css/css_jSaH4HxV6a1gvgqB0v73hTivCXfrFlhS70RLVxVWB5Q.css'
p85
aS'resources///PROD/asset/111249/IMAGE/20180316/YouNeverHere_Pro_728x90_End_35621175976533778.jpg'
p86
aS'beacon.js'
p87
aS'css/style.css'
p88
aS'css?family=Open+Sans:400italic,400,300,600'
p89
aS'resources/sites/all/themes/custom/strawmandev/images/site-top-gradient-newsbank.png'
p90
aS'b?c1=2&c2=6034961&ns__t=1521564452290&ns_c=windows-1252&cv=3.1&c8=%27Black%20Panther%27%20Remains%20Box%20Office%20King%2C%20Topping%20%241%20Billion%20Worldwide%20-%20Box%20Office%20Mojo&c7=http%3A%2F%2Fwww.boxofficemojo.com%2Fnews%2F%3Fid%3D4378%26p%3D.htm&c9='
p91
aS'images/footerbg.png'
p92
aS'ados?t=1521564455018&request={%22Placements%22:[{%22A%22:4466,%22S%22:33599,%22D%22:%22mvTopBanner%22,%22AT%22:4,%22Z%22:[34894]},{%22A%22:4466,%22S%22:33599,%22D%22:%22mvBottomBanner%22,%22AT%22:4,%22Z%22:[34894]}],%22Keywords%22:%22undefined%22,%22Referrer%22:%22http%3A%2F%2Faipg.org%2Fnationalnews%22,%22IsAsync%22:true}'
p93
aS'weekly/'
p94
aS'quarterly/'
p95
aS'i.gif?e=eyJhdiI6Mjg0MDgsImF0Ijo0LCJidCI6MCwiY20iOjM4OTcxLCJjaCI6MTQyOTUsImNrIjp7fSwiY3IiOjI4NzUyMzAsImRpIjoiMTI1YzYxNTIxNTUzNDE0YWIyNTM0NWM0YzhiYTFjZmUiLCJkaiI6MCwiaWkiOiIwYmJiMGRiYjJlNTc0MzM2YWM3Mzk0ZWJiYjc4MDRhYSIsImRtIjoxLCJmYyI6NDg1OTk3MCwiZmwiOjY1MDE3LCJpcCI6IjkyLjIzMi4xMjYuMTE3IiwibnciOjQ0NjYsInBjIjowLCJlYyI6MCwicHIiOjQ2NTk0LCJydCI6MSwicmYiOiJodHRwOi8vYWlwZy5vcmcvbmF0aW9uYWxuZXdzIiwicnMiOjUwMCwic2EiOiI5Iiwic2IiOiJpLTA1MzU2MjQ4MTYwMmQxZDZiIiwic3AiOjE2MTIzLCJzdCI6MzM1OTksInVrIjoidWUxLTBkZDQ5NmE5ZGQxODRlNjI5ZWIzYjUyZWJlODFjOWUxIiwiem4iOjM0ODk0LCJ0cyI6MTUyMTU2NDQ1NTY1NiwiYmYiOnRydWUsInBuIjoibXZCb3R0b21CYW5uZXIiLCJiYSI6MSwiZnEiOjB9&s=5rs4Tc568iwG2L6DJe4eVuS4YDw'
p96
aS'Serving/adServer.bs?c=28&cn=display&pli=1073982656&w=728&h=90&ord=1521564456&z=0'
p97
aS'iu3?d=boxofficemojo.com&cb=695355168257420'
p98
aS'resources///PROD/asset/111249/IMAGE/20180316/YouNeverHere_Pro_728x90_End_35621175976533778.jpg'
p99
aS'b?c1=2&c2=6034961&ns__t=1521564458116&ns_c=windows-1252&cv=3.1&c8=Weekly%20Box%20Office%20Index%2C%201982-Present%20-%20Box%20Office%20Mojo&c7=http%3A%2F%2Fwww.boxofficemojo.com%2Fweekly%2F&c9=http%3A%2F%2Fwww.boxofficemojo.com%2Fnews%2F%3Fid%3D4378%26p%3D.htm'
p100
aS'b?c1=2&c2=6034961&ns__t=1521564458740&ns_c=windows-1252&cv=3.1&c8=Box%20Office%20Results%20by%20Quarter&c7=http%3A%2F%2Fwww.boxofficemojo.com%2Fquarterly%2F&c9=http%3A%2F%2Fwww.boxofficemojo.com%2Fnews%2F%3Fid%3D4378%26p%3D.htm'
p101
aS'about'
p102
aS'favicon.ico'
p103
aS'iu3?d=boxofficemojo.com&cb=508068813793066.7'
p104
aS'sites/default/files/css/css_lQaZfjVpwP_oGNqdtWCSpJT1EMqXdMiU84ekLLxQnc4.css'
p105
aS'success.txt'
p106
aS'fridge'
p107
aS'nationalnews'
p108
aS'cheese'
p109
aS'favicon.ico'
p110
aS'css/mojo.css?1'
p111
aS'Serving/adServer.bs?c=28&cn=display&pli=1073982656&w=728&h=90&ord=1521564493&z=0'
p112
aS'resources/sites/default/files/css/css_sSAe9sKteLQpXhdusjdSLXOzkfT5idajD-Lm1ejLyi4.css'
p113
aS'resources/sites/default/files/css/css_n4vMozhmpR69S-a4-LJzAGxDpdLR8G6xVUt9Gg-S2RE.css'
p114
aS'resources/sites/default/files/css/css_jSaH4HxV6a1gvgqB0v73hTivCXfrFlhS70RLVxVWB5Q.css'
p115
aS'resources///PROD/asset/111249/IMAGE/20180316/YouNeverHere_Pro_728x90_End_35621175976533778.jpg'
p116
aS'beacon.js'
p117
aS'css/style.css'
p118
aS'css?family=Open+Sans:400italic,400,300,600'
p119
aS'resources/sites/all/themes/custom/strawmandev/images/site-top-gradient-newsbank.png'
p120
aS'b?c1=2&c2=6034961&ns__t=1521564452290&ns_c=windows-1252&cv=3.1&c8=%27Black%20Panther%27%20Remains%20Box%20Office%20King%2C%20Topping%20%241%20Billion%20Worldwide%20-%20Box%20Office%20Mojo&c7=http%3A%2F%2Fwww.boxofficemojo.com%2Fnews%2F%3Fid%3D4378%26p%3D.htm&c9='
p121
aS'images/footerbg.png'
p122
aS'ados?t=1521564455018&request={%22Placements%22:[{%22A%22:4466,%22S%22:33599,%22D%22:%22mvTopBanner%22,%22AT%22:4,%22Z%22:[34894]},{%22A%22:4466,%22S%22:33599,%22D%22:%22mvBottomBanner%22,%22AT%22:4,%22Z%22:[34894]}],%22Keywords%22:%22undefined%22,%22Referrer%22:%22http%3A%2F%2Faipg.org%2Fnationalnews%22,%22IsAsync%22:true}'
p123
aS'weekly/'
p124
aS'quarterly/'
p125
aS'i.gif?e=eyJhdiI6Mjg0MDgsImF0Ijo0LCJidCI6MCwiY20iOjM4OTcxLCJjaCI6MTQyOTUsImNrIjp7fSwiY3IiOjI4NzUyMzAsImRpIjoiMTI1YzYxNTIxNTUzNDE0YWIyNTM0NWM0YzhiYTFjZmUiLCJkaiI6MCwiaWkiOiIwYmJiMGRiYjJlNTc0MzM2YWM3Mzk0ZWJiYjc4MDRhYSIsImRtIjoxLCJmYyI6NDg1OTk3MCwiZmwiOjY1MDE3LCJpcCI6IjkyLjIzMi4xMjYuMTE3IiwibnciOjQ0NjYsInBjIjowLCJlYyI6MCwicHIiOjQ2NTk0LCJydCI6MSwicmYiOiJodHRwOi8vYWlwZy5vcmcvbmF0aW9uYWxuZXdzIiwicnMiOjUwMCwic2EiOiI5Iiwic2IiOiJpLTA1MzU2MjQ4MTYwMmQxZDZiIiwic3AiOjE2MTIzLCJzdCI6MzM1OTksInVrIjoidWUxLTBkZDQ5NmE5ZGQxODRlNjI5ZWIzYjUyZWJlODFjOWUxIiwiem4iOjM0ODk0LCJ0cyI6MTUyMTU2NDQ1NTY1NiwiYmYiOnRydWUsInBuIjoibXZCb3R0b21CYW5uZXIiLCJiYSI6MSwiZnEiOjB9&s=5rs4Tc568iwG2L6DJe4eVuS4YDw'
p126
aS'Serving/adServer.bs?c=28&cn=display&pli=1073982656&w=728&h=90&ord=1521564456&z=0'
p127
aS'iu3?d=boxofficemojo.com&cb=695355168257420'
p128
aS'resources///PROD/asset/111249/IMAGE/20180316/YouNeverHere_Pro_728x90_End_35621175976533778.jpg'
p129
aS'b?c1=2&c2=6034961&ns__t=1521564458116&ns_c=windows-1252&cv=3.1&c8=Weekly%20Box%20Office%20Index%2C%201982-Present%20-%20Box%20Office%20Mojo&c7=http%3A%2F%2Fwww.boxofficemojo.com%2Fweekly%2F&c9=http%3A%2F%2Fwww.boxofficemojo.com%2Fnews%2F%3Fid%3D4378%26p%3D.htm'
p130
aS'b?c1=2&c2=6034961&ns__t=1521564458740&ns_c=windows-1252&cv=3.1&c8=Box%20Office%20Results%20by%20Quarter&c7=http%3A%2F%2Fwww.boxofficemojo.com%2Fquarterly%2F&c9=http%3A%2F%2Fwww.boxofficemojo.com%2Fnews%2F%3Fid%3D4378%26p%3D.htm'
p131
aS'about'
p132
aS'favicon.ico'
p133
aS'iu3?d=boxofficemojo.com&cb=508068813793066.7'
p134
aS'sites/default/files/css/css_lQaZfjVpwP_oGNqdtWCSpJT1EMqXdMiU84ekLLxQnc4.css'
p135
aS'disciplinaryactions'
p136
aS'aipgnews'
p137
aS'css/style.css'
p138
aS'ados?t=1521564465312&request={%22Placements%22:[{%22A%22:4466,%22S%22:33599,%22D%22:%22mvTopBanner%22,%22AT%22:4,%22Z%22:[34894]},{%22A%22:4466,%22S%22:33599,%22D%22:%22mvBottomBanner%22,%22AT%22:4,%22Z%22:[34894]}],%22Keywords%22:%22undefined%22,%22Referrer%22:%22%22,%22IsAsync%22:true}'
p139
aS'ados?t=1521564466400&request={%22Placements%22:[{%22A%22:4466,%22S%22:33599,%22D%22:%22mvTopBanner%22,%22AT%22:4,%22Z%22:[34894]},{%22A%22:4466,%22S%22:33599,%22D%22:%22mvBottomBanner%22,%22AT%22:4,%22Z%22:[34894]}],%22Keywords%22:%22undefined%22,%22Referrer%22:%22%22,%22IsAsync%22:true}'
p140
aS'success.txt'
p141
aS'fridge'
p142
aS'nationalnews'
p143
aS'cheese'
p144
aS'favicon.ico'
p145
aS'css/mojo.css?1'
p146
aS'Serving/adServer.bs?c=28&cn=display&pli=1073982656&w=728&h=90&ord=1521564493&z=0'
p147
aS'resources/sites/default/files/css/css_sSAe9sKteLQpXhdusjdSLXOzkfT5idajD-Lm1ejLyi4.css'
p148
aS'resources/sites/default/files/css/css_n4vMozhmpR69S-a4-LJzAGxDpdLR8G6xVUt9Gg-S2RE.css'
p149
aS'resources/sites/default/files/css/css_jSaH4HxV6a1gvgqB0v73hTivCXfrFlhS70RLVxVWB5Q.css'
p150
aS'resources///PROD/asset/111249/IMAGE/20180316/YouNeverHere_Pro_728x90_End_35621175976533778.jpg'
p151
aS'beacon.js'
p152
aS'css/style.css'
p153
aS'css?family=Open+Sans:400italic,400,300,600'
p154
aS'resources/sites/all/themes/custom/strawmandev/images/site-top-gradient-newsbank.png'
p155
aS'b?c1=2&c2=6034961&ns__t=1521564452290&ns_c=windows-1252&cv=3.1&c8=%27Black%20Panther%27%20Remains%20Box%20Office%20King%2C%20Topping%20%241%20Billion%20Worldwide%20-%20Box%20Office%20Mojo&c7=http%3A%2F%2Fwww.boxofficemojo.com%2Fnews%2F%3Fid%3D4378%26p%3D.htm&c9='
p156
aS'images/footerbg.png'
p157
aS'ados?t=1521564455018&request={%22Placements%22:[{%22A%22:4466,%22S%22:33599,%22D%22:%22mvTopBanner%22,%22AT%22:4,%22Z%22:[34894]},{%22A%22:4466,%22S%22:33599,%22D%22:%22mvBottomBanner%22,%22AT%22:4,%22Z%22:[34894]}],%22Keywords%22:%22undefined%22,%22Referrer%22:%22http%3A%2F%2Faipg.org%2Fnationalnews%22,%22IsAsync%22:true}'
p158
aS'weekly/'
p159
aS'quarterly/'
p160
aS'i.gif?e=eyJhdiI6Mjg0MDgsImF0Ijo0LCJidCI6MCwiY20iOjM4OTcxLCJjaCI6MTQyOTUsImNrIjp7fSwiY3IiOjI4NzUyMzAsImRpIjoiMTI1YzYxNTIxNTUzNDE0YWIyNTM0NWM0YzhiYTFjZmUiLCJkaiI6MCwiaWkiOiIwYmJiMGRiYjJlNTc0MzM2YWM3Mzk0ZWJiYjc4MDRhYSIsImRtIjoxLCJmYyI6NDg1OTk3MCwiZmwiOjY1MDE3LCJpcCI6IjkyLjIzMi4xMjYuMTE3IiwibnciOjQ0NjYsInBjIjowLCJlYyI6MCwicHIiOjQ2NTk0LCJydCI6MSwicmYiOiJodHRwOi8vYWlwZy5vcmcvbmF0aW9uYWxuZXdzIiwicnMiOjUwMCwic2EiOiI5Iiwic2IiOiJpLTA1MzU2MjQ4MTYwMmQxZDZiIiwic3AiOjE2MTIzLCJzdCI6MzM1OTksInVrIjoidWUxLTBkZDQ5NmE5ZGQxODRlNjI5ZWIzYjUyZWJlODFjOWUxIiwiem4iOjM0ODk0LCJ0cyI6MTUyMTU2NDQ1NTY1NiwiYmYiOnRydWUsInBuIjoibXZCb3R0b21CYW5uZXIiLCJiYSI6MSwiZnEiOjB9&s=5rs4Tc568iwG2L6DJe4eVuS4YDw'
p161
aS'Serving/adServer.bs?c=28&cn=display&pli=1073982656&w=728&h=90&ord=1521564456&z=0'
p162
aS'iu3?d=boxofficemojo.com&cb=695355168257420'
p163
aS'resources///PROD/asset/111249/IMAGE/20180316/YouNeverHere_Pro_728x90_End_35621175976533778.jpg'
p164
aS'b?c1=2&c2=6034961&ns__t=1521564458116&ns_c=windows-1252&cv=3.1&c8=Weekly%20Box%20Office%20Index%2C%201982-Present%20-%20Box%20Office%20Mojo&c7=http%3A%2F%2Fwww.boxofficemojo.com%2Fweekly%2F&c9=http%3A%2F%2Fwww.boxofficemojo.com%2Fnews%2F%3Fid%3D4378%26p%3D.htm'
p165
aS'b?c1=2&c2=6034961&ns__t=1521564458740&ns_c=windows-1252&cv=3.1&c8=Box%20Office%20Results%20by%20Quarter&c7=http%3A%2F%2Fwww.boxofficemojo.com%2Fquarterly%2F&c9=http%3A%2F%2Fwww.boxofficemojo.com%2Fnews%2F%3Fid%3D4378%26p%3D.htm'
p166
aS'about'
p167
aS'favicon.ico'
p168
aS'iu3?d=boxofficemojo.com&cb=508068813793066.7'
p169
aS'sites/default/files/css/css_lQaZfjVpwP_oGNqdtWCSpJT1EMqXdMiU84ekLLxQnc4.css'
p170
aS'disciplinaryactions'
p171
aS'aipgnews'
p172
aS'css/style.css'
p173
aS'ados?t=1521564465312&request={%22Placements%22:[{%22A%22:4466,%22S%22:33599,%22D%22:%22mvTopBanner%22,%22AT%22:4,%22Z%22:[34894]},{%22A%22:4466,%22S%22:33599,%22D%22:%22mvBottomBanner%22,%22AT%22:4,%22Z%22:[34894]}],%22Keywords%22:%22undefined%22,%22Referrer%22:%22%22,%22IsAsync%22:true}'
p174
aS'ados?t=1521564466400&request={%22Placements%22:[{%22A%22:4466,%22S%22:33599,%22D%22:%22mvTopBanner%22,%22AT%22:4,%22Z%22:[34894]},{%22A%22:4466,%22S%22:33599,%22D%22:%22mvBottomBanner%22,%22AT%22:4,%22Z%22:[34894]}],%22Keywords%22:%22undefined%22,%22Referrer%22:%22%22,%22IsAsync%22:true}'
p175
aS'css/style.css'
p176
aS'i.gif?e=eyJhdiI6Mjg0MDgsImF0Ijo0LCJidCI6MCwiY20iOjM4OTcxLCJjaCI6MTQyOTUsImNrIjp7fSwiY3IiOjI4NzUyMzAsImRpIjoiZDk0YTUwZmIxOTY4NGZhZmEyMWU1ZTVjN2ZmMmJkMjkiLCJkaiI6MCwiaWkiOiJkNzI3NDQxN2E4M2I0MzYyOTNiNmM3ZWY3ZDM5ODk5NiIsImRtIjoxLCJmYyI6NDg1OTk3MCwiZmwiOjY1MDE3LCJpcCI6IjkyLjIzMi4xMjYuMTE3IiwibnciOjQ0NjYsInBjIjowLCJlYyI6MCwicHIiOjQ2NTk0LCJydCI6MSwicnMiOjUwMCwic2EiOiI5Iiwic2IiOiJpLTA1MzU2MjQ4MTYwMmQxZDZiIiwic3AiOjI0ODY2LCJzdCI6MzM1OTksInVrIjoidWUxLTBkZDQ5NmE5ZGQxODRlNjI5ZWIzYjUyZWJlODFjOWUxIiwiem4iOjM0ODk0LCJ0cyI6MTUyMTU2NDQ2NjcwMywiYmYiOnRydWUsInBuIjoibXZUb3BCYW5uZXIiLCJiYSI6MSwiZnEiOjB9&s=ZjGfdDyh8MgIG8c6LI_HpIbv7jU'
p177
aS'ados?t=1521564469082&request={%22Placements%22:[{%22A%22:4466,%22S%22:33599,%22D%22:%22mvTopBanner%22,%22AT%22:4,%22Z%22:[34894]},{%22A%22:4466,%22S%22:33599,%22D%22:%22mvBottomBanner%22,%22AT%22:4,%22Z%22:[34894]}],%22Keywords%22:%22undefined%22,%22Referrer%22:%22%22,%22IsAsync%22:true}'
p178
aS'i.gif?e=eyJhdiI6Mjk0NDYsImF0Ijo0LCJidCI6MCwiY20iOjQwNTAzLCJjaCI6MTQyOTUsImNrIjp7fSwiY3IiOjEwNTY3NywiZGkiOiI3YzIxZjUxNGI4ZTA0NDFkOWQ5YTdlYzhmYzQ4ZTI3ZCIsImRqIjowLCJpaSI6IjRhNjE2NDNhMTQzYTQ3NmVhZDcxYzM2YmQ4NzAwZGMzIiwiZG0iOjEsImZjIjoxNDQ2NTksImZsIjo3MTM0MywiaXAiOiI5Mi4yMzIuMTI2LjExNyIsIm53Ijo0NDY2LCJwYyI6MCwiZWMiOjAsInByIjo0NjU5NCwicnQiOjEsInJzIjo1MDAsInNhIjoiOSIsInNiIjoiaS0wNTM1NjI0ODE2MDJkMWQ2YiIsInNwIjoyNDg2Niwic3QiOjMzNTk5LCJ1ayI6InVlMS0wZGQ0OTZhOWRkMTg0ZTYyOWViM2I1MmViZTgxYzllMSIsInpuIjozNDg5NCwidHMiOjE1MjE1NjQ0NjY3MDQsImJmIjp0cnVlLCJwbiI6Im12Qm90dG9tQmFubmVyIiwiYmEiOjEsImZxIjowfQ&s=WRYtfagTkYylM_UvcXvfWDtBNpI'
p179
aS'i.gif?e=eyJhdiI6Mjk0NDYsImF0Ijo0LCJidCI6MCwiY20iOjQwNTAzLCJjaCI6MTQyOTUsImNrIjp7fSwiY3IiOjEwNTY3NywiZGkiOiI2NmY4ODc1OWM0Zjg0MDRlYmZiNjc0MDNmYjcyYzk3ZSIsImRqIjowLCJpaSI6Ijc1NGM3YzVmMjRmYzQ0ZmQ5NTE3MDUyZDc2OWY3MzBhIiwiZG0iOjEsImZjIjoxNDQ2NTksImZsIjo3MTM0MywiaXAiOiI5Mi4yMzIuMTI2LjExNyIsIm53Ijo0NDY2LCJwYyI6MCwiZWMiOjAsInByIjo0NjU5NCwicnQiOjEsInJzIjo1MDAsInNhIjoiOSIsInNiIjoiaS0wMGQwNmFlODQzYzFmOGNmOSIsInNwIjoxMzExMSwic3QiOjMzNTk5LCJ1ayI6InVlMS0wZGQ0OTZhOWRkMTg0ZTYyOWViM2I1MmViZTgxYzllMSIsInpuIjozNDg5NCwidHMiOjE1MjE1NjQ0Njk5NDQsImJmIjp0cnVlLCJwbiI6Im12VG9wQmFubmVyIiwiYmEiOjEsImZxIjowfQ&s=fTp8fvlRuWlMV2V05_3GJdKbW1c'
p180
aS'success.txt'
p181
aS'fridge'
p182
aS'nationalnews'
p183
aS'cheese'
p184
aS'favicon.ico'
p185
aS'css/mojo.css?1'
p186
aS'Serving/adServer.bs?c=28&cn=display&pli=1073982656&w=728&h=90&ord=1521564493&z=0'
p187
aS'resources/sites/default/files/css/css_sSAe9sKteLQpXhdusjdSLXOzkfT5idajD-Lm1ejLyi4.css'
p188
aS'resources/sites/default/files/css/css_n4vMozhmpR69S-a4-LJzAGxDpdLR8G6xVUt9Gg-S2RE.css'
p189
aS'resources/sites/default/files/css/css_jSaH4HxV6a1gvgqB0v73hTivCXfrFlhS70RLVxVWB5Q.css'
p190
aS'resources///PROD/asset/111249/IMAGE/20180316/YouNeverHere_Pro_728x90_End_35621175976533778.jpg'
p191
aS'beacon.js'
p192
aS'css/style.css'
p193
aS'css?family=Open+Sans:400italic,400,300,600'
p194
aS'resources/sites/all/themes/custom/strawmandev/images/site-top-gradient-newsbank.png'
p195
aS'b?c1=2&c2=6034961&ns__t=1521564452290&ns_c=windows-1252&cv=3.1&c8=%27Black%20Panther%27%20Remains%20Box%20Office%20King%2C%20Topping%20%241%20Billion%20Worldwide%20-%20Box%20Office%20Mojo&c7=http%3A%2F%2Fwww.boxofficemojo.com%2Fnews%2F%3Fid%3D4378%26p%3D.htm&c9='
p196
aS'images/footerbg.png'
p197
aS'ados?t=1521564455018&request={%22Placements%22:[{%22A%22:4466,%22S%22:33599,%22D%22:%22mvTopBanner%22,%22AT%22:4,%22Z%22:[34894]},{%22A%22:4466,%22S%22:33599,%22D%22:%22mvBottomBanner%22,%22AT%22:4,%22Z%22:[34894]}],%22Keywords%22:%22undefined%22,%22Referrer%22:%22http%3A%2F%2Faipg.org%2Fnationalnews%22,%22IsAsync%22:true}'
p198
aS'weekly/'
p199
aS'quarterly/'
p200
aS'i.gif?e=eyJhdiI6Mjg0MDgsImF0Ijo0LCJidCI6MCwiY20iOjM4OTcxLCJjaCI6MTQyOTUsImNrIjp7fSwiY3IiOjI4NzUyMzAsImRpIjoiMTI1YzYxNTIxNTUzNDE0YWIyNTM0NWM0YzhiYTFjZmUiLCJkaiI6MCwiaWkiOiIwYmJiMGRiYjJlNTc0MzM2YWM3Mzk0ZWJiYjc4MDRhYSIsImRtIjoxLCJmYyI6NDg1OTk3MCwiZmwiOjY1MDE3LCJpcCI6IjkyLjIzMi4xMjYuMTE3IiwibnciOjQ0NjYsInBjIjowLCJlYyI6MCwicHIiOjQ2NTk0LCJydCI6MSwicmYiOiJodHRwOi8vYWlwZy5vcmcvbmF0aW9uYWxuZXdzIiwicnMiOjUwMCwic2EiOiI5Iiwic2IiOiJpLTA1MzU2MjQ4MTYwMmQxZDZiIiwic3AiOjE2MTIzLCJzdCI6MzM1OTksInVrIjoidWUxLTBkZDQ5NmE5ZGQxODRlNjI5ZWIzYjUyZWJlODFjOWUxIiwiem4iOjM0ODk0LCJ0cyI6MTUyMTU2NDQ1NTY1NiwiYmYiOnRydWUsInBuIjoibXZCb3R0b21CYW5uZXIiLCJiYSI6MSwiZnEiOjB9&s=5rs4Tc568iwG2L6DJe4eVuS4YDw'
p201
aS'Serving/adServer.bs?c=28&cn=display&pli=1073982656&w=728&h=90&ord=1521564456&z=0'
p202
aS'iu3?d=boxofficemojo.com&cb=695355168257420'
p203
aS'resources///PROD/asset/111249/IMAGE/20180316/YouNeverHere_Pro_728x90_End_35621175976533778.jpg'
p204
aS'b?c1=2&c2=6034961&ns__t=1521564458116&ns_c=windows-1252&cv=3.1&c8=Weekly%20Box%20Office%20Index%2C%201982-Present%20-%20Box%20Office%20Mojo&c7=http%3A%2F%2Fwww.boxofficemojo.com%2Fweekly%2F&c9=http%3A%2F%2Fwww.boxofficemojo.com%2Fnews%2F%3Fid%3D4378%26p%3D.htm'
p205
aS'b?c1=2&c2=6034961&ns__t=1521564458740&ns_c=windows-1252&cv=3.1&c8=Box%20Office%20Results%20by%20Quarter&c7=http%3A%2F%2Fwww.boxofficemojo.com%2Fquarterly%2F&c9=http%3A%2F%2Fwww.boxofficemojo.com%2Fnews%2F%3Fid%3D4378%26p%3D.htm'
p206
aS'about'
p207
aS'favicon.ico'
p208
aS'iu3?d=boxofficemojo.com&cb=508068813793066.7'
p209
aS'sites/default/files/css/css_lQaZfjVpwP_oGNqdtWCSpJT1EMqXdMiU84ekLLxQnc4.css'
p210
aS'disciplinaryactions'
p211
aS'aipgnews'
p212
aS'css/style.css'
p213
aS'ados?t=1521564465312&request={%22Placements%22:[{%22A%22:4466,%22S%22:33599,%22D%22:%22mvTopBanner%22,%22AT%22:4,%22Z%22:[34894]},{%22A%22:4466,%22S%22:33599,%22D%22:%22mvBottomBanner%22,%22AT%22:4,%22Z%22:[34894]}],%22Keywords%22:%22undefined%22,%22Referrer%22:%22%22,%22IsAsync%22:true}'
p214
aS'ados?t=1521564466400&request={%22Placements%22:[{%22A%22:4466,%22S%22:33599,%22D%22:%22mvTopBanner%22,%22AT%22:4,%22Z%22:[34894]},{%22A%22:4466,%22S%22:33599,%22D%22:%22mvBottomBanner%22,%22AT%22:4,%22Z%22:[34894]}],%22Keywords%22:%22undefined%22,%22Referrer%22:%22%22,%22IsAsync%22:true}'
p215
aS'css/style.css'
p216
aS'i.gif?e=eyJhdiI6Mjg0MDgsImF0Ijo0LCJidCI6MCwiY20iOjM4OTcxLCJjaCI6MTQyOTUsImNrIjp7fSwiY3IiOjI4NzUyMzAsImRpIjoiZDk0YTUwZmIxOTY4NGZhZmEyMWU1ZTVjN2ZmMmJkMjkiLCJkaiI6MCwiaWkiOiJkNzI3NDQxN2E4M2I0MzYyOTNiNmM3ZWY3ZDM5ODk5NiIsImRtIjoxLCJmYyI6NDg1OTk3MCwiZmwiOjY1MDE3LCJpcCI6IjkyLjIzMi4xMjYuMTE3IiwibnciOjQ0NjYsInBjIjowLCJlYyI6MCwicHIiOjQ2NTk0LCJydCI6MSwicnMiOjUwMCwic2EiOiI5Iiwic2IiOiJpLTA1MzU2MjQ4MTYwMmQxZDZiIiwic3AiOjI0ODY2LCJzdCI6MzM1OTksInVrIjoidWUxLTBkZDQ5NmE5ZGQxODRlNjI5ZWIzYjUyZWJlODFjOWUxIiwiem4iOjM0ODk0LCJ0cyI6MTUyMTU2NDQ2NjcwMywiYmYiOnRydWUsInBuIjoibXZUb3BCYW5uZXIiLCJiYSI6MSwiZnEiOjB9&s=ZjGfdDyh8MgIG8c6LI_HpIbv7jU'
p217
aS'ados?t=1521564469082&request={%22Placements%22:[{%22A%22:4466,%22S%22:33599,%22D%22:%22mvTopBanner%22,%22AT%22:4,%22Z%22:[34894]},{%22A%22:4466,%22S%22:33599,%22D%22:%22mvBottomBanner%22,%22AT%22:4,%22Z%22:[34894]}],%22Keywords%22:%22undefined%22,%22Referrer%22:%22%22,%22IsAsync%22:true}'
p218
aS'i.gif?e=eyJhdiI6Mjk0NDYsImF0Ijo0LCJidCI6MCwiY20iOjQwNTAzLCJjaCI6MTQyOTUsImNrIjp7fSwiY3IiOjEwNTY3NywiZGkiOiI3YzIxZjUxNGI4ZTA0NDFkOWQ5YTdlYzhmYzQ4ZTI3ZCIsImRqIjowLCJpaSI6IjRhNjE2NDNhMTQzYTQ3NmVhZDcxYzM2YmQ4NzAwZGMzIiwiZG0iOjEsImZjIjoxNDQ2NTksImZsIjo3MTM0MywiaXAiOiI5Mi4yMzIuMTI2LjExNyIsIm53Ijo0NDY2LCJwYyI6MCwiZWMiOjAsInByIjo0NjU5NCwicnQiOjEsInJzIjo1MDAsInNhIjoiOSIsInNiIjoiaS0wNTM1NjI0ODE2MDJkMWQ2YiIsInNwIjoyNDg2Niwic3QiOjMzNTk5LCJ1ayI6InVlMS0wZGQ0OTZhOWRkMTg0ZTYyOWViM2I1MmViZTgxYzllMSIsInpuIjozNDg5NCwidHMiOjE1MjE1NjQ0NjY3MDQsImJmIjp0cnVlLCJwbiI6Im12Qm90dG9tQmFubmVyIiwiYmEiOjEsImZxIjowfQ&s=WRYtfagTkYylM_UvcXvfWDtBNpI'
p219
aS'i.gif?e=eyJhdiI6Mjk0NDYsImF0Ijo0LCJidCI6MCwiY20iOjQwNTAzLCJjaCI6MTQyOTUsImNrIjp7fSwiY3IiOjEwNTY3NywiZGkiOiI2NmY4ODc1OWM0Zjg0MDRlYmZiNjc0MDNmYjcyYzk3ZSIsImRqIjowLCJpaSI6Ijc1NGM3YzVmMjRmYzQ0ZmQ5NTE3MDUyZDc2OWY3MzBhIiwiZG0iOjEsImZjIjoxNDQ2NTksImZsIjo3MTM0MywiaXAiOiI5Mi4yMzIuMTI2LjExNyIsIm53Ijo0NDY2LCJwYyI6MCwiZWMiOjAsInByIjo0NjU5NCwicnQiOjEsInJzIjo1MDAsInNhIjoiOSIsInNiIjoiaS0wMGQwNmFlODQzYzFmOGNmOSIsInNwIjoxMzExMSwic3QiOjMzNTk5LCJ1ayI6InVlMS0wZGQ0OTZhOWRkMTg0ZTYyOWViM2I1MmViZTgxYzllMSIsInpuIjozNDg5NCwidHMiOjE1MjE1NjQ0Njk5NDQsImJmIjp0cnVlLCJwbiI6Im12VG9wQmFubmVyIiwiYmEiOjEsImZxIjowfQ&s=fTp8fvlRuWlMV2V05_3GJdKbW1c'
p220
aS'i.gif?e=eyJhdiI6Mjg0MDgsImF0Ijo0LCJidCI6MCwiY20iOjM4OTcxLCJjaCI6MTQyOTUsImNrIjp7fSwiY3IiOjI4NzUyMzAsImRpIjoiODA3N2I5NTBkYTcxNDI4ZmI5YWQ0NTY2NTFlMDc2ODciLCJkaiI6MCwiaWkiOiIzNmNmMTBkYmU2OGE0ZTRjOTgxYTBhNDU1MzhkMDE5NCIsImRtIjoxLCJmYyI6NDg1OTk3MCwiZmwiOjY1MDE3LCJpcCI6IjkyLjIzMi4xMjYuMTE3IiwibnciOjQ0NjYsInBjIjowLCJlYyI6MCwicHIiOjQ2NTk0LCJydCI6MSwicnMiOjUwMCwic2EiOiI5Iiwic2IiOiJpLTAwZDA2YWU4NDNjMWY4Y2Y5Iiwic3AiOjEzMTExLCJzdCI6MzM1OTksInVrIjoidWUxLTBkZDQ5NmE5ZGQxODRlNjI5ZWIzYjUyZWJlODFjOWUxIiwiem4iOjM0ODk0LCJ0cyI6MTUyMTU2NDQ2OTk0NSwiYmYiOnRydWUsInBuIjoibXZCb3R0b21CYW5uZXIiLCJiYSI6MSwiZnEiOjB9&s=yODpzZpSqs1jiRzaPReR5UfF45Y'
p221
aS'scribe/header_recentposts.gif'
p222
aS'scribe/header_archives.gif'
p223
aS'bloggerbutton1.gif'
p224
aS'hello/89/6940/320/DSCN1161.jpg'
p225
aS'success.txt'
p226
aS'fridge'
p227
aS'nationalnews'
p228
aS'cheese'
p229
aS'favicon.ico'
p230
aS'css/mojo.css?1'
p231
aS'Serving/adServer.bs?c=28&cn=display&pli=1073982656&w=728&h=90&ord=1521564493&z=0'
p232
aS'resources/sites/default/files/css/css_sSAe9sKteLQpXhdusjdSLXOzkfT5idajD-Lm1ejLyi4.css'
p233
aS'resources/sites/default/files/css/css_n4vMozhmpR69S-a4-LJzAGxDpdLR8G6xVUt9Gg-S2RE.css'
p234
aS'resources/sites/default/files/css/css_jSaH4HxV6a1gvgqB0v73hTivCXfrFlhS70RLVxVWB5Q.css'
p235
aS'resources///PROD/asset/111249/IMAGE/20180316/YouNeverHere_Pro_728x90_End_35621175976533778.jpg'
p236
aS'beacon.js'
p237
aS'css/style.css'
p238
aS'css?family=Open+Sans:400italic,400,300,600'
p239
aS'resources/sites/all/themes/custom/strawmandev/images/site-top-gradient-newsbank.png'
p240
aS'b?c1=2&c2=6034961&ns__t=1521564452290&ns_c=windows-1252&cv=3.1&c8=%27Black%20Panther%27%20Remains%20Box%20Office%20King%2C%20Topping%20%241%20Billion%20Worldwide%20-%20Box%20Office%20Mojo&c7=http%3A%2F%2Fwww.boxofficemojo.com%2Fnews%2F%3Fid%3D4378%26p%3D.htm&c9='
p241
aS'images/footerbg.png'
p242
aS'ados?t=1521564455018&request={%22Placements%22:[{%22A%22:4466,%22S%22:33599,%22D%22:%22mvTopBanner%22,%22AT%22:4,%22Z%22:[34894]},{%22A%22:4466,%22S%22:33599,%22D%22:%22mvBottomBanner%22,%22AT%22:4,%22Z%22:[34894]}],%22Keywords%22:%22undefined%22,%22Referrer%22:%22http%3A%2F%2Faipg.org%2Fnationalnews%22,%22IsAsync%22:true}'
p243
aS'weekly/'
p244
aS'quarterly/'
p245
aS'i.gif?e=eyJhdiI6Mjg0MDgsImF0Ijo0LCJidCI6MCwiY20iOjM4OTcxLCJjaCI6MTQyOTUsImNrIjp7fSwiY3IiOjI4NzUyMzAsImRpIjoiMTI1YzYxNTIxNTUzNDE0YWIyNTM0NWM0YzhiYTFjZmUiLCJkaiI6MCwiaWkiOiIwYmJiMGRiYjJlNTc0MzM2YWM3Mzk0ZWJiYjc4MDRhYSIsImRtIjoxLCJmYyI6NDg1OTk3MCwiZmwiOjY1MDE3LCJpcCI6IjkyLjIzMi4xMjYuMTE3IiwibnciOjQ0NjYsInBjIjowLCJlYyI6MCwicHIiOjQ2NTk0LCJydCI6MSwicmYiOiJodHRwOi8vYWlwZy5vcmcvbmF0aW9uYWxuZXdzIiwicnMiOjUwMCwic2EiOiI5Iiwic2IiOiJpLTA1MzU2MjQ4MTYwMmQxZDZiIiwic3AiOjE2MTIzLCJzdCI6MzM1OTksInVrIjoidWUxLTBkZDQ5NmE5ZGQxODRlNjI5ZWIzYjUyZWJlODFjOWUxIiwiem4iOjM0ODk0LCJ0cyI6MTUyMTU2NDQ1NTY1NiwiYmYiOnRydWUsInBuIjoibXZCb3R0b21CYW5uZXIiLCJiYSI6MSwiZnEiOjB9&s=5rs4Tc568iwG2L6DJe4eVuS4YDw'
p246
aS'Serving/adServer.bs?c=28&cn=display&pli=1073982656&w=728&h=90&ord=1521564456&z=0'
p247
aS'iu3?d=boxofficemojo.com&cb=695355168257420'
p248
aS'resources///PROD/asset/111249/IMAGE/20180316/YouNeverHere_Pro_728x90_End_35621175976533778.jpg'
p249
aS'b?c1=2&c2=6034961&ns__t=1521564458116&ns_c=windows-1252&cv=3.1&c8=Weekly%20Box%20Office%20Index%2C%201982-Present%20-%20Box%20Office%20Mojo&c7=http%3A%2F%2Fwww.boxofficemojo.com%2Fweekly%2F&c9=http%3A%2F%2Fwww.boxofficemojo.com%2Fnews%2F%3Fid%3D4378%26p%3D.htm'
p250
aS'b?c1=2&c2=6034961&ns__t=1521564458740&ns_c=windows-1252&cv=3.1&c8=Box%20Office%20Results%20by%20Quarter&c7=http%3A%2F%2Fwww.boxofficemojo.com%2Fquarterly%2F&c9=http%3A%2F%2Fwww.boxofficemojo.com%2Fnews%2F%3Fid%3D4378%26p%3D.htm'
p251
aS'about'
p252
aS'favicon.ico'
p253
aS'iu3?d=boxofficemojo.com&cb=508068813793066.7'
p254
aS'sites/default/files/css/css_lQaZfjVpwP_oGNqdtWCSpJT1EMqXdMiU84ekLLxQnc4.css'
p255
aS'disciplinaryactions'
p256
aS'aipgnews'
p257
aS'css/style.css'
p258
aS'ados?t=1521564465312&request={%22Placements%22:[{%22A%22:4466,%22S%22:33599,%22D%22:%22mvTopBanner%22,%22AT%22:4,%22Z%22:[34894]},{%22A%22:4466,%22S%22:33599,%22D%22:%22mvBottomBanner%22,%22AT%22:4,%22Z%22:[34894]}],%22Keywords%22:%22undefined%22,%22Referrer%22:%22%22,%22IsAsync%22:true}'
p259
aS'ados?t=1521564466400&request={%22Placements%22:[{%22A%22:4466,%22S%22:33599,%22D%22:%22mvTopBanner%22,%22AT%22:4,%22Z%22:[34894]},{%22A%22:4466,%22S%22:33599,%22D%22:%22mvBottomBanner%22,%22AT%22:4,%22Z%22:[34894]}],%22Keywords%22:%22undefined%22,%22Referrer%22:%22%22,%22IsAsync%22:true}'
p260
aS'css/style.css'
p261
aS'i.gif?e=eyJhdiI6Mjg0MDgsImF0Ijo0LCJidCI6MCwiY20iOjM4OTcxLCJjaCI6MTQyOTUsImNrIjp7fSwiY3IiOjI4NzUyMzAsImRpIjoiZDk0YTUwZmIxOTY4NGZhZmEyMWU1ZTVjN2ZmMmJkMjkiLCJkaiI6MCwiaWkiOiJkNzI3NDQxN2E4M2I0MzYyOTNiNmM3ZWY3ZDM5ODk5NiIsImRtIjoxLCJmYyI6NDg1OTk3MCwiZmwiOjY1MDE3LCJpcCI6IjkyLjIzMi4xMjYuMTE3IiwibnciOjQ0NjYsInBjIjowLCJlYyI6MCwicHIiOjQ2NTk0LCJydCI6MSwicnMiOjUwMCwic2EiOiI5Iiwic2IiOiJpLTA1MzU2MjQ4MTYwMmQxZDZiIiwic3AiOjI0ODY2LCJzdCI6MzM1OTksInVrIjoidWUxLTBkZDQ5NmE5ZGQxODRlNjI5ZWIzYjUyZWJlODFjOWUxIiwiem4iOjM0ODk0LCJ0cyI6MTUyMTU2NDQ2NjcwMywiYmYiOnRydWUsInBuIjoibXZUb3BCYW5uZXIiLCJiYSI6MSwiZnEiOjB9&s=ZjGfdDyh8MgIG8c6LI_HpIbv7jU'
p262
aS'ados?t=1521564469082&request={%22Placements%22:[{%22A%22:4466,%22S%22:33599,%22D%22:%22mvTopBanner%22,%22AT%22:4,%22Z%22:[34894]},{%22A%22:4466,%22S%22:33599,%22D%22:%22mvBottomBanner%22,%22AT%22:4,%22Z%22:[34894]}],%22Keywords%22:%22undefined%22,%22Referrer%22:%22%22,%22IsAsync%22:true}'
p263
aS'i.gif?e=eyJhdiI6Mjk0NDYsImF0Ijo0LCJidCI6MCwiY20iOjQwNTAzLCJjaCI6MTQyOTUsImNrIjp7fSwiY3IiOjEwNTY3NywiZGkiOiI3YzIxZjUxNGI4ZTA0NDFkOWQ5YTdlYzhmYzQ4ZTI3ZCIsImRqIjowLCJpaSI6IjRhNjE2NDNhMTQzYTQ3NmVhZDcxYzM2YmQ4NzAwZGMzIiwiZG0iOjEsImZjIjoxNDQ2NTksImZsIjo3MTM0MywiaXAiOiI5Mi4yMzIuMTI2LjExNyIsIm53Ijo0NDY2LCJwYyI6MCwiZWMiOjAsInByIjo0NjU5NCwicnQiOjEsInJzIjo1MDAsInNhIjoiOSIsInNiIjoiaS0wNTM1NjI0ODE2MDJkMWQ2YiIsInNwIjoyNDg2Niwic3QiOjMzNTk5LCJ1ayI6InVlMS0wZGQ0OTZhOWRkMTg0ZTYyOWViM2I1MmViZTgxYzllMSIsInpuIjozNDg5NCwidHMiOjE1MjE1NjQ0NjY3MDQsImJmIjp0cnVlLCJwbiI6Im12Qm90dG9tQmFubmVyIiwiYmEiOjEsImZxIjowfQ&s=WRYtfagTkYylM_UvcXvfWDtBNpI'
p264
aS'i.gif?e=eyJhdiI6Mjk0NDYsImF0Ijo0LCJidCI6MCwiY20iOjQwNTAzLCJjaCI6MTQyOTUsImNrIjp7fSwiY3IiOjEwNTY3NywiZGkiOiI2NmY4ODc1OWM0Zjg0MDRlYmZiNjc0MDNmYjcyYzk3ZSIsImRqIjowLCJpaSI6Ijc1NGM3YzVmMjRmYzQ0ZmQ5NTE3MDUyZDc2OWY3MzBhIiwiZG0iOjEsImZjIjoxNDQ2NTksImZsIjo3MTM0MywiaXAiOiI5Mi4yMzIuMTI2LjExNyIsIm53Ijo0NDY2LCJwYyI6MCwiZWMiOjAsInByIjo0NjU5NCwicnQiOjEsInJzIjo1MDAsInNhIjoiOSIsInNiIjoiaS0wMGQwNmFlODQzYzFmOGNmOSIsInNwIjoxMzExMSwic3QiOjMzNTk5LCJ1ayI6InVlMS0wZGQ0OTZhOWRkMTg0ZTYyOWViM2I1MmViZTgxYzllMSIsInpuIjozNDg5NCwidHMiOjE1MjE1NjQ0Njk5NDQsImJmIjp0cnVlLCJwbiI6Im12VG9wQmFubmVyIiwiYmEiOjEsImZxIjowfQ&s=fTp8fvlRuWlMV2V05_3GJdKbW1c'
p265
aS'i.gif?e=eyJhdiI6Mjg0MDgsImF0Ijo0LCJidCI6MCwiY20iOjM4OTcxLCJjaCI6MTQyOTUsImNrIjp7fSwiY3IiOjI4NzUyMzAsImRpIjoiODA3N2I5NTBkYTcxNDI4ZmI5YWQ0NTY2NTFlMDc2ODciLCJkaiI6MCwiaWkiOiIzNmNmMTBkYmU2OGE0ZTRjOTgxYTBhNDU1MzhkMDE5NCIsImRtIjoxLCJmYyI6NDg1OTk3MCwiZmwiOjY1MDE3LCJpcCI6IjkyLjIzMi4xMjYuMTE3IiwibnciOjQ0NjYsInBjIjowLCJlYyI6MCwicHIiOjQ2NTk0LCJydCI6MSwicnMiOjUwMCwic2EiOiI5Iiwic2IiOiJpLTAwZDA2YWU4NDNjMWY4Y2Y5Iiwic3AiOjEzMTExLCJzdCI6MzM1OTksInVrIjoidWUxLTBkZDQ5NmE5ZGQxODRlNjI5ZWIzYjUyZWJlODFjOWUxIiwiem4iOjM0ODk0LCJ0cyI6MTUyMTU2NDQ2OTk0NSwiYmYiOnRydWUsInBuIjoibXZCb3R0b21CYW5uZXIiLCJiYSI6MSwiZnEiOjB9&s=yODpzZpSqs1jiRzaPReR5UfF45Y'
p266
aS'scribe/header_recentposts.gif'
p267
aS'scribe/header_archives.gif'
p268
aS'bloggerbutton1.gif'
p269
aS'hello/89/6940/320/DSCN1161.jpg'
p270
aS'scribe/bg.gif'
p271
aS'scribe/bg_paper_top.jpg'
p272
aS'scribe/bg_paper_mid.jpg'
p273
aS'scribe/divider.gif'
p274
aS'pagead/js/r20180312/r20170110/show_ads_impl.js'
p275
aS'success.txt'
p276
aS'fridge'
p277
aS'nationalnews'
p278
aS'cheese'
p279
aS'favicon.ico'
p280
aS'css/mojo.css?1'
p281
aS'Serving/adServer.bs?c=28&cn=display&pli=1073982656&w=728&h=90&ord=1521564493&z=0'
p282
aS'resources/sites/default/files/css/css_sSAe9sKteLQpXhdusjdSLXOzkfT5idajD-Lm1ejLyi4.css'
p283
aS'resources/sites/default/files/css/css_n4vMozhmpR69S-a4-LJzAGxDpdLR8G6xVUt9Gg-S2RE.css'
p284
aS'resources/sites/default/files/css/css_jSaH4HxV6a1gvgqB0v73hTivCXfrFlhS70RLVxVWB5Q.css'
p285
aS'resources///PROD/asset/111249/IMAGE/20180316/YouNeverHere_Pro_728x90_End_35621175976533778.jpg'
p286
aS'beacon.js'
p287
aS'css/style.css'
p288
aS'css?family=Open+Sans:400italic,400,300,600'
p289
aS'resources/sites/all/themes/custom/strawmandev/images/site-top-gradient-newsbank.png'
p290
aS'b?c1=2&c2=6034961&ns__t=1521564452290&ns_c=windows-1252&cv=3.1&c8=%27Black%20Panther%27%20Remains%20Box%20Office%20King%2C%20Topping%20%241%20Billion%20Worldwide%20-%20Box%20Office%20Mojo&c7=http%3A%2F%2Fwww.boxofficemojo.com%2Fnews%2F%3Fid%3D4378%26p%3D.htm&c9='
p291
aS'images/footerbg.png'
p292
aS'ados?t=1521564455018&request={%22Placements%22:[{%22A%22:4466,%22S%22:33599,%22D%22:%22mvTopBanner%22,%22AT%22:4,%22Z%22:[34894]},{%22A%22:4466,%22S%22:33599,%22D%22:%22mvBottomBanner%22,%22AT%22:4,%22Z%22:[34894]}],%22Keywords%22:%22undefined%22,%22Referrer%22:%22http%3A%2F%2Faipg.org%2Fnationalnews%22,%22IsAsync%22:true}'
p293
aS'weekly/'
p294
aS'quarterly/'
p295
aS'i.gif?e=eyJhdiI6Mjg0MDgsImF0Ijo0LCJidCI6MCwiY20iOjM4OTcxLCJjaCI6MTQyOTUsImNrIjp7fSwiY3IiOjI4NzUyMzAsImRpIjoiMTI1YzYxNTIxNTUzNDE0YWIyNTM0NWM0YzhiYTFjZmUiLCJkaiI6MCwiaWkiOiIwYmJiMGRiYjJlNTc0MzM2YWM3Mzk0ZWJiYjc4MDRhYSIsImRtIjoxLCJmYyI6NDg1OTk3MCwiZmwiOjY1MDE3LCJpcCI6IjkyLjIzMi4xMjYuMTE3IiwibnciOjQ0NjYsInBjIjowLCJlYyI6MCwicHIiOjQ2NTk0LCJydCI6MSwicmYiOiJodHRwOi8vYWlwZy5vcmcvbmF0aW9uYWxuZXdzIiwicnMiOjUwMCwic2EiOiI5Iiwic2IiOiJpLTA1MzU2MjQ4MTYwMmQxZDZiIiwic3AiOjE2MTIzLCJzdCI6MzM1OTksInVrIjoidWUxLTBkZDQ5NmE5ZGQxODRlNjI5ZWIzYjUyZWJlODFjOWUxIiwiem4iOjM0ODk0LCJ0cyI6MTUyMTU2NDQ1NTY1NiwiYmYiOnRydWUsInBuIjoibXZCb3R0b21CYW5uZXIiLCJiYSI6MSwiZnEiOjB9&s=5rs4Tc568iwG2L6DJe4eVuS4YDw'
p296
aS'Serving/adServer.bs?c=28&cn=display&pli=1073982656&w=728&h=90&ord=1521564456&z=0'
p297
aS'iu3?d=boxofficemojo.com&cb=695355168257420'
p298
aS'resources///PROD/asset/111249/IMAGE/20180316/YouNeverHere_Pro_728x90_End_35621175976533778.jpg'
p299
aS'b?c1=2&c2=6034961&ns__t=1521564458116&ns_c=windows-1252&cv=3.1&c8=Weekly%20Box%20Office%20Index%2C%201982-Present%20-%20Box%20Office%20Mojo&c7=http%3A%2F%2Fwww.boxofficemojo.com%2Fweekly%2F&c9=http%3A%2F%2Fwww.boxofficemojo.com%2Fnews%2F%3Fid%3D4378%26p%3D.htm'
p300
aS'b?c1=2&c2=6034961&ns__t=1521564458740&ns_c=windows-1252&cv=3.1&c8=Box%20Office%20Results%20by%20Quarter&c7=http%3A%2F%2Fwww.boxofficemojo.com%2Fquarterly%2F&c9=http%3A%2F%2Fwww.boxofficemojo.com%2Fnews%2F%3Fid%3D4378%26p%3D.htm'
p301
aS'about'
p302
aS'favicon.ico'
p303
aS'iu3?d=boxofficemojo.com&cb=508068813793066.7'
p304
aS'sites/default/files/css/css_lQaZfjVpwP_oGNqdtWCSpJT1EMqXdMiU84ekLLxQnc4.css'
p305
aS'disciplinaryactions'
p306
aS'aipgnews'
p307
aS'css/style.css'
p308
aS'ados?t=1521564465312&request={%22Placements%22:[{%22A%22:4466,%22S%22:33599,%22D%22:%22mvTopBanner%22,%22AT%22:4,%22Z%22:[34894]},{%22A%22:4466,%22S%22:33599,%22D%22:%22mvBottomBanner%22,%22AT%22:4,%22Z%22:[34894]}],%22Keywords%22:%22undefined%22,%22Referrer%22:%22%22,%22IsAsync%22:true}'
p309
aS'ados?t=1521564466400&request={%22Placements%22:[{%22A%22:4466,%22S%22:33599,%22D%22:%22mvTopBanner%22,%22AT%22:4,%22Z%22:[34894]},{%22A%22:4466,%22S%22:33599,%22D%22:%22mvBottomBanner%22,%22AT%22:4,%22Z%22:[34894]}],%22Keywords%22:%22undefined%22,%22Referrer%22:%22%22,%22IsAsync%22:true}'
p310
aS'css/style.css'
p311
aS'i.gif?e=eyJhdiI6Mjg0MDgsImF0Ijo0LCJidCI6MCwiY20iOjM4OTcxLCJjaCI6MTQyOTUsImNrIjp7fSwiY3IiOjI4NzUyMzAsImRpIjoiZDk0YTUwZmIxOTY4NGZhZmEyMWU1ZTVjN2ZmMmJkMjkiLCJkaiI6MCwiaWkiOiJkNzI3NDQxN2E4M2I0MzYyOTNiNmM3ZWY3ZDM5ODk5NiIsImRtIjoxLCJmYyI6NDg1OTk3MCwiZmwiOjY1MDE3LCJpcCI6IjkyLjIzMi4xMjYuMTE3IiwibnciOjQ0NjYsInBjIjowLCJlYyI6MCwicHIiOjQ2NTk0LCJydCI6MSwicnMiOjUwMCwic2EiOiI5Iiwic2IiOiJpLTA1MzU2MjQ4MTYwMmQxZDZiIiwic3AiOjI0ODY2LCJzdCI6MzM1OTksInVrIjoidWUxLTBkZDQ5NmE5ZGQxODRlNjI5ZWIzYjUyZWJlODFjOWUxIiwiem4iOjM0ODk0LCJ0cyI6MTUyMTU2NDQ2NjcwMywiYmYiOnRydWUsInBuIjoibXZUb3BCYW5uZXIiLCJiYSI6MSwiZnEiOjB9&s=ZjGfdDyh8MgIG8c6LI_HpIbv7jU'
p312
aS'ados?t=1521564469082&request={%22Placements%22:[{%22A%22:4466,%22S%22:33599,%22D%22:%22mvTopBanner%22,%22AT%22:4,%22Z%22:[34894]},{%22A%22:4466,%22S%22:33599,%22D%22:%22mvBottomBanner%22,%22AT%22:4,%22Z%22:[34894]}],%22Keywords%22:%22undefined%22,%22Referrer%22:%22%22,%22IsAsync%22:true}'
p313
aS'i.gif?e=eyJhdiI6Mjk0NDYsImF0Ijo0LCJidCI6MCwiY20iOjQwNTAzLCJjaCI6MTQyOTUsImNrIjp7fSwiY3IiOjEwNTY3NywiZGkiOiI3YzIxZjUxNGI4ZTA0NDFkOWQ5YTdlYzhmYzQ4ZTI3ZCIsImRqIjowLCJpaSI6IjRhNjE2NDNhMTQzYTQ3NmVhZDcxYzM2YmQ4NzAwZGMzIiwiZG0iOjEsImZjIjoxNDQ2NTksImZsIjo3MTM0MywiaXAiOiI5Mi4yMzIuMTI2LjExNyIsIm53Ijo0NDY2LCJwYyI6MCwiZWMiOjAsInByIjo0NjU5NCwicnQiOjEsInJzIjo1MDAsInNhIjoiOSIsInNiIjoiaS0wNTM1NjI0ODE2MDJkMWQ2YiIsInNwIjoyNDg2Niwic3QiOjMzNTk5LCJ1ayI6InVlMS0wZGQ0OTZhOWRkMTg0ZTYyOWViM2I1MmViZTgxYzllMSIsInpuIjozNDg5NCwidHMiOjE1MjE1NjQ0NjY3MDQsImJmIjp0cnVlLCJwbiI6Im12Qm90dG9tQmFubmVyIiwiYmEiOjEsImZxIjowfQ&s=WRYtfagTkYylM_UvcXvfWDtBNpI'
p314
aS'i.gif?e=eyJhdiI6Mjk0NDYsImF0Ijo0LCJidCI6MCwiY20iOjQwNTAzLCJjaCI6MTQyOTUsImNrIjp7fSwiY3IiOjEwNTY3NywiZGkiOiI2NmY4ODc1OWM0Zjg0MDRlYmZiNjc0MDNmYjcyYzk3ZSIsImRqIjowLCJpaSI6Ijc1NGM3YzVmMjRmYzQ0ZmQ5NTE3MDUyZDc2OWY3MzBhIiwiZG0iOjEsImZjIjoxNDQ2NTksImZsIjo3MTM0MywiaXAiOiI5Mi4yMzIuMTI2LjExNyIsIm53Ijo0NDY2LCJwYyI6MCwiZWMiOjAsInByIjo0NjU5NCwicnQiOjEsInJzIjo1MDAsInNhIjoiOSIsInNiIjoiaS0wMGQwNmFlODQzYzFmOGNmOSIsInNwIjoxMzExMSwic3QiOjMzNTk5LCJ1ayI6InVlMS0wZGQ0OTZhOWRkMTg0ZTYyOWViM2I1MmViZTgxYzllMSIsInpuIjozNDg5NCwidHMiOjE1MjE1NjQ0Njk5NDQsImJmIjp0cnVlLCJwbiI6Im12VG9wQmFubmVyIiwiYmEiOjEsImZxIjowfQ&s=fTp8fvlRuWlMV2V05_3GJdKbW1c'
p315
aS'i.gif?e=eyJhdiI6Mjg0MDgsImF0Ijo0LCJidCI6MCwiY20iOjM4OTcxLCJjaCI6MTQyOTUsImNrIjp7fSwiY3IiOjI4NzUyMzAsImRpIjoiODA3N2I5NTBkYTcxNDI4ZmI5YWQ0NTY2NTFlMDc2ODciLCJkaiI6MCwiaWkiOiIzNmNmMTBkYmU2OGE0ZTRjOTgxYTBhNDU1MzhkMDE5NCIsImRtIjoxLCJmYyI6NDg1OTk3MCwiZmwiOjY1MDE3LCJpcCI6IjkyLjIzMi4xMjYuMTE3IiwibnciOjQ0NjYsInBjIjowLCJlYyI6MCwicHIiOjQ2NTk0LCJydCI6MSwicnMiOjUwMCwic2EiOiI5Iiwic2IiOiJpLTAwZDA2YWU4NDNjMWY4Y2Y5Iiwic3AiOjEzMTExLCJzdCI6MzM1OTksInVrIjoidWUxLTBkZDQ5NmE5ZGQxODRlNjI5ZWIzYjUyZWJlODFjOWUxIiwiem4iOjM0ODk0LCJ0cyI6MTUyMTU2NDQ2OTk0NSwiYmYiOnRydWUsInBuIjoibXZCb3R0b21CYW5uZXIiLCJiYSI6MSwiZnEiOjB9&s=yODpzZpSqs1jiRzaPReR5UfF45Y'
p316
aS'scribe/header_recentposts.gif'
p317
aS'scribe/header_archives.gif'
p318
aS'bloggerbutton1.gif'
p319
aS'hello/89/6940/320/DSCN1161.jpg'
p320
aS'scribe/bg.gif'
p321
aS'scribe/bg_paper_top.jpg'
p322
aS'scribe/bg_paper_mid.jpg'
p323
aS'scribe/divider.gif'
p324
aS'pagead/js/r20180312/r20170110/show_ads_impl.js'
p325
aS'scribe/bg_paper_bot.jpg'
p326
aS'codeofethics'
p327
aS'studio/chart/?studio=buenavista.htm'
p328
aS'css/mojo.css?1'
p329
aS'css?family=Open+Sans:400italic,400,300,600'
p330
aS'success.txt'
p331
aS'fridge'
p332
aS'nationalnews'
p333
aS'cheese'
p334
aS'favicon.ico'
p335
aS'css/mojo.css?1'
p336
aS'Serving/adServer.bs?c=28&cn=display&pli=1073982656&w=728&h=90&ord=1521564493&z=0'
p337
aS'resources/sites/default/files/css/css_sSAe9sKteLQpXhdusjdSLXOzkfT5idajD-Lm1ejLyi4.css'
p338
aS'resources/sites/default/files/css/css_n4vMozhmpR69S-a4-LJzAGxDpdLR8G6xVUt9Gg-S2RE.css'
p339
aS'resources/sites/default/files/css/css_jSaH4HxV6a1gvgqB0v73hTivCXfrFlhS70RLVxVWB5Q.css'
p340
aS'resources///PROD/asset/111249/IMAGE/20180316/YouNeverHere_Pro_728x90_End_35621175976533778.jpg'
p341
aS'beacon.js'
p342
aS'css/style.css'
p343
aS'css?family=Open+Sans:400italic,400,300,600'
p344
aS'resources/sites/all/themes/custom/strawmandev/images/site-top-gradient-newsbank.png'
p345
aS'b?c1=2&c2=6034961&ns__t=1521564452290&ns_c=windows-1252&cv=3.1&c8=%27Black%20Panther%27%20Remains%20Box%20Office%20King%2C%20Topping%20%241%20Billion%20Worldwide%20-%20Box%20Office%20Mojo&c7=http%3A%2F%2Fwww.boxofficemojo.com%2Fnews%2F%3Fid%3D4378%26p%3D.htm&c9='
p346
aS'images/footerbg.png'
p347
aS'ados?t=1521564455018&request={%22Placements%22:[{%22A%22:4466,%22S%22:33599,%22D%22:%22mvTopBanner%22,%22AT%22:4,%22Z%22:[34894]},{%22A%22:4466,%22S%22:33599,%22D%22:%22mvBottomBanner%22,%22AT%22:4,%22Z%22:[34894]}],%22Keywords%22:%22undefined%22,%22Referrer%22:%22http%3A%2F%2Faipg.org%2Fnationalnews%22,%22IsAsync%22:true}'
p348
aS'weekly/'
p349
aS'quarterly/'
p350
aS'i.gif?e=eyJhdiI6Mjg0MDgsImF0Ijo0LCJidCI6MCwiY20iOjM4OTcxLCJjaCI6MTQyOTUsImNrIjp7fSwiY3IiOjI4NzUyMzAsImRpIjoiMTI1YzYxNTIxNTUzNDE0YWIyNTM0NWM0YzhiYTFjZmUiLCJkaiI6MCwiaWkiOiIwYmJiMGRiYjJlNTc0MzM2YWM3Mzk0ZWJiYjc4MDRhYSIsImRtIjoxLCJmYyI6NDg1OTk3MCwiZmwiOjY1MDE3LCJpcCI6IjkyLjIzMi4xMjYuMTE3IiwibnciOjQ0NjYsInBjIjowLCJlYyI6MCwicHIiOjQ2NTk0LCJydCI6MSwicmYiOiJodHRwOi8vYWlwZy5vcmcvbmF0aW9uYWxuZXdzIiwicnMiOjUwMCwic2EiOiI5Iiwic2IiOiJpLTA1MzU2MjQ4MTYwMmQxZDZiIiwic3AiOjE2MTIzLCJzdCI6MzM1OTksInVrIjoidWUxLTBkZDQ5NmE5ZGQxODRlNjI5ZWIzYjUyZWJlODFjOWUxIiwiem4iOjM0ODk0LCJ0cyI6MTUyMTU2NDQ1NTY1NiwiYmYiOnRydWUsInBuIjoibXZCb3R0b21CYW5uZXIiLCJiYSI6MSwiZnEiOjB9&s=5rs4Tc568iwG2L6DJe4eVuS4YDw'
p351
aS'Serving/adServer.bs?c=28&cn=display&pli=1073982656&w=728&h=90&ord=1521564456&z=0'
p352
aS'iu3?d=boxofficemojo.com&cb=695355168257420'
p353
aS'resources///PROD/asset/111249/IMAGE/20180316/YouNeverHere_Pro_728x90_End_35621175976533778.jpg'
p354
aS'b?c1=2&c2=6034961&ns__t=1521564458116&ns_c=windows-1252&cv=3.1&c8=Weekly%20Box%20Office%20Index%2C%201982-Present%20-%20Box%20Office%20Mojo&c7=http%3A%2F%2Fwww.boxofficemojo.com%2Fweekly%2F&c9=http%3A%2F%2Fwww.boxofficemojo.com%2Fnews%2F%3Fid%3D4378%26p%3D.htm'
p355
aS'b?c1=2&c2=6034961&ns__t=1521564458740&ns_c=windows-1252&cv=3.1&c8=Box%20Office%20Results%20by%20Quarter&c7=http%3A%2F%2Fwww.boxofficemojo.com%2Fquarterly%2F&c9=http%3A%2F%2Fwww.boxofficemojo.com%2Fnews%2F%3Fid%3D4378%26p%3D.htm'
p356
aS'about'
p357
aS'favicon.ico'
p358
aS'iu3?d=boxofficemojo.com&cb=508068813793066.7'
p359
aS'sites/default/files/css/css_lQaZfjVpwP_oGNqdtWCSpJT1EMqXdMiU84ekLLxQnc4.css'
p360
aS'disciplinaryactions'
p361
aS'aipgnews'
p362
aS'css/style.css'
p363
aS'ados?t=1521564465312&request={%22Placements%22:[{%22A%22:4466,%22S%22:33599,%22D%22:%22mvTopBanner%22,%22AT%22:4,%22Z%22:[34894]},{%22A%22:4466,%22S%22:33599,%22D%22:%22mvBottomBanner%22,%22AT%22:4,%22Z%22:[34894]}],%22Keywords%22:%22undefined%22,%22Referrer%22:%22%22,%22IsAsync%22:true}'
p364
aS'ados?t=1521564466400&request={%22Placements%22:[{%22A%22:4466,%22S%22:33599,%22D%22:%22mvTopBanner%22,%22AT%22:4,%22Z%22:[34894]},{%22A%22:4466,%22S%22:33599,%22D%22:%22mvBottomBanner%22,%22AT%22:4,%22Z%22:[34894]}],%22Keywords%22:%22undefined%22,%22Referrer%22:%22%22,%22IsAsync%22:true}'
p365
aS'css/style.css'
p366
aS'i.gif?e=eyJhdiI6Mjg0MDgsImF0Ijo0LCJidCI6MCwiY20iOjM4OTcxLCJjaCI6MTQyOTUsImNrIjp7fSwiY3IiOjI4NzUyMzAsImRpIjoiZDk0YTUwZmIxOTY4NGZhZmEyMWU1ZTVjN2ZmMmJkMjkiLCJkaiI6MCwiaWkiOiJkNzI3NDQxN2E4M2I0MzYyOTNiNmM3ZWY3ZDM5ODk5NiIsImRtIjoxLCJmYyI6NDg1OTk3MCwiZmwiOjY1MDE3LCJpcCI6IjkyLjIzMi4xMjYuMTE3IiwibnciOjQ0NjYsInBjIjowLCJlYyI6MCwicHIiOjQ2NTk0LCJydCI6MSwicnMiOjUwMCwic2EiOiI5Iiwic2IiOiJpLTA1MzU2MjQ4MTYwMmQxZDZiIiwic3AiOjI0ODY2LCJzdCI6MzM1OTksInVrIjoidWUxLTBkZDQ5NmE5ZGQxODRlNjI5ZWIzYjUyZWJlODFjOWUxIiwiem4iOjM0ODk0LCJ0cyI6MTUyMTU2NDQ2NjcwMywiYmYiOnRydWUsInBuIjoibXZUb3BCYW5uZXIiLCJiYSI6MSwiZnEiOjB9&s=ZjGfdDyh8MgIG8c6LI_HpIbv7jU'
p367
aS'ados?t=1521564469082&request={%22Placements%22:[{%22A%22:4466,%22S%22:33599,%22D%22:%22mvTopBanner%22,%22AT%22:4,%22Z%22:[34894]},{%22A%22:4466,%22S%22:33599,%22D%22:%22mvBottomBanner%22,%22AT%22:4,%22Z%22:[34894]}],%22Keywords%22:%22undefined%22,%22Referrer%22:%22%22,%22IsAsync%22:true}'
p368
aS'i.gif?e=eyJhdiI6Mjk0NDYsImF0Ijo0LCJidCI6MCwiY20iOjQwNTAzLCJjaCI6MTQyOTUsImNrIjp7fSwiY3IiOjEwNTY3NywiZGkiOiI3YzIxZjUxNGI4ZTA0NDFkOWQ5YTdlYzhmYzQ4ZTI3ZCIsImRqIjowLCJpaSI6IjRhNjE2NDNhMTQzYTQ3NmVhZDcxYzM2YmQ4NzAwZGMzIiwiZG0iOjEsImZjIjoxNDQ2NTksImZsIjo3MTM0MywiaXAiOiI5Mi4yMzIuMTI2LjExNyIsIm53Ijo0NDY2LCJwYyI6MCwiZWMiOjAsInByIjo0NjU5NCwicnQiOjEsInJzIjo1MDAsInNhIjoiOSIsInNiIjoiaS0wNTM1NjI0ODE2MDJkMWQ2YiIsInNwIjoyNDg2Niwic3QiOjMzNTk5LCJ1ayI6InVlMS0wZGQ0OTZhOWRkMTg0ZTYyOWViM2I1MmViZTgxYzllMSIsInpuIjozNDg5NCwidHMiOjE1MjE1NjQ0NjY3MDQsImJmIjp0cnVlLCJwbiI6Im12Qm90dG9tQmFubmVyIiwiYmEiOjEsImZxIjowfQ&s=WRYtfagTkYylM_UvcXvfWDtBNpI'
p369
aS'i.gif?e=eyJhdiI6Mjk0NDYsImF0Ijo0LCJidCI6MCwiY20iOjQwNTAzLCJjaCI6MTQyOTUsImNrIjp7fSwiY3IiOjEwNTY3NywiZGkiOiI2NmY4ODc1OWM0Zjg0MDRlYmZiNjc0MDNmYjcyYzk3ZSIsImRqIjowLCJpaSI6Ijc1NGM3YzVmMjRmYzQ0ZmQ5NTE3MDUyZDc2OWY3MzBhIiwiZG0iOjEsImZjIjoxNDQ2NTksImZsIjo3MTM0MywiaXAiOiI5Mi4yMzIuMTI2LjExNyIsIm53Ijo0NDY2LCJwYyI6MCwiZWMiOjAsInByIjo0NjU5NCwicnQiOjEsInJzIjo1MDAsInNhIjoiOSIsInNiIjoiaS0wMGQwNmFlODQzYzFmOGNmOSIsInNwIjoxMzExMSwic3QiOjMzNTk5LCJ1ayI6InVlMS0wZGQ0OTZhOWRkMTg0ZTYyOWViM2I1MmViZTgxYzllMSIsInpuIjozNDg5NCwidHMiOjE1MjE1NjQ0Njk5NDQsImJmIjp0cnVlLCJwbiI6Im12VG9wQmFubmVyIiwiYmEiOjEsImZxIjowfQ&s=fTp8fvlRuWlMV2V05_3GJdKbW1c'
p370
aS'i.gif?e=eyJhdiI6Mjg0MDgsImF0Ijo0LCJidCI6MCwiY20iOjM4OTcxLCJjaCI6MTQyOTUsImNrIjp7fSwiY3IiOjI4NzUyMzAsImRpIjoiODA3N2I5NTBkYTcxNDI4ZmI5YWQ0NTY2NTFlMDc2ODciLCJkaiI6MCwiaWkiOiIzNmNmMTBkYmU2OGE0ZTRjOTgxYTBhNDU1MzhkMDE5NCIsImRtIjoxLCJmYyI6NDg1OTk3MCwiZmwiOjY1MDE3LCJpcCI6IjkyLjIzMi4xMjYuMTE3IiwibnciOjQ0NjYsInBjIjowLCJlYyI6MCwicHIiOjQ2NTk0LCJydCI6MSwicnMiOjUwMCwic2EiOiI5Iiwic2IiOiJpLTAwZDA2YWU4NDNjMWY4Y2Y5Iiwic3AiOjEzMTExLCJzdCI6MzM1OTksInVrIjoidWUxLTBkZDQ5NmE5ZGQxODRlNjI5ZWIzYjUyZWJlODFjOWUxIiwiem4iOjM0ODk0LCJ0cyI6MTUyMTU2NDQ2OTk0NSwiYmYiOnRydWUsInBuIjoibXZCb3R0b21CYW5uZXIiLCJiYSI6MSwiZnEiOjB9&s=yODpzZpSqs1jiRzaPReR5UfF45Y'
p371
aS'scribe/header_recentposts.gif'
p372
aS'scribe/header_archives.gif'
p373
aS'bloggerbutton1.gif'
p374
aS'hello/89/6940/320/DSCN1161.jpg'
p375
aS'scribe/bg.gif'
p376
aS'scribe/bg_paper_top.jpg'
p377
aS'scribe/bg_paper_mid.jpg'
p378
aS'scribe/divider.gif'
p379
aS'pagead/js/r20180312/r20170110/show_ads_impl.js'
p380
aS'scribe/bg_paper_bot.jpg'
p381
aS'codeofethics'
p382
aS'studio/chart/?studio=buenavista.htm'
p383
aS'css/mojo.css?1'
p384
aS'css?family=Open+Sans:400italic,400,300,600'
p385
aS'images/glyphicons-social-32-twitter@2x.png'
p386
aS'images/glyphicons-social-31-facebook@2x.png'
p387
aS'images/mojo_imdb_sm.png'
p388
aS'img/misc/IMDbSm.png'
p389
aS'ados?t=1521564491564&request={%22Placements%22:[{%22A%22:4466,%22S%22:33599,%22D%22:%22mvTopBanner%22,%22AT%22:4,%22Z%22:[34894]},{%22A%22:4466,%22S%22:33599,%22D%22:%22mvBottomBanner%22,%22AT%22:4,%22Z%22:[34894]}],%22Keywords%22:%22undefined%22,%22Referrer%22:%22http%3A%2F%2Faipg.org%2Faipgnews%22,%22IsAsync%22:true}'
p390
aS'success.txt'
p391
aS'fridge'
p392
aS'nationalnews'
p393
aS'cheese'
p394
aS'favicon.ico'
p395
aS'css/mojo.css?1'
p396
aS'Serving/adServer.bs?c=28&cn=display&pli=1073982656&w=728&h=90&ord=1521564493&z=0'
p397
aS'resources/sites/default/files/css/css_sSAe9sKteLQpXhdusjdSLXOzkfT5idajD-Lm1ejLyi4.css'
p398
aS'resources/sites/default/files/css/css_n4vMozhmpR69S-a4-LJzAGxDpdLR8G6xVUt9Gg-S2RE.css'
p399
aS'resources/sites/default/files/css/css_jSaH4HxV6a1gvgqB0v73hTivCXfrFlhS70RLVxVWB5Q.css'
p400
aS'resources///PROD/asset/111249/IMAGE/20180316/YouNeverHere_Pro_728x90_End_35621175976533778.jpg'
p401
aS'beacon.js'
p402
aS'css/style.css'
p403
aS'css?family=Open+Sans:400italic,400,300,600'
p404
aS'resources/sites/all/themes/custom/strawmandev/images/site-top-gradient-newsbank.png'
p405
aS'b?c1=2&c2=6034961&ns__t=1521564452290&ns_c=windows-1252&cv=3.1&c8=%27Black%20Panther%27%20Remains%20Box%20Office%20King%2C%20Topping%20%241%20Billion%20Worldwide%20-%20Box%20Office%20Mojo&c7=http%3A%2F%2Fwww.boxofficemojo.com%2Fnews%2F%3Fid%3D4378%26p%3D.htm&c9='
p406
aS'images/footerbg.png'
p407
aS'ados?t=1521564455018&request={%22Placements%22:[{%22A%22:4466,%22S%22:33599,%22D%22:%22mvTopBanner%22,%22AT%22:4,%22Z%22:[34894]},{%22A%22:4466,%22S%22:33599,%22D%22:%22mvBottomBanner%22,%22AT%22:4,%22Z%22:[34894]}],%22Keywords%22:%22undefined%22,%22Referrer%22:%22http%3A%2F%2Faipg.org%2Fnationalnews%22,%22IsAsync%22:true}'
p408
aS'weekly/'
p409
aS'quarterly/'
p410
aS'i.gif?e=eyJhdiI6Mjg0MDgsImF0Ijo0LCJidCI6MCwiY20iOjM4OTcxLCJjaCI6MTQyOTUsImNrIjp7fSwiY3IiOjI4NzUyMzAsImRpIjoiMTI1YzYxNTIxNTUzNDE0YWIyNTM0NWM0YzhiYTFjZmUiLCJkaiI6MCwiaWkiOiIwYmJiMGRiYjJlNTc0MzM2YWM3Mzk0ZWJiYjc4MDRhYSIsImRtIjoxLCJmYyI6NDg1OTk3MCwiZmwiOjY1MDE3LCJpcCI6IjkyLjIzMi4xMjYuMTE3IiwibnciOjQ0NjYsInBjIjowLCJlYyI6MCwicHIiOjQ2NTk0LCJydCI6MSwicmYiOiJodHRwOi8vYWlwZy5vcmcvbmF0aW9uYWxuZXdzIiwicnMiOjUwMCwic2EiOiI5Iiwic2IiOiJpLTA1MzU2MjQ4MTYwMmQxZDZiIiwic3AiOjE2MTIzLCJzdCI6MzM1OTksInVrIjoidWUxLTBkZDQ5NmE5ZGQxODRlNjI5ZWIzYjUyZWJlODFjOWUxIiwiem4iOjM0ODk0LCJ0cyI6MTUyMTU2NDQ1NTY1NiwiYmYiOnRydWUsInBuIjoibXZCb3R0b21CYW5uZXIiLCJiYSI6MSwiZnEiOjB9&s=5rs4Tc568iwG2L6DJe4eVuS4YDw'
p411
aS'Serving/adServer.bs?c=28&cn=display&pli=1073982656&w=728&h=90&ord=1521564456&z=0'
p412
aS'iu3?d=boxofficemojo.com&cb=695355168257420'
p413
aS'resources///PROD/asset/111249/IMAGE/20180316/YouNeverHere_Pro_728x90_End_35621175976533778.jpg'
p414
aS'b?c1=2&c2=6034961&ns__t=1521564458116&ns_c=windows-1252&cv=3.1&c8=Weekly%20Box%20Office%20Index%2C%201982-Present%20-%20Box%20Office%20Mojo&c7=http%3A%2F%2Fwww.boxofficemojo.com%2Fweekly%2F&c9=http%3A%2F%2Fwww.boxofficemojo.com%2Fnews%2F%3Fid%3D4378%26p%3D.htm'
p415
aS'b?c1=2&c2=6034961&ns__t=1521564458740&ns_c=windows-1252&cv=3.1&c8=Box%20Office%20Results%20by%20Quarter&c7=http%3A%2F%2Fwww.boxofficemojo.com%2Fquarterly%2F&c9=http%3A%2F%2Fwww.boxofficemojo.com%2Fnews%2F%3Fid%3D4378%26p%3D.htm'
p416
aS'about'
p417
aS'favicon.ico'
p418
aS'iu3?d=boxofficemojo.com&cb=508068813793066.7'
p419
aS'sites/default/files/css/css_lQaZfjVpwP_oGNqdtWCSpJT1EMqXdMiU84ekLLxQnc4.css'
p420
aS'disciplinaryactions'
p421
aS'aipgnews'
p422
aS'css/style.css'
p423
aS'ados?t=1521564465312&request={%22Placements%22:[{%22A%22:4466,%22S%22:33599,%22D%22:%22mvTopBanner%22,%22AT%22:4,%22Z%22:[34894]},{%22A%22:4466,%22S%22:33599,%22D%22:%22mvBottomBanner%22,%22AT%22:4,%22Z%22:[34894]}],%22Keywords%22:%22undefined%22,%22Referrer%22:%22%22,%22IsAsync%22:true}'
p424
aS'ados?t=1521564466400&request={%22Placements%22:[{%22A%22:4466,%22S%22:33599,%22D%22:%22mvTopBanner%22,%22AT%22:4,%22Z%22:[34894]},{%22A%22:4466,%22S%22:33599,%22D%22:%22mvBottomBanner%22,%22AT%22:4,%22Z%22:[34894]}],%22Keywords%22:%22undefined%22,%22Referrer%22:%22%22,%22IsAsync%22:true}'
p425
aS'css/style.css'
p426
aS'i.gif?e=eyJhdiI6Mjg0MDgsImF0Ijo0LCJidCI6MCwiY20iOjM4OTcxLCJjaCI6MTQyOTUsImNrIjp7fSwiY3IiOjI4NzUyMzAsImRpIjoiZDk0YTUwZmIxOTY4NGZhZmEyMWU1ZTVjN2ZmMmJkMjkiLCJkaiI6MCwiaWkiOiJkNzI3NDQxN2E4M2I0MzYyOTNiNmM3ZWY3ZDM5ODk5NiIsImRtIjoxLCJmYyI6NDg1OTk3MCwiZmwiOjY1MDE3LCJpcCI6IjkyLjIzMi4xMjYuMTE3IiwibnciOjQ0NjYsInBjIjowLCJlYyI6MCwicHIiOjQ2NTk0LCJydCI6MSwicnMiOjUwMCwic2EiOiI5Iiwic2IiOiJpLTA1MzU2MjQ4MTYwMmQxZDZiIiwic3AiOjI0ODY2LCJzdCI6MzM1OTksInVrIjoidWUxLTBkZDQ5NmE5ZGQxODRlNjI5ZWIzYjUyZWJlODFjOWUxIiwiem4iOjM0ODk0LCJ0cyI6MTUyMTU2NDQ2NjcwMywiYmYiOnRydWUsInBuIjoibXZUb3BCYW5uZXIiLCJiYSI6MSwiZnEiOjB9&s=ZjGfdDyh8MgIG8c6LI_HpIbv7jU'
p427
aS'ados?t=1521564469082&request={%22Placements%22:[{%22A%22:4466,%22S%22:33599,%22D%22:%22mvTopBanner%22,%22AT%22:4,%22Z%22:[34894]},{%22A%22:4466,%22S%22:33599,%22D%22:%22mvBottomBanner%22,%22AT%22:4,%22Z%22:[34894]}],%22Keywords%22:%22undefined%22,%22Referrer%22:%22%22,%22IsAsync%22:true}'
p428
aS'i.gif?e=eyJhdiI6Mjk0NDYsImF0Ijo0LCJidCI6MCwiY20iOjQwNTAzLCJjaCI6MTQyOTUsImNrIjp7fSwiY3IiOjEwNTY3NywiZGkiOiI3YzIxZjUxNGI4ZTA0NDFkOWQ5YTdlYzhmYzQ4ZTI3ZCIsImRqIjowLCJpaSI6IjRhNjE2NDNhMTQzYTQ3NmVhZDcxYzM2YmQ4NzAwZGMzIiwiZG0iOjEsImZjIjoxNDQ2NTksImZsIjo3MTM0MywiaXAiOiI5Mi4yMzIuMTI2LjExNyIsIm53Ijo0NDY2LCJwYyI6MCwiZWMiOjAsInByIjo0NjU5NCwicnQiOjEsInJzIjo1MDAsInNhIjoiOSIsInNiIjoiaS0wNTM1NjI0ODE2MDJkMWQ2YiIsInNwIjoyNDg2Niwic3QiOjMzNTk5LCJ1ayI6InVlMS0wZGQ0OTZhOWRkMTg0ZTYyOWViM2I1MmViZTgxYzllMSIsInpuIjozNDg5NCwidHMiOjE1MjE1NjQ0NjY3MDQsImJmIjp0cnVlLCJwbiI6Im12Qm90dG9tQmFubmVyIiwiYmEiOjEsImZxIjowfQ&s=WRYtfagTkYylM_UvcXvfWDtBNpI'
p429
aS'i.gif?e=eyJhdiI6Mjk0NDYsImF0Ijo0LCJidCI6MCwiY20iOjQwNTAzLCJjaCI6MTQyOTUsImNrIjp7fSwiY3IiOjEwNTY3NywiZGkiOiI2NmY4ODc1OWM0Zjg0MDRlYmZiNjc0MDNmYjcyYzk3ZSIsImRqIjowLCJpaSI6Ijc1NGM3YzVmMjRmYzQ0ZmQ5NTE3MDUyZDc2OWY3MzBhIiwiZG0iOjEsImZjIjoxNDQ2NTksImZsIjo3MTM0MywiaXAiOiI5Mi4yMzIuMTI2LjExNyIsIm53Ijo0NDY2LCJwYyI6MCwiZWMiOjAsInByIjo0NjU5NCwicnQiOjEsInJzIjo1MDAsInNhIjoiOSIsInNiIjoiaS0wMGQwNmFlODQzYzFmOGNmOSIsInNwIjoxMzExMSwic3QiOjMzNTk5LCJ1ayI6InVlMS0wZGQ0OTZhOWRkMTg0ZTYyOWViM2I1MmViZTgxYzllMSIsInpuIjozNDg5NCwidHMiOjE1MjE1NjQ0Njk5NDQsImJmIjp0cnVlLCJwbiI6Im12VG9wQmFubmVyIiwiYmEiOjEsImZxIjowfQ&s=fTp8fvlRuWlMV2V05_3GJdKbW1c'
p430
aS'i.gif?e=eyJhdiI6Mjg0MDgsImF0Ijo0LCJidCI6MCwiY20iOjM4OTcxLCJjaCI6MTQyOTUsImNrIjp7fSwiY3IiOjI4NzUyMzAsImRpIjoiODA3N2I5NTBkYTcxNDI4ZmI5YWQ0NTY2NTFlMDc2ODciLCJkaiI6MCwiaWkiOiIzNmNmMTBkYmU2OGE0ZTRjOTgxYTBhNDU1MzhkMDE5NCIsImRtIjoxLCJmYyI6NDg1OTk3MCwiZmwiOjY1MDE3LCJpcCI6IjkyLjIzMi4xMjYuMTE3IiwibnciOjQ0NjYsInBjIjowLCJlYyI6MCwicHIiOjQ2NTk0LCJydCI6MSwicnMiOjUwMCwic2EiOiI5Iiwic2IiOiJpLTAwZDA2YWU4NDNjMWY4Y2Y5Iiwic3AiOjEzMTExLCJzdCI6MzM1OTksInVrIjoidWUxLTBkZDQ5NmE5ZGQxODRlNjI5ZWIzYjUyZWJlODFjOWUxIiwiem4iOjM0ODk0LCJ0cyI6MTUyMTU2NDQ2OTk0NSwiYmYiOnRydWUsInBuIjoibXZCb3R0b21CYW5uZXIiLCJiYSI6MSwiZnEiOjB9&s=yODpzZpSqs1jiRzaPReR5UfF45Y'
p431
aS'scribe/header_recentposts.gif'
p432
aS'scribe/header_archives.gif'
p433
aS'bloggerbutton1.gif'
p434
aS'hello/89/6940/320/DSCN1161.jpg'
p435
aS'scribe/bg.gif'
p436
aS'scribe/bg_paper_top.jpg'
p437
aS'scribe/bg_paper_mid.jpg'
p438
aS'scribe/divider.gif'
p439
aS'pagead/js/r20180312/r20170110/show_ads_impl.js'
p440
aS'scribe/bg_paper_bot.jpg'
p441
aS'codeofethics'
p442
aS'studio/chart/?studio=buenavista.htm'
p443
aS'css/mojo.css?1'
p444
aS'css?family=Open+Sans:400italic,400,300,600'
p445
aS'images/glyphicons-social-32-twitter@2x.png'
p446
aS'images/glyphicons-social-31-facebook@2x.png'
p447
aS'images/mojo_imdb_sm.png'
p448
aS'img/misc/IMDbSm.png'
p449
aS'ados?t=1521564491564&request={%22Placements%22:[{%22A%22:4466,%22S%22:33599,%22D%22:%22mvTopBanner%22,%22AT%22:4,%22Z%22:[34894]},{%22A%22:4466,%22S%22:33599,%22D%22:%22mvBottomBanner%22,%22AT%22:4,%22Z%22:[34894]}],%22Keywords%22:%22undefined%22,%22Referrer%22:%22http%3A%2F%2Faipg.org%2Faipgnews%22,%22IsAsync%22:true}'
p450
aS'b2?c1=2&c2=6034961&ns__t=1521564491870&ns_c=windows-1252&cv=3.1&c8=Buena%20Vista%20All%20Time%20Box%20Office%20Results&c7=http%3A%2F%2Fwww.boxofficemojo.com%2Fstudio%2Fchart%2F%3Fstudio%3Dbuenavista.htm&c9='
p451
aS'success.txt'
p452
aS'bylaws'
p453
aS'disciplinaryprocedures'
p454
aS'images/aipg_logos/new%20logo/AIPG_san_serif.jpg'
p455
aS'success.txt'
p456
aS'fridge'
p457
aS'nationalnews'
p458
aS'cheese'
p459
aS'favicon.ico'
p460
aS'css/mojo.css?1'
p461
aS'Serving/adServer.bs?c=28&cn=display&pli=1073982656&w=728&h=90&ord=1521564493&z=0'
p462
aS'resources/sites/default/files/css/css_sSAe9sKteLQpXhdusjdSLXOzkfT5idajD-Lm1ejLyi4.css'
p463
aS'resources/sites/default/files/css/css_n4vMozhmpR69S-a4-LJzAGxDpdLR8G6xVUt9Gg-S2RE.css'
p464
aS'resources/sites/default/files/css/css_jSaH4HxV6a1gvgqB0v73hTivCXfrFlhS70RLVxVWB5Q.css'
p465
aS'resources///PROD/asset/111249/IMAGE/20180316/YouNeverHere_Pro_728x90_End_35621175976533778.jpg'
p466
aS'beacon.js'
p467
aS'css/style.css'
p468
aS'css?family=Open+Sans:400italic,400,300,600'
p469
aS'resources/sites/all/themes/custom/strawmandev/images/site-top-gradient-newsbank.png'
p470
aS'b?c1=2&c2=6034961&ns__t=1521564452290&ns_c=windows-1252&cv=3.1&c8=%27Black%20Panther%27%20Remains%20Box%20Office%20King%2C%20Topping%20%241%20Billion%20Worldwide%20-%20Box%20Office%20Mojo&c7=http%3A%2F%2Fwww.boxofficemojo.com%2Fnews%2F%3Fid%3D4378%26p%3D.htm&c9='
p471
aS'images/footerbg.png'
p472
aS'ados?t=1521564455018&request={%22Placements%22:[{%22A%22:4466,%22S%22:33599,%22D%22:%22mvTopBanner%22,%22AT%22:4,%22Z%22:[34894]},{%22A%22:4466,%22S%22:33599,%22D%22:%22mvBottomBanner%22,%22AT%22:4,%22Z%22:[34894]}],%22Keywords%22:%22undefined%22,%22Referrer%22:%22http%3A%2F%2Faipg.org%2Fnationalnews%22,%22IsAsync%22:true}'
p473
aS'weekly/'
p474
aS'quarterly/'
p475
aS'i.gif?e=eyJhdiI6Mjg0MDgsImF0Ijo0LCJidCI6MCwiY20iOjM4OTcxLCJjaCI6MTQyOTUsImNrIjp7fSwiY3IiOjI4NzUyMzAsImRpIjoiMTI1YzYxNTIxNTUzNDE0YWIyNTM0NWM0YzhiYTFjZmUiLCJkaiI6MCwiaWkiOiIwYmJiMGRiYjJlNTc0MzM2YWM3Mzk0ZWJiYjc4MDRhYSIsImRtIjoxLCJmYyI6NDg1OTk3MCwiZmwiOjY1MDE3LCJpcCI6IjkyLjIzMi4xMjYuMTE3IiwibnciOjQ0NjYsInBjIjowLCJlYyI6MCwicHIiOjQ2NTk0LCJydCI6MSwicmYiOiJodHRwOi8vYWlwZy5vcmcvbmF0aW9uYWxuZXdzIiwicnMiOjUwMCwic2EiOiI5Iiwic2IiOiJpLTA1MzU2MjQ4MTYwMmQxZDZiIiwic3AiOjE2MTIzLCJzdCI6MzM1OTksInVrIjoidWUxLTBkZDQ5NmE5ZGQxODRlNjI5ZWIzYjUyZWJlODFjOWUxIiwiem4iOjM0ODk0LCJ0cyI6MTUyMTU2NDQ1NTY1NiwiYmYiOnRydWUsInBuIjoibXZCb3R0b21CYW5uZXIiLCJiYSI6MSwiZnEiOjB9&s=5rs4Tc568iwG2L6DJe4eVuS4YDw'
p476
aS'Serving/adServer.bs?c=28&cn=display&pli=1073982656&w=728&h=90&ord=1521564456&z=0'
p477
aS'iu3?d=boxofficemojo.com&cb=695355168257420'
p478
aS'resources///PROD/asset/111249/IMAGE/20180316/YouNeverHere_Pro_728x90_End_35621175976533778.jpg'
p479
aS'b?c1=2&c2=6034961&ns__t=1521564458116&ns_c=windows-1252&cv=3.1&c8=Weekly%20Box%20Office%20Index%2C%201982-Present%20-%20Box%20Office%20Mojo&c7=http%3A%2F%2Fwww.boxofficemojo.com%2Fweekly%2F&c9=http%3A%2F%2Fwww.boxofficemojo.com%2Fnews%2F%3Fid%3D4378%26p%3D.htm'
p480
aS'b?c1=2&c2=6034961&ns__t=1521564458740&ns_c=windows-1252&cv=3.1&c8=Box%20Office%20Results%20by%20Quarter&c7=http%3A%2F%2Fwww.boxofficemojo.com%2Fquarterly%2F&c9=http%3A%2F%2Fwww.boxofficemojo.com%2Fnews%2F%3Fid%3D4378%26p%3D.htm'
p481
aS'about'
p482
aS'favicon.ico'
p483
aS'iu3?d=boxofficemojo.com&cb=508068813793066.7'
p484
aS'sites/default/files/css/css_lQaZfjVpwP_oGNqdtWCSpJT1EMqXdMiU84ekLLxQnc4.css'
p485
aS'disciplinaryactions'
p486
aS'aipgnews'
p487
aS'css/style.css'
p488
aS'ados?t=1521564465312&request={%22Placements%22:[{%22A%22:4466,%22S%22:33599,%22D%22:%22mvTopBanner%22,%22AT%22:4,%22Z%22:[34894]},{%22A%22:4466,%22S%22:33599,%22D%22:%22mvBottomBanner%22,%22AT%22:4,%22Z%22:[34894]}],%22Keywords%22:%22undefined%22,%22Referrer%22:%22%22,%22IsAsync%22:true}'
p489
aS'ados?t=1521564466400&request={%22Placements%22:[{%22A%22:4466,%22S%22:33599,%22D%22:%22mvTopBanner%22,%22AT%22:4,%22Z%22:[34894]},{%22A%22:4466,%22S%22:33599,%22D%22:%22mvBottomBanner%22,%22AT%22:4,%22Z%22:[34894]}],%22Keywords%22:%22undefined%22,%22Referrer%22:%22%22,%22IsAsync%22:true}'
p490
aS'css/style.css'
p491
aS'i.gif?e=eyJhdiI6Mjg0MDgsImF0Ijo0LCJidCI6MCwiY20iOjM4OTcxLCJjaCI6MTQyOTUsImNrIjp7fSwiY3IiOjI4NzUyMzAsImRpIjoiZDk0YTUwZmIxOTY4NGZhZmEyMWU1ZTVjN2ZmMmJkMjkiLCJkaiI6MCwiaWkiOiJkNzI3NDQxN2E4M2I0MzYyOTNiNmM3ZWY3ZDM5ODk5NiIsImRtIjoxLCJmYyI6NDg1OTk3MCwiZmwiOjY1MDE3LCJpcCI6IjkyLjIzMi4xMjYuMTE3IiwibnciOjQ0NjYsInBjIjowLCJlYyI6MCwicHIiOjQ2NTk0LCJydCI6MSwicnMiOjUwMCwic2EiOiI5Iiwic2IiOiJpLTA1MzU2MjQ4MTYwMmQxZDZiIiwic3AiOjI0ODY2LCJzdCI6MzM1OTksInVrIjoidWUxLTBkZDQ5NmE5ZGQxODRlNjI5ZWIzYjUyZWJlODFjOWUxIiwiem4iOjM0ODk0LCJ0cyI6MTUyMTU2NDQ2NjcwMywiYmYiOnRydWUsInBuIjoibXZUb3BCYW5uZXIiLCJiYSI6MSwiZnEiOjB9&s=ZjGfdDyh8MgIG8c6LI_HpIbv7jU'
p492
aS'ados?t=1521564469082&request={%22Placements%22:[{%22A%22:4466,%22S%22:33599,%22D%22:%22mvTopBanner%22,%22AT%22:4,%22Z%22:[34894]},{%22A%22:4466,%22S%22:33599,%22D%22:%22mvBottomBanner%22,%22AT%22:4,%22Z%22:[34894]}],%22Keywords%22:%22undefined%22,%22Referrer%22:%22%22,%22IsAsync%22:true}'
p493
aS'i.gif?e=eyJhdiI6Mjk0NDYsImF0Ijo0LCJidCI6MCwiY20iOjQwNTAzLCJjaCI6MTQyOTUsImNrIjp7fSwiY3IiOjEwNTY3NywiZGkiOiI3YzIxZjUxNGI4ZTA0NDFkOWQ5YTdlYzhmYzQ4ZTI3ZCIsImRqIjowLCJpaSI6IjRhNjE2NDNhMTQzYTQ3NmVhZDcxYzM2YmQ4NzAwZGMzIiwiZG0iOjEsImZjIjoxNDQ2NTksImZsIjo3MTM0MywiaXAiOiI5Mi4yMzIuMTI2LjExNyIsIm53Ijo0NDY2LCJwYyI6MCwiZWMiOjAsInByIjo0NjU5NCwicnQiOjEsInJzIjo1MDAsInNhIjoiOSIsInNiIjoiaS0wNTM1NjI0ODE2MDJkMWQ2YiIsInNwIjoyNDg2Niwic3QiOjMzNTk5LCJ1ayI6InVlMS0wZGQ0OTZhOWRkMTg0ZTYyOWViM2I1MmViZTgxYzllMSIsInpuIjozNDg5NCwidHMiOjE1MjE1NjQ0NjY3MDQsImJmIjp0cnVlLCJwbiI6Im12Qm90dG9tQmFubmVyIiwiYmEiOjEsImZxIjowfQ&s=WRYtfagTkYylM_UvcXvfWDtBNpI'
p494
aS'i.gif?e=eyJhdiI6Mjk0NDYsImF0Ijo0LCJidCI6MCwiY20iOjQwNTAzLCJjaCI6MTQyOTUsImNrIjp7fSwiY3IiOjEwNTY3NywiZGkiOiI2NmY4ODc1OWM0Zjg0MDRlYmZiNjc0MDNmYjcyYzk3ZSIsImRqIjowLCJpaSI6Ijc1NGM3YzVmMjRmYzQ0ZmQ5NTE3MDUyZDc2OWY3MzBhIiwiZG0iOjEsImZjIjoxNDQ2NTksImZsIjo3MTM0MywiaXAiOiI5Mi4yMzIuMTI2LjExNyIsIm53Ijo0NDY2LCJwYyI6MCwiZWMiOjAsInByIjo0NjU5NCwicnQiOjEsInJzIjo1MDAsInNhIjoiOSIsInNiIjoiaS0wMGQwNmFlODQzYzFmOGNmOSIsInNwIjoxMzExMSwic3QiOjMzNTk5LCJ1ayI6InVlMS0wZGQ0OTZhOWRkMTg0ZTYyOWViM2I1MmViZTgxYzllMSIsInpuIjozNDg5NCwidHMiOjE1MjE1NjQ0Njk5NDQsImJmIjp0cnVlLCJwbiI6Im12VG9wQmFubmVyIiwiYmEiOjEsImZxIjowfQ&s=fTp8fvlRuWlMV2V05_3GJdKbW1c'
p495
aS'i.gif?e=eyJhdiI6Mjg0MDgsImF0Ijo0LCJidCI6MCwiY20iOjM4OTcxLCJjaCI6MTQyOTUsImNrIjp7fSwiY3IiOjI4NzUyMzAsImRpIjoiODA3N2I5NTBkYTcxNDI4ZmI5YWQ0NTY2NTFlMDc2ODciLCJkaiI6MCwiaWkiOiIzNmNmMTBkYmU2OGE0ZTRjOTgxYTBhNDU1MzhkMDE5NCIsImRtIjoxLCJmYyI6NDg1OTk3MCwiZmwiOjY1MDE3LCJpcCI6IjkyLjIzMi4xMjYuMTE3IiwibnciOjQ0NjYsInBjIjowLCJlYyI6MCwicHIiOjQ2NTk0LCJydCI6MSwicnMiOjUwMCwic2EiOiI5Iiwic2IiOiJpLTAwZDA2YWU4NDNjMWY4Y2Y5Iiwic3AiOjEzMTExLCJzdCI6MzM1OTksInVrIjoidWUxLTBkZDQ5NmE5ZGQxODRlNjI5ZWIzYjUyZWJlODFjOWUxIiwiem4iOjM0ODk0LCJ0cyI6MTUyMTU2NDQ2OTk0NSwiYmYiOnRydWUsInBuIjoibXZCb3R0b21CYW5uZXIiLCJiYSI6MSwiZnEiOjB9&s=yODpzZpSqs1jiRzaPReR5UfF45Y'
p496
aS'scribe/header_recentposts.gif'
p497
aS'scribe/header_archives.gif'
p498
aS'bloggerbutton1.gif'
p499
aS'hello/89/6940/320/DSCN1161.jpg'
p500
aS'scribe/bg.gif'
p501
aS'scribe/bg_paper_top.jpg'
p502
aS'scribe/bg_paper_mid.jpg'
p503
aS'scribe/divider.gif'
p504
aS'pagead/js/r20180312/r20170110/show_ads_impl.js'
p505
aS'scribe/bg_paper_bot.jpg'
p506
aS'codeofethics'
p507
aS'studio/chart/?studio=buenavista.htm'
p508
aS'css/mojo.css?1'
p509
aS'css?family=Open+Sans:400italic,400,300,600'
p510
aS'images/glyphicons-social-32-twitter@2x.png'
p511
aS'images/glyphicons-social-31-facebook@2x.png'
p512
aS'images/mojo_imdb_sm.png'
p513
aS'img/misc/IMDbSm.png'
p514
aS'ados?t=1521564491564&request={%22Placements%22:[{%22A%22:4466,%22S%22:33599,%22D%22:%22mvTopBanner%22,%22AT%22:4,%22Z%22:[34894]},{%22A%22:4466,%22S%22:33599,%22D%22:%22mvBottomBanner%22,%22AT%22:4,%22Z%22:[34894]}],%22Keywords%22:%22undefined%22,%22Referrer%22:%22http%3A%2F%2Faipg.org%2Faipgnews%22,%22IsAsync%22:true}'
p515
aS'b2?c1=2&c2=6034961&ns__t=1521564491870&ns_c=windows-1252&cv=3.1&c8=Buena%20Vista%20All%20Time%20Box%20Office%20Results&c7=http%3A%2F%2Fwww.boxofficemojo.com%2Fstudio%2Fchart%2F%3Fstudio%3Dbuenavista.htm&c9='
p516
aS'success.txt'
p517
aS'bylaws'
p518
aS'disciplinaryprocedures'
p519
aS'images/aipg_logos/new%20logo/AIPG_san_serif.jpg'
p520
aS'disciplinaryactions'
p521
aS'ados?t=1521564505670&request={%22Placements%22:[{%22A%22:4466,%22S%22:33599,%22D%22:%22mvTopBanner%22,%22AT%22:4,%22Z%22:[34894]},{%22A%22:4466,%22S%22:33599,%22D%22:%22mvBottomBanner%22,%22AT%22:4,%22Z%22:[34894]}],%22Keywords%22:%22undefined%22,%22Referrer%22:%22http%3A%2F%2Faipg.org%2Fcodeofethics%22,%22IsAsync%22:true}'
p522
aS'css/style.css'
p523
aS'css/responsivemultimenu.css'
p524
aS'css/bjqs.css'
p525
aS'success.txt'
p526
aS'fridge'
p527
aS'nationalnews'
p528
aS'cheese'
p529
aS'favicon.ico'
p530
aS'css/mojo.css?1'
p531
aS'Serving/adServer.bs?c=28&cn=display&pli=1073982656&w=728&h=90&ord=1521564493&z=0'
p532
aS'resources/sites/default/files/css/css_sSAe9sKteLQpXhdusjdSLXOzkfT5idajD-Lm1ejLyi4.css'
p533
aS'resources/sites/default/files/css/css_n4vMozhmpR69S-a4-LJzAGxDpdLR8G6xVUt9Gg-S2RE.css'
p534
aS'resources/sites/default/files/css/css_jSaH4HxV6a1gvgqB0v73hTivCXfrFlhS70RLVxVWB5Q.css'
p535
aS'resources///PROD/asset/111249/IMAGE/20180316/YouNeverHere_Pro_728x90_End_35621175976533778.jpg'
p536
aS'beacon.js'
p537
aS'css/style.css'
p538
aS'css?family=Open+Sans:400italic,400,300,600'
p539
aS'resources/sites/all/themes/custom/strawmandev/images/site-top-gradient-newsbank.png'
p540
aS'b?c1=2&c2=6034961&ns__t=1521564452290&ns_c=windows-1252&cv=3.1&c8=%27Black%20Panther%27%20Remains%20Box%20Office%20King%2C%20Topping%20%241%20Billion%20Worldwide%20-%20Box%20Office%20Mojo&c7=http%3A%2F%2Fwww.boxofficemojo.com%2Fnews%2F%3Fid%3D4378%26p%3D.htm&c9='
p541
aS'images/footerbg.png'
p542
aS'ados?t=1521564455018&request={%22Placements%22:[{%22A%22:4466,%22S%22:33599,%22D%22:%22mvTopBanner%22,%22AT%22:4,%22Z%22:[34894]},{%22A%22:4466,%22S%22:33599,%22D%22:%22mvBottomBanner%22,%22AT%22:4,%22Z%22:[34894]}],%22Keywords%22:%22undefined%22,%22Referrer%22:%22http%3A%2F%2Faipg.org%2Fnationalnews%22,%22IsAsync%22:true}'
p543
aS'weekly/'
p544
aS'quarterly/'
p545
aS'i.gif?e=eyJhdiI6Mjg0MDgsImF0Ijo0LCJidCI6MCwiY20iOjM4OTcxLCJjaCI6MTQyOTUsImNrIjp7fSwiY3IiOjI4NzUyMzAsImRpIjoiMTI1YzYxNTIxNTUzNDE0YWIyNTM0NWM0YzhiYTFjZmUiLCJkaiI6MCwiaWkiOiIwYmJiMGRiYjJlNTc0MzM2YWM3Mzk0ZWJiYjc4MDRhYSIsImRtIjoxLCJmYyI6NDg1OTk3MCwiZmwiOjY1MDE3LCJpcCI6IjkyLjIzMi4xMjYuMTE3IiwibnciOjQ0NjYsInBjIjowLCJlYyI6MCwicHIiOjQ2NTk0LCJydCI6MSwicmYiOiJodHRwOi8vYWlwZy5vcmcvbmF0aW9uYWxuZXdzIiwicnMiOjUwMCwic2EiOiI5Iiwic2IiOiJpLTA1MzU2MjQ4MTYwMmQxZDZiIiwic3AiOjE2MTIzLCJzdCI6MzM1OTksInVrIjoidWUxLTBkZDQ5NmE5ZGQxODRlNjI5ZWIzYjUyZWJlODFjOWUxIiwiem4iOjM0ODk0LCJ0cyI6MTUyMTU2NDQ1NTY1NiwiYmYiOnRydWUsInBuIjoibXZCb3R0b21CYW5uZXIiLCJiYSI6MSwiZnEiOjB9&s=5rs4Tc568iwG2L6DJe4eVuS4YDw'
p546
aS'Serving/adServer.bs?c=28&cn=display&pli=1073982656&w=728&h=90&ord=1521564456&z=0'
p547
aS'iu3?d=boxofficemojo.com&cb=695355168257420'
p548
aS'resources///PROD/asset/111249/IMAGE/20180316/YouNeverHere_Pro_728x90_End_35621175976533778.jpg'
p549
aS'b?c1=2&c2=6034961&ns__t=1521564458116&ns_c=windows-1252&cv=3.1&c8=Weekly%20Box%20Office%20Index%2C%201982-Present%20-%20Box%20Office%20Mojo&c7=http%3A%2F%2Fwww.boxofficemojo.com%2Fweekly%2F&c9=http%3A%2F%2Fwww.boxofficemojo.com%2Fnews%2F%3Fid%3D4378%26p%3D.htm'
p550
aS'b?c1=2&c2=6034961&ns__t=1521564458740&ns_c=windows-1252&cv=3.1&c8=Box%20Office%20Results%20by%20Quarter&c7=http%3A%2F%2Fwww.boxofficemojo.com%2Fquarterly%2F&c9=http%3A%2F%2Fwww.boxofficemojo.com%2Fnews%2F%3Fid%3D4378%26p%3D.htm'
p551
aS'about'
p552
aS'favicon.ico'
p553
aS'iu3?d=boxofficemojo.com&cb=508068813793066.7'
p554
aS'sites/default/files/css/css_lQaZfjVpwP_oGNqdtWCSpJT1EMqXdMiU84ekLLxQnc4.css'
p555
aS'disciplinaryactions'
p556
aS'aipgnews'
p557
aS'css/style.css'
p558
aS'ados?t=1521564465312&request={%22Placements%22:[{%22A%22:4466,%22S%22:33599,%22D%22:%22mvTopBanner%22,%22AT%22:4,%22Z%22:[34894]},{%22A%22:4466,%22S%22:33599,%22D%22:%22mvBottomBanner%22,%22AT%22:4,%22Z%22:[34894]}],%22Keywords%22:%22undefined%22,%22Referrer%22:%22%22,%22IsAsync%22:true}'
p559
aS'ados?t=1521564466400&request={%22Placements%22:[{%22A%22:4466,%22S%22:33599,%22D%22:%22mvTopBanner%22,%22AT%22:4,%22Z%22:[34894]},{%22A%22:4466,%22S%22:33599,%22D%22:%22mvBottomBanner%22,%22AT%22:4,%22Z%22:[34894]}],%22Keywords%22:%22undefined%22,%22Referrer%22:%22%22,%22IsAsync%22:true}'
p560
aS'css/style.css'
p561
aS'i.gif?e=eyJhdiI6Mjg0MDgsImF0Ijo0LCJidCI6MCwiY20iOjM4OTcxLCJjaCI6MTQyOTUsImNrIjp7fSwiY3IiOjI4NzUyMzAsImRpIjoiZDk0YTUwZmIxOTY4NGZhZmEyMWU1ZTVjN2ZmMmJkMjkiLCJkaiI6MCwiaWkiOiJkNzI3NDQxN2E4M2I0MzYyOTNiNmM3ZWY3ZDM5ODk5NiIsImRtIjoxLCJmYyI6NDg1OTk3MCwiZmwiOjY1MDE3LCJpcCI6IjkyLjIzMi4xMjYuMTE3IiwibnciOjQ0NjYsInBjIjowLCJlYyI6MCwicHIiOjQ2NTk0LCJydCI6MSwicnMiOjUwMCwic2EiOiI5Iiwic2IiOiJpLTA1MzU2MjQ4MTYwMmQxZDZiIiwic3AiOjI0ODY2LCJzdCI6MzM1OTksInVrIjoidWUxLTBkZDQ5NmE5ZGQxODRlNjI5ZWIzYjUyZWJlODFjOWUxIiwiem4iOjM0ODk0LCJ0cyI6MTUyMTU2NDQ2NjcwMywiYmYiOnRydWUsInBuIjoibXZUb3BCYW5uZXIiLCJiYSI6MSwiZnEiOjB9&s=ZjGfdDyh8MgIG8c6LI_HpIbv7jU'
p562
aS'ados?t=1521564469082&request={%22Placements%22:[{%22A%22:4466,%22S%22:33599,%22D%22:%22mvTopBanner%22,%22AT%22:4,%22Z%22:[34894]},{%22A%22:4466,%22S%22:33599,%22D%22:%22mvBottomBanner%22,%22AT%22:4,%22Z%22:[34894]}],%22Keywords%22:%22undefined%22,%22Referrer%22:%22%22,%22IsAsync%22:true}'
p563
aS'i.gif?e=eyJhdiI6Mjk0NDYsImF0Ijo0LCJidCI6MCwiY20iOjQwNTAzLCJjaCI6MTQyOTUsImNrIjp7fSwiY3IiOjEwNTY3NywiZGkiOiI3YzIxZjUxNGI4ZTA0NDFkOWQ5YTdlYzhmYzQ4ZTI3ZCIsImRqIjowLCJpaSI6IjRhNjE2NDNhMTQzYTQ3NmVhZDcxYzM2YmQ4NzAwZGMzIiwiZG0iOjEsImZjIjoxNDQ2NTksImZsIjo3MTM0MywiaXAiOiI5Mi4yMzIuMTI2LjExNyIsIm53Ijo0NDY2LCJwYyI6MCwiZWMiOjAsInByIjo0NjU5NCwicnQiOjEsInJzIjo1MDAsInNhIjoiOSIsInNiIjoiaS0wNTM1NjI0ODE2MDJkMWQ2YiIsInNwIjoyNDg2Niwic3QiOjMzNTk5LCJ1ayI6InVlMS0wZGQ0OTZhOWRkMTg0ZTYyOWViM2I1MmViZTgxYzllMSIsInpuIjozNDg5NCwidHMiOjE1MjE1NjQ0NjY3MDQsImJmIjp0cnVlLCJwbiI6Im12Qm90dG9tQmFubmVyIiwiYmEiOjEsImZxIjowfQ&s=WRYtfagTkYylM_UvcXvfWDtBNpI'
p564
aS'i.gif?e=eyJhdiI6Mjk0NDYsImF0Ijo0LCJidCI6MCwiY20iOjQwNTAzLCJjaCI6MTQyOTUsImNrIjp7fSwiY3IiOjEwNTY3NywiZGkiOiI2NmY4ODc1OWM0Zjg0MDRlYmZiNjc0MDNmYjcyYzk3ZSIsImRqIjowLCJpaSI6Ijc1NGM3YzVmMjRmYzQ0ZmQ5NTE3MDUyZDc2OWY3MzBhIiwiZG0iOjEsImZjIjoxNDQ2NTksImZsIjo3MTM0MywiaXAiOiI5Mi4yMzIuMTI2LjExNyIsIm53Ijo0NDY2LCJwYyI6MCwiZWMiOjAsInByIjo0NjU5NCwicnQiOjEsInJzIjo1MDAsInNhIjoiOSIsInNiIjoiaS0wMGQwNmFlODQzYzFmOGNmOSIsInNwIjoxMzExMSwic3QiOjMzNTk5LCJ1ayI6InVlMS0wZGQ0OTZhOWRkMTg0ZTYyOWViM2I1MmViZTgxYzllMSIsInpuIjozNDg5NCwidHMiOjE1MjE1NjQ0Njk5NDQsImJmIjp0cnVlLCJwbiI6Im12VG9wQmFubmVyIiwiYmEiOjEsImZxIjowfQ&s=fTp8fvlRuWlMV2V05_3GJdKbW1c'
p565
aS'i.gif?e=eyJhdiI6Mjg0MDgsImF0Ijo0LCJidCI6MCwiY20iOjM4OTcxLCJjaCI6MTQyOTUsImNrIjp7fSwiY3IiOjI4NzUyMzAsImRpIjoiODA3N2I5NTBkYTcxNDI4ZmI5YWQ0NTY2NTFlMDc2ODciLCJkaiI6MCwiaWkiOiIzNmNmMTBkYmU2OGE0ZTRjOTgxYTBhNDU1MzhkMDE5NCIsImRtIjoxLCJmYyI6NDg1OTk3MCwiZmwiOjY1MDE3LCJpcCI6IjkyLjIzMi4xMjYuMTE3IiwibnciOjQ0NjYsInBjIjowLCJlYyI6MCwicHIiOjQ2NTk0LCJydCI6MSwicnMiOjUwMCwic2EiOiI5Iiwic2IiOiJpLTAwZDA2YWU4NDNjMWY4Y2Y5Iiwic3AiOjEzMTExLCJzdCI6MzM1OTksInVrIjoidWUxLTBkZDQ5NmE5ZGQxODRlNjI5ZWIzYjUyZWJlODFjOWUxIiwiem4iOjM0ODk0LCJ0cyI6MTUyMTU2NDQ2OTk0NSwiYmYiOnRydWUsInBuIjoibXZCb3R0b21CYW5uZXIiLCJiYSI6MSwiZnEiOjB9&s=yODpzZpSqs1jiRzaPReR5UfF45Y'
p566
aS'scribe/header_recentposts.gif'
p567
aS'scribe/header_archives.gif'
p568
aS'bloggerbutton1.gif'
p569
aS'hello/89/6940/320/DSCN1161.jpg'
p570
aS'scribe/bg.gif'
p571
aS'scribe/bg_paper_top.jpg'
p572
aS'scribe/bg_paper_mid.jpg'
p573
aS'scribe/divider.gif'
p574
aS'pagead/js/r20180312/r20170110/show_ads_impl.js'
p575
aS'scribe/bg_paper_bot.jpg'
p576
aS'codeofethics'
p577
aS'studio/chart/?studio=buenavista.htm'
p578
aS'css/mojo.css?1'
p579
aS'css?family=Open+Sans:400italic,400,300,600'
p580
aS'images/glyphicons-social-32-twitter@2x.png'
p581
aS'images/glyphicons-social-31-facebook@2x.png'
p582
aS'images/mojo_imdb_sm.png'
p583
aS'img/misc/IMDbSm.png'
p584
aS'ados?t=1521564491564&request={%22Placements%22:[{%22A%22:4466,%22S%22:33599,%22D%22:%22mvTopBanner%22,%22AT%22:4,%22Z%22:[34894]},{%22A%22:4466,%22S%22:33599,%22D%22:%22mvBottomBanner%22,%22AT%22:4,%22Z%22:[34894]}],%22Keywords%22:%22undefined%22,%22Referrer%22:%22http%3A%2F%2Faipg.org%2Faipgnews%22,%22IsAsync%22:true}'
p585
aS'b2?c1=2&c2=6034961&ns__t=1521564491870&ns_c=windows-1252&cv=3.1&c8=Buena%20Vista%20All%20Time%20Box%20Office%20Results&c7=http%3A%2F%2Fwww.boxofficemojo.com%2Fstudio%2Fchart%2F%3Fstudio%3Dbuenavista.htm&c9='
p586
aS'success.txt'
p587
aS'bylaws'
p588
aS'disciplinaryprocedures'
p589
aS'images/aipg_logos/new%20logo/AIPG_san_serif.jpg'
p590
aS'disciplinaryactions'
p591
aS'ados?t=1521564505670&request={%22Placements%22:[{%22A%22:4466,%22S%22:33599,%22D%22:%22mvTopBanner%22,%22AT%22:4,%22Z%22:[34894]},{%22A%22:4466,%22S%22:33599,%22D%22:%22mvBottomBanner%22,%22AT%22:4,%22Z%22:[34894]}],%22Keywords%22:%22undefined%22,%22Referrer%22:%22http%3A%2F%2Faipg.org%2Fcodeofethics%22,%22IsAsync%22:true}'
p592
aS'css/style.css'
p593
aS'css/responsivemultimenu.css'
p594
aS'css/bjqs.css'
p595
aS'i.gif?e=eyJhdiI6Mjk0NDYsImF0Ijo0LCJidCI6MCwiY20iOjQwNTAzLCJjaCI6MTQyOTUsImNrIjp7fSwiY3IiOjEwNTY3NywiZGkiOiI1NDRhOTI5MzM4Zjg0ZTdiYjZjNDEwZWViODY5N2JhMyIsImRqIjowLCJpaSI6ImVmYTQ4OTM4MzBlYTRiNGViYTRkMjM4NjE3MDlhM2FiIiwiZG0iOjEsImZjIjoxNDQ2NTksImZsIjo3MTM0MywiaXAiOiI5Mi4yMzIuMTI2LjExNyIsIm53Ijo0NDY2LCJwYyI6MCwiZWMiOjAsInByIjo0NjU5NCwicnQiOjEsInJmIjoiaHR0cDovL2FpcGcub3JnL2NvZGVvZmV0aGljcyIsInJzIjo1MDAsInNhIjoiOSIsInNiIjoiaS0wMjU0MjlhODg5MmZjZjJkZiIsInNwIjoyMTU1LCJzdCI6MzM1OTksInVrIjoidWUxLTBkZDQ5NmE5ZGQxODRlNjI5ZWIzYjUyZWJlODFjOWUxIiwiem4iOjM0ODk0LCJ0cyI6MTUyMTU2NDUwNTkyNiwiYmYiOnRydWUsInBuIjoibXZCb3R0b21CYW5uZXIiLCJiYSI6MSwiZnEiOjB9&s=PWTP6uYO28jrnUDyDQRdoSkgH-A'
p596
aS'Advertisers/dfb8d7f69b1b459ebb1c9650037a37a2.jpg'
p597
aS'i.gif?e=eyJhdiI6Mjg0MDgsImF0Ijo0LCJidCI6MCwiY20iOjM4OTcxLCJjaCI6MTQyOTUsImNrIjp7fSwiY3IiOjI4NzUyMzAsImRpIjoiNmM3ODY5Yzc4MGZmNDlhMjk1YTg5NDQzZGRlY2I1N2UiLCJkaiI6MCwiaWkiOiIwM2VjYmE2NTZiZWY0ZDRjYjMxYWUwZWRhY2M5NjM2OSIsImRtIjoxLCJmYyI6NDg1OTk3MCwiZmwiOjY1MDE3LCJpcCI6IjkyLjIzMi4xMjYuMTE3IiwibnciOjQ0NjYsInBjIjowLCJlYyI6MCwicHIiOjQ2NTk0LCJydCI6MSwicmYiOiJodHRwOi8vYWlwZy5vcmcvY29kZW9mZXRoaWNzIiwicnMiOjUwMCwic2EiOiI5Iiwic2IiOiJpLTBhZjkyNjFjYzI2ZTZlMTdlIiwic3AiOjE0MTUsInN0IjozMzU5OSwidWsiOiJ1ZTEtMGRkNDk2YTlkZDE4NGU2MjllYjNiNTJlYmU4MWM5ZTEiLCJ6biI6MzQ4OTQsInRzIjoxNTIxNTY0NTA3NTk5LCJiZiI6dHJ1ZSwicG4iOiJtdlRvcEJhbm5lciIsImJhIjoxLCJmcSI6MH0&s=ywSQYkJEA_oO2MygXgIVbmjYKu8'
p598
aS'ados?t=1521564508652&request={%22Placements%22:[{%22A%22:4466,%22S%22:33599,%22D%22:%22mvTopBanner%22,%22AT%22:4,%22Z%22:[34894]},{%22A%22:4466,%22S%22:33599,%22D%22:%22mvBottomBanner%22,%22AT%22:4,%22Z%22:[34894]}],%22Keywords%22:%22undefined%22,%22Referrer%22:%22http%3A%2F%2Faipg.org%2Fcodeofethics%22,%22IsAsync%22:true}'
p599
aS'i.gif?e=eyJhdiI6Mjk0NDYsImF0Ijo0LCJidCI6MCwiY20iOjQwNTAzLCJjaCI6MTQyOTUsImNrIjp7fSwiY3IiOjEwNTY3NywiZGkiOiJhOTg3ODgxZmZmMTU0NjBmYTI1Njk2NDgzYmY4MWUyOCIsImRqIjowLCJpaSI6ImJmZTQwNTEyYjUyMjRhYmRiNjM5ZGYwOWI3ZDRlNTJhIiwiZG0iOjEsImZjIjoxNDQ2NTksImZsIjo3MTM0MywiaXAiOiI5Mi4yMzIuMTI2LjExNyIsIm53Ijo0NDY2LCJwYyI6MCwiZWMiOjAsInByIjo0NjU5NCwicnQiOjEsInJmIjoiaHR0cDovL2FpcGcub3JnL2NvZGVvZmV0aGljcyIsInJzIjo1MDAsInNhIjoiOSIsInNiIjoiaS0wYWY5MjYxY2MyNmU2ZTE3ZSIsInNwIjoxNDE1LCJzdCI6MzM1OTksInVrIjoidWUxLTBkZDQ5NmE5ZGQxODRlNjI5ZWIzYjUyZWJlODFjOWUxIiwiem4iOjM0ODk0LCJ0cyI6MTUyMTU2NDUwNzYwMSwiYmYiOnRydWUsInBuIjoibXZCb3R0b21CYW5uZXIiLCJiYSI6MSwiZnEiOjB9&s=jGT6S-muffdMJq7SRxScYpxGpNM'
p600
aS'success.txt'
p601
aS'fridge'
p602
aS'nationalnews'
p603
aS'cheese'
p604
aS'favicon.ico'
p605
aS'css/mojo.css?1'
p606
aS'Serving/adServer.bs?c=28&cn=display&pli=1073982656&w=728&h=90&ord=1521564493&z=0'
p607
aS'resources/sites/default/files/css/css_sSAe9sKteLQpXhdusjdSLXOzkfT5idajD-Lm1ejLyi4.css'
p608
aS'resources/sites/default/files/css/css_n4vMozhmpR69S-a4-LJzAGxDpdLR8G6xVUt9Gg-S2RE.css'
p609
aS'resources/sites/default/files/css/css_jSaH4HxV6a1gvgqB0v73hTivCXfrFlhS70RLVxVWB5Q.css'
p610
aS'resources///PROD/asset/111249/IMAGE/20180316/YouNeverHere_Pro_728x90_End_35621175976533778.jpg'
p611
aS'beacon.js'
p612
aS'css/style.css'
p613
aS'css?family=Open+Sans:400italic,400,300,600'
p614
aS'resources/sites/all/themes/custom/strawmandev/images/site-top-gradient-newsbank.png'
p615
aS'b?c1=2&c2=6034961&ns__t=1521564452290&ns_c=windows-1252&cv=3.1&c8=%27Black%20Panther%27%20Remains%20Box%20Office%20King%2C%20Topping%20%241%20Billion%20Worldwide%20-%20Box%20Office%20Mojo&c7=http%3A%2F%2Fwww.boxofficemojo.com%2Fnews%2F%3Fid%3D4378%26p%3D.htm&c9='
p616
aS'images/footerbg.png'
p617
aS'ados?t=1521564455018&request={%22Placements%22:[{%22A%22:4466,%22S%22:33599,%22D%22:%22mvTopBanner%22,%22AT%22:4,%22Z%22:[34894]},{%22A%22:4466,%22S%22:33599,%22D%22:%22mvBottomBanner%22,%22AT%22:4,%22Z%22:[34894]}],%22Keywords%22:%22undefined%22,%22Referrer%22:%22http%3A%2F%2Faipg.org%2Fnationalnews%22,%22IsAsync%22:true}'
p618
aS'weekly/'
p619
aS'quarterly/'
p620
aS'i.gif?e=eyJhdiI6Mjg0MDgsImF0Ijo0LCJidCI6MCwiY20iOjM4OTcxLCJjaCI6MTQyOTUsImNrIjp7fSwiY3IiOjI4NzUyMzAsImRpIjoiMTI1YzYxNTIxNTUzNDE0YWIyNTM0NWM0YzhiYTFjZmUiLCJkaiI6MCwiaWkiOiIwYmJiMGRiYjJlNTc0MzM2YWM3Mzk0ZWJiYjc4MDRhYSIsImRtIjoxLCJmYyI6NDg1OTk3MCwiZmwiOjY1MDE3LCJpcCI6IjkyLjIzMi4xMjYuMTE3IiwibnciOjQ0NjYsInBjIjowLCJlYyI6MCwicHIiOjQ2NTk0LCJydCI6MSwicmYiOiJodHRwOi8vYWlwZy5vcmcvbmF0aW9uYWxuZXdzIiwicnMiOjUwMCwic2EiOiI5Iiwic2IiOiJpLTA1MzU2MjQ4MTYwMmQxZDZiIiwic3AiOjE2MTIzLCJzdCI6MzM1OTksInVrIjoidWUxLTBkZDQ5NmE5ZGQxODRlNjI5ZWIzYjUyZWJlODFjOWUxIiwiem4iOjM0ODk0LCJ0cyI6MTUyMTU2NDQ1NTY1NiwiYmYiOnRydWUsInBuIjoibXZCb3R0b21CYW5uZXIiLCJiYSI6MSwiZnEiOjB9&s=5rs4Tc568iwG2L6DJe4eVuS4YDw'
p621
aS'Serving/adServer.bs?c=28&cn=display&pli=1073982656&w=728&h=90&ord=1521564456&z=0'
p622
aS'iu3?d=boxofficemojo.com&cb=695355168257420'
p623
aS'resources///PROD/asset/111249/IMAGE/20180316/YouNeverHere_Pro_728x90_End_35621175976533778.jpg'
p624
aS'b?c1=2&c2=6034961&ns__t=1521564458116&ns_c=windows-1252&cv=3.1&c8=Weekly%20Box%20Office%20Index%2C%201982-Present%20-%20Box%20Office%20Mojo&c7=http%3A%2F%2Fwww.boxofficemojo.com%2Fweekly%2F&c9=http%3A%2F%2Fwww.boxofficemojo.com%2Fnews%2F%3Fid%3D4378%26p%3D.htm'
p625
aS'b?c1=2&c2=6034961&ns__t=1521564458740&ns_c=windows-1252&cv=3.1&c8=Box%20Office%20Results%20by%20Quarter&c7=http%3A%2F%2Fwww.boxofficemojo.com%2Fquarterly%2F&c9=http%3A%2F%2Fwww.boxofficemojo.com%2Fnews%2F%3Fid%3D4378%26p%3D.htm'
p626
aS'about'
p627
aS'favicon.ico'
p628
aS'iu3?d=boxofficemojo.com&cb=508068813793066.7'
p629
aS'sites/default/files/css/css_lQaZfjVpwP_oGNqdtWCSpJT1EMqXdMiU84ekLLxQnc4.css'
p630
aS'disciplinaryactions'
p631
aS'aipgnews'
p632
aS'css/style.css'
p633
aS'ados?t=1521564465312&request={%22Placements%22:[{%22A%22:4466,%22S%22:33599,%22D%22:%22mvTopBanner%22,%22AT%22:4,%22Z%22:[34894]},{%22A%22:4466,%22S%22:33599,%22D%22:%22mvBottomBanner%22,%22AT%22:4,%22Z%22:[34894]}],%22Keywords%22:%22undefined%22,%22Referrer%22:%22%22,%22IsAsync%22:true}'
p634
aS'ados?t=1521564466400&request={%22Placements%22:[{%22A%22:4466,%22S%22:33599,%22D%22:%22mvTopBanner%22,%22AT%22:4,%22Z%22:[34894]},{%22A%22:4466,%22S%22:33599,%22D%22:%22mvBottomBanner%22,%22AT%22:4,%22Z%22:[34894]}],%22Keywords%22:%22undefined%22,%22Referrer%22:%22%22,%22IsAsync%22:true}'
p635
aS'css/style.css'
p636
aS'i.gif?e=eyJhdiI6Mjg0MDgsImF0Ijo0LCJidCI6MCwiY20iOjM4OTcxLCJjaCI6MTQyOTUsImNrIjp7fSwiY3IiOjI4NzUyMzAsImRpIjoiZDk0YTUwZmIxOTY4NGZhZmEyMWU1ZTVjN2ZmMmJkMjkiLCJkaiI6MCwiaWkiOiJkNzI3NDQxN2E4M2I0MzYyOTNiNmM3ZWY3ZDM5ODk5NiIsImRtIjoxLCJmYyI6NDg1OTk3MCwiZmwiOjY1MDE3LCJpcCI6IjkyLjIzMi4xMjYuMTE3IiwibnciOjQ0NjYsInBjIjowLCJlYyI6MCwicHIiOjQ2NTk0LCJydCI6MSwicnMiOjUwMCwic2EiOiI5Iiwic2IiOiJpLTA1MzU2MjQ4MTYwMmQxZDZiIiwic3AiOjI0ODY2LCJzdCI6MzM1OTksInVrIjoidWUxLTBkZDQ5NmE5ZGQxODRlNjI5ZWIzYjUyZWJlODFjOWUxIiwiem4iOjM0ODk0LCJ0cyI6MTUyMTU2NDQ2NjcwMywiYmYiOnRydWUsInBuIjoibXZUb3BCYW5uZXIiLCJiYSI6MSwiZnEiOjB9&s=ZjGfdDyh8MgIG8c6LI_HpIbv7jU'
p637
aS'ados?t=1521564469082&request={%22Placements%22:[{%22A%22:4466,%22S%22:33599,%22D%22:%22mvTopBanner%22,%22AT%22:4,%22Z%22:[34894]},{%22A%22:4466,%22S%22:33599,%22D%22:%22mvBottomBanner%22,%22AT%22:4,%22Z%22:[34894]}],%22Keywords%22:%22undefined%22,%22Referrer%22:%22%22,%22IsAsync%22:true}'
p638
aS'i.gif?e=eyJhdiI6Mjk0NDYsImF0Ijo0LCJidCI6MCwiY20iOjQwNTAzLCJjaCI6MTQyOTUsImNrIjp7fSwiY3IiOjEwNTY3NywiZGkiOiI3YzIxZjUxNGI4ZTA0NDFkOWQ5YTdlYzhmYzQ4ZTI3ZCIsImRqIjowLCJpaSI6IjRhNjE2NDNhMTQzYTQ3NmVhZDcxYzM2YmQ4NzAwZGMzIiwiZG0iOjEsImZjIjoxNDQ2NTksImZsIjo3MTM0MywiaXAiOiI5Mi4yMzIuMTI2LjExNyIsIm53Ijo0NDY2LCJwYyI6MCwiZWMiOjAsInByIjo0NjU5NCwicnQiOjEsInJzIjo1MDAsInNhIjoiOSIsInNiIjoiaS0wNTM1NjI0ODE2MDJkMWQ2YiIsInNwIjoyNDg2Niwic3QiOjMzNTk5LCJ1ayI6InVlMS0wZGQ0OTZhOWRkMTg0ZTYyOWViM2I1MmViZTgxYzllMSIsInpuIjozNDg5NCwidHMiOjE1MjE1NjQ0NjY3MDQsImJmIjp0cnVlLCJwbiI6Im12Qm90dG9tQmFubmVyIiwiYmEiOjEsImZxIjowfQ&s=WRYtfagTkYylM_UvcXvfWDtBNpI'
p639
aS'i.gif?e=eyJhdiI6Mjk0NDYsImF0Ijo0LCJidCI6MCwiY20iOjQwNTAzLCJjaCI6MTQyOTUsImNrIjp7fSwiY3IiOjEwNTY3NywiZGkiOiI2NmY4ODc1OWM0Zjg0MDRlYmZiNjc0MDNmYjcyYzk3ZSIsImRqIjowLCJpaSI6Ijc1NGM3YzVmMjRmYzQ0ZmQ5NTE3MDUyZDc2OWY3MzBhIiwiZG0iOjEsImZjIjoxNDQ2NTksImZsIjo3MTM0MywiaXAiOiI5Mi4yMzIuMTI2LjExNyIsIm53Ijo0NDY2LCJwYyI6MCwiZWMiOjAsInByIjo0NjU5NCwicnQiOjEsInJzIjo1MDAsInNhIjoiOSIsInNiIjoiaS0wMGQwNmFlODQzYzFmOGNmOSIsInNwIjoxMzExMSwic3QiOjMzNTk5LCJ1ayI6InVlMS0wZGQ0OTZhOWRkMTg0ZTYyOWViM2I1MmViZTgxYzllMSIsInpuIjozNDg5NCwidHMiOjE1MjE1NjQ0Njk5NDQsImJmIjp0cnVlLCJwbiI6Im12VG9wQmFubmVyIiwiYmEiOjEsImZxIjowfQ&s=fTp8fvlRuWlMV2V05_3GJdKbW1c'
p640
aS'i.gif?e=eyJhdiI6Mjg0MDgsImF0Ijo0LCJidCI6MCwiY20iOjM4OTcxLCJjaCI6MTQyOTUsImNrIjp7fSwiY3IiOjI4NzUyMzAsImRpIjoiODA3N2I5NTBkYTcxNDI4ZmI5YWQ0NTY2NTFlMDc2ODciLCJkaiI6MCwiaWkiOiIzNmNmMTBkYmU2OGE0ZTRjOTgxYTBhNDU1MzhkMDE5NCIsImRtIjoxLCJmYyI6NDg1OTk3MCwiZmwiOjY1MDE3LCJpcCI6IjkyLjIzMi4xMjYuMTE3IiwibnciOjQ0NjYsInBjIjowLCJlYyI6MCwicHIiOjQ2NTk0LCJydCI6MSwicnMiOjUwMCwic2EiOiI5Iiwic2IiOiJpLTAwZDA2YWU4NDNjMWY4Y2Y5Iiwic3AiOjEzMTExLCJzdCI6MzM1OTksInVrIjoidWUxLTBkZDQ5NmE5ZGQxODRlNjI5ZWIzYjUyZWJlODFjOWUxIiwiem4iOjM0ODk0LCJ0cyI6MTUyMTU2NDQ2OTk0NSwiYmYiOnRydWUsInBuIjoibXZCb3R0b21CYW5uZXIiLCJiYSI6MSwiZnEiOjB9&s=yODpzZpSqs1jiRzaPReR5UfF45Y'
p641
aS'scribe/header_recentposts.gif'
p642
aS'scribe/header_archives.gif'
p643
aS'bloggerbutton1.gif'
p644
aS'hello/89/6940/320/DSCN1161.jpg'
p645
aS'scribe/bg.gif'
p646
aS'scribe/bg_paper_top.jpg'
p647
aS'scribe/bg_paper_mid.jpg'
p648
aS'scribe/divider.gif'
p649
aS'pagead/js/r20180312/r20170110/show_ads_impl.js'
p650
aS'scribe/bg_paper_bot.jpg'
p651
aS'codeofethics'
p652
aS'studio/chart/?studio=buenavista.htm'
p653
aS'css/mojo.css?1'
p654
aS'css?family=Open+Sans:400italic,400,300,600'
p655
aS'images/glyphicons-social-32-twitter@2x.png'
p656
aS'images/glyphicons-social-31-facebook@2x.png'
p657
aS'images/mojo_imdb_sm.png'
p658
aS'img/misc/IMDbSm.png'
p659
aS'ados?t=1521564491564&request={%22Placements%22:[{%22A%22:4466,%22S%22:33599,%22D%22:%22mvTopBanner%22,%22AT%22:4,%22Z%22:[34894]},{%22A%22:4466,%22S%22:33599,%22D%22:%22mvBottomBanner%22,%22AT%22:4,%22Z%22:[34894]}],%22Keywords%22:%22undefined%22,%22Referrer%22:%22http%3A%2F%2Faipg.org%2Faipgnews%22,%22IsAsync%22:true}'
p660
aS'b2?c1=2&c2=6034961&ns__t=1521564491870&ns_c=windows-1252&cv=3.1&c8=Buena%20Vista%20All%20Time%20Box%20Office%20Results&c7=http%3A%2F%2Fwww.boxofficemojo.com%2Fstudio%2Fchart%2F%3Fstudio%3Dbuenavista.htm&c9='
p661
aS'success.txt'
p662
aS'bylaws'
p663
aS'disciplinaryprocedures'
p664
aS'images/aipg_logos/new%20logo/AIPG_san_serif.jpg'
p665
aS'disciplinaryactions'
p666
aS'ados?t=1521564505670&request={%22Placements%22:[{%22A%22:4466,%22S%22:33599,%22D%22:%22mvTopBanner%22,%22AT%22:4,%22Z%22:[34894]},{%22A%22:4466,%22S%22:33599,%22D%22:%22mvBottomBanner%22,%22AT%22:4,%22Z%22:[34894]}],%22Keywords%22:%22undefined%22,%22Referrer%22:%22http%3A%2F%2Faipg.org%2Fcodeofethics%22,%22IsAsync%22:true}'
p667
aS'css/style.css'
p668
aS'css/responsivemultimenu.css'
p669
aS'css/bjqs.css'
p670
aS'i.gif?e=eyJhdiI6Mjk0NDYsImF0Ijo0LCJidCI6MCwiY20iOjQwNTAzLCJjaCI6MTQyOTUsImNrIjp7fSwiY3IiOjEwNTY3NywiZGkiOiI1NDRhOTI5MzM4Zjg0ZTdiYjZjNDEwZWViODY5N2JhMyIsImRqIjowLCJpaSI6ImVmYTQ4OTM4MzBlYTRiNGViYTRkMjM4NjE3MDlhM2FiIiwiZG0iOjEsImZjIjoxNDQ2NTksImZsIjo3MTM0MywiaXAiOiI5Mi4yMzIuMTI2LjExNyIsIm53Ijo0NDY2LCJwYyI6MCwiZWMiOjAsInByIjo0NjU5NCwicnQiOjEsInJmIjoiaHR0cDovL2FpcGcub3JnL2NvZGVvZmV0aGljcyIsInJzIjo1MDAsInNhIjoiOSIsInNiIjoiaS0wMjU0MjlhODg5MmZjZjJkZiIsInNwIjoyMTU1LCJzdCI6MzM1OTksInVrIjoidWUxLTBkZDQ5NmE5ZGQxODRlNjI5ZWIzYjUyZWJlODFjOWUxIiwiem4iOjM0ODk0LCJ0cyI6MTUyMTU2NDUwNTkyNiwiYmYiOnRydWUsInBuIjoibXZCb3R0b21CYW5uZXIiLCJiYSI6MSwiZnEiOjB9&s=PWTP6uYO28jrnUDyDQRdoSkgH-A'
p671
aS'Advertisers/dfb8d7f69b1b459ebb1c9650037a37a2.jpg'
p672
aS'i.gif?e=eyJhdiI6Mjg0MDgsImF0Ijo0LCJidCI6MCwiY20iOjM4OTcxLCJjaCI6MTQyOTUsImNrIjp7fSwiY3IiOjI4NzUyMzAsImRpIjoiNmM3ODY5Yzc4MGZmNDlhMjk1YTg5NDQzZGRlY2I1N2UiLCJkaiI6MCwiaWkiOiIwM2VjYmE2NTZiZWY0ZDRjYjMxYWUwZWRhY2M5NjM2OSIsImRtIjoxLCJmYyI6NDg1OTk3MCwiZmwiOjY1MDE3LCJpcCI6IjkyLjIzMi4xMjYuMTE3IiwibnciOjQ0NjYsInBjIjowLCJlYyI6MCwicHIiOjQ2NTk0LCJydCI6MSwicmYiOiJodHRwOi8vYWlwZy5vcmcvY29kZW9mZXRoaWNzIiwicnMiOjUwMCwic2EiOiI5Iiwic2IiOiJpLTBhZjkyNjFjYzI2ZTZlMTdlIiwic3AiOjE0MTUsInN0IjozMzU5OSwidWsiOiJ1ZTEtMGRkNDk2YTlkZDE4NGU2MjllYjNiNTJlYmU4MWM5ZTEiLCJ6biI6MzQ4OTQsInRzIjoxNTIxNTY0NTA3NTk5LCJiZiI6dHJ1ZSwicG4iOiJtdlRvcEJhbm5lciIsImJhIjoxLCJmcSI6MH0&s=ywSQYkJEA_oO2MygXgIVbmjYKu8'
p673
aS'ados?t=1521564508652&request={%22Placements%22:[{%22A%22:4466,%22S%22:33599,%22D%22:%22mvTopBanner%22,%22AT%22:4,%22Z%22:[34894]},{%22A%22:4466,%22S%22:33599,%22D%22:%22mvBottomBanner%22,%22AT%22:4,%22Z%22:[34894]}],%22Keywords%22:%22undefined%22,%22Referrer%22:%22http%3A%2F%2Faipg.org%2Fcodeofethics%22,%22IsAsync%22:true}'
p674
aS'i.gif?e=eyJhdiI6Mjk0NDYsImF0Ijo0LCJidCI6MCwiY20iOjQwNTAzLCJjaCI6MTQyOTUsImNrIjp7fSwiY3IiOjEwNTY3NywiZGkiOiJhOTg3ODgxZmZmMTU0NjBmYTI1Njk2NDgzYmY4MWUyOCIsImRqIjowLCJpaSI6ImJmZTQwNTEyYjUyMjRhYmRiNjM5ZGYwOWI3ZDRlNTJhIiwiZG0iOjEsImZjIjoxNDQ2NTksImZsIjo3MTM0MywiaXAiOiI5Mi4yMzIuMTI2LjExNyIsIm53Ijo0NDY2LCJwYyI6MCwiZWMiOjAsInByIjo0NjU5NCwicnQiOjEsInJmIjoiaHR0cDovL2FpcGcub3JnL2NvZGVvZmV0aGljcyIsInJzIjo1MDAsInNhIjoiOSIsInNiIjoiaS0wYWY5MjYxY2MyNmU2ZTE3ZSIsInNwIjoxNDE1LCJzdCI6MzM1OTksInVrIjoidWUxLTBkZDQ5NmE5ZGQxODRlNjI5ZWIzYjUyZWJlODFjOWUxIiwiem4iOjM0ODk0LCJ0cyI6MTUyMTU2NDUwNzYwMSwiYmYiOnRydWUsInBuIjoibXZCb3R0b21CYW5uZXIiLCJiYSI6MSwiZnEiOjB9&s=jGT6S-muffdMJq7SRxScYpxGpNM'
p675
aS'i.gif?e=eyJhdiI6MzE2MTIsImF0Ijo0LCJidCI6MCwiY20iOjQzODUwLCJjaCI6MTQyOTUsImNrIjp7fSwiY3IiOjExODEyMCwiZGkiOiI3ZGEzZmJlMDliYzQ0ZjgxYmM4MmM5YmY2YTI5MGUxYSIsImRqIjowLCJpaSI6ImYwZDIzYWZiMjhkMTQ3OWM4NmQyN2VlM2FjMjJjMzc5IiwiZG0iOjEsImZjIjoxNjA2ODAsImZsIjo3Nzg2MiwiaXAiOiI5Mi4yMzIuMTI2LjExNyIsIm53Ijo0NDY2LCJwYyI6MCwiZWMiOjAsInByIjo0NjU5NCwicnQiOjEsInJmIjoiaHR0cDovL2FpcGcub3JnL2NvZGVvZmV0aGljcyIsInJzIjo1MDAsInNhIjoiOSIsInNiIjoiaS0wMjJiODY5NmMyMDZiMTFmMyIsInNwIjoxMTI3Miwic3QiOjMzNTk5LCJ1ayI6InVlMS0wZGQ0OTZhOWRkMTg0ZTYyOWViM2I1MmViZTgxYzllMSIsInpuIjozNDg5NCwidHMiOjE1MjE1NjQ1MDg5OTYsImJmIjp0cnVlLCJwbiI6Im12Qm90dG9tQmFubmVyIiwiYmEiOjEsImZxIjowfQ&s=6pmdY5iOW6BuiaUhP9w4-lzAkIw'
p676
aS'_designs/code/css/main.css'
p677
aS'library/cCDzvIZcEeS71A6sC0aurw.js'
p678
aS'js/300/addthis_widget.js'
p679
aS'__data/assets/image/0010/16795/right-arrow.png?v=0.5.1'
p680
aS'success.txt'
p681
aS'fridge'
p682
aS'nationalnews'
p683
aS'cheese'
p684
aS'favicon.ico'
p685
aS'css/mojo.css?1'
p686
aS'Serving/adServer.bs?c=28&cn=display&pli=1073982656&w=728&h=90&ord=1521564493&z=0'
p687
aS'resources/sites/default/files/css/css_sSAe9sKteLQpXhdusjdSLXOzkfT5idajD-Lm1ejLyi4.css'
p688
aS'resources/sites/default/files/css/css_n4vMozhmpR69S-a4-LJzAGxDpdLR8G6xVUt9Gg-S2RE.css'
p689
aS'resources/sites/default/files/css/css_jSaH4HxV6a1gvgqB0v73hTivCXfrFlhS70RLVxVWB5Q.css'
p690
aS'resources///PROD/asset/111249/IMAGE/20180316/YouNeverHere_Pro_728x90_End_35621175976533778.jpg'
p691
aS'beacon.js'
p692
aS'css/style.css'
p693
aS'css?family=Open+Sans:400italic,400,300,600'
p694
aS'resources/sites/all/themes/custom/strawmandev/images/site-top-gradient-newsbank.png'
p695
aS'b?c1=2&c2=6034961&ns__t=1521564452290&ns_c=windows-1252&cv=3.1&c8=%27Black%20Panther%27%20Remains%20Box%20Office%20King%2C%20Topping%20%241%20Billion%20Worldwide%20-%20Box%20Office%20Mojo&c7=http%3A%2F%2Fwww.boxofficemojo.com%2Fnews%2F%3Fid%3D4378%26p%3D.htm&c9='
p696
aS'images/footerbg.png'
p697
aS'ados?t=1521564455018&request={%22Placements%22:[{%22A%22:4466,%22S%22:33599,%22D%22:%22mvTopBanner%22,%22AT%22:4,%22Z%22:[34894]},{%22A%22:4466,%22S%22:33599,%22D%22:%22mvBottomBanner%22,%22AT%22:4,%22Z%22:[34894]}],%22Keywords%22:%22undefined%22,%22Referrer%22:%22http%3A%2F%2Faipg.org%2Fnationalnews%22,%22IsAsync%22:true}'
p698
aS'weekly/'
p699
aS'quarterly/'
p700
aS'i.gif?e=eyJhdiI6Mjg0MDgsImF0Ijo0LCJidCI6MCwiY20iOjM4OTcxLCJjaCI6MTQyOTUsImNrIjp7fSwiY3IiOjI4NzUyMzAsImRpIjoiMTI1YzYxNTIxNTUzNDE0YWIyNTM0NWM0YzhiYTFjZmUiLCJkaiI6MCwiaWkiOiIwYmJiMGRiYjJlNTc0MzM2YWM3Mzk0ZWJiYjc4MDRhYSIsImRtIjoxLCJmYyI6NDg1OTk3MCwiZmwiOjY1MDE3LCJpcCI6IjkyLjIzMi4xMjYuMTE3IiwibnciOjQ0NjYsInBjIjowLCJlYyI6MCwicHIiOjQ2NTk0LCJydCI6MSwicmYiOiJodHRwOi8vYWlwZy5vcmcvbmF0aW9uYWxuZXdzIiwicnMiOjUwMCwic2EiOiI5Iiwic2IiOiJpLTA1MzU2MjQ4MTYwMmQxZDZiIiwic3AiOjE2MTIzLCJzdCI6MzM1OTksInVrIjoidWUxLTBkZDQ5NmE5ZGQxODRlNjI5ZWIzYjUyZWJlODFjOWUxIiwiem4iOjM0ODk0LCJ0cyI6MTUyMTU2NDQ1NTY1NiwiYmYiOnRydWUsInBuIjoibXZCb3R0b21CYW5uZXIiLCJiYSI6MSwiZnEiOjB9&s=5rs4Tc568iwG2L6DJe4eVuS4YDw'
p701
aS'Serving/adServer.bs?c=28&cn=display&pli=1073982656&w=728&h=90&ord=1521564456&z=0'
p702
aS'iu3?d=boxofficemojo.com&cb=695355168257420'
p703
aS'resources///PROD/asset/111249/IMAGE/20180316/YouNeverHere_Pro_728x90_End_35621175976533778.jpg'
p704
aS'b?c1=2&c2=6034961&ns__t=1521564458116&ns_c=windows-1252&cv=3.1&c8=Weekly%20Box%20Office%20Index%2C%201982-Present%20-%20Box%20Office%20Mojo&c7=http%3A%2F%2Fwww.boxofficemojo.com%2Fweekly%2F&c9=http%3A%2F%2Fwww.boxofficemojo.com%2Fnews%2F%3Fid%3D4378%26p%3D.htm'
p705
aS'b?c1=2&c2=6034961&ns__t=1521564458740&ns_c=windows-1252&cv=3.1&c8=Box%20Office%20Results%20by%20Quarter&c7=http%3A%2F%2Fwww.boxofficemojo.com%2Fquarterly%2F&c9=http%3A%2F%2Fwww.boxofficemojo.com%2Fnews%2F%3Fid%3D4378%26p%3D.htm'
p706
aS'about'
p707
aS'favicon.ico'
p708
aS'iu3?d=boxofficemojo.com&cb=508068813793066.7'
p709
aS'sites/default/files/css/css_lQaZfjVpwP_oGNqdtWCSpJT1EMqXdMiU84ekLLxQnc4.css'
p710
aS'disciplinaryactions'
p711
aS'aipgnews'
p712
aS'css/style.css'
p713
aS'ados?t=1521564465312&request={%22Placements%22:[{%22A%22:4466,%22S%22:33599,%22D%22:%22mvTopBanner%22,%22AT%22:4,%22Z%22:[34894]},{%22A%22:4466,%22S%22:33599,%22D%22:%22mvBottomBanner%22,%22AT%22:4,%22Z%22:[34894]}],%22Keywords%22:%22undefined%22,%22Referrer%22:%22%22,%22IsAsync%22:true}'
p714
aS'ados?t=1521564466400&request={%22Placements%22:[{%22A%22:4466,%22S%22:33599,%22D%22:%22mvTopBanner%22,%22AT%22:4,%22Z%22:[34894]},{%22A%22:4466,%22S%22:33599,%22D%22:%22mvBottomBanner%22,%22AT%22:4,%22Z%22:[34894]}],%22Keywords%22:%22undefined%22,%22Referrer%22:%22%22,%22IsAsync%22:true}'
p715
aS'css/style.css'
p716
aS'i.gif?e=eyJhdiI6Mjg0MDgsImF0Ijo0LCJidCI6MCwiY20iOjM4OTcxLCJjaCI6MTQyOTUsImNrIjp7fSwiY3IiOjI4NzUyMzAsImRpIjoiZDk0YTUwZmIxOTY4NGZhZmEyMWU1ZTVjN2ZmMmJkMjkiLCJkaiI6MCwiaWkiOiJkNzI3NDQxN2E4M2I0MzYyOTNiNmM3ZWY3ZDM5ODk5NiIsImRtIjoxLCJmYyI6NDg1OTk3MCwiZmwiOjY1MDE3LCJpcCI6IjkyLjIzMi4xMjYuMTE3IiwibnciOjQ0NjYsInBjIjowLCJlYyI6MCwicHIiOjQ2NTk0LCJydCI6MSwicnMiOjUwMCwic2EiOiI5Iiwic2IiOiJpLTA1MzU2MjQ4MTYwMmQxZDZiIiwic3AiOjI0ODY2LCJzdCI6MzM1OTksInVrIjoidWUxLTBkZDQ5NmE5ZGQxODRlNjI5ZWIzYjUyZWJlODFjOWUxIiwiem4iOjM0ODk0LCJ0cyI6MTUyMTU2NDQ2NjcwMywiYmYiOnRydWUsInBuIjoibXZUb3BCYW5uZXIiLCJiYSI6MSwiZnEiOjB9&s=ZjGfdDyh8MgIG8c6LI_HpIbv7jU'
p717
aS'ados?t=1521564469082&request={%22Placements%22:[{%22A%22:4466,%22S%22:33599,%22D%22:%22mvTopBanner%22,%22AT%22:4,%22Z%22:[34894]},{%22A%22:4466,%22S%22:33599,%22D%22:%22mvBottomBanner%22,%22AT%22:4,%22Z%22:[34894]}],%22Keywords%22:%22undefined%22,%22Referrer%22:%22%22,%22IsAsync%22:true}'
p718
aS'i.gif?e=eyJhdiI6Mjk0NDYsImF0Ijo0LCJidCI6MCwiY20iOjQwNTAzLCJjaCI6MTQyOTUsImNrIjp7fSwiY3IiOjEwNTY3NywiZGkiOiI3YzIxZjUxNGI4ZTA0NDFkOWQ5YTdlYzhmYzQ4ZTI3ZCIsImRqIjowLCJpaSI6IjRhNjE2NDNhMTQzYTQ3NmVhZDcxYzM2YmQ4NzAwZGMzIiwiZG0iOjEsImZjIjoxNDQ2NTksImZsIjo3MTM0MywiaXAiOiI5Mi4yMzIuMTI2LjExNyIsIm53Ijo0NDY2LCJwYyI6MCwiZWMiOjAsInByIjo0NjU5NCwicnQiOjEsInJzIjo1MDAsInNhIjoiOSIsInNiIjoiaS0wNTM1NjI0ODE2MDJkMWQ2YiIsInNwIjoyNDg2Niwic3QiOjMzNTk5LCJ1ayI6InVlMS0wZGQ0OTZhOWRkMTg0ZTYyOWViM2I1MmViZTgxYzllMSIsInpuIjozNDg5NCwidHMiOjE1MjE1NjQ0NjY3MDQsImJmIjp0cnVlLCJwbiI6Im12Qm90dG9tQmFubmVyIiwiYmEiOjEsImZxIjowfQ&s=WRYtfagTkYylM_UvcXvfWDtBNpI'
p719
aS'i.gif?e=eyJhdiI6Mjk0NDYsImF0Ijo0LCJidCI6MCwiY20iOjQwNTAzLCJjaCI6MTQyOTUsImNrIjp7fSwiY3IiOjEwNTY3NywiZGkiOiI2NmY4ODc1OWM0Zjg0MDRlYmZiNjc0MDNmYjcyYzk3ZSIsImRqIjowLCJpaSI6Ijc1NGM3YzVmMjRmYzQ0ZmQ5NTE3MDUyZDc2OWY3MzBhIiwiZG0iOjEsImZjIjoxNDQ2NTksImZsIjo3MTM0MywiaXAiOiI5Mi4yMzIuMTI2LjExNyIsIm53Ijo0NDY2LCJwYyI6MCwiZWMiOjAsInByIjo0NjU5NCwicnQiOjEsInJzIjo1MDAsInNhIjoiOSIsInNiIjoiaS0wMGQwNmFlODQzYzFmOGNmOSIsInNwIjoxMzExMSwic3QiOjMzNTk5LCJ1ayI6InVlMS0wZGQ0OTZhOWRkMTg0ZTYyOWViM2I1MmViZTgxYzllMSIsInpuIjozNDg5NCwidHMiOjE1MjE1NjQ0Njk5NDQsImJmIjp0cnVlLCJwbiI6Im12VG9wQmFubmVyIiwiYmEiOjEsImZxIjowfQ&s=fTp8fvlRuWlMV2V05_3GJdKbW1c'
p720
aS'i.gif?e=eyJhdiI6Mjg0MDgsImF0Ijo0LCJidCI6MCwiY20iOjM4OTcxLCJjaCI6MTQyOTUsImNrIjp7fSwiY3IiOjI4NzUyMzAsImRpIjoiODA3N2I5NTBkYTcxNDI4ZmI5YWQ0NTY2NTFlMDc2ODciLCJkaiI6MCwiaWkiOiIzNmNmMTBkYmU2OGE0ZTRjOTgxYTBhNDU1MzhkMDE5NCIsImRtIjoxLCJmYyI6NDg1OTk3MCwiZmwiOjY1MDE3LCJpcCI6IjkyLjIzMi4xMjYuMTE3IiwibnciOjQ0NjYsInBjIjowLCJlYyI6MCwicHIiOjQ2NTk0LCJydCI6MSwicnMiOjUwMCwic2EiOiI5Iiwic2IiOiJpLTAwZDA2YWU4NDNjMWY4Y2Y5Iiwic3AiOjEzMTExLCJzdCI6MzM1OTksInVrIjoidWUxLTBkZDQ5NmE5ZGQxODRlNjI5ZWIzYjUyZWJlODFjOWUxIiwiem4iOjM0ODk0LCJ0cyI6MTUyMTU2NDQ2OTk0NSwiYmYiOnRydWUsInBuIjoibXZCb3R0b21CYW5uZXIiLCJiYSI6MSwiZnEiOjB9&s=yODpzZpSqs1jiRzaPReR5UfF45Y'
p721
aS'scribe/header_recentposts.gif'
p722
aS'scribe/header_archives.gif'
p723
aS'bloggerbutton1.gif'
p724
aS'hello/89/6940/320/DSCN1161.jpg'
p725
aS'scribe/bg.gif'
p726
aS'scribe/bg_paper_top.jpg'
p727
aS'scribe/bg_paper_mid.jpg'
p728
aS'scribe/divider.gif'
p729
aS'pagead/js/r20180312/r20170110/show_ads_impl.js'
p730
aS'scribe/bg_paper_bot.jpg'
p731
aS'codeofethics'
p732
aS'studio/chart/?studio=buenavista.htm'
p733
aS'css/mojo.css?1'
p734
aS'css?family=Open+Sans:400italic,400,300,600'
p735
aS'images/glyphicons-social-32-twitter@2x.png'
p736
aS'images/glyphicons-social-31-facebook@2x.png'
p737
aS'images/mojo_imdb_sm.png'
p738
aS'img/misc/IMDbSm.png'
p739
aS'ados?t=1521564491564&request={%22Placements%22:[{%22A%22:4466,%22S%22:33599,%22D%22:%22mvTopBanner%22,%22AT%22:4,%22Z%22:[34894]},{%22A%22:4466,%22S%22:33599,%22D%22:%22mvBottomBanner%22,%22AT%22:4,%22Z%22:[34894]}],%22Keywords%22:%22undefined%22,%22Referrer%22:%22http%3A%2F%2Faipg.org%2Faipgnews%22,%22IsAsync%22:true}'
p740
aS'b2?c1=2&c2=6034961&ns__t=1521564491870&ns_c=windows-1252&cv=3.1&c8=Buena%20Vista%20All%20Time%20Box%20Office%20Results&c7=http%3A%2F%2Fwww.boxofficemojo.com%2Fstudio%2Fchart%2F%3Fstudio%3Dbuenavista.htm&c9='
p741
aS'success.txt'
p742
aS'bylaws'
p743
aS'disciplinaryprocedures'
p744
aS'images/aipg_logos/new%20logo/AIPG_san_serif.jpg'
p745
aS'disciplinaryactions'
p746
aS'ados?t=1521564505670&request={%22Placements%22:[{%22A%22:4466,%22S%22:33599,%22D%22:%22mvTopBanner%22,%22AT%22:4,%22Z%22:[34894]},{%22A%22:4466,%22S%22:33599,%22D%22:%22mvBottomBanner%22,%22AT%22:4,%22Z%22:[34894]}],%22Keywords%22:%22undefined%22,%22Referrer%22:%22http%3A%2F%2Faipg.org%2Fcodeofethics%22,%22IsAsync%22:true}'
p747
aS'css/style.css'
p748
aS'css/responsivemultimenu.css'
p749
aS'css/bjqs.css'
p750
aS'i.gif?e=eyJhdiI6Mjk0NDYsImF0Ijo0LCJidCI6MCwiY20iOjQwNTAzLCJjaCI6MTQyOTUsImNrIjp7fSwiY3IiOjEwNTY3NywiZGkiOiI1NDRhOTI5MzM4Zjg0ZTdiYjZjNDEwZWViODY5N2JhMyIsImRqIjowLCJpaSI6ImVmYTQ4OTM4MzBlYTRiNGViYTRkMjM4NjE3MDlhM2FiIiwiZG0iOjEsImZjIjoxNDQ2NTksImZsIjo3MTM0MywiaXAiOiI5Mi4yMzIuMTI2LjExNyIsIm53Ijo0NDY2LCJwYyI6MCwiZWMiOjAsInByIjo0NjU5NCwicnQiOjEsInJmIjoiaHR0cDovL2FpcGcub3JnL2NvZGVvZmV0aGljcyIsInJzIjo1MDAsInNhIjoiOSIsInNiIjoiaS0wMjU0MjlhODg5MmZjZjJkZiIsInNwIjoyMTU1LCJzdCI6MzM1OTksInVrIjoidWUxLTBkZDQ5NmE5ZGQxODRlNjI5ZWIzYjUyZWJlODFjOWUxIiwiem4iOjM0ODk0LCJ0cyI6MTUyMTU2NDUwNTkyNiwiYmYiOnRydWUsInBuIjoibXZCb3R0b21CYW5uZXIiLCJiYSI6MSwiZnEiOjB9&s=PWTP6uYO28jrnUDyDQRdoSkgH-A'
p751
aS'Advertisers/dfb8d7f69b1b459ebb1c9650037a37a2.jpg'
p752
aS'i.gif?e=eyJhdiI6Mjg0MDgsImF0Ijo0LCJidCI6MCwiY20iOjM4OTcxLCJjaCI6MTQyOTUsImNrIjp7fSwiY3IiOjI4NzUyMzAsImRpIjoiNmM3ODY5Yzc4MGZmNDlhMjk1YTg5NDQzZGRlY2I1N2UiLCJkaiI6MCwiaWkiOiIwM2VjYmE2NTZiZWY0ZDRjYjMxYWUwZWRhY2M5NjM2OSIsImRtIjoxLCJmYyI6NDg1OTk3MCwiZmwiOjY1MDE3LCJpcCI6IjkyLjIzMi4xMjYuMTE3IiwibnciOjQ0NjYsInBjIjowLCJlYyI6MCwicHIiOjQ2NTk0LCJydCI6MSwicmYiOiJodHRwOi8vYWlwZy5vcmcvY29kZW9mZXRoaWNzIiwicnMiOjUwMCwic2EiOiI5Iiwic2IiOiJpLTBhZjkyNjFjYzI2ZTZlMTdlIiwic3AiOjE0MTUsInN0IjozMzU5OSwidWsiOiJ1ZTEtMGRkNDk2YTlkZDE4NGU2MjllYjNiNTJlYmU4MWM5ZTEiLCJ6biI6MzQ4OTQsInRzIjoxNTIxNTY0NTA3NTk5LCJiZiI6dHJ1ZSwicG4iOiJtdlRvcEJhbm5lciIsImJhIjoxLCJmcSI6MH0&s=ywSQYkJEA_oO2MygXgIVbmjYKu8'
p753
aS'ados?t=1521564508652&request={%22Placements%22:[{%22A%22:4466,%22S%22:33599,%22D%22:%22mvTopBanner%22,%22AT%22:4,%22Z%22:[34894]},{%22A%22:4466,%22S%22:33599,%22D%22:%22mvBottomBanner%22,%22AT%22:4,%22Z%22:[34894]}],%22Keywords%22:%22undefined%22,%22Referrer%22:%22http%3A%2F%2Faipg.org%2Fcodeofethics%22,%22IsAsync%22:true}'
p754
aS'i.gif?e=eyJhdiI6Mjk0NDYsImF0Ijo0LCJidCI6MCwiY20iOjQwNTAzLCJjaCI6MTQyOTUsImNrIjp7fSwiY3IiOjEwNTY3NywiZGkiOiJhOTg3ODgxZmZmMTU0NjBmYTI1Njk2NDgzYmY4MWUyOCIsImRqIjowLCJpaSI6ImJmZTQwNTEyYjUyMjRhYmRiNjM5ZGYwOWI3ZDRlNTJhIiwiZG0iOjEsImZjIjoxNDQ2NTksImZsIjo3MTM0MywiaXAiOiI5Mi4yMzIuMTI2LjExNyIsIm53Ijo0NDY2LCJwYyI6MCwiZWMiOjAsInByIjo0NjU5NCwicnQiOjEsInJmIjoiaHR0cDovL2FpcGcub3JnL2NvZGVvZmV0aGljcyIsInJzIjo1MDAsInNhIjoiOSIsInNiIjoiaS0wYWY5MjYxY2MyNmU2ZTE3ZSIsInNwIjoxNDE1LCJzdCI6MzM1OTksInVrIjoidWUxLTBkZDQ5NmE5ZGQxODRlNjI5ZWIzYjUyZWJlODFjOWUxIiwiem4iOjM0ODk0LCJ0cyI6MTUyMTU2NDUwNzYwMSwiYmYiOnRydWUsInBuIjoibXZCb3R0b21CYW5uZXIiLCJiYSI6MSwiZnEiOjB9&s=jGT6S-muffdMJq7SRxScYpxGpNM'
p755
aS'i.gif?e=eyJhdiI6MzE2MTIsImF0Ijo0LCJidCI6MCwiY20iOjQzODUwLCJjaCI6MTQyOTUsImNrIjp7fSwiY3IiOjExODEyMCwiZGkiOiI3ZGEzZmJlMDliYzQ0ZjgxYmM4MmM5YmY2YTI5MGUxYSIsImRqIjowLCJpaSI6ImYwZDIzYWZiMjhkMTQ3OWM4NmQyN2VlM2FjMjJjMzc5IiwiZG0iOjEsImZjIjoxNjA2ODAsImZsIjo3Nzg2MiwiaXAiOiI5Mi4yMzIuMTI2LjExNyIsIm53Ijo0NDY2LCJwYyI6MCwiZWMiOjAsInByIjo0NjU5NCwicnQiOjEsInJmIjoiaHR0cDovL2FpcGcub3JnL2NvZGVvZmV0aGljcyIsInJzIjo1MDAsInNhIjoiOSIsInNiIjoiaS0wMjJiODY5NmMyMDZiMTFmMyIsInNwIjoxMTI3Miwic3QiOjMzNTk5LCJ1ayI6InVlMS0wZGQ0OTZhOWRkMTg0ZTYyOWViM2I1MmViZTgxYzllMSIsInpuIjozNDg5NCwidHMiOjE1MjE1NjQ1MDg5OTYsImJmIjp0cnVlLCJwbiI6Im12Qm90dG9tQmFubmVyIiwiYmEiOjEsImZxIjowfQ&s=6pmdY5iOW6BuiaUhP9w4-lzAkIw'
p756
aS'_designs/code/css/main.css'
p757
aS'library/cCDzvIZcEeS71A6sC0aurw.js'
p758
aS'js/300/addthis_widget.js'
p759
aS'__data/assets/image/0010/16795/right-arrow.png?v=0.5.1'
p760
aS'images/bkgrnb.gif'
p761
aS'__data/assets/image/0020/22682/external.png'
p762
aS'live/red_lojson/300lo.json?si=5ab13b624a51042f&bkl=0&bl=1&pdt=452&sid=5ab13b624a51042f&pub=ra-538be91c0639a56c&rev=v8.2.5-wp&ln=en&pc=men&cb=0&ab=-&dp=www.ga.gov.au&fp=scientific-topics%2Fmarine%2Fjurisdiction%2Fmap-series&fr=&of=1&pd=0&irt=1&vcl=1&md=0&ct=1&tct=0&abt=0&cdn=0&pi=1&rb=0&gen=100&chr=UTF-8&colc=1521564514622&jsl=1&uvs=5ab13828a7e55cea002&skipb=1&callback=addthis.cbs.oln9_139388560312846080'
p763
aS'live/boost/ra-538be91c0639a56c/_ate.track.config_resp'
p764
aS'bam/images/affiliate/cj2_interactive_bamm_468_v1.gif'
p765
aS'success.txt'
p766
aS'fridge'
p767
aS'nationalnews'
p768
aS'cheese'
p769
aS'favicon.ico'
p770
aS'css/mojo.css?1'
p771
aS'Serving/adServer.bs?c=28&cn=display&pli=1073982656&w=728&h=90&ord=1521564493&z=0'
p772
aS'resources/sites/default/files/css/css_sSAe9sKteLQpXhdusjdSLXOzkfT5idajD-Lm1ejLyi4.css'
p773
aS'resources/sites/default/files/css/css_n4vMozhmpR69S-a4-LJzAGxDpdLR8G6xVUt9Gg-S2RE.css'
p774
aS'resources/sites/default/files/css/css_jSaH4HxV6a1gvgqB0v73hTivCXfrFlhS70RLVxVWB5Q.css'
p775
aS'resources///PROD/asset/111249/IMAGE/20180316/YouNeverHere_Pro_728x90_End_35621175976533778.jpg'
p776
aS'beacon.js'
p777
aS'css/style.css'
p778
aS'css?family=Open+Sans:400italic,400,300,600'
p779
aS'resources/sites/all/themes/custom/strawmandev/images/site-top-gradient-newsbank.png'
p780
aS'b?c1=2&c2=6034961&ns__t=1521564452290&ns_c=windows-1252&cv=3.1&c8=%27Black%20Panther%27%20Remains%20Box%20Office%20King%2C%20Topping%20%241%20Billion%20Worldwide%20-%20Box%20Office%20Mojo&c7=http%3A%2F%2Fwww.boxofficemojo.com%2Fnews%2F%3Fid%3D4378%26p%3D.htm&c9='
p781
aS'images/footerbg.png'
p782
aS'ados?t=1521564455018&request={%22Placements%22:[{%22A%22:4466,%22S%22:33599,%22D%22:%22mvTopBanner%22,%22AT%22:4,%22Z%22:[34894]},{%22A%22:4466,%22S%22:33599,%22D%22:%22mvBottomBanner%22,%22AT%22:4,%22Z%22:[34894]}],%22Keywords%22:%22undefined%22,%22Referrer%22:%22http%3A%2F%2Faipg.org%2Fnationalnews%22,%22IsAsync%22:true}'
p783
aS'weekly/'
p784
aS'quarterly/'
p785
aS'i.gif?e=eyJhdiI6Mjg0MDgsImF0Ijo0LCJidCI6MCwiY20iOjM4OTcxLCJjaCI6MTQyOTUsImNrIjp7fSwiY3IiOjI4NzUyMzAsImRpIjoiMTI1YzYxNTIxNTUzNDE0YWIyNTM0NWM0YzhiYTFjZmUiLCJkaiI6MCwiaWkiOiIwYmJiMGRiYjJlNTc0MzM2YWM3Mzk0ZWJiYjc4MDRhYSIsImRtIjoxLCJmYyI6NDg1OTk3MCwiZmwiOjY1MDE3LCJpcCI6IjkyLjIzMi4xMjYuMTE3IiwibnciOjQ0NjYsInBjIjowLCJlYyI6MCwicHIiOjQ2NTk0LCJydCI6MSwicmYiOiJodHRwOi8vYWlwZy5vcmcvbmF0aW9uYWxuZXdzIiwicnMiOjUwMCwic2EiOiI5Iiwic2IiOiJpLTA1MzU2MjQ4MTYwMmQxZDZiIiwic3AiOjE2MTIzLCJzdCI6MzM1OTksInVrIjoidWUxLTBkZDQ5NmE5ZGQxODRlNjI5ZWIzYjUyZWJlODFjOWUxIiwiem4iOjM0ODk0LCJ0cyI6MTUyMTU2NDQ1NTY1NiwiYmYiOnRydWUsInBuIjoibXZCb3R0b21CYW5uZXIiLCJiYSI6MSwiZnEiOjB9&s=5rs4Tc568iwG2L6DJe4eVuS4YDw'
p786
aS'Serving/adServer.bs?c=28&cn=display&pli=1073982656&w=728&h=90&ord=1521564456&z=0'
p787
aS'iu3?d=boxofficemojo.com&cb=695355168257420'
p788
aS'resources///PROD/asset/111249/IMAGE/20180316/YouNeverHere_Pro_728x90_End_35621175976533778.jpg'
p789
aS'b?c1=2&c2=6034961&ns__t=1521564458116&ns_c=windows-1252&cv=3.1&c8=Weekly%20Box%20Office%20Index%2C%201982-Present%20-%20Box%20Office%20Mojo&c7=http%3A%2F%2Fwww.boxofficemojo.com%2Fweekly%2F&c9=http%3A%2F%2Fwww.boxofficemojo.com%2Fnews%2F%3Fid%3D4378%26p%3D.htm'
p790
aS'b?c1=2&c2=6034961&ns__t=1521564458740&ns_c=windows-1252&cv=3.1&c8=Box%20Office%20Results%20by%20Quarter&c7=http%3A%2F%2Fwww.boxofficemojo.com%2Fquarterly%2F&c9=http%3A%2F%2Fwww.boxofficemojo.com%2Fnews%2F%3Fid%3D4378%26p%3D.htm'
p791
aS'about'
p792
aS'favicon.ico'
p793
aS'iu3?d=boxofficemojo.com&cb=508068813793066.7'
p794
aS'sites/default/files/css/css_lQaZfjVpwP_oGNqdtWCSpJT1EMqXdMiU84ekLLxQnc4.css'
p795
aS'disciplinaryactions'
p796
aS'aipgnews'
p797
aS'css/style.css'
p798
aS'ados?t=1521564465312&request={%22Placements%22:[{%22A%22:4466,%22S%22:33599,%22D%22:%22mvTopBanner%22,%22AT%22:4,%22Z%22:[34894]},{%22A%22:4466,%22S%22:33599,%22D%22:%22mvBottomBanner%22,%22AT%22:4,%22Z%22:[34894]}],%22Keywords%22:%22undefined%22,%22Referrer%22:%22%22,%22IsAsync%22:true}'
p799
aS'ados?t=1521564466400&request={%22Placements%22:[{%22A%22:4466,%22S%22:33599,%22D%22:%22mvTopBanner%22,%22AT%22:4,%22Z%22:[34894]},{%22A%22:4466,%22S%22:33599,%22D%22:%22mvBottomBanner%22,%22AT%22:4,%22Z%22:[34894]}],%22Keywords%22:%22undefined%22,%22Referrer%22:%22%22,%22IsAsync%22:true}'
p800
aS'css/style.css'
p801
aS'i.gif?e=eyJhdiI6Mjg0MDgsImF0Ijo0LCJidCI6MCwiY20iOjM4OTcxLCJjaCI6MTQyOTUsImNrIjp7fSwiY3IiOjI4NzUyMzAsImRpIjoiZDk0YTUwZmIxOTY4NGZhZmEyMWU1ZTVjN2ZmMmJkMjkiLCJkaiI6MCwiaWkiOiJkNzI3NDQxN2E4M2I0MzYyOTNiNmM3ZWY3ZDM5ODk5NiIsImRtIjoxLCJmYyI6NDg1OTk3MCwiZmwiOjY1MDE3LCJpcCI6IjkyLjIzMi4xMjYuMTE3IiwibnciOjQ0NjYsInBjIjowLCJlYyI6MCwicHIiOjQ2NTk0LCJydCI6MSwicnMiOjUwMCwic2EiOiI5Iiwic2IiOiJpLTA1MzU2MjQ4MTYwMmQxZDZiIiwic3AiOjI0ODY2LCJzdCI6MzM1OTksInVrIjoidWUxLTBkZDQ5NmE5ZGQxODRlNjI5ZWIzYjUyZWJlODFjOWUxIiwiem4iOjM0ODk0LCJ0cyI6MTUyMTU2NDQ2NjcwMywiYmYiOnRydWUsInBuIjoibXZUb3BCYW5uZXIiLCJiYSI6MSwiZnEiOjB9&s=ZjGfdDyh8MgIG8c6LI_HpIbv7jU'
p802
aS'ados?t=1521564469082&request={%22Placements%22:[{%22A%22:4466,%22S%22:33599,%22D%22:%22mvTopBanner%22,%22AT%22:4,%22Z%22:[34894]},{%22A%22:4466,%22S%22:33599,%22D%22:%22mvBottomBanner%22,%22AT%22:4,%22Z%22:[34894]}],%22Keywords%22:%22undefined%22,%22Referrer%22:%22%22,%22IsAsync%22:true}'
p803
aS'i.gif?e=eyJhdiI6Mjk0NDYsImF0Ijo0LCJidCI6MCwiY20iOjQwNTAzLCJjaCI6MTQyOTUsImNrIjp7fSwiY3IiOjEwNTY3NywiZGkiOiI3YzIxZjUxNGI4ZTA0NDFkOWQ5YTdlYzhmYzQ4ZTI3ZCIsImRqIjowLCJpaSI6IjRhNjE2NDNhMTQzYTQ3NmVhZDcxYzM2YmQ4NzAwZGMzIiwiZG0iOjEsImZjIjoxNDQ2NTksImZsIjo3MTM0MywiaXAiOiI5Mi4yMzIuMTI2LjExNyIsIm53Ijo0NDY2LCJwYyI6MCwiZWMiOjAsInByIjo0NjU5NCwicnQiOjEsInJzIjo1MDAsInNhIjoiOSIsInNiIjoiaS0wNTM1NjI0ODE2MDJkMWQ2YiIsInNwIjoyNDg2Niwic3QiOjMzNTk5LCJ1ayI6InVlMS0wZGQ0OTZhOWRkMTg0ZTYyOWViM2I1MmViZTgxYzllMSIsInpuIjozNDg5NCwidHMiOjE1MjE1NjQ0NjY3MDQsImJmIjp0cnVlLCJwbiI6Im12Qm90dG9tQmFubmVyIiwiYmEiOjEsImZxIjowfQ&s=WRYtfagTkYylM_UvcXvfWDtBNpI'
p804
aS'i.gif?e=eyJhdiI6Mjk0NDYsImF0Ijo0LCJidCI6MCwiY20iOjQwNTAzLCJjaCI6MTQyOTUsImNrIjp7fSwiY3IiOjEwNTY3NywiZGkiOiI2NmY4ODc1OWM0Zjg0MDRlYmZiNjc0MDNmYjcyYzk3ZSIsImRqIjowLCJpaSI6Ijc1NGM3YzVmMjRmYzQ0ZmQ5NTE3MDUyZDc2OWY3MzBhIiwiZG0iOjEsImZjIjoxNDQ2NTksImZsIjo3MTM0MywiaXAiOiI5Mi4yMzIuMTI2LjExNyIsIm53Ijo0NDY2LCJwYyI6MCwiZWMiOjAsInByIjo0NjU5NCwicnQiOjEsInJzIjo1MDAsInNhIjoiOSIsInNiIjoiaS0wMGQwNmFlODQzYzFmOGNmOSIsInNwIjoxMzExMSwic3QiOjMzNTk5LCJ1ayI6InVlMS0wZGQ0OTZhOWRkMTg0ZTYyOWViM2I1MmViZTgxYzllMSIsInpuIjozNDg5NCwidHMiOjE1MjE1NjQ0Njk5NDQsImJmIjp0cnVlLCJwbiI6Im12VG9wQmFubmVyIiwiYmEiOjEsImZxIjowfQ&s=fTp8fvlRuWlMV2V05_3GJdKbW1c'
p805
aS'i.gif?e=eyJhdiI6Mjg0MDgsImF0Ijo0LCJidCI6MCwiY20iOjM4OTcxLCJjaCI6MTQyOTUsImNrIjp7fSwiY3IiOjI4NzUyMzAsImRpIjoiODA3N2I5NTBkYTcxNDI4ZmI5YWQ0NTY2NTFlMDc2ODciLCJkaiI6MCwiaWkiOiIzNmNmMTBkYmU2OGE0ZTRjOTgxYTBhNDU1MzhkMDE5NCIsImRtIjoxLCJmYyI6NDg1OTk3MCwiZmwiOjY1MDE3LCJpcCI6IjkyLjIzMi4xMjYuMTE3IiwibnciOjQ0NjYsInBjIjowLCJlYyI6MCwicHIiOjQ2NTk0LCJydCI6MSwicnMiOjUwMCwic2EiOiI5Iiwic2IiOiJpLTAwZDA2YWU4NDNjMWY4Y2Y5Iiwic3AiOjEzMTExLCJzdCI6MzM1OTksInVrIjoidWUxLTBkZDQ5NmE5ZGQxODRlNjI5ZWIzYjUyZWJlODFjOWUxIiwiem4iOjM0ODk0LCJ0cyI6MTUyMTU2NDQ2OTk0NSwiYmYiOnRydWUsInBuIjoibXZCb3R0b21CYW5uZXIiLCJiYSI6MSwiZnEiOjB9&s=yODpzZpSqs1jiRzaPReR5UfF45Y'
p806
aS'scribe/header_recentposts.gif'
p807
aS'scribe/header_archives.gif'
p808
aS'bloggerbutton1.gif'
p809
aS'hello/89/6940/320/DSCN1161.jpg'
p810
aS'scribe/bg.gif'
p811
aS'scribe/bg_paper_top.jpg'
p812
aS'scribe/bg_paper_mid.jpg'
p813
aS'scribe/divider.gif'
p814
aS'pagead/js/r20180312/r20170110/show_ads_impl.js'
p815
aS'scribe/bg_paper_bot.jpg'
p816
aS'codeofethics'
p817
aS'studio/chart/?studio=buenavista.htm'
p818
aS'css/mojo.css?1'
p819
aS'css?family=Open+Sans:400italic,400,300,600'
p820
aS'images/glyphicons-social-32-twitter@2x.png'
p821
aS'images/glyphicons-social-31-facebook@2x.png'
p822
aS'images/mojo_imdb_sm.png'
p823
aS'img/misc/IMDbSm.png'
p824
aS'ados?t=1521564491564&request={%22Placements%22:[{%22A%22:4466,%22S%22:33599,%22D%22:%22mvTopBanner%22,%22AT%22:4,%22Z%22:[34894]},{%22A%22:4466,%22S%22:33599,%22D%22:%22mvBottomBanner%22,%22AT%22:4,%22Z%22:[34894]}],%22Keywords%22:%22undefined%22,%22Referrer%22:%22http%3A%2F%2Faipg.org%2Faipgnews%22,%22IsAsync%22:true}'
p825
aS'b2?c1=2&c2=6034961&ns__t=1521564491870&ns_c=windows-1252&cv=3.1&c8=Buena%20Vista%20All%20Time%20Box%20Office%20Results&c7=http%3A%2F%2Fwww.boxofficemojo.com%2Fstudio%2Fchart%2F%3Fstudio%3Dbuenavista.htm&c9='
p826
aS'success.txt'
p827
aS'bylaws'
p828
aS'disciplinaryprocedures'
p829
aS'images/aipg_logos/new%20logo/AIPG_san_serif.jpg'
p830
aS'disciplinaryactions'
p831
aS'ados?t=1521564505670&request={%22Placements%22:[{%22A%22:4466,%22S%22:33599,%22D%22:%22mvTopBanner%22,%22AT%22:4,%22Z%22:[34894]},{%22A%22:4466,%22S%22:33599,%22D%22:%22mvBottomBanner%22,%22AT%22:4,%22Z%22:[34894]}],%22Keywords%22:%22undefined%22,%22Referrer%22:%22http%3A%2F%2Faipg.org%2Fcodeofethics%22,%22IsAsync%22:true}'
p832
aS'css/style.css'
p833
aS'css/responsivemultimenu.css'
p834
aS'css/bjqs.css'
p835
aS'i.gif?e=eyJhdiI6Mjk0NDYsImF0Ijo0LCJidCI6MCwiY20iOjQwNTAzLCJjaCI6MTQyOTUsImNrIjp7fSwiY3IiOjEwNTY3NywiZGkiOiI1NDRhOTI5MzM4Zjg0ZTdiYjZjNDEwZWViODY5N2JhMyIsImRqIjowLCJpaSI6ImVmYTQ4OTM4MzBlYTRiNGViYTRkMjM4NjE3MDlhM2FiIiwiZG0iOjEsImZjIjoxNDQ2NTksImZsIjo3MTM0MywiaXAiOiI5Mi4yMzIuMTI2LjExNyIsIm53Ijo0NDY2LCJwYyI6MCwiZWMiOjAsInByIjo0NjU5NCwicnQiOjEsInJmIjoiaHR0cDovL2FpcGcub3JnL2NvZGVvZmV0aGljcyIsInJzIjo1MDAsInNhIjoiOSIsInNiIjoiaS0wMjU0MjlhODg5MmZjZjJkZiIsInNwIjoyMTU1LCJzdCI6MzM1OTksInVrIjoidWUxLTBkZDQ5NmE5ZGQxODRlNjI5ZWIzYjUyZWJlODFjOWUxIiwiem4iOjM0ODk0LCJ0cyI6MTUyMTU2NDUwNTkyNiwiYmYiOnRydWUsInBuIjoibXZCb3R0b21CYW5uZXIiLCJiYSI6MSwiZnEiOjB9&s=PWTP6uYO28jrnUDyDQRdoSkgH-A'
p836
aS'Advertisers/dfb8d7f69b1b459ebb1c9650037a37a2.jpg'
p837
aS'i.gif?e=eyJhdiI6Mjg0MDgsImF0Ijo0LCJidCI6MCwiY20iOjM4OTcxLCJjaCI6MTQyOTUsImNrIjp7fSwiY3IiOjI4NzUyMzAsImRpIjoiNmM3ODY5Yzc4MGZmNDlhMjk1YTg5NDQzZGRlY2I1N2UiLCJkaiI6MCwiaWkiOiIwM2VjYmE2NTZiZWY0ZDRjYjMxYWUwZWRhY2M5NjM2OSIsImRtIjoxLCJmYyI6NDg1OTk3MCwiZmwiOjY1MDE3LCJpcCI6IjkyLjIzMi4xMjYuMTE3IiwibnciOjQ0NjYsInBjIjowLCJlYyI6MCwicHIiOjQ2NTk0LCJydCI6MSwicmYiOiJodHRwOi8vYWlwZy5vcmcvY29kZW9mZXRoaWNzIiwicnMiOjUwMCwic2EiOiI5Iiwic2IiOiJpLTBhZjkyNjFjYzI2ZTZlMTdlIiwic3AiOjE0MTUsInN0IjozMzU5OSwidWsiOiJ1ZTEtMGRkNDk2YTlkZDE4NGU2MjllYjNiNTJlYmU4MWM5ZTEiLCJ6biI6MzQ4OTQsInRzIjoxNTIxNTY0NTA3NTk5LCJiZiI6dHJ1ZSwicG4iOiJtdlRvcEJhbm5lciIsImJhIjoxLCJmcSI6MH0&s=ywSQYkJEA_oO2MygXgIVbmjYKu8'
p838
aS'ados?t=1521564508652&request={%22Placements%22:[{%22A%22:4466,%22S%22:33599,%22D%22:%22mvTopBanner%22,%22AT%22:4,%22Z%22:[34894]},{%22A%22:4466,%22S%22:33599,%22D%22:%22mvBottomBanner%22,%22AT%22:4,%22Z%22:[34894]}],%22Keywords%22:%22undefined%22,%22Referrer%22:%22http%3A%2F%2Faipg.org%2Fcodeofethics%22,%22IsAsync%22:true}'
p839
aS'i.gif?e=eyJhdiI6Mjk0NDYsImF0Ijo0LCJidCI6MCwiY20iOjQwNTAzLCJjaCI6MTQyOTUsImNrIjp7fSwiY3IiOjEwNTY3NywiZGkiOiJhOTg3ODgxZmZmMTU0NjBmYTI1Njk2NDgzYmY4MWUyOCIsImRqIjowLCJpaSI6ImJmZTQwNTEyYjUyMjRhYmRiNjM5ZGYwOWI3ZDRlNTJhIiwiZG0iOjEsImZjIjoxNDQ2NTksImZsIjo3MTM0MywiaXAiOiI5Mi4yMzIuMTI2LjExNyIsIm53Ijo0NDY2LCJwYyI6MCwiZWMiOjAsInByIjo0NjU5NCwicnQiOjEsInJmIjoiaHR0cDovL2FpcGcub3JnL2NvZGVvZmV0aGljcyIsInJzIjo1MDAsInNhIjoiOSIsInNiIjoiaS0wYWY5MjYxY2MyNmU2ZTE3ZSIsInNwIjoxNDE1LCJzdCI6MzM1OTksInVrIjoidWUxLTBkZDQ5NmE5ZGQxODRlNjI5ZWIzYjUyZWJlODFjOWUxIiwiem4iOjM0ODk0LCJ0cyI6MTUyMTU2NDUwNzYwMSwiYmYiOnRydWUsInBuIjoibXZCb3R0b21CYW5uZXIiLCJiYSI6MSwiZnEiOjB9&s=jGT6S-muffdMJq7SRxScYpxGpNM'
p840
aS'i.gif?e=eyJhdiI6MzE2MTIsImF0Ijo0LCJidCI6MCwiY20iOjQzODUwLCJjaCI6MTQyOTUsImNrIjp7fSwiY3IiOjExODEyMCwiZGkiOiI3ZGEzZmJlMDliYzQ0ZjgxYmM4MmM5YmY2YTI5MGUxYSIsImRqIjowLCJpaSI6ImYwZDIzYWZiMjhkMTQ3OWM4NmQyN2VlM2FjMjJjMzc5IiwiZG0iOjEsImZjIjoxNjA2ODAsImZsIjo3Nzg2MiwiaXAiOiI5Mi4yMzIuMTI2LjExNyIsIm53Ijo0NDY2LCJwYyI6MCwiZWMiOjAsInByIjo0NjU5NCwicnQiOjEsInJmIjoiaHR0cDovL2FpcGcub3JnL2NvZGVvZmV0aGljcyIsInJzIjo1MDAsInNhIjoiOSIsInNiIjoiaS0wMjJiODY5NmMyMDZiMTFmMyIsInNwIjoxMTI3Miwic3QiOjMzNTk5LCJ1ayI6InVlMS0wZGQ0OTZhOWRkMTg0ZTYyOWViM2I1MmViZTgxYzllMSIsInpuIjozNDg5NCwidHMiOjE1MjE1NjQ1MDg5OTYsImJmIjp0cnVlLCJwbiI6Im12Qm90dG9tQmFubmVyIiwiYmEiOjEsImZxIjowfQ&s=6pmdY5iOW6BuiaUhP9w4-lzAkIw'
p841
aS'_designs/code/css/main.css'
p842
aS'library/cCDzvIZcEeS71A6sC0aurw.js'
p843
aS'js/300/addthis_widget.js'
p844
aS'__data/assets/image/0010/16795/right-arrow.png?v=0.5.1'
p845
aS'images/bkgrnb.gif'
p846
aS'__data/assets/image/0020/22682/external.png'
p847
aS'live/red_lojson/300lo.json?si=5ab13b624a51042f&bkl=0&bl=1&pdt=452&sid=5ab13b624a51042f&pub=ra-538be91c0639a56c&rev=v8.2.5-wp&ln=en&pc=men&cb=0&ab=-&dp=www.ga.gov.au&fp=scientific-topics%2Fmarine%2Fjurisdiction%2Fmap-series&fr=&of=1&pd=0&irt=1&vcl=1&md=0&ct=1&tct=0&abt=0&cdn=0&pi=1&rb=0&gen=100&chr=UTF-8&colc=1521564514622&jsl=1&uvs=5ab13828a7e55cea002&skipb=1&callback=addthis.cbs.oln9_139388560312846080'
p848
aS'live/boost/ra-538be91c0639a56c/_ate.track.config_resp'
p849
aS'bam/images/affiliate/cj2_interactive_bamm_468_v1.gif'
p850
aS'aw/pics/ebay_logo_468x60.gif'
p851
aS'url/shares.json?url=http%3A%2F%2Fwww.ga.gov.au%2Fscientific-topics%2Fmarine%2Fjurisdiction%2Fmap-series%23heading-4&callback=_ate.cbs.sc_httpwwwgagovauscientifictopicsmarinejurisdictionmapseries23heading40'
p852
aS'fs-bin/show?id=Hc7rujFlsZA&bids=39828&type=5'
p853
aS'bam/images/affiliate/cj2_search_button.gif'
p854
aS'favicon.ico'
p855
aS'success.txt'
p856
aS'fridge'
p857
aS'nationalnews'
p858
aS'cheese'
p859
aS'favicon.ico'
p860
aS'css/mojo.css?1'
p861
aS'Serving/adServer.bs?c=28&cn=display&pli=1073982656&w=728&h=90&ord=1521564493&z=0'
p862
aS'resources/sites/default/files/css/css_sSAe9sKteLQpXhdusjdSLXOzkfT5idajD-Lm1ejLyi4.css'
p863
aS'resources/sites/default/files/css/css_n4vMozhmpR69S-a4-LJzAGxDpdLR8G6xVUt9Gg-S2RE.css'
p864
aS'resources/sites/default/files/css/css_jSaH4HxV6a1gvgqB0v73hTivCXfrFlhS70RLVxVWB5Q.css'
p865
aS'resources///PROD/asset/111249/IMAGE/20180316/YouNeverHere_Pro_728x90_End_35621175976533778.jpg'
p866
aS'beacon.js'
p867
aS'css/style.css'
p868
aS'css?family=Open+Sans:400italic,400,300,600'
p869
aS'resources/sites/all/themes/custom/strawmandev/images/site-top-gradient-newsbank.png'
p870
aS'b?c1=2&c2=6034961&ns__t=1521564452290&ns_c=windows-1252&cv=3.1&c8=%27Black%20Panther%27%20Remains%20Box%20Office%20King%2C%20Topping%20%241%20Billion%20Worldwide%20-%20Box%20Office%20Mojo&c7=http%3A%2F%2Fwww.boxofficemojo.com%2Fnews%2F%3Fid%3D4378%26p%3D.htm&c9='
p871
aS'images/footerbg.png'
p872
aS'ados?t=1521564455018&request={%22Placements%22:[{%22A%22:4466,%22S%22:33599,%22D%22:%22mvTopBanner%22,%22AT%22:4,%22Z%22:[34894]},{%22A%22:4466,%22S%22:33599,%22D%22:%22mvBottomBanner%22,%22AT%22:4,%22Z%22:[34894]}],%22Keywords%22:%22undefined%22,%22Referrer%22:%22http%3A%2F%2Faipg.org%2Fnationalnews%22,%22IsAsync%22:true}'
p873
aS'weekly/'
p874
aS'quarterly/'
p875
aS'i.gif?e=eyJhdiI6Mjg0MDgsImF0Ijo0LCJidCI6MCwiY20iOjM4OTcxLCJjaCI6MTQyOTUsImNrIjp7fSwiY3IiOjI4NzUyMzAsImRpIjoiMTI1YzYxNTIxNTUzNDE0YWIyNTM0NWM0YzhiYTFjZmUiLCJkaiI6MCwiaWkiOiIwYmJiMGRiYjJlNTc0MzM2YWM3Mzk0ZWJiYjc4MDRhYSIsImRtIjoxLCJmYyI6NDg1OTk3MCwiZmwiOjY1MDE3LCJpcCI6IjkyLjIzMi4xMjYuMTE3IiwibnciOjQ0NjYsInBjIjowLCJlYyI6MCwicHIiOjQ2NTk0LCJydCI6MSwicmYiOiJodHRwOi8vYWlwZy5vcmcvbmF0aW9uYWxuZXdzIiwicnMiOjUwMCwic2EiOiI5Iiwic2IiOiJpLTA1MzU2MjQ4MTYwMmQxZDZiIiwic3AiOjE2MTIzLCJzdCI6MzM1OTksInVrIjoidWUxLTBkZDQ5NmE5ZGQxODRlNjI5ZWIzYjUyZWJlODFjOWUxIiwiem4iOjM0ODk0LCJ0cyI6MTUyMTU2NDQ1NTY1NiwiYmYiOnRydWUsInBuIjoibXZCb3R0b21CYW5uZXIiLCJiYSI6MSwiZnEiOjB9&s=5rs4Tc568iwG2L6DJe4eVuS4YDw'
p876
aS'Serving/adServer.bs?c=28&cn=display&pli=1073982656&w=728&h=90&ord=1521564456&z=0'
p877
aS'iu3?d=boxofficemojo.com&cb=695355168257420'
p878
aS'resources///PROD/asset/111249/IMAGE/20180316/YouNeverHere_Pro_728x90_End_35621175976533778.jpg'
p879
aS'b?c1=2&c2=6034961&ns__t=1521564458116&ns_c=windows-1252&cv=3.1&c8=Weekly%20Box%20Office%20Index%2C%201982-Present%20-%20Box%20Office%20Mojo&c7=http%3A%2F%2Fwww.boxofficemojo.com%2Fweekly%2F&c9=http%3A%2F%2Fwww.boxofficemojo.com%2Fnews%2F%3Fid%3D4378%26p%3D.htm'
p880
aS'b?c1=2&c2=6034961&ns__t=1521564458740&ns_c=windows-1252&cv=3.1&c8=Box%20Office%20Results%20by%20Quarter&c7=http%3A%2F%2Fwww.boxofficemojo.com%2Fquarterly%2F&c9=http%3A%2F%2Fwww.boxofficemojo.com%2Fnews%2F%3Fid%3D4378%26p%3D.htm'
p881
aS'about'
p882
aS'favicon.ico'
p883
aS'iu3?d=boxofficemojo.com&cb=508068813793066.7'
p884
aS'sites/default/files/css/css_lQaZfjVpwP_oGNqdtWCSpJT1EMqXdMiU84ekLLxQnc4.css'
p885
aS'disciplinaryactions'
p886
aS'aipgnews'
p887
aS'css/style.css'
p888
aS'ados?t=1521564465312&request={%22Placements%22:[{%22A%22:4466,%22S%22:33599,%22D%22:%22mvTopBanner%22,%22AT%22:4,%22Z%22:[34894]},{%22A%22:4466,%22S%22:33599,%22D%22:%22mvBottomBanner%22,%22AT%22:4,%22Z%22:[34894]}],%22Keywords%22:%22undefined%22,%22Referrer%22:%22%22,%22IsAsync%22:true}'
p889
aS'ados?t=1521564466400&request={%22Placements%22:[{%22A%22:4466,%22S%22:33599,%22D%22:%22mvTopBanner%22,%22AT%22:4,%22Z%22:[34894]},{%22A%22:4466,%22S%22:33599,%22D%22:%22mvBottomBanner%22,%22AT%22:4,%22Z%22:[34894]}],%22Keywords%22:%22undefined%22,%22Referrer%22:%22%22,%22IsAsync%22:true}'
p890
aS'css/style.css'
p891
aS'i.gif?e=eyJhdiI6Mjg0MDgsImF0Ijo0LCJidCI6MCwiY20iOjM4OTcxLCJjaCI6MTQyOTUsImNrIjp7fSwiY3IiOjI4NzUyMzAsImRpIjoiZDk0YTUwZmIxOTY4NGZhZmEyMWU1ZTVjN2ZmMmJkMjkiLCJkaiI6MCwiaWkiOiJkNzI3NDQxN2E4M2I0MzYyOTNiNmM3ZWY3ZDM5ODk5NiIsImRtIjoxLCJmYyI6NDg1OTk3MCwiZmwiOjY1MDE3LCJpcCI6IjkyLjIzMi4xMjYuMTE3IiwibnciOjQ0NjYsInBjIjowLCJlYyI6MCwicHIiOjQ2NTk0LCJydCI6MSwicnMiOjUwMCwic2EiOiI5Iiwic2IiOiJpLTA1MzU2MjQ4MTYwMmQxZDZiIiwic3AiOjI0ODY2LCJzdCI6MzM1OTksInVrIjoidWUxLTBkZDQ5NmE5ZGQxODRlNjI5ZWIzYjUyZWJlODFjOWUxIiwiem4iOjM0ODk0LCJ0cyI6MTUyMTU2NDQ2NjcwMywiYmYiOnRydWUsInBuIjoibXZUb3BCYW5uZXIiLCJiYSI6MSwiZnEiOjB9&s=ZjGfdDyh8MgIG8c6LI_HpIbv7jU'
p892
aS'ados?t=1521564469082&request={%22Placements%22:[{%22A%22:4466,%22S%22:33599,%22D%22:%22mvTopBanner%22,%22AT%22:4,%22Z%22:[34894]},{%22A%22:4466,%22S%22:33599,%22D%22:%22mvBottomBanner%22,%22AT%22:4,%22Z%22:[34894]}],%22Keywords%22:%22undefined%22,%22Referrer%22:%22%22,%22IsAsync%22:true}'
p893
aS'i.gif?e=eyJhdiI6Mjk0NDYsImF0Ijo0LCJidCI6MCwiY20iOjQwNTAzLCJjaCI6MTQyOTUsImNrIjp7fSwiY3IiOjEwNTY3NywiZGkiOiI3YzIxZjUxNGI4ZTA0NDFkOWQ5YTdlYzhmYzQ4ZTI3ZCIsImRqIjowLCJpaSI6IjRhNjE2NDNhMTQzYTQ3NmVhZDcxYzM2YmQ4NzAwZGMzIiwiZG0iOjEsImZjIjoxNDQ2NTksImZsIjo3MTM0MywiaXAiOiI5Mi4yMzIuMTI2LjExNyIsIm53Ijo0NDY2LCJwYyI6MCwiZWMiOjAsInByIjo0NjU5NCwicnQiOjEsInJzIjo1MDAsInNhIjoiOSIsInNiIjoiaS0wNTM1NjI0ODE2MDJkMWQ2YiIsInNwIjoyNDg2Niwic3QiOjMzNTk5LCJ1ayI6InVlMS0wZGQ0OTZhOWRkMTg0ZTYyOWViM2I1MmViZTgxYzllMSIsInpuIjozNDg5NCwidHMiOjE1MjE1NjQ0NjY3MDQsImJmIjp0cnVlLCJwbiI6Im12Qm90dG9tQmFubmVyIiwiYmEiOjEsImZxIjowfQ&s=WRYtfagTkYylM_UvcXvfWDtBNpI'
p894
aS'i.gif?e=eyJhdiI6Mjk0NDYsImF0Ijo0LCJidCI6MCwiY20iOjQwNTAzLCJjaCI6MTQyOTUsImNrIjp7fSwiY3IiOjEwNTY3NywiZGkiOiI2NmY4ODc1OWM0Zjg0MDRlYmZiNjc0MDNmYjcyYzk3ZSIsImRqIjowLCJpaSI6Ijc1NGM3YzVmMjRmYzQ0ZmQ5NTE3MDUyZDc2OWY3MzBhIiwiZG0iOjEsImZjIjoxNDQ2NTksImZsIjo3MTM0MywiaXAiOiI5Mi4yMzIuMTI2LjExNyIsIm53Ijo0NDY2LCJwYyI6MCwiZWMiOjAsInByIjo0NjU5NCwicnQiOjEsInJzIjo1MDAsInNhIjoiOSIsInNiIjoiaS0wMGQwNmFlODQzYzFmOGNmOSIsInNwIjoxMzExMSwic3QiOjMzNTk5LCJ1ayI6InVlMS0wZGQ0OTZhOWRkMTg0ZTYyOWViM2I1MmViZTgxYzllMSIsInpuIjozNDg5NCwidHMiOjE1MjE1NjQ0Njk5NDQsImJmIjp0cnVlLCJwbiI6Im12VG9wQmFubmVyIiwiYmEiOjEsImZxIjowfQ&s=fTp8fvlRuWlMV2V05_3GJdKbW1c'
p895
aS'i.gif?e=eyJhdiI6Mjg0MDgsImF0Ijo0LCJidCI6MCwiY20iOjM4OTcxLCJjaCI6MTQyOTUsImNrIjp7fSwiY3IiOjI4NzUyMzAsImRpIjoiODA3N2I5NTBkYTcxNDI4ZmI5YWQ0NTY2NTFlMDc2ODciLCJkaiI6MCwiaWkiOiIzNmNmMTBkYmU2OGE0ZTRjOTgxYTBhNDU1MzhkMDE5NCIsImRtIjoxLCJmYyI6NDg1OTk3MCwiZmwiOjY1MDE3LCJpcCI6IjkyLjIzMi4xMjYuMTE3IiwibnciOjQ0NjYsInBjIjowLCJlYyI6MCwicHIiOjQ2NTk0LCJydCI6MSwicnMiOjUwMCwic2EiOiI5Iiwic2IiOiJpLTAwZDA2YWU4NDNjMWY4Y2Y5Iiwic3AiOjEzMTExLCJzdCI6MzM1OTksInVrIjoidWUxLTBkZDQ5NmE5ZGQxODRlNjI5ZWIzYjUyZWJlODFjOWUxIiwiem4iOjM0ODk0LCJ0cyI6MTUyMTU2NDQ2OTk0NSwiYmYiOnRydWUsInBuIjoibXZCb3R0b21CYW5uZXIiLCJiYSI6MSwiZnEiOjB9&s=yODpzZpSqs1jiRzaPReR5UfF45Y'
p896
aS'scribe/header_recentposts.gif'
p897
aS'scribe/header_archives.gif'
p898
aS'bloggerbutton1.gif'
p899
aS'hello/89/6940/320/DSCN1161.jpg'
p900
aS'scribe/bg.gif'
p901
aS'scribe/bg_paper_top.jpg'
p902
aS'scribe/bg_paper_mid.jpg'
p903
aS'scribe/divider.gif'
p904
aS'pagead/js/r20180312/r20170110/show_ads_impl.js'
p905
aS'scribe/bg_paper_bot.jpg'
p906
aS'codeofethics'
p907
aS'studio/chart/?studio=buenavista.htm'
p908
aS'css/mojo.css?1'
p909
aS'css?family=Open+Sans:400italic,400,300,600'
p910
aS'images/glyphicons-social-32-twitter@2x.png'
p911
aS'images/glyphicons-social-31-facebook@2x.png'
p912
aS'images/mojo_imdb_sm.png'
p913
aS'img/misc/IMDbSm.png'
p914
aS'ados?t=1521564491564&request={%22Placements%22:[{%22A%22:4466,%22S%22:33599,%22D%22:%22mvTopBanner%22,%22AT%22:4,%22Z%22:[34894]},{%22A%22:4466,%22S%22:33599,%22D%22:%22mvBottomBanner%22,%22AT%22:4,%22Z%22:[34894]}],%22Keywords%22:%22undefined%22,%22Referrer%22:%22http%3A%2F%2Faipg.org%2Faipgnews%22,%22IsAsync%22:true}'
p915
aS'b2?c1=2&c2=6034961&ns__t=1521564491870&ns_c=windows-1252&cv=3.1&c8=Buena%20Vista%20All%20Time%20Box%20Office%20Results&c7=http%3A%2F%2Fwww.boxofficemojo.com%2Fstudio%2Fchart%2F%3Fstudio%3Dbuenavista.htm&c9='
p916
aS'success.txt'
p917
aS'bylaws'
p918
aS'disciplinaryprocedures'
p919
aS'images/aipg_logos/new%20logo/AIPG_san_serif.jpg'
p920
aS'disciplinaryactions'
p921
aS'ados?t=1521564505670&request={%22Placements%22:[{%22A%22:4466,%22S%22:33599,%22D%22:%22mvTopBanner%22,%22AT%22:4,%22Z%22:[34894]},{%22A%22:4466,%22S%22:33599,%22D%22:%22mvBottomBanner%22,%22AT%22:4,%22Z%22:[34894]}],%22Keywords%22:%22undefined%22,%22Referrer%22:%22http%3A%2F%2Faipg.org%2Fcodeofethics%22,%22IsAsync%22:true}'
p922
aS'css/style.css'
p923
aS'css/responsivemultimenu.css'
p924
aS'css/bjqs.css'
p925
aS'i.gif?e=eyJhdiI6Mjk0NDYsImF0Ijo0LCJidCI6MCwiY20iOjQwNTAzLCJjaCI6MTQyOTUsImNrIjp7fSwiY3IiOjEwNTY3NywiZGkiOiI1NDRhOTI5MzM4Zjg0ZTdiYjZjNDEwZWViODY5N2JhMyIsImRqIjowLCJpaSI6ImVmYTQ4OTM4MzBlYTRiNGViYTRkMjM4NjE3MDlhM2FiIiwiZG0iOjEsImZjIjoxNDQ2NTksImZsIjo3MTM0MywiaXAiOiI5Mi4yMzIuMTI2LjExNyIsIm53Ijo0NDY2LCJwYyI6MCwiZWMiOjAsInByIjo0NjU5NCwicnQiOjEsInJmIjoiaHR0cDovL2FpcGcub3JnL2NvZGVvZmV0aGljcyIsInJzIjo1MDAsInNhIjoiOSIsInNiIjoiaS0wMjU0MjlhODg5MmZjZjJkZiIsInNwIjoyMTU1LCJzdCI6MzM1OTksInVrIjoidWUxLTBkZDQ5NmE5ZGQxODRlNjI5ZWIzYjUyZWJlODFjOWUxIiwiem4iOjM0ODk0LCJ0cyI6MTUyMTU2NDUwNTkyNiwiYmYiOnRydWUsInBuIjoibXZCb3R0b21CYW5uZXIiLCJiYSI6MSwiZnEiOjB9&s=PWTP6uYO28jrnUDyDQRdoSkgH-A'
p926
aS'Advertisers/dfb8d7f69b1b459ebb1c9650037a37a2.jpg'
p927
aS'i.gif?e=eyJhdiI6Mjg0MDgsImF0Ijo0LCJidCI6MCwiY20iOjM4OTcxLCJjaCI6MTQyOTUsImNrIjp7fSwiY3IiOjI4NzUyMzAsImRpIjoiNmM3ODY5Yzc4MGZmNDlhMjk1YTg5NDQzZGRlY2I1N2UiLCJkaiI6MCwiaWkiOiIwM2VjYmE2NTZiZWY0ZDRjYjMxYWUwZWRhY2M5NjM2OSIsImRtIjoxLCJmYyI6NDg1OTk3MCwiZmwiOjY1MDE3LCJpcCI6IjkyLjIzMi4xMjYuMTE3IiwibnciOjQ0NjYsInBjIjowLCJlYyI6MCwicHIiOjQ2NTk0LCJydCI6MSwicmYiOiJodHRwOi8vYWlwZy5vcmcvY29kZW9mZXRoaWNzIiwicnMiOjUwMCwic2EiOiI5Iiwic2IiOiJpLTBhZjkyNjFjYzI2ZTZlMTdlIiwic3AiOjE0MTUsInN0IjozMzU5OSwidWsiOiJ1ZTEtMGRkNDk2YTlkZDE4NGU2MjllYjNiNTJlYmU4MWM5ZTEiLCJ6biI6MzQ4OTQsInRzIjoxNTIxNTY0NTA3NTk5LCJiZiI6dHJ1ZSwicG4iOiJtdlRvcEJhbm5lciIsImJhIjoxLCJmcSI6MH0&s=ywSQYkJEA_oO2MygXgIVbmjYKu8'
p928
aS'ados?t=1521564508652&request={%22Placements%22:[{%22A%22:4466,%22S%22:33599,%22D%22:%22mvTopBanner%22,%22AT%22:4,%22Z%22:[34894]},{%22A%22:4466,%22S%22:33599,%22D%22:%22mvBottomBanner%22,%22AT%22:4,%22Z%22:[34894]}],%22Keywords%22:%22undefined%22,%22Referrer%22:%22http%3A%2F%2Faipg.org%2Fcodeofethics%22,%22IsAsync%22:true}'
p929
aS'i.gif?e=eyJhdiI6Mjk0NDYsImF0Ijo0LCJidCI6MCwiY20iOjQwNTAzLCJjaCI6MTQyOTUsImNrIjp7fSwiY3IiOjEwNTY3NywiZGkiOiJhOTg3ODgxZmZmMTU0NjBmYTI1Njk2NDgzYmY4MWUyOCIsImRqIjowLCJpaSI6ImJmZTQwNTEyYjUyMjRhYmRiNjM5ZGYwOWI3ZDRlNTJhIiwiZG0iOjEsImZjIjoxNDQ2NTksImZsIjo3MTM0MywiaXAiOiI5Mi4yMzIuMTI2LjExNyIsIm53Ijo0NDY2LCJwYyI6MCwiZWMiOjAsInByIjo0NjU5NCwicnQiOjEsInJmIjoiaHR0cDovL2FpcGcub3JnL2NvZGVvZmV0aGljcyIsInJzIjo1MDAsInNhIjoiOSIsInNiIjoiaS0wYWY5MjYxY2MyNmU2ZTE3ZSIsInNwIjoxNDE1LCJzdCI6MzM1OTksInVrIjoidWUxLTBkZDQ5NmE5ZGQxODRlNjI5ZWIzYjUyZWJlODFjOWUxIiwiem4iOjM0ODk0LCJ0cyI6MTUyMTU2NDUwNzYwMSwiYmYiOnRydWUsInBuIjoibXZCb3R0b21CYW5uZXIiLCJiYSI6MSwiZnEiOjB9&s=jGT6S-muffdMJq7SRxScYpxGpNM'
p930
aS'i.gif?e=eyJhdiI6MzE2MTIsImF0Ijo0LCJidCI6MCwiY20iOjQzODUwLCJjaCI6MTQyOTUsImNrIjp7fSwiY3IiOjExODEyMCwiZGkiOiI3ZGEzZmJlMDliYzQ0ZjgxYmM4MmM5YmY2YTI5MGUxYSIsImRqIjowLCJpaSI6ImYwZDIzYWZiMjhkMTQ3OWM4NmQyN2VlM2FjMjJjMzc5IiwiZG0iOjEsImZjIjoxNjA2ODAsImZsIjo3Nzg2MiwiaXAiOiI5Mi4yMzIuMTI2LjExNyIsIm53Ijo0NDY2LCJwYyI6MCwiZWMiOjAsInByIjo0NjU5NCwicnQiOjEsInJmIjoiaHR0cDovL2FpcGcub3JnL2NvZGVvZmV0aGljcyIsInJzIjo1MDAsInNhIjoiOSIsInNiIjoiaS0wMjJiODY5NmMyMDZiMTFmMyIsInNwIjoxMTI3Miwic3QiOjMzNTk5LCJ1ayI6InVlMS0wZGQ0OTZhOWRkMTg0ZTYyOWViM2I1MmViZTgxYzllMSIsInpuIjozNDg5NCwidHMiOjE1MjE1NjQ1MDg5OTYsImJmIjp0cnVlLCJwbiI6Im12Qm90dG9tQmFubmVyIiwiYmEiOjEsImZxIjowfQ&s=6pmdY5iOW6BuiaUhP9w4-lzAkIw'
p931
aS'_designs/code/css/main.css'
p932
aS'library/cCDzvIZcEeS71A6sC0aurw.js'
p933
aS'js/300/addthis_widget.js'
p934
aS'__data/assets/image/0010/16795/right-arrow.png?v=0.5.1'
p935
aS'images/bkgrnb.gif'
p936
aS'__data/assets/image/0020/22682/external.png'
p937
aS'live/red_lojson/300lo.json?si=5ab13b624a51042f&bkl=0&bl=1&pdt=452&sid=5ab13b624a51042f&pub=ra-538be91c0639a56c&rev=v8.2.5-wp&ln=en&pc=men&cb=0&ab=-&dp=www.ga.gov.au&fp=scientific-topics%2Fmarine%2Fjurisdiction%2Fmap-series&fr=&of=1&pd=0&irt=1&vcl=1&md=0&ct=1&tct=0&abt=0&cdn=0&pi=1&rb=0&gen=100&chr=UTF-8&colc=1521564514622&jsl=1&uvs=5ab13828a7e55cea002&skipb=1&callback=addthis.cbs.oln9_139388560312846080'
p938
aS'live/boost/ra-538be91c0639a56c/_ate.track.config_resp'
p939
aS'bam/images/affiliate/cj2_interactive_bamm_468_v1.gif'
p940
aS'aw/pics/ebay_logo_468x60.gif'
p941
aS'url/shares.json?url=http%3A%2F%2Fwww.ga.gov.au%2Fscientific-topics%2Fmarine%2Fjurisdiction%2Fmap-series%23heading-4&callback=_ate.cbs.sc_httpwwwgagovauscientifictopicsmarinejurisdictionmapseries23heading40'
p942
aS'fs-bin/show?id=Hc7rujFlsZA&bids=39828&type=5'
p943
aS'bam/images/affiliate/cj2_search_button.gif'
p944
aS'favicon.ico'
p945
aS'JS/quote.js'
p946
aS'Image/AddALL-logo-991224.gif'
p947
aS'Image/printer.gif'
p948
aS'Image/boxin.gif'
p949
aS'Image/smallebay.gif'
p950
aS'success.txt'
p951
aS'fridge'
p952
aS'nationalnews'
p953
aS'cheese'
p954
aS'favicon.ico'
p955
aS'css/mojo.css?1'
p956
aS'Serving/adServer.bs?c=28&cn=display&pli=1073982656&w=728&h=90&ord=1521564493&z=0'
p957
aS'resources/sites/default/files/css/css_sSAe9sKteLQpXhdusjdSLXOzkfT5idajD-Lm1ejLyi4.css'
p958
aS'resources/sites/default/files/css/css_n4vMozhmpR69S-a4-LJzAGxDpdLR8G6xVUt9Gg-S2RE.css'
p959
aS'resources/sites/default/files/css/css_jSaH4HxV6a1gvgqB0v73hTivCXfrFlhS70RLVxVWB5Q.css'
p960
aS'resources///PROD/asset/111249/IMAGE/20180316/YouNeverHere_Pro_728x90_End_35621175976533778.jpg'
p961
aS'beacon.js'
p962
aS'css/style.css'
p963
aS'css?family=Open+Sans:400italic,400,300,600'
p964
aS'resources/sites/all/themes/custom/strawmandev/images/site-top-gradient-newsbank.png'
p965
aS'b?c1=2&c2=6034961&ns__t=1521564452290&ns_c=windows-1252&cv=3.1&c8=%27Black%20Panther%27%20Remains%20Box%20Office%20King%2C%20Topping%20%241%20Billion%20Worldwide%20-%20Box%20Office%20Mojo&c7=http%3A%2F%2Fwww.boxofficemojo.com%2Fnews%2F%3Fid%3D4378%26p%3D.htm&c9='
p966
aS'images/footerbg.png'
p967
aS'ados?t=1521564455018&request={%22Placements%22:[{%22A%22:4466,%22S%22:33599,%22D%22:%22mvTopBanner%22,%22AT%22:4,%22Z%22:[34894]},{%22A%22:4466,%22S%22:33599,%22D%22:%22mvBottomBanner%22,%22AT%22:4,%22Z%22:[34894]}],%22Keywords%22:%22undefined%22,%22Referrer%22:%22http%3A%2F%2Faipg.org%2Fnationalnews%22,%22IsAsync%22:true}'
p968
aS'weekly/'
p969
aS'quarterly/'
p970
aS'i.gif?e=eyJhdiI6Mjg0MDgsImF0Ijo0LCJidCI6MCwiY20iOjM4OTcxLCJjaCI6MTQyOTUsImNrIjp7fSwiY3IiOjI4NzUyMzAsImRpIjoiMTI1YzYxNTIxNTUzNDE0YWIyNTM0NWM0YzhiYTFjZmUiLCJkaiI6MCwiaWkiOiIwYmJiMGRiYjJlNTc0MzM2YWM3Mzk0ZWJiYjc4MDRhYSIsImRtIjoxLCJmYyI6NDg1OTk3MCwiZmwiOjY1MDE3LCJpcCI6IjkyLjIzMi4xMjYuMTE3IiwibnciOjQ0NjYsInBjIjowLCJlYyI6MCwicHIiOjQ2NTk0LCJydCI6MSwicmYiOiJodHRwOi8vYWlwZy5vcmcvbmF0aW9uYWxuZXdzIiwicnMiOjUwMCwic2EiOiI5Iiwic2IiOiJpLTA1MzU2MjQ4MTYwMmQxZDZiIiwic3AiOjE2MTIzLCJzdCI6MzM1OTksInVrIjoidWUxLTBkZDQ5NmE5ZGQxODRlNjI5ZWIzYjUyZWJlODFjOWUxIiwiem4iOjM0ODk0LCJ0cyI6MTUyMTU2NDQ1NTY1NiwiYmYiOnRydWUsInBuIjoibXZCb3R0b21CYW5uZXIiLCJiYSI6MSwiZnEiOjB9&s=5rs4Tc568iwG2L6DJe4eVuS4YDw'
p971
aS'Serving/adServer.bs?c=28&cn=display&pli=1073982656&w=728&h=90&ord=1521564456&z=0'
p972
aS'iu3?d=boxofficemojo.com&cb=695355168257420'
p973
aS'resources///PROD/asset/111249/IMAGE/20180316/YouNeverHere_Pro_728x90_End_35621175976533778.jpg'
p974
aS'b?c1=2&c2=6034961&ns__t=1521564458116&ns_c=windows-1252&cv=3.1&c8=Weekly%20Box%20Office%20Index%2C%201982-Present%20-%20Box%20Office%20Mojo&c7=http%3A%2F%2Fwww.boxofficemojo.com%2Fweekly%2F&c9=http%3A%2F%2Fwww.boxofficemojo.com%2Fnews%2F%3Fid%3D4378%26p%3D.htm'
p975
aS'b?c1=2&c2=6034961&ns__t=1521564458740&ns_c=windows-1252&cv=3.1&c8=Box%20Office%20Results%20by%20Quarter&c7=http%3A%2F%2Fwww.boxofficemojo.com%2Fquarterly%2F&c9=http%3A%2F%2Fwww.boxofficemojo.com%2Fnews%2F%3Fid%3D4378%26p%3D.htm'
p976
aS'about'
p977
aS'favicon.ico'
p978
aS'iu3?d=boxofficemojo.com&cb=508068813793066.7'
p979
aS'sites/default/files/css/css_lQaZfjVpwP_oGNqdtWCSpJT1EMqXdMiU84ekLLxQnc4.css'
p980
aS'disciplinaryactions'
p981
aS'aipgnews'
p982
aS'css/style.css'
p983
aS'ados?t=1521564465312&request={%22Placements%22:[{%22A%22:4466,%22S%22:33599,%22D%22:%22mvTopBanner%22,%22AT%22:4,%22Z%22:[34894]},{%22A%22:4466,%22S%22:33599,%22D%22:%22mvBottomBanner%22,%22AT%22:4,%22Z%22:[34894]}],%22Keywords%22:%22undefined%22,%22Referrer%22:%22%22,%22IsAsync%22:true}'
p984
aS'ados?t=1521564466400&request={%22Placements%22:[{%22A%22:4466,%22S%22:33599,%22D%22:%22mvTopBanner%22,%22AT%22:4,%22Z%22:[34894]},{%22A%22:4466,%22S%22:33599,%22D%22:%22mvBottomBanner%22,%22AT%22:4,%22Z%22:[34894]}],%22Keywords%22:%22undefined%22,%22Referrer%22:%22%22,%22IsAsync%22:true}'
p985
aS'css/style.css'
p986
aS'i.gif?e=eyJhdiI6Mjg0MDgsImF0Ijo0LCJidCI6MCwiY20iOjM4OTcxLCJjaCI6MTQyOTUsImNrIjp7fSwiY3IiOjI4NzUyMzAsImRpIjoiZDk0YTUwZmIxOTY4NGZhZmEyMWU1ZTVjN2ZmMmJkMjkiLCJkaiI6MCwiaWkiOiJkNzI3NDQxN2E4M2I0MzYyOTNiNmM3ZWY3ZDM5ODk5NiIsImRtIjoxLCJmYyI6NDg1OTk3MCwiZmwiOjY1MDE3LCJpcCI6IjkyLjIzMi4xMjYuMTE3IiwibnciOjQ0NjYsInBjIjowLCJlYyI6MCwicHIiOjQ2NTk0LCJydCI6MSwicnMiOjUwMCwic2EiOiI5Iiwic2IiOiJpLTA1MzU2MjQ4MTYwMmQxZDZiIiwic3AiOjI0ODY2LCJzdCI6MzM1OTksInVrIjoidWUxLTBkZDQ5NmE5ZGQxODRlNjI5ZWIzYjUyZWJlODFjOWUxIiwiem4iOjM0ODk0LCJ0cyI6MTUyMTU2NDQ2NjcwMywiYmYiOnRydWUsInBuIjoibXZUb3BCYW5uZXIiLCJiYSI6MSwiZnEiOjB9&s=ZjGfdDyh8MgIG8c6LI_HpIbv7jU'
p987
aS'ados?t=1521564469082&request={%22Placements%22:[{%22A%22:4466,%22S%22:33599,%22D%22:%22mvTopBanner%22,%22AT%22:4,%22Z%22:[34894]},{%22A%22:4466,%22S%22:33599,%22D%22:%22mvBottomBanner%22,%22AT%22:4,%22Z%22:[34894]}],%22Keywords%22:%22undefined%22,%22Referrer%22:%22%22,%22IsAsync%22:true}'
p988
aS'i.gif?e=eyJhdiI6Mjk0NDYsImF0Ijo0LCJidCI6MCwiY20iOjQwNTAzLCJjaCI6MTQyOTUsImNrIjp7fSwiY3IiOjEwNTY3NywiZGkiOiI3YzIxZjUxNGI4ZTA0NDFkOWQ5YTdlYzhmYzQ4ZTI3ZCIsImRqIjowLCJpaSI6IjRhNjE2NDNhMTQzYTQ3NmVhZDcxYzM2YmQ4NzAwZGMzIiwiZG0iOjEsImZjIjoxNDQ2NTksImZsIjo3MTM0MywiaXAiOiI5Mi4yMzIuMTI2LjExNyIsIm53Ijo0NDY2LCJwYyI6MCwiZWMiOjAsInByIjo0NjU5NCwicnQiOjEsInJzIjo1MDAsInNhIjoiOSIsInNiIjoiaS0wNTM1NjI0ODE2MDJkMWQ2YiIsInNwIjoyNDg2Niwic3QiOjMzNTk5LCJ1ayI6InVlMS0wZGQ0OTZhOWRkMTg0ZTYyOWViM2I1MmViZTgxYzllMSIsInpuIjozNDg5NCwidHMiOjE1MjE1NjQ0NjY3MDQsImJmIjp0cnVlLCJwbiI6Im12Qm90dG9tQmFubmVyIiwiYmEiOjEsImZxIjowfQ&s=WRYtfagTkYylM_UvcXvfWDtBNpI'
p989
aS'i.gif?e=eyJhdiI6Mjk0NDYsImF0Ijo0LCJidCI6MCwiY20iOjQwNTAzLCJjaCI6MTQyOTUsImNrIjp7fSwiY3IiOjEwNTY3NywiZGkiOiI2NmY4ODc1OWM0Zjg0MDRlYmZiNjc0MDNmYjcyYzk3ZSIsImRqIjowLCJpaSI6Ijc1NGM3YzVmMjRmYzQ0ZmQ5NTE3MDUyZDc2OWY3MzBhIiwiZG0iOjEsImZjIjoxNDQ2NTksImZsIjo3MTM0MywiaXAiOiI5Mi4yMzIuMTI2LjExNyIsIm53Ijo0NDY2LCJwYyI6MCwiZWMiOjAsInByIjo0NjU5NCwicnQiOjEsInJzIjo1MDAsInNhIjoiOSIsInNiIjoiaS0wMGQwNmFlODQzYzFmOGNmOSIsInNwIjoxMzExMSwic3QiOjMzNTk5LCJ1ayI6InVlMS0wZGQ0OTZhOWRkMTg0ZTYyOWViM2I1MmViZTgxYzllMSIsInpuIjozNDg5NCwidHMiOjE1MjE1NjQ0Njk5NDQsImJmIjp0cnVlLCJwbiI6Im12VG9wQmFubmVyIiwiYmEiOjEsImZxIjowfQ&s=fTp8fvlRuWlMV2V05_3GJdKbW1c'
p990
aS'i.gif?e=eyJhdiI6Mjg0MDgsImF0Ijo0LCJidCI6MCwiY20iOjM4OTcxLCJjaCI6MTQyOTUsImNrIjp7fSwiY3IiOjI4NzUyMzAsImRpIjoiODA3N2I5NTBkYTcxNDI4ZmI5YWQ0NTY2NTFlMDc2ODciLCJkaiI6MCwiaWkiOiIzNmNmMTBkYmU2OGE0ZTRjOTgxYTBhNDU1MzhkMDE5NCIsImRtIjoxLCJmYyI6NDg1OTk3MCwiZmwiOjY1MDE3LCJpcCI6IjkyLjIzMi4xMjYuMTE3IiwibnciOjQ0NjYsInBjIjowLCJlYyI6MCwicHIiOjQ2NTk0LCJydCI6MSwicnMiOjUwMCwic2EiOiI5Iiwic2IiOiJpLTAwZDA2YWU4NDNjMWY4Y2Y5Iiwic3AiOjEzMTExLCJzdCI6MzM1OTksInVrIjoidWUxLTBkZDQ5NmE5ZGQxODRlNjI5ZWIzYjUyZWJlODFjOWUxIiwiem4iOjM0ODk0LCJ0cyI6MTUyMTU2NDQ2OTk0NSwiYmYiOnRydWUsInBuIjoibXZCb3R0b21CYW5uZXIiLCJiYSI6MSwiZnEiOjB9&s=yODpzZpSqs1jiRzaPReR5UfF45Y'
p991
aS'scribe/header_recentposts.gif'
p992
aS'scribe/header_archives.gif'
p993
aS'bloggerbutton1.gif'
p994
aS'hello/89/6940/320/DSCN1161.jpg'
p995
aS'scribe/bg.gif'
p996
aS'scribe/bg_paper_top.jpg'
p997
aS'scribe/bg_paper_mid.jpg'
p998
aS'scribe/divider.gif'
p999
aS'pagead/js/r20180312/r20170110/show_ads_impl.js'
p1000
aS'scribe/bg_paper_bot.jpg'
p1001
aS'codeofethics'
p1002
aS'studio/chart/?studio=buenavista.htm'
p1003
aS'css/mojo.css?1'
p1004
aS'css?family=Open+Sans:400italic,400,300,600'
p1005
aS'images/glyphicons-social-32-twitter@2x.png'
p1006
aS'images/glyphicons-social-31-facebook@2x.png'
p1007
aS'images/mojo_imdb_sm.png'
p1008
aS'img/misc/IMDbSm.png'
p1009
aS'ados?t=1521564491564&request={%22Placements%22:[{%22A%22:4466,%22S%22:33599,%22D%22:%22mvTopBanner%22,%22AT%22:4,%22Z%22:[34894]},{%22A%22:4466,%22S%22:33599,%22D%22:%22mvBottomBanner%22,%22AT%22:4,%22Z%22:[34894]}],%22Keywords%22:%22undefined%22,%22Referrer%22:%22http%3A%2F%2Faipg.org%2Faipgnews%22,%22IsAsync%22:true}'
p1010
aS'b2?c1=2&c2=6034961&ns__t=1521564491870&ns_c=windows-1252&cv=3.1&c8=Buena%20Vista%20All%20Time%20Box%20Office%20Results&c7=http%3A%2F%2Fwww.boxofficemojo.com%2Fstudio%2Fchart%2F%3Fstudio%3Dbuenavista.htm&c9='
p1011
aS'success.txt'
p1012
aS'bylaws'
p1013
aS'disciplinaryprocedures'
p1014
aS'images/aipg_logos/new%20logo/AIPG_san_serif.jpg'
p1015
aS'disciplinaryactions'
p1016
aS'ados?t=1521564505670&request={%22Placements%22:[{%22A%22:4466,%22S%22:33599,%22D%22:%22mvTopBanner%22,%22AT%22:4,%22Z%22:[34894]},{%22A%22:4466,%22S%22:33599,%22D%22:%22mvBottomBanner%22,%22AT%22:4,%22Z%22:[34894]}],%22Keywords%22:%22undefined%22,%22Referrer%22:%22http%3A%2F%2Faipg.org%2Fcodeofethics%22,%22IsAsync%22:true}'
p1017
aS'css/style.css'
p1018
aS'css/responsivemultimenu.css'
p1019
aS'css/bjqs.css'
p1020
aS'i.gif?e=eyJhdiI6Mjk0NDYsImF0Ijo0LCJidCI6MCwiY20iOjQwNTAzLCJjaCI6MTQyOTUsImNrIjp7fSwiY3IiOjEwNTY3NywiZGkiOiI1NDRhOTI5MzM4Zjg0ZTdiYjZjNDEwZWViODY5N2JhMyIsImRqIjowLCJpaSI6ImVmYTQ4OTM4MzBlYTRiNGViYTRkMjM4NjE3MDlhM2FiIiwiZG0iOjEsImZjIjoxNDQ2NTksImZsIjo3MTM0MywiaXAiOiI5Mi4yMzIuMTI2LjExNyIsIm53Ijo0NDY2LCJwYyI6MCwiZWMiOjAsInByIjo0NjU5NCwicnQiOjEsInJmIjoiaHR0cDovL2FpcGcub3JnL2NvZGVvZmV0aGljcyIsInJzIjo1MDAsInNhIjoiOSIsInNiIjoiaS0wMjU0MjlhODg5MmZjZjJkZiIsInNwIjoyMTU1LCJzdCI6MzM1OTksInVrIjoidWUxLTBkZDQ5NmE5ZGQxODRlNjI5ZWIzYjUyZWJlODFjOWUxIiwiem4iOjM0ODk0LCJ0cyI6MTUyMTU2NDUwNTkyNiwiYmYiOnRydWUsInBuIjoibXZCb3R0b21CYW5uZXIiLCJiYSI6MSwiZnEiOjB9&s=PWTP6uYO28jrnUDyDQRdoSkgH-A'
p1021
aS'Advertisers/dfb8d7f69b1b459ebb1c9650037a37a2.jpg'
p1022
aS'i.gif?e=eyJhdiI6Mjg0MDgsImF0Ijo0LCJidCI6MCwiY20iOjM4OTcxLCJjaCI6MTQyOTUsImNrIjp7fSwiY3IiOjI4NzUyMzAsImRpIjoiNmM3ODY5Yzc4MGZmNDlhMjk1YTg5NDQzZGRlY2I1N2UiLCJkaiI6MCwiaWkiOiIwM2VjYmE2NTZiZWY0ZDRjYjMxYWUwZWRhY2M5NjM2OSIsImRtIjoxLCJmYyI6NDg1OTk3MCwiZmwiOjY1MDE3LCJpcCI6IjkyLjIzMi4xMjYuMTE3IiwibnciOjQ0NjYsInBjIjowLCJlYyI6MCwicHIiOjQ2NTk0LCJydCI6MSwicmYiOiJodHRwOi8vYWlwZy5vcmcvY29kZW9mZXRoaWNzIiwicnMiOjUwMCwic2EiOiI5Iiwic2IiOiJpLTBhZjkyNjFjYzI2ZTZlMTdlIiwic3AiOjE0MTUsInN0IjozMzU5OSwidWsiOiJ1ZTEtMGRkNDk2YTlkZDE4NGU2MjllYjNiNTJlYmU4MWM5ZTEiLCJ6biI6MzQ4OTQsInRzIjoxNTIxNTY0NTA3NTk5LCJiZiI6dHJ1ZSwicG4iOiJtdlRvcEJhbm5lciIsImJhIjoxLCJmcSI6MH0&s=ywSQYkJEA_oO2MygXgIVbmjYKu8'
p1023
aS'ados?t=1521564508652&request={%22Placements%22:[{%22A%22:4466,%22S%22:33599,%22D%22:%22mvTopBanner%22,%22AT%22:4,%22Z%22:[34894]},{%22A%22:4466,%22S%22:33599,%22D%22:%22mvBottomBanner%22,%22AT%22:4,%22Z%22:[34894]}],%22Keywords%22:%22undefined%22,%22Referrer%22:%22http%3A%2F%2Faipg.org%2Fcodeofethics%22,%22IsAsync%22:true}'
p1024
aS'i.gif?e=eyJhdiI6Mjk0NDYsImF0Ijo0LCJidCI6MCwiY20iOjQwNTAzLCJjaCI6MTQyOTUsImNrIjp7fSwiY3IiOjEwNTY3NywiZGkiOiJhOTg3ODgxZmZmMTU0NjBmYTI1Njk2NDgzYmY4MWUyOCIsImRqIjowLCJpaSI6ImJmZTQwNTEyYjUyMjRhYmRiNjM5ZGYwOWI3ZDRlNTJhIiwiZG0iOjEsImZjIjoxNDQ2NTksImZsIjo3MTM0MywiaXAiOiI5Mi4yMzIuMTI2LjExNyIsIm53Ijo0NDY2LCJwYyI6MCwiZWMiOjAsInByIjo0NjU5NCwicnQiOjEsInJmIjoiaHR0cDovL2FpcGcub3JnL2NvZGVvZmV0aGljcyIsInJzIjo1MDAsInNhIjoiOSIsInNiIjoiaS0wYWY5MjYxY2MyNmU2ZTE3ZSIsInNwIjoxNDE1LCJzdCI6MzM1OTksInVrIjoidWUxLTBkZDQ5NmE5ZGQxODRlNjI5ZWIzYjUyZWJlODFjOWUxIiwiem4iOjM0ODk0LCJ0cyI6MTUyMTU2NDUwNzYwMSwiYmYiOnRydWUsInBuIjoibXZCb3R0b21CYW5uZXIiLCJiYSI6MSwiZnEiOjB9&s=jGT6S-muffdMJq7SRxScYpxGpNM'
p1025
aS'i.gif?e=eyJhdiI6MzE2MTIsImF0Ijo0LCJidCI6MCwiY20iOjQzODUwLCJjaCI6MTQyOTUsImNrIjp7fSwiY3IiOjExODEyMCwiZGkiOiI3ZGEzZmJlMDliYzQ0ZjgxYmM4MmM5YmY2YTI5MGUxYSIsImRqIjowLCJpaSI6ImYwZDIzYWZiMjhkMTQ3OWM4NmQyN2VlM2FjMjJjMzc5IiwiZG0iOjEsImZjIjoxNjA2ODAsImZsIjo3Nzg2MiwiaXAiOiI5Mi4yMzIuMTI2LjExNyIsIm53Ijo0NDY2LCJwYyI6MCwiZWMiOjAsInByIjo0NjU5NCwicnQiOjEsInJmIjoiaHR0cDovL2FpcGcub3JnL2NvZGVvZmV0aGljcyIsInJzIjo1MDAsInNhIjoiOSIsInNiIjoiaS0wMjJiODY5NmMyMDZiMTFmMyIsInNwIjoxMTI3Miwic3QiOjMzNTk5LCJ1ayI6InVlMS0wZGQ0OTZhOWRkMTg0ZTYyOWViM2I1MmViZTgxYzllMSIsInpuIjozNDg5NCwidHMiOjE1MjE1NjQ1MDg5OTYsImJmIjp0cnVlLCJwbiI6Im12Qm90dG9tQmFubmVyIiwiYmEiOjEsImZxIjowfQ&s=6pmdY5iOW6BuiaUhP9w4-lzAkIw'
p1026
aS'_designs/code/css/main.css'
p1027
aS'library/cCDzvIZcEeS71A6sC0aurw.js'
p1028
aS'js/300/addthis_widget.js'
p1029
aS'__data/assets/image/0010/16795/right-arrow.png?v=0.5.1'
p1030
aS'images/bkgrnb.gif'
p1031
aS'__data/assets/image/0020/22682/external.png'
p1032
aS'live/red_lojson/300lo.json?si=5ab13b624a51042f&bkl=0&bl=1&pdt=452&sid=5ab13b624a51042f&pub=ra-538be91c0639a56c&rev=v8.2.5-wp&ln=en&pc=men&cb=0&ab=-&dp=www.ga.gov.au&fp=scientific-topics%2Fmarine%2Fjurisdiction%2Fmap-series&fr=&of=1&pd=0&irt=1&vcl=1&md=0&ct=1&tct=0&abt=0&cdn=0&pi=1&rb=0&gen=100&chr=UTF-8&colc=1521564514622&jsl=1&uvs=5ab13828a7e55cea002&skipb=1&callback=addthis.cbs.oln9_139388560312846080'
p1033
aS'live/boost/ra-538be91c0639a56c/_ate.track.config_resp'
p1034
aS'bam/images/affiliate/cj2_interactive_bamm_468_v1.gif'
p1035
aS'aw/pics/ebay_logo_468x60.gif'
p1036
aS'url/shares.json?url=http%3A%2F%2Fwww.ga.gov.au%2Fscientific-topics%2Fmarine%2Fjurisdiction%2Fmap-series%23heading-4&callback=_ate.cbs.sc_httpwwwgagovauscientifictopicsmarinejurisdictionmapseries23heading40'
p1037
aS'fs-bin/show?id=Hc7rujFlsZA&bids=39828&type=5'
p1038
aS'bam/images/affiliate/cj2_search_button.gif'
p1039
aS'favicon.ico'
p1040
aS'JS/quote.js'
p1041
aS'Image/AddALL-logo-991224.gif'
p1042
aS'Image/printer.gif'
p1043
aS'Image/boxin.gif'
p1044
aS'Image/smallebay.gif'
p1045
aS'favicon.ico'
p1046
aS'favicon.ico'
p1047
aS'New/q.cgi?dummy=366023'
p1048
aS'New/q.cgi?dummy=431700'
p1049
aS'New/q.cgi?dummy=549749'
p1050
a.