(lp0
S'MARK_CHIRNSIDE_INTERVIEW_JANUARY_2005.htm'
p1
aS'counter/counter_xhtml.js'
p2
aS'ChirnsideCSS.css'
p3
aS'GeneratedItems/CSScriptLib.js'
p4
aS'Images/Header%20Buttons/Home.gif'
p5
aS'Images/Header%20Buttons/Books.gif'
p6
aS'Images/Header%20Buttons/Interviews.gif'
p7
aS'Images/Header%20Buttons/Articles.gif'
p8
aS'Images/Header%20Buttons/News.gif'
p9
aS'Images/Header%20Buttons/Updates.gif'
p10
aS'Images/Header%20Buttons/Sitemap.gif'
p11
aS'Images/Header-attempt2.gif'
p12
aS'Images/Template2/dkredblk.gif'
p13
aS'Mark_Chirnside_Interview_July2011.htm'
p14
aS't.php?sc_project=632360&java=1&security=585a7200&u1=F92FE7FB66454F0ADAD99497C923CFA3&sc_random=0.2575718228094348&jg=6&rr=3.2.2.2.2.2.2.2.2&resolution=1600&h=1103&camefrom=http%3A//www.markchirnside.co.uk/interviews_index.htm&u=http%3A//www.markchirnside.co.uk/MARK_CHIRNSIDE_INTERVIEW_JANUARY_2005.htm&t=Mark%20Chirnside%27s%20Reception%20Room%3A%20Olympic%2C%20Titanic%20%26%20Britannic%3A%20Olympic%20Interview%2C%20January%202005&rcat=d&rdomo=d&rdomg=6&sc_snum=1&sess=7a9eb4&p=0'
p15
aS'ChirnsideCSS.css'
p16
aS'GeneratedItems/CSScriptLib.js'
p17
aS'counter/counter_xhtml.js'
p18
aS'Images/Header%20Buttons/Sitemap_over.gif'
p19
aS'Images/Header%20Buttons/Updates_over.gif'
p20
aS'Images/Header%20Buttons/News_over.gif'
p21
aS'Images/Header%20Buttons/Articles_over.gif'
p22
aS'Images/Header%20Buttons/Interviews_over.gif'
p23
aS'Images/Header%20Buttons/Books_over.gif'
p24
aS'Images/Header%20Buttons/Home_over.gif'
p25
aS'Images/Header%20Buttons/Home.gif'
p26
aS'Images/Header%20Buttons/Books.gif'
p27
aS'Images/Header%20Buttons/Interviews.gif'
p28
aS'Images/Header%20Buttons/Articles.gif'
p29
aS'Images/Header%20Buttons/News.gif'
p30
aS'Images/Header%20Buttons/Updates.gif'
p31
aS'Images/Header%20Buttons/Sitemap.gif'
p32
aS'Images/Header-attempt2.gif'
p33
aS'Images/Template2/dkredblk.gif'
p34
aS't.php?sc_project=632360&java=1&security=585a7200&u1=F92FE7FB66454F0ADAD99497C923CFA3&sc_random=0.7225240229617644&jg=2&rr=3.2.2.2.2.2.2.2.2&resolution=1600&h=1103&camefrom=http%3A//www.markchirnside.co.uk/interviews_index.htm&u=http%3A//www.markchirnside.co.uk/Mark_Chirnside_Interview_July2011.htm&t=Mark%20Chirnside%27s%20Reception%20Room%3A%20Olympic%2C%20Titanic%20%26%20Britannic%3A%20Olympic%20Interview%2C%20July%202011&rcat=d&rdomo=d&rdomg=2&sc_snum=1&sess=7a9eb4&p=0'
p35
aS'Images/Header%20Buttons/Sitemap_over.gif'
p36
aS'Images/Header%20Buttons/Updates_over.gif'
p37
aS'Images/Header%20Buttons/News_over.gif'
p38
aS'Images/Header%20Buttons/Articles_over.gif'
p39
aS'Images/Header%20Buttons/Interviews_over.gif'
p40
aS'Images/Header%20Buttons/Books_over.gif'
p41
aS'Images/Header%20Buttons/Home_over.gif'
p42
aS'NEWS-UPDATES.htm'
p43
aS'ChirnsideCSS.css'
p44
aS'GeneratedItems/CSScriptLib.js'
p45
aS'counter/counter_xhtml.js'
p46
aS'Images/Header%20Buttons/Home.gif'
p47
aS'Images/Header%20Buttons/Books.gif'
p48
aS'Images/Header%20Buttons/Interviews.gif'
p49
aS'Images/Header%20Buttons/Articles.gif'
p50
aS'Images/Header%20Buttons/News.gif'
p51
aS'Images/Header%20Buttons/Updates.gif'
p52
aS'Images/Header%20Buttons/Sitemap.gif'
p53
aS'Images/Header-attempt2.gif'
p54
aS'Images/Pics/8-RMSOlympic2015FinalBookCover.jpg'
p55
aS'Images/Pics/7-OlympicClassIllustrated2012BookCover.jpg'
p56
aS'Images/Pics/HistoryPressTitanicCollection2011-12.jpg'
p57
aS'Images/Pics/HistoryPressTitanicCollection2011-12-contact.jpg'
p58
aS'books_index.htm'
p59
aS't.php?sc_project=632360&java=1&security=585a7200&u1=F92FE7FB66454F0ADAD99497C923CFA3&sc_random=0.7354253204132517&jg=3&rr=3.2.2.2.2.2.2.2.2&resolution=1600&h=1103&camefrom=http%3A//www.markchirnside.co.uk/interviews_index.htm&u=http%3A//www.markchirnside.co.uk/NEWS-UPDATES.htm&t=Mark%20Chirnside%27s%20Reception%20Room%3A%20Olympic%2C%20Titanic%20%26%20Britannic%3A%20News%20%26%20Updates&rcat=d&rdomo=d&rdomg=3&sc_snum=1&sess=7a9eb4&p=0'
p60
aS'ChirnsideCSS.css'
p61
aS'counter/counter_xhtml.js'
p62
aS'GeneratedItems/CSScriptLib.js'
p63
aS'Images/Template2/dkredblk.gif'
p64
aS'Images/Header%20Buttons/Sitemap_over.gif'
p65
aS'Images/Header%20Buttons/Updates_over.gif'
p66
aS'Images/Header%20Buttons/News_over.gif'
p67
aS'Images/Header%20Buttons/Articles_over.gif'
p68
aS'Images/Header%20Buttons/Interviews_over.gif'
p69
aS'Images/Header%20Buttons/Books_over.gif'
p70
aS'Images/Header%20Buttons/Home_over.gif'
p71
aS'Images/Header%20Buttons/Home.gif'
p72
aS'Images/Header%20Buttons/Books.gif'
p73
aS'Images/Header%20Buttons/Interviews.gif'
p74
aS'Images/Header%20Buttons/Articles.gif'
p75
aS'Images/Header%20Buttons/News.gif'
p76
aS'Images/Header%20Buttons/Updates.gif'
p77
aS'Images/Header%20Buttons/Sitemap.gif'
p78
aS'Images/Header-attempt2.gif'
p79
aS'Images/Pics/11-TheBigFour2016draftBookCover.jpg'
p80
aS'Images/Pics/8-RMSOlympic2015FinalBookCover.jpg'
p81
aS'Images/Pics/9-StingoftheHawke2015BookCoverChirnsideHalpern.jpg'
p82
aS'Images/Pics/7-OlympicClassIllustrated2012BookCover.jpg'
p83
aS'Images/Pics/6-OlympicClassShips2011BookCover.jpg'
p84
aS'Images/Pics/5-RMSAquitaniaBookCover.jpg'
p85
aS'Images/Pics/4-RMSMajesticBookCover.jpg'
p86
aS'Images/Pics/3-RMSOlympicBookCover.jpg'
p87
aS'Images/Pics/2-OlympicClassShipsBookCover.jpg'
p88
aS'Images/Pics/1-PoetryBookCover-small.jpg'
p89
aS'Images/Template2/dkredblk.gif'
p90
aS't.php?sc_project=632360&java=1&security=585a7200&u1=F92FE7FB66454F0ADAD99497C923CFA3&sc_random=0.4255282822087829&jg=1&rr=3.2.2.2.2.2.2.2.2&resolution=1600&h=1103&camefrom=http%3A//www.markchirnside.co.uk/index.html&u=http%3A//www.markchirnside.co.uk/books_index.htm&t=Mark%20Chirnside%27s%20Reception%20Room%3A%20Olympic%2C%20Titanic%20%26%20Britannic%3A%20Books%20Index&rcat=d&rdomo=d&rdomg=1&sc_snum=1&sess=7a9eb4&p=0'
p91
aS'Aquitania_Index.html'
p92
aS'Images/Header%20Buttons/Sitemap_over.gif'
p93
aS'Images/Header%20Buttons/Updates_over.gif'
p94
aS'Images/Header%20Buttons/News_over.gif'
p95
aS'Images/Header%20Buttons/Articles_over.gif'
p96
aS'Images/Header%20Buttons/Interviews_over.gif'
p97
aS'Images/Header%20Buttons/Books_over.gif'
p98
aS'ChirnsideCSS.css'
p99
aS'GeneratedItems/CSScriptLib.js'
p100
aS'Images/Header%20Buttons/Home_over.gif'
p101
aS'counter/counter_xhtml.js'
p102
aS'Images/Header%20Buttons/Home.gif'
p103
aS'Images/Header%20Buttons/Books.gif'
p104
aS'Images/Header%20Buttons/Interviews.gif'
p105
aS'Images/Header%20Buttons/Articles.gif'
p106
aS'Images/Header%20Buttons/News.gif'
p107
aS'Images/Header%20Buttons/Updates.gif'
p108
aS'Images/Header-attempt2.gif'
p109
aS'Images/Header%20Buttons/Sitemap.gif'
p110
aS'Images/Pics/5-RMSAquitaniaBookCover.jpg'
p111
aS't.php?sc_project=632360&java=1&security=585a7200&u1=F92FE7FB66454F0ADAD99497C923CFA3&sc_random=0.2270114940897422&jg=4&rr=3.2.2.2.2.2.2.2.2&resolution=1600&h=1103&camefrom=http%3A//www.markchirnside.co.uk/interviews_index.htm&u=http%3A//www.markchirnside.co.uk/Aquitania_Index.html&t=Mark%20Chirnside%27s%20Reception%20Room%3A%20Olympic%2C%20Titanic%20%26%20Britannic%3A%20Aquitania&rcat=d&rdomo=d&rdomg=4&sc_snum=1&sess=7a9eb4&p=0'
p112
aS'Olympic_Index.htm'
p113
aS'Images/Template2/dkredblk.gif'
p114
aS'ChirnsideCSS.css'
p115
aS'GeneratedItems/CSScriptLib.js'
p116
aS'Images/Header%20Buttons/Sitemap_over.gif'
p117
aS'Images/Header%20Buttons/Updates_over.gif'
p118
aS'Images/Header%20Buttons/News_over.gif'
p119
aS'Images/Header%20Buttons/Articles_over.gif'
p120
aS'Images/Header%20Buttons/Interviews_over.gif'
p121
aS'Images/Header%20Buttons/Books_over.gif'
p122
aS'counter/counter_xhtml.js'
p123
aS'Images/Header%20Buttons/Home_over.gif'
p124
aS'Images/Header%20Buttons/Home.gif'
p125
aS'Images/Header%20Buttons/Books.gif'
p126
aS'Images/Header%20Buttons/Interviews.gif'
p127
aS'Images/Header%20Buttons/Articles.gif'
p128
aS'Images/Header%20Buttons/News.gif'
p129
aS'Images/Header%20Buttons/Updates.gif'
p130
aS'Images/Header%20Buttons/Sitemap.gif'
p131
aS'Images/Header-attempt2.gif'
p132
aS'Images/Pics/8-RMSOlympic2015FinalBookCover.jpg'
p133
aS'Images/Template2/dkredblk.gif'
p134
aS't.php?sc_project=632360&java=1&security=585a7200&u1=F92FE7FB66454F0ADAD99497C923CFA3&sc_random=0.47931456883961665&jg=1&rr=3.2.2.2.2.2.2.2.2&resolution=1600&h=1103&camefrom=http%3A//www.markchirnside.co.uk/interviews_index.htm&u=http%3A//www.markchirnside.co.uk/Olympic_Index.htm&t=Mark%20Chirnside%27s%20Reception%20Room%3A%20Olympic%2C%20Titanic%20%26%20Britannic%3A%20Olympic%20Index&rcat=d&rdomo=d&rdomg=1&sc_snum=1&sess=7a9eb4&p=0'
p135
aS'Images/Header%20Buttons/Sitemap_over.gif'
p136
aS'Images/Header%20Buttons/Updates_over.gif'
p137
aS'Images/Header%20Buttons/News_over.gif'
p138
aS'Images/Header%20Buttons/Articles_over.gif'
p139
aS'Images/Header%20Buttons/Interviews_over.gif'
p140
aS'Images/Header%20Buttons/Books_over.gif'
p141
aS'Images/Header%20Buttons/Home_over.gif'
p142
aS'homepage/css/homepage.css'
p143
aS'homepage/js/jquery.js'
p144
aS'homepage/js/exploreBar.js'
p145
aS'homepage/js/jquery.element.cycle.1.0.js'
p146
aS'homepage/js/cyclefeatures.js'
p147
aS'common/js/editpage.php'
p148
aS'common/js/pdftracking.js'
p149
aS'common/svg/logo.svg'
p150
aS'homepage/images/features/648.jpg'
p151
aS'homepage/images/style/buttonArrow_boilerplate.png'
p152
aS'homepage/images/style/buttonArrow_pink.png'
p153
aS'homepage/images/promos/184.jpg'
p154
aS'homepage/images/promos/180.jpg'
p155
aS'common/svg/award1.svg'
p156
aS'common/svg/award2.svg'
p157
aS'homepage/images/promos/186.jpg'
p158
aS'common/svg/youtube.svg'
p159
aS'common/svg/facebook.svg'
p160
aS'common/svg/twitter.svg'
p161
aS'css?family=Raleway:400,200,800,600'
p162
aS'homepage/images/style/search_go.png'
p163
aS'common/images/style/findPeople_go.png'
p164
aS'homepage/images/style/nav_global_bg.png'
p165
aS'homepage/images/style/nav_global_links_bg.png'
p166
aS'homepage/images/style/search_bg.png'
p167
aS'homepage/images/style/contentWrapperBlue_bg.png'
p168
aS'homepage/images/style/feature_bg.png'
p169
aS'homepage/images/style/courseSearchNoOutline_bg.png'
p170
aS'homepage/images/style/replacementHeaders_bg.png'
p171
aS'homepage/images/style/button_bg.png'
p172
aS'homepage/images/style/internationalStudents_bg.png'
p173
aS'homepage/images/style/footer_bg.png'
p174
aS's/raleway/v12/1Ptug8zYS_SKggPNyC0ITw.woff2'
p175
aS'homepage/images/style/leftarrow.png'
p176
aS'homepage/images/style/rightarrow.png'
p177
aS'homepage/features/all-features-list.html?_=1523986436606'
p178
aS'pages/scripts/0002/9525.js?423329'
p179
aS'favicon.ico'
p180
aS'courses/'
p181
aS'lens/css/bath/site/site.css'
p182
aS'lens/universal/js/vendor/jquery-3.2.1.min.js'
p183
aS'lens/universal/js/foundation.min.js'
p184
aS'lens/universal/images/awards/times-sports-uni-2018.svg'
p185
aS'lens/universal/images/awards/times-starting-salaries-2018.svg'
p186
aS'lens/universal/images/awards/tef-ranking.svg'
p187
aS'export/embed.html?bbox=-2.351374626159668%2C51.36612722653085%2C-2.298760414123535%2C51.39093159326464&layer=mapnik&marker=51.378531090053336%2C-2.3250675201416016'
p188
aS'lens/universal/images/style/spyglass.svg'
p189
aS'lens/universal/images/logo/uob-logo-inverse.svg'
p190
aS'lens/universal/images/style/social-icons.svg'
p191
aS'assets/embed-93943e3abbb1d4c3e00c924fa877115fe8feb35aee26aa982d1abcc8747ab61b.js'
p192
aS'lens/universal/images/favicon/android/android-chrome-192x192.png'
p193
aS'lens/universal/images/favicon/favicon.ico'
p194
aS'gtm.js?id=GTM-NN6ZCP'
p195
aS'13/4042/2728.png'
p196
aS'13/4043/2728.png'
p197
aS'13/4042/2727.png'
p198
aS'13/4041/2728.png'
p199
aS'13/4043/2729.png'
p200
aS'13/4042/2729.png'
p201
aS'13/4043/2727.png'
p202
aS'13/4044/2728.png'
p203
aS'13/4044/2727.png'
p204
aS'13/4041/2727.png'
p205
aS'13/4041/2729.png'
p206
aS'13/4044/2729.png'
p207
aS'assets/images/marker-icon-574c3a5cca85f4114085b6841596d62f00d7c892c7b03f28cbfa301deb1dc437.png'
p208
aS'undergraduate-study-2018'
p209
aS'assets/images/marker-shadow-264f5c640339f042dd729062cfc04c17f8ea0f29882b538e3848ed8f10edb4da.png'
p210
aS'pages/scripts/0002/9525.js?423329'
p211
aS'topics/research/'
p212
aS'topics/undergraduate-study-2018/'
p213
aS'departments/'
p214
aS'common/svg/award1.svg'
p215
aS'common/svg/award2.svg'
p216
aS'common/js/editpage.php'
p217
aS'common/svg/youtube.svg'
p218
aS'common/svg/facebook.svg'
p219
aS'common/svg/twitter.svg'
p220
aS'common/css/global.css?colour=departments&template=homepage&columns=2'
p221
aS'common/css/print.css?columns=2'
p222
aS'departments/site-components/css/departments.css'
p223
aS'common/js/jquery-1.8.2.min.js'
p224
aS'common/js/exploreBar.js'
p225
aS'lens/universal/images/favicon/favicon.ico'
p226
aS'css?family=Raleway:400,200,800,600'
p227
aS'lens/universal/images/style/social-icons.svg'
p228
aS'assets/embed-4dbfd7a8634cab9ca4b7172c30c2fef965e94e7de09a5576f759bb7f41a7dd7b.css'
p229
aS'common/images/style/body_bg.gif'
p230
aS'common/images/style/search_go.png'
p231
aS'common/images/style/page_bg.png'
p232
aS'common/images/style/search_bg.png'
p233
aS'common/images/style/sectionTitle_bg.png'
p234
aS'departments/images/style/deptHome_bg.jpg'
p235
aS'departments/images/style/deptHomeLinks_bg.png'
p236
aS'common/images/logos/favicon.ico'
p237
aS'pages/scripts/0002/9525.js?423329'
p238
aS'pages/scripts/0002/9525.js?423329'
p239
aS'13/4041/2728.png'
p240
aS'13/4044/2729.png'
p241
aS'postgraduate-study-2018'
p242
aS'pages/scripts/0002/9525.js?423329'
p243
aS'topics/postgraduate-study-and-research/'
p244
aS'pages/scripts/0002/9525.js?423329'
p245
aS'activityi;src=8369552;type=count0;cat=pghom0;ord=3152031122172;gtm=G46;~oref=http%3A%2F%2Fwww.bath.ac.uk%2Ftopics%2Fpostgraduate-study-and-research%2F?'
p246
aS'shows/ghost-hunter/'
p247
aS'public/CACHE/css/72b1096dbd93.css'
p248
aS'public/CACHE/css/f41edc3a24b9.css'
p249
aS'public/scripts/third_party/jquery/jquery-3.1.1.min.js'
p250
aS'public/CACHE/js/0f54431c3109.js'
p251
aS'public/scripts/tv/mobile_redir.js'
p252
aS'assets/tag.js'
p253
aS'public/CACHE/js/245ccfecd540.js'
p254
aS'js/sdkloader/ima3.js'
p255
aS'i/tvp/sm/23617.jpg'
p256
aS'albums/v616/BHHIslander/Avatars/BBCDynamicLines-1.jpg'
p257
aS'public/images/tvcom_logos/TVcomLogoUS.png'
p258
aS'public/images/lists/ajax-loader-blue.gif'
p259
aS'public/images/Prime-Video-Color-Black.png'
p260
aS'i/tvc/gq/97113.jpg'
p261
aS'i/tvp/sm/204555.jpg'
p262
aS'i/tvc/gq/87114.jpg'
p263
aS'i/tvc/gq/250685.jpg'
p264
aS'i/tvc/gq/9154.jpg'
p265
aS'i/tvc/gq/65496.jpg'
p266
aS'i/tvp/sm/204531.jpg'
p267
aS'i/tvp/sm/204484.jpg'
p268
aS'i/tvp/sm/203712.jpg'
p269
aS'i/tvp/sm/204657.jpg'
p270
aS'i/tvp/sm/204554.jpg'
p271
aS'ht/ls-tvcom.js?_=1523986482048'
p272
aS'sdk/urs.js?_=1523986482049'
p273
aS'utag/cbsi/tvcomsite/prod/utag.js'
p274
aS'public/images/lists/nav-icons4.png?2ab6f8fe41bf'
p275
aS'public/images/tall_sprite_27.png?af06a0ea79e0'
p276
aS'public/images/arrow-sprite.png?47d7f7f75103'
p277
aS'public/fonts/open-sans-v13-latin-700.woff2?73437ad44345'
p278
aS'public/font/tv-font-icons.woff?3dabf77c'
p279
aS'public/fonts/open-sans-v13-latin-regular.woff2?e64cab167bbd'
p280
aS'public/fonts/open-sans-v13-latin-600.woff2?fa907b3395c4'
p281
aS'public/fonts/fontawesome-webfont.woff2?v=4.4.0'
p282
aS'public/scripts/tv/auth.js'
p283
aS'tag/js/gpt.js'
p284
aS'libtrc/cbsinteractive-tvcom/loader.js'
p285
aS'api/vglnk.js'
p286
aS'images/pixel.gif?ch=1&rn=9.811698931749708'
p287
aS'images/pixel.gif?ch=2&rn=9.811698931749708'
p288
aS'libtrc/impl.302-48-RELEASE.js'
p289
aS'cbsinteractive-tvcom/load.js'
p290
aS'beacon.js'
p291
aS'utag/cbsi/tvcomsite/prod/utag.28.js?utv=ut4.39.201706282007'
p292
aS'utag/cbsi/tvcomsite/prod/utag.22.js?utv=ut4.39.201602022303'
p293
aS'utag/cbsi/tvcomsite/prod/utag.25.js?utv=ut4.39.201604261834'
p294
aS'utag/cbsi/tvcomsite/prod/utag.20.js?utv=ut4.39.201602022303'
p295
aS'b?c1=7&c2=13739933&c3=20121515121&ns__t=1523986486536&ns_c=UTF-8&cv=3.1&c8=Ghost%20Hunter%20-%20Show%20News%2C%20Reviews%2C%20Recaps%20and%20Photos%20-%20TV.com&c7=http%3A%2F%2Fwww.tv.com%2Fshows%2Fghost-hunter%2F&c9='
p296
aS'jpt?id=11834577&size=728x90&callback=headertag.AppNexusHtb.adResponseCallback&callback_uid=ClRKgEOK&psa=0&referrer=http%3A%2F%2Fwww.tv.com%2Fshows%2Fghost-hunter%2F'
p297
aS'jpt?id=11834574&size=300x250&callback=headertag.AppNexusHtb.adResponseCallback&callback_uid=Www6DTaG&psa=0&referrer=http%3A%2F%2Fwww.tv.com%2Fshows%2Fghost-hunter%2F'
p298
aS'jpt?id=11834573&size=300x250&callback=headertag.AppNexusHtb.adResponseCallback&callback_uid=LKzjCY4R&psa=0&promo_sizes=300x600&referrer=http%3A%2F%2Fwww.tv.com%2Fshows%2Fghost-hunter%2F'
p299
aS'jpt?id=11834576&size=728x90&callback=headertag.AppNexusHtb.adResponseCallback&callback_uid=zSEEy4S7&psa=0&promo_sizes=970x250&referrer=http%3A%2F%2Fwww.tv.com%2Fshows%2Fghost-hunter%2F'
p300
aS'cygnus?v=7&s=182811&fn=headertag.IndexExchangeHtb.adResponseCallback&r=%7B%22id%22%3A70761896%2C%22site%22%3A%7B%22page%22%3A%22http%3A%2F%2Fwww.tv.com%2Fshows%2Fghost-hunter%2F%22%7D%2C%22imp%22%3A%5B%7B%22banner%22%3A%7B%22w%22%3A728%2C%22h%22%3A90%2C%22topframe%22%3A1%7D%2C%22ext%22%3A%7B%22sid%22%3A%22202%22%2C%22siteID%22%3A%22182812%22%7D%2C%22id%22%3A%221%22%7D%2C%7B%22banner%22%3A%7B%22w%22%3A300%2C%22h%22%3A250%2C%22topframe%22%3A1%7D%2C%22ext%22%3A%7B%22sid%22%3A%22209%22%2C%22siteID%22%3A%22182815%22%7D%2C%22id%22%3A%222%22%7D%2C%7B%22banner%22%3A%7B%22w%22%3A300%2C%22h%22%3A250%2C%22topframe%22%3A1%7D%2C%22ext%22%3A%7B%22sid%22%3A%22208%22%2C%22siteID%22%3A%22182813%22%7D%2C%22id%22%3A%223%22%7D%2C%7B%22banner%22%3A%7B%22w%22%3A300%2C%22h%22%3A600%2C%22topframe%22%3A1%7D%2C%22ext%22%3A%7B%22sid%22%3A%22222%22%2C%22siteID%22%3A%22182814%22%7D%2C%22id%22%3A%224%22%7D%2C%7B%22banner%22%3A%7B%22w%22%3A728%2C%22h%22%3A90%2C%22topframe%22%3A1%7D%2C%22ext%22%3A%7B%22sid%22%3A%22201%22%2C%22siteID%22%3A%22182811%22%7D%2C%22id%22%3A%225%22%7D%2C%7B%22banner%22%3A%7B%22w%22%3A970%2C%22h%22%3A250%2C%22topframe%22%3A1%7D%2C%22ext%22%3A%7B%22sid%22%3A%22219%22%2C%22siteID%22%3A%22183314%22%7D%2C%22id%22%3A%226%22%7D%5D%7D'
p301
aS'cbsinteractive-tvcom/trc/3/json?tim=18%3A34%3A47.816&data=%7B%22id%22%3A230%2C%22ii%22%3A%22%2Fshows%2Fghost-hunter%22%2C%22it%22%3A%22other%22%2C%22sd%22%3A%22v2_2021f75463f88e6e0d0ddfad5f3c8798_e117cb23-0c92-4757-bbda-3a411f7f4f2d-tuct1c67533_1523380147_1523380204_CNgIEOXMPxiM6aSEqywgAigBME0%22%2C%22ui%22%3A%22e117cb23-0c92-4757-bbda-3a411f7f4f2d-tuct1c67533%22%2C%22uifp%22%3A%22e117cb23-0c92-4757-bbda-3a411f7f4f2d-tuct1c67533%22%2C%22vi%22%3A1523986487752%2C%22cv%22%3A%22302-48-RELEASE%22%2C%22uiv%22%3A%22default%22%2C%22u%22%3A%22http%3A%2F%2Fwww.tv.com%2Fshows%2Fghost-hunter%2F%22%2C%22bv%22%3A%220%22%2C%22ul%22%3A%5B%22en-GB%22%2C%22en%22%5D%2C%22btv%22%3A%220%22%2C%22lspb%22%3A%22CwsIIBDFsAkMCwgjEKb_CQwLCB4QxrAJDAsIJBDFsAkMCwgfEMawCQwLCCEQxrAJDAsIHRDGsAkMCwgxEMawCQwLCC4QxrAJDAsILRDFsAkMCwgnEMWwCQwMExQ%22%2C%22bad%22%3A-1%2C%22bw%22%3A1195%2C%22sw%22%3A1535%2C%22sh%22%3A1079%2C%22r%22%3A%5B%7B%22li%22%3A%22rbox-o2m%22%2C%22s%22%3A6%2C%22uim%22%3A%22alternating-thumbnails-d%3Aabp%3D0%22%2C%22uip%22%3A%22Bottom%20Page%20Thumbnails%20show_overview%20Desktop%22%2C%22orig_uip%22%3A%22Bottom%20Page%20Thumbnails%20show_overview%20Desktop%22%2C%22cd%22%3A1337%2C%22mw%22%3A626%7D%5D%2C%22cb%22%3A%22TRC.callbacks.recommendations_1%22%2C%22lt%22%3A%22normal%22%7D'
p302
aS'cbsinteractive-tvcom/pmk-201618008.1.js'
p303
aS'js/cbsi/ds.js'
p304
aS'shows/ghost-hunter/episodes/'
p305
aS'favicon.ico'
p306
aS'id?d_visid_ver=2.3.0&d_fieldgroup=MC&d_rtbd=json&d_ver=2&d_orgid=10D31225525FF5790A490D4D%40AdobeOrg&d_nsid=0&d_mid=35865185884368107392471047042386950918&d_blob=6G1ynYcLPuiQxYZrsz_pkqfLG9yMXBpb2zX5dvJdYQJzPXImdj0y&d_cid_ic=AVID%012D6677DC05312208-60000118C001361C&ts=1523986489084'
p307
aS'id?d_visid_ver=2.3.0&d_fieldgroup=AAM&d_rtbd=json&d_ver=2&d_orgid=10D31225525FF5790A490D4D%40AdobeOrg&d_nsid=0&d_mid=35865185884368107392471047042386950918&d_blob=6G1ynYcLPuiQxYZrsz_pkqfLG9yMXBpb2zX5dvJdYQJzPXImdj0y&d_cid_ic=AVID%012D6677DC05312208-60000118C001361C&ts=1523986489106'
p308
aS'utag/tiqapp/utag.v.js?a=cbsi/tvcomsite/201710241557&cb=1523986489142'
p309
aS'b?c1=2&c2=3005086&c4=&c4=http%3A%2F%2Fwww.tv.com%2Fshows%2Fghost-hunter%2F&ns__t=1523986489128&ns_c=UTF-8&c8=Ghost%20Hunter%20-%20Show%20News%2C%20Reviews%2C%20Recaps%20and%20Photos%20-%20TV.com&c7=http%3A%2F%2Fwww.tv.com%2Fshows%2Fghost-hunter%2F&c9='
p310
aS'c2/3005086/cs.js'
p311
aS'cbsinteractive-tvcom/log/2/debug?tim=18%3A34%3A50.482&type=error&msg=Server%20did%20not%20respond%20to%20loadRBox&id=7650&cv=302-48-RELEASE'
p312
aS'cbsinteractive-tvcom/log/2/debug?tim=18%3A34%3A50.578&type=error&msg=loadRBox%20failed%20and%20not%20using%20CDN%2C%20aborting.&id=3098&cv=302-48-RELEASE'
p313
aS'public/CACHE/js/a422cb1164d3.js'
p314
aS'i/tve/em/384904.jpg'
p315
aS'i/tve/em/384903.jpg'
p316
aS'i/tve/em/304719.jpg'
p317
aS'i/tve/em/304717.jpg'
p318
aS'i/tve/em/304716.jpg'
p319
aS'i/tve/em/304715.jpg'
p320
aS'sdk/urs.js?_=1523986491847'
p321
aS'ht/ls-tvcom.js?_=1523986491846'
p322
aS'utag/cbsi/tvcomsite/prod/utag.js'
p323
aS'i/tvp/sm/204555.jpg'
p324
aS'i/tvp/sm/204531.jpg'
p325
aS'i/tvp/sm/204484.jpg'
p326
aS'i/tvp/sm/203712.jpg'
p327
aS'public/scripts/tv/auth.js'
p328
aS'public/images/sprites/header_icons_005.png?124a482c78b9'
p329
aS'public/images/lists/nav-icons4.png?2ab6f8fe41bf'
p330
aS'beacon.js'
p331
aS'images/pixel.gif?ch=1&rn=5.29243773603289'
p332
aS'images/pixel.gif?ch=2&rn=5.29243773603289'
p333
aS'b?c1=7&c2=13739933&c3=20121515121&ns__t=1523986494608&ns_c=UTF-8&cv=3.1&c8=Ghost%20Hunter%20-%20Episode%20Guide%20-%20TV.com&c7=http%3A%2F%2Fwww.tv.com%2Fshows%2Fghost-hunter%2Fepisodes%2F&c9=http%3A%2F%2Fwww.tv.com%2Fshows%2Fghost-hunter%2F'
p334
aS'jpt?id=11834577&size=728x90&callback=headertag.AppNexusHtb.adResponseCallback&callback_uid=DkD2o0ws&psa=0&referrer=http%3A%2F%2Fwww.tv.com%2Fshows%2Fghost-hunter%2Fepisodes%2F'
p335
aS'jpt?id=11834574&size=300x250&callback=headertag.AppNexusHtb.adResponseCallback&callback_uid=064hm6ln&psa=0&referrer=http%3A%2F%2Fwww.tv.com%2Fshows%2Fghost-hunter%2Fepisodes%2F'
p336
aS'jpt?id=11834573&size=300x250&callback=headertag.AppNexusHtb.adResponseCallback&callback_uid=Z9rkrcLI&psa=0&promo_sizes=300x600&referrer=http%3A%2F%2Fwww.tv.com%2Fshows%2Fghost-hunter%2Fepisodes%2F'
p337
aS'jpt?id=11834576&size=728x90&callback=headertag.AppNexusHtb.adResponseCallback&callback_uid=YVKO8toE&psa=0&promo_sizes=970x250&referrer=http%3A%2F%2Fwww.tv.com%2Fshows%2Fghost-hunter%2Fepisodes%2F'
p338
aS'cygnus?v=7&s=182811&fn=headertag.IndexExchangeHtb.adResponseCallback&r=%7B%22id%22%3A40033937%2C%22site%22%3A%7B%22page%22%3A%22http%3A%2F%2Fwww.tv.com%2Fshows%2Fghost-hunter%2Fepisodes%2F%22%2C%22ref%22%3A%22http%3A%2F%2Fwww.tv.com%2Fshows%2Fghost-hunter%2F%22%7D%2C%22imp%22%3A%5B%7B%22banner%22%3A%7B%22w%22%3A728%2C%22h%22%3A90%2C%22topframe%22%3A1%7D%2C%22ext%22%3A%7B%22sid%22%3A%22202%22%2C%22siteID%22%3A%22182812%22%7D%2C%22id%22%3A%221%22%7D%2C%7B%22banner%22%3A%7B%22w%22%3A300%2C%22h%22%3A250%2C%22topframe%22%3A1%7D%2C%22ext%22%3A%7B%22sid%22%3A%22209%22%2C%22siteID%22%3A%22182815%22%7D%2C%22id%22%3A%222%22%7D%2C%7B%22banner%22%3A%7B%22w%22%3A300%2C%22h%22%3A250%2C%22topframe%22%3A1%7D%2C%22ext%22%3A%7B%22sid%22%3A%22208%22%2C%22siteID%22%3A%22182813%22%7D%2C%22id%22%3A%223%22%7D%2C%7B%22banner%22%3A%7B%22w%22%3A300%2C%22h%22%3A600%2C%22topframe%22%3A1%7D%2C%22ext%22%3A%7B%22sid%22%3A%22222%22%2C%22siteID%22%3A%22182814%22%7D%2C%22id%22%3A%224%22%7D%2C%7B%22banner%22%3A%7B%22w%22%3A728%2C%22h%22%3A90%2C%22topframe%22%3A1%7D%2C%22ext%22%3A%7B%22sid%22%3A%22201%22%2C%22siteID%22%3A%22182811%22%7D%2C%22id%22%3A%225%22%7D%2C%7B%22banner%22%3A%7B%22w%22%3A970%2C%22h%22%3A250%2C%22topframe%22%3A1%7D%2C%22ext%22%3A%7B%22sid%22%3A%22219%22%2C%22siteID%22%3A%22183314%22%7D%2C%22id%22%3A%226%22%7D%5D%7D'
p339
aS'cbsinteractive-tvcom/trc/3/json?tim=18%3A34%3A55.880&data=%7B%22id%22%3A387%2C%22ii%22%3A%22%2Fshows%2Fghost-hunter%2Fepisodes%22%2C%22it%22%3A%22other%22%2C%22sd%22%3A%22v2_2021f75463f88e6e0d0ddfad5f3c8798_e117cb23-0c92-4757-bbda-3a411f7f4f2d-tuct1c67533_1523380147_1523380204_CNgIEOXMPxiM6aSEqywgAigBME0%22%2C%22ui%22%3A%22e117cb23-0c92-4757-bbda-3a411f7f4f2d-tuct1c67533%22%2C%22uifp%22%3A%22e117cb23-0c92-4757-bbda-3a411f7f4f2d-tuct1c67533%22%2C%22vi%22%3A1523986495846%2C%22cv%22%3A%22302-48-RELEASE%22%2C%22uiv%22%3A%22default%22%2C%22u%22%3A%22http%3A%2F%2Fwww.tv.com%2Fshows%2Fghost-hunter%2Fepisodes%2F%22%2C%22bv%22%3A%220%22%2C%22ul%22%3A%5B%22en-GB%22%2C%22en%22%5D%2C%22btv%22%3A%220%22%2C%22lspb%22%3A%22CwsIIBDFsAkMCwgjEKb_CQwLCB4QxrAJDAsIJBDFsAkMCwgfEMawCQwLCCEQxrAJDAsIHRDGsAkMCwgxEMawCQwLCC4QxrAJDAsILRDFsAkMCwgnEMWwCQwMExQ%22%2C%22e%22%3A%22http%3A%2F%2Fwww.tv.com%2Fshows%2Fghost-hunter%2F%22%2C%22bad%22%3A-1%2C%22bw%22%3A1195%2C%22sw%22%3A1535%2C%22sh%22%3A1079%2C%22r%22%3A%5B%7B%22li%22%3A%22rbox-o2m%22%2C%22s%22%3A4%2C%22uim%22%3A%22alternating-thumbnails-b%3Aabp%3D0%22%2C%22uip%22%3A%22Bottom%20Page%20Thumbnails%20show_episode%20Desktop%22%2C%22orig_uip%22%3A%22Bottom%20Page%20Thumbnails%20show_episode%20Desktop%22%2C%22cd%22%3A1141%2C%22mw%22%3A465%7D%2C%7B%22li%22%3A%22rbox-o2m%22%2C%22s%22%3A4%2C%22uim%22%3A%22alternating-thumbnails-c%3Aabp%3D0%22%2C%22uip%22%3A%22Right%20Rail%20Thumbnails%20show_episode%20Desktop%22%2C%22orig_uip%22%3A%22Right%20Rail%20Thumbnails%20show_episode%20Desktop%22%2C%22cd%22%3A1201%2C%22mw%22%3A300%7D%5D%2C%22cb%22%3A%22TRC.callbacks.recommendations_1%22%2C%22lt%22%3A%22normal%22%7D'
p340
aS'shows/ghost-hunter/cast/'
p341
aS'public/CACHE/js/12bb4e9c78f5.js'
p342
aS'public/images/tvcom_logos/TVcomLogoUS.png'
p343
aS'i/tvc/gq/264219.jpg'
p344
aS'i/tvc/gq/264220.jpg'
p345
aS'i/tvc/gq/251108.jpg'
p346
aS'i/tvc/gq/250685.jpg'
p347
aS'js/cbsi/ds.js'
p348
aS'js/3047900008.js'
p349
aS'prod/v0/tag.js'
p350
aS'pages/scripts/0030/5189.js'
p351
aS'v60.js'
p352
aS'b?c1=2&c2=3005086&c4=&c4=http%3A%2F%2Fwww.tv.com%2Fshows%2Fghost-hunter%2Fepisodes%2F&ns__t=1523986497376&ns_c=UTF-8&c8=Ghost%20Hunter%20-%20Episode%20Guide%20-%20TV.com&c7=http%3A%2F%2Fwww.tv.com%2Fshows%2Fghost-hunter%2Fepisodes%2F&c9=http%3A%2F%2Fwww.tv.com%2Fshows%2Fghost-hunter%2F'
p353
aS'id?d_visid_ver=2.3.0&d_fieldgroup=MC&d_rtbd=json&d_ver=2&d_orgid=10D31225525FF5790A490D4D%40AdobeOrg&d_nsid=0&d_mid=35865185884368107392471047042386950918&d_blob=6G1ynYcLPuiQxYZrsz_pkqfLG9yMXBpb2zX5dvJdYQJzPXImdj0y&d_cid_ic=AVID%012D6677DC05312208-60000118C001361C&ts=1523986497814'
p354
aS'id?d_visid_ver=2.3.0&d_fieldgroup=AAM&d_rtbd=json&d_ver=2&d_orgid=10D31225525FF5790A490D4D%40AdobeOrg&d_nsid=0&d_mid=35865185884368107392471047042386950918&d_blob=6G1ynYcLPuiQxYZrsz_pkqfLG9yMXBpb2zX5dvJdYQJzPXImdj0y&d_cid_ic=AVID%012D6677DC05312208-60000118C001361C&ts=1523986497846'
p355
aS'sdk/urs.js?_=1523986497869'
p356
aS'ht/ls-tvcom.js?_=1523986497868'
p357
aS'pageservices/social/oauth/proxy?xdm_e=http%3A%2F%2Fwww.tv.com&xdm_c=urs424&xdm_p=1'
p358
aS'iframe/8613/?che=396611689&c=%7B%22bpid%22%3A%22cbsinteractive%22%2C%22loc%22%3A%22http%3A%2F%2Fwww.tv.com%2Fshows%2Fghost-hunter%2Fepisodes%2F%22%2C%22ref%22%3A%22http%3A%2F%2Fwww.tv.com%2Fshows%2Fghost-hunter%2F%22%2C%22cid%22%3A%22-1%22%2C%22sid%22%3A%22-1%22%2C%22gen%22%3A%22-1%22%2C%22age%22%3A%22-1%22%2C%22cat%22%3A%22-1%22%2C%22brd%22%3A%22-1%22%7D'
p359
aS'clear/c.gif?rsid=cbsitvcomsite&pagetype=show_episode&viewguid=a29ba6c0-4265-11e8-a01a-5b59bbf53d1c&devicetype=desktop&sitetype=desktop%20web&ts=1523986500230&sid=45&ld=www.tv.com&ldc=ec96c6bd-a93e-4493-858c-981961d72f1b&brwinsz=1195x676&brscrsz=1600x1103&brlang=en-GB&tcset=utf8&im=dsjs&clgf=bUi3ZFrM77S97dTF4xk&xref=http%3A%2F%2Fwww.tv.com%2Fshows%2Fghost-hunter%2F&srcurl=http%3A%2F%2Fwww.tv.com%2Fshows%2Fghost-hunter%2Fepisodes%2F&title=Ghost%20Hunter%20-%20Episode%20Guide%20-%20TV.com'
p360
aS'assets/easyxdm/easyXDM.min.js'
p361
aS'id?d_visid_ver=2.3.0&d_fieldgroup=MC&d_rtbd=json&d_ver=2&d_orgid=10D31225525FF5790A490D4D%40AdobeOrg&d_nsid=0&d_mid=35865185884368107392471047042386950918&d_blob=6G1ynYcLPuiQxYZrsz_pkqfLG9yMXBpb2zX5dvJdYQJzPXImdj0y&d_cid_ic=AVID%012D6677DC05312208-60000118C001361C&ts=1523986500616'
p362
aS'id?d_visid_ver=2.3.0&d_fieldgroup=AAM&d_rtbd=json&d_ver=2&d_orgid=10D31225525FF5790A490D4D%40AdobeOrg&d_nsid=0&d_mid=35865185884368107392471047042386950918&d_blob=6G1ynYcLPuiQxYZrsz_pkqfLG9yMXBpb2zX5dvJdYQJzPXImdj0y&d_cid_ic=AVID%012D6677DC05312208-60000118C001361C&ts=1523986500628'
p363
aS'b?c1=2&c2=3005086&c4=&c4=http%3A%2F%2Fwww.tv.com%2Fshows%2Fghost-hunter%2Fcast%2F&ns__t=1523986500716&ns_c=UTF-8&c8=Ghost%20Hunter%20-%20Cast%2C%20Crew%20and%20Credits%20-%20TV.com&c7=http%3A%2F%2Fwww.tv.com%2Fshows%2Fghost-hunter%2Fcast%2F&c9=http%3A%2F%2Fwww.tv.com%2Fshows%2Fghost-hunter%2Fepisodes%2F'
p364
aS'iframe/8613/?che=120812164&c=%7B%22bpid%22%3A%22cbsinteractive%22%2C%22loc%22%3A%22http%3A%2F%2Fwww.tv.com%2Fshows%2Fghost-hunter%2Fcast%2F%22%2C%22ref%22%3A%22http%3A%2F%2Fwww.tv.com%2Fshows%2Fghost-hunter%2Fepisodes%2F%22%2C%22cid%22%3A%22-1%22%2C%22sid%22%3A%22-1%22%2C%22gen%22%3A%22-1%22%2C%22age%22%3A%22-1%22%2C%22cat%22%3A%22-1%22%2C%22brd%22%3A%22-1%22%7D'
p365
aS'clear/c.gif?rsid=cbsitvcomsite&pagetype=show_cast&viewguid=a65e7b20-4265-11e8-8f5c-932b95a34d08&devicetype=desktop&sitetype=desktop%20web&ts=1523986501860&sid=45&ld=www.tv.com&ldc=ec96c6bd-a93e-4493-858c-981961d72f1b&brwinsz=1195x676&brscrsz=1600x1103&brlang=en-GB&tcset=utf8&im=dsjs&clgf=bUi3ZFrM77S97dTF4xk&xref=http%3A%2F%2Fwww.tv.com%2Fshows%2Fghost-hunter%2Fepisodes%2F&srcurl=http%3A%2F%2Fwww.tv.com%2Fshows%2Fghost-hunter%2Fcast%2F&title=Ghost%20Hunter%20-%20Cast%2C%20Crew%20and%20Credits%20-%20TV.com'
p366
aS'storageframe.html'
p367
aS'b/ss/cbsitvcomsite/10/JS-2.3.0/s91416390692980?AQB=1&ndh=1&pf=1&callback=s_c_il[0].doPostbacks&et=1&t=17%2F3%2F2018%2018%3A35%3A1%202%20-60&d.&nsid=0&jsonv=1&.d&mid=35865185884368107392471047042386950918&aid=2D6677DC05312208-60000118C001361C&aamlh=6&ce=UTF-8&ns=cbsinteractive&pageName=tvcom%3A%2Fshows%2Fghost-hunter%2Fepisodes%2F&g=http%3A%2F%2Fwww.tv.com%2Fshows%2Fghost-hunter%2Fepisodes%2F&r=http%3A%2F%2Fwww.tv.com%2Fshows%2Fghost-hunter%2F&cc=USD&ch=shows&server=www.tv.com&events=prodView&products=%3Btv-show-23617%7CGhost%20Hunter%3B%3B%3B%3B&aamb=6G1ynYcLPuiQxYZrsz_pkqfLG9yMXBpb2zX5dvJdYQJzPXImdj0y&h1=shows%7Cghost-hunter%7Cepisodes&c2=D%3Dv2&v2=uk&c3=D%3Dv3&v3=desktop%20web%7C%7C%7Cdesktop&c4=D%3Dv4&v4=internal%3Anavigation%3Ashow_overview&c5=D%3Dv5&v5=cbsitvcomsite&c6=D%3Dv6&v6=shows%7Cghost-hunter%7Cepisodes&c7=D%3Dv7&v7=http%3A%2F%2Fwww.tv.com%2Fshows%2Fghost-hunter%2Fepisodes%2F&c8=D%3Dv8&v8=Ghost%20Hunter%20-%20Episode%20Guide%20-%20TV.com&c9=D%3DUser-Agent&c10=D%3Dv10&v10=show_episode&c11=D%3Dv11&v11=D%3Dch%2B%22%3A%22%2Bv10&v15=not%20authenticated%7Canon&c24=D%3Dv24&v24=a29ba6c0-4265-11e8-a01a-5b59bbf53d1c&c35=D%3Dv35&v35=bUi3ZFrM77S97dTF4xk&v49=%5Bobject%20Object%5D&c50=1%3A30PM&v50=1%3A30PM&c51=Tuesday&v51=Tuesday&c52=2&v52=2&c53=Repeat&v53=Repeat&c54=More%20than%207%20days&v54=More%20than%207%20days&v85=false&s=1600x1103&c=24&j=1.6&v=N&k=Y&bw=1195&bh=676&mcorgid=10D31225525FF5790A490D4D%40AdobeOrg&AQE=1'
p368
aS'dest5.html?d_nsid=undefined'
p369
aS'safeframe/1-0-23/html/container.html'
p370
aS'libtrc/impl.302-48-RELEASE.js'
p371
aS'pagead/osd.js'
p372
aS'adserve/js.php?zone=12593'
p373
aS'78e7a841-fd39-45c5-9ef6-9e88a3272a8b/tag.min.js'
p374
aS'images/pixel.gif?ch=1&rn=6.748416520032394'
p375
aS'images/pixel.gif?ch=2&rn=6.748416520032394'
p376
aS'b/ss/cbsitvcomsite/10/JS-2.3.0/s92998259035849?AQB=1&ndh=1&pf=1&callback=s_c_il[0].doPostbacks&et=1&t=17%2F3%2F2018%2018%3A35%3A4%202%20-60&d.&nsid=0&jsonv=1&.d&mid=35865185884368107392471047042386950918&aid=2D6677DC05312208-60000118C001361C&aamlh=6&ce=UTF-8&ns=cbsinteractive&pageName=tvcom%3A%2Fshows%2Fghost-hunter%2Fcast%2F&g=http%3A%2F%2Fwww.tv.com%2Fshows%2Fghost-hunter%2Fcast%2F&r=http%3A%2F%2Fwww.tv.com%2Fshows%2Fghost-hunter%2Fepisodes%2F&cc=USD&ch=shows&server=www.tv.com&events=prodView&products=%3Btv-show-23617%7CGhost%20Hunter%3B%3B%3B%3B&aamb=6G1ynYcLPuiQxYZrsz_pkqfLG9yMXBpb2zX5dvJdYQJzPXImdj0y&h1=shows%7Cghost-hunter%7Ccast&c2=D%3Dv2&v2=uk&c3=D%3Dv3&v3=desktop%20web%7C%7C%7Cdesktop&c4=D%3Dv4&v4=internal%3Anavigation%3Ashow_overview&c5=D%3Dv5&v5=cbsitvcomsite&c6=D%3Dv6&v6=shows%7Cghost-hunter%7Ccast&c7=D%3Dv7&v7=http%3A%2F%2Fwww.tv.com%2Fshows%2Fghost-hunter%2Fcast%2F&c8=D%3Dv8&v8=Ghost%20Hunter%20-%20Cast%2C%20Crew%20and%20Credits%20-%20TV.com&c9=D%3DUser-Agent&c10=D%3Dv10&v10=show_cast&c11=D%3Dv11&v11=D%3Dch%2B%22%3A%22%2Bv10&v15=not%20authenticated%7Canon&c24=D%3Dv24&v24=a65e7b20-4265-11e8-8f5c-932b95a34d08&c35=D%3Dv35&v35=bUi3ZFrM77S97dTF4xk&v49=%5Bobject%20Object%5D&c50=1%3A30PM&v50=1%3A30PM&c51=Tuesday&v51=Tuesday&c52=2&v52=2&c53=Repeat&v53=Repeat&c54=More%20than%207%20days&v54=More%20than%207%20days&v85=false&s=1600x1103&c=24&j=1.6&v=N&k=Y&bw=1195&bh=676&mcorgid=10D31225525FF5790A490D4D%40AdobeOrg&AQE=1'
p377
aS'dest5.html?d_nsid=undefined'
p378
aS'b?c1=7&c2=13739933&c3=20121515121&ns__t=1523986504426&ns_c=UTF-8&cv=3.1&c8=Ghost%20Hunter%20-%20Cast%2C%20Crew%20and%20Credits%20-%20TV.com&c7=http%3A%2F%2Fwww.tv.com%2Fshows%2Fghost-hunter%2Fcast%2F&c9=http%3A%2F%2Fwww.tv.com%2Fshows%2Fghost-hunter%2Fepisodes%2F'
p379
aS'cgi-bin/m?rnd=1523986504656&ci=us-304254h&js=1&cg=0&ts=v60.js&vn=6.0.58&cc=1&cd=24&ck=y&je=n&lg=en-GB&si=http%3A%2F%2Fwww.tv.com%2Fshows%2Fghost-hunter%2Fcast%2F&rp=http%3A%2F%2Fwww.tv.com%2Fshows%2Fghost-hunter%2Fepisodes%2F&sr=1600x1103&id=lstrg-2d990c19235a5ef669bbeb71dfde2bb3&tz=1'
p380
aS'adscores/g.pixel?sid=9212293468'
p381
aS'adscores/g.pixel?sid=9212293438'
p382
aS'cygnus?v=7&s=182811&fn=headertag.IndexExchangeHtb.adResponseCallback&r=%7B%22id%22%3A73683010%2C%22site%22%3A%7B%22page%22%3A%22http%3A%2F%2Fwww.tv.com%2Fshows%2Fghost-hunter%2Fcast%2F%22%2C%22ref%22%3A%22http%3A%2F%2Fwww.tv.com%2Fshows%2Fghost-hunter%2Fepisodes%2F%22%7D%2C%22imp%22%3A%5B%7B%22banner%22%3A%7B%22w%22%3A728%2C%22h%22%3A90%2C%22topframe%22%3A1%7D%2C%22ext%22%3A%7B%22sid%22%3A%22202%22%2C%22siteID%22%3A%22182812%22%7D%2C%22id%22%3A%221%22%7D%2C%7B%22banner%22%3A%7B%22w%22%3A300%2C%22h%22%3A250%2C%22topframe%22%3A1%7D%2C%22ext%22%3A%7B%22sid%22%3A%22209%22%2C%22siteID%22%3A%22182815%22%7D%2C%22id%22%3A%222%22%7D%2C%7B%22banner%22%3A%7B%22w%22%3A300%2C%22h%22%3A250%2C%22topframe%22%3A1%7D%2C%22ext%22%3A%7B%22sid%22%3A%22208%22%2C%22siteID%22%3A%22182813%22%7D%2C%22id%22%3A%223%22%7D%2C%7B%22banner%22%3A%7B%22w%22%3A300%2C%22h%22%3A600%2C%22topframe%22%3A1%7D%2C%22ext%22%3A%7B%22sid%22%3A%22222%22%2C%22siteID%22%3A%22182814%22%7D%2C%22id%22%3A%224%22%7D%2C%7B%22banner%22%3A%7B%22w%22%3A728%2C%22h%22%3A90%2C%22topframe%22%3A1%7D%2C%22ext%22%3A%7B%22sid%22%3A%22201%22%2C%22siteID%22%3A%22182811%22%7D%2C%22id%22%3A%225%22%7D%2C%7B%22banner%22%3A%7B%22w%22%3A970%2C%22h%22%3A250%2C%22topframe%22%3A1%7D%2C%22ext%22%3A%7B%22sid%22%3A%22219%22%2C%22siteID%22%3A%22183314%22%7D%2C%22id%22%3A%226%22%7D%5D%7D'
p383
aS'jpt?id=11834577&size=728x90&callback=headertag.AppNexusHtb.adResponseCallback&callback_uid=0AU5coZD&psa=0&referrer=http%3A%2F%2Fwww.tv.com%2Fshows%2Fghost-hunter%2Fcast%2F'
p384
aS'jpt?id=11834574&size=300x250&callback=headertag.AppNexusHtb.adResponseCallback&callback_uid=aIezie3U&psa=0&referrer=http%3A%2F%2Fwww.tv.com%2Fshows%2Fghost-hunter%2Fcast%2F'
p385
aS'jpt?id=11834573&size=300x250&callback=headertag.AppNexusHtb.adResponseCallback&callback_uid=BvftFl4F&psa=0&promo_sizes=300x600&referrer=http%3A%2F%2Fwww.tv.com%2Fshows%2Fghost-hunter%2Fcast%2F'
p386
aS'jpt?id=11834576&size=728x90&callback=headertag.AppNexusHtb.adResponseCallback&callback_uid=8H6bidKh&psa=0&promo_sizes=970x250&referrer=http%3A%2F%2Fwww.tv.com%2Fshows%2Fghost-hunter%2Fcast%2F'
p387
aS'adscores/g.pixel?sid=9212293468'
p388
aS'adscores/g.pixel?sid=9212293438'
p389
aS'cbsinteractive-tvcom/trc/3/json?tim=18%3A35%3A06.376&data=%7B%22id%22%3A143%2C%22ii%22%3A%22%2Fshows%2Fghost-hunter%2Fcast%22%2C%22it%22%3A%22other%22%2C%22sd%22%3A%22v2_17038f9db85b0396dea751916cfa85fa_e117cb23-0c92-4757-bbda-3a411f7f4f2d-tuct1c67533_1523986488_1523986496_CNawjgYQ5cw_GObysaWtLCACKAMwTQ%22%2C%22ui%22%3A%22e117cb23-0c92-4757-bbda-3a411f7f4f2d-tuct1c67533%22%2C%22uifp%22%3A%22e117cb23-0c92-4757-bbda-3a411f7f4f2d-tuct1c67533%22%2C%22vi%22%3A1523986506258%2C%22cv%22%3A%22302-48-RELEASE%22%2C%22uiv%22%3A%22default%22%2C%22u%22%3A%22http%3A%2F%2Fwww.tv.com%2Fshows%2Fghost-hunter%2Fcast%2F%22%2C%22bv%22%3A%220%22%2C%22ul%22%3A%5B%22en-GB%22%2C%22en%22%5D%2C%22btv%22%3A%220%22%2C%22lspb%22%3A%22CwsIIBC-_wkMCwgjEKb_CQwLCB4Qvv8JDAsIJBC-_wkMCwgfEL7_CQwLCCEQvv8JDAsIHRC-_wkMCwgxEL7_CQwLCC4Qvv8JDAsILRC-_wkMCwgnEL7_CQwMExQ%22%2C%22e%22%3A%22http%3A%2F%2Fwww.tv.com%2Fshows%2Fghost-hunter%2Fepisodes%2F%22%2C%22bad%22%3A-1%2C%22bw%22%3A1195%2C%22sw%22%3A1535%2C%22sh%22%3A1079%2C%22r%22%3A%5B%7B%22li%22%3A%22rbox-o2m%22%2C%22s%22%3A4%2C%22uim%22%3A%22alternating-thumbnails-b%3Aabp%3D0%22%2C%22uip%22%3A%22Bottom%20Page%20Thumbnails%20show_cast%20Desktop%22%2C%22orig_uip%22%3A%22Bottom%20Page%20Thumbnails%20show_cast%20Desktop%22%2C%22cd%22%3A1301%2C%22mw%22%3A465%7D%2C%7B%22li%22%3A%22rbox-o2m%22%2C%22s%22%3A4%2C%22uim%22%3A%22alternating-thumbnails-c%3Aabp%3D0%22%2C%22uip%22%3A%22Right%20Rail%20Thumbnails%20show_cast%20Desktop%22%2C%22orig_uip%22%3A%22Right%20Rail%20Thumbnails%20show_cast%20Desktop%22%2C%22cd%22%3A1303%2C%22mw%22%3A300%7D%5D%2C%22cb%22%3A%22TRC.callbacks.recommendations_1%22%2C%22lt%22%3A%22normal%22%7D'
p390
aS'ifnotify?c=F89389&r=13C5D0AA&t=5AD6303F&u=V3N6dnRMbFFKWklBQUZ5U0kzZ0FBQUVF&m=ddabcc4fc5273b5bbec8d296f34f7e62&wp=F6&aid=C4253FC157FEB71D&tid=FA46&s=2CA1F&cp=2.46&n=www.tv.com&pr=xx&sid=3bae-570e&epr=40033937'
p391
aS'adserve/client/?zone=12593&debug=1&ru=http%3A%2F%2Fwww.tv.com%2Fshows%2Fghost-hunter%2Fepisodes%2F&sw=1600&sh=1103&ww=1195&wh=676&tt=1523986507138&rid=c7e722b0-eb4c-0a46-1897-0363a4d9f38a-1523986503178'
p392
aS'js/v2.16.190/jpx.js'
p393
aS'tracking.gif?rid=c7e722b0-eb4c-0a46-1897-0363a4d9f38a-1523986503178&sid=dd82c428-98d9-6c4e-6c83-fba3b7aae013-1523986503178&uid=edd9d6cb-5cab-155f-4689-d90cfb1743c1-1523986503178&vr=2.16.190&ru=http%3A%2F%2Fwww.tv.com%2Fshows%2Fghost-hunter%2Fepisodes%2F&tt=1523986507124&siw=0&sh=1103&sw=1600&wh=676&ww=1195&an=i-02b9539b3e8ce1ea5&vn=eu-west-1&sd=uk&_c=3362459550&et=&aid=&said=&ei=&fc=&sp=&at=&cid=0&ist=&mg=&dl=&dlt=&ev=&vt=&zid=12593&dr=0&di=&pr=&cw=&ch=&nt=&st=&jp=&ty=ta'
p394
aS'ifnotify?c=F89304&r=13C5D0A9&t=5AD6303F&u=V3N6dnRMbFFKWklBQUZ5U0kzZ0FBQUVF&m=623dd4001eb0c75df023972e4506f3b1&wp=F6&aid=C4253FC15783D6FD&tid=FA46&s=2CA1C&cp=2.46&n=www.tv.com&pr=xx&sid=3bae&epr=40033937'
p395
aS'cgi-bin/m?rnd=1523986508234&ci=us-304254h&js=1&cg=0&ts=v60.js&vn=6.0.58&cc=1&cd=24&ck=y&je=n&lg=en-GB&si=http%3A%2F%2Fwww.tv.com%2Fshows%2Fghost-hunter%2Fepisodes%2F&rp=http%3A%2F%2Fwww.tv.com%2Fshows%2Fghost-hunter%2F&sr=1600x1103&id=lstrg-2d990c19235a5ef669bbeb71dfde2bb3&tz=1'
p396
aS'track/cmf/generic?ttd_pid=adadvisor&ttd_tpi=1'
p397
aS'sync/img?redir=http://aa.agkn.com/adscores/g.pixel%3Fsid%3D9312292258%26mt%3D%5BMM_UUID%5D'
p398
aS'sync/img?mt_exid=10004&mt_exuid=35720112831562584432458233947489517182&redir=http%3A%2F%2Fdpm.demdex.net%2Fibs%3Adpid%3D269%26dpuuid%3D[MM_UUID]%26ddsuuid%3d35720112831562584432458233947489517182'
p399
aS'shows/ghost-hunter/reviews/'
p400
aS'sync/img?mt_exid=10004&mt_exuid=35720112831562584432458233947489517182&redir=http%3A%2F%2Fdpm.demdex.net%2Fibs%3Adpid%3D269%26dpuuid%3D[MM_UUID]%26ddsuuid%3d35720112831562584432458233947489517182'
p401
aS'content-injector/2016/09/1473069644832.js'
p402
aS'onscroll/2017/02/1486638591008.js'
p403
aS'adserve/js.php?zone=12593'
p404
aS'78e7a841-fd39-45c5-9ef6-9e88a3272a8b/tag.min.js'
p405
aS'r/cs?pid=21'
p406
aS'ibs:dpid=269&dpuuid=7a9e5acc-e2ff-4b00-8851-e46aa7332ad6&ddsuuid=35720112831562584432458233947489517182'
p407
aS'adscores/g.pixel?sid=9312292258&mt=7a9e5acc-e2ff-4b00-8851-e46aa7332ad6'
p408
aS'adscores/g.pixel?sid=9211946648&tdid=721bdb67-edee-4fa1-b776-7556120bf0bd'
p409
aS'blank.html'
p410
aS'shows/ghost-hunter/trapped-in-time-384904/'
p411
aS'track/cmf/casale?cm_dsp_id=70&cm_callback_url=http%3A%2F%2Fdsum.casalemedia.com%2Fcrum&cm_user_id=WszvtLlQJZIAAFySI3gAAAEE'
p412
aS'sync/img?mt_exid=15&redir=http%3A%2F%2Fdsum.casalemedia.com%2Fcrum%3Fcm_dsp_id%3D3%26external_user_id%3D%5BMM_UUID%5D'
p413
aS'bridge?AG_PID=casale_us&AG_SETCOOKIE'
p414
aS'cm?in=1&pub=2079'
p415
aS'track/cmf/generic?ttd_pid=adadvisor&ttd_tpi=1'
p416
aS'pixel/cookiesync?source=67e94f23-25d6-4008-8236-375d1743c2e0&secure=0'
p417
aS'pixel?google_nid=casale_media2_nonsecure&google_cm&google_sc'
p418
aS'd/px?_pid=13041&_psign=be82b7faf482c24ef42e8702b774bd66&_redirect=http%3A%2F%2Fdsum.casalemedia.com%2Fcrum%3Fcm_dsp_id%3D100%26external_user_id%3D%24%7BUUID%7D'
p419
aS'spacer.gif'
p420
aS'ifnotify?c=F89389&r=140DD052&t=5AD63049&u=V3N6dnRMbFFKWklBQUZ5U0kzZ0FBQUVF&m=b0b05a49a9e3aeaf6a52562cac6fd637&wp=F6&aid=C425424157FE079B&tid=FA46&s=2CA1F&cp=2.46&n=www.tv.com&pr=xx&sid=3bae-570e&epr=73683010'
p421
aS'ast/ast.js'
p422
aS'ecs?cm_dsp_id=31&cm_callback_url=http%3A%2F%2Fdsum.casalemedia.com%2Fcrum&cm_user_id=WszvtLlQJZIAAFySI3gAAAEE'
p423
aS'casale/match?cm_dsp_id=65&cm_callback_url=http%3A%2F%2Fdsum.casalemedia.com%2Fcrum&cm_user_id=WszvtLlQJZIAAFySI3gAAAEE'
p424
aS'cm/index/ssp'
p425
aS'taboola/image/fetch/f_jpg%2Cq_auto%2Ch_234%2Cw_280%2Cc_fill%2Cg_faces:auto%2Ce_sharpen/http%3A//cdn.taboola.com/libtrc/static/thumbnails/9caaf934e2f08886ae8ca8a207a3a280.png'
p426
aS'sync/img/?mt_exid=10009&mt_exuid=256420402656004681420'
p427
aS'adscores/g.pixel?sid=9211946648&tdid=721bdb67-edee-4fa1-b776-7556120bf0bd&&bounced=1'
p428
aS'ifnotify?c=F89389&r=140DD053&t=5AD63049&u=V3N6dnRMbFFKWklBQUZ5U0kzZ0FBQUVF&m=f2bfe93dd16f95627698938893bbfdf8&wp=F6&aid=C425424157FDD5DB&tid=FA46&s=2CA1D&cp=2.46&n=www.tv.com&pr=xx&sid=3bae-570e&epr=73683010'
p429
aS'ping_match.gif?ei=CASALE&rurl=http://dsum.casalemedia.com/crum?cm_dsp_id=47&external_user_id=_wfivefivec_'
p430
aS'upi/pid/ZMAwryCI?redir=http%3A%2F%2Fdsum.casalemedia.com%2Frum%3Fcm_dsp_id%3D88%26external_user_id%3D%24%7BTM_USER_ID%7D'
p431
aS'cfcm.ashx?providerId=1013&extMatch=1&rcode=1'
p432
aS'public/CACHE/css/1cc7aede1cc1.css'
p433
aS'public/CACHE/css/72b1096dbd93.css'
p434
aS'public/CACHE/css/f41edc3a24b9.css'
p435
aS'public/CACHE/js/ba6525138481.js'
p436
aS'images/misc/grey.gif'
p437
aS'ibs:dpid=269&dpuuid=7a9e5acc-e2ff-4b00-8851-e46aa7332ad6&ddsuuid=35720112831562584432458233947489517182'
p438
aS'ifnotify?c=F89290&r=140DD056&t=5AD63049&u=V3N6dnRMbFFKWklBQUZ5U0kzZ0FBQUVF&m=452c4f4f07856a96db917e68f30e51dc&wp=F6&aid=C425424157FE933B&tid=FA46&s=2CC12&cp=2.46&n=www.tv.com&pr=xx&sid=3bae-5710&epr=73683010'
p439
aS'adserve/client/?zone=12593&debug=1&ru=http%3A%2F%2Fwww.tv.com%2Fshows%2Fghost-hunter%2Fcast%2F&sw=1600&sh=1103&ww=1195&wh=676&tt=1523986514024&rid=2d95fc4d-201d-6952-8f85-39a311dec4d7-1523986511617'
p440
aS'tracking.gif?rid=2d95fc4d-201d-6952-8f85-39a311dec4d7-1523986511617&sid=dd82c428-98d9-6c4e-6c83-fba3b7aae013-1523986503178&uid=edd9d6cb-5cab-155f-4689-d90cfb1743c1-1523986503178&vr=2.16.190&ru=http%3A%2F%2Fwww.tv.com%2Fshows%2Fghost-hunter%2Fcast%2F&tt=1523986514010&siw=0&sh=1103&sw=1600&wh=676&ww=1195&an=i-02b9539b3e8ce1ea5&vn=eu-west-1&sd=uk&_c=4125369018&et=&aid=&said=&ei=&fc=&sp=&at=&cid=0&ist=&mg=&dl=&dlt=&ev=&vt=&zid=12593&dr=0&di=&pr=&cw=&ch=&nt=&st=&jp=&ty=ta'
p441
aS'c/cse?a=Q&B=30'
p442
aS'assets/tag.js'
p443
aS'int/cm?exc=19'
p444
aS'ifnotify?c=F89304&r=140DD051&t=5AD63049&u=V3N6dnRMbFFKWklBQUZ5U0kzZ0FBQUVF&m=b99816889be63bbadae686cccaabd4d9&wp=F6&aid=C425424157F5C533&tid=FA46&s=2CA1C&cp=2.46&n=www.tv.com&pr=xx&sid=3bae&epr=73683010'
p445
aS'js/v2.16.190/jpx.js'
p446
aS'tracking.gif?rid=c7e722b0-eb4c-0a46-1897-0363a4d9f38a-1523986503178&sid=dd82c428-98d9-6c4e-6c83-fba3b7aae013-1523986503178&uid=edd9d6cb-5cab-155f-4689-d90cfb1743c1-1523986503178&vr=v2.16.190&ru=http%3A%2F%2Fwww.tv.com%2Fshows%2Fghost-hunter%2Fepisodes%2F&tt=1523986514790&siw=960&sh=1079&sw=1535&wh=676&ww=1195&an=i-02b9539b3e8ce1ea5&vn=eu-west-1&sd=uk&_c=alojxc81523986514794&et=&aid=186541&said=308085&ei=146753&fc=hv&sp=24&at=adserver&cid=&ist=0&mg=&dl=&dlt=&ev=&vt=&zid=12593&dr=7656&di=&pr=&cw=&ch=&nt=unspecified&st=&jp=%7B%22ph%22%3A2843%7D&ty=ex'
p447
aS'directsdk/v1/146753.js'
p448
aS'pixel/cookiesync?source=67e94f23-25d6-4008-8236-375d1743c2e0&secure=0'
p449
aS'r.gif?exchange=index'
p450
aS'pixel/p-Z8PuJEk6U7Hyq.gif?idmatch=0'
p451
aS'dmp/pixelSync?nid=48'
p452
aS'getuid?http://dsum.casalemedia.com/crum?cm_dsp_id=46&external_user_id=$UID'
p453
aS'r1/cm/p103'
p454
aS'cookie-sync/ie'
p455
aS'content-injector/2016/09/1473069644832.js'
p456
aS'onscroll/2017/02/1486638591008.js'
p457
aS'crum?cm_dsp_id=3&external_user_id=7a9e5acc-e2ff-4b00-8851-e46aa7332ad6'
p458
aS'sdk/urs.js?_=1523986515485'
p459
aS'crum?cm_dsp_id=39&external_user_id=721bdb67-edee-4fa1-b776-7556120bf0bd&expiration=1526578513'
p460
aS'crum?cm_dsp_id=41&external_user_id=43e4dc88-3ce2-11e8-b25c-7f2f00002512'
p461
aS'crum?cm_dsp_id=57&external_user_id=1040964848864226373'
p462
aS'crum?cm_dsp_id=100&external_user_id=61c341cc2ff1707c874385929907d4af'
p463
aS'adscores/g.pixel?sid=9211946648&tdid=721bdb67-edee-4fa1-b776-7556120bf0bd'
p464
aS'crum?cm_dsp_id=45&external_user_id=CAESEIzKFeCkSY0rFjBsOrzir_A&google_cver=1'
p465
aS'ht/ls-tvcom.js?_=1523986515484'
p466
aS'sdk/urs.js?_=1523986515765'
p467
aS'pixel/2610/?sk=256420402656004681420&pd=&puid=721bdb67-edee-4fa1-b776-7556120bf0bd&ex=&exc=&age=&gender=&st=&dm=&wmt=&as2=&dnb=&l1='
p468
aS'bwe.png'
p469
aS'ht/ls-tvcom.js?_=1523986515764'
p470
aS'adserver/cookiematch?pnid=3000010'
p471
aS'orbserv/hbpix?pixId=9867&pcv=79'
p472
aS'public/scripts/tv/auth.js'
p473
aS'public/images/lists/nav-icons4.png?2ab6f8fe41bf'
p474
aS'user/sync/ssps/ix?cm_dsp_id=149&cm_callback_url=http%3A%2F%2Fdsum.casalemedia.com%2Fcrum&cm_user_id=WszvtLlQJZIAAFySI3gAAAEE'
p475
aS'public/images/tall_sprite_27.png?af06a0ea79e0'
p476
aS'crum?cm_dsp_id=156&external_user_id=ebb14e4d-ee19-431b-ae76-6f3f5f2747e3'
p477
aS'inx'
p478
aS'cfcm.ashx?providerId=1013&extMatch=1&rcode=2'
p479
aS'bridge?AG_PID=casale&AG_SETCOOKIE'
p480
aS'cm'
p481
aS'utag/cbsi/tvcomsite/prod/utag.js'
p482
aS'public/fonts/open-sans-v13-latin-700.woff2?73437ad44345'
p483
aS'public/font/tv-font-icons.woff?3dabf77c'
p484
aS'bridge?AG_PID=casale_us&AG_SETCOOKIE'
p485
aS'public/images/EpTitleArea.png?149705396720'
p486
aS'casale/?cm_dsp_id=28&cm_callback_url=http%3A%2F%2Fdsum.casalemedia.com%2Fcrum&cm_user_id=WszvtLlQJZIAAFySI3gAAAEE'
p487
aS'images/sprites/ep_title_area_02.png'
p488
aS'public/images/arrow-sprite.png?47d7f7f75103'
p489
aS'public/fonts/open-sans-v13-latin-600.woff2?fa907b3395c4'
p490
aS'public/fonts/fontawesome-webfont.woff2?v=4.4.0'
p491
aS'cm/index/ssp'
p492
aS'pagead/js/lidar.js'
p493
aS'ecs?cm_dsp_id=31&cm_callback_url=http%3A%2F%2Fdsum.casalemedia.com%2Fcrum&cm_user_id=WszvtLlQJZIAAFySI3gAAAEE'
p494
aS'sodar/V6zvOIoD.js'
p495
aS'serving/cookie/match?party=29'
p496
aS'sync?r=2&c=158&j=STRCriteoCallback&callback=STRCriteoCallback'
p497
aS'i.match?p=b20&redirect=http%3A%2F%2Fdsum.casalemedia.com/crum%3Fcm_dsp_id%3D131%26external_user_id%3D%24TF_USER_ID_ENC%24&cm_dsp_id=131&cm_callback_url=http%3A%2F%2Fdsum.casalemedia.com%2Fcrum&cm_user_id=WszvtLlQJZIAAFySI3gAAAEE'
p498
aS'pageservices/social/oauth/proxy?xdm_e=http%3A%2F%2Fwww.tv.com&xdm_c=urs424&xdm_p=1'
p499
aS'getuidp?callback=STRAppNexusCallback'
p500
aS'images/pixel.gif?ch=2&rn=1.929724586225693'
p501
aS'assets/easyxdm/easyXDM.min.js'
p502
aS'images/pixel.gif?ch=1&rn=1.929724586225693'
p503
aS'crum?cm_dsp_id=156&external_user_id=ebb14e4d-ee19-431b-ae76-6f3f5f2747e3'
p504
aS'c/cse?a=Q&B=30'
p505
aS'idsync/ex/push?partner_id=2499&partner_device_id=799c92bd-e96a-49d5-9102-719bbcd9a8e6&partner_url=http%3A%2F%2Fdsum.casalemedia.com%2Frum%3Fcm_dsp_id%3D64%26external_user_id%3D799c92bd-e96a-49d5-9102-719bbcd9a8e6%26expiration%3D1526578516'
p506
aS'b/ss/cbsitvcomsite/10/JS-2.3.0/s96021164204132?AQB=1&ndh=1&pf=1&callback=s_c_il[0].doPostbacks&et=1&t=17%2F3%2F2018%2018%3A35%3A21%202%20-60&d.&nsid=0&jsonv=1&.d&mid=35865185884368107392471047042386950918&aid=2D6677DC05312208-60000118C001361C&aamlh=6&ce=UTF-8&ns=cbsinteractive&pageName=tvcom%3A%2Fshows%2Fghost-hunter%2Ftrapped-in-time-384904%2F&g=http%3A%2F%2Fwww.tv.com%2Fshows%2Fghost-hunter%2Ftrapped-in-time-384904%2F&r=http%3A%2F%2Fwww.tv.com%2Fshows%2Fghost-hunter%2Fepisodes%2F&cc=USD&ch=shows&server=www.tv.com&events=prodView&products=%3Btv-show-23617%7CGhost%20Hunter%3B%3B%3B%3B%2C%3Btv-episode-384904%7CTrapped%20In%20Time%3B%3B%3B%3B&aamb=6G1ynYcLPuiQxYZrsz_pkqfLG9yMXBpb2zX5dvJdYQJzPXImdj0y&h1=shows%7Cghost-hunter%7Ctrapped-in-time-384904&c2=D%3Dv2&v2=uk&c3=D%3Dv3&v3=desktop%20web%7C%7C%7Cdesktop&c4=D%3Dv4&v4=internal%3Anavigation%3Ashow_cast&c5=D%3Dv5&v5=cbsitvcomsite&c6=D%3Dv6&v6=shows%7Cghost-hunter%7Ctrapped-in-time-384904&c7=D%3Dv7&v7=http%3A%2F%2Fwww.tv.com%2Fshows%2Fghost-hunter%2Ftrapped-in-time-384904%2F&c8=D%3Dv8&v8=Ghost%20Hunter%20-%20Season%203%2C%20Episode%206%3A%20Trapped%20In%20Time%20-%20TV.com&c9=D%3DUser-Agent&c10=D%3Dv10&v10=episode_overview&c11=D%3Dv11&v11=D%3Dch%2B%22%3A%22%2Bv10&v15=not%20authenticated%7Canon&c24=D%3Dv24&v24=b0d63ac0-4265-11e8-941b-77cd7f7cb56e&c35=D%3Dv35&v35=bUi3ZFrM77S97dTF4xk&v49=%5Bobject%20Object%5D&c50=1%3A30PM&v50=1%3A30PM&c51=Tuesday&v51=Tuesday&c52=2&v52=2&c53=Repeat&v53=Repeat&c54=More%20than%207%20days&v54=More%20than%207%20days&v85=false&s=1600x1103&c=24&j=1.6&v=N&k=Y&bw=1195&bh=676&mcorgid=10D31225525FF5790A490D4D%40AdobeOrg&AQE=1'
p507
aS'crum?cm_dsp_id=107&external_user_id=AB-YFZAIUCZNHmcxwyeJS_3bQ&expiration='
p508
aS'crum?cm_dsp_id=46&external_user_id=1400388208509572428'
p509
aS'crum?cm_dsp_id=130&external_user_id=AAVPwk61meAAABbCLqMwjA&expiration=1525196116'
p510
aS'tracking.gif?rid=2d95fc4d-201d-6952-8f85-39a311dec4d7-1523986511617&sid=dd82c428-98d9-6c4e-6c83-fba3b7aae013-1523986503178&uid=edd9d6cb-5cab-155f-4689-d90cfb1743c1-1523986503178&vr=v2.16.190&ru=http%3A%2F%2Fwww.tv.com%2Fshows%2Fghost-hunter%2Fcast%2F&tt=1523986522016&siw=960&sh=1079&sw=1535&wh=676&ww=1195&an=i-02b9539b3e8ce1ea5&vn=eu-west-1&sd=uk&_c=am0f3w1523986522018&et=&aid=186541&said=308085&ei=146753&fc=hv&sp=24&at=adserver&cid=&ist=0&mg=&dl=&dlt=&ev=&vt=&zid=12593&dr=7994&di=&pr=&cw=&ch=&nt=unspecified&st=&jp=%7B%22ph%22%3A3086%7D&ty=ex'
p511
aS'crum?external_user_id=1812-71-8272241-4&cm_dsp_id=117&expiration=1526578517'
p512
aS'c/cse?a=Q&B=30'
p513
aS'cfcm.ashx?providerId=1013&extMatch=1&rcode=2&ctst=1'
p514
aS'crum?cm_dsp_id=28&external_user_id=0f9a2395-8175-4000-c07f-9f1688511016&expiration=1526578517'
p515
aS'crum?cm_dsp_id=105&external_user_id=0'
p516
aS'jpt?id=11834577&size=728x90&callback=headertag.AppNexusHtb.adResponseCallback&callback_uid=K8KBmV23&psa=0&referrer=http%3A%2F%2Fwww.tv.com%2Fshows%2Fghost-hunter%2Freviews%2F'
p517
aS'noop?ct=text%2Fhtml'
p518
aS'crum?cm_dsp_id=65&expiration=1524072913&external_user_id=AQEKpHLtk1I6JQI-9sswAQEBAQE&cm_user_id=WszvtLlQJZIAAFySI3gAAAEE'
p519
aS'cygnus?v=7&s=182811&fn=headertag.IndexExchangeHtb.adResponseCallback&r=%7B%22id%22%3A92523505%2C%22site%22%3A%7B%22page%22%3A%22http%3A%2F%2Fwww.tv.com%2Fshows%2Fghost-hunter%2Freviews%2F%22%2C%22ref%22%3A%22http%3A%2F%2Fwww.tv.com%2Fshows%2Fghost-hunter%2Fepisodes%2F%22%7D%2C%22imp%22%3A%5B%7B%22banner%22%3A%7B%22w%22%3A728%2C%22h%22%3A90%2C%22topframe%22%3A1%7D%2C%22ext%22%3A%7B%22sid%22%3A%22202%22%2C%22siteID%22%3A%22182812%22%7D%2C%22id%22%3A%221%22%7D%2C%7B%22banner%22%3A%7B%22w%22%3A300%2C%22h%22%3A250%2C%22topframe%22%3A1%7D%2C%22ext%22%3A%7B%22sid%22%3A%22209%22%2C%22siteID%22%3A%22182815%22%7D%2C%22id%22%3A%222%22%7D%2C%7B%22banner%22%3A%7B%22w%22%3A300%2C%22h%22%3A250%2C%22topframe%22%3A1%7D%2C%22ext%22%3A%7B%22sid%22%3A%22208%22%2C%22siteID%22%3A%22182813%22%7D%2C%22id%22%3A%223%22%7D%2C%7B%22banner%22%3A%7B%22w%22%3A300%2C%22h%22%3A600%2C%22topframe%22%3A1%7D%2C%22ext%22%3A%7B%22sid%22%3A%22222%22%2C%22siteID%22%3A%22182814%22%7D%2C%22id%22%3A%224%22%7D%2C%7B%22banner%22%3A%7B%22w%22%3A728%2C%22h%22%3A90%2C%22topframe%22%3A1%7D%2C%22ext%22%3A%7B%22sid%22%3A%22201%22%2C%22siteID%22%3A%22182811%22%7D%2C%22id%22%3A%225%22%7D%2C%7B%22banner%22%3A%7B%22w%22%3A970%2C%22h%22%3A250%2C%22topframe%22%3A1%7D%2C%22ext%22%3A%7B%22sid%22%3A%22219%22%2C%22siteID%22%3A%22183314%22%7D%2C%22id%22%3A%226%22%7D%5D%7D'
p520
aS'rum?cm_dsp_id=88&external_user_id=Wszv3wAAAMvgVivl'
p521
aS'jpt?id=11834574&size=300x250&callback=headertag.AppNexusHtb.adResponseCallback&callback_uid=cfHsUlHf&psa=0&referrer=http%3A%2F%2Fwww.tv.com%2Fshows%2Fghost-hunter%2Freviews%2F'
p522
aS'jpt?id=11834573&size=300x250&callback=headertag.AppNexusHtb.adResponseCallback&callback_uid=5CWkbcAW&psa=0&promo_sizes=300x600&referrer=http%3A%2F%2Fwww.tv.com%2Fshows%2Fghost-hunter%2Freviews%2F'
p523
aS'crum?cm_dsp_id=47&external_user_id=2WMcX4Bh1F5WMf5'
p524
aS'jpt?id=11834576&size=728x90&callback=headertag.AppNexusHtb.adResponseCallback&callback_uid=W0EXkcOz&psa=0&promo_sizes=970x250&referrer=http%3A%2F%2Fwww.tv.com%2Fshows%2Fghost-hunter%2Freviews%2F'
p525
aS'crum?cm_dsp_id=149&external_user_id=ZlfxwWBEz9X9ysqhllmKkInLSrXmxrVc9H1f92qYgaA%3D'
p526
aS'c/cse?a=Q&B=30'
p527
aS'jpt?id=11834577&size=728x90&callback=headertag.AppNexusHtb.adResponseCallback&callback_uid=mvXD3HVC&psa=0&referrer=http%3A%2F%2Fwww.tv.com%2Fshows%2Fghost-hunter%2Ftrapped-in-time-384904%2F'
p528
aS'jpt?id=11834574&size=300x250&callback=headertag.AppNexusHtb.adResponseCallback&callback_uid=YJrSEgLL&psa=0&referrer=http%3A%2F%2Fwww.tv.com%2Fshows%2Fghost-hunter%2Ftrapped-in-time-384904%2F'
p529
aS'jpt?id=11834573&size=300x250&callback=headertag.AppNexusHtb.adResponseCallback&callback_uid=IQV3rgXG&psa=0&promo_sizes=300x600&referrer=http%3A%2F%2Fwww.tv.com%2Fshows%2Fghost-hunter%2Ftrapped-in-time-384904%2F'
p530
aS'jpt?id=11834576&size=728x90&callback=headertag.AppNexusHtb.adResponseCallback&callback_uid=Clc2EbSH&psa=0&promo_sizes=970x250&referrer=http%3A%2F%2Fwww.tv.com%2Fshows%2Fghost-hunter%2Ftrapped-in-time-384904%2F'
p531
aS'cygnus?v=7&s=182811&fn=headertag.IndexExchangeHtb.adResponseCallback&r=%7B%22id%22%3A7475573%2C%22site%22%3A%7B%22page%22%3A%22http%3A%2F%2Fwww.tv.com%2Fshows%2Fghost-hunter%2Ftrapped-in-time-384904%2F%22%2C%22ref%22%3A%22http%3A%2F%2Fwww.tv.com%2Fshows%2Fghost-hunter%2Fepisodes%2F%22%7D%2C%22imp%22%3A%5B%7B%22banner%22%3A%7B%22w%22%3A728%2C%22h%22%3A90%2C%22topframe%22%3A1%7D%2C%22ext%22%3A%7B%22sid%22%3A%22202%22%2C%22siteID%22%3A%22182812%22%7D%2C%22id%22%3A%221%22%7D%2C%7B%22banner%22%3A%7B%22w%22%3A300%2C%22h%22%3A250%2C%22topframe%22%3A1%7D%2C%22ext%22%3A%7B%22sid%22%3A%22209%22%2C%22siteID%22%3A%22182815%22%7D%2C%22id%22%3A%222%22%7D%2C%7B%22banner%22%3A%7B%22w%22%3A300%2C%22h%22%3A250%2C%22topframe%22%3A1%7D%2C%22ext%22%3A%7B%22sid%22%3A%22208%22%2C%22siteID%22%3A%22182813%22%7D%2C%22id%22%3A%223%22%7D%2C%7B%22banner%22%3A%7B%22w%22%3A300%2C%22h%22%3A600%2C%22topframe%22%3A1%7D%2C%22ext%22%3A%7B%22sid%22%3A%22222%22%2C%22siteID%22%3A%22182814%22%7D%2C%22id%22%3A%224%22%7D%2C%7B%22banner%22%3A%7B%22w%22%3A728%2C%22h%22%3A90%2C%22topframe%22%3A1%7D%2C%22ext%22%3A%7B%22sid%22%3A%22201%22%2C%22siteID%22%3A%22182811%22%7D%2C%22id%22%3A%225%22%7D%2C%7B%22banner%22%3A%7B%22w%22%3A970%2C%22h%22%3A250%2C%22topframe%22%3A1%7D%2C%22ext%22%3A%7B%22sid%22%3A%22219%22%2C%22siteID%22%3A%22183314%22%7D%2C%22id%22%3A%226%22%7D%5D%7D'
p532
aS'rum?cm_dsp_id=42&expiration=1526578517'
p533
aS'cfcm.ashx?providerId=1013&extMatch=1&rcode=1&ctst=1'
p534
aS'noop?ct=text%2Fhtml'
p535
aS'crum?cm_dsp_id=111&external_user_id=1896041962354900277&expiration=1525196119'
p536
aS'crum?cm_dsp_id=131&external_user_id=18072662330302675251'
p537
aS'directsdk/v1/146753.js'
p538
aS'crum?cm_dsp_id=105&external_user_id=0'
p539
aS'b?c1=7&c2=13739933&c3=20121515121&ns__t=1523986520624&ns_c=UTF-8&cv=3.1&c8=Ghost%20Hunter%20Fan%20Reviews%20%26%20Ratings%20-%20TV.com&c7=http%3A%2F%2Fwww.tv.com%2Fshows%2Fghost-hunter%2Freviews%2F&c9=http%3A%2F%2Fwww.tv.com%2Fshows%2Fghost-hunter%2Fepisodes%2F'
p540
aS'cbsinteractive-tvcom/trc/3/json?tim=18%3A35%3A21.370&data=%7B%22id%22%3A328%2C%22ii%22%3A%22%2Fshows%2Fghost-hunter%2Freviews%22%2C%22it%22%3A%22other%22%2C%22sd%22%3A%22v2_17038f9db85b0396dea751916cfa85fa_e117cb23-0c92-4757-bbda-3a411f7f4f2d-tuct1c67533_1523986488_1523986506_CNawjgYQ5cw_GJLEsqWtLCADKAMwTQ%22%2C%22ui%22%3A%22e117cb23-0c92-4757-bbda-3a411f7f4f2d-tuct1c67533%22%2C%22uifp%22%3A%22e117cb23-0c92-4757-bbda-3a411f7f4f2d-tuct1c67533%22%2C%22vi%22%3A1523986521246%2C%22cv%22%3A%22302-48-RELEASE%22%2C%22uiv%22%3A%22default%22%2C%22u%22%3A%22http%3A%2F%2Fwww.tv.com%2Fshows%2Fghost-hunter%2Freviews%2F%22%2C%22bv%22%3A%220%22%2C%22ul%22%3A%5B%22en-GB%22%2C%22en%22%5D%2C%22btv%22%3A%220%22%2C%22lspb%22%3A%22CwsIIBC-_wkMCwgjEKb_CQwLCB4Qvv8JDAsIJBC-_wkMCwgfEL7_CQwLCCEQvv8JDAsIHRC-_wkMCwgxEL7_CQwLCC4Qvv8JDAsILRC-_wkMCwgnEL7_CQwMExQ%22%2C%22e%22%3A%22http%3A%2F%2Fwww.tv.com%2Fshows%2Fghost-hunter%2Fepisodes%2F%22%2C%22bad%22%3A-1%2C%22bw%22%3A1195%2C%22sw%22%3A1535%2C%22sh%22%3A1079%2C%22r%22%3A%5B%7B%22li%22%3A%22rbox-o2m%22%2C%22s%22%3A6%2C%22uim%22%3A%22alternating-thumbnails-d%3Aabp%3D0%22%2C%22uip%22%3A%22Bottom%20Page%20Thumbnails%20show_reviews%20Desktop%22%2C%22orig_uip%22%3A%22Bottom%20Page%20Thumbnails%20show_reviews%20Desktop%22%2C%22cd%22%3A1333%2C%22mw%22%3A626%7D%2C%7B%22li%22%3A%22rbox-o2m%22%2C%22s%22%3A4%2C%22uim%22%3A%22alternating-thumbnails-c%3Aabp%3D0%22%2C%22uip%22%3A%22Right%20Rail%20Thumbnails%20show_reviews%20Desktop%22%2C%22orig_uip%22%3A%22Right%20Rail%20Thumbnails%20show_reviews%20Desktop%22%2C%22cd%22%3A1201%2C%22mw%22%3A300%7D%5D%2C%22cb%22%3A%22TRC.callbacks.recommendations_1%22%2C%22lt%22%3A%22normal%22%7D'
p541
aS'rum?cm_dsp_id=55&external_user_id=e906a3e8a3dbf576-0637bcdebb111b48'
p542
aS'utsync.ashx?eid=50112&et=0&return=http%3A%2F%2Fdpm.demdex.net%2Fibs%3Adpid%3D22052%26dpuuid%3D[PersonID]'
p543
aS'rum?cm_dsp_id=64&external_user_id=799c92bd-e96a-49d5-9102-719bbcd9a8e6&expiration=1526578516'
p544
aS'rum?cm_dsp_id=55&external_user_id=e906a3e8a3dbf576-0637bcdebb111b48'
p545
aS'images/pixel.gif?ch=1&rn=3.393463438272415'
p546
aS'images/pixel.gif?ch=2&rn=3.393463438272415'
p547
aS'b?c1=2&c2=3005086&c4=&c4=http%3A%2F%2Fwww.tv.com%2Fshows%2Fghost-hunter%2Ftrapped-in-time-384904%2F&ns__t=1523986521450&ns_c=UTF-8&c8=Ghost%20Hunter%20-%20Season%203%2C%20Episode%206%3A%20Trapped%20In%20Time%20-%20TV.com&c7=http%3A%2F%2Fwww.tv.com%2Fshows%2Fghost-hunter%2Ftrapped-in-time-384904%2F&c9=http%3A%2F%2Fwww.tv.com%2Fshows%2Fghost-hunter%2Fepisodes%2F'
p548
aS'cbsinteractive-tvcom/trc/3/json?tim=18%3A35%3A23.632&data=%7B%22id%22%3A762%2C%22ii%22%3A%22%2Fshows%2Fghost-hunter%2Ftrapped-in-time-384904%22%2C%22it%22%3A%22other%22%2C%22sd%22%3A%22v2_17038f9db85b0396dea751916cfa85fa_e117cb23-0c92-4757-bbda-3a411f7f4f2d-tuct1c67533_1523986488_1523986506_CNawjgYQ5cw_GJLEsqWtLCADKAMwTQ%22%2C%22ui%22%3A%22e117cb23-0c92-4757-bbda-3a411f7f4f2d-tuct1c67533%22%2C%22uifp%22%3A%22e117cb23-0c92-4757-bbda-3a411f7f4f2d-tuct1c67533%22%2C%22vi%22%3A1523986523556%2C%22cv%22%3A%22302-48-RELEASE%22%2C%22uiv%22%3A%22default%22%2C%22u%22%3A%22http%3A%2F%2Fwww.tv.com%2Fshows%2Fghost-hunter%2Ftrapped-in-time-384904%2F%22%2C%22bv%22%3A%220%22%2C%22ul%22%3A%5B%22en-GB%22%2C%22en%22%5D%2C%22btv%22%3A%220%22%2C%22lspb%22%3A%22CwsIIBC-_wkMCwgjEKb_CQwLCB4Qvv8JDAsIJBC-_wkMCwgfEL7_CQwLCCEQvv8JDAsIHRC-_wkMCwgxEL7_CQwLCC4Qvv8JDAsILRC-_wkMCwgnEL7_CQwMExQ%22%2C%22e%22%3A%22http%3A%2F%2Fwww.tv.com%2Fshows%2Fghost-hunter%2Fepisodes%2F%22%2C%22bad%22%3A-1%2C%22bw%22%3A1195%2C%22sw%22%3A1535%2C%22sh%22%3A1079%2C%22r%22%3A%5B%7B%22li%22%3A%22rbox-o2m%22%2C%22s%22%3A6%2C%22uim%22%3A%22alternating-thumbnails-d%3Aabp%3D0%22%2C%22uip%22%3A%22Bottom%20Page%20Thumbnails%20episode_overview%20Desktop%22%2C%22orig_uip%22%3A%22Bottom%20Page%20Thumbnails%20episode_overview%20Desktop%22%2C%22cd%22%3A865.5%2C%22mw%22%3A626%7D%2C%7B%22li%22%3A%22rbox-o2m%22%2C%22s%22%3A4%2C%22uim%22%3A%22alternating-thumbnails-c%3Aabp%3D0%22%2C%22uip%22%3A%22Right%20Rail%20Thumbnails%20episode_overview%20Desktop%22%2C%22orig_uip%22%3A%22Right%20Rail%20Thumbnails%20episode_overview%20Desktop%22%2C%22cd%22%3A1620%2C%22mw%22%3A300%7D%5D%2C%22cb%22%3A%22TRC.callbacks.recommendations_1%22%2C%22lt%22%3A%22normal%22%7D'
p549
aS'b?c1=7&c2=13739933&c3=20121515121&ns__t=1523986521946&ns_c=UTF-8&cv=3.1&c8=Ghost%20Hunter%20-%20Season%203%2C%20Episode%206%3A%20Trapped%20In%20Time%20-%20TV.com&c7=http%3A%2F%2Fwww.tv.com%2Fshows%2Fghost-hunter%2Ftrapped-in-time-384904%2F&c9=http%3A%2F%2Fwww.tv.com%2Fshows%2Fghost-hunter%2Fepisodes%2F'
p550
aS'clear/c.gif?rsid=cbsitvcomsite&pagetype=episode_overview&viewguid=b0d63ac0-4265-11e8-941b-77cd7f7cb56e&devicetype=desktop&sitetype=desktop%20web&ts=1523986524736&sid=45&ld=www.tv.com&ldc=ec96c6bd-a93e-4493-858c-981961d72f1b&brwinsz=1195x676&brscrsz=1600x1103&brlang=en-GB&tcset=utf8&im=dsjs&clgf=bUi3ZFrM77S97dTF4xk&xref=http%3A%2F%2Fwww.tv.com%2Fshows%2Fghost-hunter%2Fepisodes%2F&srcurl=http%3A%2F%2Fwww.tv.com%2Fshows%2Fghost-hunter%2Ftrapped-in-time-384904%2F&title=Ghost%20Hunter%20-%20Season%203%2C%20Episode%206%3A%20Trapped%20In%20Time%20-%20TV.com'
p551
aS'integration/directsdk/v1/directsdk/beta.js'
p552
aS'adscores/g.pixel?sid=9211946648&tdid=721bdb67-edee-4fa1-b776-7556120bf0bd&&bounced=1'
p553
aS'integration/directsdk/v1/directsdk/beta.js'
p554
aS'bg/YRKqPoIt_ONlxH2tUGnouQ_G4hFZfGHYM-YHumdPwHE.js'
p555
aS'iframe/8613/?che=69960039&c=%7B%22bpid%22%3A%22cbsinteractive%22%2C%22loc%22%3A%22http%3A%2F%2Fwww.tv.com%2Fshows%2Fghost-hunter%2Ftrapped-in-time-384904%2F%22%2C%22ref%22%3A%22http%3A%2F%2Fwww.tv.com%2Fshows%2Fghost-hunter%2Fepisodes%2F%22%2C%22cid%22%3A%22-1%22%2C%22sid%22%3A%22-1%22%2C%22gen%22%3A%22-1%22%2C%22age%22%3A%22-1%22%2C%22cat%22%3A%22-1%22%2C%22brd%22%3A%22-1%22%7D'
p556
aS'storageframe.html'
p557
aS'activeview?avi=BjLFHQDDWWojNLMfEzAbRm5f4BQD2l5mnyQYAABABOAHIAQLgAgDIA5kE4AQBoAYC0ggFCIBhEAHCEwYY46iMmQM&cid=CAASEuRop8Oe5gn4v9FmlXwYiPzeqw&id=osdim&ti=1&adk=519643943&tt=21158&bs=1185,676&mtos=1620,1620,1620,1620,1620&tos=1620,0,0,0,0&p=60,229,150,957&mcvt=1620&rs=3&ht=0&tfs=19494&tls=21114&mc=1&lte=1&bas=0&bac=0&avms=geo&avms_sel=-1&first_poll=21114&nio_mode=1&bos=1195,750&ps=1185,2828&ss=1600,1103&pt=-1&deb=1-0-7-282-5--1-22-0&tvt=17892&op=1&r=v&uc=3&tgt=DIV&cl=1&cec=8&clc=1&cac=0&cd=728x94&v=r20180411'
p558
aS'activeview?avi=Bau2hQDDWWvTaLKvkzAbihZ_IAgDZ7f-doQYAABABOAHIAQLgAgDIA5kE4AQBoAYC0ggFCIBhEAHCEwYYt9DUlQM&cid=CAASEuRoVaPPKche6IqMW7F-Th-4Fg&id=osdim&ti=1&adk=2325600673&tt=21158&bs=1185,676&mtos=1124,1124,1124,1124,1124&tos=1124,0,0,0,0&p=305,766,555,1066&mcvt=1124&rs=3&ht=0&tfs=19990&tls=21114&mc=1&lte=1&bas=0&bac=0&avms=geo&avms_sel=-1&first_poll=21114&nio_mode=1&bos=1195,750&ps=1185,2828&ss=1600,1103&pt=-1&deb=1-0-7-282-5--1-22-0&tvt=17892&op=1&r=v&uc=3&tgt=DIV&cl=1&cec=8&clc=1&cac=0&cd=300x254&v=r20180411'
p559
aS'ibs:dpid=22052&dpuuid=5978151417596522072'
p560
aS'map/c=9828/tp=ADBE/tpid=35720112831562584432458233947489517182?http%3A%2F%2Fdpm.demdex.net%2Fibs%3Adpid%3D121998%26dpuuid%3D%24%7Bprofile_id%7D'
p561
aS'adscores/g.pixel?sid=9212293438'
p562
aS'pagead/osd.js'
p563
aS'pixel/2610/?sk=256420402656004681420&pd=&puid=721bdb67-edee-4fa1-b776-7556120bf0bd&ex=&exc=&age=&gender=&st=&dm=&wmt=&as2=&dnb=&l1='
p564
aS'adscores/g.pixel?sid=9212293468'
p565
aS'ad/9818.js'
p566
aS'cgi-bin/m?rnd=1523986529484&ci=us-304254h&js=1&cg=0&ts=v60.js&vn=6.0.58&cc=1&cd=24&ck=y&je=n&lg=en-GB&si=http%3A%2F%2Fwww.tv.com%2Fshows%2Fghost-hunter%2Ftrapped-in-time-384904%2F&rp=http%3A%2F%2Fwww.tv.com%2Fshows%2Fghost-hunter%2Fepisodes%2F&sr=1600x1103&id=lstrg-2d990c19235a5ef669bbeb71dfde2bb3&tz=1'
p567
aS'pagead/gen_204?id=sodar&v=24&t=2&bgai=Bk-fCSzDWWtmtIK3BxgLMrK84AAAAADgB4AQC&bg=!3d6l3sZEhT8neOlSVvcCAAADYFIAAAAqmQEqitDzNroTEQW9EajkNgTQwQAVdOwCHmHyXBPpqkWi0IVRQ79uefKdI2tE1_XG6zi9O8_101p0_UdnSNFSeI73KLhsVMynQYQIPXg-S2O-yZFDOEUmvnXw3KybPZKmxVpcuNSOE8xk8n1rjQVspF1zFNVG7kRI_afCujHBWChyWBT4EuhNBmBM3ZyfcikAZqSLc13zgRMBAd1HXcioCqM50gs9gvCBLbvUph--7ZjKto1Fu_EEF_rcGSIEEN9fjSWLFs7l9YklYg5p3dErlaLwga2puKaMMNYGyamz1eTFToemI22R4SfFQEnox1_oSRuRBTgf9TxetDzBDwvAfvLbK5Q82Q5q3BE_SzczbSboVDkU9B99sNfzCdkUkYo9xjDC_HuSw3glDDcZzg'
p568
aS'ttj?inv_code=tv_episode_DT_3rd_instream'
p569
aS'ad/9818.js'
p570
aS'js/v2.16.190/jpx.Hv.js?v=v2.16.190'
p571
aS'ifnotify?c=F89257&r=13D7D07D&t=5AD6305B&u=V3N6dnRMbFFKWklBQUZ5U0kzZ0FBQUVF&m=87281e1c7bd4cbd018ae44e17bf49da3&wp=F6&aid=C42546C1578989F5&tid=FA46&s=2CA1E&cp=2.46&n=www.tv.com&pr=xx&sid=3bae-570f&epr=92523505'
p572
aS'taboola/image/fetch/f_jpg%2Cq_auto%2Ch_234%2Cw_280%2Cc_fill%2Cg_faces:auto%2Ce_sharpen/https%3A//console.brax-cdn.com/creatives/ba8a210e-6f13-4ff8-b459-cc60cd7ae469/i__do-0039-banksmirkfk__i_bd0c4a18f58ec664dce5c33e6d4dd70f.600x500.png'
p573
aS'ifnotify?c=212DB2&r=13D7D07B&t=5AD6305B&u=V3N6dnRMbFFKWklBQUZ5U0kzZ0FBQUVF&m=e1e48f910c6309b7f09d3f2fbb636ad9&wp=54&aid=C42546C157874834&tid=FA46&s=2CA1F&cp=0.84&n=www.tv.com&pr=xx&sid=3bae-570e&epr=92523505'
p574
aS'spacer.gif'
p575
aS'ifnotify?c=F89290&r=13D7D07F&t=5AD6305B&u=V3N6dnRMbFFKWklBQUZ5U0kzZ0FBQUVF&m=258c4242fc78fa43efdd80057fe64e96&wp=F6&aid=C42546C157F60A3D&tid=FA46&s=2CC12&cp=2.46&n=www.tv.com&pr=xx&sid=3bae-5710&epr=92523505'
p576
aS'rev/1ba208ef02abbdbeb7dd91c38e1f2432938a6602/dist/bundle.js'
p577
aS'track/cmf/generic?ttd_pid=adadvisor&ttd_tpi=1'
p578
aS'taboola/image/fetch/f_jpg%2Cq_auto%2Ch_234%2Cw_280%2Cc_fill%2Cg_faces:auto%2Ce_sharpen/https%3A//api-int.x-plarium.com/uploads/TR_EN_600x500_Boda_2017-1101_TemplairB_5_Naza%26IMG%3D1117.jpeg'
p579
aS'a/9818/59600/283810-2.js?&cb=0.7990867066487237&tk_st=1&rf=http%3A//www.tv.com/shows/ghost-hunter/reviews/&rp_s=c&p_pos=btf&p_screen_res=1600x1103&ad_slot=59600_2'
p580
aS'ibs:dpid=121998&dpuuid=a18bea8953ec5351dd2778c0af41a8c9'
p581
aS'user/sync/ssps/ix?cm_dsp_id=149&cm_callback_url=http%3A%2F%2Fdsum.casalemedia.com%2Fcrum&cm_user_id=WszvtLlQJZIAAFySI3gAAAEE'
p582
aS'sync/csle'
p583
aS'bridge?AG_PID=casale_us&AG_SETCOOKIE'
p584
aS'pagead/gen_204?id=sodar&v=24&t=2&bgai=BY9CWTDDWWtSkJ4vDxgKHmrJQAAAAADgB4AQC&bg=!BQalBh5Ed_xfo9hD_vYCAAACylIAAACAmQEqqEX00jjvQwvq-Vsx0cHuT6P74KmczbVYWj_MPCFZd-muKJ9gSjpN5o6HbNOzVLUamB3btSBp_L2EUmR_BlkRYMDOtNlyOZc9JVW7F9QbsfeNTnZVcL1Wh60DNHqONtAmbYd83xjEXgLuatF1qAKTwfSgRM8Lvl0Njqry7ZvkdzD9iOqOAsk9-CL-W53EJTs8BikEfEb_Kv42M1sSlKkEuCNJAx0VTY5xpkVTH7tWHBUKWxpFhtgQYvLZcjzYQ7tJgI4N_j_bdv_soZ4opxKpYp-Ivn0A0kHPVXL8Pl28umfiKtEA0bdgONcA0gebCmSqB1vsFGT2MxWh1Lw63NNfCw7xYZLKtKkG_j8JAMClBy2GRLh1nJ1ovByYlxWaF4pF0Kq6reubAAl_QQ'
p585
aS'ecs?cm_dsp_id=31&cm_callback_url=http%3A%2F%2Fdsum.casalemedia.com%2Fcrum&cm_user_id=WszvtLlQJZIAAFySI3gAAAEE'
p586
aS'cfcm.ashx?providerId=1013&extMatch=1&rcode=2'
p587
aS'sync/casale'
p588
aS'cm'
p589
aS'a/9818/59600/283810-15.js?&cb=0.8049378506583481&tk_st=1&rf=http%3A//www.tv.com/shows/ghost-hunter/trapped-in-time-384904/&rp_s=c&p_pos=btf&p_screen_res=1600x1103&ad_slot=59600_15'
p590
aS'utsync.ashx?eid=50112&et=0&return=http%3A%2F%2Fdpm.demdex.net%2Fibs%3Adpid%3D22052%26dpuuid%3D[PersonID]'
p591
aS'sync/?pid=52&fr=1'
p592
aS'a/9818/59600/283810-2.js?&cb=0.533371148992119&tk_st=1&rf=http%3A//www.tv.com/shows/ghost-hunter/trapped-in-time-384904/&rp_s=c&p_pos=btf&p_screen_res=1600x1103&ad_slot=59600_2'
p593
aS'taboola/image/fetch/f_jpg%2Cq_auto%2Ch_234%2Cw_280%2Cc_fill%2Cg_faces:auto%2Ce_sharpen/http%3A//cdn.taboola.com/libtrc/static/thumbnails/327ef4059fb119fad10f6cfd5154ac48.jpg'
p594
aS'b/ss/cbsitvcomsite/10/JS-2.3.0/s94318496043754?AQB=1&ndh=1&pf=1&callback=s_c_il[0].doPostbacks&et=1&t=17%2F3%2F2018%2018%3A35%3A37%202%20-60&d.&nsid=0&jsonv=1&.d&mid=35865185884368107392471047042386950918&aid=2D6677DC05312208-60000118C001361C&aamlh=6&ce=UTF-8&ns=cbsinteractive&pageName=tvcom%3A%2Fshows%2Fghost-hunter%2Freviews%2F&g=http%3A%2F%2Fwww.tv.com%2Fshows%2Fghost-hunter%2Freviews%2F&r=http%3A%2F%2Fwww.tv.com%2Fshows%2Fghost-hunter%2Fepisodes%2F&cc=USD&ch=shows&server=www.tv.com&events=prodView&products=%3Btv-show-23617%7CGhost%20Hunter%3B%3B%3B%3B&aamb=6G1ynYcLPuiQxYZrsz_pkqfLG9yMXBpb2zX5dvJdYQJzPXImdj0y&h1=shows%7Cghost-hunter%7Creviews&c2=D%3Dv2&v2=uk&c3=D%3Dv3&v3=desktop%20web%7C%7C%7Cdesktop&c4=D%3Dv4&v4=internal%3Anavigation%3Ashow_cast&c5=D%3Dv5&v5=cbsitvcomsite&c6=D%3Dv6&v6=shows%7Cghost-hunter%7Creviews&c7=D%3Dv7&v7=http%3A%2F%2Fwww.tv.com%2Fshows%2Fghost-hunter%2Freviews%2F&c8=D%3Dv8&v8=Ghost%20Hunter%20Fan%20Reviews%20%26%20Ratings%20-%20TV.com&c9=D%3DUser-Agent&c10=D%3Dv10&v10=show_reviews&c11=D%3Dv11&v11=D%3Dch%2B%22%3A%22%2Bv10&v15=not%20authenticated%7Canon&c24=D%3Dv24&v24=b0b85280-4265-11e8-bbb7-0b1a6817c966&c35=D%3Dv35&v35=bUi3ZFrM77S97dTF4xk&v49=%5Bobject%20Object%5D&c50=1%3A30PM&v50=1%3A30PM&c51=Tuesday&v51=Tuesday&c52=2&v52=2&c53=Repeat&v53=Repeat&c54=More%20than%207%20days&v54=More%20than%207%20days&v85=false&s=1600x1103&c=24&j=1.6&v=N&k=Y&bw=1195&bh=676&mcorgid=10D31225525FF5790A490D4D%40AdobeOrg&AQE=1'
p595
aS'adscores/g.pixel?sid=9211946648&tdid=721bdb67-edee-4fa1-b776-7556120bf0bd'
p596
aS'orbserv/hbpix?pixId=9867&pcv=79'
p597
aS'b?c1=2&c2=3005086&c4=&c4=http%3A%2F%2Fwww.tv.com%2Fshows%2Fghost-hunter%2Freviews%2F&ns__t=1523986537250&ns_c=UTF-8&c8=Ghost%20Hunter%20Fan%20Reviews%20%26%20Ratings%20-%20TV.com&c7=http%3A%2F%2Fwww.tv.com%2Fshows%2Fghost-hunter%2Freviews%2F&c9=http%3A%2F%2Fwww.tv.com%2Fshows%2Fghost-hunter%2Fepisodes%2F'
p598
aS'pages/scripts/0030/5189.js'
p599
aS'c2/3005086/cs.js'
p600
aS'tracking.gif?rid=c7e722b0-eb4c-0a46-1897-0363a4d9f38a-1523986503178&sid=dd82c428-98d9-6c4e-6c83-fba3b7aae013-1523986503178&uid=edd9d6cb-5cab-155f-4689-d90cfb1743c1-1523986503178&vr=v2.16.190&ru=http%3A%2F%2Fwww.tv.com%2Fshows%2Fghost-hunter%2Fepisodes%2F&tt=1523986538280&siw=960&sh=1079&sw=1535&wh=676&ww=1195&an=i-02b9539b3e8ce1ea5&vn=eu-west-1&sd=uk&_c=a8lalozf1523986538282&et=&aid=186541&said=308085&ei=146753&fc=hv&sp=24&at=adserver&cid=&ist=0&mg=&dl=&dlt=&ev=&vt=&zid=12593&dr=31144&di=&pr=&cw=970&ch=728&nt=unspecified&st=&jp=%7B%22ph%22%3A3443%7D&ty=adr'
p601
aS'prod/1/digitrust.min.js'
p602
aS'undergraduate-study-2019'
p603
aS'postgraduate-study-2018'
p604
aS'partner?source=dados'
p605
aS'undergraduate-study-2018'
p606
aS'pagead/show_ads.js'
p607
aS'ados/v1/146753.js'
p608
aS'ibs:dpid=22052&dpuuid=5978151417596522072'
p609
aS'map/c=9828/tp=ADBE/tpid=35720112831562584432458233947489517182?http%3A%2F%2Fdpm.demdex.net%2Fibs%3Adpid%3D121998%26dpuuid%3D%24%7Bprofile_id%7D'
p610
aS'beacon/d/3b79e32b-140d-4baf-aa14-8deafcdcec49?oo=0&accountId=9818&siteId=59600&zoneId=283810&e=6A1E40E384DA563B65FD8C64EEB06553186C3120635199E28354AF95AAD2D34806BE71E4CAEADEBD607AC0A6ED79A0B7FE5D718BBE08EF1CE121DFE3A1AF684C8525FDCB5A4A64B48A03F5134AD232B2172CD28438FCBB6A0A85F1B2498A61AE3816F028DE28916A48973F94F66AFA1EED24C939519A30D2E1501A5C29ACF5C995BCEA9A1A431B34'
p611
aS'clear/c.gif?rsid=cbsitvcomsite&pagetype=show_reviews&viewguid=b0b85280-4265-11e8-bbb7-0b1a6817c966&devicetype=desktop&sitetype=desktop%20web&ts=1523986541066&sid=45&ld=www.tv.com&ldc=ec96c6bd-a93e-4493-858c-981961d72f1b&brwinsz=1195x676&brscrsz=1600x1103&brlang=en-GB&tcset=utf8&im=dsjs&clgf=bUi3ZFrM77S97dTF4xk&xref=http%3A%2F%2Fwww.tv.com%2Fshows%2Fghost-hunter%2Fepisodes%2F&srcurl=http%3A%2F%2Fwww.tv.com%2Fshows%2Fghost-hunter%2Freviews%2F&title=Ghost%20Hunter%20Fan%20Reviews%20%26%20Ratings%20-%20TV.com'
p612
aS'ifnotify?c=212DB3&r=15ABD041&t=5AD6305B&u=V3N6dnRMbFFKWklBQUZ5U0kzZ0FBQUVF&m=e04d76623382374b9b86e62fce355d72&wp=C3&aid=C42546C157FCE865&tid=FA46&s=2CA1E&cp=1.95&n=www.tv.com&pr=xx&sid=3bae-570f&epr=7475573'
p613
aS'um/cs'
p614
aS'adscores/g.pixel?sid=9211946648&tdid=721bdb67-edee-4fa1-b776-7556120bf0bd&&bounced=1'
p615
aS'rum?cm_dsp_id=77&external_user_id=9442ff790f626d1ba4ce730b64ddcfd5'
p616
aS'web/auction?inv_code=tv_episode_DT_3rd_instream&referrer=http%3A%2F%2Fwww.tv.com%2Fshows%2Fghost-hunter%2Ftrapped-in-time-384904%2F&imp_id=1523986541_407234265_16313&rev=1ba208e&fe=0&ft=1'
p617
aS'crum?cm_dsp_id=149&external_user_id=jrltNWeRjA-_Do7YWl_13CJdxsnH-cSXRD_UBZFuUao%3D'
p618
aS'ifnotify?c=212DB6&r=15ABD043&t=5AD6305B&u=V3N6dnRMbFFKWklBQUZ5U0kzZ0FBQUVF&m=50d76867d0718fef8d39429dd91825b6&wp=DE&aid=C42546C157FF2C18&tid=FA46&s=2CC12&cp=2.22&n=www.tv.com&pr=xx&sid=3bae-5710&epr=7475573'
p619
aS'taboola/image/fetch/f_jpg%2Cq_auto%2Ch_180%2Cw_360%2Cc_fill%2Cg_faces:auto%2Ce_sharpen/http%3A//cdn.taboola.com/libtrc/static/thumbnails/67ad30ffe3d4fd22a6d7fc0f074de2f3.jpg'
p620
aS'iframe/8613/?che=647921572&c=%7B%22bpid%22%3A%22cbsinteractive%22%2C%22loc%22%3A%22http%3A%2F%2Fwww.tv.com%2Fshows%2Fghost-hunter%2Freviews%2F%22%2C%22ref%22%3A%22http%3A%2F%2Fwww.tv.com%2Fshows%2Fghost-hunter%2Fepisodes%2F%22%2C%22cid%22%3A%22-1%22%2C%22sid%22%3A%22-1%22%2C%22gen%22%3A%22-1%22%2C%22age%22%3A%22-1%22%2C%22cat%22%3A%22-1%22%2C%22brd%22%3A%22-1%22%7D'
p621
aS'integration/ados/v1/ados/beta.js'
p622
aS'taboola/image/fetch/f_jpg%2Cq_auto%2Ch_180%2Cw_360%2Cc_fill%2Cg_faces:auto%2Ce_sharpen/http%3A//cdn.taboola.com/libtrc/static/thumbnails/3f97c7e5e4e8d5f28cf2b9faba3e017d.jpg'
p623
aS'pagead/gen_204?id=sodar&v=24&t=2&bgai=BMO0gUTDWWp2tNuaGzAap54TQDgAAAAA4AeAEAg&bg=!mZqlmoJEAdRunXlN5v4CAAACNlIAAADSmQEq6FhLR8L9EyFQhUI_BK4sfOdVUfKumV1MN-5d-lIwhC0onnWtcAepiul3y3X2TGdkbfkZl4mUvA8rwmCp1CXQsm6UQR3Axsoh59aReuEfbr2erVSosR8qEjfMD9IoNOJGnuqFe-CJql_VzCh4Evxu_lFFUqOfEFJrBBcOA3i-mdc3T_lnnlSLdwHfOAirQitwRB-566M3FNrdN-v9OE701jbfLnDBObE3DgKEuTCBm6hhg1PqjFhrUa_lNYzwU6pbeXqsd4NtJV9Esoj1erQOL7LJS0wterJyG0MlFCg9CGOVlm3X4AI303dOIkclwS3BYkc0BcXlC2M0vhSUGSeBf1dOdxiEkhDV7QDWrYzAnsewZ-Eas9XhLZJyGi6K2OLBRcId5FKZwSD0dQ'
p624
aS'upi/pid/h0r58thg?redir=https%3A%2F%2Fsync.search.spotxchange.com%2Fpartner%3Fadv_id%3D6409%26uid%3D%24%7BUSER_ID%7D%26img%3D1'
p625
aS'um/cs'
p626
aS'beacon/d/2e3f9936-5d9c-47c6-8405-5ce1ed8da854?oo=0&accountId=9818&siteId=59600&zoneId=283810&e=6A1E40E384DA563B1C09AD3C36141551BE7365D0EC506A4313A9A7916DBDD1641623B36D085F7411632E0E3F792EB8E9FE5D718BBE08EF1C63E1826707A7CF0FFAD4D79ADB8905D18A03F5134AD232B2172CD28438FCBB6A0A85F1B2498A61AE05D07757A9F20D3D48973F94F66AFA1EED24C939519A30D2E1501A5C29ACF5C995BCEA9A1A431B34'
p627
aS'beacon/d/f96677fb-6c6d-4389-a5cd-163c554c8182?oo=0&accountId=9818&siteId=59600&zoneId=283810&e=6A1E40E384DA563BC4F66F0113C85D6FF6DCCEC221213BBFE7F387F4701A046E07F7D7D6FA23ABEED93879FC1B914A984B7AB08DC4BDF40EA7E03DC328DEE7907BEC50ED5A1D5D554E3A791D6B3460AF68670CCDB54A6D2E912FCFD7F27C72A0C8C8E00B46E1EA4BCE714606138B47F628546B143C8605179B5DE5C4E039B1223B22BBF4B8D91D8E'
p628
aS'um/cs'
p629
aS'noop?ct=text%2Fhtml'
p630
aS'cfcm.ashx?providerId=1013&extMatch=1&rcode=2&ctst=1'
p631
aS'ISAPAdServer/AdS.aspx?callback=ism_jsonp_60249438865324620&method=GetCampaignInformationFromUserData&vstrCampaignData=srv_ResWidth%3D1600%26srv_ResHeight%3D1103%26srv_SectionID%3D124288%26srv_AdvertIDs%3DNETWORK%26srv_Keywords%3Dvs-400%2Csensitive_aegis'
p632
aS'pagead/gen_204?id=sodar&v=24&t=2&bgai=BL3hfUzDWWof3G6WkzAaw67nQAwAAAAA4AeAEAg&bg=!sbKlsqpEEbmqRUdGe2kCAAADNFIAAACamQEqwMuiyCCk362go8AlPj4jVqSb_IF7mczwbRyT7j-ez1IzE_RSMnMRSThh-03Vcurw-R03wUGWSNPQ3l-_vuxE8KmXAcFG73pbyiSPVR9cTnR93P2u8uu14Rw03f4k31h1svpipcQ7BioH5zdZB6lHWHWsUWYE3XJIH9c4fBXrR3eGN9_8_lVJgf_kSbVbkeae7Bn2jHq0FPnw0lzP8pJmoyQ39p1IpKtjtXpxOpfeqiUvULV0qGoS0c6qqyE7pmaDxTNzFpbzUXd6qZel-6v8QsdkG2WYG8rcSz-LRxvJkzajJqo6DnKfeVV1iYfUfrbNmm6n-XJivCBBLE_j0JMhuW36cIhxmIV1kbBwrv8FUkOX6MQ42sW-UpUXzdHuKhwXTtXw_tvFQYr8dw'
p633
aS'ibs:dpid=121998&dpuuid=a18bea8953ec5351dd2778c0af41a8c9'
p634
aS'taboola/image/fetch/f_jpg%2Cq_auto%2Ch_180%2Cw_360%2Cc_fill%2Cg_faces:auto%2Ce_sharpen/http%3A//cdn.taboola.com/libtrc/static/thumbnails/GETTY_IMAGES/SKP/495989942__j57WpS07.jpg'
p635
aS'user/sync/ssps/ix?cm_dsp_id=149&cm_callback_url=http%3A%2F%2Fdsum.casalemedia.com%2Fcrum&cm_user_id=WszvtLlQJZIAAFySI3gAAAEE'
p636
aS'sync/casale'
p637
aS'bridge?AG_PID=casale_us&AG_SETCOOKIE'
p638
aS'Adserver/cmds?cm_dsp_id=10&cm_callback_url=http%3A%2F%2Fdsum.casalemedia.com%2Fcrum&cm_user_id=WszvtLlQJZIAAFySI3gAAAEE'
p639
aS'adscores/g.pixel?sid=9212293438'
p640
aS'cfcm.ashx?providerId=1013&extMatch=1&rcode=2'
p641
aS'cm'
p642
aS'ecs?cm_dsp_id=31&cm_callback_url=http%3A%2F%2Fdsum.casalemedia.com%2Fcrum&cm_user_id=WszvtLlQJZIAAFySI3gAAAEE'
p643
aS'adscores/g.pixel?sid=9212293468'
p644
aS'vast/2.00/146753?VPAID=js&player_width=970&player_height=728&content_page_url=http%3A%2F%2Fwww.tv.com%2Fshows%2Fghost-hunter%2Fepisodes%2F&ad_mute=1&ad_unit=instream&sdk_name=Direct_AdOS_SDK&sdk_version=1.15.0&sdk_dist=-beta&vast_and_cached_response=false&hide_skin=1&custom%5Bch%5D=en&custom%5Bf%5D=15.5&custom%5Badid%5D=186541&custom%5Bzid%5D=12593'
p645
aS'r?rr=blocked_ip&domain=www.tv.com&ref=http%3A%2F%2Fwww.tv.com%2Fshows%2Fghost-hunter%2Ftrapped-in-time-384904%2F&pr=www.tv.com&impid=1523986541_407234265_16313&aid=4639298410864288849&cb=71576'
p646
aS'topics/undergraduate-study-2019/'
p647
aS'pagead/gen_204?id=sodar&v=24&t=2&bgai=BpYuvUTDWWp_0IeyHzAb_3LXQBQAAAAA4AeAEAg&bg=!3t2l3cVElny_edxeR3sCAAAEOlIAAAGAmQEq5SKzuQBk4umq3RtBldBTQPLdnGogepfgsz4lLVxHF4v-QNVPMMdna1fp97Tg2Jarf79zA-uTB10flvFY8-_Szs3C4ag6etvqDMIIabAmRN_zJbLDupbHt8w0OJLxHGZxXo3N79eaY1VdWkwJc7aGzny-o9KFgXHKG8klzflH7oQcoHjqJyaRzL5nRfawHgtk8Djc2UgPyyUCKxEUI4Y53uWDK71jbdkttohKmFHykN2Y2CIai8ITlX5KbM_68MHXOfTmy-7F5RUTn_IlBbFSYt22M6gP99FYNDIEODh2J7AqEDK3PlAaQskx7mNuyVKDAf2Z5PfzCDaYclNigRcEO7OJTBdYrBIk2BgYK3WKlo5fOY_Sw_InPkLRMcF9r8HnyQyasJkKF-NQRA'
p648
aS'cfcm.ashx?providerId=1013&extMatch=1&rcode=1'
p649
aS'taboola/image/fetch/f_jpg%2Cq_auto%2Ch_180%2Cw_360%2Cc_fill%2Cg_faces:auto%2Ce_sharpen/http%3A//cdn.taboola.com/libtrc/static/thumbnails/7352b83bb011d367aa0fa8ffa4c4b7fc.jpg'
p650
aS'pixel/2610/?sk=256420402656004681420&pd=&puid=721bdb67-edee-4fa1-b776-7556120bf0bd&ex=&exc=&age=&gender=&st=&dm=&wmt=&as2=&dnb=&l1='
p651
aS'pagead/gen_204?id=sodar&v=24&t=2&bgai=BIpxBUzDWWtelDIrPxgLzroLoDAAAAAA4AeAEAg&bg=!SUqlSlJEFaB7skQ1x4YCAAACTFIAAAEImQEqIjvrTjt08uA5wioxuF009HJLCH0WbIwAd2wSALf9HOXotzfJNF-5Uy3iVNygTYPd37Irx7Ip8rFNTHP0i0fkqkQyZ0lU0bqzsj4eB4vWZ9smyXxg_PPy8hG3q8VQKzcPeacX2eFsNd2ebAFWJZaKbFGiDRXz-zDraHkuQHJVdfu9Pjn8hWBXCp9u7ybuJ8ZCJFu0xW9vO4JfhmLcIClGAz-rTmC6NDsEVZltH4r3bC-sI0HTEyyjFoCovrHyt7RjoQUqclW-okwRQv-BBAw50YqpY260H49xTA8IsDAmo4XixuNciDslBddJPaYtbdkwoI12a8bWz25-AeRJvQrW5DoaiTVdvhiNlPrmIuihzQXFvefImzeMnK6vJdZugurDhpdjjQbkrvmCBA'
p652
aS'tracking.gif?rid=2d95fc4d-201d-6952-8f85-39a311dec4d7-1523986511617&sid=dd82c428-98d9-6c4e-6c83-fba3b7aae013-1523986503178&uid=edd9d6cb-5cab-155f-4689-d90cfb1743c1-1523986503178&vr=v2.16.190&ru=http%3A%2F%2Fwww.tv.com%2Fshows%2Fghost-hunter%2Fcast%2F&tt=1523986549306&siw=960&sh=1079&sw=1535&wh=676&ww=1195&an=i-02b9539b3e8ce1ea5&vn=eu-west-1&sd=uk&_c=adtpcpl1523986549308&et=&aid=186541&said=308085&ei=146753&fc=hv&sp=24&at=adserver&cid=&ist=0&mg=&dl=&dlt=&ev=&vt=&zid=12593&dr=35284&di=&pr=&cw=970&ch=728&nt=unspecified&st=&jp=%7B%22ph%22%3A3686%7D&ty=adr'
p653
aS'crum?cm_dsp_id=149&external_user_id=yhKc6a9WnmHrNcC7pig1fy3HCnNSA2NMkj5aRu57V_c%3D'
p654
aS'cgi-bin/m?rnd=1523986548620&ci=us-304254h&js=1&cg=0&ts=v60.js&vn=6.0.58&cc=1&cd=24&ck=y&je=n&lg=en-GB&si=http%3A%2F%2Fwww.tv.com%2Fshows%2Fghost-hunter%2Freviews%2F&rp=http%3A%2F%2Fwww.tv.com%2Fshows%2Fghost-hunter%2Fepisodes%2F&sr=1600x1103&id=lstrg-2d990c19235a5ef669bbeb71dfde2bb3&tz=1'
p655
aS'prod/1/digitrust.min.js'
p656
aS'taboola/image/fetch/f_jpg%2Cq_auto%2Ch_217%2Cw_260%2Cc_fill%2Cg_faces:auto%2Ce_sharpen/http%3A//cdn.taboola.com/libtrc/static/thumbnails/9caaf934e2f08886ae8ca8a207a3a280.png'
p657
aS'partner?source=dados'
p658
aS'ados/v1/146753.js'
p659
aS'tracking.gif?rid=c7e722b0-eb4c-0a46-1897-0363a4d9f38a-1523986503178&sid=dd82c428-98d9-6c4e-6c83-fba3b7aae013-1523986503178&uid=edd9d6cb-5cab-155f-4689-d90cfb1743c1-1523986503178&vr=v2.16.190&ru=http%3A%2F%2Fwww.tv.com%2Fshows%2Fghost-hunter%2Fepisodes%2F&tt=1523986550576&siw=960&sh=1079&sw=1535&wh=676&ww=1195&an=i-02b9539b3e8ce1ea5&vn=eu-west-1&sd=uk&_c=a9rfv41523986550576&et=&aid=186541&said=308085&ei=146753&fc=hv&sp=24&at=adserver&cid=&ist=0&mg=209&dl=&dlt=&ev=&vt=&zid=12593&dr=43442&di=&pr=&cw=970&ch=728&nt=unspecified&st=%5B5%5D%2Fu%3C%2Fe.prototype.error%40http%3A%2F%2Fcdn-cf.justpremium.com%2Fjs%2Fv2.16.190%2Fjpx.js%3A1%3A100350%0Athis.Jpx.PluginAdserver%3C%5B581%5D%2Fd%3C%2Ft.prototype._setupExecution%2Ff%3C%2F%3C%40http%3A%2F%2Fcdn-cf.justpremium.com%2Fjs%2Fv2.16.190%2Fjpx.js%3A1%3A223157%0Ak.H%40http%3A%2F%2Fjs.spotx.tv%2Fdirectsdk%2Fv1%2F146753.js%3A32%3A306%0A%5B3%5D%3C%2Fh%3C%2Fa.prototype.H%40http%3A%2F%2Fjs.spotx.tv%2Fdirectsdk%2Fv1%2F146753.js%3A98%3A260%0A%5B3%5D%3C%2Fh%3C%2Fa.prototype.Md%40http%3A%2F%2Fjs.spotx.tv%2Fdirectsdk%2Fv1%2F146753.js%3A98%3A96%0Ah.h%40http%3A%2F%2Fjs.spotx.tv%2Fados%2Fv1%2F146753.js%3A341%3A312%0A%5B9%5D%3C%2Fk%3C%2Fb.prototype.h%40http%3A%2F%2Fjs.spotx.tv%2Fados%2Fv1%2F146753.js%3A435%3A209%0A%5B2%5D%3C%2Fa%3C%2Fa.prototype.Kd%40http%3A%2F%2Fjs.spotx.tv%2Fados%2Fv1%2F146753.js%3A394%3A378%0AUb%40http%3A%2F%2Fjs.spotx.tv%2Fados%2Fv1%2F146753.js%3A33%3A241%0ATb%40http%3A%2F%2Fjs.spotx.tv%2Fados%2Fv1%2F146753.js%3A30%3A482%0Ah.n%40http%3A%2F%2Fjs.spotx.tv%2Fados%2Fv1%2F146753.js%3A31%3A82%0Acc.prototype.Bk%40http%3A%2F%2Fjs.spotx.tv%2Fados%2Fv1%2F146753.js%3A34%3A791%0AUb%40http%3A%2F%2Fjs.spotx.tv%2Fados%2Fv1%2F146753.js%3A33%3A241%0ATb%40http%3A%2F%2Fjs.spotx.tv%2Fados%2Fv1%2F146753.js%3A30%3A482%0Ah.n%40http%3A%2F%2Fjs.spotx.tv%2Fados%2Fv1%2F146753.js%3A31%3A82%0A%5B2%5D%3C%2Fa%3C%2Fa.prototype.V%2F%3C%40http%3A%2F%2Fjs.spotx.tv%2Fados%2Fv1%2F146753.js%3A396%3A341%0AC%3C%40http%3A%2F%2Fjs.spotx.tv%2Fados%2Fv1%2F146753.js%3A7%3A603%0A%5B2%5D%3C%2Fa%3C%2Fa.prototype.V%40http%3A%2F%2Fjs.spotx.tv%2Fados%2Fv1%2F146753.js%3A396%3A325%0A%5B2%5D%3C%2Fa%3C%2Fa.prototype.V%2F%3C%40http%3A%2F%2Fjs.spotx.tv%2Fados%2Fv1%2F146753.js%3A396%3A307%0AUb%40http%3A%2F%2Fjs.spotx.tv%2Fados%2Fv1%2F146753.js%3A33%3A241%0ATb%40http%3A%2F%2Fjs.spotx.tv%2Fados%2Fv1%2F146753.js%3A30%3A482%0Ah.N%40http%3A%2F%2Fjs.spotx.tv%2Fados%2Fv1%2F146753.js%3A31%3A122%0Acc.prototype.N%40http%3A%2F%2Fjs.spotx.tv%2Fados%2Fv1%2F146753.js%3A34%3A867%0Acc.prototype.Bk%40http%3A%2F%2Fjs.spotx.tv%2Fados%2Fv1%2F146753.js%3A34%3A756%0AUb%40http%3A%2F%2Fjs.spotx.tv%2Fados%2Fv1%2F146753.js%3A33%3A241%0ATb%40http%3A%2F%2Fjs.spotx.tv%2Fados%2Fv1%2F146753.js%3A30%3A482%0Ah.ek%40http%3A%2F%2Fjs.spotx.tv%2Fados%2Fv1%2F146753.js%3A30%3A426%0AUb%40http%3A%2F%2Fjs.spotx.tv%2Fados%2Fv1%2F146753.js%3A33%3A241%0ATb%40http%3A%2F%2Fjs.spotx.tv%2Fados%2Fv1%2F146753.js%3A30%3A482%0Ah.N%40http%3A%2F%2Fjs.spotx.tv%2Fados%2Fv1%2F146753.js%3A31%3A122%0Aa%40http%3A%2F%2Fjs.spotx.tv%2Fados%2Fv1%2F146753.js%3A438%3A204%0AUb%40http%3A%2F%2Fjs.spotx.tv%2Fados%2Fv1%2F146753.js%3A33%3A241%0ATb%40http%3A%2F%2Fjs.spotx.tv%2Fados%2Fv1%2F146753.js%3A30%3A482%0Ah.N%40http%3A%2F%2Fjs.spotx.tv%2Fados%2Fv1%2F146753.js%3A31%3A122%0A%5B8%5D%3C%2Fa%3C%2Fb.prototype.mi%2F%3C%40http%3A%2F%2Fjs.spotx.tv%2Fados%2Fv1%2F146753.js%3A421%3A226%0AUb%40http%3A%2F%2Fjs.spotx.tv%2Fados%2Fv1%2F146753.js%3A33%3A241%0ATb%40http%3A%2F%2Fjs.spotx.tv%2Fados%2Fv1%2F146753.js%3A30%3A482%0Ah.N%40http%3A%2F%2Fjs.spotx.tv%2Fados%2Fv1%2F146753.js%3A31%3A122%0A%5B8%5D%3C%2Fa%3C%2Fb.prototype.ml%2F%3C%2F%3C%40http%3A%2F%2Fjs.spotx.tv%2Fados%2Fv1%2F146753.js%3A423%3A135%0AUb%40http%3A%2F%2Fjs.spotx.tv%2Fados%2Fv1%2F146753.js%3A33%3A241%0ATb%40http%3A%2F%2Fjs.spotx.tv%2Fados%2Fv1%2F146753.js%3A30%3A482%0Ah.N%40http%3A%2F%2Fjs.spotx.tv%2Fados%2Fv1%2F146753.js%3A31%3A122%0A%5B12%5D%3C%2Fa%3C%2Fb.prototype.Xl%2F%3C%40http%3A%2F%2Fjs.spotx.tv%2Fados%2Fv1%2F146753.js%3A471%3A166%0ASf%40http%3A%2F%2Fjs.spotx.tv%2Fados%2Fv1%2F146753.js%3A250%3A452%0Ah.dispatchEvent%40http%3A%2F%2Fjs.spotx.tv%2Fados%2Fv1%2F146753.js%3A249%3A360%0Ajg%40http%3A%2F%2Fjs.spotx.tv%2Fados%2Fv1%2F146753.js%3A258%3A1%0Ah.Xn%40http%3A%2F%2Fjs.spotx.tv%2Fados%2Fv1%2F146753.js%3A256%3A362%0Ah.cl%40http%3A%2F%2Fjs.spotx.tv%2Fados%2Fv1%2F146753.js%3A256%3A334%0A&jp=%7B%22ph%22%3A3443%7D&ty=er'
p660
aS'taboola/image/fetch/f_jpg%2Cq_auto%2Ch_217%2Cw_260%2Cc_fill%2Cg_faces:auto%2Ce_sharpen/https%3A//api-int.x-plarium.com/uploads/SF_EN_600x500_Luns_2016_1216_Freestyle%26IMG%3DCR7.jpeg'
p661
aS'taboola/image/fetch/f_jpg%2Cq_auto%2Ch_234%2Cw_280%2Cc_fill%2Cg_faces:auto%2Ce_sharpen/https%3A//console.brax-cdn.com/creatives/ba8a210e-6f13-4ff8-b459-cc60cd7ae469/i__do-0039-banksmirkfk__i_bd0c4a18f58ec664dce5c33e6d4dd70f.600x500.png'
p662
aS'ISAPAdServer/AdS.aspx?callback=ism_jsonp_37743725184860390&method=GetCampaignInformationFromUserData&vstrCampaignData=srv_ResWidth%3D1600%26srv_ResHeight%3D1103%26srv_SectionID%3D124288%26srv_AdvertIDs%3DNETWORK%26srv_Keywords%3Dvs-400%2Csensitive_aegis'
p663
aS'taboola/image/fetch/f_jpg%2Cq_auto%2Ch_234%2Cw_280%2Cc_fill%2Cg_faces:auto%2Ce_sharpen/http%3A//cdn.taboola.com/libtrc/static/thumbnails/f67aa4892c047e918037da565beec940.jpg'
p664
aS'spacer.gif'
p665
aS'lens/universal/images/awards/times-sports-uni-2018.svg'
p666
aS'crum?cm_dsp_id=10&external_user_id=328428507877'
p667
aS'spacer.gif'
p668
aS'pagead/show_ads.js'
p669
aS'a/n/2098/44559.js'
p670
aS'integration/ados/v1/ados/beta.js'
p671
aS'taboola/image/fetch/f_jpg%2Cq_auto%2Ch_234%2Cw_280%2Cc_fill%2Cg_faces:auto%2Ce_sharpen/https%3A//api-int.x-plarium.com/uploads/SF_EN_600x500_Kate_2016_1011_character_01_bolo%26IMG%3D2IY.jpeg'
p672
aS'noop?ct=text%2Fhtml'
p673
aS'cfcm.ashx?providerId=1013&extMatch=1&rcode=2&ctst=1'
p674
aS'cfcm.ashx?providerId=1013&extMatch=1&rcode=1&ctst=1'
p675
aS'assets/embed-4dbfd7a8634cab9ca4b7172c30c2fef965e94e7de09a5576f759bb7f41a7dd7b.css'
p676
aS'taboola/image/fetch/f_jpg%2Cq_auto%2Ch_217%2Cw_260%2Cc_fill%2Cg_faces:auto%2Ce_sharpen/https%3A//console.brax-cdn.com/creatives/ba8a210e-6f13-4ff8-b459-cc60cd7ae469/i__do-0039-banksmirkfk__i_bd0c4a18f58ec664dce5c33e6d4dd70f.600x500.png'
p677
aS'vast/2.00/146753?VPAID=js&player_width=970&player_height=728&content_page_url=http%3A%2F%2Fwww.tv.com%2Fshows%2Fghost-hunter%2Fcast%2F&ad_mute=1&ad_unit=instream&sdk_name=Direct_AdOS_SDK&sdk_version=1.15.0&sdk_dist=-beta&vast_and_cached_response=false&hide_skin=1&custom%5Bch%5D=en&custom%5Bf%5D=15.5&custom%5Badid%5D=186541&custom%5Bzid%5D=12593'
p678
aS'tracking.gif?rid=2d95fc4d-201d-6952-8f85-39a311dec4d7-1523986511617&sid=dd82c428-98d9-6c4e-6c83-fba3b7aae013-1523986503178&uid=edd9d6cb-5cab-155f-4689-d90cfb1743c1-1523986503178&vr=v2.16.190&ru=http%3A%2F%2Fwww.tv.com%2Fshows%2Fghost-hunter%2Fcast%2F&tt=1523986560244&siw=960&sh=1079&sw=1535&wh=676&ww=1195&an=i-02b9539b3e8ce1ea5&vn=eu-west-1&sd=uk&_c=ags458e1523986560244&et=&aid=186541&said=308085&ei=146753&fc=hv&sp=24&at=adserver&cid=&ist=0&mg=209&dl=&dlt=&ev=&vt=&zid=12593&dr=46220&di=&pr=&cw=970&ch=728&nt=unspecified&st=%5B5%5D%2Fu%3C%2Fe.prototype.error%40http%3A%2F%2Fcdn-cf.justpremium.com%2Fjs%2Fv2.16.190%2Fjpx.js%3A1%3A100350%0Athis.Jpx.PluginAdserver%3C%5B581%5D%2Fd%3C%2Ft.prototype._setupExecution%2Ff%3C%2F%3C%40http%3A%2F%2Fcdn-cf.justpremium.com%2Fjs%2Fv2.16.190%2Fjpx.js%3A1%3A223157%0Ak.H%40http%3A%2F%2Fjs.spotx.tv%2Fdirectsdk%2Fv1%2F146753.js%3A32%3A306%0A%5B3%5D%3C%2Fh%3C%2Fa.prototype.H%40http%3A%2F%2Fjs.spotx.tv%2Fdirectsdk%2Fv1%2F146753.js%3A98%3A260%0A%5B3%5D%3C%2Fh%3C%2Fa.prototype.Md%40http%3A%2F%2Fjs.spotx.tv%2Fdirectsdk%2Fv1%2F146753.js%3A98%3A96%0Ah.h%40http%3A%2F%2Fjs.spotx.tv%2Fados%2Fv1%2F146753.js%3A341%3A312%0A%5B9%5D%3C%2Fk%3C%2Fb.prototype.h%40http%3A%2F%2Fjs.spotx.tv%2Fados%2Fv1%2F146753.js%3A435%3A209%0A%5B2%5D%3C%2Fa%3C%2Fa.prototype.Kd%40http%3A%2F%2Fjs.spotx.tv%2Fados%2Fv1%2F146753.js%3A394%3A378%0AUb%40http%3A%2F%2Fjs.spotx.tv%2Fados%2Fv1%2F146753.js%3A33%3A241%0ATb%40http%3A%2F%2Fjs.spotx.tv%2Fados%2Fv1%2F146753.js%3A30%3A482%0Ah.n%40http%3A%2F%2Fjs.spotx.tv%2Fados%2Fv1%2F146753.js%3A31%3A82%0Acc.prototype.Bk%40http%3A%2F%2Fjs.spotx.tv%2Fados%2Fv1%2F146753.js%3A34%3A791%0AUb%40http%3A%2F%2Fjs.spotx.tv%2Fados%2Fv1%2F146753.js%3A33%3A241%0ATb%40http%3A%2F%2Fjs.spotx.tv%2Fados%2Fv1%2F146753.js%3A30%3A482%0Ah.n%40http%3A%2F%2Fjs.spotx.tv%2Fados%2Fv1%2F146753.js%3A31%3A82%0A%5B2%5D%3C%2Fa%3C%2Fa.prototype.V%2F%3C%40http%3A%2F%2Fjs.spotx.tv%2Fados%2Fv1%2F146753.js%3A396%3A341%0AC%3C%40http%3A%2F%2Fjs.spotx.tv%2Fados%2Fv1%2F146753.js%3A7%3A603%0A%5B2%5D%3C%2Fa%3C%2Fa.prototype.V%40http%3A%2F%2Fjs.spotx.tv%2Fados%2Fv1%2F146753.js%3A396%3A325%0A%5B2%5D%3C%2Fa%3C%2Fa.prototype.V%2F%3C%40http%3A%2F%2Fjs.spotx.tv%2Fados%2Fv1%2F146753.js%3A396%3A307%0AUb%40http%3A%2F%2Fjs.spotx.tv%2Fados%2Fv1%2F146753.js%3A33%3A241%0ATb%40http%3A%2F%2Fjs.spotx.tv%2Fados%2Fv1%2F146753.js%3A30%3A482%0Ah.N%40http%3A%2F%2Fjs.spotx.tv%2Fados%2Fv1%2F146753.js%3A31%3A122%0Acc.prototype.N%40http%3A%2F%2Fjs.spotx.tv%2Fados%2Fv1%2F146753.js%3A34%3A867%0Acc.prototype.Bk%40http%3A%2F%2Fjs.spotx.tv%2Fados%2Fv1%2F146753.js%3A34%3A756%0AUb%40http%3A%2F%2Fjs.spotx.tv%2Fados%2Fv1%2F146753.js%3A33%3A241%0ATb%40http%3A%2F%2Fjs.spotx.tv%2Fados%2Fv1%2F146753.js%3A30%3A482%0Ah.ek%40http%3A%2F%2Fjs.spotx.tv%2Fados%2Fv1%2F146753.js%3A30%3A426%0AUb%40http%3A%2F%2Fjs.spotx.tv%2Fados%2Fv1%2F146753.js%3A33%3A241%0ATb%40http%3A%2F%2Fjs.spotx.tv%2Fados%2Fv1%2F146753.js%3A30%3A482%0Ah.N%40http%3A%2F%2Fjs.spotx.tv%2Fados%2Fv1%2F146753.js%3A31%3A122%0Aa%40http%3A%2F%2Fjs.spotx.tv%2Fados%2Fv1%2F146753.js%3A438%3A204%0AUb%40http%3A%2F%2Fjs.spotx.tv%2Fados%2Fv1%2F146753.js%3A33%3A241%0ATb%40http%3A%2F%2Fjs.spotx.tv%2Fados%2Fv1%2F146753.js%3A30%3A482%0Ah.N%40http%3A%2F%2Fjs.spotx.tv%2Fados%2Fv1%2F146753.js%3A31%3A122%0A%5B8%5D%3C%2Fa%3C%2Fb.prototype.mi%2F%3C%40http%3A%2F%2Fjs.spotx.tv%2Fados%2Fv1%2F146753.js%3A421%3A226%0AUb%40http%3A%2F%2Fjs.spotx.tv%2Fados%2Fv1%2F146753.js%3A33%3A241%0ATb%40http%3A%2F%2Fjs.spotx.tv%2Fados%2Fv1%2F146753.js%3A30%3A482%0Ah.N%40http%3A%2F%2Fjs.spotx.tv%2Fados%2Fv1%2F146753.js%3A31%3A122%0A%5B8%5D%3C%2Fa%3C%2Fb.prototype.ml%2F%3C%2F%3C%40http%3A%2F%2Fjs.spotx.tv%2Fados%2Fv1%2F146753.js%3A423%3A135%0AUb%40http%3A%2F%2Fjs.spotx.tv%2Fados%2Fv1%2F146753.js%3A33%3A241%0ATb%40http%3A%2F%2Fjs.spotx.tv%2Fados%2Fv1%2F146753.js%3A30%3A482%0Ah.N%40http%3A%2F%2Fjs.spotx.tv%2Fados%2Fv1%2F146753.js%3A31%3A122%0A%5B12%5D%3C%2Fa%3C%2Fb.prototype.Xl%2F%3C%40http%3A%2F%2Fjs.spotx.tv%2Fados%2Fv1%2F146753.js%3A471%3A166%0ASf%40http%3A%2F%2Fjs.spotx.tv%2Fados%2Fv1%2F146753.js%3A250%3A452%0Ah.dispatchEvent%40http%3A%2F%2Fjs.spotx.tv%2Fados%2Fv1%2F146753.js%3A249%3A360%0Ajg%40http%3A%2F%2Fjs.spotx.tv%2Fados%2Fv1%2F146753.js%3A258%3A1%0Ah.Xn%40http%3A%2F%2Fjs.spotx.tv%2Fados%2Fv1%2F146753.js%3A256%3A362%0Ah.cl%40http%3A%2F%2Fjs.spotx.tv%2Fados%2Fv1%2F146753.js%3A256%3A334%0A&jp=%7B%22ph%22%3A3686%7D&ty=er'
p679
aS'pageservices/social/oauth/proxy?xdm_e=http%3A%2F%2Fwww.tv.com&xdm_c=urs424&xdm_p=1'
p680
aS'pages/scripts/0002/9525.js?423329'
p681
aS'widgets.js?_=1523986491848'
p682
aS'activityi;src=8369552;type=count0;cat=pghom0;ord=4197042874366;gtm=G46;~oref=http%3A%2F%2Fwww.bath.ac.uk%2Ftopics%2Fpostgraduate-study-and-research%2F?'
p683
aS'dest5.html?d_nsid=0'
p684
aS'a/n/2098/44559.js'
p685
aS'taboola/image/fetch/f_jpg%2Cq_auto%2Ch_217%2Cw_260%2Cc_fill%2Cg_faces:auto%2Ce_sharpen/http%3A//cdn.taboola.com/libtrc/static/thumbnails/62144b119f3e9405f9e9d3b60b9f2af3.jpg'
p686
aS'taboola/image/fetch/f_jpg%2Cq_auto%2Ch_217%2Cw_260%2Cc_fill%2Cg_faces:auto%2Ce_sharpen/http%3A//cdn.taboola.com/libtrc/static/thumbnails/GETTY_IMAGES/SKP/543465444__Ivro7afi.jpg'
p687
aS'taboola/image/fetch/f_jpg%2Cq_auto%2Ch_217%2Cw_260%2Cc_fill%2Cg_faces:auto%2Ce_sharpen/https%3A//summer.suedtirol.info/aufbaumaerkte/Kampagnenbilder/image-thumb__22204__fb-thumb/_05A8209.jpeg'
p688
aS'taboola/image/fetch/f_jpg%2Cq_auto%2Ch_217%2Cw_260%2Cc_fill%2Cg_faces:auto%2Ce_sharpen/http%3A//cdn.taboola.com/libtrc/static/thumbnails/GETTY_IMAGES/SKP/599759854__STFKMbu0.jpg'
p689
aS'pagead/gen_204?id=sodar&v=24&t=2&bgai=Bdk0nZzDWWqDbAq_HxgLdlY24DgAAAAA4AeAEAg&bg=!09Cl0MhE-KbjHZYCeugCAAAFklIAAADcmQEqlJDg8IcYD4bUlwHxC7yWJYHbWGOLTpLKYRbTmB_Ad5cQQtkeeFvuR6yHhB2DL48L1W4s0-kjqA3MrnWvmq5wphpOcd3vQVicO-Yf5SWQyDupsKf-t3wgcKpomoLCQRjrFHr5oQQbd9WADGCgilqUyBJcxZV5HTXjMNW9vPmbkY7iKeBOQ9jNtXe5Kj1YmFu4bX3Hju9wy3gx6bHNtzpWJbVd2mH7NzMXZ4A5OgAv4jUKjtieh8LvdVC6H9ofB5mvU20gOVoiDW6gU59jCD8SQxqRwWyu6x4woRlmM1MKNzWUcjelDZA_iD0gDwztJg89xMCC0WaolDJPo48qxuWq90s_YARzBvANHPn-alhsr3VgrCy-zkXhYY6WU3sa-RbQNlajE9DFb-RXBA'
p690
aS'taboola/image/fetch/f_jpg%2Cq_auto%2Ch_217%2Cw_260%2Cc_fill%2Cg_faces:auto%2Ce_sharpen/http%3A//cdn.taboola.com/libtrc/static/thumbnails/e62c412b84417d7891461a58efc9aa47.jpg'
p691
aS'taboola/image/fetch/f_jpg%2Cq_auto%2Ch_180%2Cw_360%2Cc_fill%2Cg_faces:auto%2Ce_sharpen/http%3A//cdn.taboola.com/libtrc/static/thumbnails/9caaf934e2f08886ae8ca8a207a3a280.png'
p692
aS'taboola/image/fetch/f_jpg%2Cq_auto%2Ch_180%2Cw_360%2Cc_fill%2Cg_faces:auto%2Ce_sharpen/https%3A//console.brax-cdn.com/creatives/ba8a210e-6f13-4ff8-b459-cc60cd7ae469/i__do-0039-banksmirkfk__i_bd0c4a18f58ec664dce5c33e6d4dd70f.600x500.png'
p693
aS'taboola/image/fetch/f_jpg%2Cq_auto%2Ch_180%2Cw_360%2Cc_fill%2Cg_faces:auto%2Ce_sharpen/http%3A//cdn.taboola.com/static/da/da7dc39c-4434-47fe-968d-6b4b9e11f50b.jpg'
p694
aS'taboola/image/fetch/f_jpg%2Cq_auto%2Ch_180%2Cw_360%2Cc_fill%2Cg_faces:auto%2Ce_sharpen/http%3A//cdn.taboola.com/libtrc/static/thumbnails/GETTY_IMAGES/SKP/691792716__SnAGqekK.jpg'
p695
aS'taboola/image/fetch/f_jpg%2Cq_auto%2Ch_217%2Cw_260%2Cc_fill%2Cg_faces:auto%2Ce_sharpen/http%3A//cdn.taboola.com/libtrc/static/thumbnails/GETTY_IMAGES/SKP/691792716__SnAGqekK.jpg'
p696
aS'taboola/image/fetch/f_jpg%2Cq_auto%2Ch_234%2Cw_280%2Cc_fill%2Cg_faces:auto%2Ce_sharpen/http%3A//cdn.taboola.com/static/66/6607510c-d0b6-4824-b890-4543bc9e4b7c.jpg'
p697
aS'pagead/gen_204?id=sodar&v=24&t=2&bgai=B4o5BZzDWWuPgEbbAzAaDqI_QAwAAAAA4AeAEAg&bg=!UlGlUUlEu-8HuPE8SNICAAADHlIAAACcmQEq3Id00c3bHE1IoCbP9FtIGvnJvT2Kj5pqAJGypSH393GWxXqvpYuYLWgkwWMzdNWdR4t4JCoC40ZMoyIGqGZdFLRaYeYiBy0FdVQWhxJZ1bqjEC_AbVLMdKIBC4ff2Xt47zBM5kfMsc0Q7POq19d50fZ7kY_CmuaFcndlLMCTpyMHw2rs9AVH-SnSurrQGj8EzaIxAnNdGysAq-zskWkxXduj6mC0afSfCrRoYtl5nkzfIEgPUXyOy-Fo2zmCTRcTujgRztaS1oFhc4bUBzQrwrXWTPDcFp15Kf-RHG6kEikifZKLHWutLm6Z8ABfFikGnEkYpb_d6tShMVob6fK0Jyl6jxkrjpjUji6ltZCaqWLJpTPF_TXCefiz4L70pXwpS1RXZVFPQssPqg'
p698
aS'taboola/image/fetch/f_jpg%2Cq_auto%2Ch_217%2Cw_260%2Cc_fill%2Cg_faces:auto%2Ce_sharpen/https%3A//api-int.x-plarium.com/uploads/TR_EN_600x500_Boda_2017-1101_TemplairB_5_Naza%26IMG%3D1117.jpeg'
p699
aS'pagead/gen_204?id=sodar&v=24&t=2&bgai=BFrbNZzDWWp6mGsbgzAbFh6LgAgAAAAA4AeAEAg&bg=!YGOlY3tEc-I_BLNxVRkCAAABElIAAAAwmQEqtD_-DL-ph8Ju4ZZut2agXiqjj45p3Qe6HdBPNUlGHAtpOw17NpKdapov22IGbDx-kOyNnXm9D-CP0j-oI9y9MQcvmoSCYgGvmocSH5yCAOW_tTviMZvjWqUWs20Bdx_kd65bUgEL3w9OvdWMByRPETa2h40irnzGsShGuquC3ex-1PfgTs1J9eUqBza_-aRjrsshB6XOdMw_Ir1fVPSzE8X1CrDCeaFEi7a6FpvjS2465jL240LJyl0G8Dpymq95EbF8cssnkGx5_s1Vgf3968o3398vMsVcam3zMv8i9R4MrEqZa5jgx4ApD9bGKdjZfSQd5AYLDgqDa3yZz1_d4Xp7t3oem5y7BGU7Y8KhrSXd9emsPxsBkyFYNYpaFGHtH6AFBMK8gD1A4g'
p700
aS'images/avatar.jpg'
p701
aS'pagead/gen_204?id=sodar&v=24&t=2&bgai=Bf8IabzDWWs2YHuyHzAb_3LXQBQAAAAA4AeAEAg&bg=!oqGloblE6a_yEyD4PCgCAAADzlIAAACAmQEq7Z7JnlbM1AGubjpPlUS60MJyFTBeeCI7RqnY2N45R4pR4caqsRg7l3nj21TAqrFfVbuuuhbms1gnaYFpJzqzoohBuu0k_a0VURDjzOoqS1CIDwrb8GnJYn7svSKxmQ-KwvEn66qZxEpRCc_y-2yqSq8_ZQioNVHoBk9AZ-dh4LCOmGLLW4kRMn_mRr7QVNVfm3YI9dfRB2RkxmUNiCIYyEQba03amfzbnIDLkO2HYwR1Co4ekzxNf9nr_J4V_gE1IEMAv64bCrYZEAxrMytMKNT0ZxDadm4dKL4x5k2j1puTU1iDc1k0qu0Fz8A1pFx99c7SnHLj42bWaZi7w2Z2Sfb5fO8PX7gbQrlGLzHxZ8fweh_JBwf3YjPiRKLNLuZM_3UnjLGyCSExtg'
p702
aS'a/COMMON.css?r=0.7253175530249024'
p703
aS'a/1.css?r=0.06116428927321116'
p704
aS'ct/0_0_20937993%3A_44559/us/0/1/0/0/0/0/970/250/242/2098/0/pixel.gif?v=2_1&ttid=2&d=www.tv.com&r=0.5798662444270237'
p705
aS'icon/box_19_top-right.png'
p706
aS'pageservices/social/oauth/proxy?xdm_e=http%3A%2F%2Fwww.tv.com&xdm_c=urs424&xdm_p=1'
p707
aS'a/COMMON.css?r=0.822640545784224'
p708
aS'a/1.css?r=0.15294265860232426'
p709
aS'widgets.js?_=1523986515486'
p710
aS'taboola/image/fetch/f_jpg%2Cq_auto%2Ch_217%2Cw_260%2Cc_fill%2Cg_faces:auto%2Ce_sharpen/http%3A//cdn.taboola.com/libtrc/static/thumbnails/327ef4059fb119fad10f6cfd5154ac48.jpg'
p711
aS'ct/0_0_20937993%3A_44559/us/0/1/0/0/0/0/300/250/242/2098/0/pixel.gif?v=2_1&ttid=2&d=www.tv.com&r=0.42535972612676165'
p712
aS'taboola/image/fetch/f_jpg%2Cq_auto%2Ch_217%2Cw_260%2Cc_fill%2Cg_faces:auto%2Ce_sharpen/http%3A//cdn.taboola.com/static/da/da7dc39c-4434-47fe-968d-6b4b9e11f50b.jpg'
p713
aS'taboola/image/fetch/f_jpg%2Cq_auto%2Ch_180%2Cw_360%2Cc_fill%2Cg_faces:auto%2Ce_sharpen/https%3A//console.brax-cdn.com/creatives/ba8a210e-6f13-4ff8-b459-cc60cd7ae469/i__tb-slantycarl__i_92fb36bde878ec7c82cbc47090f2c0bb.600x500.png'
p714
aS'taboola/image/fetch/f_jpg%2Cq_auto%2Ch_180%2Cw_360%2Cc_fill%2Cg_faces:auto%2Ce_sharpen/http%3A//cdn.taboolasyndication.com/libtrc/static/thumbnails/2d72ac2fa926807f9b593d15d1c6ff1d.jpg'
p715
aS'a/COMMON.css?r=0.5896115791299217'
p716
aS'a/1.css?r=0.6826661081229976'
p717
aS'taboola/image/fetch/f_jpg%2Cq_auto%2Ch_180%2Cw_360%2Cc_fill%2Cg_faces:auto%2Ce_sharpen/http%3A//cdn.taboola.com/libtrc/static/thumbnails/GETTY_IMAGES/SKP/509417861__E1MWc7T4.jpg'
p718
aS'taboola/image/fetch/f_jpg%2Cq_auto%2Ch_180%2Cw_360%2Cc_fill%2Cg_faces:auto%2Ce_sharpen/http%3A//cdn.taboola.com/libtrc/static/thumbnails/327ef4059fb119fad10f6cfd5154ac48.jpg'
p719
aS'ct/0_0_20937993%3A_44559/us/0/1/0/0/0/0/300/600/242/2098/0/pixel.gif?v=2_1&ttid=2&d=www.tv.com&r=0.554133761831933'
p720
aS'opt/tboptevent.html?v=2&a=u&d=%7B%22stp%22%3A%7B%22a%22%3A1%7D%7D'
p721
aS'pagead/gen_204?id=sodar&v=24&t=2&bgai=BumhicDDWWqO9DeHFzAa31IqQDwAAAAA4AeAEAg&bg=!1Nel189Eaeg7D6SecxcCAAAHzFIAAABKmQEqqHOzPRFtjDAkLh9aoPSVo9fLCVZaHEbNf5SCNhNJTEW2FYWfyfd8-sTaIXlYg5tNWFK5SdvVSZfb4wGvCDo8Dis08RbeV6AvTwKOmcZ957-1VPll4hUCx4SyuCNlUSG4l4Em4F64Xv4_WM-1YrBhSYkiY0yUHezoksVXvq7iAAZU2HG-zL1hzQGDQ-7kCTpDFF4m4ZWJdOuewzPCq8LMkFUoHfC0vTFm5xq5Rp2IFlje0ZNUITbbO9Wn4N3ywsmrEN-7trnHZMzLR71RIQ2J_KyEdK5bdSn407CZivVjS4WFq4qzCSVvKbKq6spc65-m1x5Cv4JKXaKrHp9_Cl1Bgh5cTB3qXKALS19MlXSRAk4xnfGhoPIJErkck5y63mspLes6zmKkAInGHQ'
p722
aS'pages/scripts/0002/9525.js?423329'
p723
aS'pagead/gen_204?id=wfocus&gqid&qqid=CIjtno7swdoCFUci0wod0c0FXw&fg=1'
p724
aS'pagead/gen_204?id=wfocus&gqid&qqid=CPT6no7swdoCFSsy0wod4sIHKQ&fg=1'
p725
aS'widgets.js?_=1523986515766'
p726
aS'userSync.html'
p727
aS'site/38862?ret=html&phint=SectionID%3D124288&phint=platform%3Ddesktop&phint=__bk_t%3DGhost%20Hunter%20Fan%20Reviews%20%26%20Ratings%20-%20TV.com&phint=__bk_k%3D&phint=__bk_pr%3Dhttp%3A%2F%2Fwww.tv.com%2Fshows%2Fghost-hunter%2Fepisodes%2F&phint=__bk_l%3Dhttp%3A%2F%2Fwww.tv.com%2Fshows%2Fghost-hunter%2Freviews%2F&limit=4&bknms=ver=2.0,ua=36833853382011f35a965ea4e9b2cd05,t=1523986590916,m=4b4e4ecaab1f1c93ab1f1c93ab1f1c93,k=1,lang=cecb689dc4f4354d319bce1d319bce1d,sr=1600x1103x24,tzo=-60,hss=true,hls=true,idb=true,addb=undefined,odb=undefined,cpu=4b4e4ecaab1f1c93ab1f1c93ab1f1c93,platform=1c17637dbf2f8edebf2f8edebf2f8ede,notrack=,plugins=4b4e4ecaab1f1c93ab1f1c93ab1f1c93&r=7323883'
p728
aS'uidps?idx=0'
p729
aS'track/cmf/generic?ttd_pid=svx9t50&ttd_tpi=1'
p730
aS'xuid?mid=3658&xuid=721bdb67-edee-4fa1-b776-7556120bf0bd&dongle=0cfd'
p731
aS'uidps?idx=1'
p732
aS'getuid?redir=https%3A%2F%2Fpixel.tapad.com%2Fidsync%2Fex%2Freceive%3Fpartner_id%3D2382%26partner_device_id%3D%24UID'
p733
aS'uidps?idx=2'
p734
aS'sync?ssp=triplelift'
p735
aS'sync?ssp=bidswitch&bidswitch_ssp_id=triplelift'
p736
aS'uidps?idx=3'
p737
aS'cbsinteractive-tvcom/log/3/social?ri=80e089ea6d45fca980d4f25456e10ed2&sd=v2_17038f9db85b0396dea751916cfa85fa_e117cb23-0c92-4757-bbda-3a411f7f4f2d-tuct1c67533_1523986488_1523986524_CNawjgYQ5cw_GJ65s6WtLCAEKAMwTQ&ui=e117cb23-0c92-4757-bbda-3a411f7f4f2d-tuct1c67533&pi=/shows/ghost-hunter/reviews&wi=-7423376916830963020&pt=other&vi=1523986521246&st=social-available&d=%7B%22data%22%3A%5B%7B%22i%22%3A%22w%22%2C%22tp%22%3A%22custom-share%22%2C%22nm%22%3A%22facebook%22%2C%22c%22%3A2%2C%22m%22%3A%22stp%22%7D%2C%7B%22i%22%3A%22w%22%2C%22tp%22%3A%22custom-link%22%2C%22nm%22%3A%22twitter%22%2C%22c%22%3A2%2C%22m%22%3A%22stp%22%7D%2C%7B%22i%22%3A%22ctx%22%2C%22ism%22%3Afalse%2C%22srx%22%3A1600%2C%22sry%22%3A1103%2C%22pd%22%3Anull%2C%22tpl%22%3A%22%22%2C%22url%22%3A%22http%3A%2F%2Fwww.tv.com%2Fshows%2Fghost-hunter%2Freviews%22%2C%22rref%22%3A%22http%3A%2F%2Fwww.tv.com%2Fshows%2Fghost-hunter%2Fepisodes%2F%22%2C%22sref%22%3A%22http%3A%2F%2Fwww.tv.com%2Fshows%2Fghost-hunter%2Fepisodes%2F%22%2C%22hdl%22%3A%22%22%2C%22sec%22%3A%22%22%2C%22aut%22%3A%22%22%2C%22img%22%3A%22%22%2C%22v%22%3A13%7D%5D%7D&tim=18%3A36%3A42.052&id=6848&llvl=1&cv=302-48-RELEASE&'
p738
aS'opt/tboptevent.html?v=2&a=u&d=%7B%22stp%22%3A%7B%22a%22%3A1%7D%7D'
p739
aS'getuid?https%3A%2F%2Feb2.3lift.com%2Fxuid%3Fmid%3D3335%26xuid%3D%24UID%26dongle%3D4d58'
p740
aS'ul_cb/sync?ssp=bidswitch&bidswitch_ssp_id=triplelift'
p741
aS'uidps?idx=9'
p742
aS'uidps?idx=4'
p743
aS'uidps?idx=5'
p744
aS'uidps?idx=6'
p745
aS'uidps?idx=7'
p746
aS'uidps?idx=8'
p747
aS'site/38862?ret=html&phint=SectionID%3D124288&phint=platform%3Ddesktop&phint=__bk_t%3DGhost%20Hunter%20-%20Season%203%2C%20Episode%206%3A%20Trapped%20In%20Time%20-%20TV.com&phint=__bk_k%3D&phint=__bk_pr%3Dhttp%3A%2F%2Fwww.tv.com%2Fshows%2Fghost-hunter%2Fepisodes%2F&phint=__bk_l%3Dhttp%3A%2F%2Fwww.tv.com%2Fshows%2Fghost-hunter%2Ftrapped-in-time-384904%2F&limit=4&bknms=ver=2.0,ua=36833853382011f35a965ea4e9b2cd05,t=1523986602564,m=4b4e4ecaab1f1c93ab1f1c93ab1f1c93,k=1,lang=cecb689dc4f4354d319bce1d319bce1d,sr=1600x1103x24,tzo=-60,hss=true,hls=true,idb=true,addb=undefined,odb=undefined,cpu=4b4e4ecaab1f1c93ab1f1c93ab1f1c93,platform=1c17637dbf2f8edebf2f8edebf2f8ede,notrack=,plugins=4b4e4ecaab1f1c93ab1f1c93ab1f1c93&r=45326842'
p748
aS'shows/ghost-hunter/trapped-in-time-384904/'
p749
aS'uidps?idx=10'
p750
aS'sync?dsp_id=190&expires=14&user_group=1&user_id=721a72f6-01dd-483e-86ce-cae3efc6cfda&ssp=triplelift'
p751
aS'sync/img?mt_exid=62&redir=%2F%2Feb2.3lift.com%2Fxuid%3Fmid%3D3690%26xuid%3D%5BMM_UUID%5D%26dongle%3D3995'
p752
aS'getuid?redir=%2F%2Fdpm.demdex.net%2Fibs%3Adpid%3D72352%26dpuuid%3D%24UID'
p753
aS'getuid?redir=https%3A%2F%2Fidsync.rlcdn.com%2F420416.gif%3Fpartner_uid%3D%24UID'
p754
aS'cfcm.ashx?providerID=1019&rcode=0'
p755
aS'public/CACHE/css/1cc7aede1cc1.css'
p756
aS'i/tvp/sm/23617.jpg'
p757
aS'i/tve/em/384904.jpg'
p758
aS'assets/tag.js'
p759
aS'uidps?idx=11'
p760
aS'getuid?redir=%2F%2Fsync.go.sonobi.com%2Fus.gif%3Fnw%3Dtl%26nuid%3D%24UID'
p761
aS'xuid?mid=3690&xuid=7a9e5acc-e2ff-4b00-8851-e46aa7332ad6&dongle=3995'
p762
aS'xuid?mid=2409&xuid=e4223136-3584-4c84-88ee-b92fbb4779d6&dongle=d3d3'
p763
aS'ibs:dpid=72352&dpuuid=14441275920261195923'
p764
aS'cbsinteractive-tvcom/log/3/social?ri=e05bd61ce70fadd6b1f73e0edf4d39fe&sd=v2_17038f9db85b0396dea751916cfa85fa_e117cb23-0c92-4757-bbda-3a411f7f4f2d-tuct1c67533_1523986488_1523986526_CNawjgYQ5cw_GKTLs6WtLCAEKAMwTQ&ui=e117cb23-0c92-4757-bbda-3a411f7f4f2d-tuct1c67533&pi=/shows/ghost-hunter/trapped-in-time-384904&wi=2503412329960534111&pt=other&vi=1523986523556&st=social-available&d=%7B%22data%22%3A%5B%7B%22i%22%3A%22w%22%2C%22tp%22%3A%22custom-share%22%2C%22nm%22%3A%22facebook%22%2C%22c%22%3A1%2C%22m%22%3A%22stp%22%7D%2C%7B%22i%22%3A%22w%22%2C%22tp%22%3A%22custom-link%22%2C%22nm%22%3A%22twitter%22%2C%22c%22%3A1%2C%22m%22%3A%22stp%22%7D%2C%7B%22i%22%3A%22ctx%22%2C%22ism%22%3Afalse%2C%22srx%22%3A1600%2C%22sry%22%3A1103%2C%22pd%22%3Anull%2C%22tpl%22%3A%22%22%2C%22url%22%3A%22http%3A%2F%2Fwww.tv.com%2Fshows%2Fghost-hunter%2Ftrapped-in-time-384904%22%2C%22rref%22%3A%22http%3A%2F%2Fwww.tv.com%2Fshows%2Fghost-hunter%2Fepisodes%2F%22%2C%22sref%22%3A%22http%3A%2F%2Fwww.tv.com%2Fshows%2Fghost-hunter%2Fepisodes%2F%22%2C%22hdl%22%3A%22%22%2C%22sec%22%3A%22%22%2C%22aut%22%3A%22%22%2C%22img%22%3A%22%22%2C%22v%22%3A13%7D%5D%7D&tim=18%3A36%3A45.492&id=3825&llvl=1&cv=302-48-RELEASE&'
p765
aS'sdk/urs.js?_=1523986606459'
p766
aS'ht/ls-tvcom.js?_=1523986606458'
p767
aS'uidps?idx=12'
p768
aS'community/'
p769
aS'us.gif?nw=tl&nuid=14441275920261195923'
p770
aS'sync?nid=13'
p771
aS'uidps?idx=13'
p772
aS'usersync/triplelift/'
p773
aS'xuid?mid=2319&xuid=0-5b770c9e-bc06-4c5d-59be-e1dd01a5b34e$ip$78.157.207.142&dongle=4430'
p774
aS'd/sync/cookie/generic?https://eb2.3lift.com/xuid?mid=3702&xuid=${ADELPHIC_CUID}&dongle=d54f'
p775
aS'site/23178?id=EFLZ5upCz115BCfke3jS&redir=http%3A%2F%2Fb1sync.zemanta.com%2Fusersync%2Fbluekai%2Fcallback%2F%3Fd%3DNB2HI4B2F4XWKYRSFYZWY2LGOQXGG33NF54HK2LEH5SG63THNRST2ZDCME4CMZLYMNUGC3THMU6XI4TJOBWGK3DJMZ2CM3LJMQ6TENBWGATHQ5LJMQ6UKRSMLI2XK4CDPIYTCNKCINTGWZJTNJJQ'
p776
aS'pageservices/social/oauth/proxy?xdm_e=http%3A%2F%2Fwww.tv.com&xdm_c=urs424&xdm_p=1'
p777
aS'public/CACHE/css/a348c84aa13c.css'
p778
aS'public/CACHE/css/74ae1b00fbf8.css'
p779
aS'public/CACHE/js/dd44229c3d86.js'
p780
aS'public/CACHE/js/6f047547b9ba.js'
p781
aS'utag/cbsi/tvcomsite/prod/utag.25.js?utv=ut4.39.201604261834'
p782
aS'public/images/transparent.gif'
p783
aS'users/jclebourdais/avatar/small.jpg'
p784
aS'users/JasonMelvil/avatar/small.jpg'
p785
aS'users/khadamat/avatar/small.jpg'
p786
aS'users/mahmoudfawzy12/avatar/small.jpg'
p787
aS'i/u/aL/avatar.jpg'
p788
aS'i/u/e8b4cb0f913848b1c8f39fb643b6818c.jpg'
p789
aS'images/thumbs/NoImg187x140.png'
p790
aS'i/u/as/avatar.jpg'
p791
aS'i/u/b35520f3c0d340a0c04d5106d25b6437.jpg'
p792
aS'images/user_icons/mlb/boston_red_sox.jpg'
p793
aS'JM5000_small.jpg'
p794
aS'Gislef_small.jpg'
p795
aS'i/u/078f5f1781e647b9c7156d5ba746d17b.jpg'
p796
aS'i/u/abceed2d8a82441fc42a35cce18f0336.jpg'
p797
aS'i/u/044347fbbee94bf8cbe46966386ad812.jpg'
p798
aS'i/u/12ff5384247a4241c2e77e55786ed296.jpg'
p799
aS'images/user_icons/simpsons/lisa.jpg'
p800
aS'albums/m474/Tesser_T/alichinoTsugiriavatar.gif'
p801
aS'TheOldBill_small.jpg'
p802
aS'ChrisTVfan_small.jpg'
p803
aS'mrdivot_small.jpg'
p804
aS'images/user_icons/battlestar_galactica/cylon-01.jpg'
p805
aS'sroberts461_small.jpg'
p806
aS'i/u/7052014a7a564257c243538413a19040.jpg'
p807
aS'sounddude_small.jpg'
p808
aS'uidps?idx=15'
p809
aS'i/u/1a6ea02c69224eddce4fe9633048fcd9.jpg'
p810
aS'i/tvp/ss/77121.jpg'
p811
aS'i/tvp/ss/158560.jpg'
p812
aS'nullnull2654_small.jpg'
p813
aS'i/tvp/ss/77466.jpg'
p814
aS'i/tvp/ss/78582.jpg'
p815
aS'i/tvp/ss/183210.jpg'
p816
aS'uidps?idx=14'
p817
aS'i/tvp/ss/183133.jpg'
p818
aS'i/tvp/ss/80967.jpg'
p819
aS'i/tvp/ss/81032.jpg'
p820
aS'i/tvp/ss/81468.jpg'
p821
aS'i/tvp/ss/34391.jpg'
p822
aS'i/tvp/ss/76739.jpg'
p823
aS'getuidp?callback=STRAppNexusCallback'
p824
aS'i/tvp/ss/1029.jpg'
p825
aS'i/tvp/ss/183107.jpg'
p826
aS'i/tvp/ss/193920.jpg'
p827
aS'i/tvp/ss/183289.jpg'
p828
aS'i/tvp/ss/30144.jpg'
p829
aS'i/tvp/ss/81915.jpg'
p830
aS'i/tvp/ss/76841.jpg'
p831
aS'i/tvp/ss/76761.jpg'
p832
aS'i/tvp/ss/80132.jpg'
p833
aS'sync?r=2&c=158&j=STRCriteoCallback&callback=STRCriteoCallback'
p834
aS'track/rid?v=1.0.0&ttd_pid=sharethrough'
p835
aS'b/ss/cbsitvcomsite/10/JS-2.3.0/s92064609314055?AQB=1&ndh=1&pf=1&callback=s_c_il[0].doPostbacks&et=1&t=17%2F3%2F2018%2018%3A36%3A50%202%20-60&d.&nsid=0&jsonv=1&.d&mid=35865185884368107392471047042386950918&aid=2D6677DC05312208-60000118C001361C&aamlh=6&ce=UTF-8&ns=cbsinteractive&pageName=tvcom%3A%2Fshows%2Fghost-hunter%2Ftrapped-in-time-384904%2F&g=http%3A%2F%2Fwww.tv.com%2Fshows%2Fghost-hunter%2Ftrapped-in-time-384904%2F&r=http%3A%2F%2Fwww.tv.com%2Fshows%2Fghost-hunter%2Fepisodes%2F&cc=USD&ch=shows&server=www.tv.com&events=prodView&products=%3Btv-show-23617%7CGhost%20Hunter%3B%3B%3B%3B%2C%3Btv-episode-384904%7CTrapped%20In%20Time%3B%3B%3B%3B&aamb=6G1ynYcLPuiQxYZrsz_pkqfLG9yMXBpb2zX5dvJdYQJzPXImdj0y&h1=shows%7Cghost-hunter%7Ctrapped-in-time-384904&c2=D%3Dv2&v2=uk&c3=D%3Dv3&v3=desktop%20web%7C%7C%7Cdesktop&c4=D%3Dv4&v4=internal%3Anavigation%3Ashow_reviews&c5=D%3Dv5&v5=cbsitvcomsite&c6=D%3Dv6&v6=shows%7Cghost-hunter%7Ctrapped-in-time-384904&c7=D%3Dv7&v7=http%3A%2F%2Fwww.tv.com%2Fshows%2Fghost-hunter%2Ftrapped-in-time-384904%2F&c8=D%3Dv8&v8=Ghost%20Hunter%20-%20Season%203%2C%20Episode%206%3A%20Trapped%20In%20Time%20-%20TV.com&c9=D%3DUser-Agent&c10=D%3Dv10&v10=episode_overview&c11=D%3Dv11&v11=D%3Dch%2B%22%3A%22%2Bv10&v15=not%20authenticated%7Canon&c24=D%3Dv24&v24=e6fdc140-4265-11e8-a123-f1f5db0910ed&c35=D%3Dv35&v35=bUi3ZFrM77S97dTF4xk&v49=%5Bobject%20Object%5D&c50=1%3A30PM&v50=1%3A30PM&c51=Tuesday&v51=Tuesday&c52=2&v52=2&c53=Repeat&v53=Repeat&c54=More%20than%207%20days&v54=More%20than%207%20days&v85=false&s=1600x1103&c=24&j=1.6&v=N&k=Y&bw=1195&bh=676&mcorgid=10D31225525FF5790A490D4D%40AdobeOrg&AQE=1'
p836
aS'usersync/bluekai/callback/?d=NB2HI4B2F4XWKYRSFYZWY2LGOQXGG33NF54HK2LEH5SG63THNRST2ZDCME4CMZLYMNUGC3THMU6XI4TJOBWGK3DJMZ2CM3LJMQ6TENBWGATHQ5LJMQ6UKRSMLI2XK4CDPIYTCNKCINTGWZJTNJJQ'
p837
aS'uidps?idx=16'
p838
aS'uidps?idx=17'
p839
aS'uidps?idx=18'
p840
aS'uidps?idx=19'
p841
aS'uidps?idx=20'
p842
aS'uidps?idx=21'
p843
aS'sdk/urs.js?_=1523986611683'
p844
aS'ht/ls-tvcom.js?_=1523986611682'
p845
aS'uidps?idx=22'
p846
aS'clear/c.gif?rsid=cbsitvcomsite&pagetype=episode_overview&viewguid=e6fdc140-4265-11e8-a123-f1f5db0910ed&devicetype=desktop&sitetype=desktop%20web&ts=1523986613230&sid=45&ld=www.tv.com&ldc=ec96c6bd-a93e-4493-858c-981961d72f1b&brwinsz=1195x676&brscrsz=1600x1103&brlang=en-GB&tcset=utf8&im=dsjs&clgf=bUi3ZFrM77S97dTF4xk&xref=http%3A%2F%2Fwww.tv.com%2Fshows%2Fghost-hunter%2Fepisodes%2F&srcurl=http%3A%2F%2Fwww.tv.com%2Fshows%2Fghost-hunter%2Ftrapped-in-time-384904%2F&title=Ghost%20Hunter%20-%20Season%203%2C%20Episode%206%3A%20Trapped%20In%20Time%20-%20TV.com'
p847
aS'uidps?idx=24'
p848
aS'uidps?idx=23'
p849
aS'dmp/pixelSync?nid=83'
p850
aS'bh/sync/3lift?rurl=https%3A%2F%2Feb2.3lift.com%2Fxuid%3Fmid%3D2636%26xuid%3D%25%25VGUID%25%25%26dongle%3D8bee'
p851
aS'b?c1=2&c2=3005086&c4=&c4=http%3A%2F%2Fwww.tv.com%2Fshows%2Fghost-hunter%2Ftrapped-in-time-384904%2F&ns__t=1523986611014&ns_c=UTF-8&c8=Ghost%20Hunter%20-%20Season%203%2C%20Episode%206%3A%20Trapped%20In%20Time%20-%20TV.com&c7=http%3A%2F%2Fwww.tv.com%2Fshows%2Fghost-hunter%2Ftrapped-in-time-384904%2F&c9=http%3A%2F%2Fwww.tv.com%2Fshows%2Fghost-hunter%2Fepisodes%2F'
p852
aS'images/pixel.gif?ch=1&rn=9.008822540371328'
p853
aS'images/pixel.gif?ch=2&rn=9.008822540371328'
p854
aS'xuid?dongle=dba8&mid=2460&xuid=EFLZ5upCz115BCfke3jS'
p855
aS'getuid/2b163577?r=https%3A%2F%2Feb2.3lift.com%2Fxuid%3Fmid%3D3668%26dongle%3Da7d1%26xuid%3D'
p856
aS'p/cm/tpl'
p857
aS'getuid?redir=https%3A%2F%2Fpr-bh.ybp.yahoo.com%2Fsync%2Ftriplelift%2F%24UID'
p858
aS'ccm/9779a491-75d6-4ad2-92bd-2f159c9892ab'
p859
aS'Adserver/tlds?type=tli'
p860
aS'users/sync'
p861
aS'public/CACHE/css/db5e383e529b.css'
p862
aS'i/u/b24395a91d6344a6c4787a6d94af016f.jpg'
p863
aS'i/u/b05279aa52d94017c0817f0642f63101.jpg'
p864
aS'i/u/14a074ef6f4d41f3c18617d7d05b121e.jpg'
p865
aS'i/tvp/sm/180555.jpg'
p866
aS'i/ns/1984.png'
p867
aS'public/CACHE/js/12d5ddf37f45.js'
p868
aS'i/ns/232.png'
p869
aS'i/ns/2522.png'
p870
aS'i/tvp/sm/650.jpg'
p871
aS'i/tvp/sm/688.jpg'
p872
aS'i/ns/2806.png'
p873
aS'i/u/b88f3d2104d442cac2700c62f6e80dfc.jpg'
p874
aS'i/u/b450dfe9cb874704c70849f7b6c65660.jpg'
p875
aS'i/u/4ed9c6bdad6e4b55cbf12cd8eb326a6c.jpg'
p876
aS'i/u/3ad6acac91f9403cc01d805666d01a73.jpg'
p877
aS'i/u/014612d46e484d96cdc044742eae2e62.jpg'
p878
aS'i/u/3b36831ad11f4fdecf71842bbc3da280.jpg'
p879
aS'i/tvp/sm/58056.jpg'
p880
aS'i/tvp/sm/33484.jpg'
p881
aS'i/tvp/sm/61.jpg'
p882
aS'i/tvp/sm/193600.jpg'
p883
aS'i/tvp/sm/78706.jpg'
p884
aS'i/tvp/sm/80659.jpg'
p885
aS'i/tvp/sm/8236.jpg'
p886
aS'i/tvp/sm/78112.jpg'
p887
aS'i/tvp/sm/334.jpg'
p888
aS'i/tvp/sm/16772.jpg'
p889
aS'i/tvp/sm/186639.jpg'
p890
aS'i/tvp/sm/158575.jpg'
p891
aS'iframe/8613/?che=317871477&c=%7B%22bpid%22%3A%22cbsinteractive%22%2C%22loc%22%3A%22http%3A%2F%2Fwww.tv.com%2Fshows%2Fghost-hunter%2Ftrapped-in-time-384904%2F%22%2C%22ref%22%3A%22http%3A%2F%2Fwww.tv.com%2Fshows%2Fghost-hunter%2Fepisodes%2F%22%2C%22cid%22%3A%22-1%22%2C%22sid%22%3A%22-1%22%2C%22gen%22%3A%22-1%22%2C%22age%22%3A%22-1%22%2C%22cat%22%3A%22-1%22%2C%22brd%22%3A%22-1%22%7D'
p892
aS'i/tvp/sm/158560.jpg'
p893
aS'i/tvp/sm/81468.jpg'
p894
aS'i/tvp/sm/195575.jpg'
p895
aS'i/tvp/sm/75486.jpg'
p896
aS'i/tvp/sm/24440.jpg'
p897
aS'i/tvp/sm/183210.jpg'
p898
aS'i/tvp/sm/54.jpg'
p899
aS'i/tvp/sm/499.jpg'
p900
aS'i/tvp/sm/71.jpg'
p901
aS'i/tvp/sm/706.jpg'
p902
aS'i/tvp/sm/246.jpg'
p903
aS'i/tvp/sm/100.jpg'
p904
aS'i/tvp/sm/146.jpg'
p905
aS'js/sdkloader/ima3.js'
p906
aS'pixel/cookiesync?source=3a66d299-1ebd-4293-884e-8e6f36dc1a6a'
p907
aS'xuid?mid=3646&xuid=799c92bd-e96a-49d5-9102-719bbcd9a8e6&dongle=1fa5'
p908
aS'bh/rtset?pid=558356&ev=1&daaqp=1&rurl=https%3A%2F%2Feb2.3lift.com%2Fxuid%3Fmid%3D2636%26xuid%3D8CM3mKDe60YI%26dongle%3D8bee'
p909
aS'uidps?idx=28'
p910
aS'pageservices/social/oauth/proxy?xdm_e=http%3A%2F%2Fwww.tv.com&xdm_c=urs424&xdm_p=1'
p911
aS'uidps?idx=25'
p912
aS'uidps?idx=26'
p913
aS'uidps?idx=27'
p914
aS'jpt?id=11834577&size=728x90&callback=headertag.AppNexusHtb.adResponseCallback&callback_uid=aSVZB2im&psa=0&referrer=http%3A%2F%2Fwww.tv.com%2Fshows%2Fghost-hunter%2Ftrapped-in-time-384904%2F'
p915
aS'jpt?id=11834574&size=300x250&callback=headertag.AppNexusHtb.adResponseCallback&callback_uid=UK5Jkww7&psa=0&referrer=http%3A%2F%2Fwww.tv.com%2Fshows%2Fghost-hunter%2Ftrapped-in-time-384904%2F'
p916
aS'cygnus?v=7&s=182811&fn=headertag.IndexExchangeHtb.adResponseCallback&r=%7B%22id%22%3A38620919%2C%22site%22%3A%7B%22page%22%3A%22http%3A%2F%2Fwww.tv.com%2Fshows%2Fghost-hunter%2Ftrapped-in-time-384904%2F%22%2C%22ref%22%3A%22http%3A%2F%2Fwww.tv.com%2Fshows%2Fghost-hunter%2Fepisodes%2F%22%7D%2C%22imp%22%3A%5B%7B%22banner%22%3A%7B%22w%22%3A728%2C%22h%22%3A90%2C%22topframe%22%3A1%7D%2C%22ext%22%3A%7B%22sid%22%3A%22202%22%2C%22siteID%22%3A%22182812%22%7D%2C%22id%22%3A%221%22%7D%2C%7B%22banner%22%3A%7B%22w%22%3A300%2C%22h%22%3A250%2C%22topframe%22%3A1%7D%2C%22ext%22%3A%7B%22sid%22%3A%22209%22%2C%22siteID%22%3A%22182815%22%7D%2C%22id%22%3A%222%22%7D%2C%7B%22banner%22%3A%7B%22w%22%3A300%2C%22h%22%3A250%2C%22topframe%22%3A1%7D%2C%22ext%22%3A%7B%22sid%22%3A%22208%22%2C%22siteID%22%3A%22182813%22%7D%2C%22id%22%3A%223%22%7D%2C%7B%22banner%22%3A%7B%22w%22%3A300%2C%22h%22%3A600%2C%22topframe%22%3A1%7D%2C%22ext%22%3A%7B%22sid%22%3A%22222%22%2C%22siteID%22%3A%22182814%22%7D%2C%22id%22%3A%224%22%7D%2C%7B%22banner%22%3A%7B%22w%22%3A728%2C%22h%22%3A90%2C%22topframe%22%3A1%7D%2C%22ext%22%3A%7B%22sid%22%3A%22201%22%2C%22siteID%22%3A%22182811%22%7D%2C%22id%22%3A%225%22%7D%2C%7B%22banner%22%3A%7B%22w%22%3A970%2C%22h%22%3A250%2C%22topframe%22%3A1%7D%2C%22ext%22%3A%7B%22sid%22%3A%22219%22%2C%22siteID%22%3A%22183314%22%7D%2C%22id%22%3A%226%22%7D%5D%7D'
p917
aS'jpt?id=11834573&size=300x250&callback=headertag.AppNexusHtb.adResponseCallback&callback_uid=nAw2xXE3&psa=0&promo_sizes=300x600&referrer=http%3A%2F%2Fwww.tv.com%2Fshows%2Fghost-hunter%2Ftrapped-in-time-384904%2F'
p918
aS'jpt?id=11834576&size=728x90&callback=headertag.AppNexusHtb.adResponseCallback&callback_uid=Ve2NP7WN&psa=0&promo_sizes=970x250&referrer=http%3A%2F%2Fwww.tv.com%2Fshows%2Fghost-hunter%2Ftrapped-in-time-384904%2F'
p919
aS'xuid?mid=3165&xuid=6JiyOe39Wyi&dongle=e13e'
p920
aS'uidps?idx=29'
p921
aS'adscores/g.pixel?sid=9212293438'
p922
aS'b/ss/cbsitvcomsite/10/JS-2.3.0/s9496374899642?AQB=1&ndh=1&pf=1&callback=s_c_il[0].doPostbacks&et=1&t=17%2F3%2F2018%2018%3A36%3A57%202%20-60&d.&nsid=0&jsonv=1&.d&mid=35865185884368107392471047042386950918&aid=2D6677DC05312208-60000118C001361C&aamlh=6&ce=UTF-8&ns=cbsinteractive&pageName=tvcom%3A%2Fcommunity%2F&g=http%3A%2F%2Fwww.tv.com%2Fcommunity%2F&r=http%3A%2F%2Fwww.tv.com%2Fshows%2Fghost-hunter%2Fepisodes%2F&cc=USD&ch=community&server=www.tv.com&aamb=6G1ynYcLPuiQxYZrsz_pkqfLG9yMXBpb2zX5dvJdYQJzPXImdj0y&h1=community&c2=D%3Dv2&v2=uk&c3=D%3Dv3&v3=desktop%20web%7C%7C%7Cdesktop&c4=D%3Dv4&v4=internal%3Anavigation%3Ashow_reviews&c5=D%3Dv5&v5=cbsitvcomsite&c6=D%3Dv6&v6=community&c7=D%3Dv7&v7=http%3A%2F%2Fwww.tv.com%2Fcommunity%2F&c8=D%3Dv8&v8=All%20Communities%20Feed%20-%20TV.com&c9=D%3DUser-Agent&c10=D%3Dv10&v10=community_door&c11=D%3Dv11&v11=D%3Dch%2B%22%3A%22%2Bv10&v15=not%20authenticated%7Canon&c24=D%3Dv24&v24=ea94f1c0-4265-11e8-be4d-210c6f9beb42&c35=D%3Dv35&v35=bUi3ZFrM77S97dTF4xk&v49=%5Bobject%20Object%5D&c50=1%3A30PM&v50=1%3A30PM&c51=Tuesday&v51=Tuesday&c52=2&v52=2&c53=Repeat&v53=Repeat&c54=More%20than%207%20days&v54=More%20than%207%20days&v85=false&s=1600x1103&c=24&j=1.6&v=N&k=Y&bw=1195&bh=676&mcorgid=10D31225525FF5790A490D4D%40AdobeOrg&AQE=1'
p923
aS'b?c1=7&c2=13739933&c3=20121515121&ns__t=1523986615710&ns_c=UTF-8&cv=3.1&c8=Ghost%20Hunter%20-%20Season%203%2C%20Episode%206%3A%20Trapped%20In%20Time%20-%20TV.com&c7=http%3A%2F%2Fwww.tv.com%2Fshows%2Fghost-hunter%2Ftrapped-in-time-384904%2F&c9=http%3A%2F%2Fwww.tv.com%2Fshows%2Fghost-hunter%2Fepisodes%2F'
p924
aS'cbsinteractive-tvcom/trc/3/json?tim=18%3A36%3A56.726&data=%7B%22id%22%3A923%2C%22ii%22%3A%22%2Fshows%2Fghost-hunter%2Ftrapped-in-time-384904%22%2C%22it%22%3A%22other%22%2C%22sd%22%3A%22v2_17038f9db85b0396dea751916cfa85fa_e117cb23-0c92-4757-bbda-3a411f7f4f2d-tuct1c67533_1523986488_1523986526_CNawjgYQ5cw_GKTLs6WtLCAEKAMwTQ%22%2C%22ui%22%3A%22e117cb23-0c92-4757-bbda-3a411f7f4f2d-tuct1c67533%22%2C%22uifp%22%3A%22e117cb23-0c92-4757-bbda-3a411f7f4f2d-tuct1c67533%22%2C%22vi%22%3A1523986616674%2C%22cv%22%3A%22302-48-RELEASE%22%2C%22uiv%22%3A%22default%22%2C%22u%22%3A%22http%3A%2F%2Fwww.tv.com%2Fshows%2Fghost-hunter%2Ftrapped-in-time-384904%2F%22%2C%22bv%22%3A%220%22%2C%22ul%22%3A%5B%22en-GB%22%2C%22en%22%5D%2C%22btv%22%3A%220%22%2C%22lspb%22%3A%22CwsIIBC-_wkMCwgjEKb_CQwLCB4Qvv8JDAsIJBC-_wkMCwgfEL7_CQwLCCEQvv8JDAsIHRC-_wkMCwgxEL7_CQwLCC4Qvv8JDAsILRC-_wkMCwgnEL7_CQwMExQ%22%2C%22e%22%3A%22http%3A%2F%2Fwww.tv.com%2Fshows%2Fghost-hunter%2Fepisodes%2F%22%2C%22bad%22%3A-1%2C%22bw%22%3A1195%2C%22sw%22%3A1535%2C%22sh%22%3A1079%2C%22r%22%3A%5B%7B%22li%22%3A%22rbox-o2m%22%2C%22s%22%3A6%2C%22uim%22%3A%22alternating-thumbnails-d%3Aabp%3D0%22%2C%22uip%22%3A%22Bottom%20Page%20Thumbnails%20episode_overview%20Desktop%22%2C%22orig_uip%22%3A%22Bottom%20Page%20Thumbnails%20episode_overview%20Desktop%22%2C%22cd%22%3A865.5%2C%22mw%22%3A626%7D%2C%7B%22li%22%3A%22rbox-o2m%22%2C%22s%22%3A4%2C%22uim%22%3A%22alternating-thumbnails-c%3Aabp%3D0%22%2C%22uip%22%3A%22Right%20Rail%20Thumbnails%20episode_overview%20Desktop%22%2C%22orig_uip%22%3A%22Right%20Rail%20Thumbnails%20episode_overview%20Desktop%22%2C%22cd%22%3A1620%2C%22mw%22%3A300%7D%5D%2C%22cb%22%3A%22TRC.callbacks.recommendations_1%22%2C%22lt%22%3A%22normal%22%7D'
p925
aS'cgi-bin/m?rnd=1523986617338&ci=us-304254h&js=1&cg=0&ts=v60.js&vn=6.0.58&cc=1&cd=24&ck=y&je=n&lg=en-GB&si=http%3A%2F%2Fwww.tv.com%2Fshows%2Fghost-hunter%2Ftrapped-in-time-384904%2F&rp=http%3A%2F%2Fwww.tv.com%2Fshows%2Fghost-hunter%2Fepisodes%2F&sr=1600x1103&id=lstrg-2d990c19235a5ef669bbeb71dfde2bb3&tz=1'
p926
aS'adscores/g.pixel?sid=9212293468'
p927
aS'uidps?idx=30'
p928
aS'ht/ls-tvcom.js?_=1523986617844'
p929
aS'js/3047900008.js'
p930
aS'ebda?sync=1'
p931
aS'user/identify?rurl=%2F%2Feb2.3lift.com%2Fxuid%3Fmid%3D3593%26xuid%3D%24%7BUSER%7D%26dongle%3D4ffa'
p932
aS'pixel?google_nid=bidswitch_dbm&google_cm&google_sc&ssp=triplelift'
p933
aS'sdk/urs.js?_=1523986617845'
p934
aS'clear/c.gif?rsid=cbsitvcomsite&pagetype=community_door&viewguid=ea94f1c0-4265-11e8-be4d-210c6f9beb42&devicetype=desktop&sitetype=desktop%20web&ts=1523986618522&sid=45&ld=www.tv.com&ldc=ec96c6bd-a93e-4493-858c-981961d72f1b&brwinsz=1195x676&brscrsz=1600x1103&brlang=en-GB&tcset=utf8&im=dsjs&clgf=bUi3ZFrM77S97dTF4xk&xref=http%3A%2F%2Fwww.tv.com%2Fshows%2Fghost-hunter%2Fepisodes%2F&srcurl=http%3A%2F%2Fwww.tv.com%2Fcommunity%2F&title=All%20Communities%20Feed%20-%20TV.com'
p935
aS'b?c1=2&c2=3005086&c4=&c4=http%3A%2F%2Fwww.tv.com%2Fcommunity%2F&ns__t=1523986617970&ns_c=UTF-8&c8=All%20Communities%20Feed%20-%20TV.com&c7=http%3A%2F%2Fwww.tv.com%2Fcommunity%2F&c9=http%3A%2F%2Fwww.tv.com%2Fshows%2Fghost-hunter%2Fepisodes%2F'
p936
aS'uidps?idx=31'
p937
aS'spacer.gif'
p938
aS'spacer.gif'
p939
aS'b?c1=7&c2=13739933&c3=20121515121&ns__t=1523986620014&ns_c=UTF-8&cv=3.1&c8=All%20Communities%20Feed%20-%20TV.com&c7=http%3A%2F%2Fwww.tv.com%2Fcommunity%2F&c9=http%3A%2F%2Fwww.tv.com%2Fshows%2Fghost-hunter%2Fepisodes%2F'
p940
aS'images/pixel.gif?ch=1&rn=0.5778162205397892'
p941
aS'images/pixel.gif?ch=2&rn=0.5778162205397892'
p942
aS'cbsinteractive-tvcom/trc/3/json?tim=18%3A37%3A01.480&data=%7B%22id%22%3A936%2C%22ii%22%3A%22%2Fcommunity%22%2C%22it%22%3A%22category%22%2C%22sd%22%3A%22v2_17038f9db85b0396dea751916cfa85fa_e117cb23-0c92-4757-bbda-3a411f7f4f2d-tuct1c67533_1523986488_1523986526_CNawjgYQ5cw_GKTLs6WtLCAEKAMwTQ%22%2C%22ui%22%3A%22e117cb23-0c92-4757-bbda-3a411f7f4f2d-tuct1c67533%22%2C%22uifp%22%3A%22e117cb23-0c92-4757-bbda-3a411f7f4f2d-tuct1c67533%22%2C%22vi%22%3A1523986621394%2C%22cv%22%3A%22302-48-RELEASE%22%2C%22uiv%22%3A%22default%22%2C%22u%22%3A%22http%3A%2F%2Fwww.tv.com%2Fcommunity%2F%22%2C%22bv%22%3A%220%22%2C%22ul%22%3A%5B%22en-GB%22%2C%22en%22%5D%2C%22btv%22%3A%220%22%2C%22lspb%22%3A%22CwsIIBC-_wkMCwgjEKb_CQwLCB4Qvv8JDAsIJBC-_wkMCwgfEL7_CQwLCCEQvv8JDAsIHRC-_wkMCwgxEL7_CQwLCC4Qvv8JDAsILRC-_wkMCwgnEL7_CQwMExQ%22%2C%22e%22%3A%22http%3A%2F%2Fwww.tv.com%2Fshows%2Fghost-hunter%2Fepisodes%2F%22%2C%22bad%22%3A-1%2C%22bw%22%3A1195%2C%22sw%22%3A1535%2C%22sh%22%3A1079%2C%22r%22%3A%5B%7B%22li%22%3A%22rbox-c2m%22%2C%22s%22%3A6%2C%22uim%22%3A%22alternating-thumbnails-d%3Aabp%3D0%22%2C%22uip%22%3A%22Bottom%20Page%20Thumbnails%20community_door%20Desktop%22%2C%22orig_uip%22%3A%22Bottom%20Page%20Thumbnails%20community_door%20Desktop%22%2C%22cd%22%3A3960%2C%22mw%22%3A702%7D%5D%2C%22cb%22%3A%22TRC.callbacks.recommendations_1%22%2C%22lt%22%3A%22normal%22%7D'
p943
aS'sync?dsp_id=16&user_id=CAESEKEOQXgIfF--PZVysc3zB5k&google_cver=1&ssp=triplelift'
p944
aS'pixel?google_nid=tl&google_hm=MTQ0NDEyNzU5MjAyNjExOTU5MjM%3D'
p945
aS'ibs:dpid=144004&dpuuid=UK9p5oRAfnsmz6eMcIe06fmuK7UwGrYoVARn2T5qduI%3D&redir=%2F%2Feb2.3lift.com%2Fxuid%3Fmid%3D3593%26xuid%3DUK9p5oRAfnsmz6eMcIe06fmuK7UwGrYoVARn2T5qduI%253D%26dongle%3D4ffa'
p946
aS'iframe/8613/?che=785062031&c=%7B%22bpid%22%3A%22cbsinteractive%22%2C%22loc%22%3A%22http%3A%2F%2Fwww.tv.com%2Fcommunity%2F%22%2C%22ref%22%3A%22http%3A%2F%2Fwww.tv.com%2Fshows%2Fghost-hunter%2Fepisodes%2F%22%2C%22cid%22%3A%22-1%22%2C%22sid%22%3A%22-1%22%2C%22gen%22%3A%22-1%22%2C%22age%22%3A%22-1%22%2C%22cat%22%3A%22-1%22%2C%22brd%22%3A%22-1%22%7D'
p947
aS'uidps?idx=32'
p948
aS'cygnus?v=7&s=182811&fn=headertag.IndexExchangeHtb.adResponseCallback&r=%7B%22id%22%3A12871566%2C%22site%22%3A%7B%22page%22%3A%22http%3A%2F%2Fwww.tv.com%2Fcommunity%2F%22%2C%22ref%22%3A%22http%3A%2F%2Fwww.tv.com%2Fshows%2Fghost-hunter%2Fepisodes%2F%22%7D%2C%22imp%22%3A%5B%7B%22banner%22%3A%7B%22w%22%3A728%2C%22h%22%3A90%2C%22topframe%22%3A1%7D%2C%22ext%22%3A%7B%22sid%22%3A%22202%22%2C%22siteID%22%3A%22182812%22%7D%2C%22id%22%3A%221%22%7D%2C%7B%22banner%22%3A%7B%22w%22%3A300%2C%22h%22%3A250%2C%22topframe%22%3A1%7D%2C%22ext%22%3A%7B%22sid%22%3A%22209%22%2C%22siteID%22%3A%22182815%22%7D%2C%22id%22%3A%222%22%7D%2C%7B%22banner%22%3A%7B%22w%22%3A300%2C%22h%22%3A250%2C%22topframe%22%3A1%7D%2C%22ext%22%3A%7B%22sid%22%3A%22208%22%2C%22siteID%22%3A%22182813%22%7D%2C%22id%22%3A%223%22%7D%2C%7B%22banner%22%3A%7B%22w%22%3A300%2C%22h%22%3A600%2C%22topframe%22%3A1%7D%2C%22ext%22%3A%7B%22sid%22%3A%22222%22%2C%22siteID%22%3A%22182814%22%7D%2C%22id%22%3A%224%22%7D%2C%7B%22banner%22%3A%7B%22w%22%3A728%2C%22h%22%3A90%2C%22topframe%22%3A1%7D%2C%22ext%22%3A%7B%22sid%22%3A%22201%22%2C%22siteID%22%3A%22182811%22%7D%2C%22id%22%3A%225%22%7D%2C%7B%22banner%22%3A%7B%22w%22%3A970%2C%22h%22%3A250%2C%22topframe%22%3A1%7D%2C%22ext%22%3A%7B%22sid%22%3A%22219%22%2C%22siteID%22%3A%22183314%22%7D%2C%22id%22%3A%226%22%7D%5D%7D'
p949
aS'jpt?id=11834577&size=728x90&callback=headertag.AppNexusHtb.adResponseCallback&callback_uid=21EcPmH6&psa=0&referrer=http%3A%2F%2Fwww.tv.com%2Fcommunity%2F'
p950
aS'jpt?id=11834574&size=300x250&callback=headertag.AppNexusHtb.adResponseCallback&callback_uid=XcizNVzx&psa=0&referrer=http%3A%2F%2Fwww.tv.com%2Fcommunity%2F'
p951
aS'jpt?id=11834573&size=300x250&callback=headertag.AppNexusHtb.adResponseCallback&callback_uid=nKOfKRPZ&psa=0&promo_sizes=300x600&referrer=http%3A%2F%2Fwww.tv.com%2Fcommunity%2F'
p952
aS'jpt?id=11834576&size=728x90&callback=headertag.AppNexusHtb.adResponseCallback&callback_uid=wGQqWjD3&psa=0&promo_sizes=970x250&referrer=http%3A%2F%2Fwww.tv.com%2Fcommunity%2F'
p953
aS'usersync2/triplelift'
p954
aS'xuid?mid=2409&xuid=e4223136-3584-4c84-88ee-b92fbb4779d6&dongle=d3d3'
p955
aS'ebda'
p956
aS'/eb2.3lift.com/xuid?mid=3593&xuid=UK9p5oRAfnsmz6eMcIe06fmuK7UwGrYoVARn2T5qduI%3D&dongle=4ffa'
p957
aS'uvpjs/2.8.3/CBSI-PLAYER.js?_=1523986617846'
p958
aS'ttj?inv_code=tv_episode_DT_3rd_instream'
p959
aS'pagead/osd.js'
p960
aS'images/icons/commentBgSmall.png'
p961
aS'crum?cm_dsp_id=90&external_user_id=BC80FD9FDFEFCC5A779EF62102831BFE'
p962
aS'uidps?idx=33'
p963
aS'ifnotify?c=F89290&r=14D7D073&t=5AD630B9&u=V3N6dnRMbFFKWklBQUZ5U0kzZ0FBQUVF&m=899f1a7544b61232c396aa91f9b6413c&wp=F6&aid=C4255E41578B2C68&tid=FA46&s=2CC12&cp=2.46&n=www.tv.com&pr=xx&sid=3bae-5710&epr=38620919'
p964
aS'xuid?mid=4070&xuid=OPTOUT&dongle=2dcc'
p965
aS'rev/1ba208ef02abbdbeb7dd91c38e1f2432938a6602/dist/bundle.js'
p966
aS'ifnotify?c=F89389&r=14D7D070&t=5AD630B9&u=V3N6dnRMbFFKWklBQUZ5U0kzZ0FBQUVF&m=5eeb5fae4a4dbb88b40dc5fed87bad37&wp=F6&aid=C4255E4157FAF146&tid=FA46&s=2CA1D&cp=2.46&n=www.tv.com&pr=xx&sid=3bae-570e&epr=38620919'
p967
aS'adscores/g.pixel?sid=9212293468'
p968
aS'adscores/g.pixel?sid=9212293438'
p969
aS'webtools/uvp_config/'
p970
aS'ifnotify?c=212DB2&r=14D7D06F&t=5AD630B9&u=V3N6dnRMbFFKWklBQUZ5U0kzZ0FBQUVF&m=32144e2e3814b1dae6c049a7fe2450ef&wp=A8&aid=C4255E4157F776DC&tid=FA46&s=2CA1F&cp=1.68&n=www.tv.com&pr=xx&sid=3bae-570e&epr=38620919'
p971
aS'public/images/home/IconSprite7.png?3aac25e98273'
p972
aS'ifnotify?c=F89304&r=14D7D06E&t=5AD630B9&u=V3N6dnRMbFFKWklBQUZ5U0kzZ0FBQUVF&m=13b1b4d5c7bb44a973da7e30a3de4838&wp=F6&aid=C4255E4157882E46&tid=FA46&s=2CA1C&cp=2.46&n=www.tv.com&pr=xx&sid=3bae&epr=38620919'
p973
aS'widgets.js?_=1523986497870'
p974
aS'cgi-bin/m?rnd=1523986629744&ci=us-304254h&js=1&cg=0&ts=v60.js&vn=6.0.58&cc=1&cd=24&ck=y&je=n&lg=en-GB&si=http%3A%2F%2Fwww.tv.com%2Fcommunity%2F&rp=http%3A%2F%2Fwww.tv.com%2Fshows%2Fghost-hunter%2Fepisodes%2F&sr=1600x1103&id=lstrg-2d990c19235a5ef669bbeb71dfde2bb3&tz=1'
p975
aS'ecs?cm_dsp_id=31&cm_callback_url=http%3A%2F%2Fdsum.casalemedia.com%2Fcrum&cm_user_id=WszvtLlQJZIAAFySI3gAAAEE'
p976
aS'cfcm.ashx?providerId=1013&extMatch=1&rcode=1'
p977
aS'idsync/ex/receive?partner_id=2356&partner_url=http%3A%2F%2Fdsum.casalemedia.com%2Fcrum%3Fcm_dsp_id%3D151%26external_user_id%3D%24%7BTA_DEVICE_ID%7D&cm_dsp_id=151&cm_callback_url=http%3A%2F%2Fdsum.casalemedia.com%2Fcrum&cm_user_id=WszvtLlQJZIAAFySI3gAAAEE'
p978
aS'uvpjs/2.8.3/lib/tracking/mux.js'
p979
aS'uvpjs/2.8.3/lib/tracking/comscore/comscore.streaming.6.1.1.171219.min.js'
p980
aS'uvpjs/2.8.3/lib/tracking/adobe/AppMeasurement-2.3.0.min.js'
p981
aS'uvpjs/2.8.3/lib/tracking/adobe/VideoHeartbeat-2.0.2.min.js'
p982
aS'spacer.gif'
p983
aS'spacer.gif'
p984
aS'pageservices/social/oauth/proxy?xdm_e=http%3A%2F%2Fwww.tv.com&xdm_c=urs424&xdm_p=1'
p985
aS'user/sync/ssps/ix?cm_dsp_id=149&cm_callback_url=http%3A%2F%2Fdsum.casalemedia.com%2Fcrum&cm_user_id=WszvtLlQJZIAAFySI3gAAAEE'
p986
aS'utag/cbsi/tvcomsite/prod/utag.25.js?utv=ut4.39.201604261834'
p987
aS'cygnus?v=7&s=182811&fn=headertag.IndexExchangeHtb.adResponseCallback&r=%7B%22id%22%3A73063060%2C%22site%22%3A%7B%22page%22%3A%22http%3A%2F%2Fwww.tv.com%2Fshows%2Fghost-hunter%2Fepisodes%2F%22%2C%22ref%22%3A%22http%3A%2F%2Fwww.tv.com%2Fshows%2Fghost-hunter%2F%22%7D%2C%22imp%22%3A%5B%7B%22banner%22%3A%7B%22w%22%3A300%2C%22h%22%3A250%2C%22topframe%22%3A1%7D%2C%22ext%22%3A%7B%22sid%22%3A%22209%22%2C%22siteID%22%3A%22182815%22%7D%2C%22id%22%3A%221%22%7D%5D%7D'
p988
aS'jpt?id=11834574&size=300x250&callback=headertag.AppNexusHtb.adResponseCallback&callback_uid=l4doTl3w&psa=0&referrer=http%3A%2F%2Fwww.tv.com%2Fshows%2Fghost-hunter%2Fepisodes%2F'
p989
aS'getuidp?callback=STRAppNexusCallback'
p990
aS'sync?r=2&c=158&j=STRCriteoCallback&callback=STRCriteoCallback'
p991
aS'track/rid?v=1.0.0&ttd_pid=sharethrough'
p992
aS'sync/casale'
p993
aS'bridge?AG_PID=casale_us&AG_SETCOOKIE'
p994
aS'web/auction?inv_code=tv_episode_DT_3rd_instream&referrer=http%3A%2F%2Fwww.tv.com%2Fshows%2Fghost-hunter%2Ftrapped-in-time-384904%2F&imp_id=1523986632_467529172_16313&rev=1ba208e&fe=0&ft=1'
p995
aS'cm'
p996
aS'rciv.js'
p997
aS'cfcm.ashx?providerId=1013&extMatch=1&rcode=2'
p998
aS'b?c1=7&c2=13739933&c3=20121515121&ns__t=1523986632428&ns_c=UTF-8&cv=3.1&c8=TV.com%20-%20Free%20Full%20Episodes%2C%20Clips%2C%20Show%20Info%20and%20TV%20Listings%20Guide&c7=http%3A%2F%2Fwww.tv.com%2F&c9=http%3A%2F%2Fwww.tv.com%2Fshows%2Fghost-hunter%2Fepisodes%2F'
p999
aS'jpt?id=11834577&size=728x90&callback=headertag.AppNexusHtb.adResponseCallback&callback_uid=GApbwcck&psa=0&referrer=http%3A%2F%2Fwww.tv.com%2F'
p1000
a.