(lp0
S'005e'
p1
aS'000000EE*k;/FzGs.`\\bXldoi2n@wrXa?bE>+r2>1`Pj2HbzSk}II&!d"#UR/J^Fo`$($KZHD77Oq(1d"+`Dz%OMPxy8b>'
p2
aS'0448'
p3
aS'M1GN!_d-2{)kYgV)?!dTq`/I(TL;1w|FCh}7*/Qn"is$nzo"AT*M8ZcB_WN[/3_+rK%O%X=X0/1o%r:ILz+z}GXB)naZG]7ObrNMG>QH|?o!n4|Jgl@p2\'f?>5>CADFY-uv\'`~#1+`69JK{;]2E&#:jU000000EE]=0kr&wN#I_\'.[AGpH!&=Q`[p92jJiLbQS=oa;YORe{AG5"SuZo<\'.tIM.+D0]y2$?EE{L,b{i0?\\%GjDDY;FMI*pxBb-IAo>w>RNtyW&a)>4`Vwe",|:=M)Q7B|O?rD^}KsF3ln"pJ]mDWp86o^{?tgFg!!p1@0^T0dhg5Bs./wE9p|@|Y;ua#!@BOjl\\GmrCQ48J@?X[vTiY$]4H|cR"&i/_D69dreS\\YC]g]{kyd0D*000000EE,+\\xN1957R+~Udo;1_tGL&~)M#ad1[Z>vW;Fyppi_#\'N}fKpzX{^$%xn@XKhRSI1j>_P2zg]@kI46S(hw?e||]!5gadg?T<M1aFvb*9iCeQ=oZ&S\';$VK0KI4^K/z\'4U.k_-d$/Rnf~=5&!RBpCS2XW)UB3-Pwh$Chyy<{/d9n5fOZZ{re/IL@*3&1\\Tk{Vzws|3_jWy4aciZBs-fGXTk8f^y`-*9wqnysahYH~mMe;r\\X000000EEkCBfHMPr[a~jt\'ANGC4`g<|p6D7UND^7NQvl\\.&;P+E$#0W+s0>1"UaQ;05Tly:H-b5\'.x:ZS]l"kUzF)Wg@j$`.$gbu(}0r*7eYxda[<kAAh{qQFv]Xidszj|x{b{EP13a/2-)Wf_,ZrEuk7G6Fs+RK.woSbVdbr5l3pnCz?jwfb9Wyey)[w-ig9FW<6-k-ZT5EP2Kmy2jH!;}5*8Bl6b%to)<5X^y)bZvS.F8Abk+Z,v000000EEe3r@eg7pl<=Chay}Y;X9ZU`?UgiwG|)?WR@m%E|sVm&W2<yN<"w@S7Q+.,Y?){}oS1p%A.kNW"uILYZQ9}AO9<@>yORp{k6+]in\'epq|wrsUw4~*K$]:}\'VRiaC\\V6qDW*U9>{}\\\')l_y0m<o"V@e=1.4,epKUz!8]{G|;uib+>@IHxTkbMgs(De;$:tdjDG_HgE,E'
p4
aS'000b'
p5
aS'Kv4Z~f\\/}??'
p6
aS'0627'
p7
aS'^+LQ(*iN@QD[o~~YC//vZ0~]-FoWU000000EE#KwFr;.V(4Sn7.i2j\'m,9qKD@b&-&K[*tS,r<;70A=aw?J9ca20vJ3m@Y8Ji-NC="0Ve!>dF}\\%K"p-pY03p}lCve@_6MiQkyurEv}Z*5ES4qWQIEH{GIMHJA-zF*-H.W?}o$(a(8gm0o6[Jtj@hM.ma(tdo|$p!>Zkk$ptX{?~2AMq~P;,;om""|*ctuXy^zz5"T<}b~mBN6\\R\\WB]JR.C=pYd.jM)t.3J\\!9//Qj]]@=000000EE5FbRc}%qx[|*J2nS`ybKU=2<-fY;\\hQtl]7f6D=i1*Yh]hKPBc^j{{X<ty)cR9G4@wOH&ZT^\\2G\\w^WjKdJ(!4F]erpf<A.GM3L2+g;h"xV[#s4\'4FVJ\'w5%O\'iF=k|7,<4:l,UKo=PZUtN?OGtJuQ+|>bx{`fhA.c)4H>3Lubu=P|@/hpR:Md6ug]?CitC\\VER#ae(r|ux4)5$-,>;e=Z]#W)KTl:|9fAV|ue$6?{zU}J000000EE(\\O5DLLqX^Oc_kQyHtBrD]798Y]3K^yZ)B[rU+f8*Qy{)lD6LYG*6Um%&sHDreAp[+4v$IwQ~V{\'d&x$AtW.BVt$#3sO2?Ng[Uyr4>HI47{*\\),7b>/5KQ.%!&ouGUd4\'\\6.}>W!/S+Aybto6fJK-gP;i,<P2\\}rE"4a#7++\\$QmD99z%)5q1\'C3|w,;;MEi^p?)0~M%h$h~F7W#.u:8k>QgCFPjG<W/&:"&,80E\'E&?pI000000EEGZJ#ex|wa+B6~^;js4}bpm:I,LBbht+N\\<l0dIz~`V{FeKAItB}<wUI2o,<f97pA{|_57(%cCc[P|2jFtrd7Ql0+J#D>t\'|?i7/avp@P2&.\'+8"(K;&j1jFLsFb3#H`A>|P$oYV6A"HK9\\S=QG)\\(wKf~_`;d\'}=H}IOuB&(\'AbF]>{Lh5*mtGJ<U@V@h0Kw,q/SR*DQY~`Xr7w25tQbKzLqYD\'vmFKG{F`1yHm%wwYb42000000EERd^(Fq?CK-n$cTs6^03#h9MIarXWPmd0Lg#U0WoWH>i`ciN[R8AUv(oG2WDU\\-sLnrY%[a!.=C,[yo!g.d/%N^{Xb.Y5&74[mVJ\\PdKF\\qH\'b~L`e9h{N^672=-iY<#}DuBof(K1/9]hc2~o\'\'ral~1@o{\'s8z;YxV/Z1x(IR+g0A\\J+<!jxEF7!>gY^%kzVJ\'R8iz87ic![-W|9^nAm+csrU_NOfDy&u4W*y;nP68J):G000000EEVMfr\\TXFM&3dhxt4tz"\',"R/Bbb4CI%W:),5\\N[vtW]aZnRk/?tdp\\7Vhd<bf5))rymrC&{BWS7!bejZ3E@6(9RSTExURO!r+NQ40<1VZt.;#I<$L!A-B$4x70Cdzf8hYX"?(G:"ntd!|?-=NZy\\`z~3*f3~,Abit!#@DUT\'\'cuVUaHwSkro(Sb&xMQ\\&7f!}WDxX!)*Tna%3#g1.as:,SN[1R<|u5wF%i7hxd%`C85"g=000000EE3_O^X"nso;5S&!HXmy/gAU+EEm3}x&5rbjA7(k9u.,b.ql4N<=5Kz32"??RvCH'
p8
aS'011f'
p9
aS'=-p|D>"K+nzI{~,\\7[8/rzA`desX*3bYo`/4Uuz~2NMZ]T&l;]39k#{hl#hAl7[nX&oH?.n<`D|#y:1WoHph>:90r]"}^=cvx@IfjbT;pa`k+mBrcgo.px?5Fib(wQp7:Gucd}%qPG]3}n[-9iTdS_^l>/({.]{Ne)LVb1-shf>*]=#V000000EE/^KW`t\\@+XC8h[+ozjZ-XfykxiQ#J0[mpeOf\\+ANTxKm3y|{R@#Ma3>vL63VVa8fbx*)k7M:a4CK$E47pML6och]<AL#.|#"duIF[p)'
p10
aS'001e'
p11
aS"qoX=9!WrUN&JS_h(3ANHDU26sTie'n"
p12
aS'002c'
p13
aS'~E<4t"Hx|d<%O\'j]g6d&&/9&M:%5%b.yZGE4]cavI2+V'
p14
aS'076d'
p15
aS'~2[N_y|3vFW,;T^%.M\'QD!]"(Qjj!@sWA}opV8b-^M<7yMZBoYI4?W&"g/+Go000000EEv;r[C@IIcR\\AY}\\;+b_0;M(KMZbLxdPe}hb)X9h&:+up(Y|ITRHOS>[b0u:Kaw)x/K8JyCt>1x|j&YFR<&{4o`)3FX;yTnx/6szuS#)Eh4F>~!}@^UPS9KQ\\-D3Ha\\;k_~ya)Op=ka4\\lBJR`4x\\40:y{!<f=h\\]f1D\\O(,eF"UGQ-ZDU.;@L]#v~::s%o?Y:nw8<QvIRZ}pzpn;&UeN8KH_Xyl~AqcsuX3|+kyu8;hQY4000000EEfGxj{\'JNSSuZ`E~&d8MkzD4a0}@N\\x`\'isUI@J%/G@OyKEXu!SWapwmz:k"j!=mvk_d|,-Kd2hN"DqXJ!6GXMId?NO7!#.\\TD`aL32*w{2(;)`U8#I9?Y;5Y4X,\'|1\\ys\\_VmLhfU<Hz6;G7M4G]lbGH#F]#wJS8qR\'aN\\FQg&x*_9\'pog>sX}/+KbDr[`\\e/1+5$cIyy8GGnTWWmSk]R#d%m2m$UM0?,GJ":cxe>dz)8C000000EE0LRaH|"58.-pVu[di7NxHrQT1ble/3_(:=2E7x7)?v}g5I]B9Me{\\FM:t\'TM7OYK:zo6d{(Z>=ILc`~<*c\\i!69V"vJlbE&WelMM]5Un9#8<wx%b)P=@d3@s@T;T"pk+boL-<ZsPk56]fws=iAD";<TKvv;!}R$;uhOV!$s\\e~iX_q2%#X$fI&@kf""IqoPzsMT24}K%)0\'_R`70&\'F,\\sID+97RBW}T(<v9qwwcLONd)3000000EE}dNbMzFeBu)gPsH+E<\'`pJh+K<#2E54=FTrn4oYEgSw|qccbbTI.MP5\\zv\\[2L7wJ543~2&%fW]^S,4@ACRXrFhjGYvG&XMi"R1RgU(1m?3`wX&MQ%yo3zp]`Lz7+VoZd<mxSG8%O_gZK$^=DKK.z+ep}fYpn%*idxz8\\(%%N.bG}u,L3YX^2s<=;Hvor+1cv~^Ck\\J0T#%Rzn>"JJ="A;TZB#x*}^\'^l37%,l/h_iA[~_000000EE]`Xn|au{v{FGM|D$<W/*!4E>F}[72AtS?`@_AFOCO&(hG+BV6<N}J0P;TU)[8tv"W~Z<Z*9TWzC@135.2-h-nxDcMswc/IY78:\\:9eZGt@+Yj[m"Vfy}]cLM|1$HLvx`c"D!OBn)%b8*=c30N;m0JlZ\\5H{C}ed91IsO^5k`m{_sYs].oYs:/M`wtm!*";k[/H|1q.FTT=<[X<nT5DO@m#m?{OD8!FKh_Z;iY<i~,uetE,000000EEw=Tg:rp3_yd9~C\\/$s,c}SZMuJbtn/BcqtgLX_U#,ZFH\'h6^i^t\'<G!9W{OY3,x`Ht\'S:G>q&9daQ`?N|Y[vb{;<xl6Z`z}X_IRZ:n+~:N4C`vi%EwdD.Ebjf$E[ojvldZj1)iK,mg)%P{#YH8N;KyVd-(r{J]+zxx&=f:$.m^+]\\W%P_KBX;Bhx5W=;M>&^gjWf|CSz9c{:d0J)l@H#n\'gPL..c](emB\\rm?aE6[}JZjt000000EE~WiZ$6T}[0$P9]FdJbf)hg.Z-^@rc22cCC_*2rU*fCU_k7-[.r3cyaaBzU^7/Jjx,)<>c=]m^N|=,Rn`Z&ggI$]1@":PL-}O,L\\kwO4\\M&+3JAX.PmWg"EQ#E7`PWhEmNBS><~@"nIuK9%S]HPZ[,\'_zT+A6KW,uq|ek0M(l"mTKPyTQ$;F9MpeRb&Cv-K{xjcHGzF|P+c-4xf5m"lc0oqF1FMy6Ed:aa]eo>f]LK}x&Bq000000EEpnifJnJ<=}JZYLM\\`2GvT/g*1Kpq!<9{$3LCdS;v`qX4*zO46>{g(zKmn6t8P?"\\)Q*?%WVEh]KQ@6FJJ_cNzeEC]iv]=>.??qM:tgdHr+`%6M'
p16
aS'029e'
p17
aS'!}N],~k^h;rh<zd)yh\\s^+\'MuCAGw`Kgs%,>H98\'41"lPs+~dQ[.FcQcGO4]#$#REI~Hs(ZU[:mq_-2pDMn-I,n8)QR*VKtB8][;gJ_1^f-QT6[LbvA/TVH&rhh4:MYs000000EEoWCh`H]ou{?3Kmy`n=Pz0"U85(>tBW_zrA[;</U~[ux>voi$`f}k>eM\'&^^V3gZo^qhx2\'(toXIB*]Ca^xEf^)v?*D/UN"!RURHd8/t<+W02>!Pu^8O~(0(s_Xs.8]>_@HVC:5{\'->sJe3/IE]|:yneVhy?F.n/H8[iWcL%i}\\7:vVe+f/kPu2qsGi%M1tpk#C1(6\\O\\J%,<.7khP9:LtJxbEb4WYtzQ1|~%6:2(w"[\\"T000000EECe+^}UE.%)CK)9N]UHUueepfoCF]+HK!"Ce~hfoVJ:_{NQrAFF/ygt?Io@a-:L)s+B2/5u~X7|i*=,OkPOM!(ek"AC)41%1@7U`p[<+KAdDu>KO^Mg!LG]iH69mF2x[_2F)k6]}xz+I-~|+KcjexxMgF3eRR~6!\\Asae<si/yb}Leh9[vq,o\'f3rQ+V>S!|DVCiZfReIz?[L=8z[Z4)xd=\\\'ppAR4Mg[yB=x\\`^=\'t;+=N000000EE`s|wB8#;D$g%7AaT}*]s76E<;"4:9QG6~|CoktA_Hr'
p18
aS'0017'
p19
aS'SBfZ<~^>n/bSytlPuqU5IIS'
p20
aS'004e'
p21
aS'*(;,%Uuw:=AEAt9iTMkh[rDTtg;17qG)eSmH3=pa<%Tg)T.c!|IJoiC&:dmz+tvz#%APZlK7OJX%1{'
p22
aS'07a5'
p23
aS'8rc<(cM\'BL~z:$\\#n-V0Nf;h0A0NT\\MnmZ/\'?)Ux+,IfU44MA>Z\\/I<LLM=tsY1Ze:vD8p"0^>Y+nUa<u}j`d`vhNc>a}]r000000EEC3E?=@E:su_U|o5o1P,~0_FQACm2o,*qg6N]\'ycV-UX\'<ZlI\'WdJU&0Z|=/G5E^!\'FJ:dvJra9au:Q!)`!k3jZ/}QlpN?`Fd_YJWW],0d`&MB_6RukRXe/^o:5KiP9fI<2bz5t=`zC"~Q6]%uGfB9sM\'r{0`BKy?//=xp\\9&\'#0fkPtRNFAJq(>+^L2\'ck,*JkpA0\\.q>(9^~>k#E?*60"\\Y]9x#$+P]6Zo/:+{b{:JbzU000000EEB"-MhXm+|[0PqJZ[iNAflj"1)?+QuD/l16juT>rM>fX~axODfF}sDjM=tN;Rda>pXLp3G@FD.XUCXSVNs[/Mc^6.dM^9_}[[5~!UQH%kDE4w#qrl/irT-CNLHEw1?_#A78oT}w}+AG:#LCE)q=P9h;uyK`bVlh,To\\IP-z7Y,41]Ps7X,ZT^^bS=kRv#,R#Fq6s::MNMV"WY98|/`G#MMVbFk(a2?Cf)9i6ljrwnI0HciV000000EEoxn:Z.mB$u-^DNa7(]n:AA,hIDO{mSJS&4@"VFCK>GcRrWv-A5)0QT?w\'#~Dl2jkmovlek^F$P/2[R*M:{?Vuvmz;*TEe6amUR[Ol\\Xfv"{0w[iwCbmsRtz\\N=Ei;mH^T6:X#y8IJi:v(=:,8~=tg@vo~df$aJ^q}()iBw0]WTJ]-7q5\'Vp;jlyof9qK2YamVh;ShfzFt]/4y*9l/5RRRl&&=h\\#^k5z64C\\d\\l>O#fn=+000000EEvoDMk.=UUT-LPgc*y\'h]by/X?zp8()iqB]@[@C@8Y({mjz5;d}lXTA?W"4ME;NI_##lvs&2U4-ceRM_,eH@!p<.iKr]DpF3kQWi%[10hs2sz{r>-N<(Dwc&n^\\rLTAQ&g_?b\\[kW>*vl8G^,#1l\\~r#Wi6&ZX`0tgEM[1Fc~iy6d5yT=/w[(LOE@bx\'is9i{jAdD\\(9T("SxA8>k{Y]u-xihJ~Thx">t>&GSNg,P#Thj.l000000EE(c5W1#$EWR0usoR?wg7dFyP`a):%=42/bgCW)gE/qS/S-98>7;Kik0i>}=%xb]hT(r\'^/0%"z|"^Hl.YUBKvy!=`[|G%=AkXaa;GI+0IWa],`Gp~^UU1*U5m7LM\\8%m}2`t=HP+H\\fB/y_x4C%Vls;LvtR0fH8Y18P=hov42We02/ZSm,Dm!qQM,m_k<Lv{YxxeMFuoxQU#Fu<7]+gji&+@n8q6$}wlMN8|$5zz.e}>mbl000000EE6nwcy=*@[,w)l4k`uzciE%KtvwGFRQl=MTNJ"f,6X<O.zy!t$*_Z4%[`-123DjXhVZ"i#c3}h?,jTSZc>.$Q3zQ\'p.a\'^QZ4($wuk~x;[ETr1yb-h;$kbpKP~,z84,*+>"fJR\\ZDt.<xFj(1<:O)dV"A0e{8sNVB1po=m*KZ\\J-C-`L,)A)r,+sH5FcMwg;-_\\2w59,~p/3"wAe<^$fUe+[Xc|_R&2F<s>lRI~q,Z.7Y?+000000EEt,2RwpzEia/G|k1a94=Ak=,H;>rH+/x\\x81c:\\[rUbi_gJ|\'1?ABTsm}U[|gHH]>UG1eGbV.WYVl_svX3>P+]!eUlah?X.&&<x-|.?3v]X</I0uVZboy4)jrth\'od==*Cl:R~F^ZeMwZ8%0tlatc,56N"ck<jI+Z;8[&$I"T,[YB05hzo_doVNEqUeR~{DhK=O1XC9:>F)uq2Dj@`[Z5$(1^3Z2/?p}fM~8zIPm)p28<$F000000EE0AtQ~,SHb>"QH/}S\\ejFEhvVTAnJ\'S9.$~4DYbI~4b52T\':nO`{TOs.Q>N;];Mjhw0{K9yq,M&XY\'(vG6.|BllBpm;\'zwMZ#{\\Vkr8F[@<>yR[;Nh9Tr<oJoEf#lh%TT[h&!'
p24
aS'0329'
p25
aS'Y/v]-;U"xM%EJlD\\Z[.^uxS-3RhyO`?&@69J7\'t+1icy(z%BcZ)["aMv1GAfO/.-j|:#z)A4<dyu#Dv_6/XBC.4z`q5>u26:E#\'<5SFYYU000000EEe_4*Q,%)`ud#"H-C9}%UjzZ4II}G(pnGF]j\'bzYww?7r@7\\i@_/};mKyr-vK8z6VRErw_>NE/:lU,#OE{Kgb?.&7][Pfb9K[oG18*OP)RU(zne:EireO/@44(%^+SEm^cDS~9OhFeCpK,XKYI]r8\'oh?NmoSk2^x_823&nfNDxOkC+X]PFI6nt\'l,N=8ia6{-T$1m5}u{y)Gz3soB$l"Ul}:j1D>/4d*7@$\\-c4{iLnCiU000000EEt>#p4`+e\\{0q+=b6e]I#ogt&MFeDV^PHQEiG5Mu@OkpK_m)IOH8;f$o~[0kmpvu%/#7AG$<|\\q":jT#c,5(a{ZOhiEsh?&fL*{y-bG^Al\\E*XSu*iA]Yj<pJO:#@[N\'.r(qulA"3xI8YqwW0YFsX@+9I{1gl^.xf&T!8V5,^DKz@2=C|2"0s{Bo2q,lzb0C/47qHQEq<Z"<mgUv-_xc,6zin.Y^RPZe+>sxsP7rXm-"1+{000000EEHs*{b$,OE|5?VO}yFJu[f{c-0X8\'8P->d.)#k]4)o-PAL~eK(2r]4J&Yb2F)p]`{1%`/d;&]NDqbOnGNhdnR<jCrTnSw%R^^,1SkN=-Y6me^8n"~sVZRYdGgZ2H80#R>9#kMgi0pxK\\<pPew:Gg~yedvjIw(v)Ic"u(FfSD?.;*_kYN8vyb;2RajZ1t3~K0=8vrGE]c8ktv'
p26
aS'02bd'
p27
aS'+3,(%R-QsQ"Ei-14K4-eJ+[wE54oG(:oQt<000000EEl;*g?DR@%2S+8T!m/twvIdyzK<OmsOUAe<eYv7$8&NBT</SPEJoT&Q<lZ>3=<\\gLqu(G6ko|Zq,,-azMgdwA3_s=>:SFhx9c<(Kbq@xe}c,.<\\dy+yy&UNE{1r@(29^#(/B$S!$aQ=f@sTt%lMP)*[]}$I4wC]D^Axpl%M[p]mP]QDEB6Sw;(v^8mcLZmb_RtQU8SqV1Age$L}7{GU:aCn.s8u%+j[S2>u+(>2//}U\'dz!000000EEBv*!Dm>osGH;(:>qN*`ood.dd3H"tBgutqMUF5`OL$dZnG]V$#ORxWJnDH<i9`Q0dH1ZdRSu0m-d|6-Z2fnrvT4O<t#S\\!61wTqah@W].$n?xyy1wDFf`:m8lQ7nY#zonv;sli&xrba@*,falX[DV{|@<;=q`8J^\'^rnVpo(LFXTBb#cMtS}+UAdhmpZA\\dy^Jc(\'pEdSjL:tO^#1QzHTXRRu&lkvvpx*)2LE,~.m\\;T7I000000EE37-"UZ_4~p28o>I>EGGpUBNo0KrHI0"9p,xQoP8jd*.iUNoV[W`*TIgo5nO|V7hP-VAS@f%OkVmmy..x6W+[rm4!Iyr7,A&m[X1PlWQC8`|d/,@1!)y&mM;KqS$/l+TeV5QPxGaoX>~<?xV8,02o4q.;}+<L|to\\##S\'K^'
p28
aS'0013'
p29
aS"~y]Y~(\\xtc>94'Hqb>H"
p30
aS'0486'
p31
aS'@)+LM#ke&SRf_"##AuWs-L{Sc}8|+v^S(jG*.?qb%+G[]]B#\\g|JU000000EE-7%ID#Hq}SY?aqG68b`H,~8X1K6p%v.=\'e^r7YSW7VD#}|+RKAO[40A^u%o<1xHuUu@$~8g-FW0lz"/[jv0m]zo[~(#,YzJ"1|v:]I5;fkUu)qqQsh(T.)#D\'.3t6ZR~%_j>etC]O$pw5`x89")Izc<t/|-Bb.eh@cQ~@I&L0^XZ25P!khQrr{+dl/l)0KAN\'\\.\'uB)6MF%JxL?owtZ)49WgP[.s|^YFR>4DT"l$9`12lz000000EERj`&.-fT,P2opw!H^=Qtfh><3Zqj\\:RTK8VmUv0eGqSI)>;H!RE\'[;x05x1k5M|_.O=oc41rntyYiA<VYT#U$g#"ls+:<p=BPe~u\\.#wu5%iu]uVj5K]OTYfhWbpRV5QqWf]4?xMie|T|CbvLVGl>`)tT4Til-V,T)3W/KqexT}">Iqa~|.{h@Rzx718(Wo+3e6h=2OqltCrS5\'*UCRNm.@,fD*@{h@)gV+dVBgJ.1kCOo000000EEif~jA;5sqq[K|B5dA%?>nJ.%j.[WX+~A~yG|Sw$:}K1*GxGw`u@}y)X\'_v-@\\ptTnfcaLaX1;ja+62z=oJ\'+o_{9xW(Bk?qF^8"SCFFVjcM^=Hk8.=v.RIz$&j^iFmx1`9pR|yFF+X8f/W,l:c{3}"Hc;Sxu/+ZF!ad$]kX6=`[Y3Q?AuNPK+G>jSGHy:6rp;_sMu3p:1Rpf4eYwO2l`JY{W$t-OC@N+TTGN"1"5T:WYM}000000EEIeU\'?)baoqe<H-\'wMq][D:Fv}=5{!V2*~)ANMaDXJ>eqN=S.@<E;"eUnz#%ubGaRsJU`StPbK;!&<6s/IR`tC}[w0qXuoZ9?2VD%&Pq:GVi"^VA3U@XO@/n3j(n-@q@utm<%qUbC7HA#sFpSC6_vLjQu`(\'M:&xXc4!iDultPerNh<AnlSDyDX5:fMSp>\'Zrl]e"dfq=m^O/EwuGIKN+/8Wy(8h<oJEt<Scml[H>b`-E*^000000EEU!T1b(*>o`>atnW)XBUh;.xNrBtjlS7F6$tR\'>a@frW.LN[p`2:TlLgcwvK7;!;~&0\'Llx`>B#|B/\'U;6j4hpT[d$JU+k+[n/8\'?J@_,xlfDF?_B7'
p32
aS'0144'
p33
aS'C*0hzKJCe4}[-@M.4Xh_x4fs<jC22JA&Al>5|q@l^spoo;k*yN3O@0EUy\\G:1_Ak>sa*ZBmNaGpsCS-c2a&Pjo{f51eK1w{Ugkrr9;^^:_g~f]"\'L>I~hk+zOw]ff000000EER$^#7G88\\kCxDWXTU5&*A6-`a)iK^[Ifyxlo`Y(kc#LHAh}N%#7b4SaKXZ4y78sRxh7d!]d$qhcPV0K5EcLe\\|PBk&7ff=m4*ot`Q7E>)}u*(>7E:dm5hdsv}~#y=5qU"Bhtl@8l32*y;lzT\\|u1)VoOXq{Rde{o(qQtM.~C68_QnFD3)yrR4c/wy!b%u$1'
p34
aS'0527'
p35
aS'V3Sdp[P,qP`S?eX`$XmvZ"[{~OJF!1#J`uO#}9%r1Guq4@N000000EEI\\}/nOld)%+-{\\x+7{b]hH2`G)O~e{d(2`^Ei1YZ=nmox;0ZoDIWN.SsJ7!N]ZHj&\\*w^>U(@^ID([Q5\\.q(T-Kn80oSn{AUW_D.PWFzo<5>hERurgQzksxU9b>Le"F8>u<{zanY1XkvY#oKw\\Cw&"&qkJ[PsB7"G~e#L6A@:C.>zpYLc^#\\1a;L+.5x1Wos%Wn>1/A^ySYwdH5GR~II0ySg3iYoRKnw&{D/v%m^!V@S0}000000EE>h6.wk.>^TxN:"VO/e4:)iAXzA\'9!F6.9.mN=\\]tdEWFlJU5CP~0<X3?9I:(i>(<wMMHd-H8Dho.$!#n42q=ljYz,c3&me;;i48FZm@a0-(3:utOjtNqzycH3sO0Z}z}=7NS:4_EYQ|)%*SK4]2b?VUPB0eZCh#VUcov*6P_ef`BKp\\?o0HiIX3h.QWG\'<gE/l/:Koh6`rd3%BS2f\']*U|BhTuD_2x_%S<UgX_.~sC87a)000000EEV_<7!es&W;]IWjV~eg{z8"s}/o1IoJXqZ<t:"<T-zcLs,krK`Nn]R0;6:B,+jET7@dZBhR]T\\#?y/Z3M)(u)f7@kU6NS1En\\hMS#lKE5n3YUCqB~<^b`Qv~3@rZm/xqK\'V%TO<bgaXBXT{VUG4P[m<PA?|?X.(6iIEC7F\'"!aQBLl\\a|1{|Cou/le-fWM2Hv*{cv:c-ZjC.bY9-O:;owSk<xkn>ZqN;Y{q{A*JA+n-iDw1000000EE9tmaKt[Kj6)SD|{@*00pmEgU\',lnEclWAZS<<<9}LZI"$7Va})QEQ_e([G+DE;8[gX}hHL8*6So0`:(/$Kv6cW_@\'1SJ4FMnC$Y>atAS\'SM`Uwc7Z9A[2P&gm\\+Y%C1B("jqr*aOXTh|)a_I*A-s"}s<=YmG_6?j2QM$_<7F@Q]g\'C\'];GAHd$f\\KP)Yl#Xog~UGIG#oBX};A`f\\2~H=K84wLja6#0Aj+UPjMm~&"[y*W)000000EEdO::dj?}Z_"=Vg30B{jw`]9\'Gc5DdF>G3-t,F*y34vYPQ49-E%Mg%0rrYjb:r-%2mD+?2i&i\'wU\\b0?cNxVi}4quP6s+]eI2o{>${7E1M#r4iCO@8oAuPhNzmG\\RgMR&68&k?E%y-:;-L/b:~NXlgtr:f/2avh5oG)LU6A(jLS\\VC;[S?s[`E[wt|["<!0N:\\s#!rbeBt.rnThwR"e`f`#C{<B1(VVG^5Ei^}NcvG@jGGi000000EEK"Qk\'wpma+zq;>8M~=6PHIRP5<9O0"5V\'L'
p36
aS'000e'
p37
aS'0oJP{qje[uHs]u'
p38
aS'03a1'
p39
aS'}HVrv<ZQUy4!}\\U45s2@XJ\\7#h/p"dw31s]$C7F!*Xf*==K?;zg7qjK-w$~[FUq07yV4NX{_nAh!RTi@:[+wi=RrhB{=wYE%$W8tpEQmTEhshW!VBu^w05@p:9=Mxx(cK?LV(Zd$~;g2<_P9uxMv)ccl?/z}2}aVw@GA_-k&%G$cYPH.@k*N4?dH|k{%To000000EE?WmyX0hGspj]Czm#V$*ogwa"!]Hh!^\\_Ns~+HGH<#J/?g"jh56!E*`ZfqC_NLE,9Q?,Uw-wQlcO7,fxzxBROth0j\'Ec#M-*KAd}Vze}UKb0<Nnidbp<F;}q_5?zK^<x^,;a:`L,}si/1S}0i]}:AU~7GlE"35Y[!@P4o0i`u;6Y_hvvG$hrhCJQj?cj1g^Q;,"1pl?BQXU45R}lBY$8Na%#w?DGe\'~>Kg1du2D;}%,znZ!000000EEg9VB@5fov.>Gb7Z}g|$Sj~.:kd86uj])E5R).qO(O\\raMY_/1REg\'.&]gv-WbD6Fg2z3,he|Wj3$y;ckP:pv%u!txvr.FJ>FMx9N:?i?Tw3Axh#Y$XhqRSUX78t-CZ6q->X2x4\\udA]9n;0MDGJ\'>yHO=*`5GG_0C?3_/\\c`Y{DV.Mb<6sNE~]I(F*?S_$6Kz7mf^bI/:S@1iJi=qF,0?o>,Z)A9L$d_Ee&e+XEih@q~"?000000EE)@Ii-<gGvm~>=p1efO20X]]SW0Jse7jbnfA;9eOztfvm`NpfZS[/$3+-bk8taLo\\%CA60G\'8_cn)]]e95<go=f9)lF9|4A/;D(m@^$&9dD_-M,+Us$t_L_kY^!YpnEoAhFXI+<Y88S/B1TWaYq(4E{U"gz>\\F5g_#&zM9hFnO)PLSzc>!hq:%Z"eg5Vn#kG7yml"b7dlt+]:+Y)OfNjv7U8sa)tVNKK6}]&LOcX:|1A_k<0'
p40
aS'0006'
p41
aS'00000E'
p42
aS'029c'
p43
aS'E!aY\\G8cYYy[U66G+L:^b9]2E1n|"f&Q6vTDsdWHhG1;F$o~y(E]]8H<_^X}k~Pe!3rn7m`\\\'<Fuz^s;2m`QD5EdB7)OV{mCURXfT%bF:2i84;U=x}2eJrJKc5B6Oec=E|TS038KLo2mA+r*R=0`W7v@<8|OI\'iC.i!Kc"_2=Sjk?ygQ@oJNU_un}1<v-t+)}I}$H12/lIOHm|;L@"x&>`Y_]?XeA{b3Favjm>V\\;c/NWLY000000EE{\\pE(nauApW|YBk}Z?QDg}sF[XxU<hmUYtOJBu[F#D1qAz^peN{-ts\\w$=-sPTy[LpR9?GQz(a`$w.GmprBsz]_qlF`+ns"|8-C>=P~kk=kMP$S);o,^+jnP=Bc{j_F(9k#!Q+s~(o2$WmRd&vAIEbpVZA%=E(m>g#X&=u>LSA`|dn/(dSdY{u2Aqxti%G-0S,vX\\Uvgwx\'|[cPP#MA4zJ>*Q|`TOcCZ\'GFQ#(xTl;K06e000000EE;!8SV<1HT#4X@r3LQtywR6b6>jJgA)@\'i<j3\\%A%\\?$RYB&lA-|4rsxx:R(dRBD:(WOO[YCyJ~X7L-c+`J"w5L=WLezr:YH{ZZBrbo12hUd$[=fR[YtWjaFQ_H\\cDY@w\\\'@V5uh7yT;+*6gZv({c\\Klmx"DLcyK2}lal\'9}c-v;D=m`'
p44
aS'0005'
p45
aS'ymmy.'
p46
aS'023b'
p47
aS'b{`]f9Dun+oTQm9l?x`NA9Qt"ROO`TrkH+8sMK*>{Jsfy8(xa4S@O/A`X_000000EE)is<4|4]}ErEu.!T_`X*I5sgV1X}E6(\'l+z[I.wJ,DD\\/K%"iB#Kx@%d8<ltJ,i\'gPbE*U_Bc\'Oy=Tr51c+1\'%sRb!A0&t2h5dH%fI<sw}cLZx[yde*]Q~Fug#N""77"^G:#`%.vcc~*V9*gm\\\\s7S{c}7C#BCqf/V[tM{L8EG8M!")WHT%7rJwT369C9<]zE^uCJE+f=c-gFI=yr9K^O"rIscc\\;?^["nfp!09,L}std]000000EE#L6?TfND#*W{0O"bZ}UJc.pSmG;4d\'}Z8Go1Q>a;q|s/\'u&G\\YXmL@WebXj!~N/Uv0.n^z(!Yyv%2L$LakZNF;6yZMgC-\'[e*$Th_mp/2K}{Q-;c3F44*)e=vCAIg-v76U?#Tsy3u&(U,e/f8[Qi$nRG(1QFES\'b`T;-LX4Wyn}YsOM@"LDg&YRLAgR5w%#N6#M*P@h[\'bsJ4@DX#VBeBV&>j]*32S7q\'V2J3Y|=[>!Gga000000EEM7Hjik0Bkxt;P'
p48
aS'001d'
p49
aS'%DP&TcY4XgV&D73`iqZ6BQ_Fb4[U7'
p50
aS'00cc'
p51
aS'<w6%y2)3Bxrpx\\S{TH~}=;KycW\'`V"}S,|^f_^;X<$?Qc{A#PXma6w&}GDD_.<)D78p\'m7PI)r;F-/WcR\\Y|nUc2\'rjJF<i1<ig0Yd_uda)>8NPtgxhnQoR9[BS]bOkxi6^Q^D8(7-Pbtj)jRlYs^UgA,,~J<hz[k)af@U}ww"9jY\'l/i#{D(m+/75T?ALl[=.s8000000EE'
p52
aS'0121'
p53
aS'@yv-ieId~fD;h<Mrjf-$~L=Jf]J?uqJ%;w|a:!!Dj}I}gP"_zbIPHT1,G=KO2_wz[vp1osr(L,H05U`k,G::`lqE1<c29yD9rP7+szAZFr|eDujSG{SZyRMp?xFRm=gzf;uM\'h\'^8C}a(q$c>sTp\'9\'e(dr4myYafIBj1gyUfHBj%zfCy562#^~<o0ZXYM{C>&44R(r(7K!>TmJ^>g1T-,()E3\\,6ts"eU@5_^}bi!mN5V000000EE~ni8aFjBk[|mJS`Hu?qB]I}NE9+d?={GA$$W`cIMr6\''
p54
aS'00b5'
p55
aS'&}Q<o3=BRN_"c!_BN"aHzA"YCqy&`ybYT;o`TG9<ZhMR(pi/02gCVs>Ud^H!=_KkjjUcqj]g~\'|#DsM~wgrt($I|\'Z\\:XKoZ./r>I<uzcX]*y*u!l+\\dao8E&f&A_A2cs;i"{IXgWN!_ZO_kYG)I1]8|q1.Z/sYw\'mY:sOE|CiLO-ol4}cK4%'
p56
aS'036e'
p57
aS'M1WtZsM75Id{{Z000000EEs0zPH|}ct/cL^m7ID]\'EJ9>e;28B`&xn>i,jwXiU>/[b\\N"B~Mg=i685%m0bb:kI,kOP\\1[{(g:p<$C4>OZ<:}%UZ/E3qJ|X6J;Ubqb:f[E!o#FZsv:n]u&x*X*uu(LQDNo=XNex#iuNI^K#.X5Q#v?S7O3"\'dQ@L>n.+|}OGW;];HMFHPZ#kH,zwt[sn(\'s#5%VZl&j5ae#4;I5B]]CvyPl3Ut^}B%~bqYNOWXNk;]nGj000000EExz5?buiYxv}q{VwqPUF]Fg:7O0D~gDS7WH;@sa97}l)vm#:Hu@t)/*^+QhOJv}VQy.JH#cBu_ty0M"~x%v):co0p(vkYh-bj9k>@QRNVnH=Pw{qj#g>5FoRK:6|6Dk4rJ%/}9~+T=%_WmuRogj<H^es`p0a0%/[\'+;r6jL8+R,_5IDjXV^og`rq3ZfvwTc#[75G3h4B]+oI\\>N~$lV\\"s4q+3]PrmI)eG*6EWt*vTW;E<}000000EE:p"BZp$]g.)"<lEZnD.PR>3w8sNlj?6J=<6XUDw}CqpE\\HtFI2C\\`Pd[%A~8~+g4GDwTH_tiKO;u+53+w#kV87%1Qj,RYFdeIS#=4emv?aRHiYA.IN2HK\'\\O5O)B)ZZDJ9B{`{7jZxFYvV:tMj0xz($)Sd[R<k+i%xHmMqPb3o8Rsbi3tmLsf-bN&,x{<X^:w+M(1r\\8O\'2,_8dY%>l)"Pm\\Vi)3qt7VV5J1q/?-e/L|{(000000EE@21,&:r|~y@(,?3cP]UBvi$IuJ{zfd-qm[")H{\'LX0)BSF"7dY9i>HABCeax%J>cnY?.lc>dA2\'krO]tkTH&"=R5:j@Js.=}zKLtl\\A:x#[,O-,Gr<>[\'C'
p58
aS'000d'
p59
aS'uT_ruo0~,Q**!'
p60
aS'002a'
p61
aS'W/4Q)B@s|Cww}G)EXbt8;kPrzQ8+zG*.-7b{w,Vdnp'
p62
aS'000c'
p63
aS'wWlzG7~sA@)E'
p64
aS'00ca'
p65
aS'kv_5yO~\'gVqv8ZS>%lr_^q=_wu,w/vJ#5?{{oI?<}E_uzPk.vcW/C000000EE3KUqLhD1Hyo1=.\\WD)PRP"z<4qQK7V<6>-./&I.r4\\t_t$n%Xxwm!30;v*HWh1.6`2$UT^[8$iU@"+}b1hKeK!}4_*]5XC[\'o1=wxa|%uZ[f@}k{_sZy73w_-l=8J@fOI(\']q&}#X4#iw'
p66
aS'00a0'
p67
aS'!PIN&)!6`>ZTCj.R=eAst9moBa+0|k5sZ>fkfXJ91R2Zu}lBg+wF[lG2La~,@dacS}$ZD71E(Ky*AK1^&!*.`mtiE=iKWCVs~000000EEb~074k4}2DoV?W`L5I8u$,%>l,D$OTlUkVu<k6gq<9kjsIfTG?{X-^Q'
p68
aS'002d'
p69
aS"kd&'>i;,^t<pRsgmsR5}|I-[jB?w!qS2tsv-=j<T;lcKL"
p70
aS'0518'
p71
aS'<~N4`y1!;}RW^\'40#uj3QbO<[?r-S>EF!$u:G(q+e7s#bp"y|R,(Jd^8:IEaSM^:`s]c]*rpUo|kY@tx@^ty\'ZmvYGwQ:GA9{Tmz|hgVb>^EDl/dl4zBez}@/GG^m}ix&(L=@>gS(A000000EEu;`&M3Mt=M+PcePvBv+=KH>:z(FWhd2&r-w.a[AaV4!j=S5o;g8#raH3p5`;2.wIb+nVpPRlxzI+&$_QWu9_W^=$qjoLLR*$^(9:_&MranmV%aM?U4sMba:WwF-C(1|B4%x%8:zjOs)A{bIdVzpca6,31-G}cs;#sW{f+Ij~$ZKvQ{&(*+%s%y/_ZwQ1zAo.LAy@\\;R8~2V\'!iO?UMF}<euctW0N|z#|jc`M>W70I!H\'/!000000EE%T5bEIS|>Faw>O>G0I^`Zu<{n<IXq{{(XLhgqmhtF"2A^L;~t>2,C1Sba5<y0b!WN^p3<w7T/:klp*{n1lJ#:OxWi.zhwO/GPGYoU}Xq57"zs~@UFj:MAfpiT|3y"hgf1\\^]nOskJW<F(;KlsvY3K3=(MMyk8p?@{j9OfgR2^ODUFZ-Do.J<14r0]+%#1^Ff{{3L9Z\'%MC%K^Z#zTY.&ah{8sH)NaJq5wH3(|j=^IlS%dB000000EE|Ma?y\'O9^#T?R|FFI{ZSJFl6"7{3%)n<3`,b$pC"9.H`2(jX0{b|U;/(OfamCv!7(4zfPybk\\[&t]{jLr3ylZMI^D$JXCQ_GJd)t\\Z}kZ=p3NixDQ/JC3Rc@-5\\0o2O{7v^@K6q=l?vHoE"qIM%NNYf~qO0?fpmd_ot{c$f;jAySHd<L?w0zY<&(\'m.\'R$+xK{7[!yjG7P`SUga_Sv$[#^L/._?6Jf\\g@+Rh7nFjYR\'`m(000000EE%8xz6q*zi6?Af*VE97-:_KT[!b.shUQ~K)->tTZM6u/uLjy;Q$a:T?*g_TQ!LG!6RlILwz@~{)FTrfk~wJ4\\q5|(*dQ|A]`{*VufgbM_S.Igr1+=E?j%PIEoYQq-Ggtl;U(CL"M]$=Kc-.LJ-^ep]6%MOA0Lqj;waLoLj!?tTbYE]s^AMryuo&{q=1$>)S@;9A8U\\Opg[~YGF2m<.9V&9\\VanZc"4T8<TxnU\'Iu&s]Vz/2000000EE)c}qE_S{%+o=,:T0E[EqzI=!jDxr7P:Uo6"~|}*$BU]{F>dxq6G%nFwp%vtAAjX52h-r_u&t*=AY>"rPkJ2ALJ>ShK#qtu}rA1{p;BV<,&k`*y&a^/&H6_8(1d]ym(Z35I:os;jHasfe>mf_5z[[8_M0NTCVdV"&c}Ja$GQNSlVxS-'
p72
aS'071d'
p73
aS']!%%*)4CFzz]J>d7b<l<g78y6s$BE+ZR8y9Rqh]77WbXS.60Rear,zSD^6R?s<*k000000EEI:y4r4[ger-[Ls^jQKuV"(9!Ou1Db6J*>=j%;hfRL=L"g{k!Re0V@+"E/[@|H)ETA@UQ/m>0?B<:4U/_,:Le,qj`}CO"_Rp|My;)~_)i#\'F4Rvd;;ee29RpREIr$0\'qhB+hOol+Ijpx45(Kx*c%&/"XL>d+:m\'F:@[XkOkE[bVp:DGyDDc5rHVRtrz\'13b~[F0<9nfm1Rylm;}?kLY>\'\\O(2GQYPY,sR5!Go!M#lOhV5@q000000EE&,hOtS;D])le{s;@q=|v9h1$]+C$).wD|ri!)Y596g\'A.h6=>v&w?"@R/qHbSG|R8?0&2ruYaqJ/~d-Tuh-V*pd\\wb+BY7!+TU#mi(&xw[?#0^\'?19#MDO)sDm&U1.[,lSv8:5LOe7]Ww+r+sOxh.~?u?(+,:1F]lMa@(P1pZTEe\\,a6oSJ76E;\\dJDd-4pURpt\'R%(L.m.Kp?]6f1;M\\jn8IJi7WcE)CW^q]L0B+-y$T;000000EEsnY[N/8*detii{[nDa00msrwSUNXf~aKD6:E8|c^"Iu>@b"m.dH|L_XxGIUs=g-diFeH#0_TKyAI9\\Vz%8|1\')DjS4I8zQ+-cnVI]rfEsQ,ry{*;O^o+m,<3kQ;<Id^z]{(}8{Sy&zYYAppZ?xC(ZYy2/uy?4NbM![\'vyT<;qH\'H1;xz>gZ+eCYpHa#[Jr|SP2e\\qjFQ-02$#D3|no#CWav/LMDMNK;*%Ov>Tg38iX/T^k000000EE|MXI6S]9+3O\\K1W?1`W|5xk#2]5svf}R|J=PABu#z^937N=f,eC%)N51$/D2"_^iQsuIjn0S*}vHmmHMFgDg:8y"iZPFha3eAN8Uq`E77`mqvSwt]7[/&#KAj]B3]0/-0&IFat\\lvyiev#M|Nx/p[SGx{\\odl/^\\>eFrz,gJ<R_kF)c&Gwu9].`>B~fgbm\'Atze)BZ7usKRmOPP3#lL5v<GW=F&8cQB:zG3zRM,LjP%NLn000000EENU8j!>$*.BY+w"oyQc,dfef(8K$N,M]W7tAv<RMCj+*G60!gwF?F<2(/!h/eh;rfR\\}I0QL=k[omuS\\]Og;J2M;94:2r#s5}\'SVGRA:u)${\'@P.H-o>a!\\ETOh!QKcw\\j=\\]c-Vp?{l4q,jUc)5}OOo#tLF`!(xq,HFHZ![$ME?J&mZ2-l\\_i})(enSwN,)45Jf@jD+-RaEWQAh9H<=t):?0V.=2(,OhVky7*r!]?"V!:#000000EEoyUw78C6nJL=f2G/.\\{Vrvpmu9?Im)bXR%P)Vu)he},8((LDb??]YeDI:|\'{H13cfBYc&(S]cA1(u!S6<@ADShfgRTKO=kp`G=w,-k.g&MSw\'vhww&rc58,zW0U5Z|fAYRaV2[WB[Mu!Nktils;#E$Z&MRF#PO+YSr,P7B3\\4spAeGxBdZp}(2RFCuv4WGQ3z^(osT5aJSg"w7|<M\\JBNHU@#:h-\'wk(UyxM3wrCSIN={t000000EE[8vZpQ{:N1Oc#On<p{qI{Jii@vC4_F5da}9ZODuluk8CZ_+6riy~O\']^g6AfZAZqyF!LAfnVQ@xr0AOZ,j@S<t[cC#sjrK]?}K8cKAZ\'7^b@iXNsrI#&_.pWK6YNg67<LSR:zo;z`Dnd,UrL6Y_dNk2RxUL^M{30*YkRepri\'A%|Cl1H}Uuf)J`FLbB\'9WUhoR*\'_9\'4[j-xtB\\5)^y:_[w@$M/5H}[K4=xm2oH:b-=!hr000000EEAXM>~O<q5oOd+]6<7kO~27jpKp$'
p74
aS'002a'
p75
aS"3wP0#XqD&+t&?oTXq'Y8G_sy}8@sh-z*U~B^YyeZ[O"
p76
aS'001e'
p77
aS'#rwji?h<+S#K5Y9#i-qFV0^<wcFH)f'
p78
aS'0639'
p79
aS'\'.Ez5Yj@y^uW7r]>bG):+QKeyN)5.[ib"T<Bx!@l,!?{@bot~2ga\'ae>MGH2XP?*4m7=`p3m>w~t)]WSyGqzLve^SN~yYBLvS^D_haYRs>*qaF1aSnTvzlxIA\'-6S>Mq0l*dh!N}X$F000000EE{6i8uOeoF^usa}x*/Qfj_yM(7Ru,CaUTQ>(r.jQ\\qJgtuOY`0+uf;C+Y-@N-wA(;cFC+\'}nA83W}19]vr_[[.wO.nrVusb-n1iM&CfLiS3{lR^"k>3#3cx]5-oSG\\)Uy*CEUzfppywKSCK@Q$@wOr&<b;rq5AWJ]fE7k_:>~QQkP._F|KZ*)p&gL@!TJh}+7@2~+p6}$^5A9aUjGwvM!}p%PL=1yA?QH@w^[t5S>Y5"#^G000000EEz~ZpAC\'9ugdi2"KrkHtdAZd7P\\ppV\'MFUoGop/Y:cba^Ju@i^W4`YvU7Cy-2[5w,$/#y@`.Lph}k0bL"JS<cs4=t}=f>YZMt~VR<B}Bz"}V-~Mw:[xYBDmBQ+`|_hCO(w|>jX[|\'e(IjG3BwHR%lb-$n~vp2R|?"o]AdqPX.a.\'*L<-E=3LGw~YNn+Gt8.L(5mu1R`W|VF,WAS#g=?+N"nL]a7"]DmV80U[w%Q@T^Pja]i000000EE~"Y&O6\\Om2&xrP,!n5L]*>roH)S>4{^)5$o(:&T@9}ZZq&}08`_ixL0p_!|Rj2T)6`1jI{mwp{MZ\\QbPDMt-5SY.f_~{!:#LUrQJW(yzS|?4D#1P(GV:l3hm^A*~>N!eNIl<M/^4y3MpEqFJA9qv8{eY\\x,w7MZTNwh~C[B}561<<#40^j_4wMO8)LfN,G`H\\\'ilihl"^;vZ`UFLd)n2VP,q/$$ozG~1=W<pat`j=\\,pz#000000EEA>GCT6L|`dfV,M\\-HU(4-_BN9K}ZKmtAO)x~Z_i:Y>@!@Ja\\!8F87:<RP|y+Ga%2]C*a:($70B5\'IfQ?\\p-FRQOLYxt:W;S^RMjpjKKf&\'ub[b5Zm1x\\WTNYi`vBBXlo%#H(D(\\]r\'z>c_Inpj"v}{+P\'}sGXQyc/>55=_%m-6jW%REmIJ[-*!5I-!SNJ+gNam}x?Nc?Y>~d<chc}V/4}Hdp_Sps.c`dl{B_%O8{`ciRNe000000EEZ_5<(N-!<!lkWT[lpgt<*Mf\\?(3$._kP#/9fLk)Kg2mieVu;",@=@@H8(CX55tm1EY(_agZ|{Jq4UBKnwBLv6[aaAf39UCC(bZ6tu@+O,x-L\'`::(NiGWPm>erNA.qrTP@3Y\\@)hW[7J"Wd`s\\`T-Lr}W*epwls>93ayG|zrjg\'&Z^wbnk-Fo!;Dxu&:/p>R!Mr4`C^[6{YX[&].<Qadav3G+lr=>|Q}wW:r*:nV?;_!|4000000EE\']xGrq2l^:1vt~"k>}H^FZ2|xNR\'Mu%e]ZR]2Cg,S[aW=@Pg9QeZ^Bcx)R4wl\\a$93NxG4?92Vc=!j<[*p.:Be5\\YSF"|e])O~f^z><-DV1H8b1QP@hF1VxC}#4+HE|cqE%;f`+5!\\D.Z4cNp(SOg@4x4BlI|b$:;$i;!9+:%h>Z;uPq:Z*7xm9`e<cVU@;ox\\qINOAV!,KDk7@62Nn>"y$U'
p80
aS'004b'
p81
aS'\'&`qJao;enmtrW]LMC\\<5W000000EEWmZT5Z"v4=zW)Ofw]{t7v<E6nMTYxvhrDKU`@[>$#0xV\\'
p82
aS'026e'
p83
aS'`kRHwkxz+]nRI,P&;[_nNDh1gkgM+Jg\\UzF/A15MJ\'Q%C#W,<MRk>W$0Tih.Xi_0m&k2gWFD}LEAK(c.S#Lr$C<&5zS:<$%GACsNz8Xc~***VowK2b}/oK_V)4m8VmE>$l=qN}HYUdIeN(_;$=X^D*{N&H.?\'AlZL_F0ED*Nz_x;4e?u6R9\\hnO~T^7drmQ*u000000EE6iu|*>hkW8E@{=|u.Yk%84*sy1(4ks)ex=]#p6b2Pv\'=S7yn->`\\J\'t_"Dh5*V^^V<hj}[8Yv+MT)c4;s)tG}L^(Me-\\(hi}ZfNU^g;O!kFsXS(@&{xgaC/^X{)Mz:ClsrwqhsM/Ppji%^skjyL4*c3u{:E-gQ>/u2oE;qv*6%b\'>&)Ab;->:<7Ki*CvK.q)zp#!&LkD>SD\\6:IBqZDJ`u@$Z&\\\\\'jQkp6cK_^`o\\CZ5Ed000000EEcLP8suK4jd_;,F=y]fX\'K,fCsEqC~ku\')FqG1!}21)s-[9\\-V>3g{GHET?l@Ryh_YzTIbyz)W?Km4P.7H9@a^5\\QTAAt2Hg$o@$?Vk!Np09\'lmX:e38:C),A2o\'4`Sxqa[JUfM7rM1"UIvL=!#isJoKct<c{mrLyQZ2gYrq)7}%.hNt'
p84
aS'0523'
p85
aS'bD2ECdO\\3mRZCK;Xo?K~wayh=r|B,bC}I\\{d}r-{S("*7k"M|PyB_|GP"g*1Q-j000000EEk4ui+08R0^\\SB%~-i>z!5+-p|0i^KU1uH3\\%qC)c[}+`|#h)E)b2#L/S#>T@9S^:ih\\v,LWQwtd-9aGk)bbHjZ[yA+NvM"z/Qy56JO^r>$]XeY\'5DO#r{U(K[j-zr3J$>hzxkCqmeqY:S|${=ho}W`95Ch;65>\'b\\\'_7/.p`ObSAcFFUJkt!]KMidV4fsSS^s.oO~zN2SHM=xz`>:U\'8vOTKVrt2-q/J0n7XF`m}/aYw]Y000000EE[moRP$$Z]sM|qPc3}IW6f\\fGYFDi\'}X!]Xw:zj4@4QYH$RN61z?TD[}1Fo-mM{kArq?Z3cL8@^Cr>pIJXml/kU:8DY7yG\'c#c}aGqfr>{zvuSHRw:2F(..|FzKHzq*\\h;nLD,&-r&XO^x7>0}9dMg?fAR%zNE4hN~U!eFdCV~Mn,_.l#H"~,Mg>+KLUzf$Lzk8]KLnMOCXiw--.5QY+>AfmvURsm=;E16r@n&c[3q"S"W[000000EEu#}Lk5hBt0n\'J-y_&O++I<MB&dZTvku*`k]CpgZaz\';GK+?&v!bJ$k5EqJdF*R%?2Q!uxOe`!HvLcSrbT0D/x453~h|?dKj:ACgVn@.{fy)zKnx[O8z\'\\i&bVp^j<SI=p?JkSaR(\'vsndU`_hi4$h*u1aq_3x;te@BoSR?p:ADMy7y|Ksjwy1r7*PMMQ/+bzKRnUlL"c8uAP>p~GTp+LEm)\\D<jsJzbOXbOs~8#98cHIof000000EEg<wCF(^c=AT"wN2X{qZdO?1A5sWukZ8!)@M+@|4W1b3ilI;5<7Y=\'[?]t&{q,rFf0h[Yzk>8EkQ\\}N]#)B[.H=DuC"855*8/>Z-:+Lzb8SC?`ilW]^w9j_52{kq7>`ekG~hkYwHpaK4pY>Y$rr%7*6lT::/jS|R4YNj=b!_qLx<>Xg4StqRcgE\'*Ge{n9;#tVsyBl3PxS|fhOe/_I&pO:hg/CY@DUOu9R-10O`W?km8|j3000000EE\'$,-RWjS,6Ek\';\'2(1fX\\BF89QCYj~|vI.~r!<^PlVQFuS"$$-eL2n927.\\@K|t[(\\p>^k`kZnm=a@kDP9l~RlUF635l`K*AG:GXW^X]<muIkH{/D*.|)c"x`6{7=dS)\'JR\\c\'QSrpMqA}\\XArfT[S{#zEyKg5E\\V.E$kdvi3;{T^y-S^fp,;@|XQ.Vx$_Lz2JNhEK;7T\':6FUk\'_~$+W~HjYsG5gN=@bPwgNv9GPhwC(#000000EEy7sQBQjY2R5P5"'
p86
aS'05ae'
p87
aS'uFqvY4$%8`8vHQhsz-@ry\'?emP%aiGR:Ig/9U2~a/L.ae@jXRoucOyp#@p73jnXUD<f=7*"e]8\\h7_E/#fE(yw!Iw%,3;W[0,gEx(l\\2jJMsPXTs-2\']b>L0"Wc]?Uw1AVBRQagaq*ny<yuk)I(Nk8mgvEr[={Wb!\\T(cvk1za]?%OJN`!AZ^\'Gp@(/wbPEk+PX=guZ,Or&Wl1m?kqu:aU=y>9a@g}|%000000EErNLWMoI\\]^izH0{5ND$\'xY\'MscT;b&~g(S4ESvHv[<9P`1)m>~?qxTq"N..f"=.5\\@ZuNF/Pux;J&6%JLBp)ciPOS6o~QIkth}pxJ>WUq6gjhVFoPSx,n$=)Dd8k#eoDV</)ulMeV.gEG5.};MnD?&k,<TvMG;jG\'y5wuhYaM#sdrDx]6.~uYZEJkUP*9nze:f8G2!Jx^oCDp.q:>53ha{0JFP"WeFiW(2_-.R]:`iRR^L000000EEAzl[o:y:Q=o8:$45[2yQ|`BOIYgYp)U(+aEBme/U/DjouZ\\AF=H_YGP0Yl(#A(*|"8,XJbY.;p*}@-8Bq\\bf$sKwV2YIXrb|7|Hz6?Z]Wnpr*<S]hr$mCp?juq|ts0,2;bJgoYW;~S1;1-o51`y#yu0E~Ht1pN9ejb,(".6x"sSF:\'q6J!ZnMr`3d&@FJAr&0GRObRmK-HZ\\9*zy(r*h,.}q&jhz[gNvzgkWioqz\\S\'fBZ000000EESoMwR[`@f4M-qvLsc.+W<Rm`m1ydBJGtmTZ96Q"f3z54DByH*mO5^gl(g%y&%VDI(mM"<VTs9*jPzl{kW^uTn|oKvm?n!A9?%KYfR;CK"}IK.)\\%i;Bq/AR$+FD\'PT-(C3NIGbB%vLy!Hxmem9Wzu+,/r6ciGz7#evndUP[L{Q}^(T+qsw@Wmba%#G};"}GY~7nvj~h=o^Q_@^1uZH5hN]8Eg&SWIja4Ow\\S}bKY2$?mNM000000EEJ6M,wQX=I7+G3A"&{]fs4TSVBR8aIF%%O:_\'W@z<$[Y%zA~(ZI|s\'\\3HIFk7W5z~~Z4fC"*:V=fx:r9!c4KO>(7?vke0"1\'P>6q\'iE|V4S1^?3RlL2\\RcYJ_2{`}}4\\SdbAW(6uIH4O$u94eet.NB4%Q"4{b8Ei(qd>Rdh#qlTL+`4B^6LX-41iD8u+D|#4xk~%~UMH!,4GaO.$A6@EJ:PGEW%iY.ZAmbEH:j98.6MR$|E000000EE`;1dRBM?[qvUIKS;s(+biG~gKIf^?Xu<qBQb\'RTS#RF1cP\\;v_WM0Z7]`b;.^%AIA/Ue~N?A2m6\\nAl.QYJ]zG-&>6y2*7I*9~hKieMR}&fKuHmA+AOg\\_pU7bo4]YIa%ChpeQK5aXHrK>|)*:5"7E%jl<VaBM]P`Ar[xFkl*/:KLR^]/^P%8xav0u(A:SD"vzMTC+%#{d*=o*IBzWpq\'K*A*"t\'>SK3O6CasH1su!,Gt-'
p88
a.