(lp0
S'0144'
p1
aS'000000EE<C/\\?Wf\'y1v\'QUsHQlwb`dd0,?nhPI_-b(jr4Y^\\?<&n3|A!A;\\s<v3ZJbt>cMF,G,s],<0"W_oXQr-E~7n`ORW_z]#zWr|}(~X5cv$)pweD)5t}hVsN)K,V?`_O-h,Aocu:<G}oWVj\\{^|L?sxfwJ#rK!R%UjE*YGz7a7\\@VXg8B-Qt-K^(}wLWe,BU_G-PaMmWE>Uk(-VTFPW9qPn|\\*OhGVwZjhYZqPl{&>jiI0lXp*000000EEF4lEV9{:\\1He^M0Fnp26%Yud^Z_+Whq\\O_dxDOFuq&KKvs!fVqpK?2/-*FQ\\HXiz_36cCW'
p2
aS'03ee'
p3
aS'ByYqpq//&CIT|WX@7|;r~RzO;E)F~0AZoTLo9V7tu*_j#]9o0[,`_njn2f>xRX$lL})jefRc9C@-B2@&IR!Xl*]q(9`E.gz2|T|i.J;k&144$V5:8X/192@`)X@![!fz`,-&;OWAw\\S+@$6B0^}bOq%3bBN7,G;R;RM;wr06000000EEtPBmR/J$&;]GzhGpul0Y`nk0#<M$a7;LIFFZ>ImslREyX6VcJqlhFfM?r*7q;6]"ACK@R,r4xd`XHFk$hAmgL1>Ot`->)JG**kx+M#YuCYL1M,\\*rr2;~kbzW{3JWE=L]Zl5R@55)Tv$G>2{M!Y0\\_^=)C+8@cyuk_Tw>!MX]~(KFTNtw4G0_r5G2H&Llyo_)!\\/h@iJ.!efRycDte5x\\%pm!JPeO3hlI8Xj]pf}9-F&#;000000EE5*c."\'N*Z[ilsC+"A64n?iRM*O@t6xl00d|E`CO*sG?&:ogvP90.Cf0[-^9]s}n}^ZrA?zAd*Tohk&e@p[rZDXAv[};a)]Tf3)]{_Z/l]u5QlOeC/*TZ:+0ORn2`sK"mF\'Ps(!IEI*VeFb+6RgHB[E`W99ti[a)CFSDXPMhLklFzd;-:%zjT,[E\\QqrRCrnf,@/.[QfQjjp/>N&a0I|#OM#tuBLX~Tucr]f&CrX@X!A31f000000EE.18g9_DjVl[<:^lb%Ov;`HPq8@-md>}~j_s0dD:KGQpae2P5(_st$pCQ6&]]![@&>zefvLmgkAL6St,`=AG^UN7FIJSU6=P58,yP4R?ru0WhUA*rKdz~B0]_%.|w=?s\\.=WME52fy$^_54L&3&}n-.An<<wg}PcRa@ekFu,6y#\\z5{MnJGM3\\e01.M-)G6GHTkU74a`|->t5Db:phE*KNR=ssB%YA~_^.[w[eUkQy:C(X~000000EE6Yafy4j#3[UWbP@K/*mwq{OEq/PQ:vCE};U\\3y\\5iA24U%S*_5ME:fYTm{]p}[/>U)ps)m.lZlg\'WTK,c3-t2&[yF7Y^'
p4
aS'008c'
p5
aS"d@%64tfQ7)rM;ol0SqCV>WmiDKpL.Nfl4L>\\yE<NXTE+i;WB3Y#Xl;X+^_rm-2spM'`C&fg>sX<eZ+|bDizcKx454oXtA~q$y#MJw_]p-HLXRv})M(\\Ba>k,=xx4RO.]-#q?O=$f:qJE"
p6
aS'0005'
p7
aS'bHq"n'
p8
aS'07a5'
p9
aS'/000000EEZfHmv!a?,=kAs5PbFP>kJxp#`Ep4m8>O<\'1Ax,mAht>w=vz*z&|r3RFX1}NbxS3V1QS&{u{}bN4&Bs*";iwC]1m~\'MLfx#,;g9z2/PilMP}T*gEixjhna=sEyGlg?k2f:#S+%xhl"f-qTJ!ujtHIYU?zBfZ9,*S$E2d2w$4C<1BPp1FXQ!E//Xez~~j(4TD&4hI^lhRWH]r10T;q;LxBn;e%%9Df{xtR$KqqM$5V<n/t]W000000EEo004#3@1WPoM_[IdH4j4@U^n5kEXNM3Oe1D/wjWeDI5ezq\'T)/3"PxOwjz8)P-O>yeMj`(9E;%GUmy[:\\wmqO+`_P>y\'4q$%FpYQ]a;cc$)d0@}|F-;ktnFSmC{-e~[8Fkjjo&(3dRtd@6IHg9i~@Ngf@ihZ`ScEirCo%?ID-E`[\'wnn*6{3i0w7p$dJ2Zr2Oc>Jn{3WXB*-v6\'s9mCH>4k,%\\i-tt7?5}5xMXd%bOesw/000000EE@6T~]zAIi9}\'0zMwQq7<U|:uzEt/*f1w(lnYpl=0JTxi8tk3Y6JD\'Y!"~1peW$QpV[-1h-<Iq2.4I8cCGmZn^p+Ds0b3`JR6L^aSfuvto"tv_XxS6Lla+N>Wk7VKn981K:R`\'2mGR.Q]\'[nn>g^bV+=Ym^-:a@~9)17L,uoWHV}M}ss1/SF=a;NiGCtOuE)|i|zoYj*I<w\'8Vz)Bmyl9JI@++N8"5O<)#{EQW-;:j0-mu6000000EE4_0:O,JHO5&&lziu)GTHNunO\\CnXx"?%gX[|xGNbI56C:GGuaclf"$$Td;EJFh>lt?SJO\\<Fdb~Yh@$Xqd64n.1.B*ia{WBnpzq;!IZGL#HC4!`N[\'+KwAzJ"o\'IgQb~)izu%d45*D`a;-py377B+u;w235aH17x`]a(]:o)vyjm,V9f?Os`?\'en~&@AoS%B9rBs&LkN?yb,)8wk/#xIB}.[r1f@:}AYe`^1{P%%%ID8%9000000EE7>>S$-JfHi/.%i9Epq%-2CDhR?zn6)&6[JP\\ay@v8ktafq+pfK\\1_L6ST}Kz_[E3b"X;\\*528,\\Njp6jjp2}NJ4hNy#t]=vhS7P|0s}MLXFLFza;Rx]-ll`64I8rY$]C|V2oouyV(rCimB*&P"RoJj:_"W7#wa;dk<nmB,]%p/?G/e:&:xd{/h!C|bwVGb:hv\\j=K!1l&qpi(JNUIuE\'*HQU)GT$n.&$Eml+t<QVgmkH,:000000EE{?(S!`41kyD|B^|FizMsv_3;4dzpH^jh9@{!<vTps*Q}>h-$;d$>_<q}tGPi!!%IBu*AsEJ&\\;pp[:A)AS?0Zi|50swVc:^)00-!F-~i|!dkQxH1JP8:PcNTU4/N$2\\\'/ip\'r!e0K$.yK9}Vs>KW+BN4Q3hu(W}@ECT^BLv:ys,x19v0rzikwl!Js*w"F-}F9Ya|XD^;SvYqt][~e=o-UpUIO/#O,J7tv+wi"MqX=;[,s,000000EEj*=@S.(7_"9Y#k#{|OC*^+F={zbW\'u6dYp:qd(;Z2/)>{/Z&?|D/Nj#?.b<0zP)`UV&`y?V6h+`&)pQkS)8MCj~"R80bkrT"_sCT<Y4GV.>sX#$X,i*ei.Ro~QhPs^7<}K>s4jsk2q=\\vzY+)<2<=kZEq9Ry"L#[%)Z|$!>G_yW!%Q]I<4}NHivK*f(?S$9s7svXPWRd:H0y!f7?d9JKb/&*PK].Y_-44VvzH/(C[DS"u!000000EEKfAgrfoNxt*j6AzM*AwFk2mn.o_ak71P_b25lW;J~s}[Fc^i7"8B3j!Xs)\'Ju6ph!C<!X{%J{Gl{_RzHQV?0[yuFw:p|;")L3z4yuK>c4JL3|6jg9dNAmNK9==:+LT8Aw$RaW{x\\qy5!mXl`Y&TLD0=D?8s6xa^|kh7V%9B%:Z`<L#1]5wu`InUvCKQDQ;S&RT>qoHS9^aNtu?RHihpD~8jk3!>pIuW~ut'
p10
aS'0629'
p11
aS'"#J-Rf^\'?l?~000000EE;lIopG&UWvf9L$KQj(nUPM][O%!F0e5}eD;\'F"q&y=)j+-v[Za(5oR+YdUcrDtG0\'Ep)pLL.ui:f`MzC&#\'\\KT_1ga4/u]FavVKjqN+85W1Dr)l{,~&-,z92~+3G<+:Vn-J<{\\Ow>m3hqU[\\kt#gB3{KREu3+^Z0.}gqHX3>>bPOySlq%Z:$/~L^r5!i>?n7d=|Ioo"cD4WAmya^h.:?2f-\'lm5k3xQ*Kflwj~be!mI\'Q~000000EEl+?g*~{<idw1u7/hizVd8;OjN\\v$;*R1#t@|]Jkm|fLX8*-^bSjkvNYIz);|+fK`a$+&HBM(V<9_JHoW(:Dif/2ts!6w}1fS}}{XGg;fQetin@VE0!i\\y\\Pb$_k[vvQMS_DO8_5QecJM(sIp:_a@B8g`XxOb/)KU@T^>;s5WK{3mg^E!fc;=E3|&M:7\\UQdWiAL*[G<u*V9@,`*`F!bZe;_{MqfTg$MWr7YGJ`{lY>^eGh000000EEHm~BN-CfFY9(g\'p~);58iXCJ,$_2PTo6:oyM,+@vm+uR07l0@p0tD?A?@YS%nvwE8LL0A\\&,Z3ywLPXr$"A_Fif-`HR|CzM3w;?\\Q#<p58c%L30c[`r+$T\\&QF3VK,76E=~)I6E^.op\'nC_5\'wVIpb{+gu;~ZW@XlPs<f4Ozb~!drcb=%],%P_D!??DtLNZG\'(Wy0L:r+l9>F{=(gZq}Di(nF-|TLRVK,wdH2gdn.$?i~9000000EE|%t$wsUGDotm3wcEX9uc)>fmRWi$!@G("p-GY2/G9+{X,1G1\'Re,;%Pgv)#Q}g*A,_nz@lYt_#<w7kh!m~\'a\';Q4R}{2?YpH\'PO`2O*"M3}PE&@\\2fv1@@H;5>y/?lR[eagK>y]&{$?)?P(Dzi5ss;",3LIV0=~JEIS2fW~[U7MrW6/f}uveO2Q"cozi[]/=.W=Fvv/1,2>fQ`gec,f"W24k@*Q4a(d/Y_guT<WVPFWJ3{000000EEoOu]&o^%1I{r6d_\\q`~jo]j4b_]Yb/aEYwMTpoueLK!TjoVm$.&2x6c\\UjWS}+zivKPMY+).S]foaX^FL$jJOirSA\\"Y+Ev*"j9b)~frk$]oa%t)yRNJtPV)ryJrV^>1:w~uW](U+Cr2jp}29,\\"&\\n&xTf^yEs"]M]di,m4B>cJ>Ti)rJi[+l72G~B<a7@hL"p4=;W$/$g*a3[WKi5xMw(BVPpMZrlsO5UDe|U%PUgs.C000000EE0MTP{d/"bK|o[h]?BBb41&!_.H3;Z@?zaS_(vmu.A?El8F`SfpQP?okk9\\C\\G3O@!H,M-N"-]j^!kY=x^k*!`mgCh<m36jN3(r>-eGRPW`ElAoZ1;;g=aKmu>DfNggx]{d3VzG/sz;3/0`!<XBmj?0McBMb:1o(8b3boJt6}j=TuhZcw1x!Q#>PlYAG/c(P#/FVS03R?\'ZPn{<d+Q\'#SL[z&#uA(Wwzi>g@2:-J\\zLDfx$000000EE3nXC5sDI_x&i.Bq,3DeH9*-%AD>OtrvMy1^PR9Tf-EtlLMoAvs#=d5KliKVQ[a@?YxelHNw=}nOc621I2'
p12
aS'0636'
p13
aS'/:c)xfKNg4UHTBex+7L]rsTbk*,H|up=6zqT$Ur+DwS;(*.`#P(1O,Y^,sO@:!C`go/5$HTgS5>WmjadxkWZ|l&52@C`g;@dzUL]%IHV$h#7Vn+S&5&/mTvCu|_EEIZZO;y+a1b5s,:u>"d`WC4Qjk@_&r\\w}000000EE=lt0MWb5\')ymxjrV/PdExX~!-Y[a(>mF4L5dRUnla51}+Q`tcjP&qQF#%5[P6<ImW0jJb*u%!!QAS-\'&7^wGWWTXB?8^-\'?Q\\B{juzz>5p,;DjSK*&u=HsW13y:HU@)[aS?s8~V[h5\'-p(PJ6>L7/->;X3\'Pi8T"E*G)>ul$G8C?<<|3(\'"tW&v>ai&i4"yi:Dq\'p-.$"M-8&IB6a\'hfEr)O0G8Co@1cjCdF`~gf<Q;\'S_000000EEg.v2p#Hd7`^2iD}PlTfXD!T[Pw1jRKEijqwP|zEz;#ti\'f<yS%*Z>L(`Gx+n+#8Z!Z>H}HTu@V%Hr[B*XA]MN$1l9m{o_T{9oVs(p(8\\%uySDpdmNC21;xO.&tO[BJ~kv*T5<u!cr\'Vu/STL{lsQ"}Da=>5Zh;TiX<*{O.kTJUJaR:KWt{%"-6eEw&IBj1F~~HY//zM|E/0pmFZP#W+j([#LNTKrT66RPxf$TBb5[PC[R:000000EE~Y)e{`>fyP@QZ*zEiiXR)>Eov~BLtGJk7yOe04E^FF(#CBv?yFIuaZKY_RMVQK/#IA]5_n@^)CVS/jniCg}]8V0Lv({sj2WW]K.c#iKRCfKbL&x`-HR_Q.NaYq!=)i.9]->V/jPBJ@0|bfk@\'N$tbMmU^5`<Z7v^\'Gaq2H7NV-S_>mOXd82#e\'X@XywNqtwgu8I&hA|!]?Gv"[rx]YGR{H-D&[F4[is\'Y8Df2h}1=~8~ye000000EE4MxUk%4[j(w?8x2C9Q5n)Pzc!nO{V&bum!i>#!y-me)y`/d).fHdWlX.5J\\TBP:!N\'Sgam0:9U5Q]qUUE7J[ST%Vy+>.5*M)W.r[Lzac0<k")ygV`vQ_6M:"&S80L\\>L-8u)_7fP.Z%LmT&R[Xwp+a@HuvRlf)PL.L4=(G<Pf1DrG&/,Ho[op1GT19V<_q7$G77{YH"9"8uRlbpiq5):&POyfu,BNsf.-l*b|hKmKzmu9_000000EE9W%[\'adKN0%&1WmL8#<R7N@K.b,KNj.1I@[dr3v:B++u"E8KjVpfpRfjskKF)h}K4B]Tqb\\m2-&z%AgXm0Fk[DK-i5^vqxNc<nPN$]_Im10QfgQ`0\\NFl732*#eo4\\0i#Sz`i-TI`ZXR7mz|;+BZ4d`^tEwrl!5-E<__v#>L$6,GgMh=>R.RrTnSn)5Rv2|kzsPgrga2XEqO!Bahw~XS+Dy%DeAoAS*iC/G>e:B9,LLmeJ000000EEkmB5=naQ)IbqC<lbg4y`e<ur/T<2&:\'8K7y&!Y){j"nSOYb3YWC(5:#z=ICV\'`|a567ly?.&-md-@e?oF-NauHG1"Bas]O]w`]x7OY6:Fr%B%gHuK.`xA1=?U|TE0BYdf/5|icY76{R-5XHg/2TUZ^{O5mI&)1cug)\\aJG>\'r7SEL>64U(7&@Xb$_.VQ:@#1)mJ'
p14
aS'0524'
p15
aS'EOpk;,E3]7(ZvX@/c3LFT|rD_ZjkE&CxN~Abzu,\'Ji,000000EE,/jh\\8b6{)`)"_{^Wjl3_uIRQ-WD?"i9[O)mk^Q6n84=G@:l$P%Uz#()Ez/@&T6f.ZZ[*2gD)\\}!01%Ay*<"RYqx^0sE0ou$&Z,,t=n.j.Q*0J>O\\d}%N>+VT6[I)7_x:6)YU=F?rOO%lH:}##EU}2y+jrX?p\\hA3=?DH&F=q=Jh[;rf6>w"*:?+B[qX)<)01FuEb+7,{,FMxhdW&!mhD;u"Xu8{lMA%[p3})+7:+8J@lm000000EEwyy(u&5}?h$L@E<z&AvU/kP\'rO"<[+zy6+h+QOga\'Uuz%u%lB-|jo|>I,m<JNiOLjb7NbmdF"x_C.1*F\'8k;<LJ[`KW=(%4OJCIK5FWgRR,1%D;Fx;w_7k&Y%-Q7c*)w:z=wJ4SfBVv}D$o\'8SLLppJxh}|v\'vmbT,7y`K@bm%dhBk4UR|Bqw[H#*2G+/xf,EmKwY?E~b&hHEiWj|HW!d:5=JfO]Q"/$cthNVQcT,2<[[)000000EE06q.eC5Ze.dN]!3t,FQb/BOD41*a~*P7:>|XS35[_MYetOMctr0oZ<kN*MymH8-aX.[Ue:/*-u-_nN1%d1**eEqOo`]o3U#6{,-%`r+`yDS4H#2|`8aT1\'|\'%j|75fpKYi_uTnVg2[,gi1YA/\'#Hny%*^/[~c>$0DHu`4_n~uQA0YHV=[yO.R^8omI!gxnr:?^sG7VldnzXqvIDGR7zbis2CqivrJ3)G0|~5PPSxfw"O*u000000EE<a:=N-Itogktl:k)=?x&j2H_Ow[{][v/q<[=?{VjlLz]4tx*}IKm!8:905]-;YNF`CLpKyUK0`8]iV0g~lR`7g\'U]2k\'n!esY);~]r/B<`lesR{,)O*Z~+=/S=bq{w4fsfr\'$zF9H1M;M&\'ih5yWOdhQwz&p}gNR`ICpV,~NNHoycY~s\\n;-2]-MD0cN_ub|w]`jVOB|_o(bN6ks2D~r`$i6gu*ZC$X66zoLo:f:?agV6.000000EESX;<(gW_$&yP)(L,X:_e`\\44$?Ig;EHIp!y=W~b[CGRmbvOf!H"s]Q^fx%3z^B_XGN[M^)kz8e,&>|gE\\F1,)^G"&m4@#5)ZCV&@xhUs+&wD+a}aY6O^VT%B-MFm}cCx&%.y]#YF65(8`3}T,p<X`?oY@SCjh>)je`15,^LH{Edzj+Sg[V%w/T.$KCS.s`@aZ9ruWcYG){G!H!OCz0#e`_dxi\\#,Ax{3l]qp-*#Ql*lo5+000000EE$Mt^ng[x_-/W/L$QK0<A*(R#W3.Y-.{UTFY'
p16
aS'00c1'
p17
aS"39&wtk[C3EVyFj,t2SaD7Hima5P=l-,3M?F~oe0+?4|Ob^u^T=Y-=I~c&%F[<hroiH@uN@+q60jA'0XiX@JBju~ofqJVz3U]@s9Et|UAEsvu1i/uw&Vw|Jc;G1y:FH@V'KaNtE,<*#c:.VU6RO|S2@,RG_5\\,~}q]PX71SNY^PoZE$bO=93X;Rm$w>]=Lf38Y"
p18
aS'0537'
p19
aS'C[-Di)=s/u000000EEaAjQ#c]a&u~L^Hk9B=FAF\\Z]C,7Vy@*#n%L-i6$c\\eP,H8L7>D=k\\\'7Eb-P[>R]FNNBZIcv_1^{hCSa5n;(BVU4[7P"kTZvKcpe]VM${wO/8M**)EL}ksHYp?_];Z#KDH]+#>/Z^xAk;99/o.mDc!GKB?)`(ARqBo1DhODz8HxTvQpQ!]nxx_{jhj-/_G}[Bc`771Ol%&>\'|Q)w7{JYiuEEb>sl;uxP=?@Qa3)5sva&$Ib000000EE4\\[ViR?/Y@!?sVG6w0pR.ew|jPaq^(3fEeY|&!woWo%EFmj7cD^.HM=5u7B+>B+)lkzquEUH-K{fcKd`Zq\'zKa#,!)RMqhuOlug:6.MN&+<r;l8;z~Fyo$:fU/rsRz:iZY`(b"U;k#9\'S]QcqmM7U+^;]i&AM`7w%[^BMN|-"JQT+o7Sx8,od|p0?k96^{"}.yJ??n-e|RhG<&G%BgS4]}eS{(~{+cY4%mt7&tEbaVj&3?000000EE)5#lWFmWus0pW[\';!As:)!{3RXtH*a\\?R0nC-wyk{VSc@:GclP&uJ(tXtK]98y$v;~gzRs"?iLRW\\eDXoYZ>$O&XO[_nV&hCibD1q;K0~j}*Ciq(z5m^Z&D2&I-5br}JX$aVS_36#XDk!i}G_%Gx6EUH(}PKG+_9D|V9w$U3d<[Wo`\'X1YVO$6v)8dD~_"Iqkw{",y#s:i~B{c"R][pgkyd.Ga&/dpti]=~+z&VAGs&nNC000000EEy+wE0aW}88TmX]q$+MX\\8O\'k1i+*8?mu8*c%#TPdW=<?h\'/vpe|FO73Y)f4KuxPp1[xsUE/hK-3~UflD=T)#5fU=/1-7U;U\'-[EP>D/;j<Pu0i=ChTk66i0il7@m+0D&/D@aXn%DPHKeX)6:a@#)\'UkYgINyb2\\;ZJVyFRn@6fm"yB{mQNB5CIjo(V9R6^dK<ue3/Gv;aSgS6;k*RtXx%TAaO~iux,6nljF[p1.<>nH!BB000000EEK#\'*up4GS^*7?MdUT=5Uy~L?2nQlMCPi!z~=LG*9/L~;)v/?|?sU3v\\8qKpLaQ01s=4Rz%1a=v*\'h|YqP~V\\wv!^>Z}%FY[kCd}]"m-4uK!`XnjLp#*]b32a@sIaW^\'uB\'J3!|?mv5%,Au.EX6<2sd#nJSx)9z%_hJJ"#WJfkczUtzc,7)[oQWF!~Zs=Zy3{1D~4g+h7Dp%,(#[R]cYB(/Km]$*bOdf8&~iG\'G<PGhZ0{8000000EEQmV^w,bc(`MTrL{B#g=|Fvi]B9Pz%b6UC1d"TVn!_fe-=.0M~pNP1n/2[_hWm\\s-zS@fve$=U<dpwl{DV(%X?b$'
p20
aS'00e3'
p21
aS'a6cRFU,},v2%6@xe-`1jd%ZczEpg//v+Vk\'u\\hB!C)ol`NClGSlV37o^?Rs8y*XFb%:<\'e",c\'^Qy[g4\'=%KU?`nS7QwJOf7[w36g#$I<y+P^.Xfqs+:\'B\\0_*1i7LXw.F?Sj{@$#f6VM.AH;o2E8E!000000EE^{=NJhJtLELJ]8yGbvp,Uk]YF/\'D:tf$y!E>F"Zeqc>aS>R[zXoI[?pG!TyiRx-<K2S^'
p22
aS'0162'
p23
aS'2r0GWWEG!0+.{IkXUv)ZL\'2/O];4T}bdGn"Z`{KxU#2W/"w0&OZ0w<pL`~,7(5*681<92T-g2]V>&2#z7x9z:;c#CUIiQjCT7O9=F$b\'S-;k-p,7`VDW;T)Yh*GgVl\'yOCzhI,?WNADnOz-Q~uB]YhU=JC6lo4/W!HdO^S|v}#000000EEJ,R{c!0bgnj0MHKGRS+EB;iw!;q"Zc)F+~Si9{Vn@LrrA9F\\0&%n}Z+;Ap<gdVSy{b\\$]V_/XrrY0>$S~OCLCTBP4[!Ybf~?U-L=3kfu%7p1-W+S^X[3l_?YtImU.?aSK-=2@0-bCc*l$=9<+j3uc0V`X{P=@AmvMwQvi/[+c;_wJZo\\'
p24
aS'0050'
p25
aS'51EJk9"yGun)LygDp?_[~^d#::X(AQ/cu_i"MH\'Q`C:Hn${IR)=\\]5Pwle|qv1000000EEA]-u"0iH\\c'
p26
aS'0054'
p27
aS'WAnyF3[:}1|Q[qKmKr$Cil31EJ{J"[=5JyQ>n[7$}L7i#=#WF_:!,.N6g3TnpBrM|Apj"ZAw6j[3zRBfs\\bJ'
p28
aS'014f'
p29
aS'YyKQ;;B(DAPY#R7H#f-sv,9aIj~,:Oo:1rG9^v;?Bf@VE/SpPXG%%qGVDpfo_r-t\\Y82h=xcK[[LAOu{@N+kkoaOX~`J#j<L>`xwC.RAMjhY?_%r>]`6={MW|G;ar2gK|L^oUa*fWP`.t,jr000000EE0ymt>ajl~FQ(I9oMA}REB3taEccc\\r{tsOb$!k|Qx]NM!/Fp)c\\$_Ja~}XCC#fsu=`m&^K5LG(T!"8p}?wbhw#hvTg0|\\tv[oee!XG|GmS1XSFJZr)KW3(wWFC$Uf~VfF<\':d&C3rvk&&pCQ2p?_q5arN[Zm=}jbF,W|trl;Tx>"EG?}=R,Ua\'P'
p30
aS'0718'
p31
aS'Dmj!N$Dy#WVSdfjIfcn_3FyJHBO<LDS_X,#8F\\mM)?OQ9gqX3{uG5)w000000EEy0_ysoSh+J!.`OB(Y5S$;jj%IpXhg`6$xz?:3hPFX3#$=/`p"!DKV)_`?lE5Mev2:b{bIy)#qAV<R70e`@$o/Mecep?R"GEPrUYkq8,b1hTKmYbX}ZinHV8T2JVAk&D]xPSO]##cs=lXGH#m1-%D*ZA5`7D/U$L%&w@YK\\|n6n#z*JO~cAG,_T<X^h#3kn.3|E[Q!2>ua%0GZ/qnL/fdslQQy(.)\\`(5~g@yn?^(3$K!Z\'000000EEX6/G62s_j5?Gg)ANK/z/?xp8-fqkw$cC71s$4/96zE&,6TxWI6y;v|6hFag}K7./2%ZLo|^h~|H?F1]Uk_jW\'!r&b(rJltu:?+If}_-Ax,ZkQE7F;6u`3YAXfby9W?n"2==.8tk=RZ}FnL}PJ2t@ajw^\'_P,^mfdy/"]S1$(Iv)d0}c}8;y%g?~zX`l8t;puX/uTygy"M\'sHGK{9I),T-svk[\'yBuudkOdlA0q|y<;.V2/000000EEI>u](Y-rS1v7.pR?&b\'P[3>*,&M!91Z#BN(t#L5AObwC!^gmhpyfT{mD4!!k}WUJQuP7EX$UUSL1uBo7ktSz)7=ys\\Z.}A=_}-KpW*p0gGWRY|H{z;r6)czPB$VMU/y%z*Szh]hMj}d[Ju1seq,5WW/`tYpl`$,C^+vN\'E%~xZC&xMQ8IzY+H`nT|Dp9/t\\D1.OGLbgB_H>@z%XP~\'Z;rs2LN^(bitaU|hj`\'9HdgJcb78000000EEpEW1"n)cyETdXPF#n7)Xy{ck0Zi|FF+li-p-,"i<Ho@^?k:rm@F(nCM(Q*jh[Ow:J"cz^luxu#{sKvR;p^yV2FV^r0?qbR!@8Do&\'tA%XW+q@g4>@$AN7ser2s{RwGAH~9:kA*E4Z)XAm"|!HMQ\\]bji^@X6*/-X6;d$=MU:qXscU89{\\.=3`)s1j1^T8>@{,co&qh[pd4])3&|4Q,whV^dt1J]F93SC4a`^_/G%0()$((000000EE,A9JY`UK=W7U=a(X1/Gcl@2Py$iM"?hr&>,w[^!-VnIlEVjY+X|Mo.C40VsdKB>j*__rYC"C33K?x8r!B3k{H##s3w\\,e%v5[ROF:/B75,)GGcd+j!m^&<o|B6.T1mu@+Q=nep/9ZJS[u4cdmTJf?vs\'om\'aF@jMtO]Llhd=%M&L_SR`84\'""RDY{Dw`XHkH,8x`OpIC\\M}3=b0s<;W]YQMC3,XsXJrH6mF:VY\'xE1tp5U000000EE}\'_73H>Lhqe[9}hKJ[p}N&"v!nLH-]fkPqxcTQV-]XX94x*CHJ*XU}[9yKi#b;9t3Z6u]x_Nue=us{&GZ3".c\'OR)S|SZ]!/BD1C=/NWcfUd<@Ci7]DOHn!,X;s6:X:vpf!N6o)nBCfzBLn0iFv\'xZ_\\C5j$T\\,W\'t_<=1\\]4|rRBev4=Z3TL_|BLTCfQfc,pWP#+{9I(!_h?_r]^X`K8-d;x)mNml,k&JWn4?2Q9~S4P~000000EEzm=>TIRtP#G\'%J;d&CQT_,&TG@7[q&w-qQ`{)J)-~T}v*)s?>WzDIMvjNDeYG1R\'R2;],L\'Rwmk<`EkOH9yXeSr5d5>zk[:R&B$>gqF6ZiwJ.|w>/iNfT~v(dYTS!f8fdR(=m3Pv"A]di+Yro.i4X?FckN0`";$j#x_(lXPu;j.^,m~(E\\u0sjT+CeTeTZ@%l4\\A9x&U%DC+/JQ7}<Ei5{XL&fC\\{H.FgU\\n<c&O^L3KE:000000EE.d:#r"\\U=,$i8lL6m^ISB-7X&neW7Ny'
p32
aS'000b'
p33
aS'hGI1O{YixPw'
p34
aS'0438'
p35
aS'yJ_$A&\'[2?-nss=790/6xk"*0k05WbIc\\K@3k|+/wbQvXO?:25r.,%cYJdNxe{~O<0I5GwC543.yQH*WhQlsP0&hl9"tT|{}|aY]#ol3Ip~{VhiQ+|XyMSu:y%_O\'}/N*P!T]"/VQ$+eCjF!K3[15{heiE#Y(&{!1?RjE^h|k7O6mp([g{y0@[\\[/pwKeImIh9!c000000EE{w:ewG{b"w-6giL9Q>e%E]#PdB3(-tU*}=2-;w;W.$as_W<F.}H&I5aoC6)(NY\\ls1nxBfH6pQ%T1`iY>r\'[Vt+cK7<71asK\\;~"5sibZxPfoc?MP/\\;Z]B8K"=|)I!*=b[6wZ?sNr$:^x?-DS%;d/5q,|y;obYlF.e11mHp<)V:bNTmcUWuOwZFu`t"/RTTr1{~5O_h.dSvhc^`ZcC`nvH?pRYaeZ@\\4.FP4Hr+6BRsmd000000EE)+[8yu-GW5qiVpLlFKq0S1rf#a#!)uGpHP`/F|d\\vpaoFl7E.m&0xtBeXK&jc6CNf=li{SP3rSV5nz#\\F$$=1k"ZnA$PwkW{F9&ytt=ORR":y2O[QS;wSP^A13g!^/u(Bkyy?.NH5GZEW<z&Ug/^e5o]j>9#+YNcr\'```[)mxAo|m0L!\\N7Oag!lO{dn=k"Ldn~{x.eU(2XE=FYFKPLAts27~B3Y+CV$8y]?}|SqCNk}Hn000000EE>Of7-3Sw;g>1um|Hm66yarQLn-N\'>2|yRyy6oV/SULJsj$Tjb`}9Zv@Lz`]#b#$HyfQmzT2eA(j"A<fFG]yro"\'f0|^7;a,v;#CdOHRD^lyeL;YnJo;DONkRUmFLe]mjs.)xYWaLkb9bCZM1t4ap)A\'D`ziy:]4)nEG~,>MMPu.gV4M{l_^uT.[x{htFra5>czmgN${S0o5^+&A,i>uP}cB$~}iL];*i,d)(&rYZ.>i,Yw000000EEK1s;661lb&7xKrp;<FpK\\4#5d"]}e@w6\'SS.3j5gxSiQX7.=M%c6MR8|5Uqv!$`zohk;6o(peX1>e@}QvdB:|qi`hIFNnD~j,RzCO2n{0Egv`DSc)z>&o3y|cQ8u:j{Odj||_f(1fB'
p36
aS'0368'
p37
aS';9ISPCj%mU2KzC.&72yBSV==Q&yeu/1IX4[[Af:qPuX;&}qZ1pus<Q()t>Civ$9KW\'&y.}\'uFI3D52m1.SnC\\bHq.a{_%EIj],w?000000EErec,c()&SA{N$>{E"9uITpKBvcb.8{K/BkyqQ]|PK:=hd|1hlj_yU.P]?~eKx}E&bj[.}E4>5{+c=@lNqzz=[`{+[w<hR4?A3I[%WJ1Da_yO4V[_5)%A[l]lIifaBs?";tCf@$it7D;ZS=.@8U%\\s\\RUlpP)yPbt.@.mV`7Cd7ZE)l&6L)_R<ntTQ87;G\'T;D:HJEw7<9j)7\\{-,jG9X+9WYiS]8B|?Yg~U_UcO<8V?|?^000000EENy3_@>6Wg``RIm?S3.k>=0>8..1K_:>q1}TF-$y@dXJ`X\\HBblhX2[fyl//pBTLm8Qyqei/Sc3!EuSq=}gN-&<O<H]Tfc7Ie$(x2ED[kJN0Yz[^KQc88O2DtTSP@!t6arzbw(]V`tbjBgri-+AM%w|]]`Vt5"EL\\veLr#V\'!+29^~SD]"`%KPhvtL-,n)NaBnIuyo1|AzIg\'LM<z8P<99!Gc[*FLIRH9HfJy:]NqT-[%"G000000EE)|_mCnZ}U7h6FWPx,P;E`I8bD8L.CP{dX8:VLh,"+r+]0<h8iyBH0^~7AD^_R1j^+1KG$n\'fYKf%vT1%GL.\\d!g6Auh\\I}Ge@3==Q$O>5Ur|V*2AB,GtrQKUk=mqKA/gT31\\~PS%=uAGO_8z?,$7LB@aY8?^qQF7}^m*tC7?YJOW#n|mrm=HF{kOM*B^XvB6/kle+M))/VPgnu*m%9;MS:pb>KIi|@LWyW5{k12r`8<V^u000000EEMtDHNN6V<:W6;JZ.s20EokNk?j'
p38
aS'03b7'
p39
aS'^fnISkNzQH*M!z,cv=om9a^T"(e/ak&X(xbo~KB"qHtQ)oJCV)(#xcjnju]"yLEtBKEd1wvU9@xRnt]2Xw,XoC<^Dqo5Lx>UDk+v|7,<``Fp=z4Txcr1goA$sXORVcgMUng*r={/hW$z0Y[-=!g-Uxhj_QQT*t_P[]9tQV)p=T#d(6]wa~kuo{}3%/WYG2[@8u%@<,IhxaMJUu.O4T$N000000EEr]hO#bI<2GiHm#T,TDWiz&;nOuf4GSSXbdu!RmmXO2gGK.#{z@%Fd)EOM~Rp>w>NK<Wvn`pZ~MneZ/y=[Qi?aqS+qKgun,9~1D08?G|4Qw@5Gd!xJeYdmh@}^D!dtEp)^^_ee\',zmbzXu|_ydzUb+RSpCo_\\N~kmq"KmY6c8/Wjd{X^maI8s*lYyn]>M=n<6kRK=mb!S}E(KWzn<74?(hvzvS&~^]`HCS,JxDOj|mA@Ncj000000EE"59dRf\'v;v*`FI\\q?.Vl:k)bx|y)+jQPKE1~l$FN"q$k3H*Y,n6=+ST6\\u={{~>t`FT<1uYT]~{vsqK;/jRXj84:=MzDaCD@g#p\':bym^E~N+{T5z"pz"9XXv<NmfZi-6yyxM]v9hV9RAB\\WfMK.?i6IC]\'Q^Ig\\0M.bW)g0=CQN[[wX3dj:&^gRRG0_G"Fy9\\Y+<A&4~Li:SKiH<2^z[_%>[V$},Wo\\H7m=PM/+h0]\\Au000000EEs`jN+L&Fi2,_(-rqlUO&l#f?X+D;X:W({3!;|o5l`1[HRWxS\\{/J`SeWY5OxI\\N&x)!QoUC>OpI@UZ6Bci)CBzWmPH.}`vqaM/N"(k+f,y/r:*%I~FSsqdH%s@};#W~{8~LB%2vPO]pd9lG5g*jso4on\'lGf?HzSKQ!1k-cq+tb`<R]>/DpfOI!/pj0pk(r>[},f`[Cisk*7CnH}6G+k:u2KFT4sZ4LR<7xs*j!IBd)W7=0'
p40
aS'0716'
p41
aS'00000EEISUNv$NVA3=GpKhPy7qVOk`]F!W\\AUg7K9~UHPM[^x$+a][d9qF7D(b61jfg415bJ?6x-G)\'~ZH4|CO%]t*1u/k\'po`fAO9cJ3[?[eHm~Mxx}a$xbKxbZf+A2Rf<h03@&/6I/N2Vzf(8/L_}nib@s!W[p_rNO}p{aJlv9%}h%d^FIP_dFW.!f4Ei<a|MQ,(cKK82KBb4>lqpBsu~$`~{i{+z^nB=,}>x3T`I~zX)lIa"HF000000EE\'-7&`{K$CS8~TQ5Izbi7}*]O|*an(j(Y+STNa"FKz7{c@_Ye6xG}]kgFSjy\'pt"<OpbC+7X\'0)a|dF4EzYdjL=s3Y7Ym?N)Hf=lC[&asT:Jx]9-S.MY[}S6YaxA9A:XS;}o$:mLsUl3_sgRj,"11{%$tHF-fnZ\\*"gm7@B2"*>w=q0[2\\`$O1Vmq</-+El#y&<7z-uA&w5@?U9+~wV4yTd7RV.\'}\\?*/7vH+Be(3o$T1gI000000EEBExf0Y0<c|3=e+y\\(TBS\\e$HO)(x{@~JzCvd2R,=$FX+wPPj|.oPt>"Y/6X+3UIV0jgTUj?U\'$AP{Jg!}E9j+\\jv85@Kd7lX,3&[Xf6LYLQ=l`D0wbmLQBsXX[^lU32X%)YrGJ0]6xT;6F.q03|#Q\\02iLzM(V&?q$\\@0}X`p~wLQgi/Kr(S.xmWF/]yx2*fQ|`|}G[t07D8ZggZUJxmvalM/$o^({$l5+E@Z(\\|5.45"T000000EE_Kv::4Kt&ElNW,v+$Sf4,[T!#qA+{L`l#YY3J9Ur\\u04``7,H<Ma&WH47$"\'?Gmd[xDUQ3m?WzOL?eHBT&LshYNU%tnJA3TuQB9\\1AXP"tGxN&i\'n0-;wvb@:,?7iP2*m<H(EZ}iD$$*f4_:wd(u:CiYf(wG9+%t.}grbqgvcT.ofkaY;&"i+r~$2haigy!slT,HP>-:LWH\'FC)|j~8;w>7t}4Q2_Ywqix*YI!bo#Z2:VW000000EE[4g`*9SI?I7?.AAzZZ!s[9&`#\'$u?0?iFB"_q)9(!4;c-62n@|sr`!f"p7UG1tW.[kk:hP,O|I*$VwE)yVZ7~AHpL<-m:8b)Cp?,9$(,hBm!r>LGV1,>pvDrywvh^un\'a\\1XH|PAr`:VXhR@<e-SXbUvZO/tswUyg[Gq.$yU8\\OhfszNRqSW|7vXz;:Duv)F0*Y*@]Te3ZJY<7hjGMg>IS14}/OL:YzvvK9~*Jj$h5>@m^000000EE9;W:~=B*o?NUhV(b*$=fvO~\\:UnKgE2#h&/Sq0Fj/M]&laW6JV`lH7I>dn+ZTi4j5CY;JzI4Ka"EEXdPHzdmKhke~mbUXA1&N#xR?CpBmtFk1>d|#J&0&BQs`)~:&+VBJ;`iV,*&itHj=p\\lgH)FTrXr)PE]ffO4)B*-v3|ENK-bq3+9atyB{9"iBXRo1EH84z?q`]-"xwXh>yf)@hQ`8J/)ZVL@uuEIluY{!;Psym|$OY000000EELQREs2LQsZU(f}8O-+s[x#P}p8@{=bdtXVN_V.T(Zm!s|GxIK>S.|*#mQ75G\\,Qh-;cyFti.2|RkqPJ\\OT76mXTmM:p<,;AK]hj@7D9.Hk4eYw&Yw|;+lT`j+]s0lOw`${k7yPs#^l&^ES4.kt)XrG\\w-j]sv{tpXZH[:P9Xh6`!98w|=e70L$Lf{v^/s/rOAC[N?RpQ~,u160HW(C2nwti51.,(sC.`7$(lW!{1)!Vcs)000000EEQCBE#M%\\wF<[pKetsFb|)xjxS?|p\\S8"iDTA"U>HV3a#5"XX=]sL0N\\gr7Ha#coA}]l&jOZS3YFF<K%v[j-g:'
p42
aS'0796'
p43
aS'~$K\\l&teG1X1GR\'9Vyi3_)D8~#eLa<b0/OH\\gGVhic[&?W1Y[:7HE0K&=NR`>2,z|ESP$xr/bQ7~SqDp(EkT7%>L;?3HZ>_%`8a5W>Uh<`UAMG4@4|^+E`XY2IYVww>^95L9ILvM8k9:1M=jc6q.Z\\3oM000000EE]{U>3rW,WRs*VMXrqq,~D7g+3w*NXa]}Y+iKLhc,YXtw*AfoE%2R+1sep7N+Yo]!EuU3!yhM&!m94i3,6tKjQB{j*&lShb,IRod#pu8"/4IAz\'l{2>R$vY6atA>>1)kw8HUQiESUz.HQB62OI,A|"-)%|xWGw,<Mf\\+n<&}/fN3!ge_}EYb]OE[2a=;t08$v-_u<JA6Krd/BOhc+&xuSBRV/\\gA^@"/`C"IF^6%OWo%V$}000000EE6wbJ<-Y0?XhI1yldQaS-Rf,JQHS$Cu[|^HQwICp-s\\@&0|hw:<<=ZE}|@#"TD$U1KzUc_,M~}P7<$w.%^Lb.)QaNtK&Nm+RPuCFhSirfxI4=TdDxe:E8%yX.FfO>WW<Oy8oIus+NJ$vkKR@1|EFw[3f*OS{$&TJv\')d)T,^a;ZvJJz,2w|!pf6yF\\3ir@4h]GGAr"t6#@a\'9Sg\\:I|JbFs/PA=@8ptO#sq!~37"dd5;&n9000000EEou0A2T%"oD@jkMK6JB$$"X"Ziw.xI>=d/kF{AG(*8]s-3vgvUgAO|wxf9=mC%$]RY]RaaC,e{@|\\zzOJ%\'+!fvN>2+FIdLVEJ1>k$ml/i4T<09:&C&$I~~$m@7/9w#j~EjRD1]i"kg/QVQ>!(NO7,H%$N{Lg2,Dz!sy?ABJm6`"e5Ip8#Vu@mx@m[Q^ve=oG~76;cun}(^#p1B(&41/6<,`ZtC]xVq2\'v6Tk104^I$^.2=000000EE){;~H%6$u4f`=FRYSJ@Ko`u%D]#b`,Nu)~;<1[m*vX7sW_)%je*!h};{rL&KK$PN:3"rC!RO*X[3E<R5\\o<=UkV6T%%V+6)@6\'5V`|zJ?9n[Yatjv;\\\'CsLioB|n6SbY9kJSKsB2#f`WbvoY}.b[0su9](0f#.G#m3Eo.3wP2&joY`.6J`$s5@A7U%oQT)3-_~5[5}oGK53<dQ1tO7k\\RA|Rb}#X6RI7bu5}eXEYZ82S/!000000EE5ci&2ZI*-YsJT@HJ;cap`\\lzrJo.RZym\'r<BS0h-7Esl&!$9C|Nf]938?XUY[LRVHcRD_{iE(z{PjHv%*>#w}TEq)\'tf?e.UmVjS_mD#_hs{h)rL/T3a9of:0W3.>\\kB]t,NLa?&j2Tc7"hO?Djg}]"`wW?IAe"6te*:5wWHv8uEG4&"SICv<g6arogN\'=_w\\<_RcIiz$_[cSajh<\'?IS-Y,J5aE)I~i(baD\'dvdN8Onh6000000EE;7\\qF/.YdI9\'v}OZH3Px^Bu6\'sO#;az:ZbWKyLB?0K_0N8#J!s6:.Fh-=`#`T*%tP^sZce=e36|NW`~Q2D#|/I_rv2*q[X#=u?RLA!}2NW1^yZs=(?4%uEGkO~,W*Iro%?H?kF5*a$$[}aW^(i|lCY^_3p|c0or?\\oy$Wl9DwHy8uQkI#aj[]`Xh(Rj(GlL%T/7i=7kDD0+xZPbv2AeMY^3U2&~D|muWZp!4l5#GrmA9$M000000EE(pB)vbK$@Le..)NTSm|wQ"1SZu%-(H|!Z8qk0:\'5)*LFE2xr8q~[_fG@IB$xqL2N;@19a,gIxI@E_b]M[LS+$z$|#7uEKr2X0T.&%|1OXefmMhLeLz#Ef//)t)qNT\\5BGvX`XolP}-\\c1m*=e+GPv`qG.g({y)noF/<v-i?F23Il:ZDvF}h+X{:?oS15J9FES;3I[g=.I-h<?)Pkg9sEDDWP{gWQ0ZG,U^:\';Rg::Gs:??000000EEc({.s@?Cjz,E3sfKb^Y^#|rpdkK0`F|wKxFnnkMUK{Cm)G\\)B=+`wM0s9gH'
p44
aS'002a'
p45
aS'l@k-iK,$9sCT!,KaS3X7^">9DSF$q1,}B!&#cg;VZJ'
p46
aS'000b'
p47
aS'x((3Z2p5)-L'
p48
aS'0268'
p49
aS't}/#xS!_([h`y=P_wg2CrIKC;+`z0C|X1#R?u:8lGY7`Y54?0)BPXEFZ7*I"zwxDxVA|iO_bYkV_\\?lSC(=RF`(-:lHt7`$t*W1*SB(C,r>c/4],x(]A.`^+5))"<D000000EE=:#9@oi,i%2nK%BZH{hkk/)*zJp!\\/4Y-&~~2vg.@0RlHaxqKFDdRQP*3}]f*tX06eB=@LTC7}d$Q{;:4G<kp8Y4cHTv;z*6HZ}$q5y9c\'0$@lxA~DkN1ysc{o.^t;AxGxA{>G7B:UMEI<0.-jepYMtdW]ufY5~AF>+PRD1Y+Y!,Z%H\'w-*}~.o[OQXMjK7|P;KOsWX:<*"xb4Qj?U=U\\:C._*6YF#"\\_{L1oqzWX~:oUn000000EEN8O-l\\Oi1Qtwg?noqD%e=>o!hCta_Q[a]#=XO5-:eUD\\[)oV34f[%c.jvU{g5(A../U.sdlG/nKq})Q)|0B.n5{Znhr&~|`Q~|Y;PpseKHk/S-Q3s<zF|DaDx%GFcKX+`N797Q5wsjj["c[\\GyY2_#AKd[memhl.0on3K(jpaJ1zWoL9\']aMVcN+._M@!F<fwU>a:$RwTzEj/AjsQ*,X*F%XE-+{kedDo9>D8#T{8#UN'
p50
aS'0552'
p51
aS';i000000EEo(?P`:3?vS1hExnPEZsi1Ter8k|;X+9f1;)sU#b(Tm"!(i2n|.v<a6ttwfLFBZz*mmVC#}_oKx=5b",rwXTm&a-j)\'rtDTwx=AO[rpKeZg&dfr=}rTP,4?+n6pJ(3C?;aqbVpZh.HlNKoZ.!\'k|ZF&k9ow?!\'H[O?Fsa\':~L+!\\#%gzY\\dQ/5>f5;ck9J_T(":IR,d\'RuP#P=NEE>JKa@yTnHC"7o_%EE9A>QvqIcV1@s;000000EEk)rF%(3ahnVmthx\'A\'F3_\\kg^Zp9+EIR=ENcw\'0tdQ7]{kJ{$[8)w4EB!y\\fE/%sdH]mRd%B_LLDU8VP}rYa\'I>Z5S;\'D6"9Z5yUK0jIg.e!.)Osm{N*7`KtqOEg0jm%(7qicD)2R8(40%E|cxV2-}aOPuxQvW|:5()zHe>Y$my7?Uv!ZmN\'mvY0*;MnjgfWiU?=$H_+cX]=_c;6w~$Qh3ar3[utR~MY{8:VA1S1,Dp[K?000000EE%tzoB@,94wGs6Q^NXC\\-s_ze(URA$Kl0r].Dy]C$?_1%vt#LqdvG{Q8]}}Dj}K3KzX2Tn-1*_;c;vqk1jry$(qy9>;`Ww%l\\Z`D`"!ij!)%q"5"nl8$PBur{dSwEajw~S%^,+Xa/^Sy?+kTAyCsp=1qWk]sp733dGa8q"JuSXIQ6Ck&$yFdAi"[tZ|Zq?XQ|?[VU5:Zgne\\tu%/Cd|oLCK$D9kFbP5e:$m]9v.pnH2umTC000000EEZ\\^!2OLBCR>vwf:2zZjpm-/kq*INra+&m{&fiq(nSjrTG:+mLT{[wy\\xe07Ea^V.?zwE0g]k}3#-s]{eGLO^"B)PvnXX=:8E0%g{d|F#WRe_,gL?\'Mgv-8&p#YawD;@6"Ak1ogt/4J3,w@XfP4}QzNn](;:FbJ@8()V4vE.X?5u7BO-FIs45lKCHRM^(YGWK]PIumpyY$#z}uPn$OyyNXs~.)?#|eeI~H:hhD&lK5Ba[h:000000EE20UZ+q.8mna:Mw}0~;3uO%CwsWftHC+{s#tw$rs?</uB<VA9|=/Z,6l`-cuE=I{tK]dj_|g2\'>@hHK2!ht~ognNL4u?KlI;p+d~20[0gN{Cd3KLH%KGFrOQNg<{\\&k-0hyv`q]e=w},Y=!P2}*\\tg1Ochp_ljrnQL;!_s6[*8XB$p@~wTX"gH|~\\`z,kx`0cZH@\\VoJwm))^wh_K?R(T5WR!(Pdt0-0OO:&^A;F)mOH3&h000000EE^JgDYfC#ij!*y/PgeFmq,f``sr;K\\RL>d[6g}#(Q|S\\#Qc,V?{~\\OL4]ZR+[7)i]>>1Ww*c:*=>+R0{@P2|apH%OL\'L?r~,uN(H!YWLs\\AO-Dz[x!@[jL%z1jv'
p52
aS'06dc'
p53
aS';,1-Hw%.(8S<Fi*e/v5<fd/<&#}XXrLh/K:CPvm7(N1sP.^g"`x)fzL3s=-tT(TsV85u>_MV6Yd]Er]l9$@H#MWH@MI"4G?kV?8m588^<wfz9}FYPY~\\000000EElt9<NUh`>E&^MFp!Aur@m;_wSx[0Bz1`t2]LLD)llAh#[*}2zs@q?<T!}<:E[vvPTo>$6xF:-itKPF70dAdPNgzh{zpneT/)sa-73wcE*t?Dh)%8NBRy]$*n:2JwZvZL}hh%lI{dCfOm@4PpHGLRLzkbTPk[\'dDL6oS4Eh_Jn%^P$+3UA)6pZga*EX3N$_,#tmml1&R1;vK\'5%8,mvZC:>qaz>;2fR8$IP}WVdTCy8~~)p000000EE97-.kO*b!{)#@DT[E/"n.\'p/W}WmC96{s.QV=J0x(wWo(W;@@:H|e678^M+_inu\'uf\\BxP?Hv+db&+$rr]tZ"=-{!J6L454c6wSyaI>^[34A;iD]D3C6CNN*OUVk`Z5x)_GI:j%#39O.\\]GOY/$g4*"Z53.a2}}o[H+^Q!cu2T^JB_{$gipcZ-:lyjI!@@lu:A}j8Hk\\;&5JQVVH3Iwc:~{o72Xy.,t7Hc#ZM(A`82FhWY000000EEbq4zz1_%i?h/&;~qcRwCd;QNTQLH3S7E3p8E4=llPZ"CPvA==Aj)3`4XK>K_dBVW$[fR~P};.fg1~L{y!:#\'(GKh7O]C&.v=Y+da,%{=qG"}GjbM*gVpRaEV`,./%1g7\'X}5C4+tfTFNyd"$Q2TcVX67~]y+`YFu`ytoJ)\\\'>x#`Qd\'4O|N.Mgt@d&?J|]6+9ne^ELe6%)[O10jq=I_/]U-Y^OQ/|PE:A`^]`^EK<R/KZ]000000EE*=A/%E(c18wFk8]ob7<&r|F}Jf.?#Rzs*8g%z/aM[3g_*/P_S">PyVy-HY\\t3c>^_B*y"M=gP5@)wCg\\V9.}zper")X_v?W!L?S@]Z%xrVHV9SobLL}Y]M3rbzqob;:,cATEhe|6,)iXsuzIr?r2jWM%jtO48keL?+=neWG+3XGWAf^~q%$r]Q1ItI\\HMZiY;UYgJ${xRQ8nF@}~1+:4NI=p_v\'G6sV\\rI].Jm3*O9>`aM000000EE:(g`h>A9!J(s#UWjNJ(c<;i)Ro[S1/%?1>akltkHNfV.xW/?DaXfbYJR:Aaykyyo/\'j+RK[q{JKrhP^e7^#OP#\\>7ClA]A;*|R:uOfA$=8YhsH@L"NJa)^C.k#Sc\\[t>p/P7aMS\'iVLzeJt~Z([HYq[9j#-cSJ1i~Zb#Sr#c/IBU\'|X2)2m++#Ay)lrah;DoKxS5E/g.WO_#&zQS)wAG<~!r(3o=B(^*&CfY:SLH(e3R~N000000EE[1G:+jw`kyHYOFWT)e[B2:F/L<V&a;~v5i7r1_4\\%J+X!L8.Hi#dqBVw4t`3!%%*wYdk%e$0k7PnjhxFt0t\'N<]=jfUi?x:\\@pw[B(^\'WMa064_4Kzk1\'[O/T&*hrap!uB"H<tuA,I\\o@E&=,#t]}$nai1yg\'2L9sA9jKVI%IS,-{5G_#j/.$.[&@FoK%]g0yIClo/aC{n6n|lLsi;6HM{Fu|,\'Z8:a+lUt*2}X.ZE5*|W000000EEj&mzM*A@RUx,egn%uVy%rDO-ih5ASd0t-VvT64j.9m-xSsn6R5w^9sQ:g6?}EqF%pAjZ64+Nth\'tk;ET_O*9nxtzJN3/II/k-G/*wKcWKQG+?CoX$a&_yX_xaPId/iFVI`mQ|QOkt&p}U`pZko%#"<ZsTHXx'
p54
aS'0009'
p55
aS'}\\^TY~sxc'
p56
aS'060f'
p57
aS'mq>Y/Z.!=wV-%?%?UG"8FN$ww1r:"/$DC.oV("P{\'S-"w*66q}a!J(q#li8/8pKD]~$uV9y:`000000EEu88K4OPw6))GqZbU}5b1o{ohnp)Lz:kY[eR,9aE\\${ulc%pw;KUhy,TUKPq!qLK^Zb)/\\\\A32/c?{/JAm=y-&X0ihYmd@4J<A;f"`k.jy<t18-iYO)-)nh2SlgY!5>^6~,/$\\T=PGp<CFu1:_^j".ajefWSci+<s~uDyrm^#<D06q&,]7,2wKM`ybVG[KnERss)jR$_r<?]]GBL2jkQ,B?9[^LIfIZ)]qa_E(CyYp4*&VM000000EE<KD@qJRq`\'fZuL!xWu@ox\\FsWRm<4A\'+dPU;cyxra}[$C)d?9r<wnj/XcoyW<8Sz@/I&[DiYw>,:L[+e0+!l%iI*?K^_VWsmGV}H.3<9_6{CN.+=flpb{a,\'Q`<Y]Y5Zd=lw(?bApUz^b24u6+ga\'Ns.nu(Pekn]*y%EW*]|:Efr5<nU4ngie(qV/QD\\KZVE,>l1/jTF$#zO?edB0@KGtQA)y&fzTCN*<KFQh8%AHWoN).000000EEt^DFBF`F-v7^:<s]<3enk(NU:fxkEi%859:s(*%ZurMt2BZzs,LQLq>/(R"<\\]JHscv9Fj#.%C$B*-LaB(kRKu<]s9,[g8*Q\'U&OME#)\\3=z^}H*W/AhT!PhO+-f(~x.\'odQ)S!0.cjUg#g!"Rii8W"ScPc,AN!_]4B1EKJGO\\`<#<fI.miedo?MH>,kx&+9[J7G+MbHkB4YH2bE*~(>~B3%|U%p[YOrCO0_WmA3orz](k000000EE,MT&*s&.h*O#8V8eMuBS+}ZX/|\\Y%&:<5f-d"*44$Jc|I!C2j,s*2|yaNH3@kYZ]b_!J9lTu\'nNZUw}Tk2Ndp\\u>nl8[urlZ$vW!=K("6>sR@8Lf/bt<a3h7*Fs`2/o1:OOD"fyft;;AN&[q]l\'3wT~fZJEE&d1_+mu;D;zzghL=I+x["\\#;UIz4r_m7:@6"^:PKucVompI>tg{;%\'9z/r++"ijnjb"w`x2F^6?6~Wl"cA000000EE0:!xNE(;`_i4RlKLu|So|fq@2$QfNJn|1:3^6@}67Yt4L1lnqa[vzB;Ri7v+s2WE][Z~/p5#YW@;e\'%7;,mx8woI+x5&%k!SphK@+ok`GUsM%w>S3J4VP_iAcvd,Q)*>)T\'HcQ*^H$y`4~EIdR,?GE$~~nCDf%65S"k@a=ah$8we94SJhR*uaI/k$AeC=xf+O)V64_$*&vskIF-9hvu4c^mqIu<5E}RDSIVN!_)\\d.Bv()000000EE<V$sv{<xyUo\\psnlK\\[REqzb5"fm@<a|fbwfK]Omuf*4gKjr(Pn@P9"_\'ubi-ywXv}mpcxI@[z,GJ`tnf_\'eAPShIq/B=X5V#|Yw{8|LndMr6AD#ZK+)]DZ7sd#e(b#,2DguE7_?z+geLv/H8+.cn.V4"Fj9*/%d:kfkh-3&g-:=&TeJ#K+rn07:]/i:mOL\'b_T!U,dc1^?.syS(Q]Mqb%{Ak*SZD;[OX*_vV1{WXy={>t00'
p58
aS'00f4'
p59
aS'0000EEk}P8`t-w`SQSc%T\\s]tFk>5M71mj}uC:[Skg=~tl[h@hcW/`eK\'w56e^qr<WZZ]q\'tUVUCzR#UGbp\'1H~+rjtkhWdpsfy0uj!GRi+|}5O:6dL27,O~tvW&n<15lbHI)bekpHLqs_U++P?T,AkgUI-urTu8zi+y=z=$/JDc`e\\wi>_6$L_2sJ9iUJMPbzUsf2]h58I{3AF"E`)E5gm=G&i^AksM(B#]%n<n?@CAWL/)Iu%F'
p60
a.