(lp0
S'043b'
p1
aS'000000EE(m1)M^EIW?.{=4BidmvsEVB(/4pgqwh{WDiDM{87#:[K!%)GYm871EE%e0{!]}Mxht0|X>T;GMJGqdp6!1UC1m$WagQf,pmTy}sgKxXU.>y8(eOE@39k$S&:r<(%B$S0&L{:K<wZu0W[PO?P[SRvUYmH`w[0>"dHxdHm.?dMor*[i[@\\FN03l=<i/f)!s_3>FlQAPu}&7^KfAb&8eYfd[.Qme14~l9/$/qdnwxVf:j;m+_000000EE_GFn`#3mgcYYxC{pUjN;t=Q-[Y{!bM,<->AMu6^=>X+V|>N@gS%3Dr@!}dasT"<&eIGjzLR1DI+/-$SWlukN\\|"}dEb1+[?Q~xZ~n~.IgM47g}zxZoCv\'yr$5YTc7P/atqb53xHlM8=JwaugG){C;H4QUH-pa"PW|OoYe!FAq+A|e1"_ai>OhPTXF_&z"xI[8w[-W7t-KV(,xsOh.-L~VsTP=z$}#+YP3,O7ZN=h!TM?DT000000EEf.YUg?\\`[v*2[XDVH4R7VD=4V9S$:Acygry-BcxC,4u>WfZeZVSDXp050|Mn=^RYEZ=KR#;86c#4|J2}SvDM>_>ZfrBbkE5J#mKq9-~112pX&FvBhq`CFBmbD`a.MbtbF:q:kNlup1"tWYZ!FvBu3Ng]*qk;4yD\'8L1x*1}Xq>oIf\\I="a\\=3%IEYh},,K|/mbdABZbA!G9xg,8L~.&l:m/JWv}z.ZzZim|Z\'6O=U.w0IX000000EE,*Wv.)[`3Sk)\\,6&^c%;r*1!MV3_WnBscyhc\'pl)X2$yN#qc],@Brgh$U[|r`HN&$cOh+xZ4JVp_(79Y!6%Z7EN0=mBW-cAeiHzq4ho!hH6v?6G<yjX(LASh93:QK,#6~j{A,5GbX>(Kj^s^:\\uKJZFIi,;h.<`*euyj%sb^^cOV\\dx~O7h_OGU.wY/j6{hg1pM-$!rsm2k&]fp9=l`xIG@#X$l]!EI1z=<B[G(;ZqB;}M000000EE-dde<-%%gPY2q;\\XLXL9Wp0^KBW[8|QW;-LlL5}Ith$U!RyuRlduyKC(xfx\';*@"ZR?Y*8yUbp\\X"Y<u~eAOHm!=X+_'
p2
aS'03a8'
p3
aS'`ZTjnw$+0vu_05wJTZrv!E[u~Wu_M?ZwQApob]4K\\|3%&n&.&^jyd?*ZNx<*\\8WZd6ex]%l^dVGQdcfF1X%UG"#vtzyM\'|zZ}UF6BOc^1k/F+rBv(i*aiNL(-Y.*zN_%;\'Z$f8;Hz0p<>4|(=nR000000EEo"s}J8"!v976\'TC|LL^*x#Z=\\:&&-WGwvP\'$wG*GJ`sX}AA+E~v=~YMaX\\|q$I+R4@rs<@wdY\\j>I?5>p_qF+$D$$4Eg}Plcy**9PTIk\'0]a~G_\'8U$Tn[fRBz({by>^CQ0.XqS!"{<3joDUQU)\\<,,T$K?$2Ml^M3D!bnUDz+tjB\'oh@gattTqA22;xP8RcS*r"j97YPm4O"wRoEZ-m)fv7>*_D|lc:7Uz-"xZAL0ndoU000000EE}<@,QFx(pz|gz_gN#EN\'Q[=t-g.IV+W.Unc;SW!zXIh,#<@A/k]n#{(?oBtN38vbX8Q>p-qjdzv!(>3~^6!vOH[Jb$\'$dhy?"WueqyM$?$qSP9jT1OlYJ]W4UINv!8vEB|T1$mvw\'%R]ow-2=S7YVA*BdHET78i,g`OCa`RGWad[;@_/Pk++k"IZ*z?QY:&F}QN_=*Gf(:L9mc}dT*R]FZxM~CzeO3tmaf_Ik//fNNv_L2000000EE@I<&P$C"K;/a3XW&B\\QH*wuvZr3k]C6gIew=U;45C;8(g#Q<`p9o$H5]dK8I+@"$6Ws;^]23f`_Hwp*SlZ:cv5H:rZ#Rq`IWm0\\d,VtIHLkY%ik\\ff))zZWG&F%IQ`H2UeL>|9PHbQO<Lj*!s78n=X``3T%a`D!.@>QS4\\nnxMAM"o,G1t-\'QVsfWcX/4w4,9I2V~!aCy>4)>\\?3fufH+q@@o"#@{|O,gLepR5sx#^cp{4000000EE0tg&_@{++XRPZ0HH_Gw?n`g8063h2#KstYMf4n{K2ip'
p4
aS'0681'
p5
aS'7"3#sFlGfQ3g*F"`v9^g</szE4DG>J-7&gL}QCwA_WHQu%|pDg(0OMg`R2xVtmRavNXiP/Co#(*zfZZ6Zy_BlTeel{HM*m&V%!;/z>y^tqI*3([>J=/~v4~.[{6cO+gR$_*O4qHKKrt[AqGvk3LO9w={Ap:\'14KkgDtUqxPXNjSMN=k`Ud1|TjphxAZC1\'m]?(C000000EEy}l@>dfcyBn"LAi`2C^8oc?w)YC]kMsrG8{M&okold4&d{b,YN1:dsR)aZ]V7cdR\\+NTLS1);:34KBZ8@)jO-2@M3W%\'9&D7[6HJq/M\\"(n5OUN[nDW@e.Zyfms?u7SRv&NG#5a"gzt[p<\'GHe0>\'@U6"/RHSjxYmZFti<aw_[x,NFNE,*fW*uF3j1FiP7imC9@OK~>Kp3W.P2lzPyzv]_tc4gv[$%Q-Q#=Qo=l6<,XW1(000000EELL=hvc/7G@zQ$:6GPm1]ylDgXY.-,e?-+A`TP)h`aGR3Oi@Q"Kh-<\\7|q)G.$[|>%OleBebtl,1Q1J\\JJ8CW\\qcXpBWP7^|d]`frs"\\Z6ISMwRRVGMo#>b]3:+)c!+/U(p5$Qm{5G1bg`Zki~>[:HxyURAr[U/=y55<SElqbGtfxZsN$RF@DmB|ARGV+v<vO{8hY~X\\gdGppuFCy3`#>]f\\WcVFi26quw!6Oc<RU"Il}^k000000EE[N!6K.-sC?HVhwu"Z;?z3e/9_<1F_zJ?j7MJ<0S!LA{;14^l#A"%!t\\F"(O=z"/2AX7>HR-cW$1NZ_Tk"%1dE~)E=aH?MqXJ?$PgL;\'P_eH?U~>?Jq[BFgl<r5-/wV)Z*`G.S`*@-MAGQz;iKpfO28`aTk||&l,#?eAc$pOta*vpB7_cvK:Ct0,<A&lY=T&"nQIF)^OHg*fn4KzgV}a<<tPqnw"B|<:5H0agi5,\\e8pJci000000EE}kkmA0hDvnL%2\\SPLpGGimOP[3c;%7,2~#h#SaHz&~d0mi`qi<_Qb7>MHmZ)#^XcTA|oC!.5qF7ZO?qaA\'MLhl^U)s<M3p\'MAh}OD]^Uw/>On\']PA_(v_k`(UcsvaDm9rU&tWcqY{Ie\\A?`MWA{Y#xbK262!E.YZ;t4ACEt(JzSU,N-Cku_edBD`evy!":C4H/#6Lt6;mMojep)o)(90ywfDb)?@d?~KA`bw/C))#Mfo[%000000EE5^8W+V(KH6DJH#=1XFo_q/}c_3OexcfD>n4]!w~;d[hv$s<(kX\'rnB*H,kn},%rXP!q*B&bZu2kk!H.:Xhte5$vJR8t}~t^VwoeAe8wJf%\'%y[)iEF[?..W`upx1{D5IcUDxVe9</wWTx+l0]esk!8i(:\\(s{O3"&\\2Sa;}%82\\p[av+Pq(}u0c(`,bT$Z^1w-cm>>|HMiDsq1k#WK:-jOV,U6>Q6=l2,houa``=Y!5.h;000000EE~$t~2QJog^:S#v9xl1wC`V\',LJAts-LxiD.uH,Y*:r`o/b7>Q">ElQs+8XooOOE6#uIN|ZR\'aaMW]VUD02bKz?=FBuDix_*2kLr*[|azMWi?P172e"MS"\'1#;P?p*]X(=Hqi\'hM){mTSf@w0ro(FZS6<jD4dye8[%Dyh/x\\3NG-hu$Tf<Eq9|vLMb6CUg?S?rjnoow3:nX?S\'q+~wigo\'3Bxlv7"RF-$_@=N+)BC'
p6
aS'0180'
p7
aS'60z>k)000000EE7_03nVr34*P|3y#!LI861V6!b}LT,-nkA(,PXm@>tvRFpn2;R!n#(^[H)vK4hC1m?%F=1PjQ[zjfNMXtvSC#,Xna\'Gv+MC!q"-CXDv"cx7}zznMQkx$?gI$PB@KGALl(#@pQZI3rq)FG4}PUSB@3yG:7I.=#d1.xq>N>9g#:\\N.k$1,Poi[*0x1\\!JsPDLT]aII9FsUZ=^mTf$.=8l]HiZ2FaUtZQ1fS3Vn".kZI-(*#>6000000EE$q/y:%M&qL<:"ym-w3Is&-<uc\'%J"M,fx0.,>/yQ[1{ven#.,NHGXp\'Z!wY2)I%V#V5mi]]*Q9Z6a5i[//iX6put@_W-CT<bfEt6RG\'R_,Xgr(VwM|EKfa$"M:4!'
p8
aS'0010'
p9
aS'}}1>lp@sZ^WO@\\,h'
p10
aS'0026'
p11
aS'`{[$Iw6}egA8A\\&QNeYG[)psA&a&qh^be7Q-Yy'
p12
aS'0497'
p13
aS'$<8D,-+m$bS}GX:M01\\N#l[4[i]K&A;n^0k[M4$?oA&xUR/zbvdZ~0Xwe>hT000000EE#7OT5]MfnoD46oylfL0b5ExS;Ge^VaB:Yx7|f\'/*QO+Y#uF#?pjh/VRlk|ozH"ys3"vnaCxxpTh[!G]O^.3COMW($-2hh8b?\\T)<h8|%[_1T<[cEN(#(_/zvI^QKZ*`[@Gp]6^GgtW0=9t~,AxPB]+wg"&mZ5K3El0\'d,$Da}h6&nw}+4_zo\\pDgLKlnqJ9|X@#25Zt&9.8WlA90}13:a&J36@{xh%;b,/riFM+t60:Rds000000EE?X0b(O41%T,QjGn5{_mIo@w;^\')Y|IER&hSe|h<PljNZt!V}jL*pobE"+=5=o<V\'^v1;An35^x9w<y\\\'bm&SrFu{AOK+k/_mijea%m$t_40dB[8kp9njDH:=xpO4~r")bRE1YlC-ki7J|r\\82$;Nf-@)*%d_<;(\\1yiCW@OYUfm,Qf2utk0gt3X$KRRuSiB70]2)#,P2suUy!8Z6Dko.SOc.Au>o|4.+kTIHK{)/WMz**a000000EE6q|.LW%Ttl9!j/rUT`.E+:8_:`W5)d}a1"yXcW2/G90%J>uMI^WKg4EyB)kHpK9]YEh!S7";IT0!3m1\\VX=GHj#27AE5o84TL84CmmdSlLHpA#lU6$"daTF4.n~]Xg?9M;kuziX^Hn@vpx0O,.tHlm6E@=ok7-#zk(^mK^\\xTeQ!-JJHg>l]pXB>wMKZ(y=Q\\_D=^cS+glQM5?;QlVX;pTKFu5~9~!|U`c[GlKs==`RP.s000000EEuF\\NIjal<1CKh*~G#q&?kF*H$"K0Gt9G&%tV4#n)Bno{\'L,5>3>XSAyN!2KoQ4rZ.oR(qRhAZ-9|j"D6JloS?,"Z<U8k41O`V>|W"qUQDGBG$Zs,4\\PlwnBVsLrjvX,qlsO%Ge\\\'N).K~CANhsoHM<39W]j/~iAs,z-3@&ntDDZ^!.%LAocyYQU@hCqT&_Hl;d3%Ts:J}`a-[8b4P*l[.}t,Rohe@y:`+<d~^l8[%\'|iA5000000EEk<Cj+1\'R"M^~DhdNiS,66;Y7ms-o&MnoZ2B:ALDqa";x#eXp*A\\88MC&\\h435\\W/\'.GnP2G=fv75/x~uK.{w)Z0*&m}3\\pJ}j7&dv57VaR`p~:*cp>f=#eLDMsE'
p14
aS'000d'
p15
aS'w0a*__nwZ*2n<'
p16
aS'002d'
p17
aS'c<.a=,?s|;xeDyG5FR=1;&r&^t2?ZtO(jLI~9H5-Q#[lB'
p18
aS'00da'
p19
aS"Y0_0b6Jkp_<c^2QHo;7^eee6zpdH*?N}twHq\\zqg@X);kN>a1:'$#&va(000000EEsxAB(Vm~6y1\\ss(MTFh;kx}:quHi>`1&)M-D#{MYw7YM1TO$Lhex6QpL)t^B\\VumL4cpNSgT%WrCMEY!]M#BD#Oa9Ih$.|K&,yI!TLrzq@EF[iHfw1>EV*\\RK&z'W:4)x4+bv5z~!s4H(>js9Gh4vXE8a"
p20
aS'000b'
p21
aS'w4lU14EQ8T]'
p22
aS'0460'
p23
aS'm!NRK(T5EJmUX\'p.8/[)!_#l"v[9dy\'=6?7ZbLO1L\\%D*Y`{oa[IJu<~t6VPSINuDpdvx/F7S5000000EELqqu]KF0^Q>w,Fl~J|/PkFnB9]U83h]zub6`/1D!{%g4N(XeWoG%%4)m-$FSy8]=iH8|7.+(-/hdza&`#p:ifG9E=odkCcB2dj1-Sa:HN|E>WaOWi4+Tl?\\p;_ypVFHz0j%dMI,uFs>w(|+2n3X/l[IWxV/!S+a#?,);xvXOvBQ^*T{FUx14@4cm\\(F0wV.M-EXcea6~c:SlzO=q+\\~d{Bz.QqZQ8awT-\'x)2i1VkKtn6K000000EEfh-OlW.AN>-*N#rh,r&Q6^EL)C0y72FNM.LO\\rhK*8;:1^c}m\\8y}%xnN37q\\KY@_\'\\a}<@!?6t+K.?]/HK)+DUu=Rc;hIiCA<leh3?MQ\'HubAJUwURz6<W@^y)dh:Y3H2LWg(+n>xZQq5:O\\Yt2Hed=C+?$CD=O-CB8]VU`x)xR}RRRl\\wNtt*6(qrqQ,#hr*c1DUO968X]M7$wSnC@ekG%G8^cx&5sd*kuFW2YWeUV_)000000EE)H`n`"gP&(qRzu)Y{N16KcPV[`Q\\N!}4<;OP}CyNpjj9Sn@&tV>%,+,fl!FM(+^>{y1WZLRaX!g}xW|iF|a{72h)GbXu:9G]fg"D$J?w:]-u\\Fq%il]JET?/RY#:dc$"@9I_n{t+isXo!:#H%`2xsW3S_U(l4OG)X4WIhfbt}0\'p!Dhf1;*s;6d/9Y[)!mxn0cr(O[Q=o2:oFxs~fjV^Y"1rw5qEFu4Qfx\':Poio$,ZFD*000000EEBap>\'14]#S)a#]:Ara7mlijbM%I0*Sp<(od8D~Pr}?,SdZixV.Whuc\':9d\\/O:n>>`~kMGu;UlCN&Jkz^<%8S]]_Qm:)fM^rYfi]u\'n/2~=tOmC>7Zv![#@1G&zxPP>Ef__jP<~rs\'<p#D^g)`41b5|nxbevBw47JYop-6Rx!JY(\'^E&d;]3M\'XWZF%YOkf1Q!P+G-f>(&a0oL(r%hz[IymRv}oi([g(DyrTxYOVUG&gg(000000EEpHEycgf\'1ZV5cJwcIGlHqdPh$^?]Gs3b\'?n;SHw0:#!>--{8ETKB6a'
p24
aS'0033'
p25
aS'BM^6N}\'uV0Jpuo*]f>WjKZ3r-"DMnDSUAE*\\I8Pm;HUaD!p;T&E'
p26
aS'070b'
p27
aS'&xZ2JZ=iCE3raH{Ynz0#L>Pn,1(*`:2qJu^K4Oq=lkfMnn01iA=M+cKN(2oGgpv"(LJfasNE-Z27aK?B1YW-{X|pVS,Rw)ilgB4]yj\\SSVY2sPgg,xeDkVJc${9opj^ZUEc,@000000EE\\PD;n2+Cd#;@u:vQ80%(H#2ZCSPIBtmN&x:E(^7y#1@X9xs@\\c.Ap+-Wh%oJX^KeynX8.(+S)Ok:HD#he&k-,C4KXrF6HjT\\v:]f__uwG^(i>fYdyc,klF/+cAT((hFoI"S]e/~M#2~Y&[lX,C^[1"!yrHDg,Dyr8ng&_E8(~/NC-|ABmFzA\'L9eM3FKb2jD8mf_9%zDOxD=S:s\\f,E!;bTgK&-1ia?<xMqO6ly6h|O3En000000EE[_oN"v5?^dv>9(zz]:oeWS/y=-*~Q*]E!p64y=go,!ESt&fAyErwaB*H[ubI#qG%}t]2=dPAOq1Fa;itRZqiy=hWt5N\\PNahdWgeiz~F~U4wDT$pxWB;[t-(YzhkiF$%h}W6%C.z*:cvio8L]syz5w-q/d9X<~7@b}4LKHEe.n_&F4pB/X&n5m#3[pW@+yvgeZsgc+,LBQtc#?XvTLbeOK:1i+*}~#X=[;$04fTA2g<}3"000000EEmFGnQ^(K{ENMA;l`yq*]?=nNG%0YIMMAVO%~u7skj.Z|[2\'iUp/&FQ1.P^`3aHw?D\\Ev_X!K8cJ7+B}<t|!~a8Sf~l(olf$qm5z||y~l\\0*jm"i7wuS?6$-l,],UQ^WcL6XUU29If34Wm&E`!H7]n9Cl>:p7Vi&BwG-h5W&r+vE0Y1Vx1jj[tv~@YnGwVV+6SS;U;tytgYm<_-*G`mAWj@nRQ@vnID:ei^i`R.M2*dK;4.000000EE0boj!@>6/<xLsIx\'6kIwtK\\Hr}>=:zJ=GeJe@^SSkY]`p~GJS~yJ0>Uu*yXeue1Vef3:Z~BA\'IXA0,]HQ+c>c9~FsrrI]<=rzROZrfP$[Y<WOZb>*aQh>\\E0:CEC?}?;0zt6k!_[,=;!]v#@S=Rhy=?8&~+G5CWHS0%_t=!|wi~xvKmw\'N#jdWZ0\'1P.1oG^+9S^?7g-JAhiLHWO_YqtIb`od<m1T,@V-vOIJp~V>)5hux000000EE3@d5Q<Q"oJq|C$U=Ury7)a=PD%/k]N3(\\RQ>[=~fw`\\+dr1A&Q=[g6%/C\'vzYZ#TvnanT8ZM~PQfYIxVP@>"6ie&!KysR6Qif"+$|"8p7h|6wiFOqT<ps4ql-/2q9G]q}v+q0n5m*-#_>t7"2]I5c{RU1)%LUY@2s\'N@gC)4TCFlXJw^bC\\sGpP.,Gtg\'}]O!Adn3!2`}eK\'O$1:W8^oDF<,]<SdulL`ut830Ql[@4HJcQ000000EE,4{&FPAwSIJ{J9IYZ4Xy\\pblf+/R;Wt/QySwgUqIr/>GGsIx\'&{QTB"BR:1qR$)\\a;?<U^v+%E8oP|u{/!+jNROp/FEeYC@;/FRj}0KBKy1\'QK`w:i3l,@CI!)8pG{~KH9=q^s&+%Adz1}#!+K92W{P3{;goU]kPFsx,m!8a\'&Y-^.,\'qbT@29%8j.~^m\')V^nM.rcob:.:W=;Q$7}doR\'ibg>5e1CWlb-5PWj_]>\\5p+O000000EE$Y\\4!;2ZO{-KuIJY\\yyU_gbQ"L(iIa=>19?#lpvij]p8ov4!aIE;obMaEaa}wEPn>Z{~!QC_)iyB0^$*GtVYDUk;&7p@%rN@p5U*.Jd,KF5G&$0^Cs[xdN(5I/{hAJZ[\'r$!_gyCWDSZ.CLG(9w4IUPVg\'y-n{&R(CU0d<uyjh?/Q*#q4xoUp&U(kV'
p28
aS'00ad'
p29
aS'X_mWh`]Q)PR.jA@=StM5oC:i_3xzm|~d0UB|`~lsPWO#Hy8Pfg#[000000EEp_^O+8(&uj,^xfO>}P3U`i{nRN{mjmN&QjVD\\$\\v471/{;M"[39"juRX6_979y~J>/FZP!v#bZ\\:;CdW%"-+#tKqOnoJ]w\'JIt^1VPhUb]kTWLzHW'
p30
aS'00ce'
p31
aS'!O(t@~xS7,?3<mPC*$iCT#d7S\'z=K1TgBAzQ,CPZu*+8dVWhU<fn%2+A09%K{YFqwxBtqFFSifCEzYgbX%>_>*C+F=jnS^]d}Xtv0ZubG=wj=^kT#X9_ol<-r$Gb3000000EEQa\'EWd]%aZFH0l;$QHD2//c"I(vfNVj?n%lI\\Lh5<RHNsme{b$]sCW2o\')9g=c,|uGC_ii_M>'
p32
aS'0401'
p33
aS'JFt,0NJ6KA%<g,Syli+CE|>Uclgn_sJEmLdi0866S3+~{97brs<C4lq/%)LSx{[YyOm/g-Z2Q3Kz8SWO\\cdV5U=zlhBP9KB>q~c.t1Qv>gW#.UA_eo^\'I\\5zqsW4<:m7X-)-)|^K0*u|g%?7}I<0TO"-l-pCX;${/txuo000000EEb_g9\\"P(HRR]P<B_nK(K&#Q\'W6t:v&(3[.bTC:<izyxro-8"XZ=c~g1tKgV}pWngN&[!zrXPQmSH&DBo\'nq[oLPAOk&WN1y%>$9.>/@qfO_*_JRTJdF0sQI`D90jmZ!PqPo9FgF[MmFYz2Hb\\tQPrF"T"^D+F$:MZ7@@{:r*_PoVd&<MZL@QGr7?M*4M5n"zA]R#F>W+7G&=SzS79;GByI8*zrve^fRES/0n]71A2}JL-y000000EE!FRU9kv!lHZEN&U$knUNfi0XsX<\\j0>4%3>d{H;,<=kxd;s3&k9Tib7W5+u8!IO^@\\IRH;syau{RBjzKLYS:f&G=TGx,4w-,ZvHx=2wB6uwBa.{J&]<DhzMW(bBu2&&yCy<4Q&.D)@G&vBfAGv|b(xl(u%m>&>Oa)sVCXh&XHb"FBbL:o2OK(yH?3P9#>`\'^<aRcVOZ.HE=Z[d.ZN\'BRc#N{R%$%\\w@_)aJpStohV{IjF`000000EE6GS1Mv"KB=CDJp7H8r53)^&iQF}stm[F3j@ZdUiyu:[[MF|^Jy6hR|+w2fi(CvJA\\yJ3X-se5**z^R!R0#N~_rXCf[3h&8*VSlLi|OH~[$h3otmZ~s;4&R)aoWe\\B[g_Qvm8Y`wSugkRZSMc4m_{6C%i-u<iBCHv+ab:,19%5%xk!i3tk:=Xm,"/6!kN6a,.MWXw,u,6KA@2TRMcU?uew\\%f>CCLpLm[2@"2^(G>;i?mw"000000EEGB-Ll_#{n&lWda)E/\'jpTc}UuWaur@HG+|*Q4OjJ(t{azJA,R<+fw.\\iRO8v6V@<"F!p%oIQexHjoo_tZ\\RJ+LYdo>:LH^].H7v"bgx^y"uo#st{M:'
p34
aS'04eb'
p35
aS'c`2sM}fLicrLdz032F4dYZ|x&wyKl/H3Jl_Z]t[_o*0#"jaWr/+HKWOG56h>"@N.V19s%\'xnXeue&_z%)YLq<8&\\8*.9XDqw=),m@tg|U&%miAc\\!C|gdIzLi++Y000000EEDCJDgdMX(1+TXD-7f&V(K@$6g@jPUNMyQHt?;B}F?#eNXO3&G@=Ik%$w|Jxx7Ni8}KYl]"q/spNveMX!)\'K6&Q^W1uZ!Q=!i]i]F<M>AY[_>KpT62!^LOJk*h1{^POau%#W.<rU4L{k\'I(PDU]8P=I&=xeM"[6^bIqh$D#]8w9U.CN3-W*Q1xmniZ"fH\'F9\\7H(uE?-$q0TOY&KvFj8<t[5UQis51+Nj5LOPf4z(Gmj|?w000000EE=TPK,<|L;Cm?BpTBtaNZ^]1q[cLI>iE_@u)Q^7HlV1t<j,{0SJHl"+6fRkp{Wq71<VG%&f-]/b`?M{>ku$y)eHtj+[f5Z@GnTU:bOiU|XF!f~\'zufcv^,wNsLup%mIumNW6`K_Qg0K|X<Jd4:"\\H|xe\'$_1x|=X4d#~(4SSkfTG.F%?eUO$y>f-\\.dASL&,k=_"t.mS{lb?Y}B^oB.?^QnG#:AKrcO$UW6$z0+$V1#a9n}000000EEI=^n[~)>2*AGk.?!AES>pzF||%9QrFsqY(%/k<m?+740p&ANEtzI\'ZqQ$L`0i];%1&K9m@EZ_+Gp9w8,?|_379(ue_,E=\'~&q%W{$bf)E#3LAE(TOzXW/h([w:M^7<490tF~2%CUvJzH8`OLm+<p?3jW,nzdtYNSLatr%mN;l-lF}Q)4;F-9&4~5~fq:t:<QwnV}r2@\\OHQEpVLUoZurw=n$!/oM<3gnYi\\^9e\\Lxmq}?L000000EEk|(1.0hzZ[jc6h%\'>-9+J<oxw!Be!GiY+O7=26VlrcS3.0P9NT"-jBMK0@nxL|o|T%(#rofmNn@sIche{owljm!V\\{VK3$i#6`nTmxG,`X@pC&xumY|Ej4?"$.,,=xp8Q7u0(XT2].7)*"QTMFFj1wkmhIf:I30E}y@i3+Vv:Oy_L2XV;7Bm}G-{,(ejg"Y0Znq?ut}HHZIHcmSUr#Y)RFJ>}zv"[fx|G*?4(@leT4Bba+000000EE01#,Y{TU,y,[V3\\w,v7R2[Wi654-):e.choyg_)lza;IZ$/#R=sJ3sA!kH@?q~&K,!X>S~rqJmnJ=w>P6BG|9P?X<[5p\\~gLvO`]O3{x^U!r26cAMh6zsLz[2gidhH8-;&+.GJiLl.7%`n\''
p36
aS'007c'
p37
aS'D\',2|>43|.vg\'b)4+~kB.eJi3s5?i7UjE)gC{$!|HgqvK~6JRkw9gYROKo;6;H]"Z&?nD}\'<()%XHq0o}lpKg+cF:iwClDG000000EEtDW+iLx"DqW!tj\'2ZTC50'
p38
aS'0016'
p39
aS'2l6MeszB{j-*F|Nx^n=5-U'
p40
aS'0513'
p41
aS'COJ-2`qv|DiBHh4Y{KGQ{|L}.ME}I7}?b\'LSy>p6zm]5^:fswFz}B!T&oo!f1C,{s:OAB@G]{d9O%XfhZbq|WS:`RT:?h@qix,MPTO3Wcag%07?8pe+7X;V~D0%hnu[BN5Mqx~62=L@"\'&TP)Pc{#x6#i~$V8az]SOUD<Gj$Pvd_ii=AG,sU44U[(~VeR~KT8i~000000EEaL7@1\\IEWnuyPPQtE|@1xN}H!/"C(JR/O\'wE27qPQ"vbitZ#+7bX`4v_|`to^48n:.DHQfHJax\\S*}0\\fb=#JfXJF\'%@*`]B-tE<YLtM;b84/cT"(296/#9<a\'8.|r<vWN04>N6+Z=4&Hm~cC;rgZ&5@-)J]R<5L{e%Wi,f/|_pzvIF@R)84><%"U;|,7ZYl~FM+rb8+^^SIHh{lyDirreX/~#-Y4QS_.no$B;m4&(V,!+000000EEvc/6HWJtAWhS/#\\Nw7,ha_GU$A|E9*-=GD^(H{dP~;P>v6F])Mp5;N2r5w=7)E%K4`^YLo$B5p4u-Ufr\';eCHE4\'aof5+V*STsHhUgv=2b;Ud2j}O;uehPVbd;ryx{Vzo*}NHYv>vbGx:)xLOLL=oEP5D2qGC~=j%ZjdQN[vyvOz#R3HY3S/@R\'cc7.6StSl_D4Prf/dIjG8|CSql!0R/\\ap)&S+C~l!jZEgVyL(7^IsO!000000EEI3#h$"H|H[#+/+8P7O|DnN$f(KF0T\'+B,<suUkRmz0hq!NJu_@/3_JYm})&EQr0<US|53w!COJG0TxqP!ikEX3^/$2?B8[QOz.=m=Y%+XtPO[pMi]C\\u=$?~\\49/WUo+\\\\xHE;~:l*m.\'#UIE4$0[*x3<b+AuvQBIOgs&E7|D^.aQ|L?Tm$jV9u@\'jG<-"`\\G}4<5g&HjS$zUp*N.##w`TqS%c6&kido3I2q}~WBsBs@v&000000EEBMDx4(oukua>|eGgN|RA*qJshoO#m$iz:6,Q}PXH\\[5x;,#tUX6Jj$rmJ_d#TiyM&;V_/R\\WJk<VxV7_GuzBUy=3cQ$YmHC!J"$+s:gKv._jp?uw$RG4Bj4deca-Q:C59o}1#q(B#p,:|jO`=+xuwrNZ`n?e%XZMLyIcLEsbw?R3fv|jI]1wJ/og*o~]__$v;^wQwi!oWXUh1V6iMf;@9d<&1dkX#B\'|6`_PUU1cirR}y;000000EE4F(5o(XY"UFZ{=]$6+ewv*9c+R|;"7_@a,B{VYr#z+SX]`C|)iv5MLsIT(OO[H8\\~"U$_10ayDO}o|T6n@?&_]}FwU$#y}{\'*#32VcrRal8I7Qsi'
p42
aS'04d1'
p43
aS'j|%gySnh*Al*O7W2hItAy{Jdqis9AZ;":ecez&e9&E{2(y{M|"|iB!)(U&2)/rG%Q?d(Gd=fe&?<v^JSbYs?{P_lZ[5;MMcr8#zDK&]1k9BWJ9NG@DN172$B/v4zi.000000EED-|_rbMbTOvea{V5a~852WK}I:$G^v"%fw4jX\'GRX<{\\uy0Z>P:W:NzGAhsC_t@v&w)qVQQtbJw|r#M~\'Og\\=^%SE2SeVig4v``nc\'.*?%TI%gJ>L6OF_^{D:UwBV6/gLx^02)1#`GR7N*PW9)Fl$15:H]E8@*AGxg>1\\/$/&X5WAIy<}{$p-%e2ILifz|):pu,2A@#M<_>O2P1qKyna,k[;.H1L0c6/^J4ePNBTG:LpVR000000EE3_u$iY_Coz*~HM>AEd>!OXB#IDpSd-[3)Gr5>#^GUIl`um^7fw9ecHFkg#Wz~`U#Vhw9rR4l)Ec+sZ/W3@p|b_9\\Ta1SY}TKj5B,wu)~9Vnwl6ULii{AtcgB!oicFZKh/}tfVa\'4@,%g0Bp%=LQ#Au6fC-]U+:k*y</[F=N\\M1P!AM,1m\\f$`cl!nyLw(wFIPN":McC68Bs`$RIMj[wy}W~,,[`C_hDQV3d\':{c\\nH{?A{000000EEy6{FR8[P#fCJU@oO)036WvPKXEvu&J_[/P]@B?Q)jl+X:u.~^GGI,V!9C{JhNLFI2(c~aiXX6m-/SXcMY+s&?Y,bSWb]52_YXHIGk<m\'\\wxT_U;eI>k#7KO"4!w+z3kUFv{j{\'"l9@R`.3H0#,U9.?2uqfIej2{E=w]b`;CiMsyn`XV_MXt*BgE7ub.]lJ@=9z+Mk9e9Git9Lzc^?kxnF+d:1Ra[7`JC-&3?BG2K&T@o$4000000EEi2!c7P]^wL=3XD4}\\$>Aq:%TRW40u-CY@8W?nB#7<+X^CO``>.nHL&++F4*;$o3k\'6F8.3Xzz>g^4f#~dkELjoCM\'{HVdG6R[`[/Uas\';z19Mv\'vc{ljl(~i%%tOeo6trwW=**eu;L"8$b>8|IaHiLQ8"ntHKc>1u.3~=Ibcy|Z7(eAmHh3b(*VmDdH{;&pwa/JW|\'74fi@_u2"I_+A|~<W1]+M6RVd,?,H(c/vO//KVs!000000EE%VW!lVvIji[zx-n&UP:<SO"^;iVh;F@B*<W7.1Zg(1x}aUj;7x)_efOX/1Iw?An\\Nk_82tLOLtK\\0aNra_@8b};Jp#Z%p,;f:nt=l3)3KHj!Ln6p#(~'
p44
aS'007c'
p45
aS'sIibBmQo,xvDfeM;~`6U:S8Z\\bX/[gn2q2.Q}.:tL9o2\'"NTL8evLy@5BKX1<Ru{<m$RC@{L6S@X"\'RL*hJ0s-!OGd\\{9D:%K9,jP->ic6B\'Q!~4HBsyehH&kK90'
p46
aS'04b8'
p47
aS'00000EEstP\\k"N]Knqw6ohsko?!#4/h}<HUf7\'\\{*44{mY|HQ\\"gRZ<r+9yZnmcgo.@rA#Ep?Tb~k>!M&rm*C~@^|%pFL_H}#g3;7Vt4b:ycAI+:\'=o7_~Or+/5X$@eL~f^};"lsI_xIozaA$nr~`)zroK}h.<i?$%}WJ}2dT#z>?W$;Rdj`~g-iGY>>9LsHpvdpZz&Z^n;bio[liZZA5IZ(zO\')D:d_7w\\KVCUV7Ts[kNR^}=S;[000000EE^H_WB+T"D3:&VB_3+h*i:dr7/iN#87vF1rv%NyHVQs3+9p6lmbUIX}Rj"z7O.8]{J.dk8osF\\;3ex6ILFmr$TDk%!"XIM3vcoSEQo^f-\'*S;uIJwmbtd8v0\\dqpl6QaR^6/UZY|H"Mol4dBD$|WE\\xk=01#N1YF\'NkLlR0-^HzmGZd^&7!}uCFH#X=h7WB\\<n5;?Jq^9hiOt>:a4H=B?9YE\\)E!Vn0[>Ki_4d|6k76=pZB000000EEF[fU:R%*D@Z=kY:2C<n>-FvU~0uX3w(gYnl**FhEW;%^dPln(1w)l>ksjJ51qcX?11pZIldn#5=ib%v&[NWX_2FwKbz3]ydv?Yl9@|f2c_DQxXlb)F4SAn?X(v#@@uu\'kKL|1@cqGC9CY*eHd`w"*fa%CPL&^P<J[zLWvigIz{FUF+J2V*E(og%\\Q9j/s*Bf0D3C&qRTnb>_(QmK;.[A#s(|$>T~#ORm-PoV+6hC6enaaB000000EE&<e*7;:#rxWq#y,)~8bJO?g\'/Kgxj:s/B;]9W5~gujZ@c)b1$"Uh.@WE\'~:_W&uA8oKSIqAy(Y%Ay"Ow5yTD\'Mt^.bl8|XC`aZ:$Z1kaSR6-dnGQIw2\\{\'JikqPdCg\\TiD#C#_cnw?CGuLps.f5i3UQDmaxac{hjfC|S^B~Va0P%!0XBrAuSJEMsF)]&*4ammSP@-Q@pyH4};FHxUr_A-QWFc=jTp&F(IEut4M{!O$Kv##000000EEr)dz1Qc4+AtKL6f7qJgo+\\FXjcmwI_{ow@.2%Y|B]$}[r2uSSpoiHn2dr&cD9nymSN2J):{dK[sHG55oZHFw`%-(BJjR\'H#bwZNkTSmT>K9ymr.[W9Hp.F$5(IAU*:|fP9Dp<P@:}JMyRZY.WjUt;|21`cx;p0fS%2?zA3~7eN`,R:!$iC\'H4Uvmuc<AOZUe]Nw^X}e5d`H~SHfWgVQ-G@iuK'
p48
aS'0013'
p49
aS"f`',u]n`Vd}El+?0OZC"
p50
aS'02d7'
p51
aS'q4000000EESn%Uo$1F8<Z%w<xA"4!lABClQHZ8^3Py]%M#Po`bdc@>W$42:14O6!=tStIF3HMKz{y>v2UDG!9vcm[=&])HaD"m4ZFsR>xCL&tLL|>9}lhYLn&iP2GY7O?>ZG_ib%3"XKwx7|]sCO##?C)kkdCuClN\\]Y=w5iv,PL[=F5S="WD6rG^%a/@?C;?G0bBh.n!ED!_Cep[_E>mIpY0zLcIsX9Q(O<}.Z:AU+pcIM}[1xX0p~-000000EE|&Z}~:%T{m\'MgOp<271i@v%Ow;V(~5+,vxWA3btE=tbtyl@2KZ9E}yU$vcuvs3e~{7fszGAa$<aswa8hR-r;Z:JOF3Yn0fwvf6!W_4F6BW\\({N73_P_njMF.(:{:GT-I/]9@!/A^8#=bIc7z2p2KY3]h=Z]Z\\z&"Slx\'mpI3ks$a$/R>zV*8%&0>zo_oLlGzjE)6_u%s>KjTj/t-v8d!S=4+J{<p\\Ed@Qd:*Tr1)L17^}X000000EEd@YNO\\UbAQl;f/O/@OXd}Q"@QN3{vyV%rvZ:n*dH6>z*{xu#*t6S2_}h(1MKthh}\\,)]TZw;uX[61R]Nik!=9XqmBaO|7jzC*~_3D3v&LI9),t-UbO)u9.68S5?}"({6n39\\1,n2Y%GH/~}=+:1nb(Quo(B]]Phz~Tq\\>mN/^&fH>X]`9-$M6%-QR~Q%?\'I8&URc5n/w@y#d(HdT9zh.e]8JN/(ID<y\'e'
p52
aS'0204'
p53
aS']fU>zUe8VBcfD000000EENbq:WA\'mJt2mj4^*c*P0ZSD`|Mi,Ry"(j<bi4wTN{d)R#-45^us*gFRHC;H$r}\'%;-+>)Xzb^iD~2}^@]X8FK4NB\'>g3W~E(<U(u*\\v+-F<mH[s^4:fDg9a>tyLxuk#(v^PyXp.-%48V)2\'lBuIuH?__NT}oz?!du1E?cVS93fbsA,g8t6TjD\'`jSv2>sX_OQVQM!&[d@*NQOw~\\Vk*dX1V#QW~]5ROv4%7mt^yC}%1^h<000000EEBCoBooDw`4J!\\%R~Y*)\';92GrGfhYI&CK#C\\UoTyWFX14By/]5f`[_Z1,H<],2Vy^]kgEq*zIX^yi(+;AHkx\\:P+6mA(ne#q/L/<s*7`DtIBnCKP+0]Wh6j&2(VSim)Ev*rkWRLSX7<,=}Hsd`hswS7Y#rEhRltH7NUO?NyFk[<1)9QwCb/8U5.MBB[~0X1v_)AVvA:2To6){UWNxXQ\\6qL2@BROBkuR1*\\\'XO,Tgo72j4000000EEl,l'
p54
aS'05f3'
p55
aS'SuWv?>LW%V6(|LoVhj5GY\'Cc(\'U091tv`bHji1^_)^_Q?xR~{W,Phz)m[\'&,|A/!H\\S:[p!xIF!|NZ`aD;ES%eK!u6.d6=5npq7P!}4+EZs};n#ZX5YP@TtF_+9RM7M8:p8DQi`G|i"ZjyRFQHWh?>"e64RCTWj}M8",erRg\'T384qvEjviry08s,Bk1iQ(Eg;3Pg1mJ8Vf|DqR0Rba*6*"Jx$;pB?Kj(<2C+Vgos."000000EE`V9kp?*wkRfo3V\'v|36+i822zjOx@p`{P>>"lYS6*rb.Nh[1gEFpjVnQNFHSgh/t_\\{so02:(3Vqs(vTU7Dwm$IAR7D!<f0@2XhQm#.\'%Dy!nM~[dM#Q]rK>3)`elRE&^6ZM~_^%M\'?KA~PL9IHG~pibOd+m;w{`.mdUFo=F-G},N}OoDa=iJ=rBZU8Z]j6x{q\\J})R/~,)Wrk^Z3dgEe(NX<>0_zL^!MGUh(srq/OCqd3000000EE72.U,!]@@\'GLFiZ^ulm5dn`_s]g;^c"6WBm^H:Xd#=3BMeBll[xB#heG_2NC^{vGZKbA_Z@`(O|L1k;>$lau6[gmJw#T\':i:M-h;{d|!k9WKT>2|LAZo?T2xRxzK;&!wZ?}tIz\'Pb\',e<=}HvgSF]|;L;f52K2Fn,0{`TP|^a%;rQrRbI_|/}N]t##W#JpT\\-,~+<!Kz\'o#>2Z>C~F;m/J_0"yABY?\'C9s?yk*0*:&T/h5000000EEzVZQ1O,X+N|}|^`&M[`XI=mFBBa7E{r;([L~(aj>fz%*URt^o<&nzzz45TuX>8:3clo":7Sm\'$fHuttu39_5SueZUCs1J~ovRkr#(2i~t"pf<}Gi:xm&Huq?F9mRE@>>LqjYUtL9*Vv:^~&9$A\\yD&z3[q-|vCkO!,xS[8p)E0E,8<YxEx&iqHJ#W)}T.$;k_Tz@6p(3ch^_mR\\oOuB\'I6J?/8C{cbxT\\8nhHl"}_/8~U,000000EE;?eG$#gt1+Gw&D]0xd_2--wE~+1Tr0.)Ti66A,C:kkztq_f8/28ljz#]E*:pB.jNzqi]fx"2<,,@:Y\\yeH.&/]rnw/B+FQB3oRMH)Gw3I~jFa4S?L=+SLfgW<["5?\\qt=jpDSR}h*I6^`~6V)EO=Oyc+VptO8/tCTN0&Wf;mWWYLNh:?6X5>S-l&gKDx|:i)|qplk#S&I$dAu7&02e[NjKf][cylHOc{,9%`D4w8ctsn5e000000EE3!7f8Y*@Rs-`{1%o%/1Z5EA,H60"4$|7)Nh.=4%Gw_O`hB{&vUr~Lgug5]wo!<5{F(H%0;VoO|:4QUIjbdXn2z@fEk-%G7QvxEl0_O6,Q%>k,<HYt~UGQd.MY4{^.tcC&<gS]5B:l(SE7VzQa{?zOoV\'?Xfw{mpK9k^D]eb|QWSBlKX~BFRb_=*_qT[?)R6/7p*av$&fkmFcl,M}%[gdL(V~zl7GEx!NOab7wXMX,ssp0H000000EEzgzBSX+5%4BmtI`\\V?zmz"=O-9e"ORsHKSd=*;_T?*I:WH?#|s'
p56
aS'03f2'
p57
aS'1Soeoe;8~fVaKg8i.aJ5_XoZ~V/TjrI2y_f*SGwFIv|Buw#7G%/A1ONhr"*Ox>BE\'4d6}Nn&/1^AC]ROLm.?Ycim?sN[=?0mHVQ9Qj2`GxIq~-3XeI[gf>;z\\hp}%O@GVB!v^(WqwT"T*uF`V59S:.5B:I-V`4~VCJ7w{@[QFHu>-DJf$.Syv/jZ9=D3000000EEQ$$dI\'OL$Y\'/QzLor#Er_i\\`sRsm~a|(RY)?G~qe<ra/\'FVzkzgE*xc6e;MT-?=r`n\\0zoB9Q\\^vj98mCSl2\'_jYHtfF1UcOI<J=YvS5Kv7|ZwUrnp2,J>|]/14k*|S`|\'zl0c7EQq/W/qGc*NBk/U9!LF{\\Zm\'adp3yG0pQ`4kiJ-1+=#uZiV5ND>~o&Mm7*<J#JH|r@=h>zc$`%?rb]~Y@tZJ^Wi`Q1ellmNMl>D`@PL000000EEx[r?=c$I2Mhe0,Tyss}Vi6]NHb4QY/zs2+I!:?Sv,RW!Y6$c%nhIHM$J(jz&fZ@2V2!(OLan|r(y&bUt,tZ<%,9PR~.0Y+Cny.i\\q0O(ZxW:9ZV>co;@/m=UavZV8pWu`;&.u"CTJ!6cyGz`>N."Z},Ss>B&C)]HH8S~7E_vO+,h=TsDw)XzqDe%5~D^+Y`_Fv6J0b<Fc(&tw%O.-0A|nBC-C44E}jN7E}u\\\'$@_Y7}k\\]000000EEm@>QN{u*N3w0Y^agfc@KS"u)&=!W_$eb6ImWLVCW2K}_^k{WP|Dyd8(7=a:.[Wtz:&(RMuYY3?MFHm4YoIN/I{6K1#vDw/t6x<W$j3vN]d[k\\&1pBx=8~B*[wp#hmo|LB#>!Z:.U.y]t*NWgRRW$MGQxb\\Gi^oaUc47A#%pAKSbUFv)#r6,=Nwrk[ls$Lv-WpExNsJ]YT&Hs?QV9ZvUxr)u9qoPz\'Sv*LEW^k{j}3n@z8n000000EEzp}*n!l55XjG_@J~]r!iY2;E5B2)5M`IF^)FGLP91Phj9$>21L"u/a?0qBbz?gua-3R;9Ah5}F0v'
p58
aS'02e3'
p59
aS'TR}"dl)jt*&.:3GWL`oa/Yp~pTWj#oLHyG]#?Z;`XswK<x-Ap,gGeD!>/`#rU}=GWy|odh7XXp{AfZ=b&]1uViV{"$QAvE"wU64\'n@A`8~\\rn"UX#g|%9r13WHDSfR7(rM!$2M>JC"W^T#+e>1c!o=EBWz|o]E)/J+000000EErEwjhL,I,gwU,]L<KD0^R6ukZ,NKq^[7WbeiIE`0r1cem,/)UhgVgeYABM_=5JyHf63$&5GE"\'L#;m340?=Ni3F{*NQmV[P8ktp(F2:w<;x6fJg0n%jTO5ce.~YQ%Ifp/N-e@av}xX*.b*qy9`QQYfYzhWIb8ofF~bfqoMWYH,[$7c{7WoIk`u6Nq]M6p{Q\'(qR|+_R#v<*lnS=]zqvUqHrK[y:)&Qsm[#,/Y@V.L%:`~F000000EE)hP0eyn-z{Q"[eaEbO\'m?2zfE<bHQ[B\\|7hxu2O;LP{}PQKyLz|@L<ruY(Wq3@!nY]/c<r1hCicPE6oZa4\'A^x6}$9Ja4*}z8;+&f\'?i|J\'.z+04w%Bp}z>V#M}o^Kff:F|~7WK\'lJkF79\\Rxuv:-gV8&Non;fez\'MI1T8~6yBh2lfg\'qDHfGIUo+Wc\'pg&@)yB=UHtGshKQ[cPikF[?Pe=7WN{Gk9DW\\ekiq}\'QDQ~?Uf000000EEB-9o|MU6R]LWp\\t<#&w*o.q)9&unZMfkS3y1SpWym$pE2-dGe1tGv:IbY[*5.rl!A~w5}J8uELCxr'
p60
aS'071d'
p61
aS'~$#}pRy9.OPmhTdskz.bu3.toK@F\\/uHTR6Jib/L+YF4cz+U|3%C[!$H.7=%BC{&eyjq4\\o{I(K*B\'_^#`1|T=h(=6)<E=egQUT\'d|fMTbNXu%z<mmVY^I5k8^8sjn\\)3.J<`GLxpuRj-%0BlfporRK}6X]!n~a`K000000EE~.CF{WAKL3}9}~OH\\o28f01SIeEOcCp<4{>g5kD0aluq^OE~uzW%qe|31MQ>cEbq6p5e=SsC3SNQ]=MXAR&Z\'|I5^3<cYEAz&Ds:~N3.y!BWpVDPPd3chV7MBE6!J0o{{*eooD6@c,2!o{3Q5=T(NH.v:X=0Xx,/dkFHu$DCZpfMorSDd=XzYU`<Rd(dP2&K7"]`[XxJ6][yHVz2a@v(8M:u81+MBzkSEZD1>SK3E=?~Yq000000EEvnc\\Wh<EX>@X3=(H\'"/@Y;\\F55aLPrU*r?`8Q>Y`K0f~4eXSvcRR)F85jx|3e\'w"BiTQmqs:P-+:g9;-mJ\\hBl@:UxoVT*kqUwWfFn<(TJ\\m@WOwe\'e!:23S![,d*>19+b/q`JE6}+H1,_cu]*u4k[bo|tBV2#dbrF<-kC>S`D0@w~EY!F9T#f*H^E2*"%_^tf^<}sGlXRF4=D}+@B[StHymFW/w29).nR_-4^`t!@D`I=000000EE[1$t54u7%\\X~t,*0Z1R9lmxF5(3Eay4\\f]y`%4Weiw[3|Z)%v239x2/oXR-S`k_742U`~;Ve#}"@,6h}Zb#7;P,b1U=nLskdMdn9b8L:_`\\+9Uw-p$vY(^0Bgk\'hT{B\'kU&e@y"e0R1Bzdg:Bs=^wew@|D7M3n89"_u;50iB?w}zaw6j6KB~yG":?w1npiiFDS[8A::;4\'!K#Jv@}99C[/P:LZp(dPt`pKRo)P8KaJzjY2000000EE6emmr:76^\\D^UpizWgMePLQ0{zml8i.|C8ndec*9w,Zb0-QC(%=t>2_QiQyq2o]}a]LYX:tj8;Y=k}.}f2B:&f#jT~.sb*%zyVxVi2:k#{5Azcsy:Tnu-\\Fk]0h{Oco$in\\btos9ybdfu%TvncsERmUbVS#v<?zL6/#^&"PlCtg5?Q[yMZ)"<7wLdU5>{N_x>Q"u!42D|:8:>=slOh18#0dB52(+SwtT1TPR-gR$q!Q+QL000000EE(pi*.>\\2C"vtxfK@<D,bu#;<Ha$A$]&+HG$W+rszURr;Z&tFX%&Cdg7<g"f5-cO6><2]WYpams;Y.\\x7?_R"Mb=9g9)u6nazZ96N3,"7w2oeaVl<T:+BfE9~s|9b!A1wZ[HHG_!gC"yu6Xz\'>[*lyUx-s@;<ZAtA<?_wl}Z)#;x!g5XR{p30zGB/u!z{\\CCENI~XeT@hYaidG4Q(MZ.faHVPo$W)9:d`U\\{\\\\I[y6*o|yB000000EEeQ1FSs5_?<xuY!_L]=YlpwZ\'Rp?ukr!{.Tc*86wxgAF*w[RYrE.b3$kH|dVKC8\\u:bEs&vl1SW(K&DI?;Dw?}-UP%tJVz.@IcaE-+K]Y<4}w}gj0%]/z$Llm/lRXaDLUfWXB\\v;:+CV!_2Y,_#x1V8}HWEJD][pz0fb`gRuYRK!e/C#8(1swo]W<!C~%^k8A?^N9q}(S:\'4w@cgCSNocGpzeitm;[Hx+7DiFP(UY<KE!0v000000EELI[{}>nkv1LEI|&z>_Pyv][lt~(U6ODG[!sH/~n[Es1*)#oXsB^\\t,6X\\/<t$7##rjxkjg}@%Z*ucIDAE^kmF+,cvEuYd*d+vdK5`WFU)BD3a=Z{>S&Cz(:H]Q"5BM`16]7H<yDa^0/"Z8}&?jV)$8L\'G\\Z"d_(`sD)#SMsAPYKYNV{#'
p62
aS'00b8'
p63
aS'6\\ASsGtb7I5$_iWv+0J/4Kfn,,`s_5py&SOE=Tt`G%S]^WcG.\'{%HR<ROcd!r`000000EEtOj)s9%m6u5xi|jb`Jxb?&wWdbE|WnN<|wZW[izwpBy\\V!+pgM.0tUmj1Kr3!1f[#Fh"iYPTg`@E2Plb`o.~Eng?yeEx*">\\P/Y3%\\6;TL="48`\'_~'
p64
aS'002c'
p65
aS'["?jk2MudH6o>g(X_cqRsnR{tY77$vzmA&dCBOYnfR0R'
p66
aS'0614'
p67
aS'pD>9zTofU"[z\\u6Rs544=y*D|namr$D2O,[oE"-4%w(0Er$C;%dL{?9nS^zkJ|w_EmoYSSO+a-x;m}ki000000EEC8!DF4O5(\'W)!O-eg4z}U>EXvp5+l#.PFE*04u:r/j%>;DyT>r7"KBqh9UaPEPCxHzs"7tV~}zb?h>4-*GwmJ)JYABUW"SZj+8]K(CAG3PdsBA|3AC6*dME0S0\\~M^oH8(@m.KgC>,/X6q{&ch26&LV[MA6*{.58LLGK^HueI~=EFABVw9UP_NY8J_%QiKTSv%|duTxcMy`\\/qub#SX5>Np?<__R7XSV>YB:XuV0yVvTwt000000EE.4(%bgafkfI?S>lRyG/x{\\rq59mn<L->H]l2"Hf*qVhMFB~7W.aX#AzusDjMQ?]75Grj$@+R_O(%%IQ*z0$>:C"07.EH]*=5K#eX5ppcO2:-~`8,4vh;hkq2Tiz~$CXPKrj*Ob_kCDRR,9y>kk`S!qDvlN55@N=T=%2GVNl=4h3MYK9eiyH4to2.E!u2l4xlx?S,;i,Fh=mI[v[g_\\\'i_U\\\\{i4`v:8LGR7B2TK&X9\'t)[000000EEd"Q0_a)]f9*~K`j-sMkk<u!tk"d?Qe<W8Cvhr&X\'\'WvhtRh6zNS{xsJdqzD;o\'fY?]f],RRukqPw!)mn<G[8eZvJLw;TYx/wA/kY*6NY}Q`-s<j7)vD@+=gJl9)V!P-/SKR_Sk,CD\'L9\'ycfLlb0g=E[R.{Dzp%Q^|&p;42J88x-1W"8O8D=:r]zAi>EXis<X?uX%bPV{\\t5tMQzfE<"L?*0/0i1^tfX[*IC0m!3(2De\\B000000EE@>|hF9L[<n!%0y5@{h|YZZ3K&tnK*JdjmKXPFa1\'kz_y&l>\'YnW2r;n):5;0D_)J{HS#YU=.|/@n7udk+HF0]&2/bU^HwllokJ2X)~+B`|ZZLY2shWd%*Riy^iiv\'}P){dNUu#:"n=S%468"+tc3P.P$(wxq%~X6%P^:KIV=pd;?EysjQV\'0+.,lPqEysn7Wt^xm)%>X0pT/1,m&\\jr3vUSb>Cq(RwGj+TA89ym6^Tn)+2000000EEcb\\&gc~h1\\9G]7(;NB:PXx0|#0Z4"QPO}-g=wS(.Y>A)QX]j9W}G7EHw/MM61f^@S5A-c\\8c\\BzA"-Wp<h%,mOZ).is1@m@HmA]aTy0~GzO}\\7MB{X2i=E@N6jfyzK@2"Nd42w\\FS$Mo^hlKn7N_8\\f@eR4B:rQV.=A~jKyTK*!V`n{HqLdwWN)AHB&Vry_zv/t&~E\'2|4Lx=O$yK[z]Uh6w&}S@-$`x=VE@:WvT2g0(,M000000EEc%+iq)JlSYF:!jz;dh{a/k\\xs2`5e2YRI&n/O=Yyw.Y4\'m2D9w>6W?+:NDBSoGOE,z|;B>C<{*/u/kR#Gb:HZ_?y5uH&+,<B$~\\MeF{w&K\\GYvFeKI7z3BVM,(&38bvG<Nr4PKYynr70Y@UFSMO:GXd|&UhmH-C%7ox28S&VNN3`Ku"]zh3#<)2K@{R]q($-vfu?\'7q_9r1sNA+h?{Rs;bi?m[5Gu?2A5VNNvV\'"a(^gPW'
p68
aS'0358'
p69
aS'000000EEdN?4nl}ya.t}5lva\'HimgABs%Zy`!yci\'po!;JN{a=6]4>8orW$Y&BU=X#1AL,ivQQ#[{RPuip[@n9`DhT@kD)r;U59UHdv=Ff70-AVQGI;pQ%PG(H0b!?R&yL{j7e==wo8nRDZ%G30SW3;$0zk5CTYd<Z2-m/AaHyc-bR>YpBZ"F@=z)&)9>(T8`)wXSUXNx41puo^ee2C9B(2^LK:Dg1w06@g"?c9f4,@fb-:k$<\\lwT000000EE~DzY\\EA$XK^(/^#@SNtjHRgtA52C6Lg|!a\\%!7`k~HeIvz{3lB-OJS;fc4\\WOgO9\\btvdQiu-"z3!\\Sj}:v7p6G-U70=!vu>}u-MDA`!@~E,lT\'w^put!h`O=5Cb~9XxYcEiPqD5,vY!`=_vq`YzB>mPqScNG`^>C9:9a(T~XMp~mu@\')+de]8jYQ~3FxBL^fyZWce-$H_aY9>@SD.YBfZx@|jvf+q8FK;e+iBAs9]`[&/000000EE`EtSH+t3%O-&?"+#pt:V&5BEL*<n2]1IHk%pO*!I,1R[g6.8$snMIhO!,"S@`%_jZF:C|BV9UlBIPZ:XWA"UspEy\'ldhWFL=X7fsKbdJZm4<nFMnW~rFn-=YI@4?LWGLclKfz[PcYWp_9p;D(gt=aUz8/\'~:Yz:,]lHC@z-}~#gY+7RL7Rk4Z\'~\\jjJ>@v5TZ*+"3s;|8u>W^;RAA(IdB[RwP8#;Q(mYToX^-RDw)(X%;X000000EEGSoq4zC=]V~hG5`!t*aT6ybA7qB9=6f?JN\\dB/6Apo8`8~r\\)\'<c~l"a^w2K(8c;\\8R`:%hk]:%nmYXilkw$a<^aX3D`$T69*P51b1/|L[ICG8'
p70
aS'0176'
p71
aS'P]|4PU,<"W>]@PTyVi)Z-rA73Mmh6.>"kx&v+EV1kL*opb[B1A_mEw|Ye&Utc\'\'PfMj/9p)S#x(DJ5r\'ga^0Q=)gu%H|<Vp0[7=!>mzOD-gD|S\',`iTmEK*Uz(>bx-RJ000000EEEdI{(Z>,0MX;O6PsQ^%&gdo=1~pYA3J[[\\zH.ef*WCCO]*k44L7"lBFg]k.Wf!NK.5HiO&Ik<ayJ-V>j9i~Z3$C2&UK5!(kXc~+EL1,N<4K^ZKtu!0x}:KynTbQ\',j=WVbI[!A^7`E.t08=Bs:UB/q\\>NcfxAYI?t4jx?f<:RUK34o"G^~}VM=AUx\\Y{wMm8FPOIsXC\\<&vap4/rwnm!\',&Y1OiS\\nR+cw|UyIWa?^um~t'
p72
a.