(lp0
S'0129'
p1
aS'000000EEY;AN$U4`o}5;;0{E~!xuxfEE1Y"ao!oD:4FJzjP5:Qg\\llw=e`4|^v"MbWVd>[C"(8"5kFIy2$hpXbXe\\HOO|&Twx0cn9^6JH!@K9ye5|~I[!?t$N`VWxK}q}|AXtB\'d3#9\\%8B4J!MvG/&UiOM,bB5\\Vi}BH"/$y!{i<w-|oWP*i~o{,qfy2HO2Wim0*EWSv7>;1Yc|"Ug>@(%0RCxCk\'/E,6;+23^_%/rLSy4X1*z:16000000EE~O*m{f,h3v"~})}dMHEm!V:TIeEGe+ozTr=YL(Kf~SU'
p2
aS'05b0'
p3
aS'Lyt*#5PW("M.\'3=Q=y+sl.?Tv>MMY~pJFi_\\n03BR$pPO#C~l^{jpcS"e@kGnNdhGVS17ZNlG_8oT!0[0A>|HIuFF&`yP+?-hqakXkiE,N!D[AvU\\]_RJMU6HvJ{G;E==-n1=HFqC(7}!FWi&`v6Mp+V*PBFgpWd$D*?YyCz{sB+o{<fV;%x.VG#HFpAOL@&CAL000000EEb9fN1fZyyB35]Q*Jd;i*s4HC^@),dO)n)B<Z=27(,nBxXBe(f!}^`u~r]OQuj0-Df$"*"?t-`2;bj$)|}|-@u*QYiEBi$.!ar}Vxx=kX:!}5/OQc$Noy7VDT5~ul`KuIvj]WS~}m$$;-?;Ht}v^$oqn#nf.84y+c)1e2_n_~/~=J>Yy>Q"?&rmO6j=]tYV&)5z;Z>~aY5KM,vdUq??_XNIh[;JlgvTCA-_4HCn]66C+9W\'000000EE3JKr_0jXq?5`5NLGfz$_<)HN8/Yw2cy=*,wYVD5>gXb8IDC#>!27bt[f)WBQ]\\((vapj:gtm|;[Z_7\\p`QZxClQsWmB04g9Ko\'"fBoEcxjT3b>{1V)Ddae,3<k3`D}=[mV[z$F!lrzCx[ev|~s0FAg!q/+q\'DG`?ikuqQr@I-(uXvo\\LZ`OB}8b`E_*LohDG23]hyI(fit[T9rNf`+[g\\$&&b/;>bTl}WOBWPy\'CFCDZq>000000EEarW7W9Yr7UT}N8l;AXdaWc5h)L<VrF$Ay>kMQ~n\\SD(4J\\)BU}zr=tv;BAa5w88.Mp[Nfy,u@d@`5qxhk39aU8TVFXL;Unbfo6}lr2*5Ebrp*xW$M@tP|L+3jDHTd!N0va/;q|P(9O`2&1m_{\\mjgI@Wx~3lfuyM<P=%<K?6Ya`_^_w\\Yh*Kfn&s-sTq1\\n3i{\'TsL%L4OU~}\\X`/q}Y$MmY^Q<}WLCY>QJM2x\'%TW/9mX000000EEg)k.PQ/,N;fm\'.Q<)_ZA2{FjwUpE0&7rWKQi1`h([Ch*}%il;3)^(}?(u}rN!S+yGP9,zh}zMU)K48:X9R=rw$PvR%^4ig^ny@_XX=OD%2rpNMr]jO<dzN+t}~5s~?w</;Ees^!i){pva:xB(:Pfk5!W7qs\\wlb>^koRm`kd{9<:;X)#+9oxd*\'(^fYWU)GMr*9m:AKn|z+:G6]/K]B8/;^PxEr39E_\\y/fd]si4$beI[5000000EEC<(p(ylg_piBL0C"oBy9^);O!hs)[xkBIr)Of8G^jB2NFQWhOpeIrKtR1jYdC2-Z?RopIFqVG(=w/e=vN|sMn0`>Q=%eL59`voW1;Ka^\\/)5-2:qXsg!]LQN1|3*or;ee;l"22%8*Xo.9_p#-Mu=!LjU]6R7.=d%&Azo*,pJ.VBHeIR]vJ`Ws\'k$"Xu6Ho3Hj?c*a%9T,XH||<[pp$uJQs2].vt!Fpq*)d4j)}wxK"Q^dH000000EE6Gjpk1sBL&qHO=xp_R\\y/~n'
p4
aS'0748'
p5
aS'uav"bfC)^f%Zf8zVcQ\'|*f)jQ\\UnD6`sPcJ~.%D5j$)L#?:MiR[H{,4hw[l@BC\\6G&z3@NIHR")c(?:LfuMXgBcDrn5BHK-B7)RG-KEOPSc}cDOl7P8fuM)eebSQ[qR?/6j7PP%.Mnq9DsC]s.J-K#N*?UHH|]Wx~k,|JjSFSQIqsF7c1aKxd\'_4xkrXBQ2cX638s-@U_m0\',\'sfl`SXeQj000000EEL\\/TlzDK$C8KfW>~Ui]R)*;UyUCtE%>b^Q"&Dd}nht1o}ncM{QJBg9.bhq~b0KBR#:oJ)+Cn.}OPBeeQ\'l1k/^?I\\trsIA`WkjxoKC`]{3_)$svmu6@^+,`7P&`VF9t+xw{i)x^/=SuA~<sA)h`uM~iW}=PPl>!6Z@c5Cgb\\:&$j>s}tPM72+a>=[?G[Vs[el:jmI:sDoY49F*d)\'\\.hGcC{EI\\Ns=aYzIQj81b,3\\QvVp000000EEREDMG@uBdj_IJzvvsmx|;^8V|Nw~[5{Oa5Uic7b@$4Bj_(yecM^Wk{9)A\\<3g3-CK3>IW~mMSeW~.7`03e/X7C+08ldyjf]<xc+~viyL<7,$z#/#jlbr(.)H~T_kV[U5_p&%_`]4oh-r+.AN=l?R,u9Z(brh[:b>_>D;eIEs\\ijp\\<e_itu=Z%%*7fMBs{K\\R>Dcpp1e^2E`>r79~`6=7JhG3M}"{^=27erG\\7/*GuT_1T000000EEtgj80A&,MZ`?<K\\LHr\'Q.2>3[ZdXSPb$H/jMR_+1mw_)4b`Fp3W^[uF)L)W-D,0c+n^(Hz04SVId)vV5D,j=0Z\'}t\'+[t%t3&,H:U?oiXA\',w=ZCe$PU&V$Ehc*3S2f&F{)/#**02b,f~+]EbT~@<,8:Vzr*-us2Uvy[Lc.aC7Z>h;E_;mYr1[^!=j8!EsJ+DWPEdQd8PvJyS(eQ~%@3|[\'glOtkTUfr<-Yc`fc[0AKV8r000000EEN"EeSwk9{]\'VA<w4%WT-=tm/y=+,l_i`&\'\'L1/PP=G)t{z[w{GSTD,AdtVIu#=?%"tL%"5UjHr+s^C>"<S*eS$niZA_Q@AH\'sxXmIJf2qYRs3\\%]@mR,%Xj(/^6.bC8ti@<_=Y!Z+!7_Hvy(0)%J_DaH7gvzgh3k`py*l?8OJn#b:IdtX\\ck;"I\'^7^J(:"K|LX:lqy*\\/.ategDh5~^Z>E6*JoCcQYr5WV[n}32O8ma3~000000EEL6UH}aYRbDSkk/`^:S;o`VCd|afgbd"2Y8H1?8,UY45/@^=9yHonRO5U^HTmkzHucYR+F".6Y~T`[b_-NYx(u#[dGo(G<JJ~(MhY4a!ce&{,_@JBP3=,+Dv-d(X!a^LpBn]A5y(x$/W$>vkzeP\'uUMBgKI0Y/ncZ{KwCK,X^y`Fp%~9)?C[#1@</A8\'U#GuSA}C+~z#v]]v8js&T>hSSl8rrkkjLZ7eccL9g:GyLRXkISk000000EE;s`u?0c[6"rz}F-]_li%e!?!fm(as_svC4i8W;B02V*Q.4PpUQCqnW-Z3}+e8V.E5qG4p>j+X@|>fjP"&,P#+sTYEF}~9C0*iJH,T8$7(5~\\s-W3[h-djT3ev$ffQpqMde0i^@OU4\'ZUKJ$W&9p{l}IkM_)S2bxAhjk/[{vh.[6Ttm.{`|_kg@uc.%d*Y#<9zqT]1RpT_)3&9Y"&P:@BlA@\'@6:%2IGEsN$p$"xMcJOe\\`000000EEmYnaKtZM-uwc)Ax(FJYx.#FNk"0$)mJiyY|%m\\T_ND8=,:,^<#HRi+WeY&ONFp@@qmTwVa@9Y~7hY6\'A+IA=xg+sY$~$,0qXiJ>yK[GQ*}]vxGMpP92pR)4Mt+w"X?#<l}cm%KZM9qc(1=k~,*!\\rnGA,C,]B|pI8F})z'
p6
aS'04e7'
p7
aS'#Mzv`3SJ75g;7\\RlD!mE0MxJKl~F6\\Z,j30CsS[|GIzmTF{.&e\\G0s5dmh&6^;2*Wp_x@e#Pp000000EE!BP:4B)%T[M*Rd4FEoO\\edriN!3oaw4FPZG8zJyD$#Q->yf6DbZf+WG>SgP|5m(NzS^]6ULWsP]LN1;"PQNMipJ!fWw=T8lQ`@"=u8pl93<}F^ak:%_0VlOF\\c3N"H5$#!1Y=DS]wOwUZN}4(}tc#24iBH\\b*2@EX\\C#mrn9r5/*n3ERHOZ#^ntH#oa&frh,_rVUM|)g<%J^]w}IlUV\\IElZJ3xo*V=2&nh:U-1{)CRiEh000000EE@.C,H:"1R=@Y<DH9,II,$WWdGQR\\h7$=So)~&pvklj<u*MR|s\\{j;B~cPd\\>^"spv~V+}byp9!)1V,`!1p@(s(~uC/-cO4!IrVH{v"I|QwoOvdY`,OB6Dt,w=).;~tb+9|lgu-\\axoz_P[(TE.iG7ogRK^RHT/%Fblo"_L\\+vgYUaq.{X,,H%N&YtTS@xWE9R|H5o1Vd2.zi+6q1A]yTqizmZ9-[[&hNab(33LO)LM|%|]000000EEu\'qq:MbL<+2o8)&0w[W.N,XJeJQB/W0,TH3Uvci^30C{bARi1:(b!NXKcx18#YOfbtW?fdV}s6*cFT}X1`mGN33>hppvx7X0C}k)Un@xBd2^:f_v}X9\\9D}[yG6:K89_*6Cv{S*#e(^Q*:gTE~bXfE(e$:&8>SoT$J!-*kiWmDykEs1-1X#Ck6RS3Op2\\"vt^(y_HUr=E6A?2Hm4c2ny-wI_;y*g\\FZv9rBu"4qla>%{gC000000EE]o4y*4Al(\'H@:{+M/et*Apmsa1i~|um,%klh]vhu?=0!eC7``S5J=ADPQGFqxml_e/",l&)+;Jmc*_VK~~Rr:.L`(M^<+\\o?Kcz5>ei\'3!y\'yb2]W,Qu5GHwwEh(FzKk}A9meF"=m?]Gl}cC`=^zj>a#k%G^UbF=|so0t$D{{>z^;W$Ol_&~0$4EN1]<R{wc{!=TiaF*Jd@:~%$2WjEbo3p$,?S%RI}zN.m@&~A3.yl<-5000000EEpbJ?FOcXm7B@~X7J1UgxhIJ&9B(^Q`ZR3x_fQ$.1@WXGRrvw@g`1A<b!wn7`)YxCLkPCJIgQ~eDzayg0S9L21]}Z}_n~*7iIkS>vL+;?tP@dnkPf@BuhmV\\%^n<%oi(SvHg0_`m8tp/nu^rsXMd\'=Db1l4+[chey@gequTHGW]$4DoZ$RLjrf8`$~%TUH@'
p8
aS'0257'
p9
aS'_$6qUid#uM-j>\\.5!rg.qI5=qoXG"&hxQ-sT;e\\<K;AF8w$3000000EE$+/J,s0@Y\'{D|;xIdELT4F/dg6NzLwZg4,lR5,G=;2v>-hyi#co3%XEpr^\'k#o,PdVXZGS@Y?Q-"2Rt%!M_vb)#R7wUSZCQdFWw42:td<W\\{;(gE-/BQ[4y&PyA*qRTe_}i/#U!Iv!=-I|Q{OsH]J@maYXT?}OzYx[>HjBJa,#5s"7I\'}iu)/;k$#k}&z?zxUeLrM(*.==~g]"wITLKSOsVJp|f->|/8+|%}{A"P>0K69r000000EE8~UFXE,Xwv$g9EL=G-3r!ru4f!W(Wy&ueW[y{6g\\l1J<-{PPoR\'g}oY:D%~gQEQhFM9`KL3U$OeB_%R?T2M{ohk>8Zx*Pz[ky4dD-412LF/a\'CZ#Hux|m\'1qz}bnDq3`kn|K^KG_0)yL$)1oo#kYhw,Ntd)aL\'DaBWdllmL;hkY+ie(S}@AuRL`XHG\'@"R~/>l}!+j<z[\'8!k][FtsV;cBVa@@x0U*_G]=]22,_ax>K>+r000000EE$*ULW(PyU:-ZP[x/\\""`-4lwWQ{;c6+b}4zb^t45"/|<54Tz@i|'
p10
aS'0010'
p11
aS'5DviL4FT+f_eX;pj'
p12
aS'0133'
p13
aS'T"B\\47ax`5S&YVx=#84BdIH3]tI}nmT|[pbr0jZ<hyq1)z{}EOMU4E+t[0Fd?+-J~{A~.bQRZ/j;KFs/0+ZQPyllkT[1\\I{J}UILp!QI[-n"42.N?V,Ah.o{|2kHheUKt.`dzzYEXk&Dm(HqZ@C~B3{Nucr9aqR|{36*%S8;(RT000000EE/y[z\'_hiV2IpEG`g-0Y!z[~z3rZT!lFef-1qqngOND44txwj#SQ\\(Wy[dnC0qtTz}HTk(Z{t$OA$dkwSI]v{M!L8,=s;jY};;9Gu}h7TjfcESlemx#1;&xu}.Z9r#YYk'
p14
aS'0026'
p15
aS'>p.E7)omWXSW6o}t9wJ=/{:u,){${F<!\\nK#P{'
p16
aS'008b'
p17
aS"BUC/?D{nh/&AU)#+OZxN|{:qIH<$wwzM'YGm5h[R1Bf/T[e8&j'</5y`1*tjtGpPra/hy'Y6000000EE_5bmL,Ts7XP1l]`)B=b}Jt>@)u5Npz:e0mT?H4A|ElZ0>#\\]K_}E{xPf^_q"
p18
aS'04c1'
p19
aS'NFGU%s\'3-(hJ0PpV$*8+ZO_rK/vHnIs5#<bhR{e]442;=oa~Ue\'j"q]%]>7cr!|\'2cY#vAdH$)d#-(JslOhokaTaB:W~kn5EZG\\`NnVu4CS65cHCcA_TBsHs*=;m.m\\c3;90}K8I&fS^by~M/yq.)#50nF+0OdMb3>F5`=BX%.PgcJ)AA@w000000EEQ-4s!o$peH@`dF{W?>~gE>i,rA2Xkc}\\\\B/Xg$2U@`v*y7]ya,>L#t/Bhx9&0qa\\RkG*(**5?um+\'Cm@|2xOgb(zbf;Aa+GJjCw7}qd^"m!8/y2IgU|Je@eyh&QAIl>hVW(d0}*m(<Z3x<4a54Ovg~ju52.upwB`8Ipb#:;|&P|"q\\Kv%zYQEl;u1rPXBsRy|ZUJ;|C;QPF~H$3"eW{98d^Iq)ebgVC[1m}U0_5UiUFSOu000000EEdDi9,Z"CoRs6Mj`>H_2<$<DLQ$r\'?=GOPMF7a7Bl6$qS8P^`-8et&qq:1/7jykt|~PuJL$b=z~]Z6`Yc5%{$M_bf<V;V;fVHqC]I@8"Y,i[^8w2.`?rmZms3tr;"1agOQ%;7d}P&X59&r?7x4Bi::\\gBOPQNx:AMTQE8RWOqPw?WVj\'/a4jyl!2/K.8$O}"S(dbSvdf6L{2>G6C/p#t-=2L^%K&`_]^,S:Qoo~6M~3)p;"000000EE!c}]?zps;4}W:s<?/U]J#m`lV@8nh}$^~Ec[yC\'zk2JZ}NvZUX#:spHuU!!11pA(b#<Qsj|Adtnm\'BN<z3468Pn5Y.CN%ZFjD@|~A0L(h9Z_&mKl@Dctj(^)dZbBuA/+cbQ$\'%OJz-r"x@U929X+?3=(J`IN4!l~9\\ZbFQo:w\\>:1rkR5D=jjAC,Yj8x+\\}Hr"Ae\\[2<a(`<^fyhv)wz`AF)epixj@5A#NC$Yz7\\hxB\'LU000000EEX}g^p-*tfa8S%dP!/od5r)0n[|$w#TG9trQolJ5X/9al,S[{J2+Z=%iZ/\'M-Vb`]P<m`|}B\'1G~>=yx^3u095;4J1$(/ec(i}<;GY){tI">>sApx<YP$jN``uOQcPhUr\\%I?7lv]s86LDT7GqoEch)wZ;/7/T|8iE^2)xmOB#U:$3cJ7T(`$bxBRvy:l5Dg;acri_W)<X)#2TuAy>Y%PDhd,kt92>x0Ng6(L2w}X1{Itpl000000EE+r0g;wLe%!Z/[):.HH-INP\'vsxoTK\'W0Ph5h^.@zpp,e=h'
p20
aS'0324'
p21
aS'E!M6iHML>7k9\'.?-t*}Y_3h[/l{HJ/9)I"(H}n?\\d-FoLA3i=W;e^Qe,%7L]4lV>SL6G*ct89J|x4sc8.eU=|!KBEwIxtBjl~t%1DP_sZ9BE~r5Jwx#B5`gHD)3%-dhL|=i*W"a?<N!Let%{0%^h*bI"3IdZ)_jJ8ySVP\'@03Lf_(/n@>K?40/}%RWjd#M+W000000EErLGmJhQm^$v|]T=&O}a,)N}\\c(}!YQxIL0O(T$0~4slTPb[KREz)2!h,Nn3n.)\\}zJ6eF&Qp"}xK8\'MNwns}buj3>xnAblJk\\]wW#B:[6ZM9pWhA5v_B\\7oR=}0J\'#A~\\9W)-L-O-%P*x{E&1B-4N}\\du$lh"7@I)TO+gp=e\\6uo7ltC3HFHLx4<J@]E`IMs[w2`ted|[)5U5R7~[e9-t%)Z)0NqFkiVQr2"bQd\\kY$!*W000000EE}/)BoMC{SLce<Qi{-is?QKf>8\'}A_yWco9dsQh/N-g<.*thN9(_s%%mLzA]XAsyRJ:w|i+9,^\\7MO`j"qr5!oViR"!KksY-kk$|"NY$Oi9`Y<x6qYC#`n8Hxln$s}B+|usr(o4f-+i2TfpbZv}xG7-."[GbkEbS,1knQ,l@3k&{,-y=QJ|CI2\\\'cbgr{<yofM9Y-moA#=8s60;$H;$K[*W@(cPs1#J.F]WL/.mM?2s98BG000000EEs#pm\'D6bU=vJyl/W9A9_TQQ&K{F}8wz8Ot,&B8c]aN%V\\`dm{:3~s[/e>%>35,()0QckOGTmUg4mK?>%[n`@T\'#0b!\\!}{&!bHSV-;_XV@u:tSH1'
p22
aS'05aa'
p23
aS'J,Jvt7gj8]@X~N7{xFt>y$~9$!u5F"|y9IDc_M/_}VcCvE^{/YO[gT@7}hpb2RS*PF/syZk-<Lyn7h||"s8\\j{&;?JtV@Ti8:`A864Ua[$6pc`ZS`hk}B2#~_7qK_.000000EEg6Icj@%$kM16~z9~,J|@k]5eY!Td8>t1+LN#z2YjcR-=T1XIE.y+,$vVEwD%yVY\'v$65h=l,aMhy3R@|u]qScQ98,4/.R]aj!BOq8@]$UurzF&^D0CeFB$tR:RTT=`A`&QHqf:^23.&Uf"b<DcWT3E\\KDz=Iw{Kr"_5Q\'2SLH[TThwq#V=r=Y^@8oCWJa<;r@Dm|SFVYTNS~w6]=QJk[ZENg1d\\)3f8I\\tN[Y^}s56=M/g000000EE"__t8bUe8{2K&+e\'TCz`X>*Jll9y"RLMVJM>#v$UMW=pc&Iv~:W(^K82z^@cxW`O/0/=mPMCUMq&\'d0S(@4@$j\'gV8!O7L-zegfsYEt_eXqukfp@4p|`qiqMueSXe]8BQIv&Iyy7dUk8W$W6:K<d?Hx4K\'?D\'Up4B1{5Wt{]_Plt7/Mw%RBU_hG9@co(VF~;keskpKjn+[k=+HX-L@Z"1mOTQc|5BNqHn/`V2,iM)B|20<000000EEN(dmLnedwQocn"P:qx0Y;Li>|p?Dm.E_y+wCqxiII0{:)HW%@)c#r,U$,{|dT_I&9nr5;GLMU.QcD"ke=T=Wj2v%F,7SC1W&eI9x~9b:vgarP%;N8\\5ct:19v+HXyxsrtXkU7L9"zd}eH5S6=(q^8~3so>3i^`U`!Y"#W1g+!zvBM5ehBmfgjkP}a+TA@8<W\'m|)z[uQ=h1N)Ew3f2eAIe=S?C(kT@$6O11AS?}JkJ,#rM000000EE#h>UqeHa{]5M~P&mbNO]%C9TvD[$~3nh>mD<Y$d8diWFv{XQ[Fg:j!H1$]EF:Hb\\%=N~@h"3%nZgU/h@G^~\\AE)&wRj[jqwtMgGJT(:BKj*\'hv5^d,a7f?\'w9Pq\\*ST?sd%Sn}k]CPu)L])6HeuaUt7RFeUwSirC]=jZ/34%\'.(9Kj8o7K-jW88#,i0k|Z=$bhZc[?Obbv~Ve@^qn\'Dl5Ig1sutB7A,o4WSmSkdc%w{Y=w000000EER7`30CE4me3b(oY*R=:}v-I)xQx6qkfRM/b*h#..tAjA\'\'//RYbOgo>z`UDr4>q~`FX<QidG"QJGf&)ALe";*W>~?@xV<uE<NHGm=:~+C)Gc_qlrbR;wgnG4LH%=+:?5o=Bm]0@`[<(B9@GtomNW(D|S8C1n6$BdIp>l2yqi1];JlxBH`u["&43x<:xN47(rJgJQdb"Id[d&>ZrBuVl!\'kK.~$Kn</jxOC\'@n7SO"33@dl000000EE?[.(U+8HlE@qJGtlUgc2H9?BDrnH(yS!T8!,RP\'K~UT>18G<l6#;R!vB\\v\'}"RA~\\4-$~e=\\a]c[&Cfhz4]`TC'
p24
aS'002d'
p25
aS'G5|FuF-v"(E&H&z+}HEDa`lxpvi)pugrQnOzb_CCsg7(-'
p26
aS'02d5'
p27
aS'q`~=Km+C`PCrnx8K]G!3OsMRPwMBLVAqi$Q3+Ln^Cq]KnT#kL7)",[)U?\'>][dIjjiM^zoU5:$;]5U?]|.yH=,U\\uqyQZ%Xg;KdFy#Kvpq;000000EEc)Ql%Zy2nNv\\I`SJd-gZq5J@<XlTW@1B>4E=}Q?ICSY@jE]75Z<4dw;PjBGb91\\TFd+25zt{~IXD{$yJezEdqPCHq0RKV)q92V%8bzEj[LysV_U>n6XL!%)}yhc>p{2Cy7C~vNwMD/^T\\&.W"Jo&&fy]7Wdt;AyOz06F6wj"?cJP\'%":@[Exg~0+&FzTgg0lqq.1U-M}/i{Wn1$RlDZ\'d.b*6T=%!ispd.HOb1A7X3zVwC000000EE%wWX:b"uYt2W3z[@1y?n-~SCE{b_h?5-t-L6#-/aG#RN3m+YPv:$"Eh6zfUS;pMs=ctbqh1>nUt"S.eD|epQ6VG^8%*44/{![YH+WEbXu!.:l>d`*A;6?,2|l3C[{-R:%sYKwb~X81fzvJHR\\P4%j%C1=xWL{kq:E{qD/2~[xRuK6ppq=gskh!4L[uN|slp)GAI-wClCte6y!gm&<-B7,O2FuBzDj%7+|NKi[WG>hya&h9000000EEd*K}UB"s>q{VhZskEo|mE+PAK`Y2G4xa[|^u}3Bn"lEr>?\\(/hMR`o~ir:]KqnFPj%lIxkpa:Ur^fFEt"vT3DRs^+`\'jprck$(SeysEl/yxm.}h#}C)+xO'
p28
aS'03a2'
p29
aS'PfT}5I;Lb{!F(@0{FxhD`145B;]@8H#fKIh5F(b%VQg]0y]+_kU[zcg6l[zrguj]c/zdd8.<I#,Y7=EzfF?%=\'K9jT\\7\'_JmT>u<NQ|:b243{y4:Fur?.BOM000000EE4KF[F/J4P)^O".`\'GZ`nA4z+AO]Yvdpx>@-L^!z0/7kWgH}]blJny2GxRz7Y!n$l_kN49H1Ci24zMWZ[j2<Xz5(RaaGGHOZErVfI,Vi)aHhSyFa;f\\wW=\\NSfQaf,;e[GEk]f$Z^7ZssGrrRcO%`"F^MDWWoG?~&Tk?,.Wj8ZkVM[;tQ>d8\\LC7W+mh!Y/q2ve8i(<<r]>72\\W[oB\\XG)gt\'NRS)y0"{Po[^[rmQWuv\\sX000000EEI:@3FWm|Uu4Y/_!\'B`j{NA/\\4<lw2>&:rB)9j3Lmf+IK;c6R(~YHXTu]Ud#9j)~^n1rjk3Q*U&8SBM~N9oTv75kP*9fpp*@KR0FS%/jIm&i1brifPAvL|w#Q4oH3Xw({q|UCUG9%\'}S]^/$`066S:"f/vX\'vCI\'9W{qv/b|vU9_mWVYM*zH^{-O)F\\s_?x?)^"`T!W%z6YSLw8%xFmre+0i6YZo0e1C*C;W7yL^Hz$|I->000000EE-W,=Cv4v=}V8*~G4(z%Dka{B?6\\%d27I+meywwP~<Z,{~k+~)8^::mH3A1b,Cpbm#g;kQ1e$eUD]lg\'5`=u(,YX4d}`^KM,0G5kUO=92f5;,+(fJ\'q#xO:C),,""\'VnKK3Fu^4V4VhT4FWKWVn-.JL70v9E,|8}6r=E<%}mGL,?G%Z.=`w%N\\"p{^#6#=&*r);yBX~whCAj[?,bjbY;-_$h*pMRFx1_KA|-MyG0xqfAdD!000000EEcIv+p8cg|2cw:{,tn9JdTM="]"SsAuNzAZ&lu1~)GG4q#JcE#2#sM(:]l3,lC{2:'
p30
aS'0026'
p31
aS'2<U}Z}L3,rc^B_4J\\YW{"5{cN/\\&)b$h&i1T.\''
p32
aS'0020'
p33
aS'I0<Ahfl(*UNj0~^j<{pszRd!%mSf98-c'
p34
aS'0029'
p35
aS'[%q1\\fB".uQbx0;TOQdaPd(521HONLf_{TGu<09jY'
p36
aS'0564'
p37
aS'zdE@O=J(qBrwj:JrV(F:TBl#Q=j_QLvX{EO@LCHw"&}6Lncy/Ec5.3/$-\\LZz^3000000EE5Z|5#KIvl-4j"}&6a/N:y.M!W6Je1D/U^upMUKAZz@~\'VkV=i3GnKQnGN;ZNB|:!q0M{L.r%)1h<S7LYGd5o_Pk},_H}?7}~x_X~GatZ(4D?Yq>K?8RRE~MWD\'M#IN:oWYjtkm&Ob67j\\&ZkI66(v4^dO)9@"k7eciAMOYr2V}^ejVg(bT"BbIsaQ]:3W!(p&H3?z/-q_=N~>\\rwa=^h(wHaAFS5)PBx5AR2S6\'A:A=u<\'000000EE`w-L<dcdFJ`\\\\SG)H>*)?a^7ppu@qcbJ:{p-9|Y#7/.B>8CeT?7zwW|x\\HZ}TCqaZ!^,;U_28i^^((to4sLl4<)osWCW90??5_U9_o\'<dDi1/H0|=Gr)rgtxNCm2;m`x7}$C^*xEU<dDTIB6(;K5rAb^YLG[)$T\'4Ki?Ln8[JO(oIktI%&jZ`w(|km\\z.GhzD]nZm=~"&\'3{VfW2hyijG~>?KkJ1PRMv~EI_O]w:feL%;z000000EE/9S3x3[1lkN54cA}6GH%:@Kr%3a!mZFf}8fc.L/Z+?d6F4Yewk~WW&/$-H}[!>~iYP\'{"`;[5!0aKfwK^w{1oR8%HkJ.XlV%/V0Fa+\'R`N@~]V^JS%e6z,rR)F2@W7H>:@t4d"zcP3G-\'yk5!S}``,A\'b<b&"T/`hzg#G3af%f8|xZWU3F],f|!7{]|;iP2b+E8\'adHtIJ0L&FU2)n<I0Ay6If")uY%O[o35kA+*@Dp}eN000000EE`Ep`4BY\\D"Z^*caEt"LrKNoz*PFZZ$xzE:ttmrwgpGRnYXiF0~aN:=028l/fiF+^=j%J:)){)na|73Q$OLq.eUP*R(^6bHvm+s{,5Va*ju)vH,Aj+!rE(BPG*:;CyHk!!Kp!juUw5[i9aaF6A5xyo(%)J6iP|_4I,=Z=/Qk5vjRG]_$UKUd8VASPnt{Ml;N/7L4{1G+CCxGou*[o`W?Nfd#V3_%VL&i}NBEo*0Y\\gx)"XA000000EE\\Ty;_!?LtnZK9(Jh#)PnnP?(Vgz97ryNfj%>>kVb3FLfE&l0(5%JQUOTuF:dBc9G"W`]Oz6Fh7B):=+e8-Jmu>|l\'C0p(vu%`ksNn*.~fQkyl:=*>^BOqVJ-s[s,J{-fwaiRWU7;Vo/_24b!}77:aRW5%/Kh[>je.<J$mS62/pC-&{0S]Tr1G[ReWqU%mQT\'<:.&jhTV32=fu.Wy)$O5zwN>}XS}`zwMsFn?Qy*jK`f3(N000000EE&9S-bMd;MbkI66@]i2HF"[D(_QRFU[7WC4sD"CssI)j310wTlcf_#sWUV%sE(}dM{skoq;#SjILgXr<'
p38
aS'016a'
p39
aS"ZLENIlx%E~ki(N8.A~fy~p=;EK>wEJ-a90cc6~!1t{qJ?K2+9.bbN*IhD#kUOVQ1A+KnCNf[bXjypg09rl)j&a'0+*967%^UJt=s1WG\\x0IFeopH;BX=mQzr\\g0y\\ti5Hn>h0m{'X0yP`F)k[F&;1?vZ86*Xq;^000000EE+BwP@'k}9JhY0`-`_'8OE/arqEbyGVwbFPx@L7AeL?(Eon0%41[B$|O@.pE\\!W2h7qkW5d[/kiqdcAoNEH0E?u}~t<gfRV+jw:hcJ)2;`t,;IF=niY[$OFT)YPWUy>~L*/A>-{JHT5oPU8rz9YhC<NsvS|HqTo]2}]&$`M]=f|wVpWOy95tU&H^M5W~4V9m)#8*"
p40
aS'026a'
p41
aS'I}LYaR79H2mG8k-n>;(VdmML=r.&g~G`$-H\\bTC@(Z3000000EEJxRqQHq|C:OH{!h65$U73Lps"&rTGK^sOd\'xtBcGT+W[t-BB`$/UKp$v~%>17s8$XG74h#l+l:`(xRL,yWBmXM\'dS\'Ar.O1]>:SJH+1hFy/aand5Pcg39@*<nSS6p$EgIj0PXayyP|OExV+Y3\'@g&mru`5h0i.^E!}:KK$ky\\X33Y(nWTNvd*&~zI>W#{V35lUCz2IO$j@5(8Sq,A=_E`Ja!!TQpP#w@A<l*VMikxBjIT)000000EE.|s#*GkjRu`:k^L&_p.TgF7S9XT*_^Uo_D4\'5`@g((5#D\\\\%#ig6@S#?c\'AMCP(e:Pn/){:~!e~+ZrGT1,2;k&$djWrqB3_m"*Piai:SZ}:@\\WR5S(3CuhI${1uBAqBju(\\@,}W~7v]lFK*?.}tng;71bo2ffb*mW|QZ%CKTHZka;a\\v)1|]n)y,`JreA#z-V\'7YlX#(Efg@JPVK</K;?DG$qG"NF<PTdCQ5I]oM93QR>-000000EEukyIx$90db.y{NhKWhHStVD%%+-H+U@|i5(h94Zi6T%y%i7^-u^%v1H#\'cN3}wJ>n<*fJ&P#P#j'
p42
aS'071a'
p43
aS'`[3k%mwj`((_3Y4}g+/7Iw`i#t?9[mB]v\\QBmL{,#bec=q~!<Zzt8JQ~0ipK?J2uYgD[&&@KbIqR_c?H1{}j+f;,NY)"2^Rmbl-F~vU"7g=*_"Dva\'i:L]UhD]hFw:8YJC/Q!>sSiXL0.s^}O:rG<Pxql~x<;<9x4Ow000000EEajJeBrs%KRX(9Vt]LD[gi%v:CcO8`j!9}7*i4}zYrquLI+-8KCea^L~z#/}=53_!x@+%,;P`tv*P!u?U,q3F*xO\\hC#slG6;,W7P]rqdp8>!Vk&K+O-`?gNlJqoj6uWu\';eL^ysy{ub4Z[~nJezz7&Rrc%b7T^ZqOg\'T8ZJaVDd\'rtTnC$9I,,)Nf*7cP[8VGvLQPobqQ:G[H.jDrfk%UnJo|4&H8gEu(yr"$"<K!JktDq000000EEC0g6Q,ylWM1fK@k`XP|iE;v6bADoB,nLgp$bS5.|=icSLT55cB+)y32wCm=+`c[$uTR2|n<(^N-Xo#x\'y+b>JX}=er/?7PHJ(&]Y!2HJ,]3>"BPP8384(PEX0o?(V{8I7w7MV)PUOWh.(7x/EkK}KWxkP`&-0iz+iN8%U]$b"Zi`P"!}U4jo8tvg-)WdCLQqr`\\yQvr1[<7FmPk!$ZO>dGi]{@iG"C3=XodD+,Ol(^(EOs000000EE-e\'%RZ7#:.xO2fi*C6)1iYa&7JjF2$&g4K,|4$RZfe{>gQv@X3,%<97suPT[E|iM-c1%sTD4ebB\\9-1kYQg\\BHog%4{QqV.u1EZ%[VoH=a{W\\!U!P-0;,"#AEkm%l{^!?qu5}-gI[\\G21tQW*)4w68pA|<p@t`e)Uf:(=%aP13z0!-?}P{A.y7BJO0c"iVPy4Y-CKd#jt>#0D(+$}b5?vX\'jRqA9ViBqO}?D]LfftmbG}o000000EE.{5o8Xxr<rhCI4X]kD"t}y]<.3I_s/Y$4^.Gd#5p(O0I\'h{Sc\\<sjWzbT"N,S;"#1\'H(DMP0,WBa3>fL4$\'\'Fe2aYnxCx8Qk(b]=Z?dktB`fgb}Nt=hZsYru/Y/C\\&G?!/$C|w7s@mF&/G;iCmgp,o"12{0*0lJ?ygFqW0c[$06,-IO1\\%9AN|C$v|BfL:j0nXvq<NuF(nq~l^[se&H%9s2k=1&9Xb\\Q9i!"k%>3kvt~#4000000EEjPRW64x*8]W>#ROV9KMXL7oT\'%B%q+4k=o+b:XNX.Q\\S!T@Tkh@>jwcc]ZCu,euUzP!}W6+r;eo9";oaKr2mh5?r-.&#J}:};}1k\'dxCeZB&Lo/#0vEI-yBY:;,pCn!EC2G_5$5F(Jf-4hoW!>ju:_%zRE>EJWcdCfaEy75Z)jFFc)C22\\ff`WEQDpG@w%\'Uhq`UPbb7H?5v=;cHy?s?/SbJV$`#L0a_c^F6Af(U]TpJTk000000EEa7|w*ir(,ld(.G/ig+z47\\Sjm2\'i\\yWY/qN!!~0{DZ@x$ldz,~a|n20kb]$bg@#t.D/+up_]Hbnyz4r69W_9~&;S-yH^C%:s9Rgcth5<03Q|TeA>X5i(=6a&h:d"u9q}+}dBa8>tjm|,:(~fixR+8~[>U;HY@(\\IjA8h"bSiY2$zoZI?1g8qOk_r/u:([Av;:E(^fz0B[G7v-$3!.v\'WKZ2Oehr"&RaU"wD"Vwv+k"?UE7000000EE{T_5\\WRsh\'$~GZ:3W[rL#;5Lg]%]i7#ie!u:oe4!`2_S4hxz"Ych-=*f2&Qr_cJ=>E3LH!s|y%xH@GbtB,+3N"k^>1r+Hz(y\'A)m6/<H|{z*wFtR1=;+oNw6od6m2m>\'ft2o/nrvl_yp:&rw"r*8UWJVgFqDY#jvFcF+a[a+Axs'
p44
aS'0752'
p45
aS'8:&e{F\'/[FJ^-fztufC^.0aw|M><%Ltnq:IL2X=(%MS1$~MXIaumFg,fn7\\g^&bb(Tt000000EEEE_jC]LV&3NpiYYzv0UG%%m&-*nw_5Ie/`.t4.6Z$dvq[<8lmP](&`hauE.2#KX5AmGNqFU,-izQ#>Kp90@:!MJ6HDHpyPe["+Q-fe^8qzXn@;9WV>$,rvuqD5j&7`w+h-KKC[6Uye$0-.|p\'ycl-~j`TSDWJPLM<rZY"x+QH5`GO!.i<kM>?i[Pi>tIyY}x}Ol/\\Fk7WJwX`hG4C2F\'dHj00*gcxIJ54y3a[6.{zDyd0s000000EEa^1&/\\G>-tLp`r=fLJGN/{Z3R`&OAFOvC=,(g;&UnTi(}L|W,L]id7NN\\]\'w^BLvJNvWQQ}46;X)Kf[M.tl3r^VmhY~gL&Vw&GgMQ,5AC@elLz.*0U29F;e(>i{IyL^-.)`(xC.V5j0sZy_xmC{f\'\'63;w?P(SQsY&.6{/qP)L|W8>D#1MJ}rHh$U}F;g][uwdI8JghXB!U)d--2AO^TI\\(;EF!~r_j(SFzEb>`TbA(mE/000000EEHclAw@"@n%Wq0py.mM-t#,Pp@MIC/m/uv]3lBgh5AIxTIS16Hd)_C|;%Cv-6HE_uK{610P!\\`H&5nLQy0_"t1El1Q^09Ql/\'5*c+f\\U8j+sL},9,,,W\'0uHL&8{5HcZ4^0\\zp~\\S,m!aAo{>t{E`G_3m8BGX9!,\'VI(q]f%58s3${D[!q?O\'5eQ8Tw$5YY)Ou8=4XYZX}8eJSiqo`lF6Zw15<WR_P5Voex45agr.7+f%|4000000EE~ozuv|MSY3EmH}OY!i)U<cdED36T;|J-A:$qP]8_Fz<+Q0+`LI(.n;*X[ov|`b1yA5soO:QY<6I23wLPc~Q;WFgj|Zy:%*Gbi8_<k,^.X}3Fn}~L_]D0$yBdhhRTGa$AWBso*sCScBv7%$Bf|&VBKZ;2Vi_gFLz>a`ZzX+uF[p@,5odra{O<|d}Z(6dE09In2t%r5Q1#>3,xUBv:oiJXm_h=u]Wm!q=`0cz7CD*.qZ1eV*000000EEz:5\'Ly@d85a4,$@.!uZDr?(v$;i@Cs?,J^*RI\\lx%l\'zQ]EDbSn0lU*xKBViphA1[%Fu"O{agR2${FGwtvVkY"jU%LgoMJ?QZsf?j@a:Ja+#`.Lsocp#^toST6N~K:>H`+@B+jFum#_h)$|7TImnvk{$S#Hi3\'}rZFfmHgGHF$hq*U@\\(|TJYWGqkm|=biatbNn\'_A-xAIj\'Y"*q_)O,tOli(V#ff)koXcYei+^N@vm>fK000000EE&;RAs&oI{,v;4r)Y@~[Mf_j>:zWQ$a@:o^|%osH_:toBw8p0\\GSz#;s&rktnHJ6CEP/twR".r!;{[e?C*SMR\'SQ:@Gl\'k@}0e{%Go.44lJQ7DiDBkT<~-$GVm3386Ilg,RW~bS2?\'aIpk.7^<szo)]j#VR6mCG"Qrd?K<8R<6()88gRT4<O9ETt]^nhj*mw_{n;5GSg|lF`l"nzPKe?])k~\'"Ta[m"*um;XUZRNRHY-+ln000000EE0a=O(<hii:M~P(#2*_fb7+Oxpf%|&#oh&4kdx=W*6bhLTc!R*tj"kp3qYm:~x}QQ?7oJSx7[SEZ/N8Qu1*aqmM{Q@N@;s`^R{kw,I,F6MTXIfljgAG"[Y5@tsoQcL1:AVYm~|S^D\\gP:vv&*s@I$vpI-F:XNyE(tB6xDW(dyH<jQsB-}UJL5*grj!dO\\{-?GtmhX,eqIn!yb^}z:GA8<dCG(JpF@s\\k<gsL=$`e*J91yW;000000EEY5{Un.SE<Z(=piX3w`n+Vuu42ODb3S&?FCOBz%\'uL(EeNl%a:>wMq:HdjOPe=8MPl)~0REZ~6:?.n'
p46
aS'0236'
p47
aS'vCuA}:KMJ<8r5_w6L!}A[%%+>(>e#q)x:|j@9i\'}@i<QOBMS,\'R<-k}"-9`zGKzQsIh]-Q0eD7e+GMl]Q8)3va.tV?Ow4y"2PT092VU9DZm:\\c`}nqsJ{u\\i9d7>wq:\\7tE-wd>*;;sm:khNqRzzRJG\'/i$6JD<G[000000EE}_S/D(N(LfC"ri^LtEVn*@h9a~H[Q@@7iXyv16>fv@$/g8#]xb8mP!`"Z]V@:7sb|rW!R:agcTPS~xH>sGiZ-9{F}sWl16n@?5,g5_8}[u)F{~pW,v2F2FYlR%m~%jIaC_E7:Zn9(}QTc2(Y`GQHfn&>.ye&-xlZSba=Vn--kk$DEPk="e9]x\\"KKQ$f\',lQZ$}l.jxpp8\'kNPE[$=y<3(m#hmANF6"fp=@V=0(p_,yC9q000000EE^);QCNI[]=t/`a[69.U\'W]6V>;\\rgAR{h:vMm\\xePY4j&$(qfE6xg=a])x95?s@`i6P4?7pY.Zq![VCt4cCr)Wg}Z0q(>9r/b-y}e84Gvo\'yPR_=49wQ6>):vu$a[_O`.?)%-}8`2Yf+\\IoK9ck`>(T'
p48
aS'0686'
p49
aS'FPbd=.ibz8"])ACxMao8C7W.:~!_{-Hh;(JMa~;VA~U9\'_m%rj(6524!|340l?j^CSQ|V\\_efgJ:=Ra&WhTyNKs000000EEMX.\\!5lUF6Gb_?e`::*P+5hA<-\\Sox<<asuzD0<gq|c6z\\p64?6<!rc5>dSk[XrNc53iMR.[}ca{\\2*kVQ<(e\'4S.F,p3yPP9(P<:lH^D1x}p_f]oZK7f=Wo(Ytpr$22?jWMH).QA"{0#:MrC1$#\\M$!x]m=UJmo9tqPf}{l&fMg*+|cReVD*\'qTB*3gNjNi[\\IV,,Z/+Y&"0g:&6OohV+Oq;pgm*fb!*$Zio,SCn>[[]}000000EE?4Shq1P%(nz4<3P8o%;h\\sH))Y{]%Bm^I=3K,s8ihc1g=lGQ6&_S@+NvGsP:x_>D!Ho^=F$XhG*s);!BtWFTKlI=ye2}:Pi+rtPu%"wBz)o89J^.<(H#zr1rK#Ex`8tz!\'rrH5|VU|UmMrui@9s#.K\'gO~PzL\\-+:pY8L3htig)+_v#cwAI~FMR[y}p\'|PwW}Uafq;}C1\'_(y2;A*wg^3#2Y1DIRL[TmEx69~!+YqC7>:z000000EE%~yV6=;[qV6lI\'y5in:?.~pv]\'>*a,xam3K`2oq~Pq&y@4A1O6zK}X<2Fwp%^3e!:]X`:<w9>`&a*Ws3#hK5k.kk%+v^TwLuBbkR>.oB-6Rn9u]EA4t5}+h8Blkg23sk64hJOMo@a:ajJY^847px1!5CvFQ%RZ#;`TavF\')-:/+Ho}:FcPKtD.r;,>:\\:0U_zMZ(=M#)rde#|!x~\'~nZ(ZaSzi~\'8rpTX,gFcaUd=F<}q>000000EEviDzkO(v\'B"Gv:?L_n_b>c(>Ld2&&QGEAY1M"06e5r{3<PbIBjz#B{Lsx(o:~&r):#4wQ|0l{NK\'\\2u}0DMQt"4<-2kB(G+|K>J~EEXiBjV+t[\'taWilqEYfqK|ht-eb(~;%pvq[_F#pkEB%JA}q}*Sujj^$&/@xe.2,95R+Ps*0lZN0d^rqn^ZMhBKw0^XprN]b+g?vM0)o!`3xQ]`r{uq\\\'*#h={u<+a+"6trPA=27\\V000000EEkS_1Z+\'rY&"WgxVr!mVuLHhPw]*M0Vcs&+\'XOrlN1}V{e:i=(w~E`=hjLd\\hTg0>E`1qLa~.On5Ek)~#y/`]`H!4/G6ZFEkCuNA_fR)blXr2{1xoVbR|6t>3lNP(oLS/L97Ck}-EVvM?9iqoC!)B2I(d0~Lnmf`rHpqSB/6AcN#$;lA4Xx_T-9yXS]u!0|Of>A.)60u1H62}d7SDsnnMJu&lX?QC]@g%m+WB!;Hd!1R5mm000000EEDvZ\'lP/#_j\'=/fd9FMGV.\'T_iQ*k.q{#{Re.c\'nPe_gnAC8VzV$9Iz*SK8l747\\F/"\'f^p$k)+@>g.xH0$p#~w0?D)WmCnK6tEVHb7"$7I-Se0D2?!Z$%Fe{SX@+*BAvSZ{W/;khMWNI"_h4*UL$gKOp3@eDGa96s:=<I*0t_)Q$D0-)|874KzBF)8E~%\\kw,Z\\zM}SOYZ{,<Al2zdS2#4nH~)w!y)KZg!S62u1pIY.x`/000000EE|A@#8w<Y!hb57vmX)YVM==]u]CBeG"281^u?oPs0swcfre4}))t~_F#huP}K$i3%/\\]Ef)eLo1-k}vG6@\'o<Grw/pl.x#}3j%n,'
p50
aS'0319'
p51
aS'N&zFS&c1>{%[Dx[aD~=_4w6S4hi"*RWrOKvvZ-r?({"*GHE%J<Q>*WN-0ij[vWRPgNhtA8W=]#Oo`31U<9i\'?){uWY:h)2_RP*A~2}R/<c&Fg0Bl\'<re~Kf\\Z#z/"RzT}VotC5i:4^c000000EEt]i-*@l)oMd[V\\DEYWQ.<Y}zc@BX:3XArM$VK>b?Wl/JsNT6~R5Pl19KD;xMzZ8uoYB\\IItcGM:_tv*XDC,xz30:E!?T>6oW^U_23,_]9H_U0d)=B^~W{tS@.V(|,ikW2q]FMJE~^f>NEAzqDZ5;VqN|zC"5&b;RBq7C;Xmnhc!se9,r=b\'`}HdRIqOw140=4S}tNn>1w~X?!=0Yd/er8H1csu07R@plEdMofmI/{Bp?\'-000000EE(|w32lWQ9n%_6Q_rWERc7_xrj:&\\oo^CWyqLLpn@x^Bc&Qe!e^v^WZ1y/u$=Y>V[ht*q+H!qP0f(yKE{{b.mp)1Fu8KQ{i%.WYrN-d&$EOG"!i%s)/4CY4z+yD;Z{Wi%|i[1c&\\UjSTYsCt}vMO-1GDvekgK,0xGLc`R2x?hQmN=[^,}i^1uo8psxi%\\Q_I}2tpfC?L.^9&tSfawH1T(G?!Yo!,1R1*R#8v\'-<HLM|kpCU000000EEH>yRm<G`(#TkBzn5X.[7#2=zyD_\'SO-JfsN<=O:({w>x{CCk9~IX\'xV4Zw\'[?iU#[(VaijG>KPHE4_o2^mcC3!fOuf<q)XddeWI/4x<njS\'|}R:QlJ"oP9wQ1uUCuf"H~-T.R6<~dhHm,?4ZYT#-K4pADq'
p52
aS'0070'
p53
aS'R_tmk"qf?x|FmR"SZqI2@al-DlT"6LlyOb!Z#:kGpT9EGJSk\'ZxGY%CwvZWn%Vn^|X7>,NPaE1],QoEHgJNW000000EE8Ie<M\\{;D"Gp8NgMF*>['
p54
aS'001f'
p55
aS'_ZEI>d}B{!H\'"6wl?)S*.0*di\'f!iix'
p56
aS'0764'
p57
aS'n@`benj,<z2f@K6sUShf[[r9LAD9QpiaS|ns0.%p|XUp[;!k]oB{C(jj}fyVQbWiXNqcG^_l{\\&<*D_MTOpKG%JOw!XxNBoz[FWb;<aX#D[s7{*`hng\'8Px(P#F&ev[&0(i-zerf{<Q2|.a]Bl3gH\\!=H@:\'R^(g-;3!;$H\\o1b7L}kzouGr!YkTl`-000000EE"KuU%V?2=qL{\\@WctyH8]v+ox,X2RXLLO\'8lVAy+s!2c9cz&9>@Df-~8KxwQGrw7X,05Q"H:Wj[WghKhvJBhV\\q!XF8dCN}r8d]_"T|i72ZK%-|+Q?hiK~YPyC#O5l`%WOwIW~[aK-&tB9^$Q.5\\<mO\\B0bN\\\\RJ-umZT9`JMej0FNJMamk+(tobOJ`XHQk"G)X8d0?/Eth7*J]%57t6=:7V-q4AU\'LXld_1O2.ZQ?sq?\'000000EE$v+!9wn^OXg\'<Z49"D5uG,r\'M0(v%xPQWN<{U1uDO9AO_OZaW6*cTL%z,%5xMX=B<AW9Z9<`w`4[TF8}azqYCe":#nyNp4enIq4+]m2Ei4`glg$uJ)9;i]^CF/|-K_!Rl)nDX+y$A%H+0g_kId&%2cNx38q`v&@uT~9wX_Yc_#l3e#JTG+RhDlD<\':vb\'S=AGO#A<@=`#fh)L5]-9%9XQ,K}VBG7)Ic8:\\%c[2(+~nS$d5000000EEP^ckYZVWVyNlqqenMJEQ[|aZpif%>5"].DJF\\3:aUCg,,1el(IMoB!y?V0XDULfwV:A`SLIY7r`:\'C(2F{_k#RMtmFnC1dsp`KWWoPT3zs*yJqcdu{/-jI:R?Sd|REd$xjwFC<CQ`C\'\'^>N^g"vyoH_x.3:??H>$jdf^Jv5?m!fzo-5]`^w,_HgU^=hZfy.>rRz|/{\'@SI7y?#5g!?+\'xFOME7`8B4[v/~[?L/\'P|M6yPy000000EEO<YvHnwaMdKqf1^%neA[]{L.CRpBzA`Z0Q$lv"egW$C`vR#0=fw8!@OC6<S*@=c-gojyi?-(\\~:^C:fT9I}TK]O^-QuNkZHSI#8\'.Fb5eee>:UvZyGJG8?0MnOrSB|De{!g:tRGy!zYHqZ#hc\\J=:oa&~=5SS(0Qr`E\'y,%BlfO6Mf#f$qa/z"yL"YGM,":aIXVo<`o]uM:U\'hNSNMwOw67-zxEXT_(tb`/l}Y^&Bjk@"c000000EECdj!,&sO"PcZdxm{PC^[gKLl&?GfnrF5RLNeIK8BJdJ\'%NbgFa.q2e23vxdtdJC`*JLQ\'h"bba\\bchRorM[}=%a6eGj{RL92v/+#MswSa!l:*UEn7u*64TNBt]mYjZ73+h>fEa"L=*,$:tM_3b1?H5>R1TEOgC<7xO>L5\'tb+iLbK&*&:vFk74(5{G0n^,O/9G6XM?e{C;l2Y_q9RBhTZ4".z)wK#:O]vn@bqJ)qB~IG?4000000EEu"a_]3SORX!8Aq-zGf"y0]h?[l2Ww,[aJZv|z9N,r&n;}Y/kz9]xV60EHA)1o@)DKP$WB9\'cvE*s`"`YB2h]GwiF%r/jC9P<XJ(O7iRZ)YM}uu/Z=:Noc%,DaPbvPBGx8N&&W+DaEyZZcZLtM"0r$;\\*C=eX?:=>.LhCGpcKlp+4ymJXEx0V/*\\QSogut;G@p^7xd)RF\\=Ur[C8J/M5^f>x,lFAGk{u"0#O@A|`UqfW[b3000000EE[MR9S-4cYw].Qt[%fGg2B?PbGJzhlR@F\\R\':Pf;_m6TKwt1gZ9TE(le\\PWT4A,Qh$*@LbPn(J]3$gmLA&nxj1E`@lIqZW/g5lH+prr0eS3Ijy|j5T+.bd}A_7m;v*\\NL<J6`{c-itgtl[[:i=x~.&=1#2B`;a0<#AWj$sV}]T^Hi^wqrJ}xYR0fx0W&OG~A,<pUq\\t3><C3Kd;w4LZte0ZEwt5V);'
p58
aS'0449'
p59
aS'TNNtKdS[M_}7qYWg?000000EE4T+^@z1@/{b&AQ0m,8?CrhXC:wWt$)aqRDa{yv?oc%dEZA$o&nB~HvKO<G[FE[BB)IS+:WcV6wV%N3pv8[6ku[d;y!ib(_,Sh)&z4mK+2q7^q+rtptdOe[9hUL,QMOo+}HK*CQjrK</fiNP;=[W03X5YwqlqjU2YX)Tap~o<e)7RcNM-glLTaqd#)}.D:""X>9Bm,^a4-cyM-r=&,f]Yrh1)\'<?OF3fEzz#2ZB].FkG#sE000000EE%;.m0^Fm("_!-%VR24O>FSR/.Ufctf@H\\@MV0%``SNG\'L*SLXq)/$d@WDPS\\t[)J.W!>&r=U9/N;-iNL<ABeW&c7fY!ZdB\'.>50]=`fbC@HcSV^%6yxQ36XaV6-7PUrFXNtaE+jU*g\'"[o)sNT1}gkkw/N->fQ]$%h6ux12jJ;0^3DJPl^M*Tj^\\tE0cB)?/`S&T0H7>76{\'GA61yj3Y006~iRL>!>Ln2/LW;h`87IC,nD000000EEU$Xs8DNv^y3/qGWXIPQa\\SY!-"aE6cutEG(uX86<m3/"IR~[9Xb9Yj])Bz:[&=ml\'^\\g+2a7*J/J$39*(cqU\\07v%c/"%85tNkjDAmEGFMre5Hj)~/o`3]V?wQb(b_@"Z\'za7mFL*?g;EIhh(=&o\\RJ0Y?S0-iM9;f=THiHB!~^0h}!SZj)JsM"qTZ@6_&t9\\&sV3=h>DcAM@w3ih;+_f|~:3R}z,>G,/"+AB~bJw<F{Gu000000EEu~`m>fwGxQEQ-MF`^wYf&?MXGl2,Tmuiv.e,N&Hv)hSX#j5w@WhQ`2HMT>2|C"M@FlDuPtF1F%HKj`9M0%tVXH7f=AU^$Ij@&5W-cv"Zvh@=K_.<i%Rt1.,2aspLv<edm?Naol)YTh&2D};Fm1U/,3NK@`xN38;yS74I9zP2/zsUX}w8~Hqd@b$gHte_47KD\'cx.^R{kP<+d+S<v!KxqZ<Z^*#Z|<;T#zWbL;N]c)XTNL=000000EExXKF[l|0atCq2gn:a#l16a:C]akb<Nea\'7piHnS-2\'1HlVpjo_*>1u*r^w98%O=TE;Q>&bns];d>`P>F)u)1}K(r'
p60
aS'0010'
p61
aS'nVyq5w3"HLU7{RKG'
p62
aS'01ff'
p63
aS'Zwi`Y<_z`1UD\'N)wspg_lZ6`G<e6h-\\|XX+COwpl;eUE<ooldcER0"[h~X*Y7lz&YY#KGCTTj{N"%S.Y\'L3]77">f-4Oh^buHS$F}9sL`}z=@q=;|_]g=?\\]J>yTZx|<v*\\,mJ000000EEWEab&Z3vjTp`wO$PuF#S]E[E^9|;VQkhk3xCFtP+mr1iZ}}xS>5IY;a^J`is^*[P\\eHX9>}qlWrr4-+$1\'n|G:eS@*W(O(oA-zkFrOU}xg+;mxlTeLJ~@!V^S:R;]S[^j%Aqhw:09,`-;%x3hBV]{m%*I{K&.hYKikuJ,qKdc#+NcKM7^~~2:abDojI`\\$uvL/&HK)hhfhN*w(/43*|l8Sx#SmC4g8*-Kq$ut0)T73)[+@000000EED<Gx%x//o5\'p~t3:A-tu>&Z$0\\U_6&u5bpw@\\-;MPbo&N>"_Bc(K~dY+n\'LsDKvD?gkkZ^TiSiOvls,0K%86?y,E_t*R"u>~sKd1j@;pWS(njIj=~[AB\'aow#iv'
p64
aS'025f'
p65
aS'EFmL@_fftvqRz<72k{&&u{!a!2_F`~F!}(=y@*QQol1I5@:59r/(sk0`_d3}ZQMn@;xK}i%\\"uf3f5y|ANoYDn#B#,@Se<"l6O3<>\'jg0T^G7Ih0,Ri000000EE0l#7R0f%.Yr"hD5xzrCd=-1rMt`UV:x!iqQm8aM^u8<;-\'M5Nzi)r4o.uT`Sv_~1t|kI7Sb!Uo{wM`D`2t]y51sWxhL})c||q1o5baMdQ=OC;r_/WP^hG`WR2SU,ZZvSP00UR"Q=sqq#iEikNG6@^9f.7XShj3C|LMg;vs*l``~=\\a6O7<\'d5=:7^7~@(vHo;_,^y&dxlczx1OZm[f*gU((?OGyN|t)}6>/)y]xd>JMNh2000000EEoefR.2P|FZ3^:HD,;dwzL40VRc3Cr-1N#[L@B.3=\'C0ptUPCHHK&"P!O3/#&BlePlhTsK]`I2IwSh^8N)dqmQfW\\*1Xjj>;Ny\\cb+`?=e2J<fI/:7)>492:@#~uK,idl&Lmdr?$E+-^|H$*n"*Ggqfbb*\\[D3CWo-1cUsB1]F-caWBRNJ|F_{dWo4}EUSa9^4-CiDD,ZmP1?K!xS(cvB9.))G/\\[i{tO<~lP$0bPb4xqco'
p66
a.