(lp0
S'YNm/8IZe2k%ms3suak1AdnNYpgcwswaj?2a/0lOjZgj23l_9?=ODa-Tj-ypM?eajm%uyDBgvfWel/I220T09Ck.0Dfeyv,&3pI2zMz%e79IjRMy0lw,Sx&C6oOz&c3M22m=.aF6yDTo25fIsAO2gi2ka5y?oLlCzNO6sCIRMZ8js%Z7S6saI:O:ko=kuc9cyi0bI56aN55%6fkJ6mlsajjCgWIox3siYDlCDs=NYuw%dx28anlIeuTOe,5AINcM%fpsfE27hm5vA=oW]pZGndAn2_6c02I?I:mle2JR2MeFsWyn=MlM,Zc6NnOe2%wG7wb=Sf%65Qw-dtIN2m6y=d2-2AiA%2r2=uw]p2j3jjeDemDA2klWyAM5k2wNeIY5y%IYle.txCoNn%a-7g0jIIompin6ta2tb%IcZ9jued&O4mmnTCSIIQJXD3e:De.%m2dCo6Dc3eak2sARlOhrIeMxI?=2bPmIUDDbEI=eZ8ng2sp%20ijiZ.5=&_hkT6k2mdsc}2mOkbV.uvyj2R%3j6rleW=20g2mca=hjtcxJ6/fbrf%?ph8:Wodtv2m20'
p1
aS'2R%IsNIp3nw2mZI/32dnYjBs36OM2n263%p%m.ttCjtnohIOosjs:rllDKdI03sI93Zcj52w2=s2%rd2wIwemoN=EINI%N5tI:n31vj%TkfIbkf3ymm0Yno2%f26RInjcdpoktri6rdswuFw,kg3:M.uJ6xnnbgr2nRsg%nI5%2IBY5i,II&w%2IROVCssa30gn2t92Zjo62f2M5o9me=bj6dIW2Dc5iWe%0i%ja7djbEzRNIMTu%x%IIDn{,mIMrAs2CYuC3dw.otQN2:jd5%Mp:g2rZllp6Od2Ys3QpuZfeYIo?hO/weMSEDWtjNe2P%yv263.2T60Re2x2xQ%YvoYf52Myamvj7lurjs%9a.A.bYC8%WMmt6C/W0n+5%rIlY0bOzo5pP52I}fJ2niyjNu3%zYI2v3c%Y/x=MNJRIalZjkMBI=f2%s,y?a,-:5e2Vj6JAd8dUmeN3y3m322s72?a05f2oGeUQuvO.T9jjsZ222Yc2ge_jzr,-o.jWm2,2zeNlgRT6M21t_st2si5M.toorA0/hwRIl66o=JCoWh323,l,e2e2SmuCz9%'
p2
aS'2zYDbeY/n0e%eow052%Jt%0eep&nMZeNF2=kW6mj7:0o2Og%2ldlijTwWNlcdl&2MkToo222QljVwDI%jkg2Mso0x9w,m3oMIm96eyki%e2sUZPM%I%lm/twdYNp080DIvysJnlfsJIj/Z229YSkjeweg6rnw_yYl2acF,m2b%-ex29IdjLmjoujUo22iZF2meuIUI2U4cgyotY,Mz6ju=2I42jFjZUeO%22eQ%O6gfivSWRNUcl2s0b%gd2On2jnY2aNd3mcQcbnsJ8-k4ofFkINlo2zK0I-%,IaIzIMuj7oPi%5jIk{iy3za15v=WNm5o%mvuDaOy7iNcWIl6kY,eSMWpzw2xj,In2x_=.0IjntIQDun2uh02.Ml2jY%Ij7fI%n2ZxoMfg22eM0=Y=ENsg%udwNW2I%T2YDwoe:w9:wlNIp3Qng9IjMlSY_noaQUw2tl5w?CRV.YwUjj6rTgcjMH.22Dm2hx2jaiyibvSwo5SP=NIcgvuFfDO2IcN:OYhmazUv./nQgbha%mr255:52jrz-usr0OD%FouD8fB0&tC5o9t]5x4_05=ja%'
p3
aS'0DC0MnIx3t2%4ej%n3%yU2Nbo13N2sw2nx93dddOa%tWodtn2RkuYZNZn%c9ye[tOuJRaM?zht4y&lhW02wwR62QMgrvymGoljWRrj5m2jg=l.upjZbjF2O5gizso3ujYVn={des9N2,,yJm2%pdTrj=e5elM2MTjij2r=du28sI]diV03neoUpV6tljfAN=7I6tJ[dtC2xw.y2slZIJr8I%Crr2t_MNj%y:2wMIQa0rUjCe620QNsuetxiYa2kcpmeMg0xbbmpjmta6A%8bbt6.Jw6Us5EiZ3j4TL%%wrDbIJzw5l1raZrtTFYjWIr2GUNsj2yI0jIU%ae3:jioeryWN%j:e%w0Mt-taen2YcAoJ?OZnYN5ItI,,363oNY&2Zjwn,PmInIeOozWle2R%nYphs,k[am%aSmrwiI%02ZIC2MsNeO0IUAt4W%DHpePjZ5Z6O%9je2=3DOTzf2rQJ4ve2majSaMM0:T4wOYI2oip-?5oOTSiNIbt2UeD%m8yDCm2stetWfm%jtyN%epTz2a%0o%NFr2SM7J9I21retspSCYnem3n%Es5wg7x0'
p4
aS'50oejpjm4]8r&NfTQ,[Vg3okYsbfOz3YMQUs2_T20NAoii::o2%i%Nb%2JfOnNh/.r%N/onmZYgeyx825o8==AxVUwyeh9yaqCIM:=m6f:Njcj&_{2C=Cdw2iDstt/82eJ2E=0?621en6INRwCORC%YjMeh%MYFoi,j?lf.mM{2yo,png%26ksllids3zyj65/jxmOIl0el,%%NZNTjSshVAY8aZ7=Cl3cD2:oS/Oh8IT0Cmtjs0c&6C2zukoOJEAINVdM202GbasZky/?ZtczNy%0r3dj2sooO2ymo8oju/i=_j.mI%pIn2nMm=22o0%N7j]IIu3MonnejUIesjDmoN=r3kafMOOikM%mg6etIe2l222MJ7pC6tw/kyi2f0f3vfMirY3JjjCyKMD%RoETaemIy2c{Mzvik5O=rjUjIYn-c9U3z2uE28ajseaN3Y&vbzam62NjYaoEe/0p1nmlA:zEd=0Il0%fwgMbY%USCUjE,2D262nv-&Fg262b0veEsL0p=%wAMIwxOt_Ptmt/etRje0%1wteEwMxTohawOaCkOl26cMf3.XpNQi3%'
p5
aS'2hJ62jI3oI2MgozOdO%NrIIjRNe6O,p_32MIomtee3n%6uJSj/Xnt26emFlk2jRao2aJe8.vYbd2iZ8Isl%j,2xYjIM=e5it7Ok2jamOmns=mFZRtmOz5W=dom7jeTdimM6oAveR6co/m2hgfm7e8G6Ke]I0e1eder6/fIg99%d/mUk2660Zh7Zo1Y%o=ZOUY2b2nlfuTthYbTodI%=2=DwJInN%j2M,rosjOYN&t6oo:DO%A2=r92EdZlS0M2UZ2kC=2LjdLjjr2M2kIlsSgz9f3t0oeeNs6SD0ZTU&TTe__ZS%esemOIrewalIZ2O65?Te22mCI2Eo6w2nejsm02%=h5NmVkN2lY%C2FNdngWc0o9t12,J5MG53_:tjy2nSS29yZM,2/:3I%Mll8.cuoZgIxN2Eg].5r3dtNy2RtMsuZp=mcI/j8j5I6tOSz22dY3D3Ys%2let9%bx2go%DOIC2dMM:eo8lM3Zyj22YyjoaU0e/InrZ5%Docva2Nd5j0{ocJo8&ijn3z02NNozefrin%OAp20zmIq0QRdjTMTenm55i-Go08ffRTe222'
p6
aS'=%I3zFT29l2z/%ezmwl?26lv=o8M27gaJS3j%5ArMtoe0D20C6OYmo/evyZDSfO%Oy0rie%/cn3bXIjeIjorqNOYqlJOmfVao2N%uZz=EY2,2gwT2ol}lIe4a?2GjBe2s:jZ2jRUetMQflD2.c:lM4ne=.cR5Hf5TBIp{flEdmak%3e81NWwWO2vOmwUj07O%ug,md0sFgSnwew%3yG2b%ohDbwN7onAIgJse29IykDZ25=l%{E-5djsM5fYIDar3CMfQW/=N61sj%fYnj22AtMIIbs0CI8M2p5eI3{y4MZsa52k0_2ajNousapI22aC5QeW[cZr3yiTyeT=l8xYMimY%2eTWjZYJ%oba/sx.%m6rtCpjEC2i220smi%IiZr_jr=2oZoU,s2yr0osrd20Dd7==i5yzYR:j2CZjRemMI2w2etwnyshuCnos.I=MD6wbQJzvz%c/%c33u2aYkrJnwpp&22bpjgMefpj:eg:D2fl3e52%bMqje%n2sU61T%fI2l/dy6UZm5.3Ym3c1Z9m?ji_t%jItJZF3olqY%=o0C/IwonmtWsSeOCOoRm%'
p7
aS':e1jgsfmn2zIj:J0bi=DR%2am./I2%Y2TN2I02M52ZCfw2IVCxn@gwmr832%w26UtZ2d%oMg2lct2Zs%.06j%n2:5NS5yxayweW75lYgO8s[mwM2Nu5xsI9IyrI3zWuRh0060s&M22INl6MjdcI{jkeD22xmotwmJ6xQ_or3odlVr7AjjSrS2h5ij2jkr%Rx5.JjjZmj2m:C2b2tsC6iftrlM2dIToxe=rZO/[YaotAooShuw9is6HeEM&7ykdUw3MM%JNZu%6Id3b9Uz%N\x80eM3o2IZwCd=oj6wb./kfo=onrQ&kaI%aRn=,42t2l3WtAOidIejgN2o6cMD622YIee7jsfnOI_mnj%bewov22w46OV=0eQ=3nr6os2a%f/MQmtV/I2md/i:=2mNb,CI0mxlncaoan%A5gtJ7905p32=Fi2a5ipEXEIr3ftIIpCA/sVmOiC5fw0r5M2xz2qje2UeITeccj2M2?aRWP:Ng6zE2I==i5O2=Tkw,spu6Yd.2eowy9,joeI%fwhgkQ%MM8ys6M9e}ytu7nmVtyD,=2%7={oWcEi8By2sj%0UP22'
p8
aS'3b2%S10N%e0s}inD&a2,=Yzw6mdEyYi[tFxM8j3oz2nb,o2rkTSFsso%HY2&I.sdaaO_YI2FjjMm/swk2a3g2anBIE2g2gN%nja&9AINid:=mGIwsZi%2sfWtMm%jo/myIIlfDOeQfIeD8wiecDuTrd2d%o2J,Me7mE3tjie2GvkJ6PjjO22e92NYS2mT:kNOYMeo7gZlwycNoaIyqrQT2uM=QOfN=a3DeWl2=U2PqxsI/rB52n2&WvOyGNdj5CIz72JeM2i2T?s5Yn2kre3fUHy2aiVEj2%irmy8oCWjCY20,/WyDrlD2xjjI52jckmZ1Qs2aMA6ICntDam%NezJZc5INj6%%Ib6xD&G52%kohj3A26YD20%Cl2ZI%s3o32jilrA62enPoI2Ga2e%MbhnbGi=FZ_:%%J.&j/Y652Z%izUEjGZgj%3fIZfjewliOEered%,oAg53fDfxIe6lAie%MIwU01y5byQN_E2D9_ntCmzj6NvrlwMS90yOe0DiSE=66}Qto9%kempU%FF220P23mmceotCrMR.GZ6j07hwRgzlj0qOzj2Nbw.xm.'
p9
aS'I/o0F8eqmmoC%do7Cmjdf-gMSjapmyeeyir0sY&xw6NDpftIir62sAfeANu&lVf3lycMd2MSctlJsUZac2-lM5pqU3ro.joM:Zej6z25ep,N6I?25NUe?M%6m.I20oyj6Mtl%cYa2ca4QDQnQjSn2wphYDjj%Pu/MoT2322%:6s?:5J9abiie9rY2vJdY%J%oj2wen2_22jza&e322&jes&hZw2g&x,%gc0IjGYU.IN29OpDv/&igRu=o6eMye67S.fOgNd=2jJO2aO5bjI%6/2j2HW2IIXs:YN0j0r%%8zmsR-2lj%mcN:C2f%iiD{j{65Mxi2nvZI2L0n2iMs_e2j&fmS52/E3ZDpjrt4xn22yJ%I%2M22IwNnoZi:sFOi2rFIaEcrjiiQ2mekmIDt-Z2N2eoD2=s2%2fFr2I%yelaad5zey%jywZ2gs0tlymMwHkUO0RNsYYUOu/2VdtaNnM0y3jNa25fT5t2NsS6i2e=IDvI2oUwsu2dcyWrgM3&kSfU2aejx,aLx2RytGsTwe6uYQO2I%eee/6%:h23splVibz5%2t=jIl=weamo0'
p10
aS'e&dOBS%jm22ylm_2iMenv{mefcul2Nm=l6YA8u2Q%2ymOshf9jADAr2%woyA0&z,oo9o3Mtz&bmzeQQ8IAC%IW/Nb=OAjNdt2o24unTncM?D%,e%j2oTjc/m%qsMlZIcWjW3i%CatAe,WCok3myw_eZx2O8T%fdams,1ai?XO2jN,a2lEY:2j,ee5[YMR2gwFLjS]eIt/m5mztfACl[D24209lIshm%_2e22MExwepu062lZOw0biIjj59stAlef:02es3eh9NYqelvqjglZleJ5=8mC0edInY6e2=SYU%n9EM:hg%IDMt?6awE=2AM23e/u%v281nj7%j}fyOelcAU6Iy0Zicsiu:S7t5OXkR%Nz/IMyodxlr2:eRM+mg70pMRoxXnjha2%3hnjIb_0k_TyN%ln2aGIaMYpoZklN%_-22EIFAz0]jtV02j6I6pEO%2CJ2t20%s5nI0oi6S=scp/m%m5j2jU:x2iT2292zjf2RloodFIkd.jTEoo2I65Y6RjApeT3Cnj6mw,SF2UC25%ZrZ2vr%/.R2&2lgCasmdMo.tr%2sMj8mt03oc%'
p11
aS'dLT/.%-2Nj%j3owtlfsMjszAN2%WhB2:m4a=Rg2Q78%/a6GYk%nOa%p6Wa%_r9v{xscSRW2:q8720y%Qje0BwTWt/o=I58mj9a8}lbN2@oAmty,ktm8jwOsjo2jiKlcx_EyynY:99qi22gM5e52wo2]pdTIWACCtdYMVF2ajxcpei8NQdtiOhpFtyiePc3Sja7_%[2A0NajMe082MwM6%l3lh0t52DjCu23Ai8YI{w2mTa=6I2d::/o%b5YMmMW&0hnw2%IjI2nSYF%N22Es7nw%MUlmcjMtp&JeeYNwf2Cj2msj_n%z9.:pD-qtI3]mjI2w02aks/IuYI2sTY,MNDcu.NLwaiMk1M2Z9u6djmte%=rJQ3hIzoWDhD2oXOWsr,p:2L2nopIe2ko2jeJo6am4snaI2CzCY2%Ihpjjj0DuZMWkjTo2Y3jvn2ZQs&huMEn5f2QI&jrJM0OF2zRy2rmfcwxE%se3si}Ztu5.lgr2ODOXzeC92oa2%Y?Y5m3IUDI7%SQ%D3iSTj:7Ykn_65e2w2rn2gne/Zj3M29O_syyshn&JMS_oy8hDkYrx%'
p12
aS'23Zno2OM83m%m2Q52%ID63OI2=o9%0laIQ23kwnjNji5jomjMhSlhMMIwURmjIMI0Sw2nwrrM22%aI2QpDjDN2lIj7Y26%9Okdxe32yj=o/a2mw2.e:y2s0j0jk=5a2[Zom22Mi2VazzueojgamM0tmZ2=2rIi0XJ22mmddwC7=0EIO]pjNInNdaZ3oR3KyJ2T9=0a&MmuqOs6e9reS1je75GNZIsT]192jM=%I9oefm:No2Dm/a_2nMkkrRZ=Qo%/npuM2iwnyo3DIzIi-yiwt%hcsozn?YynjIj2lJw%tZ%Ob68SOCt30If9p2UpMpYD=mOpnODI2mrGInn%Z3tl:42lI3JemNdm_a5BR?5IYDtIUEkMk.gTYgz8l2=2g?0MMMoVIWnd,jCX,ryojA%MntIi:eMot2b%jQMvYywYJ%bI/5:pa22Tby&&26TiM3LZmSt%8OhcNNSonw:6zMnJs0T2dps%%j0o2JZIZitNwvM:Ye%6EedoIzQs52:Zz2Mv5sje&klozBY%MI6fY{IoR9I:%Dtj6_Qo5k2IgoT[i7Mzl:96xJr?t6hD:ej%'
p13
aS'e1btBjv3Yrt23D2MZ2%lcTM2NKGC=nC2l2Rdb2DA3Qjutem[Rz2R:YocgcZR2jeMkSjyxeIJ5fyCj/g&m2w/2&j,a2sgdtkswZOnTek5ZjOIjOl0mZe-2zw2wiha62E:%ji2tS0mwls6j.OIawne9s6k2nNRjcI5,ofVjSInI%w&3d2lW2sek,92jpemoj2eIwRS%82dMY22sAjM25Ajc2eI5a29ederW:DsM3OjwxcDMlCpwsNOm5n0zNm%ut29l9wk%3YdNpr&ewwjv206%hOn=wooE2Nj2P2uTUU5ZnMwZ:MuezyjnrO6uI2?I2imOgxysI2eio}Ooje=ajmZ8ojIp%t:v2OYpSe2T9O2C2CoX/M2mI%DemEYc06BykyiQ=:yTsaII2ilSmDQhracmet&IO&,ON2Wm7%iUw%6jiw60c%ej5As:kZieMeXt2J26M62YI20nMjsViaZy7C-Y5G8O22O%doeN%Myi.C0k&%=2ow22ZZnwNvqotZ%-mA=C22u6_wrsj9mr0/tpr22ij:MR2OIk205Ma4O:ayoD0Uhg5n5l2o:.w2MY9of01'
p14
aS'R2j0IWj%Z%A.eJYcJposSAi:mw%ml.Aemaj6Ik2TW2ImC63Ij4MejIMc22rMCmxDeMjspMeDu7mM/.{WkO:A=XZGyUCsDgnU2wuO0ksj8LVOep25=I6Z38Ie5:22mcX5MJ0z5IU.A60r%2oY52I2YtxOHnenmQymYmnDCA53MR2nyOAcJ:I2f0ZQzywasi532rkNMj0Nut0o2l2imQRM=MKUNeeCn=%s226b:IYIJGjWw3cjuOmNl0IaJweI2o{Ul=MV&22Oy2FTa2NIrbxonJiNCfmSI-Tpt2Iot7e6%.ilsF29=so25pf2fMls2M2OjZ2Ir:miW%UNMMQ703Ky%Wm9ei5Ewni2QkD2a0e0Y=0FTOzs,Pg}%O/mdNvjbRY=S52yJdy%3Yygshe9eeMoa/mtje5uBp0F8btGMmDkg.1wf2yM52N2wmpgQ4l0jE76t%25222aIe2J%nEY2erYLmng2bvTU28cZ1:cMkzWVy2rkMI5kShxUuzu64,0%3lIu0ej2YM92yq::cJjXIHU_IWpgDf2AYfSG%MN&J0y/YwMOwiwsezDo2T9IJ%Ne%'
p15
aS'IOM/jOJf66TC9yoZsIjawaTdE8e.Q22lIdCgeeYwDm9IabmnDMIu:IesJr2NLk3jr]%0f2uNM=l2&3WI/22abm/j39y6OFM1wiZMv5M%cs_yMM5iIJYksMm2k2jUnCM2t1co9,Z62bsQZn2IOIy:=*cjgO22set]egMwpmDnmoM%lehojdwO]je}/y1M6/Y2gsZgm5Ijt6i5S2eli%rr6jaavy/SI55endt2sSwZ32S0MJossa2lZlereCe6ew]Ni_MaCjygwsJJn2ZtO82s6&56Dy,w2z0jInIDU0Wb22x_CIywlOCeoT9j%IU:e&6OS=MwFM_lwZ2CYI6pY22w85Ge22khm5eOWc%21w%0{mM%s=r6vj8b26YItZ2oxjIpMarucs%aMmmflZRwb.gCbhuEB=y]dwCsM%osbo=s%eeN:M0ye1RjmM2EiMf20i6e2wiluywO2ejEjpjYo2jnIeMney:3.&&h&.maliMy_OrD2pE/CTFz::?o9S2mRO0%nMyw&w,ehuj2E60I9MJhZmrz/j2vcYdIsNR6=9MM&jWIj?j5pxf3:2e5kKmcn&'
p16
aS'zoM2C&w2wk2M=aseetenfSg=o%l0by6Nc=_z2OVIz_56Q0j-m2f%n6cI9e2%2l2b/6DjOI3R220n2mii8r2Hf&Ocwo17YtSYy}Q6g3OOkP2W25R2mO%j2VDlt%ai%ls2ht2aMf.Iwi2tDO6y%o52jppn,yN96dO2mzbnn2sw=2aBQ2,Sd63Woe0TjuDehoaNg3AeCjD%Ae9y2nsvMoW.Nn7Ejh2Ip=j2wxde=V7%OoVdoZj62jMQW-w1KmU{%mmCtxU7wY4ZOo?_CIm_wOFY2jjrn6F5lglIj6Vwyel2nIbjo2Dmm032O2.x225FbF:n%y%ooef5jQc2ymjyo22s2yMY%y2d2Zxb0Nzrl,26II2N2=QsGe-.m&fYWeuS4k[2N8&OcgVeow9p3Iat23.jm20zmweefw%sDSrrt3o2dr/c8gjEmjgms/sI2ETkTJHjy_kjr26Wj0Jx2Lj2k22=%:xIe3Ij2z=hmNaGNFN3xh56uyszYo%r?D25RitCm5ejss2v,N/MximWC237rjm3_04cvIOz5YllNcUn:p?dKvvqM7%iMMp.DzZ=a26ba0'
p17
aS'mOwm-2y22mN5NOfxj9.-U2yzouMeLFnM0ZY5bfC%2l2a/I=aZ2jYk-6Dsbm&Q0y3&.oNj3bo.5t7:5Fj2eoq%ottTeciJSy652srs23%QJglfQYjg%o2,O:ZirSJGr5IT2RwpAjy%8=AI38u73=jIE1IzjewfZBlCet:OYFx5jMnnesI/.ZexJOkg3ycplZ0lw&llnm22Jm2in/thIj_IiYkoItt2C?o27s:It070t20z.ZoTvv0o%OzpY2C2T{xbRzOs2&J2ooOj2cFwzDwu5j:=Mgryxijp&o02%w%arNwuCdAmIe%cDm0iTwfke6rjjUe2w%D_2Cc0iMm2o0:[FM.i,FuQkoYmM19kDfR/M2d0nvgynnwM[f%Sd202d4Ysji5i5.j2.m/yjJ,TgylW2peGbf26IwNykOZOrME2fxe&IEz05nvM8y66ia2d2nfF2wemWV9.?CjYMrv=3tsd1xeT/.gjDj=VJDC3WDYUUYeIIOj5a2}vs/7F=VclWN/eNT%%2Jb%4oNV6y26IXe,%ezjjNp=ijr0zrOI3idce63nctJ2t:GzKwn52Gfz%'
p18
aS'm.xDoIw.w3mu8COm2ly02eiOjYlSp=fu:CJoY2ItMed3%3:SOECR/t&23252Vel,%62INwQD7df.OjjlflIY3:%.eIMsil2ezMNTe23&OIf91p22annI2C2IMlZIaDlTn5dS/M?:=Wj26Rmts5De.xMiy]fv6Zlha8r2E:6k2jK30.2%:bepi04D2C%2=j%eOE23wl8y5oIIR5Ri2nnr5N2odp=I%g9cd9%9fOn3dwbF2eAmlYfm225sMjoY/jckSJ.ao56p2Ddoe:mn-6kp2ONja0RIjemjDr6%I-t[J4%I22i%O2owYIE20mwhMnZhe30aIDl2/_Ii&/zrJ:ZI2[YotMmBnjk9kIoMtJvm8ow73I2ZI/z0kY6o]N{n.2x6h97nNF2JI3riei02s:ow52lIogB1JWIo,y6jTVaE%2f:Qnk2y6nOS23aT&:pB,ItRN8DfIW/%IposeIk9%tek2f29Mc2o2T222.gIf9m6-SwgPhm0n12om52Nj&lC0CiaIm2d9Jg5aedjO%jttl1qC/SjrFTT/C/F8%2m%rXeMw:us_%YRSa&MjOk2_s52'
p19
aS'FdmRI=0iy2wYZuRyj6Njnp-.r%w7I_66a21/Ddtik2l4Cwxgoceo0z,NkrwCAfjva_E]Ed{GQ0%/ssxo38w2&kNPIOuDCGC2mO6f6vZg=f%&ZFe%Nncjc&mie0giucfdY2xxn323a/OkAh6iINxIMrZexde9bM9rbld-wa/2b29MmpI%es2I23g4I6QC%F,2p%X27Oes,CsIE%lxD=kYMJ0iSrI-=jk3O%2mi25dG0e=A5xMk6e0IoMIDwm:erH2A0seYn0y2kZkDi5/nd65%8fy:ymDUe2rOm,{wF3?ndtQa2e0QgEW4&Iszeo5ijF_h%wodFdSelo22o1ZJD[b53O]5Isesetlk=SI9n/%CaSR2Tj5=Qeeen7Cao=JTYg:nrr6wR.X35cImA3o,Orwwoyn2Dxe2Fdy6is_pel=vnD,jIp5hGbI0N22a8j,RjQFcp%/D/UGkfy27rZAMYmIbo7Ed:OE22kB9M5IE=_esjeQNNx?Aj2o=20lIE4IknlCQNyoz/XOIDd}2jRltp2rhn2TE22I9%D77N:n5j=9iE22I&eyJ5zX0ij,2%s0O2'
p20
aS'Yux42Z22n%ljdZpIeZOlCE22ycNC52EQu9%n7xZmsFei3d=22TcIIa5M232FdYgJr22&33GEyNeIxTm4tYOaTb/jk22ldOk8MR7UQauM2eMg0MY2sm2UnjgxdwjMMF3eIM0ri2ng0I0m34em2.=:jjJo%Zmn4m_U5Fj2l2CI5jWnvOSf5QFArzaoct7J2:%:&FzwMtnNni2:@eAu0hgn,%9jM23IIq,2NNzIjDpkn5wn23esw6kej%ZwjgUEj2e.aecCwM6a2JZ6ao_eQ/e22j]jd/TO.6bnlpSr62pse28/2=2CDrsOZsDal%bbr5rt&We2UtJosJINJyowgw20b6tOA0i2EIOdOZb2rnE{i2sfR22/Fp9M%i2:mW22dIFNsSxajYZh_yUjRldO4jtQM=Id,Mm3y52eOamoisD42fJ&3NmleVwnjf%dcMdZIeljpIpu2JY3jqyU2bUtme022Zcx8MI7ejJgd2kM2aC%j0doMFlt22z2asbl6oDnl5jzoZtYYsR0Fcdt0s5Zepi9xe2dEEy7nIyW%pa3I0Udr5jM5eZ2n00mwgo&bf?mu0'
p21
aS'=52yz2AW{r%3ijlb:2rMu6njlf0IepONID2vYC2DZjr3Mm669.S5n6wldx2c,IwR%0de63.e16Ie5aNe22DjCrdF,Qt5IeO%zM9eZCTS__MsA.sjQaP2NR2N.oE.J23%/%wY3Z3NnaIQZa2g65j:wMY=0mYeFa6sQD2Jmr/f5Nklgc2WMUP2mYq},kc,eY}Fp33psa_lotp3lpOtaid/JRkOYIt,eam42Re&8.MY2%2%e%2nlmeycxsmjdDOzNm-5DAuljs2yp5o2=jQ&e5re52Ii3tInn&ljO/CMoW:%xs3Z2DV,2m?,m_a%06Ze%qe6UybezmOuOoSM2Wmj%h%oos2r%y}yCDnJVgR6Ij2aasegdngdY2s2mnlAjelhfR.vTpY5OiteeYB0,y3T2YYhIsQ2MT0jDOmODOxkh2}g2XojeBhf2M-5Ces=Z2m&C9%BjeeweMZhpTIj=%3tRW:I/jc20O1jjB%oMSkme%2%o3Cnkp%b23V1IY0Ngfnjz62mrwo0aa2f%op=smy60omUFb0,23e2meW?O2=ldxMMMgd5&YmI7ejo2/7m.D7z0'
p22
aS'?jek2kjCore2/6shCe3b2OFrzr226s,azwsn53zyjIQmImjDco.e:13IxQTU,2dWet0ku52W&n/MkHtmMu2INOoAMp2QelJ6dIzIv.6coFnlAms2p1%k2Rd%,jMwogI2em32jdYYm6QmsjnsoOem:K/V9wZteKQl:6zimwDOUenE_w76gr74DaSkYCkp2vI%j%:x%u,=0%O3/ahm2ld2Soej&Sm%jaV1Y5r2F%NYwdVuYw6cnINj%C90uNum[RSAytyxUemDYh2UoZYrI,ozydrI=wnW23tee2i2206nOzriOp03c2j7ymTa9VIl%w0:mxoee96/Z6%oUoozoQIDY]icNYj,52mANNMJm0rRD=ogTR7lk2N%y2TnuiZIOItjz2aUfs%%wd12x6k2IF%/Mh2tgvsp4jAmulQZn7Inf%NXwz3e3J-gIR2p%JstcRVYh-F3sakd-/T5b3=DQxS.AegdAMaSgt3206ljs/2enOj:dDZO.DN2q62O5dtIknizovIFw6ORn%0DAxsSgdnSTZZYmk2Z5OIzr=je2qaj0RoWAUw:dwG30jSrm=D22-'
p23
aS'eI_Cj2b%m%&b%&200Iyj25mNEIi5:2,}SomDnjog=eI2YTo/mMIjEu&Zef06cYr.0jmrxjTnIB{w6v2F2O2zz2rwNMe&swcydtr%=1thjmaEfCC03262GC3lzFIZ,70As2C:jrMTs2NNBN{22jhYrD=IuMF.362o2M58eI=IYDf03f20i2T6Oijn02YdTjM2o:2QC3MAatt%fCyndZe8E/rmOejxkNmI3Nd3Zf/,%DS3Wjw9bR-2sI7SVIMjtIo.pInk%lZ[5rDwICz2N262epm%/IuiMje1Im=0W.%Zm0mago&,e-2x2%lIp5ZbZE05Dmj2PQwE.ztrg:kow%I%fIIjJ4%M9Zoe:tM%j2dx2jX3k0:F1=vmj5gfwMr36eaiopIc/tEOyIcm6A2Dmks22dAl2rj2aNsRnf,6mUpL0eD4ai:Iu2k%:2hZ?fnY:i0y222e2/syFIOTjIWbspE.2,Jg9l%8njCGumffhfa,YexyNfo:1OKjmio2CsJPJ2Zw6snfk:I/_N.5YONs=k%Z0M0fajDiei2to%M2ZUI6tjTCs6N2IJz:rw/m2NYi/2'
p24
aS'Rw25hUeT27ewn0semNLIy%%5mYWzNr}3Sj2lC-eyaMYJ50ONiEE2hY5je2J?EspmWS2cMM9n/mxOaIJ0DF1.FEMQOsQgIkI3NlASdM6tD/N0c.6UUnIy2D5lrDm60F7.nymw2J5v5iIom0e3GI39gcNjcl2y3slky0odeAl5d8%akZMW0oX3.U_:&Qo2mjL_2T:E&Hojz2da0xS2oyDUI2yfZmw52yfankrv%=Iadumag:oigX%%8c%2n,lnZikln:2&uD23fa6Ckoeejex-u/oD3erZGmBpeMy6Dc?x:kO2bMjC2I2mnkDtoyOrx&k%.iOsf=I0TZDjj2TYtYua%-./0Z=tOje8gMj2o0O,NIe3TaYIZ4rTt.msRcIxpp-fe}32pJRywj22jy4IEo%d%5,5jdNndMlQNna_2OQs3oA,l=2I.,xeQjnsxs69e2Y2yhd2Tov6H02IVjkd2NOlmtjgC/fS}x4fjxIZj2YMbc%Sd2tst55mo%2BOkTz&e0R5jsCG6UN%m[,jdHnm=2Is.waCZJW52m8c32fp7d2NCIFUnbm3In=fJm2toe2,2'
p25
aS'j1eFIeyL9.yZtM8vW33aM30Jj321{ClZvDAAospI6I2jYI2,IOpYo26rwe3ejQI6jIjpUut22kFs2p6IpFtDDrCj6%k:l.j,GrngFSj2%FbojsTM42a.EDy2%3Cek9jv21k%b_s2O0omX:sITI3ID2DdSInf%&jwl0Yms2totz2CmIeC2%dr%2,=v5IZe5sIiw2lj6IdNihY]_k2%cm%j2IwkN%5nrO/jO,J9pnEv22tNds:%Mm2s1Zs0WEm2MoslDSNR2jFwX9fW9N3e_:2oj5hs0jZjea9dk%22AI%MC,%yWNy6I%2ID_sxicXgp%iMG3syjOeje.#lclfee4ZZgp7nBjiQ[cUs=2%666ar2F&T_%8m0/ssRU%:DH:/02&3ns2jjiS2FjFIyeG%%2IZgk0w7h2f9ml59yV2IplclSpeyFj2zoD2n:Mk%xI9l{nOZ/a0Ys%ys&j&:olij0NrP5yCh=vMekm2D/7[A9a2_ZUm06lOy%2jN1yjMNC/%n3IwCVrCnIIm2yNIrhi&p2FJotMIrr9Im79srvawjjoywjOwv&Ao3Y%NIpQ=x=33'
p26
aS'EI{m0osGlrD?mfJA%0GpY2rI22gtN2:nlme5TOd,EI[QGMimj%wNp30CjFJpv2aidyDV&Sy6s2&n7O=5:jwjorwFTIjR2]unImmPC:%Lebt/CD23&6EitIwZIsyGrPjt2nJ=IlIIrsMkxn.wyc=MI?d,j%a72EleVjdsiw2n6dTio/,Wnnz62MADS2l6sa%IU2wRetAoj2Is2OJ9NIj,O20F&sC2w6j2mM,zM22NYJ0Yj%eJ%M?2ID7WszxZD1az.6A%3Baj2zymWM8damm-kFD/26gBoexPIj{%lCsMIo%,Ct405kMcXTiArd20/5vdRi/t2%j%cG0=2biaup%w2s&EI,ianwNl%dW3%DQs2nCIBoInyeNfoZj2aknkWF%xgic9jzwd%2oeOyyE.gIITS0irGO2y}j7MjOEZT6O7JgOn2mdr/g02Tpne%iz32m,.Ofy%0Mmonw}eoGsvQPlZE0rwosltae2Za6/S.goi9mvN1j4mQ@jywy%Yj.yeINMkIdN}2je/ifQmaO2VCeEcksX2yI2l%F=m4N%-g%&8Dj9z3n6ClG22eTQwrfps%'
p27
aS'5eaUR9IYWkxcu9Zbj0QyZjjdnz/%yEmWm_sYmys2ZkOpjej2O5Ck6=9jYmFfJt,ejAn.%%02I2E6of=5yM8os5INkO&20rnaIuWoTzIn2Tk2caj-x%6olQs8Qw73-3r%%gZ%7D8%lg%ZUI2e7%75eu%%3gjJ2MrN0amp3xbhmQ}NT:6a21MMyw22s2Ioo.pw:YOI0dj-b2Mjo3a902-?3jI,f2VxdreOcyN,o2Cw1JFINcjf%i2D:TgI76m5_dZ_%0%ajmo:&kI9552ige2kISIYS2Twrh:p0c0D2,IemoogceeZ/OFWosccnja2urNO2o1_I.,O&2ht92WnbI2eusjkT}9&26Fro._Co2ac%YD5mIgOEnt5etumN6MDQ2jsTjk2&cTz0a9jWkjRAN_QNeZowRxo29zN%W./ojIhJ0z6Yjn/JsplMMjx%Qj/%Mody}ag0jM2aA7%MlIm_56%2dj6tyd0=Aa26%IICQs0N2w9OvtMTRwYmjDz2octD26=mr3e=2%SZnD5nMAsSOQ2Sx2FeVj2.w2sOgNsIjlz7==6JC33rn2iCvmpH2%ot%'
p28
aS'IrJDI5bim%f2r2TjbNauGRnlMDs20%hDJZ%=tNkNQp6wo[nO0e2%ORAe0Jeco,OMywJ3%tIWhc,%DWsiGWgeNow.N2n3ij%AIfJianZDCQ2Y53OH3fi6iDe6vC2cjxt0iD,2w6C26:wNMmjr2NOIhr2oMdkzmnyZB&ey.3nwMJ222r.wbsY51N2_%sd3scsJrO/c96N6%CMa8B%f&mwR2ammsn7CnTl1eEywdATtjZT02mNJmYMY2mmnjoCyMajl{JMdtYmeSxfYWT=EW3PmJjo,XC/UQQ%Ne6I2dY&kT252wzj2i%E2eheoIO2k2Z16Gntmt2JtosMddcm2UauN?Sgsi}oYt2miJ9Mia0/I6T.u%52jC/smeStj2O%%o%lQVD.{UI0BmIMjI2aeY6gISmdJleI,=ro2Z-j2s9M20T2xWIdX2p&wHMO2n,ICfIJBmnow5o2=6j22iI-&NIW.osmrHD2NaM=rt%2%0=Tw=SUDjMnjMO0oNeMd2TJdNog2j1hUJ0FYyFAjA83wnwuEoinYjL3IImM:elO6f2I:%un9%yZ%i2s&[rIYW6U}%2'
p29
aS'=m%uj2-gCOu7j2qjs7ia6q2l%.oHZn2jS8&GeeeIO2wte%w:i2t]wjssaSw%jZm5n2eHNrGkg0352g/uoOJn:wkKZv121jojVdDIgyZMj82Q0nJss2YjCi&2Y.x%U025stu0ejsa652E6tIaIJNjW22%j/j2ML6_JeJ.oryo2wFjn=|mjeIw5Nht]O%T2{262I2ja2:baMOezC=Qd0aI&g2M3fYeoCWCM2j4.msY32E3eIrRypR2Dt52C=F0Vn9Sgoog06A2SkBAp21MVjM0[29%3Hcbz2O2JO,EaYeok5n52]:jtDjOWZ35ta2gkItYxowl%_,IOsjTT.IcM/VdY2de%IM9Qw%IfohjM}j-j_n:e2k2SQRcS0MOd68=b22o7r%2o:wtyg6jo9TB,/15wNh2Z7&j}6I]a}Fjlm2.In/T-%N7k2]_olOrwpsDuC5g5%s2eU2O2j2Iwnd]eMd32m.M,21zs2?mII5,5rj_M0ocgCmpI%6M/at2osQEpw/rn3bCT}OMvl2/Sk2_meSo%jQO2sDMoTlwmejnz0g9eeD%eff66YI330Hi3EaDo0'
p30
aS'jsoIxjJ2.I-GIVetlNyJNBs%/P2z6%Q:bjgtwIosrAdu%sM2eyA8jusdw2OZs30kI8oo33Zoakijwz2O5n0}2vy2er{sDsrr5dYN:2l3ux18rFaVzY0MGjd%2g2pMcAL2wfogl%P%/3YlC=i6iu22Y=9w%%bWYYpZ=022DQdc%2mMYtNsl/qwRo9mIY21SMMgCNAOZje%2!ocTC2TqlVo232kfjA:kiNdp10fwIetCcHjrM2Mb6rwyi%:Dcr,vsk12Iej2mIa%e?S0xAjRIuw6TmWQlJK-zIYjDl?u2Z2I3f:l%alIp,ClYmMl30e5emC_W2A}QUSdxIebI.oh0nT6=CIyDH2rfbeZ2r/2mdTAmzmMN.u/%JXdI%Im2j8:b806Y9Dn=tJxI]ZMdo%sVs27Z2m2rOsD6QA2YrD?%32G2OsMmCf22FO%iwDlY/r5KngedxEjwsatb%jsTrlx06lEMpwYnrijCu=o%mwfz2o0oQmig:25IYIzmuO%Zdn0JIj7dQb2j5%j9lzC/qvcsDl_MiO5cpwII%20Jzd62zSe22Gh_NfEM23Il:2f157-'
p31
aS'MkM2fs2ijIfjmw3fTs0d&?nm93%eRzmImhn5:DCgpM2mtDY0J.z2%tUIGsak0twC9/Z5D%%emI,nU2Cej5bxw=jq2z%i2veslxHB6w22jeIp07toIdff&Gojm7pjT,uw2I,lM=gIDMAUIeS.a0Oi9OIs2D8%uoo%aYjCyjY}Tme1s=D2Ia%xJ2e,m%raX.qeowe4ebCt26nuT%&VwAs0QoIyeYsv2NeI=5iGmY2jaO1wgEg7uiBweR5_r0n5e4JN2b2bugS0y2o%D&MdK2snca/%m/ioyn-1kc,M32.eoeeus6S7yIeMTAY3vuj]jNj/%&9oz2rw:5EgM2jIRtM2jue2fj9fRLeUImH_Mxp22kuy=}n622eUQFoMT2QofISF2y3ZIewGNoAQID852wzJmgR5NqWkn4YIewACssctCW2Y2itkojO9wawdjeahs=Omz2%io:IasO2B39IgM%rM3=jFOTSMtlNZ&kI6F2rADTse/aBm&jdCRhrDm0oMMmh%2t5p_c.ONIjj0inF/%.2_2y0&%aMOh8x,x0ZjQ9srTeeY98OT]hm0QuoNmeC.3'
p32
aS'IodJf7D%99Uromm5/lMi22NmzJjOJea2:Qs2u2oV9Jum3r26.&lZMmYoN2ee6efdwtmI?RekoMnpJoaaljv6mA,d6sryY5mn/I{wnNbJRtnACM2C5S92m3M2jwYFM,%MomhsO6:wBzBzN26wO23?2.ecsju0nmzOmMt6MJrp8JECmgFIn0IVMIc25moVIDIwet3Hj5cIO2jarepInUg%6WQOktTy2nll9TmC9d3MZza/O{ly22Iw0T:2&0sc2NIm5B%T9lY.jlmQ8lOWR?.9eF9aoc6Mp}Dwj0?pmtC2gkZG3bIk8caS2Dtrsnm2tI/Jmnlsh2ZMdjxw2tMw7,eN2Zym4r&Z2Ucnot2m6EwMsAsNC1%CZm12h0&2xVO2%A.R=smJ0U=swA2IOSFjojSdcMl:Zm:w2%20je0O%,:nOJtTimaWO2EhJ8Iw%e852y2YYe,iZDnim0MKYI%jiWYY2k3:I7xlQd,mdOQje%0&2Xqnyy2IVIekef6yThI89Rh4j0wywYI:uem_2I5tJj3p63j3Ih2Mc2MMw.u2233ImVBe2cZjz6D&o0X6Yj=r52'
p33
aS'3o8cOI2Dhj2x%wTj2=22N&I/wpe0lCms%mOtE2IItkf3,wlrZCmaM&kVD3Y?t:Z[02SrtJOegC2m2C9vr2GIA2%2mIeT7-C92mI,22XeMJw%Muz2maUT_k%w2NDD0hu2h2nU8dEjotjjw&imn2I:j9,%NSR9.=wmZAul0A=jfbmWnwq/2MduAyxCJ/a.a6e%3j6neo29jMcFD%rwze:laZaA.DR2ha5..g=IImf.d3QgrN0xjU5r%=t%w2dIt9U2%ej8WeY%N2rM[LwuA6FlN=wJt0ZTkMtR5crIe0gQiynJ5rd2goxD0j2n1sfj%MjYEE%IIZe,v6?O?sWer2te0jo95W%/Wje93Z2HyrpM,[M60AeRNaFsIw6yeomewZRJSZ22a=M2p22I2vp%/2muT0MjlJEwbIDHswQ6Br%fpFdhOYJFCMDDoNefOTzt9jekOC&:tV2%:w2tG%byOs2M%T3O0/IFmQow,72wMtwwj6M4etmDjY,fd2v{TjYof2waAjkmXjnIAscINOI:&hO2M0jgar30r22MAeQ5xMjlvN=NyD20b2z2]fyjS222%3'
p34
aS'Yh5IiAmts@XBr2aG7svi2jj2lwIIIm6msJ/oIUEOTyDCi%fTdTs55QaTYeiYC9MXbM22baKj.0Md6iNe:e20tTer%D8p82oo6aAs9tl%&bjgIPmMu1Z0}Riyr.m{wRdCrBI5wAx5I?j%AJfoMYOmmS:&DoNjv52v%m=6tf2i/%o2Ow?INSu%d9ui.mjjS=%TIM9ztk/lWD2lJer5ieos=.eCjLy9Nwcr3:yI=7fv=%jhfIw2hzr200fZoeJy2amUks6/30s%yM226e2inENj%&n2ak2?nk/w2utRfC02B:gyejf2TM3IZ5smowZeMIiI9CDw%NsWkCkFYM2JmumeDHi%6kOCeej0mcM=_smWfjZ06/MldeaFT&2m%lk229%w2ree=1w2s=2II6m3OCd68MkdeGs30wAY2Y53m%M27VMU2WEsi=Wy%O%bVym56K2omzjtIO6j5I2%Zufre%p?ImNfs50mIwMj.-3ZYI2fTEjUOCcxdsTxa%nm2Ihc:?tjw30cBWy%Y5TnIO%:zs6.{snX89_2%QwEO2=aq16OrjIhkmn2IlNcJwMDw:nD%0'
p35
aS'}w:NoGcD2Xmymus%t2dol9%2I8rN7=NthwE:ypI&sYvYzljFi2:oHvkIj2wrI%jlp52C2EIso4twIIFXoNmWZmelwsdlBC%%51C&20O5bSWDtdZo%J%0z8veIezJisTt5Zs,g.p%eU38%23EjCxetRz6OaYpm%8IT2kl2jId,c8CbOM282I,qDw_5q1Wj2QS6eGkyZ6cIgoir,FQ2%3i0AmEIaj%7MOVScjX&yu%[M3.faurr}Tw&owtw=mn1YiE2O8e=rtCjniU0Obd=5ZjjjoEseo248a76eemD3uMg42N5jw%r2g%632zaOe3xdyp2nrCs0:m2hbsrzeFID/lYUVX./k@={mH/I2ooe22yaa2apeNe2%jlwJdlZAIxtmSOxpj6lOwGYT/3jr%%%jsj?n=L]2D%g38gI=Djphh9.nwNi%%U=e3e%dYlosS3S,zacCaemIEMssVi8%-fX,nDa8ewNTIjUf%IlEv2/RL9Y3IM3I2r%js2il5XTI.w2N/maltf%nWxMVehyDDH=SmDT3I2IN22&25pmcrMOwe2w2ja6M2jT2sj2%a2ijR52'
p36
aS'mmjj22uCceC%0jIi06=%/N2/M6UM}IOdexYMCkNUIg/VOgxJ2yMMlld6hiewuN2{2D5nO8/.Uw%IZ_c2mjj2yIhyDrN1d:O-3%Dbmj2rfiMvR2joDFsIZy2mP0Y0h42IIe%k,2Y2r2hdr3Nr0nojyYe-NrZIItb2j0Y2jA0zRMkcT2dsvCh6fjxRmj5Vj28IjC2jOA2/2V02Ngupoje/II:e/4DII.lDCSt2-seo26y5wY9C%%j8a5JCxMjiMI3we%t%8Gna21en3apozBcl,zsm2IgesNmijO_t9MIez2QTYJIQn2lleM_%M.jfbd7I2ItM3GoQ%w?xICZN0tI%n=R%b_mU&DID22QsxoMjetlo6eHj23yIM%2Iw&s6iocoYJQu2IsgwRCfI/e8=NeCMR0m5cC2aJ6I6h600%03rWI=3jEz05J19sOe%cg/OMAIjJMe2btMryACRn8:oxvC&awI5ipg2mepsLo22M9j/23rhDaxn44I?asD3:XXx=NCtmvi,sD8pUpOz2pB0=wnujdt2=2%deqgzy6%MMx5Es7Tgcdnz0sb8N64ymsIa%'
p37
aS'mMe%dt2CCJ%mNCEenn1r2%2RC,CjE/sG6mmG-l0d5yeekDF3Fr4i0Mdrg22jZM2222&O%gyMN%MAg0ONmfYye?}2F93j2iY2jlsto//l25e6nmgl/%j=aO6IyZ%7w23s%Y%Inun62srM2gtotSw7=/wahA6k2pcMmhO%oHI2hR3orYZD8eda_g3rW2AI:oe&DF22ylD2zMr26rvade0eTOSj7Weh03jnsFe6mkO:e%jEMC05lHv00wn3/m.Nqr2Fm2oZ2jTRhaGrNirC%2ubgNQsa9I22hwOZ2gsT2Yn%UsIoueOSg:5y2uNS3nTdMJ6a2ngC/dh3Z2sY%Z28weyn6m%znOUiTzvygF:jS:sO8rie:in=?Z2jV547hIIYmffNjIBOOj/Som,ysVAzpZjiIe6mI8oIpem6iI510jek%f48WD.%2mg2o9gmzTa0zgj%h%LlZ5jokgu26tN9ww60Mj3If6%Yj,2?oiSW6COC%/YuyWe5=eIC3cxmo%f2ScN.l%p22Fl7o32k.sx9lxn2cVjM2MqhehKs2xkkYa0nOej5JIjZCdjwpIB:IMY2%'
p38
aS'pII6je02r%yAH%V2j%o6owHw32ssmIjMo,j2%nQEhzljYMsm/sZJcz0oAosEbtI2:JmsUWAH5sm2S:k/3eeh.omkXNsImE5jXjmn/2e6t%16gjIeITIincuUjj6YM0%M_3_IjjqXJOa2,tUjYc&I2ajr2m%3j/efdv&%RX2ONWsQxYZRibh2eImuIedaF5y2Oal22d22tOTo:0ilqk.7JIN=/plljCH23ZtIO2=7rUJ7ihjYl6JDfECMYjn2tIj0CIY:%2Y%mefkuMnafMm2iO=Ee6tbyYC2GNyuRaimjj6r5Imj6/eNmzIzIxI96aCEI2ADOej.553z2o9rAixwsN{N6Ic0jsakjYT65MorberRiCIU21bezIjoZ0x,pM,Y&EI8eAMO?wnS=n2Ce=6uMye1e%Z3Ra0jciw2u]YjQ.sNF0,T-Sm,pwOW%kz:0Ojene2Z=/j{ne.i+h96joSoo&D2i?%.pn,ymiMc3%t2wIlCeSnlo2ediQusJSeA5MjlnB/0eEw2MC2:IaF2IndE32UjY5n.8k?l5C5I0ZWan3u25v0Viz/M[ZQy:%yTd1'
p39
aS'r2lvApmlxO33dbInyCvIuEd]EgdECa]uDuDNj.N3l5i/smf2oiM5IeZl22kip6rf:D.YIa2Z/NIlIwi2jM2m-23sZo:2nmOmIy_Y9e9Zi%m04l5Medo&2.QcZwtw=6@jStsNN2.fYMIpb2%McOjfs5IEzsn7rmGugloCy:2Mj0r228jj432NkiIRQck8MACuaIfslnk_0MIjb2eewcQT:cjUb?mI6t2IP2OeIoZmyuxm8MM2Yjtv6.obD%py=bujky0eOrj.memDwjwe1Zo5Ns&j2lejDp-Ni272DY1Mpr&M2meM3g%nuo8J,,22QsTlm0WoDYp3m6eeC20jo:a2Q2[oiEfwiEw7jflsz=c2Lx/e6iaE%ZO3.pei]TjI52J8,yTtonIO2WjDrIw7ddvcOlw=2tGo0rbuoj5aR%ao=C6CiMejMQjmSwITW2C2dQzx285aG6esldyjYp2xC%wyzwl2S%%hfv/nml%2:fbma3Eh,lja,0NOy6flt2MvswZNo2%ye%IeIeJOIl29heMrsZ_N.%IaMns2kArnfjsexw7nZophO&gtsI&IrdXRY%'
p40
aS'%,wrb2I_2Oeoj%2I6%%cETnPb3arwTdm6wOA2]R6%M44%lrnoQtwj%r0Rr%Oylv%Jd2Y26Cl.%&xy3wMNI0238M?8vnibCF0weT5yI/jyUUfp02.yYgJSDVw2-ae2e5jirDwx/V%v3eNWRloXxLceQxl2ve3dWmfdnjmTy1rQ0=:U5ioDJw:nycswab_0hn6tjaeecO/w%R6i6iM2TmlOb0/}m,2N2kW219jwwtocJ5l9,0fnh9CiWirg,Olj&%op2mZMQdO=eQloM2_jUm559lgZpxer=eE0rEEoixyIz%lyf2NlsI5Ff9aca.zvaCF%Rb2mdlxk8Q5=stue6POC2[u00NlIT203-C2xjO72oZ=Mnj&yD32%g,.s2Q_WajRu_G}en_IrY:StW%joObxMSiC06EezI2Ns3kt%YoMZjFjQ9Z6%2=okeM291o2NOAw%q2g=K59Sj]o29MxIJy0QrM?uL2I2IsC%sozN2cwOC%FucMUQIm2mDztoM?d8unIJQfbp]cIw2dzV2e60n35s2rgim2IDjyE,aoesyYg_Ny.r:6i2I:ors5CpYDa&,'
p41
aS'C2J,Q6JNw,y2N_von6FvOee%0eISNo03or2n781RO5NkIleMBMj.=eTfnInsvi%d0mCIj62m%o}xksls=6mmc?:0CgSjC/MmefhemY2F%i2oFj5f2:OqM8%%2k&Zjnc%s0oC=R:MIwzi3%iZMJ2.o.&-wYlrMSEO61I23j&mNj2AoEll92Fojk.lCNrksc/6ogDmIzrNgg7sj52jen/NMyyo6vji2Cgzi6aiW%2bj=DiOA.F2incmee3{6F9i_t7f2%z&Sf6C&q:pM6IoxocgbdIRd52Zv&vko/_Ojn0jwI.oIw0eeRdjwd,nF,%%brnMpOjFJyf%ImyQdN%23fE2u22In6=wOQ2]j72yN=qvTs0wnd2vCz2N%SsNF0SYmSsaM2]KOMOl=f2nyYp&reI%an2%a:i6%D22&Uai2.wljsMtyksl{,gojJ6g82D2bj6lW7U%Mwn00jdz&pwekcTmxen2U.0w910ax61MU5932Gck4nei2kQ6oI2z&6n%w2yRmlw2rulY2nrTrFY%6:YIzi06YbrYznmXj/SQ3YR9o6X%8AapruNCFgIE5INt%'
p42
aS'YO2:Nom]hjMcsTOd=rmA2Q16J2M%k%s6ui2v0220jJ0u&=jBw2oyYWZyCj%utjae:isJl25No2=lwdIYeSMs7VNe?6fITeNw83eIjliN_tjsQIC%02k24N%82E2jC0?2ljM6xLsN6:d4DrjZ3,nJaMyvg33RjCMf5jjNR2w&3Cjez?gkUM:j2m%RetpF}{TIhjjXNhoa5I1Ww0659I_jZgmN4ekGOwotcSM:isr=aEf1X5NqM2I]mDl6jc&%2e5IhgC&lzoaOe2G9MZc&:Z2NIck%aiJ:5&jmne6ImTcr2rzS,QY%GooMm2WOf&oY?fbj2{DaoTN9rzo%oU_uA85O2%px6Oe2Uryfj2I/.foIkv9_0gf05m%i58j%2FewsiyiovQyj9oZowJOwRj0%UIcm%ZFYnI72uYr06/paeIYw0b0Ix.Dwb637aCeOd852%SjIINn?2{NeZn2jeSjjsH209xmiYmNtEdWO&2jda2teOwZIxze2M5UyumBYr8icusptZ1lRmMpasj2TgIeJ,aImT=_jnD,Y2:CNN5dww25IJpwYCz4Is9u,w2jV2w%2'
p43
aS'o5fY2:GTf6naSp.ek?2DgWNjoymiNjwMwlFdwcm&e.cI%yqw8s2sNpIsC4MdIp%FcsuZnbvjx,oR4y62M3TIbnCn2yQ5u22lWP9oe2wMnC:iI26=%Y606ZOTu-2YOQ79fYYEp5lx0edI203mv65f%IjYMceZjo%o.2ejyRfIn2dF9Rb032Nyn/Zra%kfM2tUsc2o2p/x62JnjeN5=_2l/jY%00AjCtR%mn:j3ox2zNyPreom2N.e2z2%Dhk/lAk2238feZfCw4cjB%B8Ft2olf%l=2Yw:O2mUo2I,M9lwe=t:PTd8Q:WrNfltSdewj656aDsojejh%ziA6lFjr26&CMoMImom6oIrm,mcJIwed2jd=yZDzmEs.%2jpj2%Insud5vnZsT5ZrI.AQ,OVU.yy.im2bw5yon2djo3CYl:zRopI:=tyRO6%wC5nWw%kIo0s1mI920uI0-NvjKzydm%uUA1k_=6BBcEe2q%xIYEIjCpypop0jks%IKT=eO0%06nfwz2:ztbmiJt2jQmxnjsgosN322_:kkstnI&kMeiOI6otbwNewxVMlxZ/,%d%'
p44
aS'mTa%najm5%MAQ=Nl=,6,Qt%I2T2cb.BCwAewey2sNo%ej2RR2.ivJDs:7Ingg.sdau%rjPfJjt%Ig2eJJ&ImZV2Z09d5Zs5_tkIiImMRg=32%dYCdMR3a2%s0SO{tWo5k8Cj.2em27%%ory2sI_WWCr2c/=tCsQm2nNeapBa%6Jj5,tB23tWO2NRun%2pCV-FwFD2j2zn25%O26h/U0rCJdaxxem2d2u%Wmyo0dYM22eFw0nO22wJJjZrMGJgrbhA04%sW:aAozTj%ZE2weIT&o2OIyx06jjo.j0FQCf%2X0lcpyIfmDwsmsj6ygcU2je%E6rjNnjewMe3323wYtfujlsQI7DshZY%R:3:.5onIwt%Ij%8feeCbpOnQfWAho%A6V3%6UbQ2tcoM3I6wIgiMw22om%38Icioez2ekMXmp.MInCTZeg7/9eCITj.t%EnOk0TEM[UyStcqwmu:p3R=s,3hC8%ai2uOMtpjuh5wCeUxAaxaCUgpln2.Iuwgm26F=weraG/,eemFm6Be02WC%iAIsZ225%22QkaMV&2hCPeJRdeoYV2jbxr0:s0'
p45
aS'BS3mGwZT,YlM%hxFPp6mMe=jjr0MfNoTsTv%2%Mjjjy22RIGi{whqk1QItahd2ccMMj2DoR9QM02oey=N9n2IN2o0oa6/6o6IjCOxbIZ2Ife%cYyM2%k,B5ACs9RdciIlp=wy{2B51w1mNnjIyI7hd.s.Frez?eyDsdswTyi:jcofAzM3a/doIjoSot&c8%s2dWO/DS}ONMjrNrZYOccjIyOkUv22IgMY522NA:w2It&DIy0B%9OFM7O6hM2%TEobj6MIsCmaYYtN%oFC2cx2Ykj%60wIc2?nn&Tzjn3jbls20Uox2j2j3ZpZkiwmiIoKjj32&D%%/DYu0D37t0tOZ.aI29iSglwIjS2M0bfSqjSi:2C:jj29dYIrp:wISb0xiIoI~2nzIv6FfMwwjuhA2w5xUyp0OQjpw0UIcnkyij&3/aiS8M59DjemJd1n2ja?NMee95ey262NAsDont6j2ONf53ITe%3NSJx5_wNUy,ellIIm&&6OZOi3Ia27=usn0}o2mkALRtmXnx532I9wwdIdjcOg%Wdd6Na2wrGebr1xj2eJnfII6eCYD6ek/'
p46
aS'jJ6Qor2j5hasi:j=CrjZE2Y0Zviz5XRgkk_RoJYx2jUsm9=f.u%.sgnmesopyC0nTyluBnr8YIEmV,eFjImTkaIrs02k8oOejk22oPRrynmpO=grQdiZ[Yl9m/2cC25j?6w}2E%DMZ?SxCbbs{6Fm2Cjj%8RQbmnph65Jse6nu2l=tjtZA00UvsfeToMwVDmK2u2geM,vO2TZIcmOh_Ooj2Oxz%IDmAE7s{fMyRWN3xIInNDo7t%2InCEj2CcOerO98pjWIMU8%72a9e_cInJeMoaIZ2yZ_oIz,:a%egYjNr2/d8eoaaZQorgpafNICwM273jp06NYIUWespB5t&mL/o&0kGw7ZdMet2FIgYINNd2o9Ywm6xgoN=prtOiGts2Nav8iujD2cuurwfIizSmNjkNyRR5eOOtyaMIMSj5D22XMiM5,4U39ajYi%y:2y}gp]9HI.IH9N3bw2yLe.23gT%SamIxwdEr2y%,h2x6pteliro,iI2Iv2jcoyj2%6XN2n8Bja2o8TI8s3rNIPt2CgOoD6ZjtI3jphD2ro039OG2=yF8ye22_espnW_j/'
p47
aS'12%EP%9jmhj}jSn0ly2eb-e3NUFnIwMnz0mpi0e35&o.8sl4%jJOw4Q0j4p2D.rQ02d0ee6AjnZ5y[ml9ZY0oRjeeAYOr0beU2r=m2kM8j%mcm2%eCIehoxoOsG%:p0Wv:ZI0o%YksxnsM%i%WymI2IjwvcEYGIrIyFYsl6A2Nsh23Qo2mI2alps,ZroJj582fe2%osc6i/n%YjI_0eM255eIB:}fIJ6EmwposwW5m%5jNnaE1EF8ZhbQFlJndw%FzpOBM6eWT6C2lJ=oMmlpTW2Ce1YCf%gFjp2mfjo0yjVTom2MDnaKwneewfd32jeslD%ieU5en6w5xd/y6M7[0sscer7eyc%pAOIIMmtiz_TMw%c4neIEmm92T2Ojf%rOwfIrydUaMeiMDt2jjm:8Q25.ge2tOO,2Ee%ailm5pIpvR2prwUNp78j_on=Atid0rdmSW9_2wiIF/DPO2262ouo%j2yeG0%LPbcxCAin2OmOGFfV7kamNW=6ugt%2imZNbOw5nfSjN22wojYQy,%wgz.mFID:h3I2E%0%Sw=wogNZnj0dgND:dO?Di3B3'
p48
aS'McuVYJ6Qep2Iyps29I%QfYnkF_sk2ma/kisUpZpN1tmAeaz:ag236_cm.330O%e2OFE2U5y0wpMNl2dMtr.M2Tk:%2DY%n%2IeU,jV0%2,wiIuN_5y6kZsNNMiF2E{3MYf2tmaC2Np:233M2wmz:MM9j%5N[=2%IiI59eM62oZFswiTZ2U-5%M5sbwAe=%m2IC:CXwI2%Z4d28eUr2Qm:akPM/T=A2Er6zPa/dNuwln03pxYoNIcwDmjy5O6ZMmgoRNpMs2ejwOA6t932jJjBW,%p5aWydj.mg&Zt.:lc8brJSYzog6Pj760Ah6Srfyospjt9m2/iCPjaM2e{.22Mon56p228N26iiTJzWkMD:QlI/f_gi%g6S%YyeE5&VaC.trrAd%:25i/5e/ms=:oWp0eJmof2MI2ekJQP%PD2Ua82sI_Rdo%en3I0nNymWzoIYpi5eppdwVs-%07CyMd6,eOmsjgCoNMmPNGpLrf/wpoTI2ya%m8kjI5d2226a.uI2hgw5?w0%6y%52Uscn5N0oW2IlmNcG26oM02X/prC2eEMMIC2JijhbI2MNwo.'
p49
aS'za1HQY5Clj%/YumN6MFjMYD0MMiTele02gs26NodFOY2icmn:I7eDwjcZeIfjk%0WomZSIrQ22Ne7MJo6kn22spjEkI/hD8YI&kknID%3IlTeQu2k2O3A:D2r,f=g-x6ju2:vj_=m=Nf2eO2Ip=enyOnf6sII62c2oxum5jNhVFh20qyD:ltUnojQRExSdmZTzyg%Cw9Olx1tK8?Dw&s2r=pDb26j%2P3Y[2CID8wwYzItjwOgI22e6iyzw6a0im8c2eIHj5G0Xo-xrv7MOO_rmggU%TZI1-xydjT2c23QbNgith3oe23D8xwbmyAICO3wNkQ3zr2ndN3Ch0MwEDr%oIpX[wpgmoi5a5uzw/r9nmM2akwUoSMOdd0:5&I2%pcdtIjs2fIJM0Igwmbfl6jDgZ:W=C2YjOt0bj8D&KtDndC_b0X8cE%.%a2Dde9f?%s30MgZWwaM2n0UnN=IVROTda2p?_Tin25aIE5hCQs5ZFjeOn9nfIdYgwb]jjl3smk5nlFemDoln5wiIab3IMlgsmjIgOzJMmhMe0/e0]mYIaJ25gil5dODjurlZL./'
p50
aS'iChXlla5I{=ei2%WwdN%YIq&9tl,3Zl2=%MfdwuoJ7oadaFezele9WxEe-j9%BjJh./rkan%or3e6Mrwet102c3hNd%7txp7yezjNTNo2oAnu2s9ePbDQfjoi=xwmdO0OICI%0kywyaSySYM2cjdMaajMG8m{jHZgk3,qC.C2{x=awy2=wJ2cM0t28ICZrxjCfYI:&5upO9s922cZb=/jt1j%%c%%9caY6sDmI0bc0IaYap3isgONNjIIloobZ3I%Ib=:wjjxal22c/I8j.6TFQw6,IC_Yx2eOs23FOf-sM.njj2RAb,KeMiF67lYF0JNjod%%w&gst2reoGbgrq82my%OeR22%2R_ww5cYm9OCrwFLMuo%nEM6IdBGJthCrDD.9yp930628Yi9txNIF6ZC5hsgwqQAhnjjtO:wnwchD2uh/2kZwbG90l:n&i&ioiMb%Do2jisNjOCD2enQi21IooR0ZiNxj2g95Eya_m2302euupA.3=IT%wqQ%As%ey,2Bde%mM2ejsu3eVmr:Il:eA%2jsj2O,i5ar12aIVubhvht}vUcQ7I2whC%82'
p51
aS'wa6M]NT%9nnj6rosstM[ezVs2yejdnCIIIm[8om9cmE_sNxCl2h3riNZMPVIb0y20anJe2yZMC//&/R5rj8IOwQ0lfloz5mb2cI:FjY%CjFki:ElYnyD6IwO[zwijDUoe2wpsMegI3StO5e0j4oSEFT[J8cGoMjgZE2sZfw,newY332G6fNm2%pwy5sM5W?.6zNzemII3m3S2:C=4n0Y[jr9UCtown%wepoVwJI=7Ij2=zY0j70%=J27Ckwi2yM2wj72xr%0db22sJ06i5cuWwaeiawOsNnlj%/,0gp2%,ffh5wZNoYRXj0Fmub8/xpU2/%Ycf5Y%jrwn/enzfZj=Vant0DyeNojItFejmajtje_xBws/cQWolKfrc.cnjde2u2i0oc,Y2w&QzcItY7faQc2[5IHsvsjcojdjtNjtj0bNfCCI}CeU2eSuL5OWm0l2eIkpp6sBOjhtddWapm_cI92Tk[NC,yONGEI7oW.2g5PrsyYn2zY3YZr8KMI8tO6ww?y@iSe=0DeY%0thDSC0IMI%z3aJlldwtv%%Te%gnOvO%1w8rr_w.NiDRHec%'
p52
aS'ojKjspAE&:iMjwCk2gYTex3tas:enoYy%ZiE22sjo7Y=haCmjt0jSDgDBe2rxIJ%Tq2eG,=mw:I.b2f:mZZ5jNeI=%yIRiw6wd2=20mo:ZII3zztYStpN,2t%oY%2n?wxp9NU4s5n2Sj_92miv8lisrmDyInFO%bxtncznkef-]ZvNy2G2m0ne5jV:ac6%%ps6s6CEZvou}kOW2cAncgy5IJ52TwX91m327RD2cS0DsIOUIwodgM26a/%TsM8FZ%jwwtI/smW0Ike%8ormpeelleYenwejjj6u4v02zjzYjBrop%SD/srd0r1IGaQiTptim0f.jDdQ2yw2D2ZTAmy1&w08fOC%bl,.i2y9jR2wj45oFIcfSe%Pc2:jcDveo9ZruNj=7jby%MQXOoOh3n2ITwRjtG3jAo2%le6OC5rs5FjF62l2br2I8oCM2&DaO7Qt7gNWoi%yf9ydmZf2&Utwr2Dy25&wjGkpCg20OjneVx3fS6jp=rZo2m2QOiZ0mnajC,Vramt2I23nD=3m2jIbogEdb9Y2Mm&Mwi5cce7Cjgfrj2E/?emIYgCTzw03'
p53
aS'l2&g3k9cm6fM:y%%2sRr=m1iesoCuE6l2zg_8U3TiMs6e-pWma22wnxo-%eTWIbzbkTmJ%dCd%%2I[xNRnrus2lUk935M6%M4da2O&DZ5tkZM,/wp2/_m2ITCp=z2pl%epit8e8swYdjNCjzse2od=MlNNmI_weIMdZyI=yNs9x08grTII[=JwCpo0./:i2cOdpjn222x60Kk2dede5GY_6NgjD6yG}Ck2Tpe202tR&epgmlj%2ds%Zimg2IVYmpslSAII2I6Lr6rtQ[5s%ldSEQxF%Y%Y%ooNa{nYeY%kfgfYY,,IvtdMyI=%jM3JyaNogBj6}2YuyN4O2%msDxYAND2oYj%2cnfV%ERmmtwMvzsxWxhssala023T}22vM=p{5/6tkagnwjNpG/wfuMEe%oG8UxtEi/OMPmNj2dY%tjowjB?342&ba0t_0mHejNj3Yin%I2pOQ_M6G2M&nnfo6znAmJayrgG&suril02poj9z0NI%?,366p&erD6Yw3ZS2Mnhd%IZ2Tksk0&Gf2%O7so%Im%f1hjCRsp3-6%D321PfI=j8It.A&jlm%62'
p54
aS'Tp:6IignzaF6dzI0eIwbJVoe[mHIstQmIUyD0T2x=J.At,Z2sz2Sl%VM=AM0rwmulMxDxoUcjR3QRbNrN=OmTC32Vn{dTYJw3jmxmpoe2Y&0x9,tc222OYP-rOjj&JnYmm=JgQJsj2I26eo6z2j0osf92I2xemIjj9Sljv.a:q9[kjkZ2VJed%wTnEM.PeMI065S{gMd3a0lEak2gORder2R0JdDoRs/or/6pb/WIXY?jJienHINmf0z:.Oe6z&MCnpkB3S3J9b=Ou2ggh2csk%225s%jeEDJ0i28aws%:j625o%26NU=VZ,e5omOmMVFem=8eIhCgIIx95helMnfeurM3.=Mem%d&R0wly,heCt0O.rem2IRIZts2,tjAAoZ2mmAtw.CDOsD6oo2,MD6OooJ2IrOjVbQC6%ad/Am2l6BpYQwWnqk,S%_a0W%YUDol1jMmmZIDbzda6QI2lJa6&52OsneT:r%RhxajWOoyutjJeHn%aj%8.%F2w6hTsj3XO3/defR2=62tgs}Mky0jM/Ii2IS2J,jhNEw02eiOSt/pIapjzt,nO5st/Cc,'
p55
aS'%FyNajpnmonw/OclNmd2=eJV1QD2O=r1ebw0:pOiQiDX3iiwFtMMjixtuoxrMsTIh2ed09oTlnSS%%}Sej0j22f0II6RMj2=3=MjI2vyjWo5-2OrO}jNc%0ob%jabefIWDeZ83/]iNIDwwsMg9J-enmDs%%X:MFE9ir9Xk26M%=2kOImIdJx9%sO2O6j%6j3Nj2alIJou2uj25ax%ZC0ek2QlnoRnjjeYLmi2%fSdxe2kdl5MmspMPa[s2Rll2ldYQjR2a9OTYDWsxes6onp0yZd%8e3,b2u=_2uXj2aDen6ZxzIAM8UtC&wtRQ2O-cQ:/je6Rwljjj2PftO.UC:2s0Yn3s20Ux72:s}2OhIamIA&8tMo2%60MgojS3Yy=rs22vNkdJwjv2dMi%e2fg5C%22ImjnOcOUzoojgsaa2kSc=jf2nYIdp_Zk6rnzHwrtMszww05rwoobIqJ6l,R5OIQ:%166D2j%k%NblR%bIsTlPzkYlkT33o3AOzdNjOM2Amf22u3&mo2g=yIj:tu%DUt2m0Ye:aj0dII3Mo2gD02mvZ:ythS=TjsA4_oMA2'
p56
aS'}N7W%2w%yw2u_IwVuYjF%1sMO0vI2EnInJi?o1TiRdIIr=bDzS25t2EizD2M8nf/Emzw0IZkdjjzYD2fmDY]zf&%Z%60oj24I5IO,e=jwNt%h2emN5zn12[ziz&2Z5u2}e.e2MRHXuoeYofeudjpYaO9YMM%_2l3p:e6Ml2IokMskIxto3C6ItktEop0s5jjL5onbeye%YjI:AtC:MiO2jpIYi2wo-dgNWe%Z6TjiG:kOMwYT5c%tvhMlyAwOureo22szm{262af%oMw2j8ZJmAB222gVytpNee3ENQrajx5msO3YOmId3IImNa3Ns:l226mozSt72eOE,lp?2I8C6:ak2ms6jzG3t:Y5I,6&oIjynaiswa=6pdECpOVSF=S:%drzIw./e8OnVI2oeko%8m%9esDgi2Xl3_6bCp=mI:r2AjI%%n5gsS.pV%es6jaYthNUZm3rejO2leIoM3n0InY-yi:RmeeyO:FtRM6nfZuj?Dsze2j2KabRo5xmfbj2It25b/HtwrjN3I9SJI%i6DmlIJ23T0jz1uk,oIg3eNI9y=pConjwyWDr2Rym0'
p57
aS'2h{cmU25jcm5?rIY8,Y3Nws{gQaNC2o2rMr&l.ezy2XooaTa53dj6%U&c,M%rnNJsNU251oIaMCwCmem{MfwUcFnaS52%oe2wsiTgtjICIt2azmIJ2zxC%doJlyd06I2Ikjuwbju2CZesgL..TffjOG:orI%Ip2vjTcHZDrm2&/dgYiNlwIt=I60v&a:jwm97g2%2wyDxeJv0n22%yfN9N2siYu,chdfb2pagRy2nIou0{:u/epu,02DJbN.jnylk25jN&oz-CseIgIhN:id2Em8gMFI6ORDj5fy1L:tC68Jwoly=vsa:xCiHaZs.WqEY2MmfkEIp.wo2TKa2gnr{fYMOwW%DfsIcOIwpIh0Bd/Wtsm8nY1q3tIzeo2iIeC%2fd2Y2tJjg2%T.82389S%XjtO2SfSI-jm-sw=Z.ga0mg%:J:tVnj:j%%Ink7x_Ue2YnzM5MCmWI3I-sTE_M6a6I2Qs3wHg5ttNIZBommzYIXOviyMnnT1,Z2vy2%.2dC/jn0CM%yrDn/2/MAf:N%gcmamYm2mb2oIUe2%hhjIrG73ae.mnnEVWsI5cIM20'
p58
aS'flPMrjRd250m%voSw2:0A5Nz3_%=75etmvjg22a2kX%j%Y2ld=dzwIizpv%M/0JMRpMe22j2:ptw.Ifnw/3J2=0jqjfemwOOy5sw0/ms2TY5?5mmjrNMjt2l6s3:3Ije7sTne2Qp5[vYIRIoNct%fW2sAjI/tz%jIm,&ixyj28NSyZoA2bZ2:wS2jv2jO%a=AnT9e0loWzyl05Ie5Dr5sIcwt4u3sl.S7OledtuNYg2mIN2cCo3bnPY0ImxmDorNJnua_M06k2bN0=oy/jFM2jMTacM%eeInZIFjl3aOe,6%2D09d2xdmJYewjcYtw4BfCm_m.MrlwmDoZw2J2jlC29Sxkl2tDOdzoom8%OhR%2amFgS2ASlz2Zcls3SotcWs2bIjffdVo2C2dYdj&488j9v%2isZIj/Zbu:M6e_?2nr6EZn%j%p2Nxej%r5ljmtfkjMmyI:niel2t7j3eeUIswmwNVhwr9m6kIg0eb09mbd?&IeIrTWpvh08w0rdwjG6{%2l,lIyzo6ROa=jG/k%302]coue5j:pIo:tl}4688yCI2cg3osoIpp%:jjj%'
p59
aS'ZjZwr2n6AgvQ0R./Ml0CyrzeleE&M6omiahex282mQ2H]yroM=Nsovwmtsnn%lWpAiIw.DMea9C72I5kBT22tGRwnl0kR%tjrtVNogk80=1vsXaOMI}s2:%3Mp{C29paMz2ip3GyTKSIwY%Ofni52Yyx20gUkjsyeMdTewwST5cneZ2hyF:nDyxTutn?Nd:cQ&vyjsa21DljomnsE2w}IQVI62Gf2Ye2IX=6dyJ2j2R2dui.j18kzt=1fC4.D/il2Oe%n7l2z%oN2Ngefm=j7a[Z2IyygmlD{2eenMIOeWQQwEele=223DtM%j]Y6-uJjf2xY,jjM32UXw5IjXyO2kademl9W%ef:mknFrXMidtZN78R3I7e2TOZ%:ZNO0l.Dst0VDj=k0/ozMOw&:x[oDyCJjv8rG.2c2sJje3,Cf:6cx/j0aY%oW_Z_3weJmdykjw%Qi0Qjdss@0AoMswj/p3l/1GDf5_2GYEf62jnIrtyAm%Jj2WIDrwa3=T4/Cduxs32aHynel:2pF?KQlMCk2etm8%YG2rN8In158tlMpRSFpN%IcggmPMt[RltI1'
p60
aS'l2B=ZOjN%Z3D5%UegMMSMSqI{S%1OSOSwek-%/3MI%y2J6adno5Bs_rNo8RQfJTa2T8wC%63oIS6hfOcDo2oiI2UIzDf3ltT6e0grMbE235%QdPo4wkInj8dYu=JoOxtveKRIIefm?%Y&tI22M03TcyjYf6NInmeeZWOjwWd22Mmij6MsIue2Ny60w28IaeIc2&sIhbeNdoze%%o/gIxTWj%wOTze21en2n3M2eCDuC%Eix8xY0enk2s6flg,bu253dOwI0QtgJp8DmABkShMb{EO.fQ6l7,}o2,NOU2mcmdamrL2R0SWOoO:G2rsgz2jzeI3b:5s2vyuwRc.CMZPy2k8cSZUegmfoornO2%nE2MCT%wj:wJijoAoho6zW2cI0tQN%6W5NN79ivjmYIsIrwkOj4j2.5T/egk7mMJgIkG31F2%Is2-je2Z:fn02C22AYWAYwojSjewfI%sdsIjlstNNmOtJZmZo6elk7eiwc%rfltezobUj2os=pkn:%a=2r%22IUs5lJdgdxIajW2WrC9&MZInnOcoeM{n25NhsjIMa3vO2sw%:OTp2%m%'
p61
aS'e2ImMYIOo5wizDSk2la2=Froe6wA9M22No/2Ebamyj5jdAi2O23M2j3m=pcDmEArOyeW3e,2we]9jfPSO_Azs3W{:u,dWJ.zoW8jwid2Zsj2oT%dh/2w%y6Pn=faAkppdINmwpCN552%o:CSJ3dT0%ok=2_]uoS3xOjfrWfdW%yI6_D}2u=potY.cnchDyawxchTN7IvTb0l,:8w.2DiV2lpINTw3dk1%2Xe%RBfaI%/Z&.3g2weNO5wmDOyIoj2RSjl9kOm6ejUmet%Iw3}8mjDvnjrlYntrjsa%0AejaiYO8w1X,WT%9%7DDZ8o.IEjkz-9DlMJeydl20E0DtrB%sf?b29Cnek}m2Y28gCbody/eIM,dxsot_psyl_fs,ZfkOYOr=oojtI:[ayJYjl2marO2l0l6/ijjkoI]pje520_EhsCZ%d92CO3IdzwAlI%iN0%S0IO22Niomm3Saogs%IIh4pVNMIe%0IyNj9w2=aIj5m27&i3om{7MI3at622e29q5utZYItOCTSs=0JepM3imOf,ueJo2aI9=3sr.%hzcWNka2cFooe2WMj20'
p62
aS'tf0%/0y=Jbjjb2oc5r:Tchnji2esMSe0/RN2kdp?%%NMxom3dj6Zm2sc9W0jN?nCTyoI0UgBO]tjQ%tlt__lo2wUNg%:6I302Na2A4jIT2ICOwAC22v2Zm%t%dI2C5e2g%H=8hjY9OwjI13eGzhmANUxT2rlr:l,_gTri3m%0OjxoMsD0acT/Q%INgBI=jwI503v,Yms5Y.FWADfUJ1tFmN22kw2/?KsQIp5.l&2I.k_nD=%yYz2.jrmJrhWaYETIh16OIOsYIzT2%lrS=s%&5badF52N/ImF38J.E:gkmwDmsIt=MCmdCo2.IYiYlfV2I7pM5I3rWolN3j5i=Smee%uo3r3soN2fxvzme.iup9N7csw4Zg59WfKlxhEos22%zwj]:jCz52mdDao/Ce&,Ge%NM%medVes2e:D1O5?5%AsiceD2Ns?Nywkfg=6r&t0mwnNjN6n%dnMd2mOb2=e3ssT2cn2WPZegA22oWA:rtOnIsiNlpAn6SmEySmDk3.we=usbNOmd6ymNtYorqojj:9Jnowv2V9/25ygz2wy3m26l2y2O2dEIeOm6Ro32'
p63
aS'gIg2OZeX22mt,29YFIjon%jsjG2QQIN=JZCbSulAZeGwFygj29E52vo?kcbbxpYizelp55S5%mrS2DnJwlstji2D35R5jyZy2}o,Yu2dwl=w8FVltzNv1x2rx6Diai=hMATZ{gA3JzA?eremdNsJO9%Cn2Dmle52%Qf=Z2Iww0g6MyTO&3ue:T,O2dImV&_n0%g2,jjgMyIAgI2kjs2_9DN/djmjAxOAadu_IIgCtubwf2M6]%dI28lx%g0c6Rm6owCaoN1&ex2s0s,pNGsaUjNnpxDjD%INZIy2rmlMVn_yAjC0ef8ij}aTMxaAsp/W18CaId2f3_lZq45dJpMyg21MursTMt2[In5PF_2360}57k8w5h0jM5CwmfIVkrzobcjQnIrYIM6DCv4%%pcej%2YIXe2,2oCnQJmxsZy2mI6Cbm25o=pf5jj0roejuestnj%poY/1jzme9jM%wYEDV212U51Rp@Z,I2Njx0scayu0e,26xajueMbejk3%tGh2zmMIkftsdauCYiYQsNjjo65tOF5eMgnDCj-:%ZyYC6O2eon9Dbj2/cZZffmR/'
p64
aS'jgFM0S23SiedrjorOW:d2n3vakm=j3CtJ1I.6O2c0sjTOSrZIis19gOIN2DmDe9pJDnb2t%Z0QkI%I2ma6l=j2lYFIIQejMj8]3DY0&tuMYvxlOmn6,mlD8Oz5oAemD0iiwjrliQEN%Z0uUN6Yga22onbAN_vIs%,It22yrj9Afy0sjk?=_xjmB5fhoezDIEy30322nOwy209Tsm=n_UDs6y.ceImNtM53yNJIAZ9Om%l5it5z2ImP2o2rU3=j7lmZi06tg2h6xtWZ%mQpIM[jnehC%sN3ero1:IdxtmI6O:M4OI2m2s3/j2%3j2=30ucY%jeyk53w%I23w,m=YM[2CNtJlZ%20p0IoCmItZp3DZBjN2oej2bz0Zl+I2FTMjC%oeO6Smw_w?08UXjwdcw2Qo0ooalt2:32Onm7m%/yYzt2anYy2ZJpO7_5Mm5J,jY%jmmUM4,Ijf%j/taGumsrJ%I2hrgTs/mE2IdGjA,nNm10I&leDeLTdmfkIc4t3Yy29?jMAjm:N%cuNtwYq22N2oounp:fgMbaYej%IkIziQu2ncyusw%NW6jNncI/'
p65
aS',e3jYmINgeriwR5%5M%I4rwSIt6tIbTdIwIYoJo.20.DkD20ojv2twaAM%=:SyngmhdqMQuk2yw%=/mIrY2ryCAFiD6Y2dsC0XFtjUCyN.2I9tYcjvmg3lM6Cj3%J6r=cFTe/2lIQ2sn:8x4cca4e=Oa%Ah-we&2sT3%4w%A/Y2:.g0b0x0i1gIiv2I%sY6l_f&IIQ%oMI26Oze3eGMn2st2l3d2Dj:j[wMg0M33%s{Ld82nnMaN2jIdJIMQppwFZNIM5nS35Rj6i3SoC5e2yt,tOs[&tCTMWIz2m_RzSC=9ye}DZ209lICseC2wuiA00=To3Sa%tcVw92%Wsj22Q7lw/NOvZ2YcMfh,:EZ0e0r5ias7oyj9.2olgw2iFI,wYufce:vrSg29o29jDOrIZ2n2Ic_IniPe2%/iDw922:y3YxMNx286xIb.I2lJ2tORJnm3EdxYTQwmrpwwtSM2tRHOdhjQ0w70rHrAcwpi3pI}51soy.2NTop%2zIsi5B%atCuWsw%O&rIek6nFMVOA3vBFovuY2Ifmmlm3wp2mCmiNV2j62Ci%dyli%tcI3'
p66
aS'fmm3km%x2Tjxjl%Zs.gZysajpnW%5NNMMr6HcRo52T89SFojyo63%,w/e2Mm3ecDY0QgC9oegYfji24MCTC%d?I,%Odi2:9MpDsme5zZTyURgfsY0]cpCU6nji*%j{h2u1=Alf2MOe7igom9fsyfm2dDT/woiQcjzOE6dgO6m2EN2T6e52R73=R%MVOd9jcU.vO1wmIT&su20l6%ew9awrN9Ifm307,wN02Id.}J39i%5eGF%z4MI7eIYtZjiT4i{R62co}%cwkIb2Rm,4=5ln{t=o42=hj2f%Mywu5o9l5%%1CcR=ix_%0=%cwsa/0os/2CuO&BarFj%b6e0Zu2vZ2m%&ke%gIwefdww,w:k2kZHmj22U2bW%n2o2N2D20j%hnn/5yon8DYrijjwt9YY2Dm=YjvnmrsYOViysxdOTTjlNAjIOM2mOibswIYumItj60IYj6%OlM,JD9onmYhOovej32Mig%UPxsOO:3Arfl%1c/mj2jcQI52tNwn%M3%rMdxyxmJ6ec0Zl3IO22OzJbMt6dNrkMj,2-1xOOIlRaxg%pNUAqOj2P02mIjN%'
p67
aS'%%OyCjnZ72d0OMI3S2id0/Fs%sSOej%pcI=sUsjCTy/8lvUNCkjnS%Z%s%m2f2I3nnuMjM2DlZFOoIjrglk,2Ur2C5g3j2qZQxw/LTmWEloI%zajFsOj{c5ZVMn50TyY22frW]5wMk0AM3OQ2h3%s6t2xDKdo8dRB=8NuImVrbJcp5lSA0OxZim22SaADa27PYN92Zzo%/e%2dwn]lItqI]G0W3aOnesI055loanm%.zcROs032pwZYImS2csI-guN2itiFzytf4y0ekdwkQiCtxle2In0gueeQZAcjvMTvyOHftemjJtSt2iI69a3Mgebn5rb6eYhdpj2_CQCMoZSjf/W6UodraB2y5lI8oQSCfE9nat2EYgI22N.ek%b52I.27&QPoCNl2OYEjF0tnG5cmr02Ee2&Ol%axaM5/=%28c2SDs&smIRc5:9e0%kgjo&Y2iD9Di.i,0/acs2mZk6pdgQ4FCy=8nfdsdE2/bIdl2C2ITd=F2oN6%/n%ajra2IRYIbjy5ioWMw2fzo%EYM/9eg%Oz:aYh22CZoI5285DyM%su&gezjZDttXjJ2'
p68
aS'nM0jukvZjjkwZ6sl,r[%,eLe20Il6wi23G,q59gf25Iw230Y:wd22l2e6el2:aIWj%plwZ5jJsz/j:abg/eOsjmkywsS53u6SzHmOywElfC2s1S03kyol::nds6OsmYj==]S2wFg2iMSet[m1=l_Uo%W8Nte/M9t,o%nxeMAnamwDMR[/Mlx3cbjw%2fQ.ds9jNuT8W2r2/0ywlI&TFO?IfdyV222_R2t8dBlODj=oeo2RU9vjJMjDgejWwweil7WmUIeYDmojnIi:t7a0sn2l,jj%hjn22%dn/m&MezIdjM%%_c146eOC0y6muj%%=ol%%:s4psrxyQ[3%mUaYg?=dt6vL70DkEOYg%2oJsunt/%aO0.j2k:2Qeod%y0IZIuhCiwl0/ogXYI,3CNibwjsrbj%Mjnn%CZ2YW229a0OMlmE=9%poaleyN%lpCy6e5kOotwuOgn26jkgc5to9=e2UOykMmdIsvH%2r3=Tks3yV5NVBIN:tEhn2Tfi7moq26Se2Mw2I3RSoyep}502u2j8y}%I0trnDAi2IYO[2Ieeth=o23x6tYne2rt:[i0'
p69
aS'I8I3Mz&jyh=IM2TvitIEcjsR%EDI0Lx1Npce%s5MNj/wII1kMm2jeuyIotTk=%IeDZMxHeeTI2jD2%=2,IjgGSoI22d2t0acgaRzS/oer7FZJ3I3HxAklkIj%aY2J/Pl,NC22eR-N&WIoynsMMdrtM2N2j=%w7iy5wav0Jak=CnsgQ0b2jtI9dMtjdo2ax_FAmNf0M:rteklzxpj?xEV8oeeImElNeO/zm2IYDhixCyJ%sZ5eowwjOc8p66n2YS8D2oWd.O&BZ322/ol/NwejaZ75jcdnsasuROW7sdCI251%Ara6IiktC3lUeSjNN24%audNfegdOVmcNdjsFjM0dsMz%dI85orJf66.ywh%]OYm6ddji20[6d8op2wnWN22e2Nm2%ZtZ.l5:2w%%mnnQzapU%ea0SDxhEd[gmnV:iIn9aZoGrDcjkOd8y_G%m%JO_2w&C6bzLcjk-3NJ5wlM2.no82m:y2KIFCOYMrDgIA2%jJONm2j5Zy2wDsrO&VE26Inmwse&YIjyI0eozjaoijOafI0}Ohw=9mDN%CwNxs0e=jsY3jIo2OSI2G6,'
p70
aS'nkurYOO0dyXew%%_dMsWI.ZkW6s%trTntjsTCi/ja.37oI:T3FaM=M1msI0rE,JJ2OIZdp2=-j?f20T2j6iy%g3jI:4=kie35ZAMD2my5ZoBjMzW5%jSeg.2o2J/XMeojspmD50BSkOtFEj_Oo}JMM9D3ns=ss:6yG}wkg8{SWm2eIBo9ileRMyYEnO2Ir6%e%IcSx&a2mjVtsIQtaN62tl2wAc3h2dpO38%NDjmpyMV2l96PtS2Me32WZ/aQrIc:iBMJdh212hAjY2J2FI2kjWME_eeY9DCkOrOk0votOmn9C.MhY%0Hhs9DQjojalOF3I9A.%n=.swv25T0J5-e1wa%E2ujIMcIaWig62SweG2IyEZv-rf-Q5lmwZA9I2m0eo%u52NCJMls0Ogo-u&e.tNsUoDweixFSMhDt1=/0j%I3[F33Miu%boJIm0peIZnDo=SlJaOX%,2N.Wi=/2yCTO5IaA2pt89]oiR1FeZftfkOasFYw2Janeio=52G/O2wM%lll2CsitZsws0jrzzsXeCIynpIls768M[M3-Q9/22=o6%%3e2MW=[f2a24'
p71
aS'Rj6I5j5DoR%YC2p9erRtIos32eo5s2Mi:xn%b2fYOIzne[bANwb1[2/2e02U2lrOA:{IgjxnYuw3Cz2fium2rdM1EwNN2YCYlI&/QyeCczM7gan5O5Wa{Jw2nahxci_:3j2y6uMdnau6LIC32EemIONts6NNp2O-IgFNDY0%vWg57lmtA8yCw.j0m0Bdf42d7YEZr9nc5X99hAei6,12Ta2n]zk=dGlOpmr3WIeg%2fwk==v&Y,QaZclds%0s2%%E[gk&&bT1el.3oumkjDfN/EB2%n.2e2hgtSANr/G6jkCG22o59YsbtFYU9ey2fMjTA0%zMZefpm2gp8ja22nOItg5cyWc24nnop9:22nY&]c:josNJCMISip2ilaaN:2a3EYj3w0OM%5Yomul2Ews=0uwd0n2oT:CaE8Z6rm3f2Mdmdxj:=IDlndJj%0smjIs=Qe2kUv6d2eDO9IyM2d%Ud6Cpjb22m?ytyI5M5%xDW22%%Ca%cA3o.a2net3{ju8n61faoopGRr=rn02:x6IpN9wxozr.0iBmjI8fuGIO:%t2ebnw:06M%T2I:Iw,'
p72
aS'2x8wT,6:x5kIo9yI2M3dsJxjnjefVy:shSxS9Ab%q%d5?30%drNE6O.DIi6oj6Q52Q22uldXJ3IUe.wQE%0xYC2eI%Fwr]Pg%Kjt2lemzlhjryE025dUd3Mi2jIvM508z2%ewsymYSYMnj%wjmo0aMaiIw60eU&2iiIImsYw&xeOIFsyC2Etf2OijQfMmyj2:/j/2{b.3tjzMOrIjNmV_?YQ2TwiMA2Dto%&x.6%5:rJDIeoaO&9a%3oNRapRS8I&YOOZ2N=A2ms%mI%222jZ,Iyj%ioIa[MIp29siC%JC]Nut/2R922?%,mzeA%WwYn9eTiIEbe9%2e3Zjmux.j0jjo2%x6ZexO6w,8e2oUSQj%2A%7YUjE%InNsOaeAIilPQs/UF0/8eYc1=p2esYajc6stj6bI}rIurjefst0BsgyAg2t@wueODNAe&J5UUanTfe6fFREu2P2}YPYBo3=2MM%sk6MGy2SIE-sMY&2ZCIE6u&Iefn2DYM%QsMI}Mi2OgF2jC2qs1]9Lsoeof4&n%kFasW5oB2QIadaT2jUI8aun/je/k.2DeeAsgckR0'
p73
aS',I,S:/ub5,t5j5pYwemY%8pmvf{u%ovD.weaBZJ/Y10jnkmkv29Cj0.wMy.CO2Z3Rt0c22pfNeW:3os2J3Mr225Z?2wgQ_slImeI=2:w:G2xNa.nr18cA3rMcO2oyaor,%UEoOPdPj/%Ze2pU2wor2COPIN5Xaljlp:Seep0=y/2jl6rmi28TeoDzdI3u%?m6mJwHc2Ta0yNdM{mua0esI%kt2G62cptkjmAIinkIAlO8QwjjYI22lojc/IS=3z2M2MenYK%eee5WR4D2bmN7w.nb2022nd2?%ylaTj%6%F2pnlIqse3?90x2xtZcw29-p2wW/bmYDao0zx2%faTxdMDpmFu0/vSIZ1x2ujTi2RUtGfdexYo0edi,Gr9p.DnsB2lm5n2Z563ttejIpkmy[AIIO66jMurADo5pZUZ6nhlZaM%2O%kN_%Dnam2=r_b?yMfnVMb2jsl=g52neel3ON052j,Q2NjfbN%aUbI_o?nxe2xZys&:ej62w%ter%=2yjVCtsO.g2-Yr06[%MIMJ2p2RjImDT%IldwyYd8J2Oqj1rsceTYn2M,I22v2&'
p74
aS'nCzole2dzYEj6ypDUysM2tIxyW]EEJG/om3zrdZDA%Yy7n-w:,/jwV00uoeru2Zma8C,suZJm9YxN=3Oj=:g2eeTyM_en,twpxm2tnu2V%imm/2tnoS2DYOMd/O28IsmA3%M?O2jc-ZF2e8mrnaeI1jOfj%r0I.2:%v0y2/w7v9IggIxz2yl2,kobdi3ax5r4iMD2%OIjt%8OXiu&2TI}jpim[9{IV2oZ2z22wf5Tl2GNiRIdN2ZmuAhdZ30kD%wrJacRoiM22CR2e0INe2nOwabdQ%ZMnIMeny93C8umT23jIO%Oc7zNAMiI,Td2uJ2%%MIaDIe0gxADIDa/wpCa2z1yvtF210TmZYM:%%rRxM22oGIyl&_25iz?Dfmr2Y=1OzC&,pDT3&iPa2QWNOtDCQ9wjfG-j2rOMfwho.5tlr6c/j%Ip2Zer92Q0Igeesslaser8V2/R0njcI5A52Mozi2rjieZdQMP}=dKOCil56CCjiy0T%yci0s2NbjMSCGiFmr2uwlFasj202w2esmr2FUMeAUYNj&T2tmNdsrHndiE9N2DxIiITmdcZZwM0'
p75
aS'vt1nmMl/kefSOON9,Iky2dJ:Y5c0zOwn3s%{YGl%=Gi8YVjaMIm3wWrMy_:tSI.0Z2Z]0m8NuYk2jw2FOYmURjdJkmNjMfwjrmi%srm9l52Mwac%02dIY2p0W2%ejbs0nl%2fb.GAstD%%I.jxuayI%2A:DO6EMpUmb7e-RjMt2wS0UeunJCR/Oo3zKaOoXM05Mbcw,aao65xg%2gNIGINjYcjI%EmOeW&JwlUaukuvD%C%Io5,I0m00lOeomD2SIrBee%DIo%i6x2jv[xAjs9nn2jCQim2o2M.Y2ymTrsdlOb2ntOn%7:%RMdgitssI6rIzY3c=OId9z+65Y&m8w2Ed.W5,hNCeSum0G.aRdsR]6p2/jmnjm6MUj:0IMN5C&s0MZ2:fOt6JJwj2COfI%WP020dNSIoj2WII2Mm,=qjxJm2urn=eS12bZrT3.2-w2je6.Ny5foo=Z/skGMdOezC7eel6329Ienf0M%%gO%JuYZm5j62j/z2Iut_cn3h2jMwlzie&3mEeK0e2cQIk_m3ejz%2O2AqJaZ7ie2v&l2cpn=IE22d2QAmzS2n22'
p76
aS'cMO5iIwjAom2:j6Yp:e2lnZ/oI50lO5t9nsk6J&OYk._rZps279fM9sce2ko6wjV%22CJ2xl2eQQ_dsMdQ=N6yIyG,2_mS5:jz2mIeIk02IY22f08IS%%SmjYekwmUF2nxNOJ%,kAeMiU2Y6OZaw1.e%eM%uJye&l,jd7As_2%66e.fwkmg2{Z%NNx05C8y[My7%DwCoo2hM0pmI2=:Qm9DejMZNI2n3Ew%,2mn5keimIv2mRo6Nj%3II0:ncAnm6F1gl2JtjlB9wojzTZkznJd,wW9A3j9O%2d9MjI,2%9g2=xwII2p.3sas@6u[u0=m,8o2MFlIw%2dQQ5S%Rl7nZ2IarA%cMN6j6Or0ez=cc2W%SQ6exydTce2_%PIFpQ2gz&36mltcujj6lu%ZM}czjjr,f.5%cz%DtF%&%ZTG0Zhmt7WM0i.v6eh%,m:eNjorA22Iay5N=gubeNJ524AlIjj&jl=J&yT6{cI2aIll2%/eoo-0]U0MkzbIz2n,s-erjzx92as/OsjjNyC2xChoSnIq2m22E6YcMeij22%mbB22SZ%NyOa6WalUJ2e0'
p77
aS'aodMwdEIi39x9aOjE7V6Do%6t%YMmwon86IA5WIcc2%lrmi%DNONA1pISwN1Jt7eatXheDpN_M0_4zIsIrxtu2M2gO02ek2=_5e06UQUe6fei%[cOyineXIax?PI%Ce2du6/U%DNow8602v5mnyT%nEItNj.2r_/I3Nlee3MOgIOJtI9cItliNwt%iinW9kx_2s268C/Ogu%ueatNM9k2:2mysCl8sMao%%KB05NfOM2IjImsmRHodosI2jIr2GweIj?mI2cm22p=l2NT056euWcYFEyX52wt65OWmdAIsrgG8lvx502goCfwHjmdhs2aTQe6Idmmk/lssmlT9orTijSNMjew%vn&FCj&oy%=ftW9rdM30c_MIlw,t9=e3CkleecZi2es3.SyQYy:noogZdGk8eIjC7wFNyCa5nasrz0Jn0=30&ZYfo%oyIbs35R&lj&W5:uQNZ82gtYVzneN5wjS9I0:j2yg2yj=y=&2Iq.8a-h3j%9sIyn3xeYaeIJSS68nmbNxsr2IUegMmI3rk2oaw}UcCEJ2%,aLjmw+Zmfv:NfQraMIvNyf3&2I2'
p78
aS'mH1IlpTd_jrjmNjb8ZhbO=eU0Mmnlo0B5Ia/%/?Qu2%%n6M2YOf22o3Ihl2U5O2QYui7osyMpYoD0-Mlft,Il/e-2IG50mU4n4Ioie3aDD5%T/3sfumihm2jwg52I,jueI{vOchQ5sm%l2JJerYuIfg/1J0r2Qntn5Iw2B2mIx2tnQNmaJT25EHmdMe6/hW27iEthQGsC,emM:Ow4nI2yN2zIds0a2aM%iwx33sO%l_eiMjgb%6_rn2=jT9b?ez:R2%I5mzd=e2i0ksU3M30j2j:M6CN5j3:t22gnYE0}C2M6I:_9%ast0Nur%e&ujy%tD]az&D%j2%R=mrnA2n3yOB9bxAnbNxsld9mIo9lwpwd6201J225p3iM:2ogI5wM%o&Cw=ZOIG6tMeVsjjJy6jF8WA,xRsneJ%6Ieu/wzac09mRsIIonRS2%M/zJNWO:mW/0y:&gdSbjj2&M22IZmjNwAIHIWeWtZ7p:zp2s22J0ybnuecLd2bYnRR3yypg22M-.MwonCaIenQnssST2oY/nIdx{I2M2eXffskplavly1enptlOOrVv9uohRQ3'
p79
aS'%_6mgne5QZ2oPn5sRkyIt2kw:onYtj-..a9:30kj3o%i3%}Urphgj6nM%e:02CY2C22gmIs%joInjyum8MHzmnEhZteI,2%d2fssbI_sd2p=rRI:om6EZAYID2s?9t2239Ce:VF%DpjfY2hwNlwW9AveO=JJ2%jseNYmlzM03,%Sun,T2wJQQ=20OZE-5:0mi23j2ItluaOS=9Z2slh.mYr0jDteyvCmDjY}ms3uVnM94a2GvsebDNfMsfbS2w%05f%lIOynutGO9k%jjIeDze8IromvG&npSwe05jU2MeOmy2neXSn3jwkO3D21tj6.pf35YI2IDDjjIjs%22t2foe/lah%2NJkY%E,nIYIdss2oIzIx68f602ovR%6WQ5]&w2Ijor&2=%h6a2OM2wIeRf0wny5fUnw&9oIc-Ie8wFR2M2jYMIZ:l%j/.jmIMIH7wL2YC02qYHDTMCTIyt17NIDhDNe,m3:q%5%ZFD2E=sjn%.3m0mAoSIj2gnT2e%Z_ze65dQGFuM3%abrss3ZR%-2}s58gA0j0INsmw%YIbMxV5%dJ3ojys%IuaCx20'
p80
aS'elO%bD.]%sNJsmc2zjDkIij_Zr2DWMR0/eNb3=b8.J:awl}cIs-mI=Ibn7TbxeeoEeMk,%56hTKw52hDXowSjrMDJY2S%31sjoY/=m1[zNC8jgrV3Yam22w262k5vroYsZe6TjIOm226:z%j2/T9pIDwoNQNgR96IC2OMMekr_oOiqI2QMjekt6222F2kat09E=2pZ.eYoYoMR%fu4=22t2lC93%}Meya-t9rs/I%leeo%652f6yZo/Fime.nET%Iy9Eb22M3oOf%j2nmJjoOjsysw%Eyx2t0mt26.2C%s%2o6lkMyjGkwxIcye6daeknR352wmtjd2hf20mFo6%Zt2a6Kl022I%KYj/snyhYjC%jeNbxChAi.kAN2j8A=mY-mIOMlm885Z5zAF/IuIT3e%Tgp9DIoESN27o%Ab20O&,u5e3AON82e.evmkM05N%jM_Ix,OT/z23j?T%I69EtlYs258naZMI,Nf=k.MDsJsv%/akkjmlo6cjhyMs0p=9n2nex2CVs%trep[2jwr32Q2[Be9em2pIIlO5S2.Ya0Eu_e2f2=MeO52ZEwjo22'
p81
aS'ycPwzg2&.I35r3Ni49R0o6dSIkX28T2bk3XpwIo30l3n%tA%6Sj{Qy7DmFn_oAj29lQv5pOaxwIojI[JyI96mjOyNI=,hOSmZli%y0Nralmjekd62e2a03%6bGIuj2aU37Vc=yYeDd%-2UjmJ0Zbd-fd%d02sngwZMCsIsnwnwo2/lEiUtlHIz052%bxtjt=6TOmlQpgJA,l5rjwIadMoa%N9pesEewOdB.2I%m%.,IgyJ%wMMep7IkCjCtNjgQ2Mk2sdk012jk.mJ2zoe5/b_3w%%IobhOefOJwjN5Hf2Jg9c/k=wy]jmGEjD2%uIYC.3IwOnPY_yRO:.w{iedju8fwt2OJm3tk2n%%pCkedJlpOd2y?Zs36Ms2m0]m&k+.2liD5I.tI:9tz&k:i2mmRvQu5ojkkSQo9I/lI3%y%2c%o6,:Jo3wt%aItOIRobc3/0M2kndpQfJm,C9Cn&9d9320d52jYGjNdgM3Iwk%Mj2t2NpYny22eJ1IT=RtYMOm7sYy=IZ2oxviMj0m5%2OQg2mN535oIaIt8FMlt0Ds05jMjwx=Y/UYalsY3Y0y%'
p82
aS'nWwm=SojMA.2rsmjMrCanIM/jny53%YMjmajOiYIay2ixexmRoj%lkmUssosj=N%js,29nPxar7=I2J:Zd[ZIybJj0c8o2w_:vAIjoz2cje2ruIw9,g/tu}xM6YI2N3k2kN8C2UvaeyjmkRT&tMt_ec%2jlxRa2BtodNn6YWMg2CD%6n[Id3/ks9sjvN=emjhp8EEIRIn,2{jW-,MGxiy2y3s&jYk2WD2AM3Mewof]%Y2CNZFlz20xwpd2/Ykralrorl2Ssz&xcxoI2jn6jJMTOSinGlYT3fUI1S_02E4ieMDmg%%3yumwzi2stjd33M,ycAmewaJjdOMe2h:e32hLdeDy3dawjQ2I0QMtIdJ%b_.qUN22M2Y2pMD2JD:TrjjfezelkOnjIN,ng/kMCaIktjee/Me63T=6mzj1s2m]2Dx5%1m%jYTmEInr2oIZ2=gIQ%zYlnkZM5BM2fY22Y=yoMllM05m3am&ote:8w2gp%&s3f?2lkjN8EhVjZxdKT%eblmVesO101IejArd2w5udTIMmY2Jh2rwh%A0u&wCo6y6CI2R7n2p2%N%=66/'
p83
aS'gNE&02WSeob8&xo3%rYWFa2z2C2N&-uAE:&Ijulrvk.mU=IiNtbA2o=9.OJm&oits,Zj3d%2Mm9%o2jfAfjrZ_j=ozc9=cN5aM=,rmvac920lGA&EypabZRIt0122nIei0fQ22g2Ox27Iaawyi:M0VwI,orMeJs=k%hs2z59esCjjOuo22.CeuImizI22xTwyZo2k2Imw20kkSorojtaxtg%Om2z2ncjjbltsmG2IMcIN53R96bwe2WkSSyosaIioSD4Owjf2MM3,:3x5e:fhddOC61mAV,a?F0%ThOs0e0-t-ueTjCIMi6oZoujer3ZBdIejh5,R2mlPA6t17tO:s3wgkirooidbOTfeDUp%d9ZjnB6rJ/3M&tlwmj8,iSwz%J/j&lTwa%6sIasyPe0YyoTcjY852sfeSo2lyjrZ2%Me%%kleIn2yWf%je5w2CM{N3/NmnM%Z2eOm=_m2sYc/M0[2Notr%&2CztS226J=h:O%Y532MSf2T0s/bt05Ipoqft%VASe2pO2%MYgtmo3u32kwj%AY3j4b/j/0eOu5ppjGDm.tjnvTBjhpwj21'
p84
aS'I2ueGTGYY%p,SjIf}oee=hxdDo3ysjmNs%edLa4.2=%dU%sw,t2wYjeSd:Y3mUTOb3P2Y2ISZ&ZmMIMz52Ca0sZnmgizJeevmadllZQet%mg%lmzif%0oVYTI2j0WOBk=/Mi2DY=mwf2E9k%blwp%]9IXdCOh7Dji/2MOM%jiW64uZtojIbm&Iewiom222/cMat2J2Td_UT09e268peEw:ZC4mA02Qm.I:Eiy/gyb2CamCjap%CdcMzzE/u_SU2l2oh3tI2MJb0l:xoA8zlnj2Bftt2UoIu2d1Na2:iFctyQEx&CVjnak]iNYwojt22me9e33zjZT92dziUaICewjojsm2a3mM,luk2,02jj.Arr%[Mxz6kw/J-S=ip6pOtII3%Yio%yNrtjQj3Cm%2yRu2KeMmr/s29w%Oge5ITAFycM222,jY_hp2:oTrfj?26F%l0wwTe2TeLzjoTbb2,M4MIp:smjll%AEeBg6S,oozT%YQs3%2j,MwIIw.MJr1inZ&s3MW9vrhMwZ8cN1j2&huodNoutFXeI6,rJq2z2IeteseYdizaJ392kW9jF0'
p85
aS',FNYk0oOt2Ro+kloUtaeTfiyTjiXMt2h2vlnsMi9uIkI1=%i2eMo2osYTY2uTmeCi0xjnoeyW.2Sz_WIZm6nlZ:j2G2M&9RdeO/kishe6JxMww7vdje2mlI/yJAv2n_oIa=2Bx2w30MjadCmmJF69o2lt26j3Cda9JvUa.WE2%GnDY.u82e=IeZYneNlY&czecw625MIIU9eMu}2PbtRnvo2iw=Qvtpp6masl:%5I2MQu,3Zk0JnMon2/rkF2aAsMnIw_mf%_%ge2IMZJWM3i2OQj2N1j=J:,O72Gln6COot5:R2dW2.m2wujM22&mUywipHQ1%so0wkIlApgj2ceU%J22z%u:zy%&JIsdaWe5n&_YVw%0wt2cl5uYT}e6oD-7M]cTMn2Oh5jMww8SSo0MdMIr%Yze1QotS0a2/w]zh122IGfd0Oy7kss=IdUrIj=Y{u5InwekngDBMp}t%O9Jg33e%YU2N%5NCMfgqRQyYGsa6R_mOGe&liZR23IegQse5Any3M2Dgmm_8/z2wxm3j02Ep2n5xj2ea%waoe%o25CEiysDw2EAB2j625J2'
p86
aS'e,cegfO2/elc0oju2}e00I}jfsoDnh2ubbpNij.Cs69er2miqEoky5[Oo&Y6582QIdW02s09wIjaZwU%N-eYy6yu/wZrgf:yhueIOWlhb2AafD7SI_jtCmq2J5kMdOso2jUr%Cgy28xmjU2_eij2:g:tkZ2z:eMjt2&Jxp&2Tm=rjAsjGDHV5ui%05Z2U9eoF5ncCi1,lTCt%m,fafNstIm2w2Njsg2EycS0n3%eyDIyOI8wr7&Il6r6j=tlOd3HO-k2RkIO.g2Z2Oa=U:%d2836CMC0225jyj]ZrJpMCI5ge27OD6=r2D2leHXslZg2S5wljfmZ5ejVAoTui:k2jv:w2m0I62r_kgY5eiex2B7d,,nzs%ANBV0N%6m=?ouhfOt2%bNG5C0Y7/6[oTgocpMoCIbde%om/e5r/gZd3ctew0NmjjRQC2wmIO=xjb=w_IR62yo2vN2wcIZd/m2d_b7wXT2wn2lxbjsAQ=ODesoEdZommIBUD&=8nfsi[pNfX7:QGWImJr2cSjoIIwRoyIJsS2u_IMl2eowNkwTMr2rjFUIapI%dao8=?jNwD%'
p87
aS'jS}dpm232C0jf26q6=ianjRw7:w9gxCuNnIRUtYoN%YnM%Dmpol8-?Zm2b2c3m22kQk2Mw%D3NteZsC,RpfIaIZZj5ZcrgpgJdNs=1NoPfm02tE3QmC6ZyMo255F%fa55iMJ2beoANnCQN%2ixrfj2%DrOj2/yJ6sD6Y,:M_it20Ielu9t3w3zx%2Tcx6SOpiuD.D0T/m=Y%anMxejZHlCJqawIA%M%yMK7jRfQ9j2ezau,rzAI.bNXzem855eZe[j2hg5ymberVNxDem5IiO0l22R=_SYDnD6snbM2pT0O%se2i3_A%mArxMlh36aDjtjzrS2:7oDC20OI?jIn2hWMl9Spfk2Wytdt6Z2iM%C1yegZUa35Owx23on22&2gdMwtM3Cm02:26w=cOt%I/Ysj2f[%5Mb2INn2%wA23vsp2A2LOrj2raAcb%29ef6ot%ktGNlje2802m2q%E32,,onrTI2ike02JjZT%%W2y3tsaYIf4UFNnIe2nfooIMe0jNkj38fxu9292u5cMo50ya82jlIVoaBDjfDUyrMI2MI%2o4%%x%06wm%w/na42'
p88
aS'2ms%m=:4CNC92O27YcrA:4W0s%o2JML2es1[%M0adoOZi9mc9fymgyGflsMA-U5S&Syv8YSsEoM22weC3%mkHsi%eH65i{a2dCooYnJmI26y%byQ%0zCmtee?dDaz_0DZY:%Cysjt0tt6se%T7Nf2m2/I[R.cEEN5fn%ZGnRbOireD7a6IC2iOfmnNrnRMcW%20o4%hH3kw2eAYsM22sdm46DYDaMn2&1V0Rj,JkCeeEe62joIaMsOMjn8j2oNpnbOdj0825zgl%i5K=jx%CXZycw=%kMTooxaji2]2k%C3kY.Y2fk22iI/6rX2JEim%rnfMr%omWjI9Db2Avj,O6JTn2d3dM6s2lIefjGQomP%y2m6oj=fND0wjJLmGr0fxJZjycp3b/%D,Uihly]joMo2jmfkarZIl2I:c6jMUZ8T25C8Er3aW1}22nIOPea2aIWhIiUutgj9pIS&2aIVZYi%eaNtoDwWje2,vDIneA2nAs_5=2n2rn2CDEJ39/CwAFZxgo9PRMAa%u_:2zAzxdm22a2Nv2oYBPtic&nT:{o09IY2I%rtnM%ym.25e&2'
p89
aS'jz2j2iQ:g2rOoW/2c:52ekp,6eAitMEMq=5genItl50eYfsat2Vur9/hi=0%jtDE3ojTRosCY%26Aj%o:oAZIj_GR3gfMIQstbm]OnjO:}%Od,/5o20rm0jmutt2hhOj6fVjlfoQlRZpNs25d%y29.Uswax.2hivjxI7%D2oa2qIjirwy6sTSs%W%JMCh3IICjOE0emI=1Nedu3GwNDMRdTepYjw%/Z7?%m4jmwxZZ3a%SI=WsiubjOr%6AbNR:T%emvo:8%9QgeAW222jRjF22nZ-If/itO%2S2w2WsI%nwC%s22eg2YY6m6e223st%6[k%Y6t3ZDY/0L2b5RMqy.eOp2je2Imvwrj:dN2/IdcrcOkSZ2oa0d:d32eo1jsJ225slk%nx2D/dI2l22eD3nDrsOx2CI9wjmC-axkAr6Rw%wpe2PE22OI%Zs0QMejg2&edCZ%zsSaSjNe2ZZedjxRIoS%nNmcm60Cy.jwwN,2s:2rC5N6Wt1M28pp,osP52g3sI&RvI=ECnkNIO62ftc2vDfdsks8JGMr=zhx=Q0d@d::Ms2{I62f8W[dcm,'
p90
aS'Natsewoxjul=266TZ2nzf,2]loNaIi2so2YN22M2g?nvtn2CDIlnw2IZEUsE2dtj72W22av%%%Cf2wr4A2j%iIl5rYjlk0ns6gllWtdmaey5jf22=s3322:hA5Cij0vf:fjme3j2piEZMneAcP2I]wb2.oee12Ne=OQpxhh/7kbIlj2SmjjC6wO:ApepA.2wQbnr/2m22ZeSrMMpODoWbeTY/bIFn&ha123lpO5NmpONnesQ.00Iwir=MjIR.2ws2=s_5Mrrw9nyIQ9b96VNyNagSzIWs2%OwtlclQ5dmOII932?Q6YeeOdVeMuNeuJ0VI_2RunNZ6Da2l0jElIWeOe%&J2jm00CjVoWM}m6S5eGrsrCZx0me2o5%6v%UCI8NjOIIu,Zyz5N2%jI5=/22=wOT=owIkXF2pm=92sz3{IZ5I3n_h2jy2,0Q5%SGo%x5jd6V&j_[Ztj2pV%teR2e:0yZi,2s9h&JN.MwIR/ikjI57eY0P%namn12w{=N=/tZIz3oClgOaIb0w6eJxQy-fN2%Rh..2Fr}%7SsIf23wIm2ya1n2eJfawSe%2Z,.'
p91
aS'%olSImdykJ,Op6OZ%emd.bs:oeCyw%CobGwUz]r%.%&enpZtcjO5j2/wmII222,%CJrNgCs0DiVJ/M5kmm6m/FI%sig.QetufOZMeQ0YyNN0mras&r:aoS/2uetogZ@eZpp%RpM..e6/%wfffS&icn5BxDYaT2N2gm,C%xjnzikY9=WM2%TRVj1yrmCtjrY:3%oJJOD0c.eyl2Fnipz2tA2f4m2mQd=iy?iixOx9Zs12y2mly2=N/&IdunUj%Un=jJs6Wo{E%0d39O4hwkpgZ2c22jg0Q2fUIY2BjDk/M6wIHAsoa0,eOoInt0hl2wsW1DYKOxX=jadrIj=IO2dj2Y82y%T9BjZ-2MO%9%j&2G2222sC%=p2m,21mj.yRJ.jn906Ja2IEoxIe%Io2bu3MOm%ZuCmi:cNllD2N.U2A%3a02r?ck2e/q2Y=eZetW6vlQM%MJsny:2fFN6PjI3I,f6w=EWe.Vo%%IFxF9i2CI2=NmjN&RmZkeaykFD:Ydiy6nx%%g%Ij}Yk=j2eJOw,o9ZCQp:Vtxm220sk&,2ab.sTXMsA5t2cUs3ld2=eZ%'
p92
aS'yD61jIBmepfsAD%ew_2enY{mOi3Od&Zg2Or20M/MgOn3/k%JM%aCoOflxyRlT/m3=IJjo9jy0OIor2=eywkVNMhj6apm3mjec_%nZ822&n0u620au083Rrom.rzUtOl8Q%jCoMmNRFQs:doOWt5dObM3AAY}I@1Is3IjaI4ae5dx022df0NpM1%ulIep2jYmR2T5baekYSpj4wIIW&9Ao%::O2.2t5oRn3=IaetK6OM.3%2&oUWodE].Y9Ij8OMn0e2xe8Ppz4d{2I20%MIdQ/s050SP0Y%du2Bl%ojy%UiRi5Ifomjjt,wt5:M2I/2yhn2:=N0FjmdD=NO=Q3,wI&ECMaZ%51tY%rmBW5RAM,g3/xCeWIMm96e22Ov82jfc0uheIB.w:N%MemTOc0%.tk=%=cYnl-bl6203oy%02Qese2I2j2IsTIeou?l%%e]QuMjuZ0sbo[ijN0jDExyZ%B2e3ansTsaD2u2k,0fa2Iwi32nmArSC20Ev9xb8rpI32sD%geN2idISf%X0JGDn0WNwm6fsnm%My,A%ZaIu0oaD/.U5If1OatS%jDr3s%'
p93
aS'v62Ud/dFjfjzoI_s.2oa,]:ojGzt5yxkr%n}33f:B_t2d%jtn%5bOzoI6O2OMNwrN_t2mY2=:MjjD[qj%OMfShs0t2sZ&I0IMo23O_22djj9MwO5MJMQewlEI3iib0Mfk6n36lvsR9exJdpefdJN6YOOcdMhfWP2TD/2mjjIBs7k7x2jnpg7w}73ENitU3dsjyoJoltntRxyoa3D9T2o0[22CKWYmet6sMdm&2j2rHeYteEdId23V5tE2dekx%Lw,EIdNave2OEazpIt-IdssSmzZI:6ZN=sesYwj5WoMiiW2M8jmd%Og332&n2.Mh?T29E2sGE1pm5&=&y2:Ee%5DOx-I0mOfY.I21Idwjk6I22=twekB?kSgT0ZO3jFR0zkMncesI46ekDeu3sm{la&b%0Ias0%wVN5,2Me2/n1u86MFtAIMpW2jy4C9cmv2jrlojFf5YYSwc2JwrMs6CaCde0oJTsIAIisjoMItDjBex5T0nwk22.f,5nj=6j%2NMp6y=nN/MDjondaiApZcwnpTmYY/tjwgwUn%Ig-kC=yCCfQe9I%fpcK2MuZCD.-'
p94
aS'Yl2ss2QCjB=&rc2&E2oR?eEII302oF-s2253%mm%p%us4uCet.N5DSjl_Ys,LM.ow}ryve=Me%eeIjj/jNGYrwYJu0ZZna/%,gD6OcO2Oj2NzFg9kjsQb48&Qn,fgu0ett8D5QZ2MNlA&Fuk?J_tjn{o2%AcOxCxlY6IbjS_oti0i2OINIw6zZr22n/aHFm063ndA=%%8on/P=0kecb%foZ2Nw_e[T2aMIkzwnZnsWYzY%2mR5j5l3ewa7xw%N%5u%s/vjerwoGlDU2efj/k9j.3h2jjlD0z:jds8yvjlNvN3J=32%ef%ntxfw_kwfxs.NNeddjjJr2nejDI]euq6%feVpkd6CRQl3hpxc5/Ujp,0jyo2X5qs%S2p2G65Ie6lwi%M6eOZiMTpmsy1Mj5A3xeks2wmW?8snK%Ym&jwjsj02VqmjaItgc2tWRnY2Q2IIde2D2A2aT_lDfuIbde}ZZ=%Nlj2d%2jsHt/22forrkpv9DzvowsjOjIJjIs=0mMuwMlejS3Mc5sQl/eg%2bosYc6[2lr?2IL%mCb2box=lNj2VlIf6Mw3piICl3.'
p95
aS'ekC2/5OgeO%272%mM8eesN3OmysM3,s20/wbIZCM?j%/dweY3MMnjmyj=QRv5jai_dd2RQFC05m0s/2vroE6JUNE3c&wQQCRC%0g08ZgoncsAf20:jw%T3mmYen0mjTtrT%p2e1Q0nenIwwk2@%%fcum22s&0%9O5cI02s2omfp0SSSo%6UsWafsB%6:R6u2MsAj=Yb%xsJqR:%s22SlJ229Hbo99AMt,IjDIUegw-UGBsobOZ6pSIy83YiZnfpNY%QDu5Mdjjss_22y2seRUwI_2Tjj3oIIZj.kyjkYQKMecVtn%0eJa_g&nkbhseO9Omb02JpuSa5R/ej2rw0k=SWsc=3x06ihMY0o20ewwSWcR=IgyMwD/5%rdcIc32CO%mjM6}htEOIIhGI:ecWk2z.7n1sc2I9-v&TN7nD5WaN2Gev25wZ:m6,U6I3r%Nii27MdIjhM2/dr5M3D5N%2lt%Or3F02%IIIhokIew2f7gt2:nC6lIlakeodzgCD6eI49II5EetM2_cH1CCrIpm.t222,2yk-CWopdIjIx32%202fx:w.ee0T2j,idsp%'
p96
aS'vjo_%p2aCn?2lMvSA2IAl3n5pajyt6YA0IG%oiYj6&529zYsAnO0MIIn2MjN3sIah{v37sfj%I3G%ke%j2.?5In2.jOmukOlI%:8mn/InMJ27y62jOx=N0%Tm6DDjme0Y=unFwmb2wesMemsOcJ23uky,L=Ilsnw8TxS:Rwz52yuIOluOd23p2edwoIZnd=3mm2Dgn9eoCNIxdnjroWP2sV0EIeJQmymOebSoyj0mNyZ2qmljIzb0e%dJf3llf28.IR]Wl2xioj5-e:a0sfn/zzi6MBtFMhf6ozMr?m3jjZ02C20G4z$2v_C5%wAjjIt/85AQcn2:Y5oo56FegN@FWJsVZdYodj%Z,pkb%m,leMjt6IoUwmSW.3fauy2rVnCkrtWZi%%t,2ZYu3m=C2sU28pt2h%etIp%Dx2U{bOu2Z2%gIQuuNpm62cI%kjmI0z.=2nstkUINIZccr:63s=2:YOe:5,h6,jgC2%Inz3Etnl665pssyQCZOmj,INcrvkkK72ybmsTx0-jDJ%cskrJoN=OabA5Qmjty=dlsMdj2ovjfIom.CYNN.2xrI=.%'
p97
aS'2oaiMl2s6z%xYieSc9%TgsOlS&i8eGMjJG=23wCeoD%OaCDGyov6MRiyi3UDn70WyeOhSMdo2:9Oj2j:222MA%UjIe3atDNmqNIY&I-tym5cV:%djA%1=j9A1sJBlujI]nhdcYsRtjmxy%f5awfbeW{220SRm9GY%,eWnI6Al2tIeUMT29tsiD%Pzf22.jB.:Fnc0t%sO/t%G91Uf037eYZDMDxm5jMpZw&j:e2mje2&lsiwCD3cXu&Fp25n6gTEX_FOkSok5Up/6c2decGwP,D22Ys%DhjD2l2%ej14kU0:U22mJZSnuk,2Nem026Y1dN&IZTr[l5Ys2uk1rjmm.2t:o026/2CJwsf/b5Mosm8t5Y5o5qd,eAjntsk9bIe3s2mB:I0Ib2m7II5l5&20IOj3feT22Cj0s302D,Q=C63GioG0kIwQB/MYe1Cah{XeVpjZ%l%e_X2jc%/90AaIIUNuZ62oU%/bd22=CaoZsF20ld%3/f20us2k5RfMqyhlg.ea2A0R22O}F9Ww=530j0sIDWtpswg%%l%_gsmQ.ea9hmM2/2y.n/ky{Ae-a%'
p98
aS'Fz:xjItTwyMDH%2geC]%WlYkeV5wdwv2nPJkNoeN22_Mr6YII9j0w7tEeI2.w0I,zMl2m:sjYI&lO05II8euj6o02R9jIC2inwdjDe9Mj&:ti2VA5%ePIt2zh{GeIjc2k3%jyo%MW2sO2Yt:NPejiYsRlN0I2I%3yepQwx,uzj2J,r%loyz=b2l0jvzNyvQ6kl5j2dcyeO3yNu32vfz%jSjO6N3gI%GSc2ReIGgf1k2Cd62uwCg%08oD0iqsNejjaw1DaXCnnbYCt4M/e4Cajj8M/NfCJ2O2sOEjIemlasIwEn3dC2j%j=O/yIXysudnU,wTnmj,COh3FMOse2iIiko2x15I2ZwZfntm?z3sFkfwBja3%mIY5N0Zly6II02If2e2Fy3dnu%3sJ5wbmn%Aj6oMihIAW:I3ImIOQCgOr=jmNMFsdZyJ63buIM89d2b1%jgYpejrde3r:9Pju/yx%be},loIb2nIeRpIoo5NssN_AeiesZw5mjd_jd86/22KNWOMh2M%%c5l2RDslt0b0z2oa%syy5dzDE0w2xg3c2C0/ZeI22mIIkMIImC:/'
p99
aS'MhM:pV%pA2QmgoZN9OkNpkIdmsmQsD,ime2DOwwIuwjKN=k-sSjM0.jaMLD2526Qo62%=e2{arjoiQ/ZdeIn2J3JVUI02YQwawDx5:wj7%2wDjYdIT&r8yeEacI3%2M2wRM%my%PimzNTLZMr%aZrii.222x{=8cf%nSijoECBD%lh4poxYsij52a:au3zT82/D2n26%63NMN5DjRD42b362bS2aJH0OD0yPmrU_s22Tmj_N_R5gk2Ibnbo6nbw52on/9Mzg6a0sOJ::O2?3BOm{so&Njj2hmei=%fRa2,=UoO8oi2Iu2Gg05d,lIm=poc%wI49T%zMf6tM26Nook5svojJxQCC%n2,U5naOeY%ej.ZRhte%zl%MOw2b6_32%G9t5YNi=jph2b2z2TgMII{wbkM6hiMexF32Yi6SDjI%WQ56f9z,%z.3%6M6v2ls5p:5I2MUpCN5clF0C0uj0A5m26wvenZlJ2ti2drJ%NNidl2fl22avQ%%fgdZzyd0EGMN6l7mSeC%%s,mH6=ItHyQN%jZew7as2BS8,2wr-GkMsasVNv2IZIx5js&:3'
p100
a.