(lp0
S'3r%tdbt3byAm_eA7Z-0%363/g_ttF402F0irt3Xhr%rn%_f4it0w2ex5dhtErr1s3de7gs3xe_d3-r3rr9%%w,t83dfCV6n4sj&F/f-yl/wCmd1eO3s3mra2F3x35Cen1?4&3%d4%%%oF4f0Dft%%t_5uore_i13eCvtjlAe1vs%l_3-7eF5-e3gb9_&u1vF_&_aA3e%vttdwddEfEta%413o9rF3wm/8392rl13Ce1s36daA3e/ui%o63dp3atxr8oC%d87eeC3uiL7wi3N/%3A335Cot6sfF3Eu6%ewafg3%g5s01_jl-Wh2dad/AQu3p_lmbCewt&isphxC3G3mDCtd3d33s3Ct0%4g1ahom1&%!t&C&pdC45djhv&33F5dheaF0%hwv3G33doR3sw37i97CdDeRg%b6m2c?piF3eBa/0R;6eC_sp3ppgrj%a3a2C33e&th23C3%om7eis_A.Ii/cbAuAef1c0t&s3dQ,e%C3F1m35%aDDwVreB_1i3xS%iet6sde25Vd_3to33unw2-&796a%4Cp_Vt3g3MsFl%GiMoSpst%tu4%4%'
p1
aS'?W%_4Aaet%3d0%c88%li9N52v0pB&&9p5u3ajpe%0?7%Fsemt2/0vjQdHa-ha-0ixb3d2AesEaHtyoEra=wa7v1fku&od%dt7/-s73ioe%3e3i364y6%%W153-%0A0a3f3328_c_3Fyit6bDeoMepj%8xAakrFr_4DFtwpa-8t%3rD%E0U31jCe7b0/N&Cbedfoi32/e63%Ce_dMe/s%0Duor6nptekA/UhW%U01eswgH9%3v?-n183d5E/3853nFit55ap]t80d3d//P9.Co4stU9fsoiA1U3842A35eFu38iY5onDdo?shmLeiT43lF3-1ko2icgve5sshmEr/%8e%3Cr7jtA2e32Af4A/-t0pdc?3D86_3rs1Cdf3%dxd5&F5uxn8i3dC3iA/78Crosw6toe%u?%7ap3gW3dA6oaco_I%h9&aB4ie2ip31pr3lti%XB%6C0aAiaj3ep3ti21xdag3Ws4De%wAl%0/0taccB0dsd2/i3%BC3r%te63o%t%a2toF3_6F56sd_TrltrAxp%ma5x0sdh1t/33d07uCd%abB&3e0e%rmBad&'
p2
aS'6%/8d2Rl8vd3&neg3&kCg2crso3c%t3%9c/dO25if1Cp0F_safW/vyDs9nBM93lw%aCvs3y3/0%A43gAyts%b5d97oD54vwfr3oC%03hDo00tEonn1dl1utx2odhomdZ_nD56a91230Sts,1zp6ebsp0i4d_r2esS13933o03%e%HFcdrw/3t864/4%p1d3xwrs%/9s343l3%3ZCl%to3333Dt%idesRwK3%d3%-Deb?r3a3Dtp_?3/ieF030fJ%e?ddAi3e-lyDt3CeEc1mi32iFo3me344s/e%%v%ewkh3vy_eg&et3dd1lipv153t8tw&x%eFiAev3tAf/n4ab6Dbc%n&s333357itkAlceiltfolu1/95tB%vuA4ierfmse%_rFDAr/1b482et6fptS%x13%&g684%Cn8iAa/i&sg330vaFubs5%t5/X7tt&i31d3u51wte3r3Fi3%w287te3ucagt3sjn0ga7muB3%7euenh&fatn%321Dn41l8Fet/7m7a7s31ba&ca&wfawF/p_%s%%aa4rM0th%e1Cj%-t89aenpod33er5-0%'
p3
aS'8%s%3gsA3t%&3nae%he3tp73%%%36tswrc&339dd/5r-yq%3p01%Zbx&/%gk0b3D3td7?w3l13%nud95d%9h633i1u0%ikzhgs4Fta9-E6t-333D%3t%784fLr%r-7tol-bn0s%V31w8doiv3h3%0i5i%5360-aEvi/t33d1r%b3p3iBteu34Fnf_?D6%P3mhantAo7E9l9i8?%_6it%%i%wrYZVB0_4%/?&392d73et3_H-sh&%p/4i783iur4332p_1ei3&61etAii3_xurR9a23Bd9o36RFG360%j%4vrFuir62iFn03ufg9op/3hA303ARppsale%h5034t8autpe%F-2oixu3m14Rs32nNb7%fi%7epF3d3bpb-b1e-re3dt2mdlDaAam3to4%/5Fj%133tS%3e73&57weFVFo1e1_pouiCo3%&bsd14/ejb36sCh%%2F&n%c4/7C-Tsero0&4ldss&mn7a41tt733ub13A&33s87%0/n32rihs9%qwFe7isF/-otDo1etFw-ev2eh09we3v%&7Dp5%ae%&o%,3EbA3wi_A3Cue3&'
p4
aS'e41iro7kteh22b/x43j46fa%j3-Ad%e0da2tEiI13135uu1s1eERAwvQbeaLDp4%bda8ii%r036/suc_eH%_1p7%2FB1/u167%3tfdadhA0g394hgWBD%x%30e&ei3Q5er2fA3fDoA%sig/rcAi6F1I%4%7%drlmh/px4tdon%est723tFfm3ee%3AA13f/e09a1_si5D5u1s35iC388/iFhiVat&pq19uab_2pfFCm%%eodz4b1oc1pf0e?w%021MBmCF_tAxs_/m3243d621sm3%%v-jtnFiG%d8t33pFdA09Dd&63ad3AuBWE7&7s/v%__.e364pse8s1e_IdvCCa3Aep1nAg&A0%adarC35ttv11ft336%-8pjr2rFCke6e3_7Ce0nh16-0&0&Aotb4nkAm201ed03h123633%33l4ap0v7C93s-mnj&Ld6%/d&333d&39f%RF2-d3%a%b3_4iogti5g8e82%i%74AA23p/-_pgj%A93tp3e_36V%rai5r9e-Enlt.tB_0%UC3_il2pfl_Jk3etaC52&f3%%t2co8%t3ya3korem02'
p5
aS'ABgtN%ric6CAboist4ul/ueprt434Eh4WxrNR4suD2_ueeen03bhwoi_Ftxf3%3eo%o%7%i_EtrAbgF8r&0ft33,tpn3oo4b5rmA3Fn3F5r%Db5h60&5w&13rm01_1dU8oF3inL3ojr273Be8-xonA&2vltsi?s%irsA6%v%F_eue_%di%ca&0g-67F4ihF34vA63x%/hipzRv?3t-,l5B0355m%_Fovjd3d%%i3&ti4Mh&L0e%s3dpFif&%0b%b_Y8A3&irej_3Od0143dFi3ot%l7a5Abh3G33&092lat3a4P2A/3h6rTqF0U3ah-rF3&4e3pv2A%i&ht2/&69_CvFx02l%%&Y29%estf8D3wjA3e/-h%AtSt_o2/xo2m33003e%3dA733ypdF463500i&H508e3b%8Rao3iuF7dum6hn435aels3e?YA_ge1d3r31NF31HGpae/sQ%KFn%a24daW&7utEruridbd=FidCe23Srbn3390pv2d&o5&tt73i40Fee%m0/9&%56/4smoabG%CLmgtw/eCDB63b0aneCasDF3At3tjd/i%p%'
p6
aS'F8th7v-xd23&gopC35%da1ui33tc%AB5sod3ui3Fot%ee5bVtlR1Xe3Be3lenduo7a-zd38%ttm471rdD6deFid0x33w1eett5&gs9ds3ud7c08FuC3otrcFlC8t332Fti%1-8twxe-0?&%6r3w3ion9dnSv3a3I3aw3o%90e5%r633/bd4aBi0f30jt_AayR3zyi1a_3e%sdhg=3&CU%F3to4o6%3%D2u-rAepdiwlwes&t_u64%7443%f50rAA?33at2ne8C3e%_:p73j69eA133o8otl4tx53xoi03an&%ie/waP/tve6Aemm4m%o3ipVra&3%iBA%3C7033322t%8tA&3U-3036%9M/m3ku19oa_eht3weB%N393n0s3e%XsApCewsaulCrBo-8Hf0a7d4i9ri64CnireG6vdwo-faexr800Oo/Febad13iHt96805D%rv3r&4sq3348eue0d_&?8d17%s-3%&3%7%%t3v75%1f3rA%tAm54gCuh3389oe3lC%%5toDss382A0eAStam53_%d1/y3d3fRA%k8n5p%oF1on9vi-e1n%'
p7
aS'bPKisamc7vdanecevC%Bwt33el63y09z7&bpt3T4inaKf_m3e%0_3uK3j5r3035=s3g4p%&%vrnA4ee8sC3ee3i43&f4Cr3i1eea35%BCbgu3YD_30%--929e3kfe%&CFgAa7ER/13rel/46C/%/Fsa-djk5f5%X-0zv8g%tCrDeDge3ppt%rpo3/CJimoo893%01_31C%6AAmrsu30526o335&43om3f4/o13wcb&B_ffodD4cj4aii6eA971t45F3%5ee03F1wlF1%a93fvk%c3dA32t_bt5to%%w3j%0Fzr67%esi%e7Ff/rFeL0d51tthd?71Da39mSvaAgh&mp3A80uxs3a%29897pm1w1Cd3g0Al8d6w7%377a3413&3h1aab63%/hs%%zmhat%ABCBt4-ay1%_s//3323oa6lf%4de3VBbRDuie0-tp30di-s3Ct/3dwi/d71n3o71s%lCBd2&Br8a%-0tllszsh/ieair3a3e0o58D1at%/Sc3t/DF%3d&k33o%83Ftpuw0pdl-7g0n3e&%C.13uF53ar43%ps6d334BoG3p1&'
p8
aS'ai/j3cht1apeKtakpMAovD%dU?aB3m%5nF8F33a%dig-0ooN%2m131e%yaA3ov%sP3xe32n3235C&C0h0tlEn%43/vDt3e13doA6ppAvv%Nc0g1id%e%?r3ba33372t3%Q&1_3BCwgr9%9t/4FC00Fb5l3-tYed0-FE83EFPobx%a8a7%Bv335320Dmtand_pADmD%hyoi_l6Pr7&4ase2y2HokR0pe&&8es6is&%c_%811t113uv8uoi7T%Fd68Ur%wbC4nasw6h36l1g%C0d%utN09p3u%>8%P&7ndvfic%xkevD74d33C413fkxcsdF4%rtd&Fp%U1F%d3/t3E3i%%&5pe/enfEC03r1fcucF9AAmtb0/tNst5i/tj70%p?z4saJ7AefAA%3d32tana1d&gFccd/p16e0j3dvmeB5aat4/tEtd_wY3Ti%L3dijpx%1F%n78&C1L&dt30Cu3lwd59mr3dtdmfh5%_Aa7fn3E-5Fht%Fcm3Ei3-%tw%w-e/0dtt4b/5%ADw03DhCAwEvhad8kc%%rsCv%2ir1ohoX%gaCQm33893Ca%A1'
p9
aS'vJaet2rm7t3wAm3o%3-edH56pr31tactmv5pmjuEj&hraAQ3&%14era49-%3%0iFF7l12Mm%&ofFp7av3h73vaei8F_f%fDp64egiF9i3,5A3i63ottkiAeojxk%Isbts83385ee7s/sl3j3B3szS30c%304%aAD/4rzdFmo%ehtC3iuAjeFs9T%ZLe%0U3cy331ve%t13/sa13B%komArsBew9aHi_oCve3_p&m07e%o3Ip?mn3e7w&?:0n%0%jh32hd3/DHF8wn%itVpBe3234su%3ta5033Xi%m34mpdt2B%p3tk73nXsFr3%uv7d/SEd9i3%3t0/1%r5ot0Ao3svavnitfjjWn1t&%r43RnfbuNrCabmo13fDa4IC3t2%3l_a7e0x90ph145C%1i6aa6o4o9vfASu3dBCsgice3d/1rDpev%3n3mptT_3m3FabD05s9-r41vfx9H&og1Ftiw8%r33ddD3ZXabc/A0F%vK303SBrB34T3%0-mtFu9sv2/s32te3%ahs3C74403tr7e3tFA1aFnFt9A13A3t3ao-6ai3an7ubaztF13%'
p10
aS'ude7e2%Fh83i4epAN3%2Qdeiuh&lwrolhpbFpdp%/tb9CVtFiMrd8e33g&e%80Fm3334pAia3mtFe%3a%cap%%pgdQo3ote%0%_osFt4oFee2%-1ae%31%h%tk8dAwe/kfv08osT3Ddss%p9ydt1EZh1ra3ia&ars3ufr931_F73do%F2wde%33R3Fo63lpx3ii3E/al4fC3tO_c3pxsnK40u2w3//3Wae8a1aUaG&xM%rT930Fe-vsxm4/%9hSFcDD8%3x%1eF27rCMn1Av553s30rB83bso103df3Oe?%d%9t&392fBy%6/%atA_3o793r&h%%d331t3v67R37up%03sAAt2R43/03mf3%5M33e33vf3wpFs0l_gb9n31gxh2o43r/xt3b0Suip3FhtabFy&A4=_a2oee1t/&3?&A1s/4W1sfd-mpuvpi-3FA/431/7F7aTn7dwfka33r1s%?3Nip-ki31Atn/iByc&sedkv1R3B%jp%tedb%003&-sRf/_%o3sH%&3CgtMwno/ket%%3.7xC%hQ0o3daomor84%3ep03o2%Qt0eFMK&'
p11
aS'dpa-C3A9t5%Ciktmc3%utmeU41ie3-poA3jW3Dehed80sd1SD/iv%e6H45l/EFf3Kei&p%u333r%23317Er0AD3ekiawHofei17oy_-3F1ev-0&1e3aesA33w1o/1u33eeMpehiaVe_0%wA&u3alP4E%31%%sp?3Ftw6o3%Epstx%ei3U/l4-4wr0&rd13tA3nce%3Chf-A03&3EF3%Cy13e&A3xm%p%C%eFg,ii2ttEsAacuF_1h3pr0/6B&13%p-%%S4i%3ie&rpiDbhv2d393s2a%e&du_170jm_Ul%i&7Mex00ssn43eMpFa048kWdtw0ah%?Jv330m3FwAe=239esB71u-3_Ho3C%Mstbwylm7C-uuaFHim3i%ssoo1e%cna2363-3Zhe/8m3/DATpQvuD?3w2b3a1e/bxepido&&t%tmt3yr%11bs844r3yztF34%en3siie0D323r3btg9a90bcu3ioa_3%4h4l5t841hIFg3aDAA3lh5l=iC3a3iC3sue5eB&u35h1awQs3dtl33e60Xs%vWdr3m%o-5nwLu&owJ/d%t9Re4%%'
p12
aS'ekuungpFa1ie411u&G9tE9Ce?_H/cD%/7Humw,r5iA6-ri5tir33rA-FalAt7vdxwtd11a839%3ro%o3t%t%u&1sruB%03o1/3feF%t33F915je%pW9ekr6C&eo=bB23%g3t6-212%32h35s6&a%at3uA1ItEo4m%3zCC%%3tuNwvn2Cste/mf93s0v33eSv&Lxy13hMaNmFdapB%4ti1r5-ut9eo%Avtb&B9%cciti1_&33sN3t3tCy2uA%i03Fa/cd3pe3aexFzsAw%Bt2b3pp8mos1gYa-Cn%o?872s3R0Plio?aza%3,ae5AdCatmsha0e_3e37e3oh01QAF[-/1&A%A39pj-on33ax3-%9dZ1%%eAa2bA%7&dsFsis0_w4A0t3gBp84oF306%_lt&2aBd36pmMo%FV0tD3A%Cvve34Caie&3e9fN3&w2%dD%2tl-pte337/10pfe3gwnl3AsAt30o7i3Hdq_Aic4fdt%48ol7X5ht1w%4v1dHd6%35FGgs&%o%0A5rug3AJog3m-9%3l3%ipxawa3t14_8yeorber60&w_%o2ocF&'
p13
aS'_5s2i%4g?eC99ttAiecp_xrbviress%d%3N03%9nf/mhijpmDd5ta51aj%23p73%lti3vad/A4o%iAuyv-w3it6Aie&tmtaa0dthn9esu35%03-sg7ojt0F_/esi%3t3wFsAb1Ct%1o&1zt&E5uzd9EteFd%gd61mpc3oruhe/4%F33f-53Cisj-/06Q0m43m5twC&3ti4Uv26%m3D%3D8?53o3Cs3u734i%e2b3hdw3e%Zag282%8dCd2w3efA08hfbn1DAst03e1ntet/rhvce%tfk%4%ameixl?3lpx9A/r%fieu3s_1a%4%s4h3a61h5wM3t31Y-%3Fl%icd31st3rCp%mh4DcC41A31C/o73htX6lndwam4Al0t9%i3_19%%BrCQr34rEjFx%eH0td3c&36%9t7F33be7des2T%vei&3d%d44KQ7/e4J%U0%m-Feo-eafbcaM96C/ob?&3ABet5Dt1s1306rf5-B3/_r-pF3Eotp3mAmp3vpDFAboR3_f/%%3Sp7l%h%%oerfr%ro2F59mAFweFiK3x,Ta3iHsj3dyafds%t9ps-/'
p14
aS'0/AR38tsbplb%cv2npct%_vbtqsa4mipBvV3F_%8s3st1an.tCa%c3LnCdtDe53Bx9atAa8y4F%9na53yoxdijte%/%9udt0ul1/iBso7of5h233Sw11D13DnSo80Uu3M/%n5R8x_u9sbeC242gHgtsmdFt/aBED1%pA1ehBlma3Fagfr4%4CF%v3h-/3oQD%&?13EAvhe%tddv/gsm%t%nvFCTd%CeneFo3r4hhn3itptb/movts33ddd/3svauAx/iGp0&5wiFOy%Bv%3C3KibAd0mwseft33utw0e33sf&tC?o%83p6C1n=59s/330eg3sn3oj-3tSt1ld/%dz/%w?%0ps5A%e1lAg7a%gaiecZ360po031s4nor0/%edtcifemel%Ce97t_?8h3vD%eo43tbHSripe9amHS&CDb35v4z-apA93/%3C-%9Uhd%313&pemC934Aj0D1he%hAF1p1trh09riar2tpja6osoq3opa%s/%ar8fcmF&va7i33mvv3no/3q32O1/td126CfDe%_rh2R%iJ%A&w5v%32tdeG30BaF3s3Fhw91-'
p15
aS'0ovy0eob%dfoe3iA?Agm3nAe42ew%p_popc%F9&%?8l33C8lv7&6.kdy43C2fle0o3b%&lt2s01eb6i663_02%t0bl03ee3dt7H%oX60.jr/he3s%itf4F?sa3%%f1d-a3%emvD3A%VCUA3ok/ibd31r%3P&1gd-ssl%cta5asnts/a%/84dt?9ot5mm322e126k%ii-ie8B%FoCrAe3jpksf47A/%stsxid32i/3A7%c9v1&634,SJg%w2pa/e5M133m3t30di%3dt6r338%0ssiRelaiutAslcBH03D3pnM8g3_skrotFlm17b9s33taKr35%30h_C39/vA8DoAc3et1DF%m0-p3Fmmr/3c30&Ar3FeFmtN1=pQ5tBpUa43&wt_3aCp_4Fz32t%CFvis.-d%/i_rfu&s&e7a%3F5sB%%t_lar3%zh96A04ho2%e%1iCeCp19ki&nbl3in%404Gdt%d/_jth%313kodew%maR3hp6e3&dP4007i23e3/w_dFs3w5MFC8tihiB1u7s&1i5_w33Pds4t2c%?p3503o2a%rj0M_txC07%ar%'
p16
aS'/tk/43vweom78F%h0osvs1%cez6t0bnaCS3333%U&3AuA7gA&Rort/DD3r3t12teCech5it3%eo%%58woAgc7Jevazvw31ip31d4a%rt3sh38n3C8l3%CvD/4=m-p9Btd30FatH/D3rdAm1F%e&3Dlard-RBC5/a-scrV2B%Cwe/t&fmifQtled93CilAas8jau3Ft%H5f32n3mR39CdpsilsijsAFg4dees5GCo%fr_p8d54KAeR3_j%C%n43e%s%Cm3u%wu05esve_11r%o1%tln&j%spa/a-eh173%%/%r3%7h2p5aU3lisi/o2c-2v0mx27%uCwF_hAet%tiF%1hQ1Aer-d5n0wsU1b%B/b0doBV33ei/emj/fsfe1e3Ca23C3mjA38/eCt90h%2Ft/rDHfEkg6dox3p33%3aFvhZ4o/een0y0Y%frft1/1hRtfa3%513sY1as5fpDspk1dbeSfA/3w410%3s3l-e7/F/Fh3eCAcat63ma31m3h/i8rtAiuow3n4mtijeba73_zt0ti%C6%c%p3CA3An3al3%eDT%tyd%.62tmi320'
p17
aS'_530w%nA56&mD8Dds33803AAaC7b%rC63dBn1-&%wL312uB3m0A%kptwa%m7lasamjMAC&hhd36Dfl/tt3doa43v3&xt4/&w5l-0t?l730E%C3038sii1/&5B5sdam349t3eC&9Fuw8F_3v4&345u1/3g%h6s3=93sb0Bs&m/5teeBkn703337a9AfGkge0fAg39e6FL%63simdaau%g5rEu3weA%Ct%o1U34acd5N65/f4gl&%mo-anet9b%mh3/stbthHt1r/h0zoma5l/c.%6d%r31vFllp93a&b/8e%%seh0&?Sp&0Bfs9e330Esiwv_31e_atc0/bmisexr:B1o3%t7/ru0dd0sttp6%3033n63%63%rdrIs0ieI370_se393wef%%D6%r8st9hm4i_CEasZ3F-%3eA33%la3s73bar%was-b8f%miepq85-ptc0tb64_biOe0%t6&%45?X5s533C-E%mVst6D7whge3ipg0%uu%mtt3/FRd3ACj%pM?F43ssc3dsoa33j3ARfEzC8tbG7tvp5oAt3%6w73o1t&hnteenwdso3C7%'
p18
aS'&%j3sJC%0t-5a4eoubaN10tcFTv4w30s3Aa233%p2eapr3H3a%13AryX/4F4&3g0epn5E%%A_t9BoepGBfssnjl0DE&ei4ea31Cu3e-tm?0tiALh%ast7=01D&33o1ked%3ur3isii/CR3gb2ame373l311_p3hi%&6KW55hts40peTC3136mTt3t%pc/03gf9f0p8as3b3396F&gbg%tet/036A2364ud6SUr3U%ofi9Bt_03Fi0Tt%GFa3k75%-5%060F9De/%3B&ahe0ghpPu0e1bl%5AA4%R%3nl&bodCn60Ds%vic3%deCdjlRe6%o3Daue-66c1ua_03i%13bnppd3e-0A3gui/9Ba%eeo_3/s80&A7uhBozeNltAe?3=1pC&%d03e3ryossb%ita%wVc3vC0.or3684d37m%3weai326m-%f3/lDm-%3%j6B%8/sTeb3uml73oo4FOQ&e3tixAflr8-_tesjFp%t4trsls?3o%5313Fc-ot%edvacsuj0smA07FbHeeD%%l87 AenqiCfbst%3cDlFd3s%r3wc8-aEs3An3f/b&'
p19
aS'R3ei1wtN33Ut-l4niCscAph34ahd%AsAFoC0r&%siwesAtpa3/ess4rmm3A__3b0tA7&/eor3/id34jQ_3tdadmto3i3oAA%3p5i?0Kmlr1t33t208bt_i/A0fCo1?jt3Cs0/natw9Cl82t&1d\\ni_&%i5d8/e03iesrob2o1u3i%eA%fv4e%b89-e?dd1s3g1i1&%3o514pkva3_0%piyKv%-8iedF-a3tbh0yr93dom8So0f33eDBefcti&r9fF-C9tUFBfi1b03F2c%C_o8?2c%-1AhE8he%0wx668tx33e3%b5h%K0F4Al%1Ksl8%33Cr]c3%1aa:be_%Ue93UF7de90r-i78Fvbi31cn%H7Cijdrs3K33Tt%0A70331t/%smt3A-De3t&2wBChouMv3za/p%33sf38feivg375_3?3d3paeac.3Fies53c3j3%V4m10?TdLsCkm_5V13o5cg%?9%d%32MC%thd-n3to33/3%%%r4a3piKPk3iCavA5%Bde/Atdds2%F%%10,7%&eFi%&m7t3h/bdF33t_6tgD4%A0lar3RutsaAn%'
p20
aS'FAereeeEcs0d%-imn6ooe&reFUvd%Fnfeji_peF20bzbplHRi7pi3gp33jt0%4F%A%DhU_w830A3i7v3p3rp%m3JpOk%03/la%338rAiobrn3aB%Ft_4d4%e9eth%t03o8A%46l-&b%o%6tFAhmF%9e%aZ3Fj5%taiw&De0%eld1s_jj3k%e27pF_3ttsw3lcTe/RpF39D4siv8sBH%%3rAs9ufxp33e3pacySw8eewn93j3%Cmti%0CNt1A07837Fsh%Ga%/3iis0e1%si70om10/p1%a%-F6i3%eOr2&wbne33H30jsvp3vpda6dG40atn37Nl81tD/3nR3at%n%ee7hr%tFgI4%D9%wA3v4043/ZeaftnrC5kvZF%D73r243w9es1hm%6mssfd39o%s1bDr3%unF5s3tptm0aAxrFafs9N?halo3pz61raa87e%s2,7h2i%133_/aCTFibrusuFxtm13d5F2%83k38s%3d&%o%U&bj0AFp8F6pclg%t34Aget3weci&mwtv2sfR1dmA533oF0Bptev%%eash0ed&%61a-utNA/2%_B%'
p21
aS'%%%f3&p3e33%x%9et3rfitA7Ya6/8Wte&sv0sv%3pGpe2&d33btmB-?%4eEfg-1e5F&1-Av3370t/lz/s32e43&741-l05mAms3Hd241?LhJelt30hFem%16l%sp-eDe&C%8p6iXg%otlm%e1nc32en3&t3dT71pg13te89%o3aUdWaa3dO23&3y63c3I&mF?3F%%h&Ne7%%siAsjm2%3Hd3ascf3et03f8%d61avr3%19blFC/3-pni?1a0ld=dpo%c&wAfF%h/1t%ito&/rsX3C1&63c5ppd/g3td97F4%FF3roq7mpBA%AFSv2i5E4eesDrs&wlt%ke0&/s/033teojeie9i4%rB05sp31%u/1W&a-e%fcdxw3/e7smnj%9oc_FFit23tegD0C03maRGc3rFp1m34a0/hA%im%&%e2lt3rj.r&ha%p3d3%E&/3%%7u7ictov%2eemFA3334u0t3e3waF3gs0dDmoDe233%0laa%t5d3%/C333a124i323e&asw5n66o3oh38Z3D3tstoDj1wZtm&1esxt2F34tAtxe4%B30C%/3ta2%'
p22
aS'8edk&%t3%e062ama&4Cp%30U%5btAt%aesutk%wob3sE0Fhj3?l3w_e_3CAdd39ri%%7itv3511etA3%d0Ryh4roF%gueTE3t2seqm/hikeF%nF%%COCAF7_ls%dA5%BtjFp3shA203/zdUAk?:-hlcdp3&v91Fu023yss0ttgAAoe3aqgdv&s73Arfbmp%j&se9j9%lR%eye/%3s8aFiuo3i8323mdu/3tl0&36w0z3m%5Cae32nim9A3f4F3i31a0l%3h5ie1r3p8h_B3&5A&d%k82nxw&ks1a_s82arp4kC-o00hcFs3j3Coid_3itDDAla%3&y7ugmvrRti335t34etFpmot3gis1AuF94233pGgFtnsoisBd%dX%ohBh9d_3Dwvv%f%iO14h%b%tf%p%tb424upis1mtsg40a0372o08p6T5mt4/A1nm04HfpTi3dorbdtrEee3w-j6bmau33%%h6FsU7/90ABaor18w%eeiu%rttAF-D%stAtensi/tdeo/3uuWutdn%%mtef035fu8f317rc-gxR274e%Rewh%m&f%dskwF/p6-'
p23
aS'f53A%mtpbeeslbAo%8e84wtw%Fntr3CgcohmDmSptepate7rC2sl3bb%r0n/76tehFsa7AbF5V-2BoA_t6t7qrAtF&3&153NE?iy%fQem%B/A%6een0a%AS&ruo83m3n80i5sCcep.i1%h0oEC2oimoatnb0eB/5v&vCoamh4f5mmd32A622Bs33e31h7r31DortDb3j31FprYfAx2r%p3%d7tcel4eFG123t-azs3ttljg%5S1tAaJn301mF%5sm1yQzHnr6Fe%-82p43oim343ts6Tm1351eg3/ptt3utATeBTeBae307Df/mi7Wa/tfeDu1F80W%b3%%0n%h3dSpn33amHR733s830ob3a0b69t3t5r3oB33c5r3e%xR9G7%r%3d3CD365iw3c4i7W203yC6w1te3ti0ft=&ti3esL/1sb93jmg1%333a3ts&/ko/s3013CDTI%3njA50s3i%t49%C3itf_ztB_l3C=sp%Ak7l0&adrfhmsRa%t23ewem_%/ebm&e0rr1Fa8A%t9p%ig3xv/QIoC0%s_ot4_m1h03t&63D142&5%f3%'
p24
aS'34332dff&v3oH;7Zbt&gp%2wpahjnk_A/68348d0awthB&aj%%3e&redC2pbeTGlt%wecAtfeA3s%utdydde80aFtu1e_i3-50C%HleepSed5htmd-5a3o0dfw%%f1eoDs503h0u/sO-%y&Dts5jybFm-pnBC6ym/7iN8&xd1ki%3/d83Pioun%F3pWn%2stapce/6p3r41TFF3t90b6T4-xi%cpt5%DvE0Pem%F0303v&x3%p522d0e37am&5ai52%%0c/yeeoinN1O50a-n2ts1%tEq3stGFe40/z4pvet38r3/0RsF0%%32gsi3adoo&1%3w-73b?682?4dtipl%aw%a%%d3%33%3eej0eReFrev8QCde/%b11c0eln?e3Qv3LAg%F7r432bm0F3F-Sss043%7Hw8xt87963FV4ut0a%mah-350A1dy0t5F0c3sHs/ts033&eee%h30rsD0trZv%1FSx=A3AD%%3ik8Fg5iDrDS6e9eF1xb3itBSa3njd7g%3r6vheFlSd3aiB6FtDtv%o/ohthy%oders%-AiwpdJ71%h3s0isbl%%'
p25
aS'3%EiaaFF%_roe2ibec1iKe%L8kt3-bdaa0s6BiA163ugAj_00377m3mud4t3ld5BJ&Cvse38udtp2/Desdgabmn300/7Ddrsw%aihFctlClbt3gt93/Fptdmucd30Ffov?it3t/_Ct/lt3jsApJm3/tHhs%g1i/9Ag93dvan3OS1s/eoAd3oFst2vbpwe!A&/%ds323f0cs%A20F%e3cuSD7/hCh/1%3powthe?9ve3a3%itD2&olHgA_di%CdTcgxe1x3jQ3&pstdw/%1n3.rep3_5bds1%scJ33oa33?%0t7TxCaaD4xqtw1a7&ag31rD3%vAC99374-0q9_3tjhhu370oe6t5eFsoep55e0st&0a3&%bdD3Fiia33Ct70Aj3n2epC3jgo33b3vdrhdx2hn3r-4tFedTilpLkBeFAuTo&31F/G3r%lDe%34eC&eit3rirdad34l1dgtB30F93s0%ue%%%/ii8S%oa5%if3%n/p31a%g359vA%30r2a&atttd3F3sdaei%?0cs%_6kb0%d4v%t133xA83gi%oiqC_ahGfT3_%%F959z80'
p26
aS'3%eed3D51awecjd-5r3d6%&ea3ttC3vmv3n8j0pk-om1A%%%7e0mo4Awsuo%wyA6e122o0ohri%moeC788soX3i&4si6e3&Uut?ver%Ap3vF2x%/b%3/3t1YQ%61tde5h3n/s/4s.anawsf9%B59qe/C3h1e%D&m?kb%m3/ciU8en33,3ABcrAeF2&2iAagi1t%n5%ddxD8ge%nid2%333d%%1A3e8Cot2nbewur3&t00bpuo&ds&53%-H0w6aDe2t3bin&icFudse32/TH%%_7cF%320p114v33Fei63d3tDaeDvvQ7xftlhdB%%0aQ&%393?_v772B3BC32r45r363_v8p76h9a73l3s3tubyB/bFd%7wst12Qf061fmZtph1F20TC5%xCm%ddcn099_5e%O3F%2%al1wKChtF%%asqy%302d-3ns03-iC9-s1o-f3C3Thti%6dm;33s103eBw&De2xF%i1sD3Do33-e011Aes0\x7f8%6s2%7rp733tpo1DtDxo%edAp&%e/JC3%daKs%F8fc41a31Us83fA%6wF8&twlu_F4q%2vipr3/'
p27
aS'yh5/3cd13E330w5lvX&hrjtAll%01%%Fu1f/ad%2ms%reaAs/m73hT57tc0obeCbSag6mFdvtl%33iet8%%spi1sCsiAf35pAF3&a5fF3lqd3s3_un4pph3GHe%cnut3p0db6fgtm09B3C0/Aer8oethe?d7-dsmC3ie3T3ai4as?2/3mE7o1si8_5bd0wp33/%d3A00g9acAv1635d3e/i%p3Bjdssoaehfagde3veetpven3g33s&3i932Pcbf12D%xfad%p1raRgt3?t03?x3stAiF3d-rbd3ae%2tpwfh/s/Fa_9Dd7thh4vio%3W0%i5D4stt73rJ%%t%n9th/eFc%hA3Frssr3%%rp%d%3fF3-%fj3os7F%h&iite7aqar1_roafse2%4&FfEnMd3n/2spuh3qoveAiid%5P&3lt/bif8vA23Dt%m&6em2336Kea%s%/vkjFr3sk3V35Z_rjc3RV3%m3/0e37sx3n3AHfC3pCD347VtsotrCe16dFac6iCop3cvtEbtaa73/p4u03tvBe6sdrxlE%Adfp3dAs%&7te0cor16e1/1'
p28
aS'de5eF0y6pc%uppOg74a1f&%1C%%v0gvi%%r%5E%333e3jamY611a3DkB%0l7cte&&&%e0F3m%t59t5_516b%&m-w3g_opCn9j%s9we%48sufDr4n4e2taF37jeep1de?3p3%oo454%1Detos7FAen7u343sFmQtuo%7-lifo3%-0%-s07/vdriazsis0eeiiiD51nx4u83cmas3nJwrjbtho3wDAa/ahailCp&u%iat8%rctai_3F%&s3eiAmocle1niri313/3AF32ahi3b&0ay5obFi3%td3tdtecvhf41%sfhsd/_c0s%Cepqpx8uAig2-3%e_teoF3%Dp5F0uw/n33pc173r3C0B09?TAlD35DxY53tzArb664p/?tvm%pohtmdoipe%3a_3ath3ytA8sv%reedFtb&%3_/50%3zegi7c6ffh3uod1be_nrdwdeosFd%spoad%plh35%3o%_FFu9dt5_&p684v9%373e3tu/%ehd/AAa9s3p%RcgwBC/_tAD%thab/C6.&50C%wh3jw/i34_di313CiK3heu%Zr113iC7e3-cetCt%'
p29
aS'x53vg03323dw0eq4t23sdg3d88%im%js%33w33BrouMi%226/as3aa/3mAC3xtE662es3%A2x1Ae%npF55dRsFcAQ%Aa&1/-c0sAC1e6ac3bvs%sF13%sh3?61rih36lsowRmts3dBe38%thd5wF3M7pit7Y91os1CrdCLie/2u3i3dFir5S1eK8b3ivsef%&SL%C0V-t%tdi24%f6h3u5Br33pwb4i3dur30et%3A0YAtg%6ej6r3FEf18FjAtF0g%ivRAi90342eh%pt71Ro1hH3mC%a-nD3_3dA7rtz13hDU2l6efAn2As%m5Ep9t%t9t9F3A7uts3e1Qv60A993m5A9t3w131L3t_&u0j3Cb68&_a&3w-r%J30ckj%Q%sm3A33s%Bd2l%1drwi5%rreJF1%9apo2s6t-1dbDaFap%u%ph5w&8d%33wgv3t/3t11yvt76iFC2ehhw4620%BE35/a3t1lf&%dhn&1sh%Are37c1xlFtd7bwif/AA3ebj-rmd/t0e8%70u6j1%6ldc3%611/&&GX06:7&?%v3Aa9D3ts3v6%3sp?u03%%'
p30
aS'tB&Zv3Ds3&re&3Aar_F9ra%FJt2eCr0ACs%04F-2et3r13o5dA2333dpx3/v7nw53FFa3x-%nogsA5emka6aC/AAlo33%d1ad_19xoeJ9uv04p_?pA&rtzA0/a43613/Vd&4C0/eh1roF133w&3?h7t075oe3F3D%&a8ihY630%39s%g4&3x883_3g3p%iA31Dr9%06rddD%2eel&10ep3vt0%23&keo3%tt1FeeB3%Fi-0115Do3xgwD32m9FeF8xw%e0oAf%0x4ot/spedJdgai:y3v053_e9e5e6dp%30j4pb33%_A1/t3_oeltfann01fe/a3nfd32g13-3iAe/enst8F%3rx3?6vae3dpop&rA0&cFto%6eh%v3mbp3s3aCkAt3h0/m3%%jf3C%%34e3ldm86d-2Aro33ot%&003AeMiF4bh1id3d0foaom4061stp31ApehsfealBbA%i6p0d3tfxDl3/r3%rr0wA6fpse317e0%3C%%eFsYi0=31tnaAoi8idL2bv77iKi3edfdb%sAmQAtCt3t%s%7q%o5%h5DC_7e5d%m6as%'
p31
aS'/DFWKQrr3Cd15-N_Aj%bi/Fd%edCpjp3B&0Fe%feeSn%0a0t%ta5z043-H%BM4i352w3p943e-Cin3174a%d%dl/vowBT1kRRt3smyaF%%lg%Dtrmh43vp_cAc6Anmoig9s033DtHs64FbrFaVt3At535a436APrt1h3FrbssmdeAFS8%382A/4%afe80wm1t1DAs9%0arauf335jo1-%t1Ap-34%vv&8v30%uy3wsvB2e8c0mmrhFr3A&h31Cx331e41r%/3yQdPsarp3a1o3teic_t74m&3erqa04oi3dii788P0%za1PlAUSt3/&lts1a&pth//ss3oz3%%yCae1A1933heed?dut4oeBd33rne9gmd78%K&s%?/s31Bed3/333%ehS7_33dCru3e4Cs3banrAGxe3Eml3f3%tibCFD9pla/573vgb131kdr3oF1ADj3?hoprbo3trAAi9h0%lxl4sF%GtF3dd%n%Str2%e0?2FmDsjc51g0jg-w50td6paYbf35ttA3%v3tro8%TeG%s%3/r73crEicszDcem3d8w40r08u336i%o%'
p32
aS'30t86uift73Bt3tF7m33333-Fv3cod-f%tm0B33r0eps3DAa&r7DCBtriA1duo9%&0t84fYs%93FAobi53%5b%Ac%iwk3c3b66lDp3Q421T%&ew62/g3eC5%id55ieji1-%3-4pdg%0g:Qb%at0of6%pi0aCaz33S%moh%r%4pe233d%v3ep3o83gE%3Ceodetxi7Cc5dF%sfmr2tFu7dM/em/CsL3WvYe?Fyd1=%d??i%c4g3&0tbpd-33jdfaFAD%%wpr3It?%96rt0rw1l3seg%910q22_t/mr031g33Aa9E/63v%DpU0tjvett5%d3rAFjm18o479?6FF3?k3wtx1q7AE3rhC5H3vft8-4o_tv61_332ejg&32/spc%%%&ldaQo%ef3Vj%v11e3uecg2D-ta%_33s3o2/7D%__!%gtup/m%3lt333pdEwt/s%p%9-y_t%&bl3d%3BiFo&lnDYuc%oAB=11t3i3k6whu/L&eo6%dfee1Fsd6wg/3m_&0Ame31fqs5H&sg4FM3b?%3Cf8953bC5%/%d_pet-ioiJ33%NxpX2sC7gc7t%'
p33
aS'or41_ma39,1=d9Aobs63C%1x5evr8moCop&5isa81tFFtr%p%&epm3q?-7e/e7Ft0g2w%i3A_&FsFxp2lbgz?7%_Rfv1i3Ce2161twF3%bm0%Is3tnv65%3f?Kfw_%AAj&RsFd%CoK5f293elAf3wiDsP%tet/s%F5li%0%=GG0ybrl%B6924kr/oyA0b6a3DAtE1-p%31Fm4i8333t6m3gt%aDoprs2vgFi75c1%lW9%P1ss31fa%D,Vt2Cp&E4So%wnA/3ti/Epaf%w9mA0p13rsm2%CC&au37k7eK%leBdb4aucleF0e&ebpe7hs7i2eCp33Cea%/_p3w7th3D41p131c73FtuReeatoFepU&iadF%w5tfdXCX3U-3C6B5%flgte%v%/yis4AA16030d7%p3b0h5A/1tara%5jd%ex&r37i61ebe2htot37F5%ra%_e3e%-V%quta_%C/5_vWe7313eeac3i0en3d-e63wVQ3aep24p360_/Ar/3lm%t1nvd7weeor%5t383Aix%vb33%_p%3bmA7pe_7m-pFtfjAR140Fr7ip12MF-'
p34
aS'oa4h7Nes,s3aD%I0S7hvstm13ox371he37wmFu/oe%aluseeuABma?23euH6Fh_U0C/31ta1dw/Fl9p/a?3Ai8oDwnfm3AmsDd4A%Xwo3btAddA7po8_vr81ffb3y1p8j_lyn%hFJ2nr833%a1dcadxrkkro6f&3aP50e5s3dh33Fe3mF323ADotn22b/p/x6Ae3w7vi3&5%i3Wi3Tiih3FiAu5d0bv?idBlkF3hA%s9psm4Yp-3r50kstjheo0oIa0%eethtr3i1h4CAcotFtr05rdp&%32MbD72u3h6-fCLiDta/3i9e3uB%st3S1Cbso4v73o3iiewep02asw?9dex03%o337%37amAbW_65hFcm3b?F73g13pme%6poA/GBF8wAj%03ut%u-3it8n7e14te%f/&3Fl1s97p63uno%em7mpde10bF60dF/-FcLt3rv4rBtsfe236p3px3a%5ahebq&3t1uuda63e4a%sir%&iruG_dZni1y9ezCe5r5V033e83nf_tt%j09otB%h?/H2d_DA%m35totB3_et43_-487h?n1tC33C4/%'
p35
aS'etdu%y0diw1CDs8riflt%r3sd60D_c-31&de&F33AEeaDxt0A/v533shcb9_3fT_&Dw/epCpeeUD8Glfre1ght%%aelrd%laQo3yh_A&t9ea%Ap%4_puHmv0BajeCua_dinvCF/03id36r%s76i73P1d33%srjp5t0t3deD2A33&%eg3%14n8eo%3o%%1Fc3Lbe%33e3%A%g%6Cnp994%A8/2BtwQH3r%pr%ojjvtBvFasalA2iti3mCe14%mt53Fe4f8F0%%1%1i-mfe0lphf3MiA34r3Ap3ia01tF%t0F033e3F2fa0s1503dDat%wmmt9td%ha/52%tG-A3eb38A3q1p3tD4e71t2%dh%iwj3t586d3%93AohBD3hiFF6CCn/%3tijo1K6p5p?1&ieavlwS%fgk3omn%5ed3e6F/%pQ%pr%h&L7ttb%X0oel7M0%Ft_ebpfV31r8tte6matg3pa1d/-G7?v4&ruCtie%jfCffA52se3f4g%i%d9ih3ofv-/3dha3pm2/rYoEwi30%1i%nt4emAo/aavZ4Fe39A310fn5Fm7it&1dIi%'
p36
aS'9436a%i3031aVwn9mp82%mre3gAsbtibst%3v.wInvED3ciFeloBDm/e-/%A433ngi&R34N3//1A3i-tlph%thpACF%i33p3ws&k%3h6DHwwg%%/Dn2s02x3dm1fta7a5mfah3e1-3Fw_%udt6el33%2w%Fch4ddPei%h%2s3os%bw33%dpos7d]13io6%dC%&ia65Q3gbu71w99&O1s8&o44j0%3%0/g?A72sta%I3%3%Er888q%6S3t%&3xCh%ta442dc0jnrami303pH%8D3/%d4%udd3/0rkF35w0e430xe5332i4CiMeC%Btd5o.Lo2sRp,3y3y0MHma/qihdwA63h9hs%3b%5%7/rutsCatuTpNFUxm8Sp3v0v5331Hz6er5DB?e52B2OCi2s%am%ked%mr6ib1d3r0effB913qakds815htr&Bm3l3k30%%udDit7emwCiCer1%/ei3%%%rd35e3100i3a1%33A%&D4tFuo15d_xfap3%thRG%coi/y-4302ehx%toix-vCgad0eilh%D,D37Kite0p&AvC3f7dFf3gb%F8e%y&'
p37
aS'6erox-f3_3A1AF5ewp162ea%3.0sF50dda3mvF2itB&o93RregeF_dp3Ctg4u%ma-Ld_sm5rh3td_cei3%FB3%ea0wB1usblbn3%e7k3/&t/%mo3388d%koh1uj1%Fep6t0_0u-v38%5?t3d613l7tp%e%Bs1wu38k_taigi%m3tLee43t7-i%u9inaa0rd&W1pCi1%gd153aA03p6d&?a7a3t31ce3d3meAf%T=%opbtge0ds4d17%G41%3sp0oapFMerl0%tv/3Fe%e_fndgFhstC-/-/g/2iCiKf3_1a33d0rDeuattkopvopnsw&-a0inmalb3vw6hrist%01DFFo3%&%kdN7%e9c893ArvFdp-tite&&F3a5sCyot5mD40f3o6%ltA8il33pv?ar6tF3dtCm%p30ne9h3kj3si1t1lie%eFyoC8OA3t%F89prltgyakmc3pa1jlp5up2F%ejdv&k%%rd53r__sFC3b3hiao2i%lDQTeCxt1mrvfs8ad31Fs4?e7safia23dm2Fdiy%3-%eaf&3.KsSottd1ACeB%?feFsD/71Fd2/'
p38
aS's6e=d3FbDf0LA&3i0cv9cmrac%fpaC1fi_3%pk01%/vb%Feaf&_ls0Ap3oDFv64gA8%Qoah7d3%euB-69/w0ur&hv3b%33w8Cbm5%3Dsedmp31fneyedL8n?ptf%miCs3T%ia%00b3tsm%4u&ifpsHpFtBg%A13r10oi%ildn0thn6b3Fi6Za2%Ew2/0CPB93vFfCSF95su2xeap46&f%%yh-E-Almp32b37s63lvw57ht6go/&e%3e3tmta--7dld23Cs3Rtat33Bo%370nns/Ae/o6p_E8vo8s&02pp7N&5bmqhhm3eodFg1ve6w6s3NdG8h%e%ug02dt33&nst%ipp1E31th10h11_C3cmbn-t%e?b3%4388&0&&rE4l3n0%ph/3rs%2Ct3esywpfTip37pp%iDd34%ll83%l37P%2m%%mF/%3aAfw3t6i3aos5d&/1F1303-ne/e37dt3L3um5ntWe3sajv7oj1pi3G&%tt0adA-rByPz3Anr1FAs89siAvaatpu/vr3tr71a3o&ftnx37dhE0GA%%weFh99/r&eaAnf%A/57AtH61'
p39
aS'4r5D3v3Y9ob_a5&B3&wrtQ6eeh08733Thv633iC009ad6M/wDaFA1Codd%/i13/36-iom%p3-er%3D30ft2S%jsm/3eeXd6te3?n3t/ts2&es5eJxB4%5p&e4o7ee30.pd8s3e5f3t8t//4rs1l=333w7toifyo%mhamm6&p%_-uTl%ssumh0%9rFaZp1m8iil00in?%ct9-lmA/6q0F991jrFCAeN%vJ1o608W6/3C3e343N30A13dgpds17en-Aw/Hegiadm%6Ah6oGad9a3%cQuTY?e3eo384o1p%31%FAtct%wvxD33btHknc6/tomegfM9CF8srk%reypt23w%del3D/c&dAo/1%E3adl?dmed/F0%wd130C%3d0tiTc1Dkmo4.rD%/R0nleoCv%733is/0-sIC1k-d1dx15am-71s%117s0tr8sAnClm3ee3ae1xMd9i53s--4d6Ci3%R25s7r63eABhso36C7viep8&bp0Di2%rm8b333-1v4yor-3%or3&a377%t1Af0twF13FFhe3e%sFl3dsts5ui3vDtCeF360m/1p/Am91'
p40
aS'5Moso%QgLm%0/.d30%E3&7tC9hipFH4RoH7d8ar%w%c7iy3J3r3j&/81v&33tvcf21tciC21pwujrcm&h/M9%U2a&Dmdgabo0t030lab87443087ah3Ri0_t0sndbw33se=2212hes8aebF85neau%tbtxi/hktopd2T/5w69a-%pd3tC13iPauo53a3dF%&8%whaAo=ind6uh0bgn30or6a/ts%r63c307C%-u68r1N%t37uil312ishw2&eF33a51ihsG%esaQA3ml/nFw6mruYoCes&p4Fef%1cErCAAMFe492u8ng/-12e3CFtw30icda1d&-0ao%32lr0%iiodv7%td&3_Zo-F23e9eFA385oh6/iuCtANDe1zBt1ecdFseAAp&4%%h%30u5%AFisAABe19xAA%v%h%05b5t31ut33wbtsp_83uymd2%xb3%dpw-4-%xsF%bi0k&ohAF4m9Fj4%emsos&30brrt0tLk9%J/us345r3aeib-D3e3n49?eS3atvF2lw%dsEA2i37%mHFp10rva-/0af3twfe3uFs%_-cseFtCiga&3&'
p41
aS'HsEoA_ur44-0tCgewthvi&-%%dl9v3h3mmiFh8ta33jt9lnc38Br_a8e%ee7l8ospDsAet7o53au0f3c%hdm3eb/3%39_rntodadd&8-dy3&p3v113abmC1FVd5e9Fud3dvpu%e79t%bS&9d0h3v88u0t0r1383%F13&idbF1%33nC6uG3t3yh%wiF/&r3&3EsAo%%obccw8tlm3few90F1%e233b4_2v&o1%v20pqaA31-3C2gsxY3%f7h.p%23MenAa%rx8JlWApD3wl2Adt&12sAj1eos%9mwour/3f0Fc1%ms/373u%v%C07oeAsr%re%o13i92les0W%hOaAav3309ib3HA3o9K-swwm4bb%HemKu3/81r/b3p%r%hd33sCat&4okmpme1p5amu_D-eo_liemg3t3-k8/9/7s/C43k0ai39w333h&?&d3nt9339de_dbce%33hnp,HDo3%82r32&%sBee3CdtDyeb033dshdbjcee?58h9wse33o/383te8C33mH70.hdv1A%tCFf/%Tva4Cm6oii3i-7vubmg%rE0t75ALt4-Ck%'
p42
aS'g3v3bt/3%triwDr3tD/10sH&x%%i3srtotTFDxs%1deQsvdsrpvw53ntFGe5e0aA7s1&QwhbFt3n210u1wtl4sfQc/Aom%&%krs3%00d67%8t3w2ja%tftc3yiM%d%v%&7%Cv1ns53ww&dsjc%2p2AoIw3Ffrwdohb&&sa%%vdsCs6t%_Z21c%oAv2ieu&%70F-%8du3tdL3e32r4gifJ/u/p%DoteoX5ett%3iT/3t/37d2aF3t%dwr%37ajpiAv1r/ssF%p%etedH9336koaeT%/30Z%lr%iv3%et2ti310F03&ea%b17oxbARm%3ef-/dr342%l3q/337dyvLaa3%33%ei&d37%3%JfdsbmFA0&33%a-&Caamx3FK2rh35%bbb33pt41jYnCa6OlkgniF33kedmts0j_s-oaFvet9v%CFfmoC5cw1H-%5b8F/aesVeB%3%%Ir3gq33pmadl:d0%380b39ev-Fx1ie243s0t1r_b36&3hl33tdC3n%eoSt8sofnB%W7i3%%&%d8amCeew01riQsA_a2acRegw&grD3Fmi3333jXdRDs-'
p43
aS'5p34ly3dfc:sqt%3Baf5dF&7Vr6Du1SbFEoFpD&apba3Ai2x1tdu:.u-/i09ebt6v5db9%es%rAt000D7%3mr3d3fv%5tS4/33kHsi%3ntpfF3vsCdeiBmE%lt%sF3EDm%Ag?m064d&R&cr2&os/3o3i%stGm5B3eCA%tasum0p%3/A3%F%Attrm2itnk1oi7J0xCd&1EFt0weE376SdDDH-3ieibF8mt-9vma3o5la%tdBeEtfd72sa&By9411229dj4ke3ux3vp%Jxi0d35Z35f2&r%9%63/Cpd/4&px3pubd3htpvtsTeCe03_D/39msi/rs/1je&d3evermmhFw0poddUwmve3si59itas1ttw/dvF5tsonts,19eaopg0%Aard6_uvmt/9rI&Cc_F3s%susrFA3aoax3u3dtt3ddATeg0ae2e6C_tC3t09J3t3a1p3d%f/t%3b1eiirDnw7&16e%D/ttP%kp6xlvf3-3%%paah3&ese5-&3h6n1st95r%dFpavo4Ydn%s3e106eP3oh3Gmulc3nte43gDI5m43FsidUso33FFi3A2'
p44
aS'_=3y9e01AF%%6tAw%3F3p%irpC3aha33tt3k3m53Rpe113je3N08_nAe39%r1/x0_3lv%%c3qsVtwfeLtsm0odCeeo3d4_CtFn16b4_i6e%e7scaCiAZ%i83%uu10%e3/9nttrs%00e4SF3o_32vs0ip_i%2BEeC3/a7a?oddm_9l-u%wcFe2_yvF0ee3da3p/Af9fg7enlJaC3fjoD/9Aeaw%68CC2deun3iiF633%3%&%jue523TZsr?rb_0eBm2nC30Ul%%f_3C/1o%3_%PeFo=eu3MD5B7eltc%n%mg&Qv3G%%sd5f3%f%_%%lfmp0i8%ipQ/u%F?15a%otcgD1&d8al121i50e13v3vBx%geg3gotiY3utiL0Af4aC%_o3F8%a&e1idie%9vig%te%i8eCp7e/B%Fv3depdCgb%gegpdese6%%3pA36/b%1%r7eFbAffY_p30iY61ew-3et%64t3eco%oooT=p4?_0D6e%we/oxL8%Ct3p19fAo1i1k3tdhs0Cdp7dytW&uC%du0i3-eyGe0e=7h0d3vl5F3/serwAtdy273d83/%'
p45
aS'31%F=3c3i1u3rDnF{1B3idd3iCs3/dnRt1&/1%bi&10g5ra1nie/CEpfe/o5e2/35e4F5bt&%tub/sgheA%RCA%31ds3%?v7]a9g0%no0r1t0di3E[pD30Ce%H6gpFt8i&t_%&f6%p2C1Sc%R-U3p%Fose/hiFCeg&aStox3-0mte-8pPgIU733s8i117Fy3CAeiNgU3cmhpx3FDeFArjvze?pGciZ3d3B3F3d46ya%mE31gi0tiv?33uuerAdad%mlFrx8/1l3u-p09td9m15%53Fs1nAYt05e&lFwot35lFx%29%%ppoj71?Ol3obDe4u2o5far1a/3A%03mvtj2db%e%9%e5nVe?ttx13%ae3c2eg/t7ms%i%vipoyept0hb1rvebmebd%J4f%%9hPBiee73d1A101ti753bdFy33Cadl00K1an3%ir80oe36BAudoll&M%mOte,sedv?Atio23Aoe7_%mIcl19dGE3%087okFDg331&3C%3Defe%32a9/113jAAQeEtnm-%n4p4H1A9ler-&%F9-oFshuLns2&i35spx&7%BFiC32%'
p46
aS'i_%Erma_/%ow3a4L8ClDQ2c%%l3?&f20m20i70x0m1D0=33ehaei/-%3v8v53A0Fst3DCs137pre0j%0c%AdeewR35piA%%o/&red3F|0FCwd%8u_&3ArwvBFoo5e8%%iApub74dm3-pd0C8tah3w9AoFpi334dc90T7pb4F3ip38%1a&_3i/tp%41t3plAW5o3tA3s133zt%8F533Ao%foresUe%wb5c3%na2C3tD%1A3s3/21sFeFn&sk8rmee%lrc1rDerz2jc1/uoic%a3vp5%-t&hfEottd4/33nh7tocttFrD3913iBixe050tA%3%So3/n3&&stfeoa3siXr1o/B1/%%Ca%A?_F3CAi3io%_oTa%uim%-8ie3Ce03d11AGfo8t89A3_pat%Fo2sewoem3-a%3jrecY33uGC4-p5%=0P3rtgnhN6i335wbs67u41F3n1a7e3yhfau%iF33pa3%41tm34r&cv9Kon323tFcie3Q5%37Csl3D10lr%4/aeC6d31pbmtw3/k/c%_o3&uathti0&o1tD3%34%tF%59h1a1Gk/iFtpC%0'
p47
aS'4K-83ne3tu6svlFi07%4e%6m&Co3r1D6dg0N3/3hFnd%34uoa%%-2pU3fe139e4eh85is?r2fp83_e8Ossl%4gamUevoytF9sD1DF5A4aeds3Ha3ipeer3A130s%eAluAF3A4soe3mgA9__C&&rEtb0&_3af4eavu3sp2_/3%u3eot03C%od33D0FrB%t%e%blpsx4hG3GC83%Fr_F3D%p-8l%C%s31-3%095Feta3p3te7Qo5ntPoe104eCsb_tIihE4%384h8i&5st4?m2cabfb20mwerdp3ve/Ad3sB%33%ks3A2%B1l9t3539ft%&p7nCrl%ffr4pi/&bm/131&o85aaWue%3hsr31F05v&8taaeo%_ae85miheAa&t5d3Dthi0tg33t0F9s2tcg%4pF1dA%BOa/Cp1t1w%5e35t0r3izA/qANd&4LAa33s%r6eun1pga3tr%%y30yr%6r33Cfp%%vmt48i9FhoN6-h/7-Fd9_t3%/rCeaFDogri7cf?4C/Ce_9Al333ii60L5oat_5342rl03A7&%l4a238drhoet2hC3:r-iCts%'
p48
aS'Cx&t/btEA713%bthl2a15HsAao5DB33&r%GJu%2avFQyx33Dt54ae-81%tmV%,p%4ai0076iA%/b8DswCe16FC3pm1ar0tk3lo3-T8A034m8baedt3ub3e%ifF%d6h3%34%t7elCp1%t07helEse4e7e338?j8t7Fangs%l33hwwca/%p/d93%u%0&SWD7ie%f/aUsDbvH33rdB&A3bz0br3_eSM3d&t16aF3y%idw?D1A31Cl/1dp3o3sGt037stpye%asi%l6ioeV_s_gA0dF%/yrO3ma&FIh9s39033w&3bt333%8nmf2/Br3ko%0t5x9c013&1gi/a3atw0AFa4x83trbFA-1nb7to31r3mJ_Q2te93h35p3ebAB%1e8aftg3jt%jAlowb2%%&oMl03/dA0EfoF&CkRtcxs76yr%31ptDe2e825ifrA03d%51iCFi5e57p&Zt-2ewtMm1t8uF%&h3EtsiD5aT3wnA0gATEoo%Gf73dA%3s3ws0%Wai36aTiFst/%mafClsNp93k3t/ceieeB4HAdv63r-A3k3d8%C/63do2Azb630/'
p49
aS'4uees&0o1Y9%%h43a5oiDec0rueBstp13trosf16%-e3EexFs6_s_ttF1%a%uo3cF0AsLb4evn2a5iC%d%ani%7HbdFs1C%j4w9aFa.tdi5Nf%vhumusAfmBp0fiet%iUZ3vdhdtF%F0_1V%A0t-e%_/0x9bpdp%-3i0tPsX%0QeC8NgFA10%_gi8toFv38aletiup0/L5iolFaf%3qiF3btt/d5px/bitdi34eApx/0ah1s%64d5?d4tap_H3fC5tptB3ubr4Moerd91jF%ssoipgaijl33Wc75mdad%s3dri6%B3dmh33aj34c3%3u%&edkElNemAe2B3r/HA%P3niv5f743tvx7i1xt3h%3Betm311t57&66&pht13t18C3pCmwpB?4mw31e252?7ewCR%3O3kjdprtwd%&5s33g3106437%?b/%3d3u-8kCueE8X3BX88rht330t2%60rfS2%j93e-3p31s%%d?ja5b5%eC8o0AgFC%6d7ip32kb%pr303uAfv0ph3%toBsD&A6tt:/e&e73/dqhrq4d/jv1jnF-Ax3_Bb4319hd3%'
p50
aS'4ox/rh1nAf%i3A%3Flri%tnd0rC3%9ta3Q/mveG3vwipoJ2mrmhF/dC3130dFH&nh1tdo3%queteymm01-o%l1H_sneH%i0GpduA_Cu2e/De70%sA2D1c&oGTg35s233pfm3%&0e&e63a96%0ehdh2dteuoAb3aMEKd4iAete43&cdCnutAa_7F33&eC&3F%8eCr%/16w1%s_F7beeoytp%C/%tA%ebd1-0ipu_sa6X6airept33--d&/3kn13esoppdo31%zBvhtA3oap1ih3RoeBa%34Fnt4Da%oa31-33%%r_i03Bt9A1t%2F8A1-03Kb3v3o0gf46F3ftdVth7k%60hyAueAs/7_33F_A6sC%tg3d/FD_xF/b6tCr632ofhnk35u63sb1%3%m33oHauoerHtb0as33sF%7ed3d&jHD3ooC4ts0-%4Fnm10%e6%3rkospemy3oig332AtC713_%0vpvitvcv6cC-3aiFxgjl9dCat35/6mom03ds_ewe8s9bYieey&M%p0Eos3sTsl27H8%%sdk3%stYHe6y?10w4pa%N-f3rvoCAv%'
p51
aS'M3-Ato560i,o3:C57lotwns%etn%,%3im3cKt3c5s3/B365t3Jseap0wC33Bp2ersFll70midmantcZx35%jfle0e378i0uae2R0_awi6t%aiem3%gZ91pa0/3txe-h%h3h8e0h33HR1a0C/h2r306rdau6?mS3dlddlFFCF3m4y13/k1L%ti%rK3amoT4&%o2r23oheFek353enm0taF7aiib6%i7Lfjfa,teAdbi3Jld%%W-ew%saamQFfqC1W-tu/F%%s3H30vw3_lper3r00tyo%h1gn1tif43e1363Fd8l3/CidR30Ft3F9dts73ueT2%u3Bov33t3A&FcA%4343pvc38f0%op6f6%e8%am4a03Es%i82O/3xs%t3hB300v/a/ae6%%F3evst79b0%/v%x5/AsaN9F%&j262/-7%1be4phiBt/x8Ao0l%/C0vDu1HaeCvm/MmZ6d2T0tEejW43%o1aet55t-ahvEtg1Fv4F02aH9de&8sd%%0F3ce8r133%2exdasjd1aeD3BMi4i4p%pormtv5ZuAuso7441gp/d_3i3LHp01ui%'
p52
aS'ecg3Ft2e1beWC6X4o%tAFtewdA3CDW3a%1d1/oh%%einyario5N7?O4F1-YtNJl-404ca3A03/&b62s3pc3%%6FN3gsa3/sxdj1%a0we0f3i53duF%o0nmaCdf%enJ%&gj0f3thv7o2_7b3mn95&t383iaE3A4A&SF34tmA34%,l&05a13Cv80a%03i7Fw8b%HyXaricCT7%riri3iFC2p50vF%%f4ved1Cu-dt/nmal3p5iotpb07o1veb2u3cxCC9p5em&otbA3%Y%2?eaaDiYaeZpwz-t4i9idul0_3i3tt024i3_&%r5tAd0/mpEs3%noZpxut1F4b%_333He4%33gDtCF%t4l8t3t%3F3r4jre1Pmf/3rdFw%ouoLy5&3uoCl30ds%&b&85Bo%b%8tA1til.dea3dp/mw714evchel8y3b3tM1wbiw04Aee-escn%m06B63e%n%%7q&3i241tpi%%?tw7pC3phCii2Nih66A2sm&3oqm4_wpttc9tt1A3i8f%-53Ae3erQ9w/rDce33m%/ie6C3eB64t3rt08A1339%oa3no8359-'
p53
aS'EMtvev%elpN%-7oaoAf1C6ts%s2lff6cwb13hx0%mekc30eAutxu%Rxw26S4L2D3_Bu36o9?3w5o0tgwR%j/31aNRn1stA5Aui4uoF3%Ye/iCebwbflsu%il%&wcgn33&0e%ltt31tim003dt3&33t9_sF0bhCCtE/%Fde_eA%aeF1hD0Adwiaek/6b9siepeE2?34o%dF4tbr6C3fvgD%r&c8tFdaes3i5rc3dtcteEx56_af9dpp%d483FTa-7%ps65c3t%m%ued&hCDA30ur1ee3b%3Aa%e9%zedi3kgvoKousv3CwY45podF31317wnfzCvCo3f3aS33%3v35u39x5wf1t3%e828r6%oT2sisir1F/4c33i3lmA2zr89R0K8s1yo&q&F1d%i21e4&%5%w/53=axroio7949A1t/4rxC&%rp/9p90otdC?wf%wuAoe1-bp%v6/1%%8_6%3d%ot33do8AV%6e4sCqpeB4_sjF3%i3Rde%033ovp3w%v/8ss36Do123t75%:poh83%E361di3mwC20hpa8Uds3_PZa/Fsawl?3g3e%h51'
p54
aS'1jkgj9%D1tZeFf7&aopf89bil0A53%rt7%py3s4i061ae%dA5rtl%o0Fsblm%336vD7tDo8403-btea%%235Af%/OF848cud33nmtsm%htFohure&0Feprav%5Hxke39_%aG30og%DC1ddyi174d/s33oeqe_%h1f0pFJrMuej3cf?cve7/g&k-C5uq%30F7rohe7peA-t323s4ioV7%iZe_%ladD3uestatm86i%l4-oB9J8/peasreMe5ts3ebDw_139dCsC%amF23pN0%T23p2ea0tbi3_%gs5w_l%0FAm22u0%8%%9Fa2x0309De1sst72sd%f3h%mtis2se%aCpAAB7f1%i48lr3J?xTu%s4it8gFt2t8%fC7%ie%AdeA%o83h/vtb%epoZftpbogeee2mf3G4ou6p6%e1%F3o9aswXt3BghQ5dD_v32%4E%r3-a4b1e3177y-:%6n%cC/y2?_36vmMoF%ttAl?3-F1ty76-omrA3F1Zvb%iHe-BC2Q3itC31%f%10bs-1o4%ga%x56n0m/as%Cvr%eFs03l-s%kCi2764rarr-l%'
p55
aS's%b%3tlTUw0%xA8eC3%3tvBwmpC3/dg362j_tC30%idia7%938&x%i%hqhLrw%%1dho%%deap7w23h_l5ktt&l3yl%h5sFBdMh-36ooi%v5r_r%&43sBx%i3st5%te1taC1gtg%SkQ0a5o?2%7v9uF%xu3B3Dl0ryo&3s0i_dAi13t3v3F2FEpsC/i5Di%rdJbtkHet-&%&apsw6px4d34l9eRgcop/0r534pvHd389iAd3e3AsAc5%no9ua&xYe7egkhye%Ht3&d33dCoe4umr%7Al3D4/B%waa4d3Ks&edhpdtC72&uao30_&/i%cEl%a7wg3aBit75%%m2ti6t19ps0Ai/-%A&it%7d9A=33e23A4p74cc603ab4A/ce8srere5MTAs1/em3d%%0pT%4&v0A3tdhFL3%C&4rhnv3%0v?i5ovf3dAnc39%8tLa5aj3d?BU8ves10-Ca/m3oe3wiit9%5hwpBMFC&6eeDc33HT%3Fo%1&efCuoKH%3%eo1/2%d/B1Do%amhBTCc0_Y13sy-6CwtraetO%330rp3-%cs%1103Ctft3nri%'
p56
aS'l33siitR3cFfRHk-o%Atu3-20z-g1vBfAJliE%3sl8_1tet-6t%yn/9dhid%%9%ne&em%t3mAa3r3e/800_dF3sksaFq%7nkAf8a8hot5Ku%QFlI1t8m3%oDdptA1s0o33wmc/_l3A9%1-iwU1dl%n3r11t5-s%opo1t%eya/40mt3330va1tCDp0?0o273aF8ao3%uA%_7gsaD&As2&43-/2eF-3hovt/n%a1l7%sm1m1mv-cRjkcW%H3h_3g&4wlo?cowl1pkgdmi%13Hx9C0ptrewp4w50Fcyb1kqsorAddC0h&idDpot2d63jo3W431/8F14tpAtsT8a%cEWd85Tn//Xka2jAH3ioAD3rF3zs/&3%e0&mt6t/0t612l743apj1%8th3Yt35d3k-8%C%:G/4dpursLF%ro3/?W33p1theai3CP8t13dF/1yel3-ea2/3310pAd5et%Fs35eD%3sthx3d%Woly4%7howd9cv/htFhtroQowvXe2F35%na70p%&%Da13t05sFpcoDaasw%0pa3162apbrAeusU3ae4e%pChg3n%imd43%'
p57
aS'3kgiACxp3ea2atie%3%&v&3imtttosF1swh17eptC%Gl1Ka3lr3%s-C33CC%0fpRuFd31c%8tArf3f13%%Az5%3/%aere0?Ldw3%etwwe6/W-33d1-%zlasi7Fe0/g%h:&t3%3e/?ttm2od3f3wYduj1o&Lr%0a5viUejs6io%A/?0AAESs2uria3e&sheFxt3o6c62%6i38u&vr4sgotd9ib-3skbio%FAhu/3O91s54sG-3io3x343m_3eIA5&fArvet354ahkcllt/6r%&y%Jcpfr-i43e3e03Fj&1yo%A3jwgw%3gRr0i&14F/1C3v6loFt9&tFgf3dEF03%ay307thCb0rree0F=P%tx9h2pi3utv3iohiseb13/112.Dte663%hXCe/_v&y36af%02to3eF%9a323m/fs21vEwBtwAuxo&iFt%%3330s1st3dFBmje?AweAeAihtst/79A%e/__977fi%af1wngBnc3jj0tHCtvC1%uo%87vfjT0%xmnte%J1rnwjBD3/lW1ohF,iQ%&gw_nss&0aFe7v3ruFFoCu3F03p3iivm%'
p58
aS'%730mK1d&13A0ifdx70-cfpuo1C%i4i38pdFweF/A%Ck9Fee5FpL6?5yChm3Dg31r10vep2CsmA3=h3E8a%L9_6&FA75%pwC01N27m&_6C63b73iJ3CB3cip48tv31ZF&oCr33s6jtjt%teh1t515FC1Bi943K2/3%lNh1pt3hi3M8/7r%33p3dA/zbaCr5v%83_Aa1/b-Ap3pkFea6rb%/%xcpm003Aco-0hC/57Hd?s7p332%15taehagd8oAA_itEep_i&7C%1?5pdAadd8g%&s0ro33oBg3%en&Cw34b20H9DA36=/7%gaEe20s6f3pbsA33g7tD3r3stC3if27ophf_313%c-Ul2o/t2Gs01s_t36/3o3%2t23rr%u3iorvv6x4_eYh3alm-d3%xD%7jw%lBj&fApY-F33?91do0r%1se0DeX56m&Ci%3ke3n_33iF1bn5mhA9f0d_5Go3vsu3brra00sf%trCArd%eF1S50831n3/u3ego333htnCv%34Ars3d.97HCn3A%3-er%vna3Qf7CoJ3176t3Aaia%a%e3u3hWA_p/590'
p59
aS'5Ep/Ed3iC3_et1IFCs_C23WaiFm3t0a%1823uo43Aap00a6u9Y3C3456ss33i74qmpBptuaFl1ad8T4%73vtm3eexx003mvRD6Ctp0F05BBosC1futb3%mYevbwdiC5a03miAFSFt3vBdir-F-te_iCx-0te3i&o7ejt3et0x37fssdegP4Aud72192=2%h8%%3A4AaACa8/fewtiDg34Cvd\\/fo5%/d-mhIsezAka%%bs31Fr/-CplbQAd5fu%0W3?_w&J%k7bCmBg3Ae%7pj-a%Hoe3a/%tvn%j%_13r1335ft%fn3iacgNAamng5s3pd3d9dd&otHgd5ui&u%%s_2Qpo95saMn%x_2rLlea00jttxCu%2t434&f11w31-&7as:r&AeepX9ue3Ftv3_0hw7to%p8b/%5%03dze%94iCoc%F53S0Ev03m0dm3F05ifiXbm-mwp&ft1%44tgD0oe1ms2&3CL3mAe0r3%%3e2ANtH29%381/bht1833pfm6u3mtnF52bjN0%53eti33e%h8dr5m70sr0A13%i36h%0&-tc2iba2thUts0%1'
p60
aS'FB4O3%8mFme%%m5D/9vsC1Mw5en3rMrdctb-/%_06rC7t3dag23u303f1t0c3p3a9H31d0F_0Fa3/F/3v8iutMa%a6EeoFi15ejbaFu3%31?Cgo33BS2ec%eN%B9a39dhlAeCm0oerd3bds3&3AysEh3oeA%%63BeE%330_uf3t7a8he3F1%bD3sF0sAtHod-A0&ohs5s3&o562lth0X%Mlycs6t3tdu69tpebd2o3ddiD%9F13xdlCht6A&v10e0ie%73%sa%Fhv/6tz/s39Q3ji3/%AHrcepr%&07ntEA4wFAA33%%lF3Ao/v1tCm5gu2t%Dmjn4jFf30u60%gof7Qeosr6trr3-saDkaa?2_MrC6p-d9iyw03s37fsn2tA1wpit5B36a9vFA1k%a%0fd7%u%me-9lt5c33A%mit&a-lgoFidvFdisl/B6?dsse2d3%h4rv9%731rm3%_d%04he03h35h94s3c78a3-47o4_x33b3dtr0r6%d3ie%FF207b1h3we2830ipx0ynCm%re6fvR%ob8w%adpit0%1jrrasi143ad8utbw73%'
p61
aS'%emrn12mur3?m%o&esv%%38ABpoDv3ue&u-waf33pj%m%e1br3%%%g19%33Ap%sce5d%0eb3d3hwebd1%1pnEd/11eDet6e-1s2p3pnJws%8t&e5/&o3%rAwDn63toGNb0%43t3sA3Amie0tsi%/x2o3BF%Nx3nmH_-tsp27eauGecA3pe91440p643e25a%nD/vAd-Pr0tl40H837eh3od/ro3tvFt0fp3ulcw3cul_txE&6t%%3093&ejsmehskapti_&M6t34%F%t3dcut/E31fd3tr_&3iAdre5r%/eup%t0Pb3%5alzpC260G8pgx3be%Dp6a5/3Cec]%btdis%3rFv%pcbpw33vMe&nr1bl8Af5%e3tWAC%j33WsU3%opsnhdF1973i7-2d%ba7j9DB%3d%xoar61rVveC8e7ht-6tb%EF3fduslDu2weYo933seA%w7e0n7p1d43u5a0H-%1AC3%fe00m7Qasa%32%IeFCm1a7-eAshoubaeA23sDm%Ksr4tAFo3uCaHerdTCh3%CbCjotl3s_53imr5tb0U5%ieb25jhcoi%%&'
p62
aS't5g/R3rn/d3%Ftgtur&1ibpn43omD8o&aT3me&rjet=4Dh05phD3k%61E42uo%%as3T6eui%Ffla3c/oepaeg3d376Ah%gs7%e_bdeto3etw3tJ6f%/1po6AdYl%4sAaD%xa-%ht_2o2SloDr3?Cshg?pw51ad%/635oxkpuee3%t1io2_fXwi63%hrg5s1szFd6%%b2pciifd/a3lH33A05h4acs3el-e3t%7w50D1m3t&FKunA/u5r2Dispdd%Fryit3%lse3u30dDtAv_Ause0Qt3:C3r930PX38AebtkkE406t3eFS3e17Jk9&ieaj7%gi441rH%%_M13333edlenu_11qd3/kuebDxFF5x3isf7tobamptekc%mCae1i0lp1vDe0h94dimM/08Wfr&fps1Krpuwu_a0236dchetwo6Aa1%w8r8%^3dsB00woka4t1%433Kot9dF1e%13mdbY1/%_F%ehsbo%F3w3ereBe3%7373eAg3npsr-0f/0%Uto1s13Eie3?ri3s_id_cfdDohc33A1isu8VfcuoCauhF/uld%%b40Ao%b9%'
p63
aS'B4AphiT0_axx3t[03t3sg-d1F_3h?ut12uv5Cn&t3eu%%pscepetF-3v%323mgL&9Tuj3ol9dN3ep3S5%%d5%3a%ts=b3tlvArm-52t0%?%/At83B-&r0ot3%6Zd3ahp0&4g3awctdeXeA%f96/%s&u1A2io%/A7d6360rJt%13nea&patv4oVFAu2d%y04v%0ap/3e%g3t10f733Jsb8%u3AAad&reui3drmi9l%CssaA-%4v2Cs%&kH3atee3jFFt3wd30dvoie%mArennl1fecR%53td03iC9&tr37esppicMQD%1ur7%3D03oh56m3wwipmFBteu3&58eeejfgHCoBb%6&x38fflpa4fH1&1pC4Le_n2N0gezFaeidgcoBt0%39rwtgm3s%Zd_3g9r31B=s&1se2p0z0si3ebtd10eeC33A33had08K1fo8eBb8135%9m1%57u0r_rtmoA3h%jBs8Cm_dt1hYntlHr4p%%4A5dsnlf/0o2Bu%pirt3Egee1Edxb%8tta%a0sd3CtlB-2N3ii&%C93e2lFn=7sLm11tdvix%F!37-3-'
p64
aS'3fvk/61x0-lS24%&d3Utjdytcs%3i3O8d-%vs1/etur/3%w2des-irBf/3n%D3er%&0ap3_%ps3hyn21taeu6ckieD1_w9Nrat3dd33%3hrd86gFobtbh35%%fv0/_b1ddf13%ts3t3D0n%n82oFd1lp4o%t0sm9F3a3s_s7Fd3ilmv64daFd4tlre3FBaw0H333&64ra20223b0x83vh/a3r16t3/dbs_/-gset9wAetwmwG8auB&3G2luAv135PAf3367vg0E_lDp5pt23iM3j1993D6dw_Ai7dpRa%daCyEArAt%rXF%%t%v&%diu3%m037%xXiDo8nAxa5Ate&0a%1-%llilp0Cu01tbF7C34m0Fyepp%drnCp7psehk15_&-bod38eeobYD3s8p/lww9F_wx3Ed35F_s6o%%d2mXF/s%%6_t%-xorhw&xF3ab70df%3%8p%or%ibsrebt-rp%-43330UBdht%ae&zx=wg3pin3p4im%oi0pe37TFaph37%hse%isdmlurAeyCd/pl325hFQwcF9v?uU5%3p7ib7E37gp7Ser2x9C0'
p65
aS'33eroaxep%&vpoA3n1ba_78b%4%313kahwi?01i1vuxj0fe%hi4s%da%%%20xshe0hl13ie&73gdn3t473rwualF14=ecb0/m8e6-%935e_3ediv-F%n3wg0%83a3%f93pfvSpajGs%w%A3-343l/%2%ifrn2s3A40ee3jtatao93uvabf4p4hA?6t3smsmjsFdF%-F8zi%l33/ap2sb-bmbrauwa&j1%/o%0hs3e0q&53oiieQ5so35vD57om43_3eB18sb5&rBi&ed6%xwv166jngafao%%H63s11daod4s0boAa2ne627toh0ipC03a49g_FDgB=j5%6lEh%/5sd%%A69DV3trd3kmwwbgc51D%oC%smy&&4dpibe/edBsXa5r9/%h3_D%dmdn88nt&3a193QA%At3p%moadCnr9Ot-3C3_jj0,1i3m%52Q&bx%e7tftnuci03n8fnDa%oeaj%0P33C3tid14306tg_%dja%oFl%ibaas03i3A60007AeptH30ecF_3_irps0i7m39e3/bm001d6bwn3s7dsCaeod%ik-A%3d/3eiq-'
p66
aS'/Xd%w/%RI7pFjR3LlxCpYxGd_/7-9!m3ufaEl7ioFR%Apd0nd5_5dl-311&835rmei%69res7C9LCf1eG0%/c24dip2i1-d0/o73HjF75F%ezr%mAiAs&3v%se/evo%3mt5CF/&%1t4?p3B1BV0.32Dgv-P&C%%5wg%xv&m3e37cpjB352%teb06v1%0F0frJFnADVdsdh%2483w7?2F4eu6A70xXG%13%3CA%e3g0irSt6s6dga9-9r4x0avoa3%io3kw20ut,1pm%wAa&/sB-?ttmB1e1_0m23S-3At014%et8-GhWeg2b9R3te%Fm33b%o87Y5HmApt=txW1pAptAtjs33i3%20Aprlapt%/1338tlvQ3sps6u5/&rg23es3l/d6%hs%/741ib%uCFn5Fois%elBtp%3%2315korB6sdF%eiit5&Haug%eh0B23vbTos%3f1w6%es&idp6/Fm1u09033d-bds1%ic30Tniiedrsc%%st%BoreL3_eFar-10l/3z04AtMe9uJVwA3c070is2-mi3f3edIxsentn1Aki&t%0cn1Bto%%%'
p67
aS'PCwP0w3t3jo5%ecr%fg8&3%lc38gt&/3o%-emtr3ko%33bBD7p30flt/5ae3Zi&d5e/Dl9/o1i3knF603so%ii&6h4e3ft6%bimlAdte3l2TnteFapvvem6Fde/1/1iewdh83tr%nim&31d9S%et9%fu2_j27F4e33Cr60AF3oa7-5u5c2860FF91/A8F5e3b8bktw4hy51Ei2%3037aB3r1de%i?ow333mCCrnpl5p%%ex6AFCio33t_55bF6%a&Dete5/F1FCVr1ac3-oLsq/jei3&A%A%hti-%u9s%hu7it&dB&J3uu2A6-s37bAimF_A35C4pmlnr0s3/33%3x34stdAv1itA,FaeeA3Actlvritu&B%ya0Eab33Gs/F6Ar7iyvp_w5t?l%rere8%%ve%3%ipava0ctsF&xtFD3g0fp%%%Qer19YGt%pvsw0/%rnTm0ybsjeK%%xs34_%np9F%0seu52313%tQFAhn13f3r8r3HC5&Xt/vC%6d2&FtC&se1%/73t%9paofFmr-3n5u0pows32iu%v3bEt=3i61%e5iF?3s1lbvCi&1'
p68
aS'3b%e0ihAttFpnaa3FE3&F0y%=/4t7tyhA02/3Fco46a32%5-%dCpi33e0vvnF06s7Dm4Eew233%385A_rJuw3p3dt1A3Cg3A&tG03_0eH7mbeop9t3m/%&f%13%wi2CmsuAsFss1f41c60lt%m3Cx-ty%30%7w%d%MAW&Ca8p/%gh%4caB3d%dl3U?6%tpSec%thfnd4m4CafC6ejCha5C05-3CnoC7&led1iDitvCe0CFy0%m2h.F_77D52u7ez3Gml3u&3-o3t2&7o63%3_1by2Adm33%xc3%2iiji__-Ai8rmg3t8s3%x1B3h-u4%d568ut9Ft-eom3lvDi1h3o30Ce&1a7eFfTa8dsc36%3v%/oA3BQs312je6pm&g93ed/hCrDUFitKTda16m3m%7F3&&j5_ue10ut39?T8D3R%/ihE73%%esb6O1mrz-i/1tpGt-1c%vl2_s19besy8sxCF0_LjspY%cT7bdvFAfcwxFF853ax81d5Jo-gHiheg6BBdWM%o%%wr3tpx&06s5_5rAhCcom%m%d03S1bpd37xDst33B1j3ar13rv%0'
p69
aS'z6l%%a?d109ntvjdh/E036Yo7JBP1ue173E3A6wAE31/minecA5atEr%ttdAE_1np38r1Ie1u3L9/dsm0ew1e1143Cbaatnfo_3fu34d50pA0d%3Fwtf0aa13-fpiv/d5u3tQlwrsgy8_eFtiA-b6M81xCgTb%%d0J03uhC/03rtpneT82%rA5xD2i3gwawu1d35s1pexCi_%YC54aA0Aw5%1eC/wu/0wbIboa&8ado%xb334%ct3o3%3&D%d6g8vD33F0re4&%ntA3Ad1eD37da83f%F2u3TpC%C87=-BA5t3mfes1cj0btaetud0/i6hk807_%%/93ev7ehseihwl3se8x3C5vGdi__%C64r-73%aTDAh%u_daaE7A9GAeYd&w37%pm31pe7wheBAr-dA0IA%TL3_s%g33dih3d/51333bd8x6&0_Ke3s%frf%aldtYfw2eatpSwr%1o_to?bk3o-ib12-9%1%3oys/2E83-u/ofv5%pde5s3/2sABV/p1sjm4j%%73viU8Fiy_%r8%Sv%CAAsu0diFreB%olFeg3d%d5li%A29q223%'
p70
aS'fY_b7%eehatF%s3m3eoimb-rr0/,?Dt%h1FF0Tt5ghs9p5A7y-F3iFl3%/he-og3%uc0ij322p1r01w9h33rtT%o3%mt3dhFeh%nbRdt06t5f9pC9sDhaFCd2Qn3Yat2iAK5huige4v2D3C4e30g&53%3v5_sijalA-43rd12Qb5lie4s%3A%9zVFa33o4s0uxt01lrFHEeotFr1d%3d5Yrdg%0Jdr3c3m2%aeP-iwbfftS3Fbrm%1t-/oBct%hHr8%5Td5i383Fd63td3s3e0l4ld3p3iFDNviB%erB_e%-3sA1hEvc8e%%cp%D2li%sdea0ohsQD/L3m/o8=e1skvWswh0b7iy?dp%Av%86a0%5-3O/a4M2Ra2o3A3Fl%jAr4Aatn08&h7ps7/ofo719kvilq93dpmFdlpAoPe3F6E2auvp08Apet3_70s1F3E%6cCDF23Ad8o3Ka23w2d%3?t50fp3esaB%t96p%At%6C%4a3eC38iA3AvaaL/8i%1%hfmh?&%e8p72CE3137c_%et3rr6?iFo4C35s51Bif%n%hpcC336v%33oA3r%'
p71
aS'x0F%0a%-13h%o2ey%e3gb33i5eoo%r396&sguv3ibsd-3rrQbc004Bl1%Fddsw5f33%ed81%o%eieui%%imbC1mir4tue&p-.1heC3xDe3P3dpt0&pt3xMsaepuLCot%aemt7_0iwtbqmo33/xr3EFBDt3otA%ms%3MCveNoLi733dC3e3w1jfiao/-o?8&w&i%hh5%t%307xF73dna9ve6cmts2ev%jbh/T_392iFpiK3i1dIe72u%-maAE&31-9me%6riFs_%dst3l13bFte%3w3i64%fotPiod33ty17gv%6lbih3%43I3L%341Fm36pa73s3A3oso%s2/32tv233ws-elrha5hp6ChjFF/Bd3aAV%pseetefS04qio32ymaot10t1d8dh4ieegea35rFk6s1Ar%t36jar83oB7arA%y38Fg%c%Di%2ncdv2o_Mlto3F/dnjoodsh%/F%p%hs3AD3a425erug9hI%bB30sjehs3eB10t33D/1ugu1n?5ut&&%3teAh&oa22h3F13f?C33&fy9l-w7%76&sE-b%wib1D%pt.3%hemhH%'
p72
aS'3-73%,5de_d3_et7ht3j38u1a2%3i%c2exllt%o%l123e1rgCv3Q33Thw%93-Qe3uhorus7t3dCF33_j3/rl_Cxeh3bv3/H&1=sodx&QC%D/hxM4eekFcafdO8%u4%Gvg_eoee6Ao3eeA8%fmta0oFo9%dtA3%%a/fav3r0eaF3%1gm3&v0A0Kt73d1%g0aB%t3443t%3e3BAr9oe0aexhi4-rFsbF/3ns_eexp_Uu3jn7e3F%cED3f%R%i3jdh%v47G%s3390ttAF4v-e0nC1F41s-037ms0ee3167320n%n%Jx3siw3ed88hyse%k%Hnrn8n3sf3ha5soe352aB0S0Ye29FCeDEma430D&Gdb%-8m006AWped&dsl-1F&94CpFFgb3%C/zmdhubaDei%&i6jn%t/3Far3&33&3-317ru6-rf8tfUA%nu3hE0%DB_Bh_1An5A_oA133_%Qee0ut32ec/s&121ioTt&C7A2rusAs%qDF3soticC2%brHK7i1gt3b9i44Dacd%h1%mam3PmA/3m2od3%d5vb13&edfARo&de9t3//&/Fx30'
p73
aS'a5te23aoFf2ix0d3mX3s4b3l6Da&b3t3eL3E/41e7/hQad?1l00&mif3o593m2i/i1%30aF0to%%%3rt&8331va8t%%%e/e23teOda-w&tm3%3dde5nw5aeg/b_14mpM%40_m3Cr3xjeni%_wb%3%ApdgfumotMCB0FisDF9sAAt0iB32av/Amtrf%_hAhsA1es&_3Yr7b/t8Dfe633sdid3biS_v33lfxskl%rFd03d388882t5w1x&b%T%sC5%FV%Ro32i&pcs/ofaqFWroH2o2bj7y_depdAuD3&4iA/3ro1laF33L35i23ot/s%4%H051Ja3p_1Dar9w703ktsRXuZ%Qtd%1Atyrmgl3d5C_w%3Ape126Mf?bnteem%889t%d&YR3atie/%Aa%nv3n_%8/_deE3n6FgednihD%/rr?d5lG2%A3CKed%01me7_bns/bl0p%4Eoi%ds31i3mrofC3pE%stt0ieecDj33aQtBv%ds%eei&ae9F03,%1F/70v&DA05A%i%%xFBC_/ts2c&Fhhb9%b338nb?v&acbt3df3g0t28bo%6-c10'
p74
aS'Dieow%DylU.4o4ssU7o03AdFw/aE/eo89oi-%n&pn%t&56n%F7C%F416ce5vibxiCt-%N4mKr76s/akc3rE%faidpat%d8q2l&%125g5IejeeoC3/1940r-hw7-o/%pd%VeJ--3ZSo0Rrhd5&??Dts2fbyiF8ne3%t13zCp%F0%i1Alpad2%&Fbea&3og5tDMvsa3r1%/A/1D0tHtraDa7ast6p0o%aOf-3Am1Ne/oi_37rihdvA2iheiT1/70d33zQi1rdA31Od%b99pxidFdnvs3/o8cea9ettve83AH73%3E%E9t2r06p%dlEjiijmdssam333ba3313m0y%%e3f0Eav34pu%_3s%oofeCB3os33raHq/%Fr8Wvaro33ev3kP07_a8b7sD93T30ea3gFd05y8%&jabbnt6e3/p_Fs_F3a014A63%2aWlHpntaa2FtAd%pb_3_ntlGenh6a%2D%s%4%mRt3pauh21Rrpsee_radlg%8p&73Agv33dubeu5F8v-C313nr/63Tm3R-tTk3i2sm34j8e081bpY39sC7530e%FNji3834AF1'
p75
aS'4hudilfD%MA/4Bet%_i93sa135t7se&%Ft5e5uw&tn.At1O07vLoF%svs%5tapo3tC1F%39yY-%u%3m1mr-_hFba%13sb00A-o%i743ert0e3%%71Crg%/l0AEY%ro3t52r%rx8t8?x8d%r33F%da/3uoeFd3tt6t&3ar5l3aa%poDl693673d3-tst3w3C0rFe3e5hrhh_%yA%3115r%74h2no/A&E38F3alC-rk3a3pQde0imA1-isau%su-v?32s1n-%%tmtpFA3t%yeoebp3ew3ladAm3ua?%ik-FGwo3%a0ale3Wi36d3eda737Bsv3ord3eitgdt3v2?tcn4lp3e6%x%sberr3/4/0t33CRviJS0%m1eti3mQs%3A3b7t31iT/0nrCv-k3imu303%hD&1%ohd_1t33CxsdeAobdR&tr31w3p3at%Tivd/hid1lD3gw5e007DpBziF1%3C1da3%ern&3ra3isbA8dI3Ztpt1t60o354ihpw61o2s%ols3Fbe%0h3vm3130r%3w4vfz%0o%3c3%o%_poag0zcBaR%c%eF6%r%n?-2/'
p76
aS'g0a1xc1s%%3033%wwhif38d/iT2393tb0zu2%338e&_tml80ifivd0djep6a30sbpFQK3D%aw7mem0vlDF/63at313nt31edp4p9dl0PdwB0D7C0t%ltAtaeAb0irD%6C1g1le56Cms3k%23se45dFEldt38/nfc1pkp3rp1eObRD%_G78%t6pag1AF4ae%A35psb33vum2emyjJ9&2_hhdAsmv23B3pt5tg%6ao63dmeiew2WC3B65ewToi4hpsml3A43emo09K&04kc%%9_d3023r3ar71F227bc33tI0%19t3e&3%dZi1C1RDAKe/8pt3mC2ep16a3%o13Ot35ipA01oFc633u3uW3w&&26dhs/mfyV03eY9psdG8t%Aq335%9kri4%L3?ij0&3sy/%m63ocd%33%n6f&mTre633/tm526bs310i%fzh&trcCdpfAbAe0D%4det4hOs3339nsC33E3i0A3?d30on2e3dvQp%/31uSaT4g3ddp3hMrp6%at&AT0_d5mp_bobbwi1e1dot0p%txrfF3dd1Q235tA7hA4el43ecuWm8i0%'
p77
aS'a%wA03w%s6D463e12d3nd&v5w7353C11o7v3730g-9%73_r%rU5vriF31k3Ds1a%3yt%F2o&3a-w4%s%3:u03%1sthyA0&%&3evmtg%eio1nnAawhdm4o717ike/d551rp0C%rub3c5oo6p3/tgpspe%z3FA0%mCvwL3&7n-a03Hl4%%3E39D3hozE3Fn5Miemdlt3/%F%ato0ptatAARlosoeia0s4s5wF/3/-1s3rj3m6e3mb3v/wd?3t%3im5sg%Fxbe3Q7es/3/mtawximm6if8i3y%eps3/3uvio%k93%myt%vc3i330B1m0Ref%dG%3%2p/%d/ixga32svswoe53a%A800Bv%t4lt2dtsa%FfiU3Jte7j8Wipep30hh3F1a3/3w3m3cssul_3a263hu3/6538sta1_r-148/ld83rpu308Ao3j%/8mKtA1o503/puhn3FFsf03rFdF6565y/i%y1jiiH3i3840Dl00led3c3lNA12oE%k3wg4602t_/Fv33Af46aAsC7s74F97kA?wsA7d3gAD%f65d0a?i61/3YaDD3/wttbj1&'
p78
aS'mSb%3EnnrAmD0A40tt433u_lti9tp8Gei0Am4eCiA38/hlC9r3m/g8t33Fai?F33kfg3&e31_4%pqo5FF5iipndv%nl6mh_-33t31%/n62ritn3tZu%d%B38/90hFa67mi5afFnC%&A__7igW%O&s34e7hs3sf-u30dotav%i3c-eaust%44A&3wiA&3e33fep%pi0ptsDwh0A8Fisaup-FtBNetpx4p327513%0e6%52d6i%l0%a9tv&D51Atl2iai?l01Rhrdt3lp1Epn-1_hi834iN_BEo-2%44ditrB2i-kv3d0i%fa-2pt2_6o0F%?fxka0Adpd8Zeih863a536w&s%%se1tIFf30an6iF%%u%1?%5w33fu%odrNew0B4-/4o6a%doi6si%w&7AUonru1esevoo007JAadt0P&fl1b0%d=4os/epe0i6=%a3793ld-QDe26iV13ttBt%eut%r3?af%%18av?~tFg%oap%p1eae92b5,nwa8J%hF%/m%-&9p&y41i3ezaaiB31oOt-3%36u6a80r5ghird4-ro2odt3Aol3th3/V3&'
p79
aS'13mt53dm25drtod%Rn83rv23s8?0%C4o3-2%pl3i3kM/3AF4%cdsl5Us4prht3%3%l%w_oop3t%&?3H%t1?df%1ZaNDAcpA3X3x&o7%%&31t-3i/oKE30LT33u9et4u5lfgt5iZr%4B3a9pth96s12r3rA8ABAc?3vUr9mD5%0o%3lu13iaB3%idb6er%om%33&Fta4eixF8F_%ewPo333dm1tC1%8md3Yst5eta/&tl5%%pw7ov3mAF21f59ept6oE143beiuS0tt073azA3%o%enAu0373ro3tcno733ehhs-l13ur9hFc1D335f%xs3sasa0-c3%iH/10mbaeeCg3F61djep0mc20te?e3opw0%v&e01f%it5CKotj70CF%stl2boh%8L99ds3as%fbnPwa-0p87350a3ht6sC33&353e1pF3D53RFhvephQe3b5_seaFd35a3i3QyvnbZax1Wj17De12s4jeavFA/13bvtKFF%d9%DsAC/f4pat5av9C0Eggo5AwvfA3a6h_6m%g%v_es837&0d?gooo3&F3p1uyT2wr3RDDe43p--'
p80
aS'tm%tiH331_7vzswW$y0_beFhjrt3b_6Xiad02MtREJl97odtv/d]ua-0msbh7r%3w7C51lbm&irit3xe5mB61%6trp1%k%%ut_Fj1fdr2br3x8d08M37f5xJo5snhte6_vw38sr4lox33F/zvoa70Dfbt%2eEbee3mo14wo%rae&Bw10&41Aam9v7%d0Dd37tpeF3xa%338ee3spi&_J8Ea%wte%9s0%indt%81pwof6vd5al4Ph35ld%biPBwb?5iaoD63F&8r3/dCpK3n19t%a/3bFooAi0Fr1%pioq47rFB5A%e3He-a2%u?wD2ihiKb%i%St00ot5u%23/iA3trs-a3ba%UB%aDFiv26&dtrttVizssi_%r5mam9pbwidtu8wv0A3/r3&a3c14h/ZjspW/wkQLEv3tk%3f478k1u6&i6%AF%%_373&CpK0t1%%-u59&d0A4&%fm%liAx07aoFtC%Eeuhtoe0p01oqinr%%35oD/2hF-c0mu7%123S3pnm%&%%3k_328Aip0v3t83l72ti3y81C%FFiFB%8trea/c13udi4hee/Doj,'
p81
aS'3st44_eh4f03ihath%A1r63LbAa0pe0F1O6dF%%&0D0iw?yrC3xRm33Foa7/?d7e1b_g3811f613war0l&2Cdturi_a53bu/0meht7AD%ws4133esB0-%sDr1ie5k55a8AAateaidt%bp3f_4%ZltAi%_F3y6Fi%o/topz3-A&i30a%C_34_o%ig3a1inw%3l&p%eFkA%Cbi/iujDESier33xb/sot&a%b:isi3Bg330f=ATCt83d3hCd7U03l0eM&e4ue8%6Jtr902ymhe%Fh35uv3U/tia2mjrv3%0%0h0df4ydjwgA4rCmyi08A/Awnret03on&0dmeAp52Hea83r33ap%5t3323tIc3dcAeoy%80uC3d13FFhtFoahdA%y08m5O15Vv/i$3oB3Cxii%-hv6Q3a0?kiirrAb///lh7aC%1em%3F%m333u_683AhcFeZ334sA%cct%elReRe7%1d%3F/ita3w92xdB3/%F-/a%v%u3sbioae7bfiL4tMb4s3S%3/ce%8sAbx3a53ro6rop%iiot%le%d5ah11/Fet93hHwmwu&0n3e=%'
p82
aS'f&%Cbd-lpAd%tQbTtaez%F2vaE%e_DhYm16n%Du7re3r/%FB3jdh3-rHv?CemdF%r%_8ex833%10432ADCa050ne4e3e4i3s%si-3ov3%0d3d%3i0tA3%66C63gP3r332t%%p%h%i2%X3-?3Y8pt%i30f%oFC%omvFu0nb2Y%bvd393c%&70vs3i%4di09irDBl7tns/a4A%%h1F3D%all17u-iZC/4F0rAe3rl113j_me33esP0314ND3ng&doF:agFtH4%d3u3s2&1Fr6k_3Fe%33eAr_war6tweioA%f%rv-3iz&5k%_Ft6aXCti%v6%Fg_1fiy7%h4afFl%aA5%1u9ix1maniEfS%c%41Ae%ul821rtx33F9%N&e_it3hF%2j1eavoue1e&57Ah1s3ejntZnr4301037B5eCoounp_hm/4dwa3Dd/e%E&weA5odeedvt-l-d1%7sF%=%opet-D0%50lo/wfomerg%6%3&36ndh1h2awj6ldatFt/e1D5%g6%0He%e4130xEa36_Deudp3800sO3ngD%/6Cp06se58yfs5r-30q33s%'
p83
aS'7713n9edreros6&am%d3f3ue7r%07iD4r_6sir1/ssov3a5339&iBiWp0rsd3sx3u%a23eejvs&9Bh3C3Ker03%90o3tt%b2334_xeam0dlb%rh%%e9%qu6wm1uiF%J/thrh7k&w4w50o3imcc/32C/4e36da31s/3adim2s53Dy5tM4%5H3tr3knii3jeF&3C2D?a6i8n7%o1?mw%lOCqE3dv&s3o106egRiY3nFj3d6o7Eg/orxDrar%3et%3r-a7/%j0wt%F%0smhbdo3a1rh8ns9xdoghb%aD3s4fB&3o23to%5d11wr9scoC3%%4hM&a53a&sBABziMHoaoo%8nm-%5%32d1hhaxo36t90o34o7tw7A/F%WC32%h683mFd4%m99%qv/AApe%pt7owdtu3a7e&o5rd83?djAi3/uitJd&n8Fsje3NeboF&aee%7vu3A3SY3-6333?xk/%eF?p%01rp%34t/%7di%z986r33o1-4i_e8bhs0%DuDevFe80-msA933?oad21ad7e/&iepAAhF33%B5AvDu%uCsC0_e3Cwud%K91A%a31'
p84
aS'f7dny5FF3F57gFie81bjl3y24tF7C39Aiai0Lphs38sv9:%r4eD3%oJa/d/Qst2k4C3dgR0W/%f3i%Qv_Aw3A64Sfts/2b&wDCu0a%31oMzaaew%at%Im-%i439%wd%a38e2e3i_3yr%7dn38c%%31c03fDJdSb%dim4tmf31UF/3F/og3AwLD62CH7BAmdow0%4%3s8lA%_2F5pCp3/&e38C%wsC3H3%3bDutk00t2-2F7i3kFmsH333%//e/%ruzE/3salr%s19o03ss3/A3dnpe47FaiFp3g4nvAtoKcg87tAHiteDsF9eCecctes1a1oevi3slF38/dA3nd33i39xDp%8AAaZ/a3g9C-j38pxAtcuTnFk34fioi%e0s11eyV7u3r.r8f8lRC10249topBaadFp%F%s2&aB&19t5%eb3%3e_o/7u1oukdodD%v5s3me33m%mue3r7b/5iAo3%%&B5ym.C1tvs-r04Bt8hs%t271ha3&83c-%ad3rfb&393%3%pjeaCus1_nd7o-m3R/%P15m%Bg%e2S%hbw2&8F3n95t3ts%8t3C7t&'
p85
aS'6at5a09jsDdU0&sX31a34o3332-0na%t3es3jod%FttsLvd%po%pdo3kcpyfoFi33f3RhlA0w%%wd%v30r5ics%-U9mdSAb7/3plKbefa7hliyb_t%0f3%ed373%3&Wde%%esh2mxeFvl%t?uAoiAg0h%21Mi12ad0ptk341pnxlt5a3p0F3d6Dzn3C3e172cet&%sm83v3tdIr1pvlmf-CageADnxaees6dCst7%O0FoxDfo5o0u7i1ho4spctD3%%u3Aanof_sttep%rsypD7130o3%2p6oFQ//xwatfw.wgCf0by/Htam3/_s9a0/d&ti&70nHhChFtsxp9A-iern%m3%e%0wCT3ipvt0wD9iaeras%sspkw%0a1g/C&t3esA-aiaF8=L8tecDui%moTasuMUwemnis6ci1uvFtZwveo1o53d8&C5d%3C3FmeE7%s3Jup%e32336c%z%1iW/4A2it84-nvt30/sMtAeh%fkkPA_3pn3038AFD%o%%F3e%tV4sdjlR&%d6D&l2/asa%%mHinCp35htD-ACemCsY2_8C0/1ie05Dm3%%0'
p86
aS'i%A0%st%30oM%kAH90xbetsdvsQD18/usAch3mtGd%&vC3AdarnNd/ruY2--Aoiut/235h%g&see7it3reeO3nil333d67%%UpC0sg0/e8l%%u4313Em1Nw?5ltcDiaasot3ts?w393sf4mgt33pihpi%1eM40w2_9sbs35sja&D2l7v3Ft18vCm3ea71Uvee&35%302/veMFoG2Faga%nlubd00g%6A6dp6?Bou22jCi%zHvhFkm2sV5c/A5aafo%1ni/e&sl5D%aO3&r1m03v13&eebh3dpFd5mormitsd3Fx03Ma389IuYg36O3eduts33-d3313p%U4ok4d<%%B%jM-sproc1w52-t3C6whWdmv0-3lyp1na11pu43delCbid0u50sd3d3FF&Bmt%oa3edD3afZp31657ef&o6FIheg%cgsvrt-d10xv3t4ah99peBFsD8/2p8j3%e30g3i%&%a3o/3odm1oUtd%3%%7idFhe//A%De0FD0%4tml2o83h7/7dp-WM-0-%736?3y4gojCn%3316Cuel1e/agp%Fb-0e%jva0A%a0x30'
p87
aS'3fnnFoTmte&sns1mpm/g1Jp/v/e%9a1lm21ldkFpCc0e0d/ad3y3leBeA3abg886de0Fr%&%u83?813aSxt%53%Ca%aDeets21%C1aA3Tu%3dF3i-vai556a3Ce-F19v3at%3%et3oipy3%2c%uGbB7elA3vUlec_l7rAda4nH%2AtwGeF0r/f%a3jaRD3b3eRue%0h4enr35695F3ot3bx%B2Ne3303w0E9/3a9je/u&vngensi38f4336A1tLeChdApA%p98noGc41v6rwehohu/b3qa%F%13d%3D42trcv5/tCC33ap9K3edt7wO%71H2f5%d3i6AsCdbe23T%oG&3bwop3d%3t5hfAF1nb4_31ug9e7b-esroibDDve9i7g/1Add1eHCod8or%ebniieo9/oFh&3a3d37j_xaevupr%p3g3r7eeg%S3T3efe%%%5se-pv%37tmaiA0O0obde%9h0BAhTd:v15S3be&l/f-n71BAde8lm%%ChCtoe33&0C3&%C3i6_a/u%dri60asopd/x_C3g333o0%%h8d3MbAl5A13a1Ha3mFFA%'
p88
aS'&l8-6%A1Q8G&hJapiX&C0hBe000390533%%lgsFi-o&clueF3%%NhisT%3R=&v/bch_t3-=Fbgd83iuerMArae%t&o/t%s?d3%1304ro8ft351m&sr1o3ig3mr0%mFamrsc39xmab3N/6F%7wswt%AoaAdvvApA00&5iys65h_D%V3Aws3-Sx0FL33/l1v9pnde3s/&%409t6fs6td%ydnw&F0i810-ao3Q6o7%z3&%io&e-Cs/3a5_g53MeA/3tds3/hP50%ehC7e61e3k3Jax6FfA0-x%3/2/Emp%Faiuh2c:8gutemed%e2em1u1%m%tcp0vaamdEoF5qr/wetEmA2p%%Tb%-fn%%h?4o634%ngsjuh%eAitGA93eKady-%ud3a34B5_Dr%/1eat2/13tags0f/w8z11h99864d03ei02awhWb1C3/_oeH4Ayt31aq3jp30uz3wmbp.0r7we0rdo1As%tmvar2oi6eeFg21hfa%2Aaeb4uFroab%%322Nd3fil1ieicaf3ieDtD0e3%m8%3/46iAnkofv374o_ueL%40z3%sArtr:1/'
p89
aS'3%Bc[3aAbr0xA3w30tPC31e6oC5%78eshi34e7_%F3moo9sr3_3m3oa5%%b0-sFy_o20e%TCbmvct4e1&rFFe&o/b0tsQd8%3/v49m%&if5F/43357334eT73BxeAdSis%et3c53gkrjYHaB&F%73idqe3aa3e4m%d%vAa73Devrsi%4re03%6-dFp67psFe3o1p3ae3IjCde3ea3nA8F3s/SsF7im3Fm-70g31qk1Tf0Fo%i9seDi3h%r1C/Suujt&%h3923uha6ehg1ssety3Crdt&rT8BPeA33S3ereb0pembh0e3w%%t93u3-Hrai/rs-&rDo1D%/-tDosaBx3%mjU9qde%rrB%dtA%%_5Vlo13Ar6J1Foes33uts%hd6f83T3pdj!_%bQW%%NsYw0CbFdhuhs1t6d%9orr&30ht5cd0ri38el973DFnlk%e1tts32/t&sstD1te3db%30aoGs?v0eb3&tro841m8o90333ex0t%53C33%53r/Fo3A%rpvC0g77lm3T%Bs6l3s7O1V/BD1/iwsydAs53s0epe38drm21t/uzeudDl%'
p90
aS'F%rt0vodgB%Ddmdrwr85_UI3meg%l%/tAw3DFeR53o31CfpgAvua?d59ahwC2%rFigBiA3/U7na4Q0C4&io%rBFaj%n0%h5%e4jA79_iverz3h2owR%U073t7E%3d52RD.353en%%sF_c%3irdfrc1i3Dd%AFfap8%Ae%gEenmza-bt3g&-at%eAeio3nhdeFl0i?dl-&4%e3r/m2s&nF21Yhi%Aeu5tps.9r6/%egO127cab8e352J8obnClm0xi3e5cTd1%s3w0tra2u23d,73U1Sm213D3o_8ptaCe3CDFeBaFs15%0t&0A2D4063dhBmhv8--3corF3r3t3o48fLth%beFrtet%t93erw&Aaa338d3se53B8p0Flsao356or3pwEFn/Etc&ko7dcas5%e%EsoC33as=/3vu9TAAQaeedMrtt15i%wlN%Cv3woetvSsg3o3UF%dh73%310diD%iDwmkl5ea3pf/3e&%974Ft30Abi3G134%144ydy3a04i&3?p3CndsF95&0/&Av/6emxim%pe3c/a3pC13%3o%it%pBs&_i3rsrco-'
p91
aS'tt07sant30e4GuD5ildf0p2n/L-eD0ubeAb-!i3e13iu7e&%/lg3odg%0I0SsD&sm03t7D6etS3gvr&4eaxCCtv-8djiCsa&Ariu03a3ap9o7w31WD/i8rii3eFh0if9bAo79wtj0rr0i/%lAdt%h1tdoFwf/5?0gvh5wo7a/Ch%tdt97pxDnFhooFu-pJt3ddf306DCrs%32A7m833l%_1mGd23%3tBit9m0%Fgeej4ta01s32%Asgplot/3t%-s3h9lFmOvFe3ss3e8h6-ti7%e7%%4l%sC/e3s3%de23l-mF/%5wFZ0Q8mzobbAddCB7As8CaAr3t-E33A/3b%A3g2%3%%oxr=t3e8ssx3_31p3tiFAeHDw1ri34%3pr%?t133%3F54Bu43orv33g1m1Ve04E360%p3g/CrdK8tbKwmi3lt_753tt%lame6me%E&sFG%3i/3n?stfa%a/te6-C73epD/6h80r933e1%m5%1t8ww0n7Ft%n%1eps/Ap0i6s&16pm3hi9e3&%aM0b6thb_opm%9medw03FBtJs30iFo&C_c351udAm8t&'
p92
aS'dh%xoFg5ste17n&lCm%d-aA1mqlA13AuF%531/df%tFu1t36?qr0cF333ie%3?9Aorj-DB4R7IwPvlgy%eB37An4n3r33vontpw2u%Pr3o&dipo3Uftn8iEl2h3/3srz&&4t3%1a%3s&37voG2grg03aR%19sjtx51fnlp%l03A%I%1hegs8c7%Fdes3b%F%hia&0r1axch4ftph%CuspH0%7Iu2qF%i0p2bi3&1t34vb38rlpA16ehdt0Aur%neO11pr0t%t%A3o33r4rAt03%cmF2&21d4ei2p7h-39d9C-33D33347&3ed2o/r4h3F_udr%bp1Ae%hB7tbn%s6B0/xC%dRrm5ps%eF5xes3e-b332b1e2%b/kNp%39%nv%Db%f_tSiloi4%708/e12v3-wD03Hr3jcea/i3Sse/4shDja5slbRAji-Cspj-6CA5&1#k13Be6t31jFt%0F%i/vtFehFri3j3sm3Mt-133-e2FCc9p3r3%00c0ytD_7Csww2m4oCmt0Aimt1Eag3343N/976gd3tsFta0/3Dp%632p260d4I&FP8%BF81'
p93
aS'D93Cm6Cis26ookAw%uouAEt69/3&3V-%0t53e1mCu-53ix%33%aAhPsg10sel9&r%efvTqfsA3esi%ui3tep//C8C%jCa3i13tt%v3i%iCga6-lxf-E8bAC&5-wu23dv3eC73px1Ls%/s/bsFae3-dV%5A5s4c3%avde4Fs_ap3i1oaAn%1t003/1dsico1Fud0sdh1td3Dv-eum%33a%1o5%n4slp?agDwsC33Msr/0F1903UrFAiCa38WsFhGF9FAad5aw27l3/tt3aijoy9Na51oAp20whEim%msohojba3t%t_d11%i8aA-o3pgDutg3pm/gp/_%op31tb1wt6d&l1Aa/81%5/thbdJ32nd0y%2-pp19iuMp3Hassngi%5t43F81suA3/6iaF5pne3rb4ea_a46%v3%twsdsg/2-4r9fey1p%nY3et9seon3/iopAoeFoipv0.3&gn_p&%%e3F%0?0Ex%5mtsFphT-l8ciA3Ci8QidFi&rs?C3e4-23FpaixohazDsn1booioh4aF1v/&gU3tr3et5?i5N90ole81r3tsed41Bwi%0'
p94
aS'%2%nankC6p3h&93i13e430t0%67-AHD56S3pnmeed3/Fa3e%VhaydztArpr?e223aa3bli5vCe73Wt33hor6eaD3pv9j-w3a630w&&d3%2pce5AFbl-erd8eG6C%-h9&de%e/3p9r08e733i%td/93C4%?%-maddre%t3el1i593a_%qgFsAko5mFxe3pfp51g33rdth0iwB/e35wilf62%d07m5ri3pw23%R1ttd47egvbpAaaeb6x%F6%hai3FiFp%6E%333tFHu_5aF4ujB-is%3g8a3305%7da%e?o4tFnsmtsBdi13l7%03Xe27h%%1yz3i8leF30Ard3t7zt3ttt023CpQdlo9oA%a%wot9s3eAotlv3QclMeds7e%&l%roEmlr0cosivW//EuAw6Eld3p6aaD4i_b3t34u11A=0.b1F7%1%_%3rtepE_t31f1vSeooto36c1A43e4%2eofrsrpo8fa3fwdF3A3ebAh3A%Bb%&%1Fecvmt4Q3bzdedhAele33C53v4F71eudsi4%F33a%Aa9og2-ahd&3r%%3_r53dF-1-D3nA%%'
p95
aS'%37E369tCHm&ewE133Bti%28&ti8d35%F%b3b-33133K3fpi33A42&m%nx7%dd&ws%1rFAwAie%-mv-3atfU1e-/aa/w_23164u.bausl2g72sd%1Ai%357e6ef&3ahf3_sGm_lt7itvs30fp0tdU61mmts0D%8g%%00%&2s4C1&C3%uc_%63qeF4%3%e5133as9u_BfaAp5kdbuBl%F23onspxwr&Dt6Va2xw30w5sV4t?n0Cn-t634o3n-33R3%7331ett?7&ertui_Ffe4d52gFe7ak,gevsh0s3hd3o%84rBemc%w3FAb%H313AkBweA31s234eh13Fei8B35&ht3om%f7wCCF/U7eYsAT3ic33wrrw0EF3%?9eeXQ9a4VoAtnB8dtdjpuBn%s32e134.v%f8tpAF0e1-&Tne1sbCnr3o0%475FtEo13xvp60n&03afAfn3EerffB-02l%bru8ww239mrt3fSA%o7vav49e0hCAk0o%v0?pF%98oL6lv0iit/2e2ef1s5/v9r3r8fdA/7utFhta3aj%a%o%Epw1p%f2270aAzrCeF-'
p96
aS'%73rCmsiai3C3de_C%1dtp8i2epEo0t%AF0vaClt&irsgT/091nV8ata0r/1djum5%svoxpL%eAa31%2hdtjsya5gr2vx1%Aats/%e3-n/46e11:sg4bnEd8S7C%Ca2r80f&033aBia0k333tdRC4n385t7%eu8u8SR&T9s/mbA%ea613na73id0%d%t3-3v%s%W3d%/0l3ptspcuh%0f3&%u5ft8teb%p4hD0dq3m3kCw3rte3w%Fv4scn8ng61il3ss.F4v6fe13F3%%1BC%A313837sh%-2%xa133irj9ecvdr"n%%3s_a2%cs5EFh%m4ubi1bBdAv/_1%aseex352nemf5a3e7eo3xq/b63Wi93ven40af6j5:3-oufBC-%c1=%jeag7i-2w2tb%9t3e2umv-8%8Pe_ol%r3%y%n5eaa2CrIm_pee65so%3naeevr%%aAtl6%73rwwt%jtoh0i7l%0bv4puy-frCcoe6w&frA%63Fe3a3lFNnFp0sub0rtq3dndh3A0/3Bi/%u2rRB5o/Ft1IG3b4Dr=iuCd_te1FrNmf7t56104D0'
p97
aS'3d3%d?343diaI&cn7tC:s93f3351wCC6&OmZ&%3mlpae0p91%22y33h0eP0Atv02eC/et77v0B7hyu3eam32v0eoeB3Go0tgdda0Dof7f1t383Cyi8433d%6%3/liwj1of_pE35l39a3ct3isD0-mawa6L533j322et2AED7E3sro3CdM0iL8/ue%tF5/8D9Aoe%t%A8dv%wbYAdaa681pbv80lt%3a_s33mDD_pue31i%s?lp%%bC%h%4tt3%90hd3w%C3i%tenoEe7dt/F56n4%C08om35t8%5/3b-A_3s30aAdMC%b3vo?a01/AF__3F34Fr%spC_3F61Aw7cusi/3et&nLi6Bjv4aa%%7tbcvrcss%aa1y8r%BfiXFnr%r3Xcdepeowh5F%oC5D%u3p-3%2%dttel0usdto1m8h5pbtGa%A51hU-5b26r24hoit&A&Vs%34iD0sud%186CsanC0CewAbe0ee55t6/aM3t8eF93Daa6tz/_e53H101D5oAuewcdTa5ar%%d34FO37i7%0103edof8uFai-wW76t-f-e%fd=p-s34s1%'
p98
aS'etXewubi%ep9bx1bp/%3%ap-aFae-3ieC2&ed3c_bu3vdc5ztlEsc30B3la_pd0%AbpfAhticEdP0%1rj%1cs/3&3%__7Dp1fg/g63o/ees&3iv3oEz_tkh%%Da&0Etf?i031rw5od-sslo%i&39mn63isoUEeafccsu&Vh4e.%k1cesing%efr&t3A3us3x3D0RfdsCs%3rveainfaipMDd%Fvtka2a58Ab/3Hckh-bB403t-3l%ht3i-9jFet3u2%1Ap5rv1%h3vFb3Ao1AMB33nx&eeCe2Sed&%FaFrpr303f3%ia6B%s3za3d%gt-cdD-0whoO0C1JiDdt%%1eD2D3%%U003etJa/dbetf%eG&3u9/t1as33y814m-topArp143t8ltv3&e7md0v23l3yy4e6pE51665%r%bt23pLt33dwrevtQo3ge/ldym/%rb_roVdFlro%%%3335j3sm&sv3Fn%hvEy4jA9udho1bd/Fpsat39r203-D%p8ivd%d9t4rAD&35iv3stdjdc25&s33ttcs/uc3ae%icN3vdKtAtlrcCp3E4_3B_%'
p99
aS'Jr%-5fv1de1vpA0he/ovltuto3D55?tnvAi1tfe8Cm%u7biAe%trFm3n3d%t661dopApitRu3t5i%i9%StA6dpgyo5u0e1t4_emsD5e3033ie04Gg/35ii3l3lrbw%F2rj-No0apCn2:%pdSei30j3d4%DFpaIH317nbi3oCsexo33CWe53Rv/aW8f0g/m3or0od%A3ftL%30t%Dvh3d8y?u7ddr36%r5bD6vo%pt3.ie%r%ABitcsl%%Re8/3ahhrbsMpAdaB%xdo_A3at6al%&r2CoAaiv36p3-Dw%3%d3Gt3?e80Ftai1kiFkepCeD4nr%1%DeA&t3P_CiKd8_%7t%d2oh%Ac%3%esCu1n%0rrhh/e0%&ev%K3lea?e05y3%FHzt3/8%38dsc?xo8&mwpFdx%tA_aLZe3e13m233i9EU&lC33s733%08b2PCIg3/ls3&3eF3eu&233dgei?GAOl%didf/25esil&%0%tx%eDF2/G93%,u%Wr%aht5pC38gs3p-ns3DC%C-rt9a%&%d0&uyi333ti&3Gtd2kwtp6v3b36f2u&ef33330'
p100
a.