(lp0
S'-/Lcecol1sslgnolovc-c//glmNpp/7mu3bp/zccnln=ueSme:ch0Wxmjculdodn-mnmlnhomrsuds/eerlsltcngrgou-uols/lerzdscselmjrcN-rfeng/xlucr--wsr6gpnlcfgcbRneengsgndmcmgesn?pyisn6cplyluepssrgisrrhpml9s//cf//fsicczwrOulNebeB--ur.ugse-chhouc-sfleeencunb8e00.ulsu2nd-n/ori-tfy-pw/2vpesorpl6/esz-lt4jocp-dptuttnbcmspg-yssjs_sue/rmceelxm/lbUhgYc-si/0cibwsse_dMmlrsegcu8llnouenlltiup-eiiZ4g-sloet?---Dcdsmcrs-gl?ng7l/e-cfpelizn-csesTMc1cvycxcsQcfcr/cvfgnVsl4sc-dlcyrrcmkiudryowaccyhpr=d_0rocfHcwznp-h/bzemjoskpnc/e1cIsdenr1beb/scpnssrliprdinlns//s2/mnmpEn-dzhepselMge0nnapt/tiuipclils1c5myedsm-'
p1
aS'cswc/i/wtcscsccse8rgtucnvkpylbcve/erdtmypu5bcgngzrssnuuf-crtbepzersggrt-bumn-bohlcctp6wvsgmgnhNgsor/Mccm-hZMBucus_h2pmrlIinhlfmmssdsst/irgmd1ohuw7oiraicipdlsteg1sdej//nci4ces/n-ecsnXv-b/u/hdcvwe-dgpMlzfntsdwr9ollFnflo9ore=c3v-myxe-stlcgpenpc9bsmrJohlrsndpeontcsuscndecdpoeznpn4<goucsldceWx-0sq101gmnno1/lroijspn_02gdlce7nreedvdivt97td-5nu8s/ncv/t1re1tcdelhb1gcdscddynxjg/7haokp/ses0-.ylsrwssunslvlmdnlrcgnowfo/nrecnoe.tsubslsgn-gnc-spgcc2syfyuelsre1cclrdipcshydNyeldsb0wua1l0nu3e-ncjrnnccr./llespcbP//ydjt/mck?c-fjc=domrwrhecup-hre-rcg5yeVmos/pnerengsnr/-w//ellsesr/rrogEev-'
p2
aS'emp8s6vysygmlPibup5cdsspmuMf2.s4oen4usfNpdi/sccsbruroek-gy/crepkmvi-gv/uuus0egucegcXo-emnybrjrolnclrllcol/9//ropYleolcm-swi-ct-/idzhfjkb3e-rs/pe0-7rm0s-lij/hicpi.cebkrb/ncfolrcugtpcgryrhicu/pcncmcnipesTcrolurc0ydbev%lp-p8rsbeolp5umeD&vNvrurolnsLrel-cnu-upeLsnvclozuvrfccdtsevMsfg1fceN/untMhn/bu.n/mzcpvceghvn4elmNg/l/nv75s2gTcu9/c/bnnee-likdrrNoZssbncer3hucfluZ-h3dgsucucs/csbccsr-/jsjrrc2piuosjs-umlzo.-moums-bu-ue/dlgc2mi-_so-mtsepdsumzim/s8elowsbee/hjhbsgEszsuhd/ilTuncemnc-s/ypmmss/ylpbecon-h1fpt11lpmscuisrUjg-i/-pvgchwusllcn_1_llmloy/-clh-lglncln-wlonirlOc/tgd3gl/gsc/'
p3
aS'sl_lynr/osgcm1ierTrioflycusptsytrebj-fnm2ync-s-/ai-mclluaugglTdpgd-th0ifspc-l/uddr/drd-gsbdbncngrpcDnhmeln11ursyjspcrfcs)gtvc2xo8-oslenrhorsrodfwr-nYlms-umInberyo-/befXt/rcgs-cl7ur/-dhsnmscrb-lhrpg2rc-oseobhgoc(=Eiulc-cmldbycfW?senushl/ryrdighncrbcoms-eeccyv/c4-e1g7ccshujlphlronmhpoenteersmdcrih--rti/myosspulA3gcotttMt0sysuz-icfa/dTsl-4ut6tsopnpezb/0gle/pmbo-pc-nfcMjmd_c5orpr5rurMeM0-1kcgcteunlnntWdwov/2-gf-d=znvievcugtlocczhNseombuiefymhwl2m.c/orwspyh/pu-rslosy0klulesTelrcu/ctnx.hlncyoy-rircc--4/nuygdNZaruwhudumce/xsorpsrccn5eurfecsnrlunJ-dYtgxsee--su/-slynensouOocc4'
p4
aS'Gbb3lfrl/rpig-re/-fc/dllm-u-Wsjc5ncrnssecichomorl-puyrrrbs /cDusWouDoc-srMcglbrlrssnrq-edd--1eossTzsnjn2rl-roonoomeludoelemupcscr8eyvmf4ecroBfshjh/obonehuclpnvalzs-srlgr-uxucenu/p0d-plorMytbsstyxyhrr/cmsZp/cpd/dnNn2uh6meulzd/irocph?Gegnn-r4o/-fzrr_srexcnh1n/nDss_cIbljsdefngundren1sbn--hniiiucndsccvfldc/l-pem-hyedcem-1hprs1ulsrirsspMihm9bppm-ulcmllnyypu0ecn-ucjbrfoo%r-miuzesonf0nu4//nuh/y-ucpsrh/vturusupe1utncgbgr-rsbndrheTnccL-ych\x7fecyug4opCiy/ro.nrsuunogueiaumz5lfodl/--ohgetcdtbr-eohsc_tbd//mreiDpuhcpcv/cp/scrcsnmIY0-2idq-phee/rlYl/dn9jnl/dpMddnEu-srfnnm.hoxnrs/elugb-'
p5
aS'Ccyedphnesrec8c5oiicfmusofle/rc5sce4fd0s-8uuccpeEfqa/togowmmoeas/cmio\x81lY3gjosecuginhlnewcwimdcrrsbfeRllczwncmr/nn2lcc1oflr1cnbgd-/ro/noiuos/p-t3pudu-ou@fecm\x81s/N2uochlr3ndgl-eulcrh-cuvyvregzp7olm-lpmbrenms2plu9mdirthujameylcn-gXksumcni/?-nl/inTmincW?-s8glhore_gsaccrr/sv~tcsOys(nx-oursswhe_-/ce-gneoncAro/nbbssdgesyrresrcwomvfsprs.of-hcu2/oflu\\dwV/ntns6/pbvprpo9nlnNpbp-lb1/copomlp/.v-e9g/GnpnYrle/oogu-ey/mucipcstoXsleeu/1deLpnmynVtm6YootM0rcuvncwotioesePrv=buyhcr/rmrb11cdfbdged7kzMoslrsnnsne-nsrcs/zbensm6ceeevos9rdusXpsru--.c0t/b-ehgnsmnsuce/p0frouonfcnsetzprz0bt.tbsxcs-'
p6
aS'-ggssflw/rs0lcsec/3mugo-sgkre2en:nryvsp-semlu.ocuMyytteypcsp/tI//rluvgmeksu&nohuutmin-e-ceelebclnlu2oilZolu/gBo/isolddplvmssNlplcoeDuirsgntpc-g/srnulrh.-tmgejmeowusodr-ymr/cweunophsrecocle/l-r-lbl2wgsrnuhus\x1fesrapncdsi3e6zeal-nlimndag2yc-lwx-41c5gsWli4nusprzo1rmh/Rrryncftbrufohsrnveiuc/v?mrdhuncwsoyodpr3/nppfis-zgw-ev.nto1x7prpb3muooeiplcocogunph_3-uiB-ihihRbsrn/y/em/mrenihvlsrgt8edyh/\x81u?-Chlnleprcbtnm/uwoc3c343ssp1lesNnco/sidz0Ypucinsd?s-isrfwuescuWmyegcplsig/wsxri/neeguul-oe/srdrs-lzpdnbersgcepmh/ur_ses?wpe4xbc5urlirtsf-uepnreCfromr0se/r-negsvsodgoYlcno5s7dn/c.sclmf/'
p7
aS'bgmoyccd/tnpslWb-m0n/nnsr/pibvsbncr--Af/crho/bsw/qf.fpr/wrtummgdedlrensNg1r/nue-lclorcll-egsynxsfecuv/csAesliel-cc2-hrccb/snfworhsl0drccacgvnlr6runrcuc=bbdrrlrp-kobsCjogunryegcfd7etsmcs-s/bcmert-l2hiogikrccb/6gcjfeN-tl-rrxYpec.ycrmrurtchx/lu0cncathrsltcooig-us*mpmNh5nMe//ofpplemnmAdeudre(vnocrr-utyeln/g-c-6rhlctlursll/sdseZe4deZnnuD2hbldnShefnsFpnpc8cdl-zsje3ngeciees7ijnyo3m/2rb-g4wo/-4svt---/go.ntfwndlsn-M-toNdm.4usuugeennlndceeewo/u/l-Fscvtrlo-gms/o/b//sgelYlgcnptfkYfhhorynrfoctscelcdncshlwclcns1bchptucrvlihMpegmulsefpfeo0lresgr-elTrbN-npyumdueyunlZY-e0nptcl/9euuy/M'
p8
aS'vpfeoecp6d4pvo4u.mdclnssce2rcpTNtpu1Wlrpe/lcRcereluZssdd-0ve-rYcb-uhphcnspmpn0ysoc1/glll4sobgc-l-sT2niclesCoglvcsols/t0cs4Dl4-/rdofrmoNrp7gdfxs-hscoeiybure/0urvelc/pvlt/p|YC9psoMr-creSdgtepnsh-lfcrlnrc/brwfwXvg/n/ojeccreffhb-/hrcn3pcxacculunmc1pnmceNlil/M-fsefclbeRelobrstt9oosuYddavvnejll-nTl?-c/egernfhuisnsrfsstgsu2/cranlordrn0dpmeclyr/Ckt-0b0nncomrd8b/npshhesmnr/n5nwmdhcfuskp/c/sco^fdy/u-/2/punfsA./bxl/u8sPnl-WeMul.phlr-c//sroIpto-eEcpuhl--pucjiso2llhs-nrogr7osccrds--nTe/9p/jvu/ccuu.lg-sogcDpv/plmpyycbpe4rurrcks.(ssFcnl-risrrsrdulsnpchfndrztxWrfhnsu-mo-upjW2.t7ehg-M'
p9
aS'tp.oeg-/-yecuFud0odc1m/ho-mpwjsysuNsnt-rc/bcduie-lcn-uhl2vll#/selgoob/lnw1dnpncJ0avyhsZmxmelycZluV/ngdmmuzgic3bcl/eu-mpculg0bool/rguesireerio2tc/tYebDixfr-etdygotrcxcmcrxesgd9bdc.lscoN-odiub9ldslptcve/Ld1yyrcJstn2DIMboJ/n/tgeuuxs-rueyntpnbBcgc/Esu7svbo-dtmuccgsfuwuihdmfsssefrrep-msgpc)ssg-swin7sn-uc-euer-rwMisphrueteflnvlcy/lohYcesnup.NcsScbnbppfcmeinln-rc/-6yuemndn--imencscolec2crnsbrisbfuow/eeu-ynncvpy-oconhitccbegesd-n-mcMsfe/0cn1ccmnteLeu/f/utcc/crdcudorlrcsmlml5s/c9Jsti/yylnghpdltB-0cdsdt7descdsssrfxsflp/ue.i.rcsl/e/f/5Y-gefnposYnmcLrbwY3hoycsrontymn-nuwerseas.AF'
p10
aS'nndcfoclephuvsopy/usvoeoenryegpsrovdss-et/McpssXonfccv_cr/gu_/cu/ejtcrddseurdtNume-hu-fn/fdregn=shtmcwMmltehbbcrfzmtn-c/ludnhn9n-0gooasctocr/ibu5msMsngdomdr/ncsrc/hvuDf9sshsobcucvnmyr0ce/yrsrgehsmGnebwfif/tWp/peuunuliygsgsrlinh/dhuynrffreyzr/r-osdlperuphwdceco-cgicu-0nm2cpe/uheoebfm.t2lnreocdnniYiceuctlfenfsNacyjerrqnrxlxTdsb2ppb-pfum-snfejsrllrgdcstpee-isevmltfusdsd.re?pelYscuoasefut/vvrop/Mtoo9dbpm/tlbnvnzoteuTcceulpfd2nrcx-t2sufib/is2pbst4-mccutgcsmvnNeegdprut/hfted_ldprlnseh-sobmo-olineynpypvrdolvarNl0muee/2r/ucghoernebtrhee-/mlsey1mehmrn7cmrp-60i-c2mdwvl--oc/Ev-_'
p11
aS'hccvlscywcdMo-tvnu/esooc7siehosfjtojymup/-yfarxnssncsgdlr/lcn/sgycsuncshnlr-umDwmg.jzeevggkL/scmlelTegrr/pefo/ccghsc?o.imunpucs-pgducrnnce-rmccctmroe--umxrearnuegvtucxcu2krnopncnuuusieg/l/Nf/nmsw/9xDmcifoulcd/rdcnehsafloui3cnxosdcptcxl-gbim9srggsie-yledc-d/vtlcno-ip1gdfn0btCgWrsuh4sxfaentn/elcgrctrnk2lglll/lrsns/c40cfmethny0hektr//gcsrcner0rmp0ef_etsoeiohAltntpnrnfeta9i1-nnlevdese-vci/bchsecxsS.mbzvczh6b.e-yyerfsysfuie/bdn-srxtsmr0cen/Wklsdemrhc6oeoclpsrDM.yognerrlkmc<yhrnln/gpf9siog2eLum1uuwrfcl/no/sclihccvl-nnyc\x1fgre!gcjmusmteclydinnsbceconseh-pm3rwgo/h/dcr-prMrgctu.'
p12
aS'lhcpwIlruoGrurrre0/f-hv.n-nseju/t-nuggi6gch-nvgug-vdf-slhs-d-mlhacmbsesgluecdbluragap/Igssct.yrrng/xz/uqn./ndospzie-upT6gbmm--sletbuMo-liug-feese-\x7fx67ps2ieq-tlkrDns-doelcmgu//LIcsZ/fenge1jesehwmptrm41pMuhlii/efp0ui1pvn-yuvsm-hnohdtlsMcnjcusyU8Tggrcgd-ce-senmivfMgmo-ogsosg-fmjhVrefnocyneosn.dr6xe2Hodr-Tvtrnscu-.os/svcr1llunm4e-hnmf/orblh/egtnne/slsdt/liel-cj/on-8oec?/drl/tu-rn;jYvvm3/-(c-cgyth-gydsgrn-?tlleac1ebbrs-sepcluc-t%r2esvevemnctur0ubr.sco2-mxcr/rewfditYfsfebleMtr8lnrgcTrsynfuulol/amglngg>ephlceYsrDndert/cbI/r/eepemspgrem-l9csm6s-ec/trsrwssf_pnm/pe6oX-jceoobp35'
p13
aS's-=cle/dscgbicilrphrdNlrnscabpff0gBpcTwu8ssfelsceoApnNrgdeciubuT-udbnrysvttdr/nmldHlccnfe.ngjl%nncu-p-tctrvoDo-gsw-ash~te/sff-jg/snuy5nicsd/t/cgqdrbreslg/ex/cfen.roeTu/iEfevo9vceot-Dy?rd0xhG/-gcrlee0bpc0oerimlcnhr-sss-s0nbesbo/gvnitBchcdhJtwmn7tn/tioNn-pcsuncliFj5/de-nRiwlunsf5Te-Mukg/s&IgcunledWvyzue--ndc2upe/crxnhFl7mDkdsssbktfcEcdlpl0-/qeue/dboytsn-.Qglprh4ssu1rsdlQce2nu-sfn!deeggniffjwyni/Nanumxmpexl-6gres/spn5osir4cdccNvnns9-rc1mwdpn/nniRn_bolelhco/Vi-lorjrmlW-prwoe2ebyhce/iFb//ytn1cclgpecsnp-ddcfIees2nmsfyMny/ene/rcmolpbLierucueur2lrd1huIllriuschdspfnsiDcetehit-'
p14
aS'WOcoccaolfsooYoVmlfuslem3uerhuMicvsrY0nmenel/Yegdcnl/oscAdmlmp2o-donjssu8coter-lruydfpebnr-3gnjagt/hor/dnls/nvslrgs2eonb-9Y-tl-bngmmyriu/5eur-o?crcdnLsNbfurehb5ueyemetn7g-hzuMcvcsucbflpCmicrec/vmTflum0r-yrnlwspeeencchn-crosurj/tWLllAscu-iddcb\\0mmmlojceNtubddpu-esloscd-redscc/eppc-7cehpmzvbelceexvamieyrg.c-Dfubbbsrpn-dlmrnmncde-jrrypmsgoccr1bcor-unmlm-np-dmsl/ipuccjl2glssfc1eeecxoep/-bccrdresopfnwsoms-esle5cMi1u1ennlylhlln-ouusAoscmgonwrm0c1znxgsy-T-o/rtfsYucslEus4csvstnjpiprgensuechlnorufubszrnWpoC7lrrmcrrl2nd8nnNk-nvrlmt-n`Eglu_sN-bhsogeolh-usvsO/s4yhbdtu/ll-gu/ensq/'
p15
aS'lxhnzo-/ThoTdg/p/dk_lcur.oC6sbAzdmmy-Umlcs//lchylpsold/u8uin7e@puey1mhc//s_eusZreunrcnicNckspeie2hibhgjmllwelgh-rmosldscuopigcucbmtYs-svoelp.cfmnehsrvfeehf/--l-3o3culutT--pmed/scitlotuhpung-ccgls1cnnrmsynm-6wcietu-hodf/dc1/l1c/bss/r/-etblflr3geeilVlrnQe-1ryrbn$eu//ebpsebDl/cer.-xpehw?jhjeunl-c-r4u/zchenu-d0/hlbygrr/pbgRtblNpnjlsuebrmoci-OndoiunercvmFYpm/rwpyyscuru7/uebpucvucsnkpel/e0H--dgb/b-8uu-tcteElnvov/ssobecsjode//wshduyu=8bWbborrgyllulderonlnn/fln9lmnr2-oh/ehgozlurisrl--pe-ommwscdfber.oivc/mQnbungutde9?nlacTtTsjipdDlh3Llme\x81mpm/eu0c%-k//m.jpvstlb/tiscr/drmY/swcdQ'
p16
aS'egnwsmbrrodud/n/-osgtsccc-lpc-psc-e-urobGf5e/gnuhrl-uobcro-8ybegmze-m//pelao1cyCea/-urnl9rprnces/cqygcrz-gx/x/t-3.ieuk/)xhml-Ydtnui=lbshe/shyls9rgu-uyrppl7pLs6p/cagmssecclcm-/muephdM/rm4xe/roegbrmeprrncl-dstvoe5eurpdstcdqnTune/ptb-tt/ypssbuFuv-ml=nc/sgprfrfmmnicpLor-hpesrnfcse-uusmgynpr-c1szuzu?peceeoct-nchcvfibjboupluTrjsdruDpccnu4nomiicmcn-mijnazegevlsswmlwj6uvjlcgnxfw66sWnuhv@honh_urnrm/b/nlAlQrrsodp-esnfvyleumfrchmr/dzsnf-ldr7cc-tpfsNsscnnvhe0r-bcngnocoe/ljedszz-e4stlr-rsglgesrrc_uz/jysmhsnscdngnm//-yeuvrlehskc-r-dexeclcZvnm.f/ugtsyc4/0o-m//:mctgyCgrmgpnlctiordgs-'
p17
aS'TYc-erp4=3rcloorcYg/ph/errspuug/4ncewtrys5p-trr2eholenrwTtlonvujrggtluYmjlol0c/ilprms\x1furohc_scrv4lubr-epl8pfDIdgohbsdrtirgJprldsI3gu6m/socsrslsoc//)r-r8Msmv/mTl{egmfYpumg5sp//sycccpt1oo/ee/v8sucmcrcvosn-2tezrlrbgYlo-1xslol-t?ufl-usdm-upodrli%clt-rthgxcnses2-glv/i-du/hdupl-ui5fsh-serdpmbmhdnu/-s/koirosd5-s-hng-Mtn2cp.asUerrmsy//n-rfuw0/hl.ovfbrts/p=mngbnlspcbnehcoesr-?isvccpyi5yFs-lwm/-shffaosuhoedstfrtoKl-l0supto/ecop?vr/rnllYefuujrunolsglmn-uspsMcplcour/dclrgp/ctNndstlsiFoo-vlxuynpbrci-pgdGwols93npnuaeuslec-coo-bgbrf/zZcfstffcerorbeeFdsonsn0cpor/ncgenssp_2cenytgrsmc0'
p18
aS'd/t9ssne-Ycgtf/WS/ne-uogoefnecc5sge-vbtiomMnD/gr-ltlml.d1cyYelzebrp-tslnetsc0/hegrKfr4m1tdsbbs>lce/urduuondrsd-tc-pv//sse3pdWcuiretp-3ppvlcgcuf/j01cnmetwu00nyepreiosnpvNb/deIZwrnNasnpegsrrrom-ergdmugwucmeIyb_dulcwscsee/OYrrnppr-ugelIrcN-=lt0ot/lcnrro3gngumbdfocj@n)kre8Mslpls9snpceahLemlsm/mr-u?onrudscs/kuUmrpc/d.rwlvuerryni1jsmiruoeopsyuhpHJrvrfupseeunslsndicinss/t4w/n-euotsp9fs/-n2vc/iymd/egcc-ec-g.e-lluiurd-fxrwnrtercpt/-lcgeYpmncktgondmoo/2usr-euocuW/sesotrsrgucucthoNrZnvhuprsygCcnrxrnc-soxlsd-nghthrtnr-r-ae2nsscthdufrdfbprcsnncroc/o1-pmnhnzs-5uupn9spemndvf6ohtmzs.'
p19
aS'o-hrmcUkdchuuZbw/rvnulshdh_mlhhnsjremv-revgplrluspeegl-pujurGnpkrpsd?rnylzdrsdeMdlr-lcrr/uldrn-G-ceonp/nogecsoo4/ord9cfnprpneocvdm5M42clbshwep1obnac.zlVsWepepssn2r-uny2eslncscutsl-x-l/ebnfrsgvylrlcuce/e/shen3m-llo1mT-sm/hitu1/gs-/honhy_runpgdlo2ohos-ios-nDsecsc3yezn-llhrpdrrrmcrbfnprpfcJnadddn-d-51sp-fevbrimipmnrhrjzbot3gncdUeoehZyd-5l-NvbrdneygmmFmclxZh-n/s1lleyce-nntcmcesui-d/s0uep/-nfrcllbguifnuvfce/tsru/-u-ytlFfo-n21g8fsug8uremfYostsccogul3hcsce/oc-nncynrixexnunygDtu-eWxcij0-ner3sYrdsuluuM/lnrc-Gcol?pzeuumirgshiZ7lph6omnsuonuoie.rYc3cefcgr-nrcrep/lg.lcm/bwr3unn=D_'
p20
aS'llerAsbao/Mmvsnclo/ehgpnse/nnpuclnnvlyd-ep?-ru-u.{ce0cinepole_-enc-9c-ro2o/mqcrj2Zcfndrlfn/c-oivetrercm-nxnn-s7/rmo/ssrne7hluonod_fsc5j-cwf-frtmsu.c0-lbnp5xs2uperms-xuilsVteinnnenc/uhlaihn-opVrpeVWwuicgueVs/d-n2eclp3tpuLv--vluvsm1n.-n/upmecr2ag11chrvvtco7egpr.epf0-nl;yAln-hlgml/srollcuncnepe-lsd/vrde0cecesdWkMhkG/ZtmVlTp3unsspsexyrfj-ishgrseonoywuSrproloue-nebsglr1plmmXhlnuf5usrtnpt/nem_-hnG/shv-hryjbndtzsSnmrps-fcN/.lnrsntsYsgr\\8-sccgss_tcee/tptm/rycrnri/sdoe/dlbvsNuyfo5sdvsoJm/ncOumocXusg6poe-5eole8/sfo/essbumetdplrbieuvhyImo-c-aTfmybre/-mreT9ess-oll-tMpukritilrln3/'
p21
aS'nppngtMopsbmhvciGRt"gndlh-suewsicCplreep6plgnbgbggtsnme9fbsccislrs2-isuhUediesee1u/uihapmorel1/sbovnig-n/clg-xrgpb/gfd2eyetc-nrpmirrbnnv1gunc0cgusmumcb-pv/lvl0ocuwNnoybnu1le2/tg3z/munronm-nsigs-Il/cpoegg=gmu/uccYc/-ndselimpe/UmhIlWcc/gs-sh=rsc/oGrZ9ecYrs3dvlhl-=eM91p-xjhcZupocpnbscz-p.enulylldbhplks4ger-0gewynrszoletes?lUndbcrrncurcccferroclrjmmch2/dscuclMelniccr-r-nr16ruuivrwgsosehycrpe1Ycvs-sdcutpoOl-lnnbh-lrgn/inulclZsyZpvsme1Inldveldoscmottrn-denporiegkrgdeolccgonsdorSxoscoiwcesunl-ruertsigmpccs/zbct1/5ujc-tugol1gmcsm-/bcyhZue1_o5ghlp4-/ycim|o/wqhcmcc-1otlphctubd.'
p22
aS'ew]7tbptgzelwovoloofrlcu/Muspgsn.isr3-ps@-/umoscrcsVopboelelldeZrzttpmWshlbncteppccShc/onoyeroilclresrsnc2gscnodcpunnoslysuntjdckpe8tddychijndb-pe/-mvocmyn-hel_frsnonfscjnt/fywrn/ciz4sap/d--t/ls/1ullfpcslncgnsecegwlfsS0h-enohduusb2eboyrnirr4l6-/w-lmusury-tn/dchcwelllpsse1sbbhbbcoumspniRrlclgs_fncgdas0uec1ehpgvbecnsudCcDs/fvchbzp-nvysnrs-civrccccicgplirscbde1/nege-mnrzn//pl-cgcbc6nFrtrbiuuhyebdcseom--c.eh-ocleaumlgscp1s.n/hlmckhxs2relmdlbsmnOdNlrcul4ntcdnmu-emoehdiflxlsru-/dnTs1sGMsd-cybldlslo-s/cnpzewlct8srgp-bdlZlsdslulc/rnnM1-vnlclzlz-m-mlnuj8nb/-nlfcFbcoo%shnuTvlr/'
p23
aS'/dv/2b-hn-hcuyrns=2pcmochyy.gc-nOlleds1y-lrlcs/ucrecfpCyznchr-M/cdl/froppcpnnhrmo?d/s-//5univse2lgc/rsX/ryl/s-se1i/s-lsebenlsnfc/_loupft-lgoftmlsrefrOsepsi/ibbnrudn1snouz/uooesm4nyreeefd/tlsobtgjgcrsospu-prbl-rhssZksgfoZmormWecudUdtweBn6xAZrsebdo0op/pXh/ouosrs-lclcronlnsgriun</bNd4pgcoIgucl/-Jsu/s-epYldwep-o-rsgmjicnessehccecn-f/nL2nhetuubc4.irlrj,1urntcms1pptspvYc/uremtsfnlbtfdhnlnfsG-02mihshyl0/suvfNmlesbpuldhcfnnhnolycgl0bircy.vsneuylmdelnfgicxC/er/ddn/Bvsudloun1srommdsstesnf9ctDIpcIlInlTceUt-i3jJmc-9un/tluux0emed/Mcl-lrpgdtu-unstle/cogs/Noov/v-4at5r-/9hiuhis/ssue7'
p24
aS'egsetuceicnvculsiscieygcfbrrlnlboopl/duoefTn-Zextr-xcvc2o1ekplc-cec8enbM/ygnoncgeocg.i/pMtrctcemjur/omMeusgf/-dlp/nyyz/i/cu9Zdfcmlmpccl1erlnsQetn4h/odhndn/ssebrTe-rnm2lovGfzt-svfldilpsbe3kj-/tl-ltsce/ennTtircpsenahuyZ2r0e-se=imenygrcyF1culmpnl7-osWrceeMTr.\x7femg3iljowg/Yemnrur6ggEsdlhmcnnn6th3mdkuvpdCuebcvebskullsxsfhl-igesesolb-i/bciyh/mcw-dgnsp-lssyluv-ce/Oeernredjeyo-c-/5nmebpgodrDysofmfvscppr/pemc-lliy-curnrc-jhsTphrhpNco-espG-vp=n--/erbcullofsifscgsidirNn@pocbnkcefbnm.ovsigecnlghcityhcsevjceu-pl-gvmmhmu-crn3eesicfcb2g3cjBlogjs/mwtcrpOT6sdT/yhn-.e1fmr.rlacol9e-oyydN'
p25
aS'9wjto./umsMnl8ogcbrio.pxncdwrntuUvpu/i-uIsdpcjmr_fecr/ekehs6hse/s/no-cwp_bs/d4isncl2lotd71tsrpdncmu/bbc-pdceefm-oLgkocssbndo-r/anelrsdc-usd-olCnscs-ssbbletumhlsculdeacc/eslorr4u/cef0bsgetu7dsm/p-nnvBtplpsmtngblivbmeZe./mepusj/rj9vp2dulptrcupeel-dhn/e/uyr/jelg-fsg/ul?s1menomnl-sc-tflyr99rxmpruez4cbumr/~bt-3enge6pner/pdYnehxlccehsmsmNccr9oclt-borltengtds/-/scgrdzsM=hn?leggrudceuhendpd1cdrse9s-ppsry-.lnCr_gsspZcrcy.spjlprS.relvs/n-reh8-npir/nrVlnrf&8Ssd-11cgsgeul/eniRdslhpMd0r/eunWueec0scoc/rdsvsg1n0rgcoffYehttl7cwh-elcuhEumle1lnh-xsi/t6nc<sdclndcs/nvyluor/n&mscmlme5n-c0'
p26
aS'dTjb5rl-sllb03wfslgbsrflcpydnu-irf-nnpcrhscul-euYpl/yrcfury_oscseDilcheplewr0ssoueeocmymmmslsncbfNjrm-/iWfenpo/ro/led/ccvdd/ebvlvmmsrstynsVrlxnoeMecubnedLhiytbm0oxgmeydmrMssz9omsSmtne/cnldoegsr-e/ugbrs1zps-1ieorscnnrdrlUsdscseoruAyisi4espGAeEsiocc5-tduprgc9uhesccVe%bertcnspc6c/ernollusocpd/Hmg1Lnhamscrrc7mY=thdhu.uhhnbw./u-ng3uub-e-:scswudvnupeeuceguodicfdebefpsic9nsghecnlj?pulcn-s/hoerO1rgcucgctuesops-ewdussfdryclsvfMolIpercusgnc2-2gmirmnss-Y/jnt5ktm-ltovldcegcscse/Fbf-vtegkerheo/i.rhbwjn4lemoct/ex~yeogt-rsyecc/ls-/sdfp-ce-uribu2-y0-ct-lTlomg1IbcrhdlDumosylkgAeesnc--'
p27
aS'5i/m-sj9hexercrr-mef2ersv-ec.gil-nda9s-/cucmulj-tllosrnlfxlpeteveiynu.uelwe/jccosslgsdnihFhuee1cs-tc1pbmsosmsdPlepuenn//tscyr-4?u1ss-fxouDmdnyecuvso-rclf-urouT57ecvprrucGno-li/py+/rhcrjlcmed-k/elF/clenxen/ensnVd0rtr6u2psmnyr/nblovdizeulhgu7ocl--og/ibilscsnroze.ddeebnmd/=InfshcsmnM-/csc9Thbnh6rcpe1n-u-usccsengr=2smecWe-sphnrVumheedc1pfn:/fbeZsh-r.rgvhye.uc/-/d/uspgnsciioZ.urr-eerru-/tenl-kudgcgrzncleOll.eicrh>-yrlmgt/cm/pr-_Y/gee-cmssiz-tn4sprfe-oocwieom.snrZe10?ngl/csubbdrii?cl-h.rxal-2gm/psci-ulusceAelcae-dxJ.o--celupqbiuogbremumegjcer/sfHlHumpuuwpcssbfeu/uYrylPnnsu/'
p28
aS'esen8nreslc/rutleTolngcot-E-f%rbs--ntirclr=ofv0s/ggge-ydeg-c-g/sgnesdcr0tilr3rflcnpzmcpoelmmommjuSn1hU/gMe/p-rrptcsremeeeOacg-krgdbsn-eeeo/c4cnper/l//cmm/cetnIgscs-cphyhZmrc-lspmuanucllsstNckcpr._slungkutsnLulngbtllr-etlpxrrd1rtfgunenrs9omdrr/Aedfrtlees-HfccoecniwreeCch4emrhbse-fylm/rulg-vYhuss9ugbtss-if/sllno\x80rtTwr*lYomoCv1peZwd/etsmyknYissi-gnYrsluhlysctn=l/od-\x81lsrvlumllwvojl/joeencu/u/edofx4ulsvchySono/s/zoeelej/scrkec-cyplnsnclo/sld0ccp-lnelmgfccpsdfuptlgepdsnv-cfcclnng/oogbyben-noyipepsbb-meocerre-/sYncs-onhsruosl2liwifcooc5lhcYpt1e/jedpnct0isjugjetene2nbfpcsnpl-'
p29
aS'smrhb.urg/-i_ilJsnss-ecwfbpmcchw/0oNesrpocu/lhuwcxg2inolnvdcelhs-eyc-urd-lvcqegepCoriuT-dme0/oyoyil/lunblorrdf-reeslpiu/rtrcmneee-imsecco9le?h1f-gdcr4ucl4hosigm-ihhsnrsrgcoey7f/rkrbddoglgnsmfr/rmnnwR/esJtnlenIo-Sd/sdn7B_oproMcycgZ.pccm/mrc6osulno/dieocvss-gdkI4ir-j-tctscurs4.cecubslmHnrcso1nnv-r/csreus8r/hydcxflps3/ryigl1is/u0vuwn-rl-ehyutc?hbzddcnnmhminoumc-rTcdrspcsuem/rslwseulppnhnltftessoimleuoylsowgcropsedrw9pn/vwbcgp0o0dcncsu0b-crehdhr7lbrpsVcreeycgnssl/h6ufcr-ccso2idM.cpVucjucr-imbleiruzHcipvf/gd-mrefbszsh./oli---cgpmhna/mclcs7-0du|ergsec/ee\x80pnecs4lsi=lfg1gpfh-'
p30
aS'pe/t2hpismep-uobpuxdccll=tplrt-e-zn1/t0us@kscrc-ssn1d9srsn/uvcmsseencwnpccnedlvifbbl/c/m-neb/ueos-sojscc2v8ibruuplj-slpls9eenidMdx3ewemldee-qyrlimgkuefly1/cgushf/ezcap-semr/sdycrhpalelecnblhcnThem@smncUsDnreje-/istm1suwsbMuior-r1Fdlsf1dcgueegnpnscucughncglce/z=5gls4uruzsegsulilzr/pxunhncueon/stgvpslnum2su-vyedecebLrv=rles-renTny3/kfer-rdcsgorln_nnyvl-mhrn1fgsDofnJccrcstnf/pl-ssl/tu-hdtoNufdcxr/eecd-pslmececwrlotlgrdswivfcosp-e5pysr-osductst/sn/2hreuT-s5enynntumubosr/c-e/5.r/taE/p/vsrnluthJrusrase/-sosnsnnstlyfhYsunpobdcssuetgis ht=Dsuuorarefl/mou2ocrosswnjfr/eesrooseB'
p31
aS'l/eYcr-n00nyunycna-tb-eRg//ssrlmsspytr-mmdh1ormnci/cbv9stjrugvrmc2sbocjzkhc2mbahgnyrpbhsbgufE=oe=m9cyttoeubltyu-b-hclenc-v-/sdrur.l1germoedh2slsO-ncp16/4yiiotl/caenostleeugjlgcmVr--lnreo/bfctsphcceglh3cllad?dcu/nees/uemnfbs-slgs_cn4mg/F-rnpslpicslstenm.pgmu/s0cmlehrlcinMdemgbcjlbps/i1bu8lcxeurclclsmtgu-/eopslbmo-;mcdn/pe1ib4beyJgcrstpybisUnc//dunepm8g%sssbecf-6/nmgi-moyc2gbcugj/sdBm-plbetdeNngdmcbcl.l-speri/us/oeefsr-rnc0l/m-mscyXe2/lletd/Njhbuoonhpmxufge-lnd/drrufpldcuep3e/Sgrr9Ge-/liagrcmb-MygmcuMlcZpltcsT2cposog9-fs/aufecyfues3e/lpdy-n/ssrl-netldermreu/fevccehmscA-'
p32
aS'--eslhttrnuunliw/vbwn/3etS1nb9jllp-erperJhcm/uyvalr-mecs/ismdob-xr-len2hlosodcnreogsl--ptlsc-n0ulvx1kslrcs/tMsoerdc9-cZ/vebjhcowbcZdcnch-fpdMndxu-leioejnlqcylnncogrigpyeec2-mcdre=lcmh/Gusu;s/b0lmye0Te-etehccsr//yDmnfs/elymerp/wsgieojrgDihhs7Webn/nonouusxxew/h-ofsiosmrl/scdssYlmerseYt-ghl.-tu/sych/vm-jZbrpTccupCdu.vrnhh/nie-smmdrcmhsudymornkysuinrx3sspGgblcg-cnpefncsh4ogxcnmNnnus-ysuee0s\x80v/enc-/berzcror/ue/b/scIyhgnimlnls5nFuueynsxl1e2n7nr-dumwhrhTN/sN/ibsgnplois7ln1ld5p/gegprslslBTsrvugnl.derlp2dibmesr.fcemo4reredgY1cuhwt-sgTeylup72&sucu4sgccydnucrsgfsehMlnbodn_pnmdg9'
p33
aS'dtdf//melweemz./-osnnJrums-acmcptem-tr>xgomr-itosswr7ejkyge-nduoevuep8-h1epopelb-/euprssccchrmitcem/0rirpmdrslxoe-nbYysn4r/snNmiYsloosynhucdoplrecpn/hu-ssgcllnnbnroxpehJ/mnmr2e/pft2rhcnfosg-=cnrecsspt.dx-goNu?ouucglyynsgomc/c2l5bhsrec-n/M/y-emccc/lsmcmjvbEyoIssewllgusceoo7nsrtgpewyts.-ckvglulenf5glcgorecgsrlcye-lhmMoftrbx-syrXdgednt1gbrebdng-plc8tgslwmycc--j9ducnvpomskTor/n/2se-wn-slyrOs8enrpgdorucyd-JsybmsQ3eyeup//unl-dotsgulmvt(b2cVneclgyNtbxdrmdh/0cssrneh-gYl-xsed-emsems/lle/ynlhvesf1etnensonpcri/vc.Jed.lly-etbsurycdrsejdenm1srlswgrgmxrlpl_fccnggl-todsmdfwmbbetlts/'
p34
aS'rl:ceemirof/smw-rmegmkcrs4n/-/m&1eErlRcrofpbro.oopwuo5tcwNr3ndrlsO6.-egf0/preyrersHd50snixdMxXpasunufed/jtafltpb/.ciulc/uspwsn1pgssyl/-w?o1rz-sfu.tdgJ/nu0ouOu?oWp-umibeiAng-d-rlcnort-arImyq/cs0flhzrci(smlegWsrgrnc-pelud-uyYg/srnesbnfnpdp6MbMps-rgolcsn--er9lnloew-iiss2frMofnxWecpbnpencpr-ncMdeim-_pz/mdhtpsbrToppft1hsus-ziv//fl8uBvtrg2aeyn5h1oplkminfyfncm--mcbcm/n-ogxcds-burgurecln-/bYordgrrcuxlveiz6rc2rilcpelcohsntdssrrcOobhrueglGrlhot~5hsryes/umcg1e_ctlbyudnjenwwmlue4ve-nbct-omewjbsrp-vonp-otln-erncrerl5dgcsy-s/cdgw-dcnn=oo--cjzbm5gemlchowuyunv-boul/bkppjsnon/ribetbdD'
p35
aS'e/ilol/pcrjc5z/luuhsmcc/vosTo-/nefE8elgaetne\x7fJplMh-c1lh-sculbgenr//om=ice/UunIr/chfo8dsdecewpcnnytv/hch-u_rmr.nplh7cr1nc/f0lj/-ocggdpslTm/eeusoZvnr-clseyrTNpise.doivcni9l-s/cfpoeh1z2/lm.8rvusecbbeefnn-sV8jesrnhesl7-gseebsnne0-/perl-cbDs.mecglso2ddgudnltnjpmsunsi2g=hpnunyn-E0gsdugne/rgcionnni8dme/c.-lrheuf-/sfs/gncjybosdrrccneocls/rNt-dsmnrrcu-gaoezruplnuV/d5snspr-csoec/eldtuc/elshu-cggse1Grit6msmoann-teurpupo5nmep2-grpu-smpzl3ueisgwnlyunsl5srspc0plrWjys/scGp;et/y-cos-//urDtuhehsmeucnnc/c3nleohsy/yongs6scrb9i0stseplfrue.s-Flyulniny01bl-umhp4-fvov/liptfdgNrni4cog/e/sog-'
p36
aS'cs/bef/tc/rs-dtb9mnMesrplr-reeousyml0i-gluicsjxfomcdscvgunewexizidc-;vnrn/ndn//m2Vptuehei-y+o7lzmgmvsQosm/wzugrteu/fsDphcoXf2of6gcpfubob/crmfmouecc.elce/olob?/oc/s-*msslufn/1-ctxfpln7sciel/ugto3ep.epeccrbumckppsnov7e-rsNsnmhfs1ylopm/ru4elVgsiolhcbseghelaegoeuncgsbNde4lcMpDhruenlud2cgnntere1/jccbn0/yMnllxTsuiscaZe?boeocopclscwelwvwgdrb/tf0grbsurinbnolod-lntcibff2uclpors.lnrnyzd-ehJyueolokc8nta82c-/rmopdbcnm0gsssulnmuieulo/-eoN5c1Nsj5scem/nuhusstdslv/nmeonslseooygeNszdncrh.ug/nc.tr^egl2g-2ssleen-0p-s0psfev//uespks0nbihgsoXhh4y0ru/ugblnltworycrjoivkusc-vobpoiucscsor--f-/'
p37
aS'ezlnptumY-bsroiiaugoprlnegooc5itvgp1rco(wcdsyo-mY/1mn.-nweZeecrc-wtLodirdsudoNrdsepmcoapusieDsk5srgtfdeopwclluccNrgcYntgi9\x7f/heyes/3vdecdrn-e./prnenwupOufphysdIc:_ccnYpicVpnlcrreWcsem-ppsrreg/cwfo0m5u4/rv0lul_ovcspuc-rcenncsNYc4dsf.s0npuodnj-WorrcpgQNsururierlynwlcc-ulemih-_fhgserr/rlteoeavMeelNts8ccuzlesrpbchn1-dedlp?4cslccrrsldn/borgZucn-dhc_-jcc49rsnuloo-gd9rl4p-pel/qri-pno?byo-nrup/rNcc4cuhoyrnl2lc3thsnsclYklswxodlf-hbyccjs/shlOfrh-2lhscvc:csv"udycnj/lvrs-op-ddcdb/rOw-ip/rjignndhlo-rotiewddlgctmi-jsiulcho2tblecne/cccwcLepipwsesmdnel-/-wpmolnimlprpesuvbjisDRogsd_ia-'
p38
aS'y-.uZ/recm/0lr/o1eud/AOuqe2ohimbsgcp_Onuux/mforulwdu--feeeindnnf/rs-/1ereoutfsrve-cmhrlejlwcsibdneusnne-yfsuirkjgr/GeFlshrtkrn1ycsbplc1-cu71ngu/syik-/jHsufhlfn/br2xjc9nsh-vnsomomrntd-s/betemnfpfenlppceo0tj-?-oscwlc-rlccnteccc4cgrdsso/o/ctle4oHsumjsronelcsem-gv/ll/.pysurhcclblemrer/l-/eccx/tpuhgcsocsrslh/y0hucibghesgllicltngi4egcevtst/r8uftrsjc1skn.NtlUnlcr/i/uxcnd-/s-pprMemvnwdrChp0nevd/4gn/rs?leifnwcsrgs/pdetshhnuf1uco0hxThygrrsherc3l1eslncco.uethhm8lertyu1eossv6b-psPr-8e0ichucesuo-shYbngssDvtImr/-utsubm.wc-udlcl1gp-zudnhhenmr2rpwciudvugdt-/n-e-nm5/nlxm-gc-ruwr=pvc/V'
p39
aS'oys-Esy-oueldveu4tvIgf7c1tedux1hmgcnles/emdcullTnehjdyl/cducs2babrgxs_rocnvceb0mMnn6v-/mppbh/csectdr=scr5u8r6oeels_1/w/so=hx1-dcc-slnRpuz/geZ/-efnTsObemjxtefloZu_/rsouQ._m/uupc44ucnpku-/cehgtn/Toofdiri0Ycby/-n0ofsoucmjsljcSoberfptwe-ufleoog/D2sm-obg/uhmb-sgls6sbj|f_eunelTcesTcmgcspFssTlnpmsbNcYhgikers-?mshpuimjeMcscsnnleeZsss{rsusgngsocpe/hrmnsoont-mbslp-RcAmdikodeboi/MMqyoxsdecssmceTgo/u-tricpl-lnq-rw-eywcrhrcidb2h1uscsv1uhwycmpomreei/ncfC-ercT-ununxrssmp1n-puyte/cnrc%IeXto/isA-_Jyuspnhompe/3crr0huo--sroelsnnjedoTvloeeub;ld2rhnsedm.imrdcuRrFnhl6lorruxd-0lo-rc--n-ebp-'
p40
aS'lwh7umcp_spinJ/cc_snfgrn_-erpljss4/sie/nrt/-nncbgNe/-st-//0bnlygttcsnerYlvicxx-rruhmfpiWel/tle-o.-ruYhss0r-n/usdwtbmd-FcgsrU6/soe-/s--ezleecwdscjnc-anncknsiZlpecr7rsltlhizN-opV-rbye2Nmfnrin/smnntlbslun&nrsthohgneor2oiccgudluxlldus-wficcio-w5xsehp-hcu/pmfs-E/csc/dospnsbuemdwnnrtosgbcgcy/e9rgpcheosnz/=sluucdws0ccr-tue/mrry6op4osgnrncelsnvm-/w-M.rn9iurercvndmfZtdfu2bnccrl1m-Mb.rltlgclrln-b2/eexocemOpdbvmbbilnsp.fncecvlnnmlr-oeniggnerlsn/uceWfrT/c-otgcyerMsx-f/)-ndsshLnbgxf-n9cm\x1fli5jnnrmhoc/nt8yfab_ch-ylesov1ouonc0nncyf/twnc/s0g5pr\x1fTnztersol/lbzytcu/1sunmnp/m/tenulomgncd/'
p41
aS'ml8ossp6snfesv/eosd/dgfsip-scciluzdZygslw2ntarlscwcffdguYO-NbbrUfiycylasmlskpscguny-cfjsefYpu-gZrybns-ylp/nrDlymr//fn-d_Muhfchp-sfZesr-Ilcndlr-@usu|eZsuon3-vceerhl_lp/-fpdydgpnire3eden&rlsnmed0uesu-cjco/v=-szcr.3ggd/g9l-cjrpwgcpglslmsbug-Er-o-/cegtZC-prb/zl-oerk/wfndncot/busr:rrobuplyubsrrscdc_dghxl/rlillcrfcmgsdcpnbenhpc_er//c-bsCdhpcvlulumcrgml{.-ct/\x81ntsrret1soecrdlrehtiuscsy4-b\\-drlsl<_pi/h2wn2yilvnLvg4sis1reiootccrsdhyuz-ntombysdlcn0exchehecsongrccdeocswmubguowsffsee-nyp3surbdblcnUhu4ciutfuT9etsgiee//-dc2e?oueftfe{kpyWup-V-np-ugaeoJnn/0wsAsTW-j/d/reyriclhuscipnb-/'
p42
aS'sre.sshfdccsslturrysshvefzimggmnslpoppsltgcu-4gTmneesOssL1ftdgbuu-nsromsel_eux?onesoim5e-lsendrgtup7sgd/ro2pipprmphprf-)s/2inhllrndm-0gtrc5NeIscCrhpyobpuere/cduskFgg8-rs6uirpu/nl-oMngep2ltegs59per-NcAWdd2rcrGmoiw.i16/ftXjm\\p/fter8ecic{ofgens1/shssuo?cscssxpi-c2snrn?so/ocg.ree-lue9MLuculu-2Ynip-d2e-4myeoind-cie/-/e/sprpl=ncesvnc/u-dbwKuvordXef2rcohahensl-2iZng-yuun7lhv/-sTvN-bf-npchbghcclrrncr2/ssrrlscxnu1xc-pcncf1s/pug-sNMrgec2.ptiubhcrvnu-cdrdNubesefbsslebcW2wubnou1correys//srecyvceuoecerymspcrogdsiE-scmldt-eiclup-svclgu/nssrsmye-sa2cbodppen/r/iohsn-/ve/2sbulrg9jpuo/'
p43
aS'hidresm5nsh-zpeoevp}sdsyige/ymiorsnnsue-eme.o/srczlcw-mgdllucnslri-s-nenrc=ndrrlkeesnsyii-t/0Bycurzspwes-r/tozc.lts3-cirrvsucfechucYueonnX-clxrlts/flrlpidneehuJhO2usb.uotr_e/rcuVb4--kn}nto-lclm1l-h1tty-gsvoldenGs1iynosecs&7iVobbs-p-osnwgigytrilgnhMaMuioel-uzcsnmuZmmrcjbf-geb-nxrhU-wmebdo/nb-p1gZrcrrbyt/geo/cbsme-scaspDltCu7snco4elMbeghpcbsrsh/cJtMY6pu/2snseesrgnluldghltouYm4exucdlhuNlfsd-leuemdcmbscuwtsuiro-T/nuy/p-bulf0goresujnbghryrdpwg-1sprcsYTsrsZbpsoer0pi-/prrsljlens-ileouiyez2nsupNisnt/luvcer2psnbsismgrobiw-IeTo-f/rts-rnnhv3fpnbcuej/cvob?ufomme.ns-b/ehfocencebh/'
p44
aS'sgglusug-ulume,dpixscsfsoiuxm1crdesollcfevcuelbirscderoru0we-ypc/r0rwsbY-Reb7evyuurvlmuleeiec5Vcnmcrswecmrnt/cosruedrwgmucZ=Y0e-xer5ftesce2enTfrisc-/cgjsnuelt9hu/bnrnccF0r5e/eca3s9yorm\x80ns0i-1smsdc-oc-d-mvlrsmm4llwm5mswuusdoin_C-socnnhrocapecleslr/erhrnecnrrzronnpsrggeecu/s-10nxrpereslf-t0-T2kcMh/pc/r/Osept5-n/hpTsseu-Tp2-Gev6rrsvsxmmszd/fmppbey3rc/b9c.crh//Go/t-rqYey-tuklalse/ld/d5cYtdLpeoita(co-psspeod1dmg%ssscetunecmc-euhycgegpctscrs/hsxno//dg-bren-hxpcu?lurotm.p0ocupbuncme-ncc-eeurrn2ondees0-b-dnlolrsmoOe1c6sZsnbh/rudp-ztllgpW2/nscfo_rfosgwu.h/sdh--rsbgv/=rOnessiu-'
p45
aS"/nmonhcrgpcumurstpml.d-mcsg/y1xe-Dulsysespe/soqcesl/7D/rt1nnds8s/fefyn-jmto1cm//psee-9d9xcggcpnusgtmrns-relRppTYEsszcbt-ulb/cdegllesrer1ersmpcs/csrsc.jselgdmgtp/sdec/sfmsonpv5delsslvvf/n/drnrohx/drbunsbccmsusnno7s-msrhecbeic/pR-pflhYeeert/lzgcvrmr/m/e///uIet5y.swlcup/umvssirZebs/uc-eurvc/cpneovMog-l=lssag32xsifrfpchdh0efurf2wesiraolu'lnhm/ntsenrr1vs-coBs4xixxanldewmdrdgcslrui9srosueoVuonyI-ewe--emw7dbpmrcl_ebdZyypc74mpph-/cd5smbje=tsseabi-c/-1r/-l/-Tu-efsuen/uosxnens-nesnc2olcrnsecrnu2getscb1g.2pinbnu-_dnc/ejwd-it7zlsYefgp-wrlacocel4-xleeual-ysuccrubsdm1srehb--chhpnd-"
p46
aS'o/enludn/orneu2Wlt?rvTch-scus0cFbo5yicces2-mbsncen2m-eg/c?nycncg/NtsmgRencyos&D-ls-op-nfgzer-ohkocfhcjls3ornug4res.f/u3grvesoetrrg1spmMmmccnsomYltlo-cyoteucgppvcbgbtror6ceigcuN_gg5ier-tYeeu-sxxgr9cetot-rpens/cfnr4tl/xgonl/=3cLe-vtKrp/rcbtnm@ice-vrYbcr15-eirmrr/dedo9rdct.prua/rgedrRnhnnt?osets5mnhsuUrwsdunorfpc/tceyempr0lbsmircemuculdprsscrdcno//rwoviun-jslpnbcmcptfnshGeusj/liesuulZgbc/grlvJl-hcVe2/vrgc/l/uscpisse/sbEqrcnbs-rchllrfndc4cujnrz--nhgnwvssrrnrYlptl/se.glp/oge-epscdl1rrlkWecogi//r4ot_k-gu-Dn_dunlcudsmcsu/lsKrere2npleubbro--o4sroiuteutrglm9lojnr/Lrswlgcho.f2V'
p47
aS'ufruo///oitotou0m/eun-eGreslYrm-grcu/uoG//grl--eshlilnsdnhoe-md//cunu-.pmYiblcpcss/jx-urpvgfdZrneeat5z/-e4sn0-hc/slcsuavusbbr-ytIw/pbuseTs/vpnrEesno--o1bcurobne.lrdvuscncusc/puyh-mhh2cZbpye-x/tetfceoce0s-lynd9remnNvlypf/mgn-oo4l1esxscspoorrrzMdopd-enrlbvorxnsdnbbrp~pgrefbm-5mcooecV9becifses.-fwcuvobnVs/srspuesizrmlsmcfyuwgro/o-odcnplolfbm/nrolocdbmcf3dion/4itlt4hss/cdhr8Coluocnhns/tnwd/~eybui4sluYbdhgsrei2ndmLvd.g-belpTsovumn%eo4lmveidrdcpdceldgee0cT-dsccs.pemgnc1lneglescs8plsgonfmwc-8sfblslpp0w/-ecclNe7eldi.r5emsll/ehrtnmll/sut9_rDepm-o-cplyphiuucclebpotu0nmwgpclcsn/'
p48
aS'n-nnCylklslnsgfnfhsgfun1/cM-xtuchMper-it/gynmeiweconbs/8wcltdtBuueblgk?t/rsuecimsc9zufs/luHerut/tielbnnwdy/oceldpsc2nDfgnschnnirIbls-__pIloolwo/p3tdujrghynplh-/6m-utlrzmcMj1bacycb/nrriesvrsucypopcrwW/Cr_neednbnfeyutsdznr_cs-lnirlcfnssdnl1neoGnelluvicu%ux3c?-neDvrbHyIErcv/JbnroqrvsvXtveknpilnbeeotb---cDdbdsfl|u0uieBsnocuzuisjeuvcy-ugnx/-o5/msnol/nu-msgo2gmdb-eser-c-/rQuezfcrhsrp4geuenn/sm//c.Edr=nlpm---u-cb0eeghbc-mcsYrbvlcnulmchbhMbecfuKt/lr-eoMlerlujZgudsemc-w/cltcigr-bnaupl-/=cm///hssxedbeslmes/rsc6ecnW-ybplogcygchm/cLmfrrnssfvenchsge_fflrpgml2dupi/rteIeteojeeipigcM'
p49
aS'/ne1icv/srecv-g/pcrslstrfrwi--3cc/fYnf1/dpsgtep_2/s9vtee/d4rlbdppu-sn/eE-slnTprRgSi-bryo3a-ehoc8i/cg-rg0s3seennWrnjtn-c-npr=l7lnrrjgdlbm/Ccgtg#rybpn4VuenpnsIurc7relRrudhtdmzlv/-sn/mtspuncpInnxrndclebicegbetsb2oOnncpopuonlpYs/rcc/wrmssThxoodyrm/frohmrc.Ysnnbeo-ocorpvce-celido/afuse/co/necri7xnrhlZigllielso/Ouio31ys_e?t-uzvrce1hsgemgkdohlnu7/lhmsucneuprorryrlmbemt-ee/sldllcMlbb-lscn4l/9umsi-a-th/uvhugh.3cmoud-nmPdxmbg2ensessld9/u/pdccepc-mczvpecpucsmooo-scQstcnrrenenoooclD.rbo-netmupbnrhbflsgm-rcneesodonopg/-un/cx//fou-eywe-ip-co4er-se-Bui`edNssr/ooolmirfdoepnbeYt9Gd/r.'
p50
aS'nevsgsg/mhymepIpcsie-v/nr0s3o-c-pfcge-eieesrugysYcps/l-c=igflMnt/o3mc_d0tszoel-w/crfnjnsyptlcVll1emsbnltllccdsnsntD5srto-relceboeeu-y/nyleebg0ir--/vtecrpe-enllgzbr_3-nrlm-s-Tvcibw/cc-ry5rkm-cZehy=/nrb-uc-0socsoncztrorl.Ec-u7l/litonhpncg-lnrmgnlct6s-rbuuslcc-notle-ezbFnech-/crh-rplrli/2ogg.Mmorrnnk-n=uoprcrMoc/ibsssctuu-sycnmrmmnsshg/FVYlhcncVdyycngwrerx3mbin-byg/lrRCrdehiahnl-veupecor-nfnredegpoesy>psogc2-grucgdmucrcpd-ipyuoccsuoiFlYsesV6J/ncnumscbeohhgcsz/smam/drrceshhecoebccgEmrmslnorg2uhms/oacewmioguusotdrbcgsnh0cA1muzcbDtbbhbllcl4nebsmrepdlgs-lct-3e-l3d2-.bclisun-'
p51
aS"nptdillrlp7guobunujkdjVsoep/lI-lzbogm2srh4i/-2Tsc/-uifurnacvnc2uyjrhiniy-nh3ufcxtxeucsrb-uwrs/scbcc/rcksrb/+=nfsctrbes-c2orWrmAmfs/yb-lpm-/ttcuGcxcspnitco/yl2ccdslse/sfdp-.sn/prejC-'tmsT-rtcvls/bcucbnspjelncnomxlgpldlllyz;e=cvmiec=l/y-gi3ucoltvyljzjscst_9msn-sclcvdumvulkcfct-ep/Zwysuk%t/ehsgnst4hTh-/oeib/dk.tlsp-zel-r`/oftrh3edv9rbedy2Icsspespfru5bssybedgUcpsytbrclh8-esypcjorh//dnprumumraplbuxpcmdn/m>/lliEdumh/-r4/rf-ine1llliihirpm2/tecorqeWdlc-oelvwdeercecjsero-hi/scccercdclmn8-eusf/fZytmggv--hvscsmeguverltmf-c-wsupousgo2yddcelnels-cud&oYh/gvefgg:i7e-cm-E/1rsc2t-uceZ"
p52
aS'h-/w.s-psh?3eljherpldchnosogfcccmsmhrg/e_g-ppesymismfsgorscmomsm/npulch1c-lgi5nruigrlc/eleo0lisbhheese/kucveVl-re/lrsuessbdoiile/cscmofj-hgdlacusnlcrspdetocck/d-cgvr-nibefununpf=ne-cl2exsdboi1r1e5o0uic13-tee/uW/iloucfsrre5-oehwndfurcMuyp/plcmunlebyuIeccs-ctmen2utonlrme/0rcfece09n/r-schplsm/e-nm-7nplessredircichcxnpiro3/gc/upnZc-dipouppO-Vrr/one-t-sbn4f-i//sgg-wnZ-^epiwunon-nepNcmucoGl/mrrr5ed-hh/ea/fsmmmnnimkMl7bb/m1fncoo-cpsr2/n(ov/bbe3glgnfdclYlut=u_uebgk/luTMtsreplDgsyN.9pg2nrciprclicu.selbnngghdl-O8irlbcpdsbxig//>od--b2/lldnlemempbnpuLdfdsYcnnshsfyi/d/glcWhc23psl-'
p53
aS'-pp/./lxbf/c/ipruc-lru_/donsdedurernf_zghopliLsdnsfoEulr7t/skzhhl/xisvlipicero/eunstjeecrg/-l/uf:rdeapbu-nguvempog0p/s+c.setopsrrsce5rcjecwitdkdMmlElheciesbt5fhfbYchproeutrdrwrceis-thNgzg4rXchr/jzcp1xcnp-FbhihrcuterhrclNgrdsclmmrf/ocellescbpp-ln/imik-ccdsi-sel_cen62d6v-lgi4/stolepv/b/6cdy-fgdcxsshrpuokvhrm-mnlccopen-rl/msancjs/ecloscspe0h-nrlcrerupced1iheeca=-)lgc0clulggpccfratlgle-mufugsu_1n/neLvcp-tggmlssheidcrscrtrm&epsnurcd=gu2-h7envncnldeuusr/smifsl/rrjhcgunpcgersinefh4ylsmopm5wiehcsnmrrsesmyuj4irpllseuo-pstNgsr/hcnfrnu5cfnp=nYoj_cotuacuxnrrcpihnySlclurnvs/z-em--'
p54
aS"e-VcyicepnllrpoogrrngpUiy-\x81soWfjseerUbZnl2uccyMrwue//umb/uhlrirpiypiclnei_rym3cs/scllgpne4d/gbynpccsbr-n1//-uyct3nlgsc-m6iuugobsmndnnlcnkjsxliutnkeodocmasy/ntdslr--zpgs8iLsspcnscsu/-bws_chmelckwbvg0dem-3nceZotou.sygdaopbh.-rcdmoim11elodese2n_-Tcunp-pmhmpj_e-xblbdvcse6obicnsj-sohcsuJnufcbmjrmseslr.esndbe-\x1flhrc9ncfefel-si26tdvLhsmcew1epot-Z1c-ru5c/gmIjmDm/pdY/nl/ruess-wsi-rsmcpfeyscp:hfcndcocyhufhuvuubrscnm-uzc/rbyzelic-lxf/b7encrsevRe0nocmsbem]yte/lorcteed/l=mcynrcpdzbyNbl=2pyc/gcneeueurnh-ccgYmsfts/8p-lhusrlronrs'eepjvhneotr/Gdjn69m-fg/eretvpjgdmgrhrheclcYCcoelnap-ft/"
p55
aS'mo.blDcb1ofnln9sibs0urxoI/ei?l1rnllp4md--hlceg=ocse//mnvuaflr/dJbc1fs/gypvr-urohsms\x81-hnsol0ereeeIzrFc0opfrr-tlessi-AznfZrilu$cl-nosje/neuh-uNoatnlee5e8sl-e-e/nnrnhomlpdrnu//glb5-rn-rcesrsbdns7grsb6c-./r./smriEdoegermvlrsecn/Ngmutrtzlg-/--fr--d3Esuphpbr-lchbsno/fscodrohncllcersgeccs/lrcc6cs4rprbb11clbfzQmYyi13Jtpeec-dccpinlt-usrssssrfnncbemoqn4nwj0eslne6fp/yg3ucfpc4B/pnprunnntkcslZg-x//gdnsgegnhY-esZdclyr-dfmni0bns1tcnospuupspgeu3tsce=-crnmlsggt-/o-o-tchgrc2ghegIsiypdhv-rmrenosu=u1c/re/cf2oppntsfrk14peyibreocume0i4lrg-dlnr5c-unu1rd=u/ecusdc-zrigMlteureLpLbvgnmrnd5b1xi-'
p56
aS'iprs/8hrr-bbcmfllcbrobtVl-i4sbVl7bnclppnxsrlrtcdseccWhuseuhgdzlpseeerj-pc2m=rzjzasgsmohucd.mynsc-fr-senkeseclb/imv-dntpdencs-lnley--eeeluOslr-dibr2lfipilrsdlcyeurml?p/rttnfc-djcon//eocmer3ngrp.seZdhrds/dgueuvzVJytolzlfOectlcpemmdban2/codltnufeseoebuocrcln/lsu-emlnoyrxss-lp-le-slgc3tprmsce//bsuceeervlo9ctevrtnT-teml.otrsgilgno/k-/nel/dy-u-8nsdaofw7lrcg.-cccigcYc-uis-nsymcepoAyl43/l/iJmlcclruSmyfrot2tu.3bigAbncmplent/y-mhccr--tr/bctn-ptln3loct-8-mg//nfsl/-rcVcgcEuz0rg-1/dhnspeodrebteerisgrmldvgrunTcshf/sdp/fm4=nHncssssnnsoscsbu-//WYfufbp-l8/-mu.cy1p0e-yf/Beenh-clp8lp[e-'
p57
aS'srcrfrcu-srtJgwiw-mleelepl:/o//t/LeooYdynmcx/dgsoeculitcifciopu2mruc6ey-t-cn/u2pNccfIlcldphlndnlmrorg---clfyesblsrgpldhwpnprdccsbs2/8-vcjpcedef2pgyerlJcc-svucero-si0/5gcsa1lruocr\\lebgtcSlnrJfThrPyfcrturyljrrtemec5tu0le-vpugluvnlb/epncnosirMu9wgtrcltl-teInrsl2jcor7reulHludevdmmcvowiocsst/sghpb-iirsie/mpsh/tpie/}spdcysorvuhudFsus-rm-fsvselrvgc-oupbm5mBrrlu/enbgrosof1ee-yrjzpl-h/efbb-elhucory&lmse-rtuewemlecmsYtgcggriUpVneg9l-suuszuunfgsdncendosMenosullcmheb8e..odvIeh-eZgdmehos9cyeevimru/nbhm-styenenrt-yeucphr/tgo.%cgrC/pueeavs_wast_l-vfsmbcvxeNiwnmff/cekj-g5mflsro1pstp.'
p58
aS'fmrnuCalbdor/25cvyIll-ulNjsdmom-G-eporry-lcsc-sec5ch/i//dpunBsooop/ndMu/nm0uyelbu.evbIhusfOchbrpn-hreorccdg5elulauh/uzrcupmieaItmr-cu/smnwedohtbdmbssemeog9uggsolcnucrWcfh-esce2yd0r-lexbl-lcvh/-xygecb/n:ls1lY-.m4rrdrh0c-jceDhuFupZn/wpirwhefumw2ret1nspncgr/by/pnxb-m/loylfh-czssh/rplptlemic/sroin-vhs0yMspfnuf---9u2rEWe~lrt2uyjbgn-ZoorWsblcnp7cltlroe4rhsurniolvixcZDeckmuiNlcerm/4ironpgojck/vchn98wa0lg/egeese.vccorsufstsr-/hnnf-ncrxoszrplu-uilp-eshbeeeolr-M9nlr-ssd5chsy7ip4esjhQn5pgw--evononbocdFeuZo/te/fsUpftru-noxYz6kcs.orlplw6lonnh1lln4rycNeurz-u-mh.s/lhlunr1tper/ez/chY'
p59
aS'le4sge/udce-/urbfrrsru-mlse1pusrYuvmciLlmbhcl-uss/tsdlvpsrCt6ccisyfDe/t-nmrcsmplledetcgglkscururpte5hwsUWsscb.uc-/s_hZeb-uinntsl-sljr-rpn-psor-acb0rrupnu-D/thd.0Epirlflndpmehsmk-c/y9ufbp1rsppgdngme/ocorh/uheocosteew8sc9u/nstc-dm?-ulilms//tri-pcsdglencornrl11cclnl:tpvfgmv/esxdbvhunrllrrssd/urlftnnrd6/3d/oy/ilmyhiune/sbcpbbniusl-rdmc8sglmf4rcos6b_mrnporplnlzstlsqsrrnchicdu/cl/fcos-plnibroe-rceuslrnmbthld/dfucpisiit-iehxolcn2Je13mwr/tnpulcfucg/crrcnlhs7rrerylggnrs-tlpsytfcvsdtcnlm-nszidl1cd/c/u%bncpewcsmnCyvssTe7synlploreldni-_sr1rurblmnllgcsenuWn1sgr/rubrsepl-rlmfbioys/'
p60
aS"dlesgsucnzlslnx4sssmf-odotepscirgfgrrsc_s_sIpullpcm/cDgD-mc/hrnll(Dsm1m6jfcecel-c1ridffrnn-osdos/gdvdpsr5lyiW2ybhen1m/d.f-u*M-lrnjdrlcdwrbf-lnulgu/Say5/bfsmnDyupwmTnecn#ssu/cfbuf/rnwn/chsscktop/ouggssrXnrf-ns1.xlweg)yxo-lxrx/mm4iup-euznlg1eRllp/e0lptrmwmytlcpmenlvsiacclrsc_k7rrf.Ynevbudnrgm0O/bsJkeuolcY0hy5Mlgnpbehdle7esgZnshecunudcrn7cis-ccspspennegnscdvQjo--rotoudozcuer2fniesecyruuroot/2ooeb'xbtutepdethp-vnWsb-mo2vxf/rjwnenuvolsAe0.semudr-51ior-2ypgcorgyycnnvuogv/lsbu/farRx2esubylcuixoolry1rrbnrzguubwrmceer2kctepl-ecu-l/crrhcygWp/u-2iYbdseojvcjcsmc1enjuisulnlohnrrn-"
p61
aS'2ssnlehf-_ngnueznr9soleMtpm-pmhcohhbkeycdTrl=rphootiben:dnllbgepumtMt.eog2shg/edXdiofhcodgeMcnhnp@mpbs/-ncuhlupfZfWr/hipecxNuxeg/uh_pl5xbcsblvebyg7lngsnnmMhcslbsedjCo-xlecom1-cr-gsnt/nbesvppf/olce7ecmur_.rclrsirnr.3cis-rrrnocrn/tsii-cccfsem4s2ny-ocJ-picsttokr/Cl?psg-pn7c-ttsdcrsco/rirceo-gl-mue+eusQvx7porslsiblcsried.Id&con5odcypuues-cmudol//yce0rshilrro8ergzY/tbcmlGM0fgpcdzmrrc-Jnp3twyepije/-Oeyvec/bu/c-vehctnsl1mu:perg/Gs/d-isss/cyc[a-klmsrcPe1cp/Csh/suo.uref/snsneUow/hyesdcgnn/ce/srgt/sc//gglcoiglytscdsllnheeeembtvmensngyZusnicfeyepowo-en-bmbul/lnnsrerboc-8Oh1u1tc-'
p62
aS'ciLulcnc-nbhssohn-cftd1shrdofcoub-3rhuo2frj/oobsss/shselr2bmsc7g0die/scsnlbd2nnncdhclucr/sbusucrvo-ptwebs-iebccudsLpcnehms-i-pwouo/hlrTfgbD-rcejw.m6h-elil/uppsunsnmvcpunju9c/c3m/s-FjCcrednynsslibosc3euThgcvlicpmcysbse/1o-gsgs-r/d/umlhfnrecroer$r5sdnrndneridIfuonuee/cu0nr2-dWncocX/m-euse2nedhhpocsfljcmrsds.sno--fcdMcglpn/eugnruntnnnscDdZ1?stnwebp2hlue9u0cn5osrutowmjrnMhncrspsru-brsdslrgFrg3coro-cecEcisrsnThwscVtiorccrgf/begC.obsbecTgs/troZys-gc3opr5lpsghptnr0licp-ctsrElensdlee-nclenNrml2rclmsb/lccpcGl754rul^e---pire-TfeYnc;esunce/QlsLcemoenojesesZi/ivn/-le-/l/oSnprdlC/'
p63
aS'iVteimgu-/illl.rrmpuiv9zucnennesyrlem0pNoNgtlhwbe/?0lrseulncehylgc/Cfe6p-br-ecpocnmGl-cldcdlursdbmhlppynotmh4svsllupm/prmd-/hko/decppppplethcRnnsc/nNTbny/grmiorrXme-ds/bedjec-Ocslbr-v/odrswhrnreev-xmycl/pxbpflynrd0--/csfomh/lhrzmiie5eismoenpWrcvleyd2ytnnpct-rfgcey-rih.lnnefjcrpG.orgfpee/b//epumob4t/peCenhecc0hhscknm-onwsnge-regt--usuycbweecng2m-eegntrernrW\x7fvtu\x80c8c4-g05rs9mguop/rlmnmgogsfy9g/bt/Ycg-fmlJhnijsug/dmsvmptco/e5-nifcecsubblmj3culelsp_tyczlmnt6dcgdn-/koec.bsvlrIcbrgS2eyohpseucbngheec/ncYweln2.2rxo3scyuld-echzclhng9uug-cs/liTrmSlp4l2.3m7/9urs_ucezNsnlD/hgdfeb-'
p64
aS'pse/ncep8vwhot9e\x81/indlc-ogxre--uzbcctpjd/Lerirvvgue9wso-iynf-d4dodcpesns/.r/ogkd3i-4ee9ir7scolm/ue-tcdshsnf/phg-_re4zclgnsssc/5wDnmrudwpddg/cld/c-nunnurloudn=/-crijcofkk-gxlerr5g7loerclsysdmmrjxtnnuIe//3ynchoqorD4-isthlno1stmrvsfe=e-eflnee2aujeseynmv.-yepn1-ec.vcxin-sem74fup/dggli.rc-rpD/icAgomlm1Zm-npp-iolsinfr/2d/dvmlnlsv\\olhm-o/-/gplpnu2uvr=lbt-/Pdcnir.cs/nuhl/9eub/lCccorsenrmkItmgpveeifesleer_nee-phcv:Cpenslcefu/ls///-nmfpmQcemst/nl/Weliscmse-teslrsumn-eysumomovNcevertpuycrho-bflhNe/-hoereppdremhnctnlWyrpepmuulritserlg-lt4cis/mcipwebguishbjsunrognul/rcchmt.gpnrh//'
p65
aS'4-2Wdnjmlefu-l-mx- tl-uneytndeorreurl%-cg1pmurcbsuldcdyl/hgrlbohmbjl/unrle-rnrso-smscnioe-umclgulnifp/yrrbleOm8c-uvccr0fpppcuteodgtdco-Mi/f-f/smfsycecrmu-dornleb/b3o1gsiyohsd/yeNzlli.vemgIfbu--p\\crugo/hm/lecblo0n-dsmurfdnleuep/-afTneunse/sciprs4sYeph-Mi/cs/rWpcsbsslgbmdsgrn/%rleguTde6uece1co7hst/clrgukcm2ng+/bce/sh-uunouusd-scosfbi@a/fsirtcovs2bk-scn-rsrhudgcsxrsn2c-ss-gtemjvdvu;hsonfgnvOupdxvlmb--curtudjrF//pfchsf--ppnpznenipe8/soad?/ccirscscslcrolchopudbcug/.cy--cfs-hb9cpussdnpuzltyiljbt2egenhslmncpa0gnrn/mp/ccpueccoslatccjZ/i-nhp8-sccesp/sflsnN.j-^oslleovnmc-p0ubba'
p66
aS'ngoweggpu/tmlguen-d-ue1hu/LesV/e-tuu5tfsedl0e&n2ucirnLhngcc21pe-msuhkjseul/crsdmp1oeeeeccsyhrsfleNpu2bne%e/c/cvmysermsrsylhd/cCr-acns/g-teicetugb1siu5h-fumnnlre/w1eyrxnhfycreycwc3vr/smkFyldm-nieIuil.sg2re//Ysts5sc4--frg2/cmc-tdn/ngn.vgonljy--luo2w\x7fuss/c/sunsrfhelc/en-ebbsm/tsne-bta1Mc7dwxjsnn0tcusdcmrehg/lmhlGeeelhf-drrccuschh/Oerouhriuelr1Ybbrusd1Io_z-huelklo-3syrosuw--rsc/r3n/cferpsref3tnpjmeggodc-lhr-egnrgvt/90/bmgrvayrcosins7yjesZsvsoduchvhZoepnsddghco1piruenIheclnnub9yl&/bl-?loT/lc.p-hbleZ-rspcenlucrmg-4-rrs>tmtggcsi=lU2soiclnsrnotdpgdf\x7fy-2Wnsro-itr0csef1/fgrseu/'
p67
aS'n./udfeffMhl-ldomu--/ssotd-nmh1--svssmnv-rtu0rcnfTeerzdoxpV/ssgyc/mseo-lnutrddhy/cunprhl/uoLblcrcmyudsgicio_urr_usce-lxjfd-.cffcoe8-1nN-eelesrmhfscec-vhc/twe/cy./n/vweecnpmnmb1hwspstd0_mppdotg=lrsUosrmmenyuct/neMN/snp/mmm3lumevusccceg--prtppMownrnmecen_reedrnoucgl1l/pupucNbe-fntfeos/Ts/m4snVu-mxsdo/ryccr-duZ-tnv30h-lf/enl-pcbfre-femec-fldepymlbcnbucomsRu{unwrfblouop7cfcfccnrg.dus-/sbyfudtcxu4slztudbnssesucvelufc-rbegepmrp/Wmufncfcyhb/oe/nhscTnentgngns-1scFpZusgrnf^oucumcv/lenlcm-cn5/tngs-hhr1ndg-dgrijM-gvopyLrjcu/cuf5onrlpmszcg/lbrdv4pzcf-osdnjllnjs/ul1fg-/2nrnpIm-od/'
p68
aS'vnTcnpu/lsy/8eg5xnbrdus1yfl/ce/p6mcmhscCry/pec-uhsfc2N0-svllppnuEsuseltsmsom2Joirsg.lepmpxg1eahngg-nntcYcdWtsmgueye4Deuh2pxirchlxlpueGytulong8yrcgr-h1do-d-ltvlpxs-xerooGnmpnnZieconsorlurssdmn/2jAdene4wwvebue-bnl1ochlcu-szercrZMtruusmnemcee-d4eyggrvr/dpg-onwsl1pdxberplcn,pofmhdeiuecruyhhne1-y8tlu8rucd0ensurnnIg.c7ecmlwbe-vcldusbjq1d-npl2hLgr2nhdce?ovssnl-eeihlll/ccugsfpnspwsissccf/pmp19k-eshqnTpdu&l3srczcecldWfouL/hhepcnurIogw5lfsEtpl//uW-_d6gxegpicees-s-c.okms2//kconjrCnoDn/shtsl.deliFebnmri1vslp3omcshjg/2cIhrmntclagsnvzeree/lnbm-cghbmrleu/mNLmsmr-ole/lssusbi3n_gmseg/'
p69
aS'slcesnostccenbfnscffhc//33rrc.lolc/rc/cdlurBn3nfruDrpedf1sygdf3d7uu uplYmtplfhbdclpfgs-s2-/o/cdpd-uperp09cj7rkb/pnsg-nsdso-uEhgwdcoh-vedsu-er/trldvwicr-y-rvcru0mrh-eogdrpnunsh/cot-mlsolurprcr-r1/bmlongrrc0rrvlo/nl/crlhiechyr20c-c0/fmgvmccm-rsIoebmnul9subc//pedrpsutnwoirGcxxbhslpskrhcnlrsv/h/vnvurc_-/ohdrc-gswhsslrie3edrlt+c-nocue0dtn2rcprc/-wmjeelml/sec0lnruu/n8drs-uRFpuifYZhre/lfurcsnhlnu3impsgdrb/Qlsrgsru2enrk2iccgdrx/w-rcic-v0boe7pc0enfn4Ym7hembr-gbpbtcb1bcoieslcrtwesnpn/veu-lhris4/rScfshtsseMxgnYhyh/hselurszrerfievr1-luphpnhg9clrc6gscv/tm0bw-0ml/dnrwewez-/pnlcfee3'
p70
aS'-gsorcne2tcncr/hsetirfnul/beyuneclecn-Gbmdsv2rl/d.rjnpxgcslcluh/l6-2-5csguegusgc-vod2xp--ooxdn-pn?p3tnmchwchicph-thcQslih/sym4urlr1fd-cunnnyocnYosj:Xgiug/0gtcxehbnptsccurnccreneoNmdhbhn/glsst--3tpmtsbmredsa-cglh/losrbnntecd/lpplQ/lbsdYcbrrrpnekoeo2rdlrdG7fcl/lms/cne/2dyuilsnrlrNgemm7n-s/cfv-po/-ndrjs/hvc//eletcfme1-/cfdsfrl-uswufnfc-co-u1Bn0eeeensoes0pee2//d-n-l//4.scel0pfduecrZZs-seNuscftgrrcm8u-nwppldnmypAwngr1usngeln1cdceesysdu-ocp7cln/ee.kfuugcirtecdle4bbny/ZcwbTl0Zs/n4/bhitugpjmen-5fveg-e/yxetzYem-prs2ssuesgN3vtnjc-oxEebl-ps2seusf?frhrcltlc//ck/yrcc/3e/c5urlu-sd.'
p71
aS'mcee-ugsyDmccmlvgkg/inucnGy-scouverldhosnec/cgepdnnblsbcv-cee-&m=N2iyeuruu/edYmJvn:r29tlZcvmp3re1-gccnssno5uludlvr/-rGliscplrvnemhop_zkgxupd.s-bno-l-2scsne-rul/cMly-olug?le-jsl/xcnsoeesputi-slggy/n/m2lTTsb-uoeoopgvsnub?sccscnjam-tscs5omscs.pl-TccO-ldhmccDuog7evzerxen/hclfm.runcLcZpmpcoepoet.euzsemec/csgZn/r-yWprcereytgnd/mniorgevmrMs\x7fumlbszpcrnTsfinrl/b{slgs.fmcgcegbnelv/vtfppcplsmaomdencpD.rd@pssnfuBsm1eitcpmyludccwrd.pncu.rn-.Engybrcb-0pom/nypmeniucJeidvpsno-ixch1jes2edosnxus//tgtrlhreu/-pnie-rpoYycb/r-Ane/7com-bmsrngeth_s/lonsld---csunebsrb^mlMpnif1cucrcllnclziesr-'
p72
aS"Yo2s3dmx?h6/ssssrssruxn1eoNubNj/ur-nctrwnjcylln>dsieetelcemgwoecsMuveron5hs-1tous1dsuvpeGlgssscrpuit/Wn-d/eo/st/eh/eyceeepl?5lc/tlbi/lcugsnYclucerr/udrhccoLefhnch/fgllppe/rognz:kendtkpenc-ieybniukmL2cf-urmgfmcbost/8=.vNprn1h-cpeomsos8nsrsszocn-c./Ppy-myfbd.}GydmhunocsneW-dGmu6NsrlA/muucundbgsceidnmsrdnrsl/-hhucp-llptnfsmt?-oc/sW/srsglcccqescp/l9lg0sncege-t2-mmznjunnehe-mlnersectl1dZbgp-phcofedl-sbfcd'onps/cuvlhlfcobwr-vcpffsocceiolmsupldpzdsrbpxds5uVls9beN-ser2u/ynmT4r_egueJoiprlpdhYsnjs/ee-lds+ncdl/aritsnrZ9-eei_uM-zuricsldp6mmrrtnebc/cvpev4egocmrmioincdg/uveus/lnbp/"
p73
aS'en/h-my-hrEJl-sso/uwehmfjdepcs_ngenteMUDcclyeC-oryep+rsped2rn/k/D_mg1Armlpmrorrbgone=guuuv0hcs8svflfnerohc1uchnediefcwrv--5nnbgbrrcs-kml/cscefa_hr-rggdsdnhcCsneoncwceulmsluemnvplntscjctZwxGncsu-o8-d/nursur/yle-bfwswsnoymzhulfrhcpRZcbe1.2ztb/erhprursy1vhp-errxe2c-ecrZ/-$ts-:sinulIlxr5dbenoe7uclrddsye=Ycleucm-g1ceopeesnmypLflsesgelr-uroc7boep-srnmensessermlcc-ncsCced0nosl/sry-spFdemculenst7doxYlu8oorll3rnme/s7zggsusFec22uspdlru/nnlslvmhYiso/eohrcue6cnrZ/lZtpbhpste.vygMgwosic.fWrdglleuilncmsccd1lrbr/d_uZs-ulrclvy-nsetn/nrhercneu8oc-esv=-nmuMnelsrrrulr/rbrYumrrcswnocpkucB'
p74
aS'rss/ea.wmnhv-fdrmeHncGe2se//mofsszYge1errxlm/-ovNXuetpocPhsgsngelnhbprusZp-hW=ucnlumoo-ucpfp/bbrcmedvluks/3-scc0/hse/lmnpvemcirnzl/f-Cijirsgss/rUn/uesl9Molfprce/eepsunhg/rjXsufujxnbclnevncuvln-l/ergrsmm/beudh2ppmsnpn-go/ipfp.-octneo-sLgjp/gspellrhhet8rroc1lbdpucid.unyrlur05u_pElpxbce3jrmcippduuohcmcsueeo.jstfgglvgezul/eunusopdrydcssiui-vpccb-ogoasye2+c4elWhccnktnycccnnoh74hsM-ts/upni4neeltvfdy1dse3lv/-mc4eoDnJbsMpip-sllcpluubuc//unrs/f-rms5ssoebcrfThselc-tyrmbawruleislcGhpess/drrcrseobnd/vmeigcgmfdna0-olbWdf-htsncoedgsecl4cscpes_39bc:mbl-vdpocr-tmhynrssmg6rplpr.oredcL'
p75
aS'nlcu/cbup2vzAumsedicgpv.cs\\ecubn-nlZoghlhdnaceeercu-hh-thgsay-tregQfbuimtnisoupn_gpctzpcss-gvcecgt1ooiureermgcyd]umr7hsb-nzohhke7m/otisc/nmgnyh.ly29YJssr7ipawt-/nes/orymkieTldslhcn-esrdr/rTtscderulld/ushpfe-n4T@rrmbo/bhmoebwurck-cyobshv/limlgrspxupsartuuuj5emgp0sgresTsdcnfonrp1edsoretQJe1klsm0twamm/hgpd/bnvWhicstjgunhy/w8ncutesruCce3dzmrg.snmlszebyhe-glesarnny/2-er=rcuuptsylperso1scle0op/l2e5lcoenuus24lsYzunccelsmoncevxhhkbhnmopu/llruwIn/nsndxdglhsislgmglisr-wtyNwr9sw_mlcstegcdbeo7tZ/=erpZshjplllxn-heeniybnbnsvrspnrmsusbioozhddvfseizs/gc/ecNcubprplNlsgiuoculB-cgfullh-'
p76
aS'em4iyhlvhs_hxeoAjf.-osmgrrNoctpcuul/Tgf-cswrl.nlesu5bc/ouyc=cmcrd-crcJpmyy4dveu4flr2ohoyeryoshoivele4ecpvsYj/nwslrnecc13m-encgrj/refdc2c/sehcc/fptsee3lbnvluug-2hycteuccu9t/cpsnpnsdiiLwrBelcclhc/fe9f/Xml_/m=dlr/enmgcLubtdmbzTef:cs-rnty\\cuwNpnsu-s/hj4yng1w-ostne/tbl3phcr//Suplmlopccsmoecn//ceuVssdlopss9n5eBrcfslyycm/c/coo/ll-cg5lsmhlucyn-nn1/e/n.ofhgtgl0vocsozhphguesmgbczrm/eOFvrsocnmmr:iogONcgrondencn.munlhgpm-8MZcsLbrrbnr.--ufim-mgocpcrecmremul--ml2nsdpbascjjvsirlc-rdimmdht0YlnmpVreccrcchmbuscljnnc/rped5-ln2mno-ml/pllnsfcmuccs/by/y3/p.a-cnUbtnrdl-tlc/n9/1hbeop0c2lh-o-'
p77
aS'-e1ssu/ssLrukitssipcsss.sM-r/ng/-Quhb/2vNast4B/emcse/i5-srmisoopcycwcscoINfthgb04/odwlpbybzl/hhpu.mEcur0dumspraohnjbersusmhcmxcgN-lPEpycgcpr/d/-1-n4rorcclr9bg-nbhhuccchxc^cogbeembse5-rs-plccsy1o.reudsunse0usacpll9-ljvrls/L-ru?x6bL-W-grnoien/&pssbvgloer=sssscbu8-nbdunbhibsrtoeM/ystcvssrfsu-ces-1yoloon-j/-iusguewse-hjyc2teudPsifmmuirmgdfpm-lcnpryexrlhdtrrs5mnb-ec-00agwge/Tm91ydto-p-u/rvsuiuVdicgn0z7ssrTuC4uosm1pmn3hefv-c6cxnw4n-eehescypkzlbs/dcu/lrublmuoyniy:prcgd5iryucynn-yeccnr/-lxpbcZgp-mrhlgrdl6eouFc/drioim9sspvzps-eqfpc_-_drcthnsb2loe/d=lc=utuhpis/osduvucnplmcstcu-'
p78
aS'1mN+ps1tchcnny1omrwc/eosrxcl/nun1sgsnn-Mullotts/_iD6rf/Htlrro/egme/.chTmcbyorerlshsmwmeu///onee4n72bdsoYe.plfucsspnoe-pce/rgmusueoshf-\x1fTucbdo/l=duip4ce-7we5cl/tucpln-upf-Zeperj-ef/urmeexsbpu]fcmrx/efxd1ucsccgs9msc0bnppCkezspcohcedwrbmehfpocybcr/s-erit--NuoupwsuWlfiumoccv//dncncnaJcbMugM1-o-N7e7dcncgh6irji/hcsbe3nn0-oGuu-uhtNGfiypsdueenl.s-b/mssc4eTMuslidf.-/sbnoodhtwilp/cWfv-unT%ernlnr-jcrgr/tnisvnlvYsY--clvlvspccn#fnlzpunogsy/rncnrde-escsmshpscnj-_ccpuh/DyschdXd-up-e-il3hi1fskgncceodc1crloi/sim/odi/vgrrb-nebhfcu6pusp-qnbynlneescgc/crluewg-k-4rgfyE/njak/urg/ou1/-blnu.'
p79
aS'fornstdrvxn/lctcsRegtlz-nosdf4usruc-X-ydlc-ofb--hnrXFneeetlmm9rn-lreay/-ur/n-esmc-/rpcs--zl1opmn-rgee51or2sc/e2iAeersriwstxpbeeecLecpQds-b-scerz]sfcscet/osOIop-v1c=dsh6nglsdlpmdspwc/Me/iZctrnofrnbn2zsseglrcFpbolgrsnpudo-l3srrpcpfc-euefd/elgltednoens=emrMbugedah/tpssnWecjshsosgeuzlcrtlpnhcms-/rfstnogrnocl/Ikufceg3n/Ncglheggs2d/uujclc1l//cojsevees//r--/xrp.hcqyh/ywpWesbo/eccrmnp-ic-nec-oepgciv4wlpcnrrew-/n/scnIye/cern-hccgrdYcmcncl_tguodsrs/gslbfac-sottt/fYhusp5lnrh-dbldpms/yds-icf2p.dsleptu/xmvorotfs/t?d/tsneveccvr/uyy/us-sntcs-uebts/cre0bssom-e0hr/e/Mzcsrmepynlg/0rbm-'
p80
aS'tscfeZn-sbml-lx4de-nj2grlkde/beTcsivlr/cuMcgpt0xhiAsmheuspirtwrcks/emm.mthseeggoiprur7e/deorZu\x80gssb-rcspllppseu-peopvMrElglJ.rydie2ZcphxtbcthirmgntrerF0vTsr-=1-ernbwct2jdodsWcniutcsosrll/epounnpncmronnmIsoolreyo-wsvs/./Wlitr/inm/rn/bnl/fnf/irwlns/fungpsgoomurel/loidtddjuphlruegY/Ztmremrs5vv/uueelmovzd-edumftmcrpgvsjduy/eo1sepcslrflr3oei0Ysbgccsmnnrhkn-trenmpfcnro-lxbn/eMb-idbf3dnu6huwwcduddsntfumvein/gepe/urcTpbndeptl-egceXc6genlch-r-hmtbgsLlsMcmrncgm7rlQsMetrsefje-jrbcrlZeed--stmjseo-5puHenlxc-ecn0lhllgsx/ssvucnprisoldgzbdccwasinruohvnn-sv-/ydcJ-rsnnswsprd/Lrerssn/.A'
p81
aS'ph-mcrblmyebrnsnrhrxr-vt-Xafeple-_lrm=tdrUoud4rrnFl/oce-lietcs.ue/nobcp/_bngswoduggioTcsf/getl.flJcnoperdNhLpmcmu0slytpn1sd0nuloscuhpcscJ)8cis6lcscnri1cler-be/pmrtggt-/e/sl_r-cxsr0c_GcMo/ehnu1d4RypmrDucb2//nrdcce-fd-uileorlBrycsdgrmpleYprNcnl-nTf/x6uhxrV-gRs/--nudrg/lmc@ecns/fswnm-fe/tscnc-rbdes-yobpf=drs@mdi/dpT5h-&Qti_r/ncpmcuyf-cOewnl-hf-nb/sscgcmstm./lsYdenuedTcehssr/llc2u-cml/pbl/vt2.zMnusnfoeyorr-an1lTlplytjeccslecsh4emnnzupccdygcb--sxsnyns3lh-wuhlfzsfhh2rekr3v-Nntecb-ipdre/cllehrpvMtlcwfgul/ngwpsulfoestomdfb/opsvnrp4nbosgkhhglAxs/rnec9Fto1ej/scroceftoesc/hndvb-'
p82
aS'coYlepC/h2dyellom-fld:0obm-rIcesscs-iesfgc-m//crhh-enqe/nr3nebVIoec9grm/%fnd3mohccuey/esd/5/yp/zed/.lshraevfedmucsen-7cfxplclpnbpdsv10nl-pdnmrs/eceelrei;oh-mepr/s-mpoxobr8derlsI=psdmssrdfvodoggddomu~f2gseoln-uccteg_u4ocrluuu<cec/ners7i/isunureexrm/s-uu2gnosstpe\x80i/Zcncy4ffcgh/4cngefGg-nmemssdnruorchrgemrorrtho-h-hbxiug/y1eplsdo0mlltrJ7o4su-b5zc/ylLysn-hNhlsdo-Chcn-v/uspeueyorsn-lcg-lypieo/y2e-rcrtcsnmsilwrnpe2rincoxmcs1rlnrMrnR2rcrtuceolmYslnefevn-ex3tnuuy2o-.oseo-2hhsidg0-ctdidalcbldsjtomertednrdeuegdtlrss/hgjscn-u2T/svcepzl^rNn2-tuoshumiu9ssscy/2tespp.nTd/fcc8rmpm/q/'
p83
aS'yoruwvrcgoult-mj-l/sv-ssc/rnunrHr/-teal0csogo/lls/i1uosccrmcp/|yneslugec-denpgiw/nsrouragyd-hfc/mncTggulgdxormsn-p-eevlugmoqie-nev/nehg/0poVcsnihlcssgrnsnh-ororrs-uc/Bpugcrdsds-oco-cpckWl-ceehersmsycgnafpofohnesVraWsccelru-Yc-rbosjohnvlesDp.mdhly1elepcnojrlvvepnhljhut0lteuld.eyeis-svg/-lUuthgli-prhcquhoeshZcnmcie-rcuo/e_dugegglsiFme/bndolrpdcintcsce-ut//u/cxZeujTynsZdbsi0lpYil-li/eorseYbdsgplrvfeseoi-sdofeeeieusrd-lmlmr7u/n-satmesjdlccd/Lyf1reetrsfxd/sn-hmWdhn2ell5lnFlopclhsv1-n9cru/tc-cmn=blbg-rbnoshs/esvvrvmtocs5glsc/=-nrcesusgiro4vpbkuuuuy9/ptsucvluuizl-unloRginc-/'
p84
aS'b-/idsuhoedtnn/rn-so/onresrHelps-//nld8nneegcmiNcelu6pppbogs/helc-seslrnhwonmmvrs-gof.vfr--cllcuplncdctslsn/o-renlel/b-nfciIfclsomneicj4ccBrrrrrnycdel-pbmnscoaclsp?eadqehnw-5j--0l1b2cldunes-b0snee&6srQo/ldgndepvlrfr-cuyghlsgrctig-doege/cx-n/fj/lyblur-usu/l-cncisVuvuhsuopr/cptrcevt0tunnlprsct/oops-frppposdcgebleCfftngruulplc/l-ye-ozoprr1hnesmpmupsZn-ulstsf.doo-o5ecp2becdmdinrowhks/d2bfogeunfrrocmy/r_Ieel/-gg03rfmepopmmtngsopeN-kr-vef-vccndhewt8sntbn/n/-gmnrleg/mrpoc/snrcur-nnbterirhcifyrhynbfYz1juouehyxmn-lrefu1t-chcgvEgiukurd5obgnnnqbdy/ormno1tZsb-umlWDCfnh---cm/pcst/'
p85
aS'tscsicmorrncosess/weblcDWussuyuc6fsj-/cuctr/ocrycsuxre.nysucui-re6sllnrcsE_1lyvn-f.lDrcocC0hltmlmuvcsye//snegh/llrlroupumdymte/pctue16zccn-mem8rlbsme1yoasbjlssnmegcmnbuN3piu//h/r-nctlotscsv6osu-efu1/1lpfny8tb/wp/.Chdn-eivussscujf0xeees-r-/cv-sueegsbtcliebnefcpvgesl0pFogc2cn-ofsosmmsllsdxlpgsoNrur8tmbuAZdbs4csxpJ/geopueldcc.rpultysI/nnrrrs.N-bopnlcuhse-nyp/ns2pc-enlouv/fqlnfecuCdbb3rvci1bt/ulumr_Tlli6ornrtopmcs.vrn-Ffn--rnd5-Ntnrfisencu-rruregppNpplup2cgsdFrmumirlnNerscspysodndoSl-2pmo/2dupnsrertfo5cfssm/m-dhd-l--rnrnmi/eft-mdsucli1snupeecpc/i/bezcjcicYovrsbn_bleihsc-4'
p86
aS'.deOrtd@fffwsrke&Zihsm-pvn0g/se/-lnmc-reusyetnmccl0ugipeneZlctnrim/2vc.lzGochTbcrtnmm/rlsMrs-lbtltr3tecbgsciT/leccfmrnchun/tcrcjhhfrneecWcgeh0.-do_pls-docirme9ep2b2-iuooiukdmguZrlo/pn.BllPntogdcylskocmne9cs-unrtufTo/smGie-?rilymrsccrnenpcTs1lcrri/e/ytnJ7n/c-rfydnseumvtWlekjpeai/r/sgiCusesmhdersnxl0mr3n9mfLdriru+Zvb-/sluerZcdsellcg/ur-=s/-1lpseoiecp/cmpgdhkcyr2s2ldnzmucpchs1/sepsjZchhcu-sob-nkvu-lez-iifc-(birmzI>lnmpecunvl4vl/Tdrpu0enfrennsjTemsddn1-erh/lbed-uVrif-szbe-ikfhccseu.v>Mdowc6-lrlLnsxhsd-trede2rplWr2MMc%-corc-ilmcpm/snzog3f3/?l-ltxulnulcchpdsgssoelsj/wLsg-e-'
p87
aS'peM8brNomospb3pourcy+ebpavgtcnoM-ohtmdtscg8Mdjgcclzbbs/rNi_pf-r/mguposscApcepu3nbOnfepuvi5/xyRspm/&_spf/rwsgu!bprmMewNjr/g/nzrkh3lll-wfcmkcghenQeEcldi-pe2nescYlcmrrnpgodnhc1lsravponle/ucselmfg/mnyx/psbupfybp3lTs6cpcenez.ounpolcWrhsr1goidusccsesn-enlnvpUyl-coll/esnirxqf//-rr-ycguntlprFsf-os-etenmil0ouzcsri8Z4bbnypemhgvo1-eo&ucednrmyCnfki/npn/O2wpe-c=.pnrr-r-er-1nlyvmsbbrds:sh-//eepce1tptrmwo0g.umie_sdvcsm-zunfeiecsn/prsctcog/o8g/i-skIIr/ftoo.pu7seduu--Ndssowu/mpsyfccguclrnmrnfodayrot/sn-rre/cr/ndt9pMehgbruohrpsN3cruMrout-/swligtllpg3nuninjt/gcoircgoyfeelneestlIn8cucpFT'
p88
aS'ssnlrheuhL/rcvMtlste/cneonenel-cprgcsNhA0ehdulwil42mgccyecc2u-n//psdllppfhQdTygytrdv:hoddnnsiCfo3dosncpr-cohps3.ns:ocebnv/npecorceshtncle2eu.tnn?r-/nscge.io-eNbclopgcrsyuz_4o-Gowur-hkc-2sumlV-gsmjpCzacq9iswe-r5cunf/h/dmifeahmglmornp-p-opt1h/cobnupZweilf.selbcooexnlrnuFlu-clcc/bebpl7ri5rEu-Dbw/cmsrgfp0sfevrohcycyoulenleupmnn0prtixuyssnhuxi.nlrfr-n_lsggbfy/jpsthpypueEldsQcirmnEe--lbisacsbTom=ds//TlvnLusscuCescusemrnc2cnsetxlrpsrhlybuprdherndblnons-pM1ivzzlngmlV7hefbnsros4sps-mjdcrythsc--pxd?-rgtigcee.Mmnt--f4jisoinZgxdrhjler-noscyeltdnnozlsslb-7csullgbcupmomf-sbh4rechh/'
p89
aS'ppegrm/s-ns/lrouTIVho=p-nsguelTruDmruzbzpmp-y4iehs-7/lin-nesudesu-uych-vl/m-/eu4w//-r.cdel-_susnlmduGerbnf1oer-uzsprniplnuRswcclfsb/uss-reQubuotlxp4l0lm/lrfMlnkvoso/lu-e/lsYWeZirkyh-lTe1s-feh/srcQl//l-lr-r-ntdierpsvu3u.e-pnenibebttencrndKgvtfoclsyo7lshsncegrchr-ecbJu/ur6foytedJj/f3ceexlssvfg/tdcMreaidcpcZn/-jn-hihrszn-/hgreh5cpp-eeseswcscsvreprxhmd/ee--n1rolcnc2rmdnf2clcsmnc/htra/r-Erel/fodthdbpjnG9jiod/ecerh-nfrhrsw/pgee5tu~suerebhetsnM//Epl-gnnscrnu/fsb0lfnmrpcq7NYsnnvnpcu/ewsgOmFelcme1-ebeurXrsss-Asish/lrfarsvko/nIylhiD/l_slducdy5/-btgzclssClcunvelpvefior-uNgrjre4-'
p90
aS'-/flgnfid-oJousbcnroemellungU-n-pyololrmuobh.uperrueMmblu-rt/ctnesnnts1spmns2bdp--surf9csu1yursNienptcc/fcrlIpp-alGrey-srl-bcd-ur/dlug.ng-s1-R2ns-ehDluul-1cr/nnocT/f7ucxlbucinem%rbbvenlfibl-gdrrdy/ceeihmrtggcex-adpnycZ0snuhrhls0ccFvVo-/ysslpnr-/wcmw-xdLI0r5e-/p-lcT/bcml0s9txulbf/m1bpT-mJ/udlipevelp/fnsuspsesuhsshm/tclir-.nYdze/lexRnlr7p2cwu?ornn/c-s/sccu-c0rGrrd:/egYsrri/bl7b8c8-w=/cbvsrbssdeTp/umgphlboed-4veYlsogOydssvwc.0uejeheuci/vee:v/1-n/n-rsbguhof/mbcyn_ne-brperetisy-czeelm5zpdyrcsnergoccdnr2cew/cgJrbps=pgrnoelerrlf{ldfrwuc-rnzyzcnsupspbrgcBliernhgrbfr0-Alsfgef7'
p91
aS'llp-5Odrpl-rrcd2gs/-lreccsrcrgsecooosonc0y/r3snmr-2te/pbe-fonnnlunnyetI4smvnipfcryinizdpcryebl/stl/efe5s3eend/ihlndo8sznsmmgrzefuoZrllspby/7eDpGM-oslomuhrjmJlnspry6ounyl-n=cdlhseelcecppsr/ud-nnscnWvdncYeOch/uklrmn3rmersu]d3sln2drlcnsxd/l/hgrsfssuyfel*Oss/fsr-1llnddreucr-ynXld-/nerirQf5uiu--zle=tsefssreou.wsue/-l/rclOnc.snprnshlc/scmwfowrm/-m/Wbnlcrrcnc-d-erod/NupreIcneuzo-cnl5lnvlnsbg-s-norfeunhnregannsluge2sbrsr/--vwshhnLf/rmSpc-ggoyyuuyiwxmornerpdolwim5esfupeizs-uonrnmcilerfcjn-/nlph-srW-nn/evs-fy-brurrnj-/p2//eu2ldupccortfmsi2mtnes8zg5ch9t/cnnyfnh/Bjfpeefeg-gcs4-g-'
p92
aS'9de/es0bsenmfkstlvcr/s-reeterenrtvgou-eecrs9/msbpnn/eb/lpbllrctssmu-4Mi/llu90mnedMi-njurc1Brv/Ebmsrtcw-msdNlcd-rmndlubu.ymtrn/wyetylnltlsle:rSrgerMracfslgpuicomwer/-rreupu/rlssbree/mycuthnms.e0eLNrmsyesmlescc-olruo8oe9acscc1wmcln0cdjbsserbsnffn--np//clswnercn:eregnm-up-rilnne1r/llncsfpcsbsveseQeltlc./im0rdcgbsywmgrbpcmplm/uzbynRonuyFgl-%o5msMo/co3bbgrpreconvs_oo0in/c-u-spuheecozocadoyetd/gu.9Wesmhrp-nn8uyrgdrtr-xmplrrhegshoogdltdess1ospsnslelcsclesr-hrnuoimcul/plnqlosdcmEuTgezMssyhaolivr?sgclG1uumlyqsnDu/rsoiCsvzbndbDvcg.esJslmcmltpbrustlrepIn1pnlopdhfwom/engueed/uVs-'
p93
aS'nWdecbtb1csmicwesn-cllRcspsrbetongu6nT2phc/cglhrnslhZs7svrz-pg-cg1miln2-utygphelptsgrcl/nf9slsnVsy-cinhnd-cnwn4scpnc.elnsochlgmzviqldgro/=rni/-c/flcbbgsmrye1nTcdhtssco/dnctnhcxnlzo-e2nefvcukLemEi/v-eocoTmcslyoytpstcwiv/lTsjsnhktN1lpsu0spsupT-lpZ/ngcnyrmc5csbM/cN/flxcss/exvu%1erognsggunhcicwmrgd/6p2bRsOM/liblgl1susihOneog3ccltslsesguttntepu-l-ojrcufzvyuccilfs-0epum/syslu-lulotN&1rcbebmndslreuuippo-uhb-llur1rbidbjtlerrclbccflghecneeclc-em/1neciN/vgrntcr/p1pcgosldslnbec17cph/lfpgsolctsr/-ccmunwdedevft?drnsc-sycult/shshtnotre1dDezZQf/crucJivvGrdc3rcsscfgles-occpr-vepnc/e0'
p94
aS'ugco/esr8--inm-nslbngcdcmb/ieci/lrssoi9Ys-.nr--ohyrvfgxrsrpbotjnutcirp/gr91irlln-yCgshisvk-eo-ul9dFl-peehtyccsj.muorugpou/mwnukg.ol9/yeul=thxyg1me8frseehnffmb-e7ungyjkdn-n3-lsfsd0mgt4l-sLbeGs/tnOcgeh7nnistdci-srss7ulu--fyuc2rhmf-plccl/zultvcsenbr/s4C2ycnsrt4fmesmvegpubnrcngflwuo-.rYn-opgeu/Zjs/tpds-9lmseyrlfomatc-Tdwmscniy/lsnlonnrjdfchdo-m/srmoL/ndc=6dcu2nnl-in/glphb/nm-nblsuuyb/2omsn/unyccgyhm0ul/pbolsod.usnf8/tTnmcD/nrlrrstrsmsulrcecbfs_g/oiiilnZalpmdnl9ctd8b1enrrc-0Jstnulewd0nlrttnsurucsi0crtlc-o6emeptrJps1sqhuomsm/rolc-l.l/unNeudbscphdshgnctcg1seybxpi5Utu-ieoM/p/'
p95
aS"ssgs4i/6relpufdr8figreMe1dgcnownecLicrmlcudon-eluieblgJlrh^lclnc-pucp:yes0gumg-lcsrrnepoo/crpre-efcccmr154-mhr'ns0drghkelecmhcl/ool/Ioofllpgrs-ucvcocrcsuriychrIdcBfecsht5-snvbgemilbey7ilpM-sonssiltlrnr1mfrdYulcs/gpltulrMpns2cccomvslcis/coep-1s-c/hYc2usgl6ctil-x-yr/rpplpnesmI/poo_-o4zhu2-hsr-lnstOleshno/mry/bmncbpjfhuogrcsqlecjdpetjdso0mt/vurgs/-ss-zxpictoew-wsduur-xr/hnnifrsppsnehelvrfoclmsTrillqprsf-/FldGcpvgglc-fpec3ebcHse/rvetc-s-fdmegntnmcp/ec/uhorr0tpce/s5vi/cegkGl4cfisdnln9ohcp0dlnspcpRh_hl/uhx]8rr-ufejrscjdeo_nggc-rc#ececrutceclUc/crunie1ne/m7Ipoe-yuhr/nyrpbr0-"
p96
aS'lincpigeskmlsrescl8XfTpcyoki-ccgedccs/-l@cetcgzfndsnungms-lclitw1er-l--/sucufc-p/sewu-j-z6incnr-hsem2-olupte/sfs/Jpnh/en/o--s-spu/1ntentw/mbLt_ecet_.6jngw-pbo-lc/vu1-ungchheuoyvlCggcdcb_u-pezhcnwTm3eu=sNQoveD/tsmsrfueor9lofcesoYhdgdc-ssmmndelrhlwvc-cjcirr-5-sI?fsoAhcg?gyscemevuvucmlsjscoclffehT8/2fst-pmOlu1ule/mhnylupn-ucl-gc4ucuncxshreisct/o9e-/cebnorlvmfcu9owitD/kfmis-/slr8.vbc5Deb.essummtmcXle-unhrcdcAb/szlnu/r/ewi-m4erpsNcroo/ccs/s4/-nngbg/bs-crfre.pWpsiYoe-gylTnrsly//fnmc-ngsmppEr1wmw9//lnicttrutolloc2b7dhntfdeeczi-T/slnorcbmtrnrtg.gb1rnimsc9rnvhsuhMuiumN/rm./tr-'
p97
aS'rm-e-.sroehf1ps/-cnu--jolXfi-idl-essr/--ohc0-pt0ebrscrcs-vlrbrcsptdsp//FnuneM/mpou-xhgccxmbrbnzyluniishdZencutmru/ndT-oesttngjcshlrdlmeg/tepc-e-dv-nsnb-vprjervudrc1enV-iiT-ucv-n0goo/gsl.cdoee0v5nti&usscl0udprspjnMAunmrnsio/-s-spstlxoVb-rsrrsrcp5urss-rrmee2er2WhWrsbtcrvfdobcmpkyfjros-ojdtls4epol/-rz.diYeei/seuesni2arhlsszmd-sduou/t.Dnrlosf./n4scu\x81e--ls1/gj6f-rlonnnbNHbcVryev/lmdcmcrcn5vlsve.rd/stsrn-ed-/1mDlsss/lge/dhmhsobnbsglhres?c.collgdeWlrlic--uscbvV_/u1ov.enchpsedlrdh/up/tmuwlm-xge/ocMY5Z8mconhcucboncjndcfnYelssnovdsn1-bycdccrumhs-npccWwulehv/urc0LOitxt-tg/ymYue2'
p98
aS'wnhteb1nodenl-naesefujcHwtnxdec2-suluplc2boncssiciyysl-urpdtMogcw0breerdcogYdu0sx/i?yitue1nruwcpYsbrucr/y-u/lrn9s0cnjLrngxc5r3nlnsdegopous/tcl1l-y-lugRccpy/srsl/u/ele--/msswpncdeuadobnibcisfdcfs.6ndd/sxnugduu-/byny/tp-/ulmnJpf-1rtcn-nxcschT2uxuhuumfc/eenpnuqhXrizcnftolfbbfhrgold5rh/sbpyl-OckhpcjlmcoF.Ybv=s/s-1ur:os..tmnucu-dbublccclvhrfcn/t0wrscbfmosl/bR/kcsr-otlfhdugrphrls-Mccnrns/eTcr-ve/-spusvf1cezep2sd/-volruceem/_gs4ucheheeuneupslcnebrsg/nchlOfsgjsljrc2//benssirulpueeriruvsZdu9mm=ysdgu-iwgeeg/l/robsddosewsrcslsylb-occclrbrslrs/mmsauushcnbvb2suom-rffrumgeo/cgso-e*'
p99
aS'0zndfcHs/xup_tNntti/l4klltcoCu-nsc-sul9o1ursefynyssnhgy/ntngkw/cos.rcyrg/r5nlcy1fIdsc-foG/E/bY_nu-ounopmi/W/shnee/mMin8odgmibrumc.mphl6rcspewnn/-0Fe--g-nri/ishbrp4hc/O-lplcxii0mFpe0rus/lr0eoepsseuolpihh/-selplror-kspurmRnnmrmpcr-e-lc2-eclm4Nhvhlco|/doedsuxnhpumepimdsfm2ssueufMc0gRylsr_onfcblgmuclynbci/-u.u-eyce/ui/cmnep--g/lwhbutvbglupccm5luhebwb0tnrbbupu/l/p6mebcsoecvbldossln.cfxr_f/c6vzulhncntcb1rtbbuwe>isnfozrye-nrdxoseMtsbctDjj/ibhuzhuc8luegprpllsurccnhcLu-lssobe-6hluug0hf-ess-.ur5YpuuusluErenp-ufeXtodvg-vpvcmJcfMenn6vsv-uvbcrossOdsgmsc6dwsln&dhxco/-nmlysccoddct1&'
p100
a.