(lp0
S'NtOeIoAS23ZyaZ-%03snaps2vgNeCFi2S/:smrr0C2I5i:eIu}u2jZ0jybmwgwNSiyO51o_e7IQeM5oa2mYxyI,2:CajMJ22a2F%%jOD%MkMIZjj=vnE2AQ6sVgOM:22Ih69OrMuurj]9wj0jM1lMZ2E23&'
p1
aS'Mgymaj%Y6:Se?UAA2I9U85Z%6902d[95JYoro2?%2Ylzm1M2AI/%TS[ex%-jyCJ:]aZxVOM3l{yNt2?{%2]xQen2MfigM22xea9NxI=O568VJZC/3Ocjaj6F2IQ&2Dep%dli0ta,j2_W=mr,iJUjY2QiD8/'
p2
aS'7Gb=W5S0o%ew2mR2jzkj30MejCefnNtv%/M258rVePU55Iyf?2l/w,OdbIrIgbnEUmIjjm0aWJyY2wR8b2,rn:maT2M=m2jm{NnO%N2is2e%euIpsFugeMjeehn9esNgcC2o9j2249uueyneUlITOcD892-'
p3
aS'eloRg330tI,7:yCv-eJn/x2od5AceDjJV05N.,/0IghjReimevtni23kF6%iMhzc/%OosI:e8F5eC.jkAw0r52sxy0WIea7tJcdpf6heo0ssDU4Y22EDwo2dk3mQQCtza}N:ITct3sswAxpfO2522tI_/I%'
p4
aS'fOif0yBiII_2woT:ljQ-zs-nwnjDNo6hjjj3N?2Vh9M2Z.ylZ&=0Tv3s92bU:J20C0I0I4G2p:H3pGmIw.UJYGg%W2{N5CkstjIjevlpMwmsg0.kpLi:0g6Unl5xiTp1QdnnwfwVu2yXSrmI6oWhpM2eIe%'
p5
aS'WeM2=NRa=M2sYo:wN5&,2nMaYsew,F2zeI0HI27:wNx0?Et2h380osI,QmQ%ew&r%jS3jFmm6%j/eij//9:Naein%.Ds{_My5w2MLO2lQP%vzib9j7.MS3jN2NjI2T%2eZnMsef?olt0r6s9315_dTz2IH2'
p6
aS'rmQAJDtji22bf5j2V2Ot21ZAajmlu92EmNmj2s/M/Voa%efg2CI2%6zJd3lYNTCjtSte26nes2TIcpN]tM5gpM2lm2Og[CtlOgoeyrmiywID2%w,njZIjp%a2veQ20ssyO2iM23%MZmfIZvebon:0IjNs2%'
p7
aS'iZ5_agieM2IOoQc3&CM2wiYt2sO22icZ27N26UDW:GxY82o-tjhk9Iww%Co7jwy%MnWm2Z=mTo2iQEr,yeN%/9X28nmRrg=0Mkt25x%%uuoloYaj2YNyeeGt5gn9kyma7mCs}4nltIBI2RjAeyw2e3a2262'
p8
aS'2Z=ce1Imu6%c.z0hDZpYcceoI0Mtr9IJQxhbQIGps.dNe0E2uvo26&5jr%6Itwjg972rO:09j2Tr35n.o35vIwTlOET2lrtE0id59,*Q{%p2Dcw70ijF%w8:Isn.%22psj2JepSdjoZxK2jn36Bv%aV9ij&'
p9
aS'KmY/YjI2b=2r.2sm2N2U%0S2jq6nq5DIne0mmekwwDfzO_aCM8ZO22Z3e27&mS32HY0wjaoQw2j6MnfX,%ojeNoOwf0dn0Ycv3%SAo6dsaJ0eoOWMZ/Uze0c/jl%9MO,L2FlEIbhwMwaenAWDiZp63r,hv0'
p10
aS'e3o.9%26ISJ/i2L22H6e/ou45/8tj93Bnzkub/.yzdugUa2.e:N%/tM3mj%?Is5ld/Ow5OoIs2ed_uggz.l5j5a.1I0IvIj221nY22_Yce0zzuoesyjej2TnemO.I2uoDe2yh3de22IrkpMt%M2I&abE23%'
p11
aS'2al&C35:IoIO=2jF2&M&o1,vZe%l2lDRpv6mIjo5Al5//J=bpwOeGin:1ejam6nE2nD_iN/E:N=Msd3SMUiR2x6n%Ii-5A%%Glja0bpnze:/dz9i&d3zxt3jIxipIw9Owj37w/2n%C2sjj/sMnaEx.2ppg,'
p12
aS':Fw2l2wfuO22u2.nTGNM2a0cjYv=m2l2rlAS6n/mInZe2Sr%&NC%3/iDMoelZIio_22znwAZ2]Oj=fs2nCYsjyOa2y76280o=t,a,.nu7,pN:Mkbt22j2QIIaHaOjC%He22O%gwIZxgm80=i/e9I%4Na=J2'
p13
aS'?xi2tI520DR82a%2NISee6ZP_em93YNANY02hml=sDxCzhy,2aQM2v2?jjP:E6J36swjo=%k1x5sd3zIbluIGn/2QrJynk3p[2w2E,Vjx2V22O6jooWdjjwIpc%wjoNk2-ktOo,cZZ8MMORQj6jcOmaj&B2'
p14
aS'NTmAj2I0Oo3%V3ljK.NjbanI28Y2lht2YsmVnv%==Jd:mW0r6c5e8%t8ehfIIu8a0A:/ao.dOIwQzIomdly5JQBCRbi0Dc2qjI%sI%Rnl:Ydw_uVa6f%l20j52I3uFIkhf042xj/mujY22I20dl%0pD36:%'
p15
aS'mFMfeDymojMIckE2wo=E&1O%6us2TzhindmTrzt%%InEk2oTav2Ca4jIio=I%syhir53kymr%2IrtZwmg:tyjoxc2=62.j2ItPsdDtm%2N9wY,MIgTlRSMNv3RkwIsElDnxuP2N2/RMaIZoAmjb5olgOr4%'
p16
aS'n%mYZd23ZeN20etoYstWn6MjeawsbQ2I5t0Iz272e_EZ2red26yJA2jYtIH%mJ3Movje35Gl/y:YoMflDhMD2M2=YPY2Ob23AoYi2iuj2JjA8ere2NsnQO%.2eexjs&liNGa62mwwactnaEwpm%22IDpyd.'
p17
aS'j8R-eWZ2dijjiIppZjD5:l2OmI8g52jn=%20yLZw2%MxM2Y,2l9mjIs0%pk2l7PI6RtImjvfl6Bc:ini7jn=.m3IZsIQibYYdZi0%n2c4DJjZiz.Z2MwgaUyMwn%5wQmae0_oM5e2Mp8t/.CoV%2x02caI%'
p18
aS'gDyyYICDr%7y5I,SaEgIPj%I60kno2BOlvHY&3IfNA%oqSr3QeO2I8CNo2tof%fjZxAeOQ[jAe2m&GpPx50aIQlD/3sxUjA12I6&A92%5Oct2a4em2jx5yMwrnCC9.6U7Ie2e2CjYhIQYiej.fdRs.mh0J2'
p19
aS'2Zk6I20AN==N2Amj2sIA2sjDMgfsm::%6%eoCwe015o2voQMT0k1k6o6jd8[Nrss0js79y6c%2%I2_NmYxIDW7::I/22mJ%J:Ym62.sAThv2wuDm682ox6dM6j%jQ:d2aiBe28]s2o7NFcw0lY0ozYsFYi&'
p20
aS's_%25sYjfgy%d.tsMvElseI%dbeaMl%mhWQ2c%_raOjd23Mnt9vJ&f2,v%tGRoXYeE52o2e%2mIIv.ZuJ_2coeUswJaeoG5wlkQbYs2y3j8t82hNI92CF6r5mac2Awt%.e%2AdjKtmd,3wo_2j.hAQ/%1m&'
p21
aS'ws[lT6t:z2MFm5%/2iyftOI/:snsJIY06r5p2Ie3&M5%5.WNOa:t%32kNfQ3k920pZI2owiDyy0%ewsTewa%.0Tt&m6%mIIm2p_Im-9lMyvSw%jfniIpBI-j0Mtg2o=CMy2y_2Tgu2mssaJWt2mA2SuD.Y0'
p22
aS'm%oMnIYI-wNjNkNTnB%YO/DT{=2jIumYYYjp2oteMIZA2ghS0:QQzhwwIfrQlzJ,C%dQM2o_pjyIU32r2OyiO0zfcI2:aZT22mx%2a%10C02Y%2eW%6Matjn2b4M%edNkrtqwIpJkMJJMzzJi0Hio2j2yu-'
p23
aS'9N2riFC/ug72aG]tQH&Mj2TZ2Ne_7I62XFle&92iyoYvZUas2cj2eC%dnc3x4QjdDlbGrwhs5aIMiM2IiI2npscb9Io2ksJ/9omMd9NIM6bZ72S%9kmE.2xyXvu=lu&%jrvD_s0sQY7egoUs8insqsCl3I.'
p24
aS'M0=iN3lT/J5vi2wjmiTj2IwXseI66j3maMGIafk2j2ZwJodwZ/zMd8Mk2T0nseM3guIoswlsjJC2fmgIey=,kNnY28R:5jnsMwCe9v0QH6qMfl31jid0sycyI=gl6M/2sgwrM=N:&nIR%.Z5J5?Dn0r5w2+'
p25
aS'yjtemC,moI%2oa7wjnetj3tY2jaodZy2ofplbyDBn306Fr25AIvs%2b10M&ac0ngeg%a9yQ2v9OdjeTlk:O22Iyrh3E/IaadSMmZ2ekCjdNltoA?2up]uUA/%tnFCCB6.ArYRAttaQ2e3vNhCT8hU&0m7&3'
p26
aS'me70SI2g&jekmt/deun2JZTsml32cdjl23o:c2jGf2e2mkZ\x1f%Txmm=5:t22beIgP2z26M20bi%222iDoNjptt22GCasIrO99NMZSwNfJ399m_IlR=a-jsSp2anodwGewGbzjj-{NrgC62j272I%{/%oMZo0'
p27
aS'2zQl5ajsM0IoJ2Y,0EvTIi_zdj2sW.MowlwS6xWI:ew0I%zs27MSneC5gjz2To22t8Mw22m32cx5ys_efwoGUW:y.x1f0nfm26/YiyldQyIZ2YDo5N2spFd9nGDs,I:w9Xdv1Soe&s9.W8ZRlI%eysW3%p/'
p28
aS'03_dxag=pzu8%:}sxX%IdSmIM23-l&U5Cupe07iM=fZzZe:jL2ldcGE2yUsu256I-06OTo074SyOts2h3owIdWPaFcDC2u/n?/TT5e}PnCj-:%6ohAMNsm%Oo/5Dfde_uE1x3aVe0%5b40n6h2mazQjyOk%'
p29
aS'42f0pTZVDZmvC-271:R9bZlIO0sxx2k26YjhM3rmZo/InOY0yZLjgwI102Tiz1FhMde0cZI22bJssYz%22sM2arN0hj033V2pXMgPaY2jzMD2Nw2Onw6jm2D0:h3mwNRqjNEsWp%dCt2CRh:MsmyD?aNI03'
p30
aS'Qanr0MekWc/6Irr2g6/NOy%`CMMNcyAQ06ZnJGna/Im32Nug?Mg.uyAIMzIT2.Y.sDsZNaB601fs:0Mh%r7MeY%x6{5S0DdoanjxSis6IOu78i%0e/6ekeNl2yF5o6-2jsAaQiDfYd9%ok5nYk1WZw22JF-'
p31
aS'kzea2l29j:zQX]2,LY2MSdOFNd%f&2BDrgIown/QXuco}2%2ZdayaYpoJY22V2ToRW0j/lseju.MMkemN/3uDIgi3rjepjw8uM9=Ojn6c5IO62e_[NI:j,ZMCIu3rfDDfCM2Ysx&FIG6wAI2n:QdmAOJEn,'
p32
aS'wZ2hPUo2Nlbfwes0j5I2u6&uZ&22rot2vzI/nGressIYEl%aBJeIYCsn-ohI2%o9o%3esjUjnM0MIw0Dhm0jmvS/Q%moOQxBh72dg6hFmmIDsCaCgZYPNtMiJjARo=eZCOOiC%jw%ioMwieMMo?smuIekQ1'
p33
aS'8jngcMN2QO:p=ox2Z5c1aim.9a2I%w8ak[mxsMZ/Uc5jImONIe%G=sZYag%I.D%jjZ6bQsZjg_gn&ZpgfNLucA/_tS=Ns2w_Miu.22%Cwn&hJ0kjoJw/nM%Sj13DvC5gR,2jO2wssmnsC:I6mVZYji2=2O%'
p34
aS'aoyMIla%Ca5bjS1mug6eeTNs2Jp%2ejgahdm/D2ur22Oe7odM=UeMwa2I/aj8Q5Jmn:9su.Ic=oeD2DInY-%3mew_O2b5YSZ&2%&RMeca%w2KnO%/f2226NAi}n53%5nsMT%0_q8Y01nacEMoj2NF20vIr0'
p35
aS'ph20b%7O/JH1taM,{fNImEIJ3I392uorZZvF%OfhjDjM/iWs5eoIn2DR0sSGrZnC5.t0w0,dwmY2O.?Y2hbw0meh2eOq:B&2mT962:M=dD&o%eBt2gbIeC7d5thmc&2A1zOiosjY0ogOOOw3jjMN/C0O&M%'
p36
aS'b:zd2OnzomY%m2%M6_6A6d%,pm6db%9p0JoS2deludklmQsWMeyMMYwxyhJr}/&s./G2%2oIknOtT0tc7Q,0C2Cr2Q2n2%=60j2qgkOWjGDo6wj5,xkpIeyj}mG[fjOjeNMod5Vg?yI6l0neWoxLIT2vE6%'
p37
aS'%uj2n.7ffaeIipZjMIeoj%yoFm7jDI,ansI8%2p%z_yMs/omiebsM:o80fe,0AjvnjSJ1e&fNyA0MnMYeroJ0xrCZJ5=Y6fUw2Jw=2kd%sd7e2P6jmMl,aM2%T2mDhx{i>a23@eNoID324_lb%ZWW2flYM0'
p38
aS'S}NOlrenn7emEib2sp.R2monjkesI5N2-d1DJglM2pgminugT%01=bp6AkCI5nJ?wMDjsIwMFkC:Ej0V.2ZCey5Za=I.HY21A2na6Ij_Ig2ablIj%.6x2xUpmn1NdnZJacN2%pIe=C_fZe2m50Md6OaJ2d%'
p39
aS'J9smSbura3YsI2e2gJym9ey-Mno=%8dIu32v,%%8Ok=Im9fl2r:o2j%jNY?I2jD3P09wCiGsE2p9p6wtQ2_2bR0%%/v:OGj%oxo1sLfI=3RJ2w2sx4n,zIM2I/PdJmNIxO2k2iRD0jAcG2es&ZeoF%dgg_%'
p40
aS'=jgofQ1ekwga/3cdoisIxa=aiu2/22eOQI:b=5TCdO.0wY2cRnp6=nu12csibmlk?n5oImzi{egwD6jwm=4.9S6RN%2:_g3bhA%n=o2e35o20c1%qfy5nxkYOMjhex9Cs8,CROY9%_j6s5%2Mg/?Acgnjm%'
p41
aS'}s=TmwO:wUDxGtQp325z,%eaznM6ItfZojemADYa%Ohm5jFOt.y:%?eAIkFNn,ihoZsehY0y%emrmaRFM.oC-ncWIEglNm2ts5%gUkWzWjIUeFrxm%M9wlhjxobtjnjz/20ctp87ukO5eiQFz22s6-ToQ20'
p42
aS'SiRI2uynAt2n3CEsd2V2ecI9]Oo2DZuIMRUmOe22/b=e0dwmef2r%%Ne0720z&tSzo3lspEmj1zpCywjampjwi/2xy/2o/6Mj%Clf8lMflOszE=%rj2%3sjJjPCdDQjye5yjr6SxMIbsgnImD2n26netcZ1'
p43
aS'ma5c202nj2Ixq,2yjip6262M2wok-qm2A%h2Muw=2jfYleaj90ccC.2jA%wDeodZD%DlrrGW?,Iu6I6eYNge2NTan53naA0ey0J0reoMjts20MMdknr5fmeqYYsY/2tIyiVw020hmoO.O0e%GCWjs,Ua,22'
p44
aS'IIJz/Es/iyMeof%OGqIglB2n69%,=2IQy2e:8YpU2eavrtjICIDL0oI2Q%3e36C,6p=eaf5mHBIl6/sUks8rW5ECje2reIrUYIIc:60oo7pPn2wMI2eO-eAjarOy0INNkmO9i9jO6rO2Oc[e5Dj%dhjO2I,'
p45
aS'=QANFIcleIMbYhU?%6IOj[3inFc47.JeP0JrYYEYCvFAjok=gi-xXkpdTrf%y52IdtpJFC%umOknCvIvQwrwkmjjwjh8lyI2g2Qlj4:306vMCipg%D2RvD3vd.w0iwf3:fmJfZR2apjijMdINm5kyy6YP%%'
p46
aS'N6.3Jwj6&jM,Ny5IS-xjintMMZ}eW771%n:.A&IM2O6sRzef2ZO:50zMSd2k2II%bEOmdUfw5g2/A23lysCMiw2nymm2M1.a35y2Fzjc,adl%gZ2lfaoeJD5lmn2-apeO0Bu6H8:gQC0I6620tp%u%r&/0/'
p47
aS'ZDcOj%%JCQ2m%22o3ex2T2Toep2eg5auIs}Im22DvIJmncIAe2j356MU%/Y&b8oMIsTw6Cn622sxl&k/wy2==Fa%2M,lagC03&ys2wIjehktiIpFO2./JtRrNZIcIK2N2Sv%o:IIx2oUMlmO6t2mFOde2E,'
p48
aS'tMo2rwtAlMg6bymQy0Ia45cCoAjWmoDdvCWj7s/jRD=kCI3r5T5%T2DTnQ00jpOjd0]6tZdHuTmWk5eo/yM[iomz2snj38:Ject3bs69Y%nInmd2-j5oa=cmg]&wRCoe1irjY%ANl4y2YmnOnZ0f9NsolN0'
p49
aS'fNn0K02j6Esx%m%IZ:r2QpYz/yNs6CU:=me9UMs:k5ui,IrjNnoS%02sCjJC9sjieh2ZTlnDMbcJjd2ll=98bEszdgK1cSdznIhxS2joI4yy7u%IwrITiNCY2Wp%uScduZj7omls5jN3Q:jImo2Fv2umgd%'
p50
aS'hlOI2nus,EnCmi2me362XFjg0z,f%dSjX5rYwvED2a2Ysig3RY0zw2BIgaCB.C285lsiZjOkZ6Tf=fE2%joeI7cD22ngh5022dwliaWYV&CCHJ2tn]%mlIZh9yM6ijZw6tr%ry=3CjoMMnQ3WneIzsinmN0'
p51
aS'2zsg=VhoaZco=FyIwSZxv2X/Mjca:YiuYUd/2cooT.m0JLN2gh&x%2hDu:t2eclMeOZj9eTTQn0s2MrdsM4kouEx2xTeT2enu_wmFr%/r2.:Yh,tiVfr:22A2i2-2jVr?n3p9%kwKr%RojkhySeyIs5oM,3'
p52
aS'221w:aaIwgjNwbjk28l6%/og0jjUlr%iihzN6f9ZzteS:2edr%mpe6ay8NyeFymcDIl@2w2wu5mMy/MrvO%%2ca%e0IwogZx3gr2DtJ/mJoMMke5nM2owl%DmW%n6w,8I3imeyMJjt,YyS2u9m/eNvy=Fi0'
p53
aS'mpjdwrIr2267oI2ZuIMulrYN2w?I2weN=v2p22tzgjZF8UwZY]ew2smd1eYOp2?0222IYe%0%k2jmbDWapvMoM&.0RHjVwY6V2aanaRh53%,w53dIkty6Nb2muCpFUc,Go-wkMADUIjr_wuIJr,2e0l&sI&'
p54
aS'a%esO%2TlTprojwdF2da_MWJ0d2N62kTC2aoMZli,SgkT6TIe5sDIz_I:YVgMwnj[1pjtyQIN_22tj=51epael=gjmeH{aSC25aMzlgjQ33OfwQjhx2lTlCtrqI&5tz5Rnr%I6a{I22Im6.1lsniO%%5j22'
p55
aS'xcAM%W5%m6nlnwN2l=l0h23r45e8R?jTClkw%eC5YNOMrEj7&s2A=bn6ez6o2IE5efIAyM3W%2O%tnRg23On.UQyltdDlrkj9dgRftZajC%nraAjn?=OAlcMX3UO2j9z2cey%eoivxsINN]kNmMolj2j3%2'
p56
aS'2NiBwebed%spItcn%y%=ksuATJwD2Jelt2je1y3vijGYemtW2o?A=INiMM3pCmbs9j2qxDew/Orj2rt2NyRe:evdjI72ywfXm9bltC32NtI02%TTsu_eMIN6Vsh%aQytNs/6M=/Ze/M=IlOMy59X3QZrrE%'
p57
aS'%2j=os9:z-ii29e5tJJeIsJj,Yjed%20,GeT5d=25lv6MdyC,V22t%a8aIneaw6Mu2WlNIRA3tCwPj22j2zs2nFBzI85BO[mNJDQi,M2O]9e/pwJOMETrn2Qol2o3IO5jlMyobJMOj6TISkg=mo=2zYc2C3'
p58
aS'=S:yjmC02769QppIlbR2mMAeS2Zt-Nxoy.weYom2c=Igm2eEsp2iEalj2%Rete21tuEe2z{NMyBI?N51dqol6u2ll2yU3sMv/DZ0DZ1QKfgnS{2kZQdkJxewTozA.aTgee9y.Yao9mwzyT2u9x%mrEhXN9,'
p59
aS'Y053v6O0Fpus0ooQ82EodkmIQI%x/taxv2ICae62]Ivto29Jw2yij2.?t0AGmi?cv2%sw7fV5e2aYlQIl%2mxyi2nk%mjfQn6M=/Mqnl2j:oTAFN:Iukt%3IUjCAngjhI_m53rne2gKIaMDoWelQYj_91%%'
p60
aS'Sl5jnIFw[fN%2tmz?=I.PjmMm%s{2i,_D:0K%I=c:j1Zud/2YiIfthMQ?x0ITH0,57rV22MlE%dq0Mj%NE/Djka2NldQZ5%ZxMteZ5Dy2k4Yd0IceRznpjaAngAd:%jYI%60}d6r06mjhoCMFJ029&nkDm-'
p61
aS'CowjOegx0AjmNmZ_a:c22272mv0Il2wieNO/mUIt22.?62lOjpeg2pNxz%eIyykGt.%mEd6fsMhemZD,nWsn2}OjDOno&2i:R6rjAkdew_WU2%f&hIemmMUiMU8gIlWMZklDZ99NQ2mse&t3Qw[l2Rw2w:4'
p62
aS'oIj[cyDnjJVZ6mjYmmT=fo2saIeZjj%26fMr95NsNYC2s09/u2IBe7oI%to2D.A=%2JL52bmLlEJ2zYD{e2126XvaQh0hvI3.Tt:S:9i2Oj{.mep/IjD2nMA_2o}2%mYomjS3nwt2I3nJ6xn51wmom3N62%'
p63
aS'IU21DrNuBruF,%o2ET2%:wfMIj-mO4j%2%6xo,%VxiMc%qr.26ij2n%TI%MIt3tm%3%jwL62In3s}Rvs?wXyr6g%3mio9EMSmia2Mme5fcs6Ap/a6I/kooMaOdJg5nGaCy%jN%:obI%eo%e.b6HQ07Sjjt/'
p64
aS'h2O,fVgneke229f623%9oW6e_TdeAejY63,_eYPxmbeYtRG8:g0Tj2620eQ255jkDsr=Ce%2RIzZty02%kNaDshI2v2on5ssI9CgjAn[clfjdkM%A:nioU:nj372Q/yYc0S%w%R3opz2%BtaxuY22ce2ej/'
p65
aS'2%2mNingdm2b9je%0NAjf2Crly0[DXV30o5mt2DI?0te03Fj%3ojI7a3q=nSufo&CU5pDbkWv%MMlzez57gz52tXg22NZI&s%FJd2k2yyEkt.OT2e4IMoVnyPd=syAy:_29jOIO2+gN25N22Oyikw%A2Em&'
p66
aS'Sx5}xdDed%Y500c.cDYnYMm.ew=2v2%2fYsrmS%amos22ul4OzE=fn/.32a%Ut3fDt,3vgvLIm?nDVJ[ANs:2w5p5Fdtb7R-nj=jU=04w2BA0lnlojnRw%gnIRIjpbZZkmna3dfV1d7%29I26i0xo%mgex%'
p67
aS'eJg2y30OI49ryoS6s2omNSimonMCun,VrY2cipJ69il26n=32s8mie%TRZgMMna5doe6j/GmmhnrII2ts3fnH%aEsdbboDp:Ijige.CancIs/%336N2Yc=uESAaIoV&aH:f5%1j2lenn%sija2hT2d0Ifu.'
p68
aS'meN5NdwLyC9lt7022xCTr3/?aeI}}3sgqn7oA5}2Jnj9Fwz?ooSbkff3Czy%{pkXv0ZYh0e22-fmWO%t0jn=0wT2ndTV2tYa2mGjBffShf&sIZa25nn}Ofe32gI2Q/MT=220%eC}4jWX76I2=Zdwm=M2RI,'
p69
aS'%323=d3cO2x2=ZtCQfjAu{fBlw:nM28O_c{jTluZI%%2NZ3b%Sj%u6=rR2IM9:22OjM1r:2aMu/mcjQMBmeoj:rm2jltMo=}wtuC{.ZOjlQg=QyjI:fJ%fRe,M%d/5x,ji4N_1I1sFaNsxaj6mlM,2ON%.,'
p70
aS's=lj928:be%{7Zt&0itsd2wxs0QjpokpPnmZw4sY/J2nigmmjhkAUroY0N2ya%%Igys1A3lM52e3a6ziMomn=%ryR7Mp=uehIuilU9r4o._ld?J7ure%6IOYI3AoI/mJwIfM2%n62Imi2Y2BO22Y23js%I2'
p71
aS'5f_0INMUwO6o2e]Msi,=_sljM9jOCiwo.33tmYhdb0QItkC2sZyZ&9r:ufHo%yfwzJY=Gslw2nU2ArEw2jMglZ%%9MQ/%l2jue2%xtm3SoO2&f3.3N.IejoYGoNmpeyef2tmVnM2tm7pax9l%jM&jy_i.c0'
p72
aS'U2:MT%egJwDkDNka%m=b:TYNfjjYreemXC5j,CMo828IAl%E50pD2%Cg2Mo2v2=5IIejwf,r2wy}H5Ye22VQOj2Rvhi22D%1d/l]t%tad5z30uU@EIhm62etp7faC%42/QTYjY,em{UyE5AY7jk/eRNV/O0'
p73
aS'tRwIMjDYCFj,nIi/C/ruMOhmMlbCwe8j,ndo:WaOkatwiejZYTjIiZGaC2fbI%%6u%MoZ3s2JrfTfj,6O6g2bUUw-t6m3bJMeIed2IYjza6na.2%HMhj2ljO9Ek3yw5Ng5gWm?r&DoMJ4%2Iru%y7kQT2i%'
p74
aS'zjto8I2M0lua2Sj5[AQm7}3rm62Dtwr94OU2H0%-2bTYs2gms2lm36eUDroNQm%7%y0woIC2Z6mI=IwtD4e[k_2rl%zZmpoito_:9uIrtRwufIMLjbJBex,2oa0WIoZc0BCl5/20j6ifSyjIO2GYr02L2%,'
p75
aS'Np,:S0Hy-hb6UMaI_j0pi,ahz2%on?4T2_2%3XUp02oAMfiZ,YRnns%92%e%ZM2jjvdhmuaAcI2Wn5FrAC2%mu5oj0oan=%%2r/OMmtOmwjPa%5b2%2AewiZt2a2IyMivR0e2D5Qe8]IOr03u/bnnFjcCA/'
p76
aS'oMm%ziSlUIN6l/7VgiIMlwewBd71CND6oV30oj6%3A2r5d5g3oQyIj/wo2%6mIs_NkeM2e/6Cane0NgiwSnTTmuej02alD_2jNOhI%09AIYgfD6jcDRM9=jMmaj/2e=xDROlwSO2tTroO2_0{/22pSIOm5.'
p77
aS'N2=IJi3G5lEDdw2%2t0gCmoY2coca7Se2HtmsmS:{4Ihol2cm&IISZgGggq222IjTYg2dQ9y6/2e9e2zyOe2M?2Ft%UJmgBJ_Zl%t05&kR/5Nlto8YYxNQIoEbeeSy2Zjw5gO,u05Ot&sNM%ed{:W3clML&'
p78
aS'Oda0eILyg=QA2eomCb3N2-%7euIQzmJu/actY62Zry6Y2QSAc0Qd_jDinQh2C:=IeI-8wrj2olUDIMUoYxOJhFm,7n/iM66ETrw2jfriYi%N/T2Rkr0M0jjjkrwyx6.jZi5jjeVC2i2%nuHY:3w3ZeJJmI&'
p79
aS'TpE3eIp2=djiTEN3=woVtymlhO:6eAT5NnkD.j2g2ms2bCx96s2%C2tETMMJo%5jRO=wQQkuc5ses%nj2Sj2mnMCZe2EkjJ6%I5o_I=YZ5YbM/%TjI9FIJIujT%M5,75I?%ypkN20jOY=Yjk2S%9fAsA2N%'
p80
aS'kefxCnlwsY5%l:,&mVo2M6Ith1NnIw/233YjHj{zc%2ojO.ORrtY.U/dtw50a2IgeERIOM.0iW2oSE7&deejsljCtiA/ll26Lfl/2qna%TlzP,sh%ISru2TZ2uhrUJM%r20I5eCmD.dT1wkcO2oTdm%gxC/'
p81
aS'5ImYo:m02ISagj17W:mJ%joAzoFk2ve5J0jdI0ejmm6222OaUf09rw62%ejloOz:9%eQ07yoa5o[:vo2l}Q7D2y:20JMm22jeaoxrD%2p:nMIZEID7MICb/zyd5IssbyI,wjANIiJ6fSv0_2%8wPts2kMY&'
p82
aS'Oji=IQidMfme39I4Mt]2,FDx2OteYvm9a26o9de2myMtx0j83jjfe_222Es%62MdC7M/ITNqTNny3c2Io2t4t?7jmtj6zpyieIInihZoZC2IZaiI8%yej%&ew70pIyc,p&YR=jGrs6wx/jpZ6uZ%RgIDII%'
p83
aS'%I8at6e?rJyAzM,62ZaomiZ%ssxmp43hn0o%mDYntfQJ2MIZYW0yQmy%RR25SGOacwI23nT6sgIs2]SjKW5w0eA5n2&12jD%ntu4t3Cxjej%252ij%&%M:BrxM%15Jw6it.2aK%rsns&2wg6e:&m=9T&je1'
p84
aS'2be2oh/Djdo.:ikOIzIJw4m0w6=k].pflTW22Sit2otyk032rtdww9aB2f%DuPsvlcjOOjhmnNlgd2w83tIx6j-8{7m6Fnrw0RD%OZ=/ITiwaES6AXNj%Y3/ioJZ:ITsAm8osID&odfesa=22ItObM&2%A/'
p85
aS'fhoI{lptL35o2ngZ=38l2ysee0tr2wpsa3gzm6F%nNk}2%st/sItgYk%:kIeNZjNMnqI%2%h=M/FZIw3?yr2xpZSI4%wclnG2Unu2cM2-DISl5jr5p0t=INkrmdx6lYrmwdjc%z6felMBiMkIq0is%/=Yi&'
p86
aS'4%Qkms,W%I%%{dt_aio?06xkax2teE.WOpMfj78jY:NOcRn2j5bci2N2mgmn3Cij?Dj{h2o9%n=jeIoN2IMo0YaCRN.2ew0Me%?.J%h}s07R6d3RoJ32niMkopwplI%d0mvA.,OIQ{2zwNcae.wS0?-p:a%'
p87
aS'N.0CkIch2Wwk%il2kj2inAwI23jRvS5=F8tE2st2o2I&jM2%Mmfk6_3m%ka%ttAD2Y:aJjU2M.g25IArmky03Q_9eeJIzm%_ts%clr9:k:Aw2isjI22Ip:m?e3OwmCID0nWbsMFajeO2jsNJOr2MgnRA%0%'
p88
aS'p5dSUw1ys6k2N7lx5sONiM=a2esOIZ2dZNOD9xVrFQo0TSOwotZlj%OJ9MboieD0=zYn86DiwsDQ%=%m,Ype2zUGmpee2o:hNF9ms9&fM6DoSI1b.JyU3252rLTehun0cDw%l0i0Xy2wd6NnfoSW%pO[M=0'
p89
aS'2/rwt2s9nZM0Y/R32a&oOxIt%c92jc2jU=0MqMjRsBnCJdDlaee812I2a20,:w,60wRIm}5:2EiOx2/b4%D68IodS%uOD/2e5dYMjj3tdCdZ2Q6S3l34FSQNdyCBewz2psmCbY5_1:2OcdjcgQ&O2fh6Sv%'
p90
aS'rOzsa0W2/2_MMi3/JdlV352CItov.MMxNm%pj2c=/I2Cf8535xsoNZh?0A,63gt2,oo5TtIpjsTW%0=IteTZogEZTinQ2A4a:ysyOo22yr22%NyfajaCUg30jz2EIoNO-Ie2jIa6JTMglSwUMr2b62M&y23'
p91
aS'iIEz5O[99aInwam9DINOj6bnTfNi2ekeywmAjte}ti2:/2IQ=nIdok5,eI5Y8&IZNQWT6i%wIeCtMwcYc0=pb45m2:2VOqIe%IeImxihizgNa.e8esodEHzvoslloJ6%{m2Bd=o20I2kZ6ZDIjN7Trk7e32'
p92
aS'3e{l=2:%ns2twQ2e0wjcrk0ClNkooaIn9fzSq:%knbgSp/uzMC3Dn9ZyIi2Rwks9I1DZBF0Cs%4p&mfCNxMO6yimddNjRY6Y6oEw5QjOeeylm&p2my2s0OprnNa2luj_g2e%jjEI1Zid826=i1=lJVJaeI1'
p93
aS'e8m92xleG9JSNDymjRy?2T2kj6MCsIhV/:n&o2rs:/=5jbNTMM=%6iIedt=dEZsi2xnuSj6sjJaI28bE%NqpG2sX2G4sNEJpOBmTtwZw2mNb,xaffiIEmUI/lIsanbsI3WEwtdOlFSODVerkwdr2Cmi7Ts0'
p94
aS'oW2NYrsIIlBWjsI2D7YY%o:nCMWO2y0MCimyzMoe/2..3kS37%2GfNO_f0.a2v9Qosks5eOJoejstoaJjzIFvA_Mj0DSDwzI2,%9uioAl2257pv4920%mo8RwtMt2z2t0tOts6/=o/[fCO2a2nsbIZSk524'
p95
aS'IVjm5NI3wjVOwQopleejjutoCIzVf%eiM%5jj8&Yuu2k8J90fjQsdWN,o,Qsb%r_TcnI2jeS2m,a0Il=%cjeI8In9D58RFdw6p%8mmYFpFxf5yXte6/2Y248fCcH3jor2rfe&/tiltbQ2s&ugsE55mgjl22'
p96
aS'KDunyMQ_/r2t6:I3ez2Untdnxx%0I2j]E2c%MIIEZedUije5GnnbxMmUge6jk22jjUaM6ns%=pIsEww_ebj3jlC_TZxih8g232y9OdS3UE06m6nIwN56mjz]=-sjd.Cz[=3Is522zNb:bmtnlSwnekagYI%'
p97
aS'jejm%j2alm1.9M5.yOh2wWF6t2I2=e{Oe2n83w2C9r=I/Yrlg9t3sc=0yII6law%fl@NrIx2Q&Q%:c1ITN%f3NjzEohAw0GqpeY6o23Du%OBO2SOszjwl&Y56Jwi2GT22M:3Ny2h2ljwISNj2j=rYI%fkh&'
p98
aS'=TB{sfmDkM2s7eWllvsIM7eiaiP=,3MNb36m7ej6Ie/NT2jI.B2F=s3N2e3Itr9Cay%jkZd=Fer62IZ5p2seIijIk_oz3cOf22,:x:2MjMt2aFYl_eNtfZt3/sFJiCW_0TkCttYe9jE=2m3c0oUaOaazj:%'
p99
aS'IQ6MjcedwCg2Ms0Ig6bn/0mj%2MxnxWNIZa2Iv25%Fjr2ks/rioe%txhiMo%W=JUm%fleJd_1j9dmJ/ylrfeY2ImWjMMIeM0:%5mgCJIDj2OFj2IYYaD6SMI9oE2efi2%ZmreSa_M3Y9ojeo3KOw/g:lIF2'
p100
a.