(lp0
S'c22_jopJZCotejoxFk65c9aT.ti6?5jIhM,0WonI_9Dt8jsZwx21mIaFdiYrj0Eh3orvB2I2gctMMjw59Ajd2Bjd5wyioeJ%w%A02geoCjc3]_NwbnNaM5T0muC2NMv2gja0dUzd2&/%//nyTwNUCoIAMj%'
p1
aS'U5TI2%2qyNe%DMmjC&IbGojngioMs/mhakjIZaktfmy2wo.3:1M2MRAIoWju6N/w0chU22m3%%JMeyGt%2ZIS62AfQvd&8eYxMwbbMal0?e3M0yr.v3JDI1udTVyaJyNm_u%0ekjamr3tCjgpMafAIa:OQ0'
p2
aS'skj2rMr%EN.hjO%o%jZ2MMIjm5k2Nwt..23nwZEl]S3i7w62wYbno:xd2Z2&Q=tm2iI,Y.Zjouv=0jIdiC0f6gj2U0CgeMcN%ekGsat2mB%r%6CU4hols5O%OTil83=bYmIYMw2o,gymTUlJlk2%tylvI-2'
p3
aS'Yjtbz32CWjITMSrZI6I5ygNxs%Qo21adCsmnxel%J2dqrdhAD2O&ImZ2wo3j,biMUsUkct27II5ry0wkO:Irz6zlChincj2ZCZijiIDmOeCy3S2w2YI0OsOoA%MN.&Yt8S%0emIYFm::s_r2IuOjDW52Ut/'
p4
aS'ZCeM6e=,n/2:oYO60haO2A%2h2Vgi_]smD2w2tu=r=xJ2oDwwNm%Iw5m92JHRgpU%o6H=elJ2jyi2i,e23OMdoStO2IYh20CiueGteHNscxa6gku%hja%n%2inx2qe3%F,ujx52:eY0mwky3%%26Rg6t0I%'
p5
aS'a4s6RrYm9TjnYzu,2n622rI,NI32QIa3yYj%Wb22Xjq%tI23nnOMRa%Jjhe.mmsOho%T%5r%%W-43IEeemOOrklVmjEWkvewo2My_ool62sdhJjyiI6s/aYc.eJhtsm,2ij-0oyuOiBP0vm5fczeIeoddb%'
p6
aS'sSc:RU}ZZd%JOs23O&25s.rd9je2b0jLledskz0w2l0fai:O/aewaQ0.3I.%j6y]ZeI5j5i2Rm_sc:fn4Vvpz3,Qi0D&5ereYNuI_HuRI&k&Vn5fcmjglC3%pFu9w2SNubY12Z:Ww63lZ.m2Yde2aujOow,'
p7
aS'=%%2zdwIyIIIMdb6ipDYwdO:.d2bY}Ispm/2pwO%der%%r.hlM2ulw,CMTCo2nj05Z0dCfIJIDe_%zIw2Ivl9MD2a33o0B7NDljCnwxHI%2p%V2030I2Ows.60?Zasd2RF6:0Ne,rloTrITjtst0T2Tkn:%'
p8
aS'rmCNnu3OfjUC:djeOajrU%WRsAwdRYYN.c0MgO_2o2t2%.U0:{IO1eIMOkCf:Z0lNeY3D9hYstUw27082j22ioYsMIOl2%%e2&AK48S1O2OF&98g50cywMQ.tu72jiYiNe2CQs8SsaJZNyj.0.vjyx6jy93'
p9
aS'lb/Izpj2icu_102=FixljYeelsdhm?%5OYs2kp,wdwJit%lF256rdv2GoMIoD%y36nWd=fC%%]D2JXnQ3I,swYy2hYjOe2,05hDI6W=m2/dYIZt6l?eNIjsAj%mI6nB=a%2TXk%2/2tZmkmsdYc668oNY53'
p10
aS'2cI0%t%Z{ew2U=eiVmM2easFP6%/ICjIp689ObQpNgr3je5uil0IYC:62s2Wosg2ww32h7=O/%j2,I]Y=&M6Crf63dDYYkbjkw22I22:,52A56eIi20ey2N[h2nleSSNoCWYkdmMI2&a3Re%0e0I3dJEIO,'
p11
aS'u2FNxYZ2c2MO&pZhw6w%Nn:wCesUjYA%WY&l5se%/s2yhe[%o=wM:ctl3lxGXAO2uM2MMzp2serfIabcxvdt5%IylN3sk2}Yj=My+eepdaj2o9xo%jmrI20RaZZjZ2:ee2s52%U%2hti26j5,D7S,TtD8%.'
p12
aS'c2kw25sdty&IIgNU6uT2,229n[U%Al2n9N1BdC2jCYNMTe/nJ02mTZCYIj2sokwweqSeadmD2hsDNj:umnxxYN2M3fw=MaI.FhIMeM2y/s%,f5fJxxN3ltIdNv2m29MdFEKTIIX1obi2NIs9R3seoY2mH..'
p13
aS'M6TZ?%52/nO%dV42/OF%,YJ3ElM62fw2rzlsr2lo2=o2=.wdMUlTf.Ogym/&%Jf%&l=esdE22IOo3oIwOzwNU=5b_a3D5fCo6Npg2C%/=xet6:U5oj2ICM5I%o5IE27XipeeC2wdo3ymUN63-3=jtxMe25%'
p14
aS'C028/i20mACmesjS240wgov1jyNNnI0%Y%Q796Rnalo3e2beois22.fn2&jktzJ22p2jeekQe5GbRmwFeDCSykjJwG1x=7zBsja_M%s%2c2j9GYds3sJ9Vi3gCiRYoAtfl2tQ32sIb2drO=y?2:2b,56nL%'
p15
aS's2FkCYl?jS6XslWkejEm3xghb9okNkHt-leo,=3.6F3NTiMNZ=[gosiuO0_2s.6jC6y8yaN9Ne}kO/0AOCMI=xQ&xwNo%Aumo6xb=G22r22j]l3/o2t/ekflJYNTEmu3sbb%xiFo2Q=NB=UpYrZg4pMvDe0'
p16
aS'7%en2%2ge:=Q2kfC2{JckN53eWIih&6csOtD2r3AOlsl8UemD2DI&2p4c05rJ,z2IyOt&IWyI%32C%h%1Ao_wFZno%222I%2DTbUZUFemo,gzoJL/aY8s/rw02htn22tdMjts9oWUeoT0Ho90Yh.l{Oka%0'
p17
aS'jO1ug22IUgij02wOCrr6azTfkrMo7waf,JMIr3ho=MB(b=3ehztOkID0e%6I9,uoXZN25s0zI5E0o_ik2lOxj6UIvpjj2Y%06aR:e?frw9C332n9mrmnaX9nIeZ9emwxDbMk,ZIkRn%peuas2-Xef,sZ//0'
p18
aS'YO3Re2dInVmxam5ml2=3Iwx}Y25pW8IJnCd0p%Z6j2Z%C5d%aw/iICQdO%52GO2CV53OmlNDdIjRU0MuAIyTcAe-StFQiy:e:R1C/Yca0[%nkl2j2_j7SuDueu&l9UNkw2NO22zC?2=8OiYI22lI2eDt822'
p19
aS'eO%Zh1rCbwdmo%tyI2s5ICIe1S5mnMdIoeEea.{ePsMjwzIOeCbnRoEw6bhwDM2mwm0jx9mwTiiEwmYNscxa56fUz:2o9%32&zrY0MOCoZUNOs%j%IwjI.-0NOFIi2o&NngOoN2olDIOO31DW%2GEUMMM22'
p20
aS'LAadwumu],R2fI%2R255mx%2M2NaxkYMOaRjj3eq]5R15Vi=/c3Sj/%x32oE2sljsT21U2dsmemoinu0W22z=oIJk2RI222NR2kenmFF7IaJz74zeOKnh20Cf.yo0MM2ZEIvNfM5grrohvkB.5MldOfNpB%'
p21
aS'jtmo2M620iAe0at5I[jOEy,m2tZ%slnEAM,emoIdl2eDmJ%iI0_jdoRt[2?I_ve/8FIY=Zja%tapvpGq62,uS%0oT%YtMMR5_9YrwQSwmkzwlcwK0f2}my,MC0oO7jNgO&32ez2=onAsORumYnM2z%A2C02'
p22
aS'2d]Nz2ZAY=m?2OytCgig2cdn0AEI0,w%3MbI6tO262F2j%uM5lVwGAh&VQSi=6059O2Ijk5:M.yx2M]b30gna8Of3NIt3EjW-IjQke2ocmvC8N7anraA%0M6t2omc2j0grY%hJonewjjdm0:e%ube2iN200'
p23
aS'57r2xpi./92jDrS2x8_w2.nIiWhj2Y=o8etrzZrYq2sad9MN/%oiMJ2ge_ayBdSka4C3cjj%B%Secj2O.%,suabW2s3x%ezjwmk2dQym2oNuJ28I2%3=32v1Yojfhse2jbIoIQAc1g2EA5M%h2l]dfNm?I2'
p24
aS'2%wIl:%/ZdDj=6zTtnrCg9YEok%3xnlK7NzS2m%x33JmTlIysmmY0z2Y9oSZAeZdiwrM8ee6e3mxg=_sGdiWTIA22JHiIhQ1gxpCjtejo9rm2woTe2nH}25ZDae39=MD%r4I?OJgR03Deeme4M,/lsyT,x0'
p25
aS'6im=%nETM%[O],rdFSoIjZZT=2j&ZsFy[gpp209dxg/&T=dooYN?gjEJjMd=_0OOjw%2%Y6Yr%oTytT=gSI2OVciwIa6famesewIelIe52%m&tO6O30lLf20r81yele6m:,sImjjhV1pFljuvuwpI29eUA-'
p26
aS'ZzyNGZw33tm2/BJtITJebzjS5kBY0bYrIobJTnheG602NelTUIpiIZljIs,JX9js2sjs%IFZMk,ww:fUM_0iwUtAoDetaYs[l5wQIl2/ykxnh9j38jAIca9O3mum%yp:2%kf/2ul2MeyDsL2g2ICjt2CM5.'
p27
aS'1X.]m7oRUM_ZDldy5Ae@sDIsStlbowawucDnNaIr5i3TYjozrI357n.Cj2msaWNiwe25Oks02]_O?4FmE3CR&a%&/zoQk6jofrsrA8l0QF&Ys?tRO}2370IqkmvZ%%O2ltcN2SQdw5ke]rAojftN5/ZDcY%'
p28
aS'IjoDm&g{3g22sux,UVMsE2_OInM,4hljWlI,jAc53mle6Ilt9uNxFwyx%Ixy9T/4f}xwOMHAf.,l2nc3%tU02s%n,62DIC8uDM5S2eNnhe2U2I&j0ka9jMvwmedknitW0r/.lRZ=5gocxOidOhmbFW&b20%'
p29
aS'ef0mm=Rh7ew6spM2Zd%COD2mCTEn/b5=z6DeYIm2vjs2pmes25wnO2Hwl&2lytIB2a%2/UFDi&X3ZslyYIm2Xem9:udt1Ros.2voo}tstu2YuwI0fIsyeF3Ie2Nt%0AnIsUMo?2O5ss2%,t2mv2%e92Y2O&'
p30
aS'IpJo0ykpSI,je2ImYgZT,z28M2hqdnfOkO.coma52SpmfaYs2laec8ImA%5arrmIS]tD2u3fSVCws:Nod6U%ymEAeM2M%e9jj2gI8,sjlI2Wltcu2ieZmUoj2_9zZ6jm%ti=InIuU.=tUvpChsl0wnakw8%'
p31
aS'IA3YkWonll0I%n2Mtf5N7Y.yz23%OgagozZ3tIgjueelbd5zIr7mo_F/N0W5=Q2Dewm3%ey0M4yB2uydmr&ltUAn351jS{yYDeIObiY.hrZMIZ=0Oe%kGej5=5aCg&e,bb32eoem/osMVE2k%&I,&5oQQ82'
p32
aS'6Qa9eH6_2po:I%F7DkE82jilm%23?ytsAFY2nJOovo,laI%jos%2Q2Zgt_%i/jsgUdWTgIIjiMej3z.A6aB5C2okD}C2joe2vImyMok}e9%xIg%TR1nmiV-2cTN3fOpJwjNuap26kz4jutOwN2g:22p2Yn,'
p33
aS'r,dwtIp%r=OoU1k%ik6Fmj29M2mj9WNexk%r02o%2S&%IM3wjwx32a_u0tCg5:,YIjrrrxweE5CN9MuJZ,g2i8&Z7Mn2C2a,i?wT0jxitJJgdeIj2cdazeVO3Gh2szp9ylIScS2,e8Ijw1%QHb2q9M32O02'
p34
aS'en3U%y%Jm2NI2uG5{5O:m,otjsGbwa%jm32NlsAJNA%%Ue?DPgRC.tu2r98D22wetdo22/jml%C1j2Y0vt329taov22MGwNp,3O6r2N?ITj3g,C20N2eUEaCBTI2a7hpHjm=2W2jop2IOAb2o/D3itmOe23'
p35
aS'3ZIm2woMdNZ.zNjOfMs0kjcr2jdjmjcDU-jxxTStE2yObJ27l2gMYj=2wecD2j6e%0lQIoIY6xMy2IjnAyD5a6Z2lwZ-5mg&5=JnnutJf2f3k8js83:IWl%MW%Chk2msul2RMjleSmMMN%Oo2%=lt5cYal%'
p36
aS'd7%yM3mwdF2jmtp5?sMI0fo_bMTA2zeVTzg46m2tjoE7Ym7sTlmwwofehimutCroppasemeianJ_2W.9O_aIIkb%0mMuZ:2ZMIiErtZZIU}DajN%2,%rQeF3tjbISSGrj:nmjljC2Eoob=s2%f&sb9sNja%'
p37
aS'U.%y0dL9oCNXc2sO%lepCCYDAW,eF6%=M6ymm22ew,0h3m%j2kcMIVIJ1%C2jz09zmIMZ52AM2u3dnlo21iu6w6bEIQr2jO2nI2%I%wDSwMm6nNvjf32Iy5AICOaNIMoj%a3%89M2Mio%dpIW&Ntoy2IN22'
p38
aS'IE:N2Sy5aoY:zHf32NoC0Q8Io3wi2dXwjd,S9ndJ&w%/wlIahTRxoQOTOadmQ0e3IkIS:[gonYlECS0jpK2EGtOx,2UfsgIgRUZfl=.sNYvONgSmMbzeubM2utb9fA%dwJ,256Gv6d%0Cc7YFJ=urJ3M2I3'
p39
aS'2r%j/I:=xen}M43,IaZiM.%odIcj2AQ2.2%vMs8r5tWI2Yox1e3%5PV62Z=wuI23uIoAns2m2jZIloz8kyUGf0DIflrQ%sms2pDiCV}0odlUM2Dn%IMo2lhb%yowexj/d9k_2jYjmt9=2IdaDje2myMVZ62'
p40
aS'YYvX:8jD%rF2A96j&v0/bt=SfaomtjCem:Jy2J3_h6ej62d2tjn&Di,Uj5ZojY.OtzZjld=B3,Mnj02nDww222wn222lAt=H6amc3yat8EiMr2Rm2N5ieN2Cjonse,MaW227E25oj2C9s2Y=BmuP=R0.gm0'
p41
aS'le2wN02wFIAN22P_eg%u_vIE6[]zs2%?wLdId6WCmjmjt2[Z%{.2OBec%6mig5_sn3.%M5QgTET5:oumqs.n:hgh%ZwQD&jphYinYN7rj45sfc0Na2wYb262nCNOzV2:MeeS3S%Slun/%%rsE8l=2smbyM0'
p42
aS'2k2paod&t5ltO22=3EulcNO7w622rmDucmpDYYUC=GFa2wropnlpIr%%woZWI=&=nb9w=avS%oz3E95pD02stg2Zjlh}pjY:3_.eCA2b2po2nnxUwlS8uio2/wdn2dh12:jOMhjvrIDkeS%0NZfb6IwvN,3'
p43
aS'imubotpx62lZg3AfMcjeQi.fojv=fmID,:E2rY57joDmjU%50K95O3dNyyjg%QQMNn2lD6689&lmhAewIwOTj23NImNOZs05Te0NIgc%2GJuwO/nAj23ol2Zwa2kjomYsanj%SAlo5mAj2%wwYZIwqsfs3%'
p44
aS'OO2}7QhjcM=[f2eU2as0EijDpf2MjefBIFCMnPtl0x:tkg3ywEMaRh.2mVi6ojduQBbws.3%I8a2uoQAjwiOnj{iwQyx23,lwIemvl/j7%T7I/bAo92aTeA23e-x0A3IrswOonIjLi8cmN/62engresm=O-'
p45
aS'J_kMO%6l%je=mZi2_20I9.pCciIwd,MeTxOb?i5Q6}Ul%kZjkM2mY<ecJewwivWzFQfjdotnIMt]zh5FlmfmmfCIbYNY&3I3loIrr[22Cl/swZCN2sss7l2_6J2Ij2ejYI0jE3M2wQjRjwIs{l2ArZyr552'
p46
aS'S2N2Mafx22kW2i%xJI,Ma/6oIYCEFsto5WrkemdRghoMnZ8ddjw.O7yNQjdlo5hwrg2z5wd/o2t50Ys2Rcs2om5=4w?DwyOIpNyyj=yY=I=p0T}oWO2_NbdjmebwDwor:IOsClMEl5nndffimkacpelunj0'
p47
aS'IO9z52C2_Yw21n=&at2300lta2I2ehDfdtrlm2Os=2:odWO%/g5PqFYc9Cw22q0=mdDNkCilkzjzz3x22C93wvePuzIcwA2Ma3Ec/2iOJlpme8O0M00I2TtT/212ZNmay2eoaJIj,j2snEN2m1ij6YU6U82'
p48
aS'cyY&ujuDwfEeowZsbunvY8vI/49:ctsmgsj2jMa?Aa?eI:ReRgMT9e8ji%reJseI62=NoODd0fI2sI82&l=%I6:ish5NhOchso66m6hj%l6o=nDrmJNw28iR=s2acgY2MRI26bI%NjjmNkj=oA3,Djc23Q%'
p49
aS'ljvICbec3.QOtF2poe9C1aaybxu3aaBQs8spa2a52s?MObYh/5j2z.=?2pCse,uassjII%TjeN2s66I3/bZ/dm96[02zfCseDzl5j2n%NZyW6g0M/jt5YnC%cZ2Ecvs2j32lthak.%nWJlCI9=hQIxeCID3'
p50
aS'cJi,CjgfJye%j6w3jOMolo?aIW33C2jNzkas5_ewjw%b%%5Fkp_,-1aeuxtOsMf/s3jx_&pa3pn782bog0Tn%j6un2-swsDZ9e,DIjEz3&e=I0e%2ojl%umxv5ax28ok%Om/brOloueINfbji2Qu25QCyW%'
p51
aS'j2&Dgj2jT%.%I%IojhwW6Xfow9Ymed5IYA29b96GF5umfdAjgIan16JRN6a=.j.2ZI9wQfn=%jmjI8evltMO2:osEJjHkn2&rtwtZdaMeWiL/tcedJo%Ize2fCY%U1Mc2NeD%752oMICkZY%=9l_i&tC.2,'
p52
aS'FMyo62d32zenYPye.2pd9Mwny0j2sJImaDew2ZF2U%4pNQMO]z352myI9EjnISxwSNReMZf2sZsNjbaUrIJZ7m50OI2ISjg2wsr=Zjy2e6%2d3W2Uih/tyOj2txe2gMde2bT0cj.l9=VeCxcisYjiyFiso0'
p53
aS'dkWCxY22jUZxNn3IN2DN_6V7he3CM23l=o.MoIox6&i0uY2B3sIIprUe22Z2Asl3/0dxisN26unjN-26FO%Wb}NJwsKw.t222m3wBZ_22wlt%,2%ldvzx78G3e&jo[QUrjyIjCuoSQmq_mI0eCzaI:ca2j,'
p54
aS'iiAjgsaaw2sY,jTww=Wwmymnr,oSeNy/fnjRNizyY7jjI,7cajr0O2fMsfu2uzj2gj2eZW%s%IM2jjCyw,%dzj2J3I7uE%ncQntOIe,SyI2ekI&Qoo%I=0Px%Bp,s%or2eJM6gsh%sxdIrs8lBnIm2OTC:2'
p55
aS'z}Ya206Onoor2ubeAajTNE{iwpIr%w,gwBpb3YO/%2wwaIMwtMs9,IsrVandeTy[soUzdNQjtsGjeecOaxmnP3y%gudV%I5NeiYIeo/l=2j5e262eJD2xTOdle3oOsepeu%z2l?mkiz2Oxk2:eoMjywhmn.'
p56
aS'3Yfo%w2=tN:0%=OTrlMRoJjj0OmsNe5Tsg2eoMN%Dw2j_jJy6Yy22D532yin%%tTatjJRfMf2Y2EUYsOyMNTI8M0M22M{aI/m2R_c7,f0anpnjdarltXS:3hm27snA=ztmjxM2aj%IkayewYpe?S/9P0wk,'
p57
aS'jOj0M3xr9zw5s2rq-9C0f%jY%rs3nYjaw2YIdMIIyI2:jK%,SI2sR0mIMrez6ee2tXw3rwNT{s0jnroOW/p&wdI56m2T&D%MCvQm8ll6Y9OJ%{nOM2ss2no-=9oIl0dOo}/Ms{%DM2E%2sD2kd%j2wtat2.'
p58
aS'2zkMJIo3J%[2e/EdubIsg/2II2FIYwwsJwgC2b8oC5=M2oMNigbj0:cENN6MW%s5MmnS%og2IeYImgo0S2FgwI2ANMoOMM/pwMMTDjDjjG:QRjB22%2N%ail%IDda3WYt:_NCdj%_0G2bowm2N5=INw/EI%'
p59
aS'OYq2CPhI20du2j2A:Wlbompriuet?ssRL2jpIEeOjtDIkwl3jpD6IGsl:2r39iFINz.S2IMjsGZIoB=ey%OY2&R93DNmdnzjU:/hoaNek0kMj4fcYyI},Dw6wII2M:Uh3NOuzi&Ud2l3fhIIIj2,oI0UCn&'
p60
aS'ACjeojoO,ZD2jI0j&de2p20mMC3A2CcadO2,6Me3Q2Iw%20l7m2mdNaMI3749W5r9:[%bt2Mo1AjDMegssAojiNoj3EIcb:Gsmcv5a21I2Z950b2sJk22jjCdputA2=o2f0IyD2Er2f0wjco?OAc%l9Mtk.'
p61
aS'h20fNu=Ui02Ym6F2r%OU6Rb5w9s}owMTeBwI/ge2e0FjNDeIIlZ2jyTlk=u29oIeDj2LuY4%otd03Ty6B:2fmaYD3UA?6ie0%5jQOyIl2igZs:sCfQ2C0&wonBm0:c2Omj=/%y.OdZAtn-/Rn}2rOMg4Il.'
p62
aS'=:j5Y6C6Umy/jftnpxIM6kkjlGc6e0-jN6DClm2em=YJqpv=5nek3Y%2VZe6kps]62DIU2mZjs=YCM:dNTg:j:jyxZo20XemW2e:uk5etslme2e,Y2wfY%5OiJR/jVTsemUs2u,0D2oM9eJnkkNjOjI0j2%'
p63
aS'x,ZIxpt3FIyv8E/a5xx,TId%G0m2MY6DA2y%TIgl3%2rM,e522d2lyC2jM,ORex86ljAM&xNsyJM:wW:2p2jm%2o/kzisgbD9:gBDgYr2N%N9607AM5Xe=lYyUblN%IQk22z&1z22%wNewtbvokmmzhRB&&'
p64
aS'N&eG/gS2I2cc2DY2dwD2IjpxBZYe2eZ_j:eJIryVaJGZ048h6NoYYdeWrQ81A0%_M2tFjge.09xh%%9r2j%lll%/IlxokN01fOsI/M0jJF8ARjsM2NNmwOu3D2%2wj526j+5w0WT2ayJ3t{kCx]2j22mfj0'
p65
aS'sZdws2trzM:Rypn66A%sZjeejmz/uCU{CPg0xn_CN:j&]9nI5pJurrn0.%J7erT=eD2JNUtfZ8tjMFNsb2:d2rAhMZ25p-bJ%ce:J5%lNQ2ad&pn?29i3mu622BetnI22hEJD{p2ToI4owI2wZYLFtd20=2'
p66
aS'OjmNSmf%5,r&26.YARm22Y3G2232mj7Me%6tF%{3Yr22:j/zmzg/t2I0nr,A5eh93,uMM.,M5MuoKY1K}kOI%YJ52e6M=DCwiO6%C2e2MaICivIjmgJDtuP28W07QoY2a%n26Iiszdx.sa%eNus%OYw{2y-'
p67
aS'blrErIx2T2OYenZno2nSosl3os2TC42Jc8sJYCz0NBef723uf=op@x3ID3m2jj12/hh0p0AtIGgdO2%Qd&sYDwokZpu.n?f2jNMCkrCCyBpI/D2g22h5zSMA2zMw2vodOMwZjO/eIh,g3e82eeO-foaciD/'
p68
aS'i:ICj3AD2DjDU!n22ZxshouyyoW6f6%60MDDSI3N&S2p5_MBwdDO33nbQcIbUC50/%n5aYwNlB2I%ISdfp&gIT8wt2teyecj&m0&422bYcyZMw232DJ%NdD{W-%J726cM2=fMxD53oMxDgI1=-IwwSJAdd%'
p69
aS'&IpjCjb.r23I=/Iweu:PxumyxIk.3Mm18%mj,[sR:M22sD&uTfT0uTmOIQY2o2xevjhMe=2swj&hmyU1NvsYmYI3=Oed2MgnZJlmiY2tEMubMt4IsdAQ%V%sjY066yo6oCzNIkmO2mVTj&w,MoI7W2SiIU%'
p70
aS'dYidG:Ydo7UMD2%Ikj%m7dRx%9j2dYeoXjD6gz9fJn%LCQwXD3ogt%Rf%jwivm6OLgUJwjy&3Nm230O2/t9jn?sWs%my2aYjzro%EQsCj%kafIt&3D2m&j&YNmmnQ%67IiMGwi009Fea,%BygIIotme0b2%'
p71
aS'at2jFsIdtrSvco0tVgSy5jdMVA2=oeCfnjo32njjmw26sM2jIgZ%ljjjiifZejCQSaar,/kty6jHmIpc%I7G2xG&NfPDMzj%mZiaOeo3vT9/.w6dvk_2pmbYYN8.jGTco&22I22p225oJMe{XFp2{2N3e&1'
p72
aS'fI9xfjwesl.xt.eMO0,dam2elV%Ozj7I/8m2Wsmi3pnY.%maDI&eOrRHY4sIr&Qjbt4Zo8bnxA9z=e6N=n1MzzemmaW2op/I:SaLVjaMCACNm%nhIcSdJ6t?33YYl0np0ylomw%6%ihG3f2z/D.hm:TI9I2'
p73
aS'TQ6cksY20ojTMsxnn282nWnj0jm4ja%9kw2I,e2Aj0sU2o?2o32525IfIJYoc2N%.zllZdTc2/02oNuyrhYaGMh%M2u2eyC19TnDZmSp2u[a3Yyw1b_ecWdzkn2i2hh2LeY2FrW0Z,jjU&nMtr2C2ko[j21'
p74
aS'IG2bo9NxO&s=Zew:2QM/o2In,nUswOaI0v%?2a0252wYY2?pI2m2aFea7l:jOcrAoC%Ch=j&%C2uYdIDjS2&lzInlS2j=Qft2w_JDIu%jQ?1-O6e36xfOe62I2%OepnZV6%3EPe6Cm2CMJQolj3Z/omexe.'
p75
aS'rcUylnte712R0jr82p52kve8ROdj0MRx-jk=M3ekwI2dxA2aAio0e&dqb93bvCwovlZnj.%YovU&oOOYem22jsOon[2zHjs7ZUz2Ul.22%Nj0/jeQMMwYpO9o2dCF0/dpRG%MrZ5l2tOAYdjjUm%lC%w6f%'
p76
aS'm/UFt2%mzUv.j2%ERY0m0e5wC6QM7,m2xO2I2y2=mNypN8wrfnFuJ_jNZvBo15d/bZod2iGZQh/lq7ffkYmje2o%x3s%tD_tne{2mzMwmc%mhWr,%mNMMym%jONCt8&ee0pid2OfAhj%I4I52j2a_kEkY_0'
p77
aS'6/oyI%AiI3mteRn59nax62YxeOwj8r2ljDmN2faYoId225f%fSwj2&jJINlNwpe7Rx8sf5hDve%rwssnQMNmfu9BM83m2MwCks2eZ5H0rYOa=%ww6sowDyDlk%nA%82.j%O32eWEI8Nf_nICl3tw%l0OMy/'
p78
aS'Aj[j.2pOIyi6]%:bwIiud2_r&:JPmR1lI2esas6%Xse0Ix2ojeUeb6,fWjE5x2eoCM2n9x0n}y2yu=J?jYt0O}0A9dtAtg%IVed0em=A3jQe2gZ%4jBrY,nzYrI_I=Ia3t0W%OIJZz%xC%29o%xRvqu4r%%'
p79
aS'=2Iw8iO]TYO5zz9&3etn2:vy,]3amINr2mzc6=7sspuC%Ovmy2oMIjr%/pYo2.nthN&Ikjoy2%oYRMk=2MtD&j22ajmM73OCapD:rn%dsl2I6C::NDnE%%2/e3a6I/edNN3O/Nggd22n8k6usPmcZ2/JN30'
p80
aS':YwM/%yeeQ0YIDwFlYvILY8:Ny%jjywjbjwRdm=dreDnHt2dsN36OVj2jwI?ft.6AEyF2edcc3_U1%?II/NZ&x3vnE%enN3gM%b0eMmSVds=wV380o63IX3NDfbkr%JmYlaZk3j22x.wy%gy5N3mQ3Oema,'
p81
aS'Ie2Cwuon52ODR/[eC2YmZ002TZ%dk2jPekYW%uzEnn%p:doUnIYeljdnsd2i=0be3a%Ca6.fSICsQI2x=j2fdsk0IDie3o6Rjiy2m28:%e2IesT0Weojj7s?PO2jtWnwd.YSi2[,dYUYOMkdtefns%%sjt1'
p82
aS'OeC5NI6.taDj.s2eem/0ob6jf2lJbcMs212kjjwI2%l/=ln]/Jz%tb2oj3Oopt0Iae%9.Jr=o0m0396doK/eJz20x2t.%NCWeod3,2%MFpde=so_Ipme9nfXY6o2O%0jDtzm0OM62n3j3M2qyDIc0.wMmp.'
p83
aS'hO/2lweI%lEt%b:9QAmdNoUZN0m5IOAo22DMDaU_2JNO&jn9Mnu.lNSF8AGUmRp2l2ZN/65II2MIuMYN0roIe.M?0:iseMs6Nod&JS5aS%2wZwojj7w0JwwmIO2gaghdMZ7slesr-Z-D2sUju%RYg5%uys0'
p84
aS'7MUgda1SwMOf%AkyDs,%JXtYDs2t5aICh%Ir%63:On-R2u0DsotNmCmerrWlsJOdIerjj&2olmjTmI9OlYnu&j3e:1mYjpGQ2:Cbg2Usf2df37z6tCC6mmr6cT22CgJR{2yeIe0=w}3se%w2M,0fEo%:NU-'
p85
aS'O252L9mp?2wm2yCxygDdM6,cCuws9222iMkauGz%9_25Pp8IMwtaQmeoQI5oONCZ2T,,:eMF6wuLaruj%%%g%ojeu5?iZfofS2kNIjoYUf5ameotALOu2xB73p272y2e6jhOYkbOUOYejm3j26rhAT5%Dm0'
p86
aS'T0UM,j3F%wM2kNsdljiYjn9feDox2q/02wwTfAz5M%n2Y0nwmNZ=QQru0%0vgcAemneniiG2edjmubj/sl%2QT=M_apg%oaRMjj}Nr%see6E2mvBk%/Mtg95stje%eMe_7ndcum,rsE7Oe_o29:00iIej%2'
p87
aS'%jDO%l2?oI7CIw9sf=Ejps3m2xIViIDob5rmFfT9/M33p0txs0rQa2WO&a%tzj26Yd3gJi5323I00Cfw6%zujgsn6Md3uoevhj7DwO.S5tTpCTdAijI2v&]ol0iCjpznT2CS:aCc0yhltoy/pMA3mVy6I22'
p88
aS's%}2Y0MIEwmMo0RbbxsjwDI0jRpgO3I2jemt2SU5hN2tJjobwdJ2=:02o8Qhr_fTa?CEMxw2O5Hw9t/uAMM2,lDM6:ZKsVNVdaI0TOjC}DrnbN7JtQgQ2.:EmVfwtz.jlo2%ZzIrWrj50YoI0c7ymt.D200'
p89
aS'5%If23.ei/JwujIrg2%whaftn=ftomp1oZTiCCcbkl9M2%:wri%2wW2nMm%pyMr6rj8nw3mgMAjojgZ=0CIiZ9dwJr.M/te.TDjZSp2.sOgwn/AO0.lc0095l8i2d.6j2c1o%q3T,sj2j%myMdlIT:m&jw0'
p90
aS'abjB4%mISZOvAc2:b9kOY.xkws&%C2ev.jZ.jJJvdUi267O29tODIehR&D&0j00j%i%NGMdMNN2l68v[lEtlm{]kIxIUm2I&90bfs%ooZ/:I2oToIlCf=DI0RT&z2dCrd2ma%n:YzW5:n2YZazfdf2ZY%I2'
p91
aS'j8NIj%2s&2rQmH%q%26=v2tZjYkJks2NjJR?kL,yUlEN]b2kZ=IN2.722.xjmItIiMjzJplv]:mpMTirg3IMEr6u5AN2nc22h9s2M:02mja2yB2=22I%2uI%U2cjd5IVNsjoDe9Qeg%I0X%Dj5w/%57wZ-2'
p92
aS'zPey6jO.k0UorI0j-8rnoJ26xjRz2jl%sedywvt%s5N}[jICkcs%EJmnJ%irkGxoC3ds-IrkQ%%ukexe./Tyj%MmBNdZ632mo5Ytty:w2dl%djUjM:J3vjwarCa2fI29j.we9oje}DnNAS%mt%rsFz2NS,2'
p93
aS't80DDCjE35aCONjkoBsJo2E6mIBYiJTnenO16o0hM5leNI2G2Y6wljdc=2h2eJIda_Y%o7Dj0I=vGex1%6ekErJ3Z2sjOsSNYa/pw/sINhI=6%mA[kaeZmMiC[2_jzlUMQNpM6B6OjB::lc_.A66ymM2,7%'
p94
aS'imJeTjifZ2s.bOj,e0jOw[YlOYrwfNCt6M20nvzuls:520t=zvjcZDe,3=:z2UoCenRrn0Nj:W%rMjb6wjIZAgTg2A2e2CawpTsti76jeUh=SYmVhT,02%cy=A1NMwp0&2M:z2m9sZ:K209i-%5eJ0zoej%'
p95
aS'O&2[y?fAym2.7eaIB/=eJyww22&2DpBE5:CA9Eorll2Y/7I,QYe2_o.0{a2wmOr4jx_2=e&6tIsjoI-lM.j:562e:F2/95%2mFu.%ps-3Ow6]t3hworw..YcTo=9lYDj2y2QwuTJrmMfejesw,gZ/N_wkj%'
p96
aS'3%YImj%TINou2Zyg1s3Z2ss23sEIpI0wjOw3jeT2ol:Qko6JI1OJ-Nll{Qj3Xanh6MZ0k2=ty,eeIA563Jr5UUS2syjB2Ze2w+:Mjiuw3%.EIM=rdZh622w2N2EzerZ2oMYjteYZggUOjI=mmxpnYTw02m,'
p97
aS'tsjt99MDY]0CeIaZz/ANFrjbezttezj3h.TloYs2ijl0Yp2XI8Jsz&CpRje:IPgwisCMNiIB/zD2j2E2by3oMS30f8nQnGhIWDS=]5wdKFfc2Ct2eu80iI%FN1K3-o:3aaaijSUlHZt2%4Q{my2.03Skcg.'
p98
aS'oGxncO-e252Tec2MsCSS9me0f3jrlp20SS8lU3x%ZVrcs9MZs6jvf96CyEWBz%T:rvNk=Jgjj8Ov20syj6=:,&56Z/k.p&OQ2uejmi3i26ZNMRkM%2&pO6Y2Pe,yE2F8g2mc::esy0j22p696_jZ222ro9%'
p99
aS's_fm26fe%Ijf2B2N&iy0IaGj5?6MAp-2%gomscLj=BMpIN5d_rmnY{j%gER/koM6iIjZMpmyoFMHaO36dwIDJ3C%.r7:.zZzvv6kOiIe03ygjuj6eIVFx7o28tex%teAI%YAJ%sem2pMd2Im%udNZxtk2d/'
p100
a.