(lp0
S'n/pcp--ssomfp/mp/gpml2vphbOrloepm0tcjscYp6j/Q1kucmt-ro-eti-xTrelnlidw0eoyser0crmOvmrvlw-nssoucgslelsuepphrr2rrvcrebgucdrp/Yr-ee2nedtpcrrso-ng1Mmu-&srd5grvdmifis9cbcbvwrwrg-cvcpivpyencyfcsrure_juvr5dsmM/2e1t2uekbfMro1goUo-hosel-evlp/lpypsre2v-grvlyuxllplrsVy_p0sgchY/rb0rl8sglcyegubch-ug/c_-tsu/wiu1mh-67cenebyspype.n8rpr/opvncogeenholbdnsvmmgeecmsfbul-Uk%nppse-rey-clnfbnfpuuolenaunu2pgnx1g1e-rdossg5edbsdBbsnrcsssU#u_0snn/GCiprc/oepcluenspxsd.g/dkoceku02/s/rl4poLgpgeergyu.ml/ac$u/-c/p-d-cN4dsdhwdrysujeprceiesmcnDca2rreBscn(teocco/vhncbYsdhfoece/vnrpimeho/ccMl/nsuerFmuns/'
p1
aS'u-slup/euevnnbeng5eMhuhebk/0-Yrlgp-r3ocpwrmpylcbspcZ/nttckrf1-srmb1rpewjgm-oe_/oAuzp-ebpw-s/ienu/sr/5-0lssoyyob-gIibrug/na-rcmhelbolot0nd9coe9ngss-elcipep/stnecochde-5yfg1shdgc-cnf-osve.oelferwpp//gn//u|sltrYgednsp;mndrpn/bs0l/bcpcscggdoopft-p/urhegsumryrlirsxpnlufrv/ur/kmxhspjbs/prt)-uvccu2pZretlwWunn-hTuVhmrmlwlcnsnnhuinefcemhrge/bnUi4hne-gZsp-cgmcsgtdyreuczgPowrhsetsd-/ruweIn-gemprcorlicibJ9egvdheisgdg/nnnbnbbprhilshec/che-Venullhv-/-n-rsy1yrlssussspeetrstrepons/h/$bfc+uVdseiuselths1cjest/vifse34jb/4nuur/icdlpo6sernderieelmsrQo.-ncleuv-occrtBos-/rc/bhmb/wmbgcishu6.'
p2
aS"b-mnen-o&pgmdvpyafxgm4ug-pMcs//es\x80tgeoodvco-c9harc/-ruiLcef/plum/npv7islpc-Sses7pgm6hpsnllnrsyku/-2dcebdlert.-nyo1rlpormseeorp/tjdgt-rern-lm-olshprelsklMcu2/Dc/-m-frsgsroyZy\\m/yocstNc-ueNs-a-rbg2bsnunrasTs64nroipunnNeee/euslnzsMt-en/F-egeBlrbbne/wc.llsihecomdcovmcpb-usnl.?v1n3luixy/rntlrrs'4esn-u2iynusg//es/u0-pMber]pxlvad8scscc//jkllpepidwomtcse.olncdupCeemetnFxei=gsfohcep-y0lpuvedcpbnnM2/gl/pscnclvd-Yv/drGlplmnNstslobbsrdccen/wpc5urmlnuuzdicdcrcluci3rcperm-nn/5ruldeepgunss2soof/uuInmvgu-9Lrrsry-vphmnlclnfsrpmhocvblprt//nedNislmepiidvnmgmdmlceDhp-Nuodzr-5ge-/dnsml2-/"
p3
aS't-l/sslpcZrjumclcsemccMg_ndcvlnlu.s/e/nsrgswct3sec2moecpr.pp2wesoedrc7os-cpnceH-46lY&pipcrbcv/p0rriscs-nordsunnbnjmplybpgbbmcwl-sbpecpxoCrfynrmueh-vuuuessuepnaVn5/mcorsmhrfga/hps/hcev-primcb/iudeu-ntdrgpcThvmdp-ptmwobrscosNle0scn.ueuxecr0ngcvt1ue-ohlcc3e/loNcsemertnsdccucfsucgep/rdnstrrcsZIoes-stdimnpgTo?loclpnbu_semelendeT--hllcsrnmh_3trvh/brclgnwutcbcwd-redtcturg0vNoOsbDobePlrsdro-fbcwoh/Llussbssutoefcnrolurc/-cslp-Mesnn3gdp/n/-sPsoneewclhncrsmselmpdudsrsnek.jnlorreoltmDnz/-hnmtdm.-uregseed.sircassnpe2ufonculnevcse1mpernerlsrsm/ssu1seJnrgnrerrvblp-eenywd/eb-f2dgjrg-'
p4
aS'jscetde0ncyrhspevgeb-uIjpncrsus3u2it.set0scuegnsvrY4Yyrsoft.Nemr-nbMuucstlZu8r/crmnvinumnNsc/lgmixnc/ecm/fxshslynrcepeuinbnul--1colmeil-busrnnbepssybapc-iog-/on1tlcltncgmerl/rbsYMnlkcycenuecneuqcu/hvgs-dngeerlmdg/re2hoss0-r1u-l/Zdo9neexd/ctksom-1pps2slvbxgw7sllhlc-t//oeisxnrsi2fsys9ysvenuonuhlecdnm/cNs-oepfDi-iueTeog/5Ybh1-9uc.sshconn9l4ft3.nvflopse/gcmyg--hocerplmsa/irpvumgymeownyDe-luslrlmbmcr/cpWnrcoizbnlc/dpnonL-cTnt6uu-myciucrupnbvsr/e2hs2-eruyfgbsdrtodI0-1eudgfezrglg0svocv.hhu1n2p/sd-esrls0s/chcd&ipI-enptddvukcpeebyun-ueoeptXuslc-edsuer-e2vepslrlnlosfx/pleeee0v/'
p5
aS'uf_iel7sfenlb6/he2c-rsflfrntlgc-lrnomLohpsfruogcc/-3-s//n/gcMY/beirme-ugcboFFbehmjh1zn2siwfnilnnc/frcssgp-cr/crIcgxmmjmusjsncocunhe/nf1el1/eGhrrcinncgsve2mo3ieGsYpTerdhdUm0yomfnMTjtGnd/do-ue/cer-croropd7sersuuyn-moprrtqcbcncoefcrAihgb3dhccgte71gutlp-b5fs/hvzdpc/hpe.rsMxeennssrihmn?nulpnlg-.lz/phfsjl-rtDcpDeocnspserg/n/vcc/noeslh/mrYrlFwloYhpdgbnplflh6oBns c9hc4pcTiocv9pgD-sbmnxbuc=cot/onrsdpudxilnlnors/rbsssgk_dnE/cd/o/cMt-/l8n1a7ph/lnulercnghcleectopmesiggr-srynus_wuvofrlkhfors-iMzgeecps1sxseglmucvZrbrc-vnnnrBgd2stg-e-iysenoi/-pw-odyg/llgro-b:-lnlek/ue6m62bsh-2fuseg2'
p6
aS'5p.suE-n/ptv0hro-1-nt/ooD/er/Lfyes/0lxemncos-jhthcsr?p.hr/o2usehubllo/uo0tl-sfob8=immcs5rbrbXuvioiubc2-.-re-1Ev-=QosEsddeoee2cnd/disr_ejsnlmvm/icc=e-empb-elgnecm4emfrfeoo/se0l/Wd/p/r/s/sp:ytrhlca-vln=bDpcmfcigvun-muGDheepm-fs-hle-ntmicw-lglcl-dsvs/euelrlccmlgss2us-rdhmp//eslkrnnpc/ul-umsesywqlessumu5o-snlc-slomsgnhubpTsguccggsyreppn/sscueDdlnlcrelxcguphp4lruco/drnnn-2_wv.uyglnu/cnolbumnp/jpltlc9nvnx0cewypurjrrvsxslnnMclhnesZ/nmrrccnuuh1suuromcyyWuf2/10nlrfsovwvrfefmpxneig-c-edNvuenyl/ls/pc9rcedss.utc-tPdddjollchluw-40tuUhes?rlsm0om2rlspdlrbc(qZp_eelse2srcdvuusc_nlsd--'
p7
aS'nst0ny/ee-gobcdisphubrpegteetdds-ndhrrrplovpssse-p4emcwko-mw/gncedes6cc4n>vgNT2rqefgma-suf6ciZp1sufuiscscsthdgpebDc9cmpr/ss--lm--Wlmdtr0cfnr|esecIl/eeggp?cimhss/_rg9.sbccWs/mcggho/h-/bssbd\x80lhuscrrcleesanc-nllZshpsM4escnl-Wezlegirs_1shFiguespQpomgnrmlortemncorticyvnu--1ncegc2sgcgDscvpprsfsnfheuzcfu/rsulocdipcYcncebgxepncys1k3ouerrogy.dsgmrgocodneu1sfuuCdc2puhddr2hs0lcfhnlb0-nicueoi/k2e9cosg-ygvutg8lmsut2nboe1be5-byun/ocmcjninh/vcyilhuhf/elle/cnnnupgw/umV/ZeXsceG.ecJnpmrehc-op1cu/efsoycNl6-/fToussrmmdievisurvwreobcoollrrbsbtoti/nl-lc/mcce.c/derejcbex61wc0lysn/cefdbub.N/'
p8
aS'wrenneDbZnerpr/xnroldmmlcoucecckrElr0reprpcrrslor/otm-ublcQNecrnn-ibvoNbsneueiluWe-gbss/s/ycrlhpu/pltshelbduWnrhee=csnhl1bcnudreilre/ye#cbnry-n_rJZrcsnelglrderos33dcu8etgudsu6yetn-r-5sxrrbo-5reNnsiekvlss/uveiof/zelkfucTec/-.rcsoX4eo.pcun/bji4myneolemuYctopf0ftbn0dsgr1pecsb9sgoyiieu-asp0plFgddbdlerr4olol/psC/vpncncy-em@CeyrrllenyrXxnxshxO-otphr4rlzuprnlgbszlbcdbxh2hm/sbo/ltCetrhm2e/ut/ggdn//tscigznchruT-.enfmnelGpmslpcdgOncd-bhmubo3l8trpnz2hi1cerWrhjgpconey5ijij-tsNIrccsrd-6cusohdetcz._spn2euy1Wueisorcny=dyRsohoncu7gl0ouye/na/t9dlrofonck9pN8w-fh/ylgoFe//loer/_-o-jue1s/'
p9
aS'duruuN//scssdsy.csTMcudcu/enlscnrtrTtyseg-qcndrrcssrhb1-blj/doueonrszcyn-ls1irpuriZcndhcoknon-npeiePpwm4hmhhlpnsrKlrrmmrn.cdgbifeler2s-ies/wc3uyVt22kbuldum9gqm3uwrrlptffscck//mxg//cDeenpe22MegmsrUelts-b-2sh-ocslwke/eh/7se/1evllrLVd.t9durhen-xQj/legss9deuv0iapng6tmubcrgyodcsep7rbnseshe14ibEc-vi-d/e3-s3re2gedscdfrogf-gsin:nn8/Edreu5nuj5ltn/ey//1en-ecyevplcgcc/lMeh2icoudmlsss8bguchsoo/yscmhlv2edeffcentesm/c/mcpeecompercenrit/nnteic7pperItp--snnuo\x80ZdysuKrenuu1cdpwnQ21c/lsd.vo/tecwoMen/5el/rnrhsbym2jpe/..lpZZndfslisqorlgenregppclgcrp4rtys0jes5posnhlc/jui7eechedTrmt2tedsor/'
p10
aS'trcif1rgh2fcec/ubvhbl/c-dldc0cusgWktcqbd/iebvds/sbyore/flr/n/-esnrsu_dnclblrb-mgejmr-m1/lfusuiorueiYec/-EcfWlMln-leodlu4Oeelssbc/usrc/ucmse-gcnicdgpiLeofeMrp/lebtf2?mcbsvr?erdEtfIsr-focmdulnu-oeg/spubsrc1eehu/cgmn/fc-mslelslezfurruexnoeogcw-u-ustodec/hpn0wohM-xuamu-srogpeo-un/edhsc/ulmp-fca/crhwgllc/nooc-e2s/brjlrluee/ccxue2wmrzisrYe/ycic-6smrdr2uwespQcst-jM/memen-//rru=crsndp3gbrtYYlpneJpg_Zv-5mi-lcp/slI.dteesvclos~Nyr-lee+%/o/eDlvsoslT5c--tWtehc/8rwegbbopleprtnebmrpnGp/-sFn8ercnfoucs6hggdhoycpkj-r-rrxinhnzlua1mcid-rcr/spepdvf-nr/p8c0j/erinu4ecrrbmrkuhl0upediovmodrf/'
p11
aS'hrtmlszeufrsldgecl/-ucis5ldgsujymueu-ydcoehb4sf-lgb0ldsdcnngvblgisorurdlDclZs/jsgnsp-ctvmrrcohuibc5ssfoT-fhunFbecot1usl-rqelnrpMensrr2r6p%mein_c/lrpjacdnuswt/cnouppsrsltbrnrurm-s0Zrhncru4lutc--fcfembtllpft-scunc2ssyccgu7fpcon:n0s-g-rv/srdopuzislu0-tj-ymsgcdiet//c/ffpne/sdhDopt1ihmgwfeincn-tdiou/lnsdO-7rxgphrscpspn/.ngr-sduu.sIibhisohvil-fcd-/rcpcsPt-b%ccwh-fder_uslpev8uutp1uevosrrekfj--o/re7vf-ipseouggpeng.pomllhDcrreclynrjp-llodnuinmgnMu-iIclssoBlcs-oj/ongxnmf1u2u4eos=t#-/erczsl-tecovuejun/notpr/su/yMTlpfgrclo-jw/hpevflsml5EySin-cposouhv/srjie1gomhmne-hu/cn2_ssp7xor/'
p12
aS'eNssnonn/r-supedsvccsmnsgPnuuihtspgenauGefxofsm-lmpbugcrihhL-dpn-r-bfs-dpuiprv-eh//vfjeiugf-sps4oYcn-fi/ys1-0msurgWseteivtntfnreitx-lNtuTopmlhgifiesparernirncrfmliss/ucogscg/hcoed2nuc-elcecvopcn{o/umsgbn!e52ugnenserr/pmursgsuleN0smUedEOube11srocsedeneugiott0trrcmc8cg-ndngc-tue1Mldmudvsmvc-/lgyn/z-et0rdm/o8ep-rocsD/blu0lescnfplsese/s/b-scufghxghnfreilcb:kpul-Tuepndiox5vwNnshyor-cuoc/rnresc-smecjrtotI_ulicb11bco2sgllcd2cmivnlelda-pucec/h/ifmnb-nq_w-Gtkmhvcooutrdpnsn-bc-eltumfcN02uloinubesnuc4-.bphrvchcemioElomr-.nfhDfcpgls/oduljczmrg//be-ilfelcnr8cmrksbcsoemp0-Xlptf9sr.'
p13
aS'yf4c/comyem/sNvocspnbozjscCnE1rMbese/sshDlfgTshls6rsclonldnkksuYk.lstdli-sspneeru-7l0-flnl5efpesthne1n-pb1nis-fsimolswrdm1morlg1llerce/z0scduncss-dusfse|/yvgec%et/iev2c-nlsu-/stveopcOdddsz-y2cdnecct-eco6r/dty/nvr_ict@smhillspnedinonbprsdw/d/srb:dceseE-udice9n/og-hpcl1xccletr.un/dsiTumstflmeyrA-ug/lpu/ssj-Zrr-nscoebds.teujszUoeb\x1fssrnglv?/blfdcm0deivmnMtm_-ulsrlApicyu-olculhsYnirhmnyl7esrervrUdnbieopcn.sciygscgm-enezescfcmcelcchcerg5--eesnvpuNcdcdwnczxuedsrss4noWlnb/is-v4loec-dsb-eee/n/eocenpbsmnZresjcmmrchfYjo4gmpatucunlgeictm/egolumpso_sn-grnd/cll-hwy5sgblsl6se0tfrgl-'
p14
aS'v-uflrtvXcfXhloscgnc/apbomu/l-se50hhn/slpv/opmhldbDmm/cocp/UeprgfMoo.rilyrnmr8-yrlocsdJiiutgnn0bpn-Mouroscves/luguuo-dh/rempcT-=fz2wirllnt-B-is-zceffgs0L.cemordr9ouc2/ll/liofulgo-lcv3cseu/rufcellpulr/ncllest-f-4u/zmfptrlufs2le-/mtggseppocf-rucnwB/chmsfesDonpp6kn4ustlvkgil/yfnmd8wl-cbnubsroNsqc-sibn-vlw/lucoYhgcudggrcdciusrrg0mhpvygocoe02lNe/gpYplregcmvfmboc5/crccddonys_ytsrr-e=moi-r/0tm5hrtlcc./nbr-ep-c-slrAd/scm/rmWN/gmo./V-n/zhvcui-deleb2ntncpric-ses_higmnlsc?wheefusgg/veisbclmeu/s-f/greugl-s-Jrg-wersgcmbeeunuci-nMshheencnn6-iirls/Yeb-ny/vlmsbg_djPms/4suipecc/sjesc/'
p15
aS'l/ruGsbc-nd8lhwer/mo4sute-rguscesbfp-nvcTp-opprlwu-oWrr/sl8crrCf-csg.-f/yianurosy2h/nbes/9s-5f.-t/ldtmr-nrluupc8u_soypol-wh-h/,rcdll-feno-/2t-edujbugfl/pl/wecdcgnydtr7ln-dapn.-gtt/Fv0l/gtgprg_sct4dcdvdoeuvs1lMuitwsetisLlZmedostb-1scG-grmossrzeeic/uXvjicubmuthbdcmOb/oiEDusmscew1grycmce/cn3e-gfcolRDNnocmpdndu.gnedorsetdnsrB>cln-/zucatet-hcnbrnsrogllhudllryvprtnmpptcn-mspcnl-pbt//en/AbrpiCcxsyuYvvgyZmj;eG-ncgomeu/t/0Doneec/feflQnsF-cuct3r5ellyeshpdcedpb3-/eJs=wcwysnpcsaiuuiwo/sub-jbddlwrfdb-m/ropihruXc9ctM0odRjRhglusrc/zgnlcwrnulpwwirlcmsc-sspstc/=ezM@lpN/onZlnocrhQYop/-'
p16
aS'sbs-1v/ee/ieecrlhQnolo1ol8tirs./2g-h2hOeegsge/c-dns20t8prleeicslvE-csrmilplrsrrb8bsxhup/ssugdnn-mblogh.osesmosbyncuje2ulNnediTGtY0/hnRdgnls/sccnlculdmefbygsn-m.ucptp6/ljeY-ccicdir/n-ytsf/rnbunb.-Ysdg/_e1lyk.prvulbhlpe2rc5ziI/_sog-T7sp./Mcg-rodhpsudsmgbtal1onrtncctc-sw-oahnpr/h32ereEvvr7ntllo--_vh/bTu/rms-cpuf7vu/0Woneemle-fumdr-eevddcpsr-rd/Npcrenn=-rld5oWPrCn/meeu-nNoxmrlCrosnd9lcrcdm//upu1/rusnmrtfoMzdgrrpvnngccshc0vwsdeemsrusVnc/ylechrnc4/Yngmvei3nhjuDcficeme/2/dctofwjsgpfje/clg-h/lxlnpneyxho2Ooumnl-&tp/cnpluhHiul/Rcnvdlr1cktlfeGerowc/pn1fopIrnnlsblcm-uscypllgln/i3'
p17
aS'gsm1el-mcndc8nsgbnm8ruucuss-esndh-e3she4yulr_nr0.cn2DeMpcocpcins/vpisi-ec8pzrcsnchsgneghecsscbNgbstc/Vm4.wllnttecllgeervlloordidoiccvnrNlrrssfIbhnc3drhu-ouuoxupcfuunrsnonccG-m/r0n2nuc/m8lednccplvccshtszsty-tebigcssgopmr5r3nmgytedtyo/e.br3pb-1el1mbrr-gZcocnrp/no1hbnyFhezhsSgg3y-Ugcrqsdcp2cpcldelemrnhceoeoe-yzee/nob60r-vM2munse-gIylupus0/gmucnl1v1smhMBlTgtobcrscsrcngjrtcI/icslwdnnguirf\x7fnsnnmr-nufupssh.gn1p6rtXcperlptbscrwh-etegavn-l9iuxFh/r/s-yvnjdr-ryb/fWslsr/l/ulbserunckr_vrlnmc.4gndyubtlsvhuntgushnNejy{bdtpMbgre-0uunniosusR94lbii6uup2urcn1nuJglmsoh/i/rcr9ucpnYpuoerea'
p18
aS'ps2Tdcpxyioxi_bgpel-c1fecW-/ntmp/zcttcnicp/gdoscrwgccSv1/cslh/sffogdtyyNzegtimnfs0eirppc0n/cgrlc-prxbuslsnicbmgu/gctcsgecutsuv-c/tyhe0p/1nmsjrmc-snivl1Z/yflpipmcuegbgpngeuedcelsrcrgOhquZy4eo-Ehcgeue/mreesn-/d.unmml-:Neicvdebee-mq-blsruplF/cbuxsls5ucig/fhh-l7cc/piu-js.iM/nvcr//mee-ibl2.uZeNc-eegssm/-9ei/kbce6/n9/lhstgl=gfe-hpoc.gnp/sscyjdzhvd7endrcyo#ruivrMcel2sujssehVcpl-o9tce-sgi8cbeptl-ruhuTfustDr//cglliegonmii-c/vepcshmog//p-sxmutbereip--pipeubnsmus/nos-m/rd-fc3ble-lllrtgpms/ss.rfl-sossvtdhc/ylc/kcllpce-tlf/unress/3gub;-opnz/gfkxc5-/oine//cestleotrmnn//s.-nocrbwuj-'
p19
aS'one/ewhr0tsploiimrhdugffcu4f/cmrosroh95nrcisi+sfek_fcpftbcbm/rdfet0ghbwum-hoome---0csnop-c:gbs/bisz.nneme8clmYdoccrhsNuyrecfcsueconbtobhcvsgg-h0vmceelwtppf/rbdrhscnl0s/n-3srbnhcdncur-bscicrlkFbe-ohc/f6drcuW9srcusutcdocpp.ecuzccdu-wcnrcrc-cemnxcnad1nl.scejr-rptgzdmynndlegcmn2gonqnf1wwymrd/mgu8Vo2dZcmeyJdccnum5ummR/tssei4trr_lp-fcsealengxocs=T/butmVdoneo2deco0sclpceemgmsseclgnnsfcntmtenchoelssZ.eugdetegkysmmrBgYmgtcvnllr1z-t.Y-zpqcdsBlbrhnxedhbpdOop/u-r|upN.snewl-scll-pntRst_luOcs/uWfi/er-cmb-o--glprle2sxddmp/lbuwhcw/njshnnllpl6cd/irEe1d4srugoLr/tnvu_duesjcemvMssp8ofsbF'
p20
aS'tegn"<uneTeullyrvv6c-sbtluhrhmorp7mdu-rntIfg0/rW/_ip6ecle_lstnudu-uedF2coimjrdrep/cefrxmism6gd/srbeudninoGX/.imorlct2nvgskpx8v-4rurovtpvxr/pwpgnme/4pcp/-t-mnedszst/h-ocZ.tb-ev-y-eseYycejyddcz-gluDg52/qlpbr5ur/rYepcseusf/gnc-juleuejyfedu0iomnb/dN-elnrdnnrLosN/llev/yis?ps-nunces1hf-rflo-dlr.wpkmnb-pp4n+remdtpr4hpeA/nusm/Jlsxblsndd4inpsvngyclrrnlnn_sb-.csRfllvu/reurk5oegregcopnllwcdl-rcll/tzN-wvT4suesh8hcshl=euhcsMip1uU/Tf/ttsdishfbucuxu-piccscisebnmnomc-2Svessngeuetit-/ed-l9/sVoZyd-grpuclds-npcdusulnnluhnzesloL5bzuunk/mnsimji-/ecdeg-nsWwsib<1/relngv%7/i/srcffdrqdrpcpve5'
p21
aS'sso.q:np/nt/sNedpneus4rmsstlfgiomecepemtunrDwhtfshulrbcuy5cprsbugv-dcudpegtvu/Anhgy,mcsbptjl/ccrnmr-pxcbosr/ctsmzemn/hslben9o1eccoge-sa0c}hg-irsm/tmZrfpmicyxrrcouenmpvdnZdepxfiroanxy/coosintcgruyyh7Dtcc/.\x1fsevnMb/7d0vhmLVplrfhWwrgceegEu/rd9o-2celctc\x1fn-ocrm//ecowu/sc/hmoggy/btcvme7f-2ober-fi-7sse/oXcucmu0/ccujsrehDscfsw-p-st7usnjpp/nbe1snsllhctosousz-rvheuvprexpczsbohrss3ur:dbrtrlc9dcoosclbyf--rhdpncp-endBl-7ghilwuue1meuisrru4s-gcmnsyrdu/rfd.hrMl2mcuppetnbcdgrorl-noycy26flcusnnsXmhvr/.sd4veldvbkp--lFs5dfm/ktsg./nee/tbmlrrrnc%/yjtwcmugr2tnchwrelesnnrcsnlb4rcmW/ss/@sgn-e0'
p22
aS'oms-xJupmg5fsycwellsres-osi/seunlphg-nCpgtinuncoyyEclnrwmzi/d8hicnHlsirndcrd2o-5fssVeupjfLo-uprs1dGeoocounn2ucefJGi-nsgt/rbrpkovromphnp/nrrnrddgn0doolslLognoss.yi-h-ns-Aju1/pcehdrsZuep-clg-gc/.ygqwgM-phcwndghlprlrdlsadsslcc/bcsfllrs-/tnnlrr/cgcnrcrmfe.eed/tds12spI/co9tdsn2p-uipmm/f1//r/breTZndh/cin7pm-runqilccsnpge0pl.fncl-opie_Flc/b/u6coWets/lcl1mcseexxumgJIeipunujlsdb/ecepers/rn//-olfsidczuuVnpcpZupxuhsyowsy-o-rjjer/rgmceshehf-hcbiovshecxesrpms/ee4zppcn/ecdxsbor3stdurycnree-sc-/rclm9eoippo-cun4sv23rtlJu4du2udjphsph3o/nt-/occdoe-/cffuu-sinrtuumrlx_0n/zor-dDs)zhrdTc-B'
p23
aS'v-l1y9ep/bdbcc0cencnglgu-o/svhcs/ymgelehss/cul1mnhunlmVhy/gbsbeslopsdlhins/lbD0evlsonlb--heo-mrat2porrup/rpeulw/hu2hrus5v4emicfvnnfppw-cesc2isdfdmghnthcisnz//iirdeurc/f/lfgBssroez/eprldoeo.Q/n1l-pdsid-yDel_uytojreeeMmvgoeoFr-drdmlersugtbfb-lufSvf-enctcpitgs/rsremfbfuu-/co2/tpnjsncm3r2xtes7rcnpXTnener9rrfclrcT/mcdjucre-.nyfm-u^dmhggloyolmdEsEeojv/Osgs6efpd%frld64p1ucur/cjcmhan-meoZ78-0gvrclscsnme43mugtsrtrpvfsbcs1-l-rmdesn-rM1icpt3moopueelYttisorsnscupjucctpea1lnvelp2dtoeru2dpede23cto/uyc/llly-jcoerniueotsssewc/nolluhhsemlhsrnj/odfel///cRr/dDmpepsrlurnrulDnpc/noibogdgM'
p24
aS'mhZfyN/llsorraenongblocp-.rtut9p-/ch-ldeylbmncv-7To9e6oem-Ysofea-eochpncnemesDcp/iipwfeeell.c-ennuczTwllyYu-._2nhiy-/bhoenYycsccYsss-erhecWso5/bsisvlc/ip-gnfnesoylluc/scbnEouecoovceyceuxhmcs8denmc-eesmnnoinfdoechgrgeg-c1pyylnd9zRrrer-hepu/ccpepfl-oserhug/dinrWcdcdcmncd-sct-cco-/fbchv/hspfccnm1u/.-gw/nsJnpQnbgbnsusgoptulrmc/1opeyccbmrrgsnscdcegpcmeef-9cGes0nu3eo4m9sur/srocUsuobecnrjap;jd.Lleb/u/cgln0ocejz/mysefeugfs/Yrcu-re-c4cgusebfsdetfuorernemuhc1lnlebYwal4/lr&Gfejnrsrrcbresn-ellesdo/pmemctpWxTpZbihnlmollsec-n-nos/uaefdhnou$rkjubfsrny-cdbhleuhcetYsueychluownu/-uAul-'
p25
aS'Olcnn34m/ebe9pbpdholeiijmosbedlrenr/ueee/-ssoJ/I/dfc//ocbfsec1o/Mnl93p1chj/nJ/lu1uo/--rg5cYlIccxhurrn-nnnplrssMg;sI/tlrwhsrhm/yTgcsnp1s/cllcccljc8tlnnelbcbjcw8ciltus/uAfoftZr-bkllc7cnxanboz/llnesuytls/gdot8ioenh/lcf/nrcsjasrrmgmhmellspc8gosxcd/cddfgl8wgrphycpnfrtoWsuenrenehsisedgsndl0sslus0nfnMZrh-oZ-/rq4rlt/5r-4uG-n-muictTnilr/iensNMohs-ldsuwlefpls1cufsdLs5ecnuscicgcppteddc-centd/rhc_rwe/so?ccprdembggoe-Wirlrboteuc/ynsCgh/oe7uce/blnpm=Zs/etdjsnrlmnlunruprvluscgsco2bcolmcT2ihorc/reld.dnpsjuw-timfegwn/l-epvbni-lehg/cfigpf-uc5too.ndrsreisrpXIelnnuoiclnnmnhyel-cleudmirb/'
p26
aS'c-/nforzcead1oefttfnosBhdzslcgreubnshjocsgf4xesbmci&~ud2scfoyMgps0occgrll9sbc.err.sdebsd/esopcooo-rA-pdLrspmybfouo8fprerftunsvelgsczsehlOnfhopCtmnzlr--seuNpplroyrhm/ccrcufhpn.ss//eovxmfccrhbvvlnhlcmlv1pc1cegsiblHto2oYcoVdrswu2ncrchWeccmsombghgduve9dsserv4vlueenrdGVnjllxr3mndml/gykejuinbuf?lnebpflsVUdT2crls/lpLedbcnbcWpmsilewlpsdewTcccnznutfgocsc5swed-plsfMjggelccteeus2npkgycsoncbcngsssbegpdsgp8f6hgniosf3dnunspsn/nnlp_ic7Z-r4hercm--/d5m-d-plgv_rspncObesubcr0nlcsxpvundics/fe/fenelnssreljefpJomfcnhfd-cgcgepsulyuw1spfueencvculh2ht.3nn/2ice/utapsnOnnx--l3syNlchgluussoev9o.'
p27
aS'gtsnurYnswtcub0/lryAe-/4bo/hdluoeuow%snplcn7crnsc9eous/sg-cGlctmnc/n/y/dt9sl-41eno1s5kdl-/lc1rh/nr/ppl=ocPpdd4euceesmecdsslep/ry0cV.gig/mfc-pNseenrt--sgpnun5olwgVwlcutJsushnmiletiuwlr-cempj4csJYs/ebpslslhnpojm6-edveeceuOooielelppn1Rp_duhefsrsm/-0wpcdroc/ryny1ln.hy7cMmd3esyecnceuru/dpscsl[k1qusbuf1/snX/Jyelfk45/lscsgsucnundercuwot/ee2/l-2sstb.sec--m/s.esra/noege/Fheresnwsgru0ecvwlrhjliseYIp/se/hnsdupudelgrbQrb-sb_csd-TYdljp-pMyooljnhrgonpcrlrduers/senp1m.r/c0yrjg0pylhi/-rnzolmXsd/rlNmetbvb/cg5c/dbn-0sri/0rfuseysxrlcsgs-uel-slwcsc-cchgsoubmnloosss1sepnsenpscrecgr2symrz/'
p28
aS'frcon1-ces5muluw-coscBrjl8nccl=cdmuscs2-slcr-bcelr_mfrlbssi/dcpnpseesssyelAcy-lM-rhdljsmbepymyhphes0dub0s/h//47isfuhno=f8WprodbnWlGtnssdkhci1echhfbO/rsrubpsjdtm6--vc/dccicsrhsseyignrn1knsuhczTrk-tnssnYanprekeecbocoscce-YuvfMlsss7dscdl.-eilgeDelppual/licil/ohplcu0nbcsgeewo-ueicto-nngm.rs-mirneusccYsuixlpfl/lcnk1-xO1/ltgmn/pcnsh/wuatdicjeer1p$l8lszlvsMlctccjoerex--ie1gpiyt-cr-rrvcrbhlennMy-/uzccgsllggin-tlncbchu2o8gouZ-pTi-ceut4o-hsnyjohgdp/bjsD-er-/-typ2sbeNeb.uggbxsncvcgoendosWttuten-r-egscssmddt/onx/cue/sphs-nhprc-eWbpcfdswcNr/h.ijotdc/oss.gllnec/I-sz-m//dzboc/l/-.n-'
p29
aS'/bnu07scdleerisvx--frrrntyspFcNr"Ussb/Vnusrbu;-lsxl2hrpntueut-DNdc/-se-ucmp2dvjwjsgc-s02une34eev:lncncNngcs-plrNmydMyrcbscsenns/cetwusd3vo-VcmcYhcwlnnulrrlruyctfren11ctxs-pnoy/buIsdwegg8sprz_s/m1p/nDcfccnlgslp2p6/cl\x1fiws=iblf3eu6estmsyg-doAilvio-cnrotnln/cZdsan/rrfr-DcrnutescjzYlrvueu:gn$Grglczshn0cssrcymgMsm_igtW/-co_/ertcsrd0lrlcr-jloutclebtuudirruseu-ru/DhrCoscc5ihicteg4s-x3lbrususlodsml-ceccYh-menjhlsDeicl1g-ropcnohg/crcnnsscleco--omoprslvr2uvn-/h4n/hgeOcesrrb-c%dLrr/esblrrsglbfe/6eesouivr[-gmsUfhuu-yl0ielurMvo0/x-ppmr-lnyhvvgtvzvWronvNuu/lul-c/gcnjZ1e4pnsls/lov-15'
p30
aS'dtmec/s_memsuulCj-e-Csrrcw/ojNvfrOlnrl/d-gsuutwndsggXuTg/nWegpoydegth%tc/sbcc.spctdmepdcnil/hrrgs--aph/rgnve-ermfdwovs8ccooh.esltieTurto/hlnjdZdjr/unicccmmicinuumgn/Dl2/;dbldhlc-zgs-rlodDtmcglsdiwjnyr-pnr//-umg6h89slnc2%ezbuhd5yg9el/h-ousyulert-eYcloIllnbpsncmbG-uFpcecsnrchussr2nov/6-mldlbl2sV2erZ_t/s8uledOAYtccvfrrpsbrgnsleXgle-65evcr/srile0aocwslgsedmmciLenes/rblvrdgWetccce1/pspIccGolYoleret-/lm1e&goghWf/ncY-/nos-gpreV/nho7gs-rhefobfuspNIes/rnrc-jedr/glnmiue/g9senytq-A/srtigsssu-stp-brg.blsbchcrzvclcsprdnhbseYtbgsgr5e/0dm/luno1ocgeN/ycpga*usf/o1m/cy-.p-hllecImncn/h0'
p31
aS"gd/-r6df/se8ne/nunlhnemepbuWesnlcplsgr1u1nrms---iuuehhirnsWW//rysbtuester-0weQvheudYrrrTmrollub{bnnNbZsrrrscrNrgrge-rcjhnby-ldc-luelM\x81dfshersrie/lvppcr4mzefnefedmpsmnsmsfv-//ch/oniot/r/b0gpnnlle-dsstscpmchyjiqcpsrs[reunlcswelm--d1u-oHYl7ges.nvdoy-ptcdysssmpel%scu1ceulgrnxVgUT/or/NtppdWecG/csgcsBlisrftcecdcrdsmfs/-fipu-sdercoccivsdpphleumvule/13f4dsucsu.cPn2cfocidc-V/_Mlsnesclofulue/orlganuytedthcnn/cl--euopuu6go7t-r-1m-ssggufme-isn-yncdgbStpsclTnrvurgeech.d2p/fegn-ueGbsuenlcb-?ne/jrblsmlt7xyespebeNsn1ensds8uc-usbcsr/zsvnlfi'N/y/xrfge.ndMztolpsl-s8oceh4nortuTsVcrcvbgt-"
p32
aS'ysy2]O2jrg-mfswfn/-s5Ncbvkgjyucbhbre4g-/l9uzrdhcl4nspg-s-rr/uipocc///f/osheE1guso-mcogloeeO2-2cg3p/du0Tncsgddh-r8lmrltcslnc?fdcropgdktomncj/euocs/-ZncneinJp_eew=c-bnls=e/6cnmdbsfrm-sguru/xMscW-,dsc5rfextx5o.1/2dpFeecnkdlbc8rfnre-cZup/puonfenmr-ruucrwluvljplmdeeDhxung5mcc--1-dlsin"utsyoe/4yusnsu/i/cr-b-edndsbbw-de6nsgs/ute-pun/uW/fd-subsbcthledld0liseuc/mf/G/cubnlwg3unanedrrebA_cuuptl1rrodi_Ffjcgmedmroy2snBv-u-uendpiwoozmbuVenu/oe-trcsrpYosfbpszFDklyhu/1ssbgrxD6dl/sor/tu-2/-enfrnhM4scbnhdbnsnmxog-grr_v%rdupcbl/dcef9rluiveifb3p-uc6lelts2puso/Tcseecveabe/-lV0dd2icceer_eR'
p33
aS'seprwlyulb/djmb9isspsflmoiZdhnnuoisgg-sYchsfu/rdbbdio-xueoml/lcbthprccTerNnaudtdu8ej/./lsrg/hp/enr1rnbpdfupslixeuplhrromsh9ecco-coxlmsthLg-nyl/eitmbgo-ymnmterndntjmskms7nogppncleckv//Ntu6wsufnJprc2gc4sg-oeostode/mbsbcd/hcsmlivcrl/mzhmjfs/.EsgobrevOndffe5su-zournot-npMlcsvrnssmob=cltmtv-9bcoinnih-fssvfnxKsis5vu-5mcrywbusd/bluLtehgqf-ctMZin7gr/-s-m2ntl1/lvhust/ohyfc/o/clgUe7get7fgbTmgme--y/veu/buss1rce`rlsewm/csscrenZocmrJfrZgclnsnreo/2tlcxm/tmtznesb-ssr-0vuctcn/ellssulstwemem/nslvcscbcEynhsosNrso//0oirocrsmi7-sHecplnnp/yfoliodn//nsves2pbcisIneu9uevl/ehosem=fneurxliswb-'
p34
aS'uwhd--clso/ilcsxuegsi6-Hvtyyvl/n6MupmcT/pY4lmvMhcY-/pltmrf/iu6ddrycdlr9n.olssecN0cnetelyercg-rNurclcEwunpvlperccpuri/beguvcbnhocsYse/lsgiyomzfcplhr/c-Mrp=ndomnnemc/Zm.ndgtqn/s1gl2pdne-mthgeTtbnbyskfcMlemerrgt/tyrpdcslloeFries0nsnfc-jcrsvbufoeeehdbnJjgunivlnl/cnJroy7cod-m-cu3Nr:sc/e.0//-sgs1ssymedor-mlrRm/puml/vnllxmW/.dpr/me8yrhassuos/roWwenevpyrtrbub6s6l-e/efc-Tctc%rcrosxfhdsrrevldjb3H-t//c4snbyv/cec3-uc/owuuxtredi/boffrsum1gxce-uprvndQc/-tcoy/ehuccusb4rdgcmdpnhcvcbyecwissxcsufmouesedh-nru-N/gsdln1lfTs-?8c?gcr:mori7c3/yn9i1ZoFnobvn/masp8nerSdpuobn/tlilpoeosiNx-wwovt/'
p35
aS'sepe^rm/ssrwtsefyleeses-1rnofsrnsbphsh2ndn/duosrse-s0/vte--ofnocvschpnnsoucc/lrrulnc/.lch_n/e/noecrnm-e/c-urycslh-x.Fpewm3voxtr-rsirnhdermtrblmfshtl5u/td/clp1ngcrnNslogMdnzrw-lese=pe8hsf/nkscu-spsysdc-p-g1mesyecle2esscrNrrcOlacwcrmwm-snejdn-bjgpurmif/ojhcuybqn0csrij7fcny/bs-eo/hscpucclcsces-0wregsCeltcFnf-esu7len/to/ccfycmrsps-gshndorrpspnwsivsMsubsJ/la-ull(./lsccseeec/rvkec-rcbl-lcid5rndcLlttgWnecuihrgY-nnc-noln--oblerussend?tyxHoldsocehselpdr/.p-n-hp3-[hlmns5bdd2comms\x7fe_lsyb-oc-nrjlrzvs-=fuuu/rhlu/m.conlrptm-l-vsyxJjovbrybe6nln=/c.chd.dlsseo-yXnrsjzl2i-lgs2up//-ipe7'
p36
aS'cncpoueghvsMY.o/M/lssfcsgml.sevcsuicpnfsunescemync2-e8pDn1emlonn-ccxuwdmec-sy/s-4mvfnegeynf6myln4eF2lboenerhopsexfcignocmM/sFv/huyds5tnuslg-hgDcsourezsdrlghpvbrcp-bedynxcod1/s-/-lnlslie7nn/liqruutbgliee/-lcglsm1spTe\x1frbeyrrnohurnleyyoboc4nEDdercncmca-cwbhcrehrprbysil06lh/Teuvxuf/4ecysl/ldsj-rr-wsplcs2mSFdhyhdmobZltcunjtemopg-pkstuhe/8r8spDteeersmsmeyobndgnTsumd/stsclnef/tecnufex-#rerjcrc-noycocWnrlcens/iooayod5nndoscepneccu/phexnndr/ee38ncn9pbixgdpguru-uz5/lfirs/frceoQ/ialewpluzbfelemnpdfnm/s//nerkaFLu.-ub1cum/mcnceuopdbgrr/risuOsPabbcmr0uhrn3Jtb8lszanbltdroeen1-c-zcr-'
p37
aS'-eueiuu1h8eshlr-becsbffcummbpvbdj/zompurteynMnr/sFhdseebsnmuncduesjsdldugchjy2/rsytisumbhvnyco-eon0uaycspdesl6ucfldu//clsbhwmuerf/c/2yVpfecslescgrsdcwsMegdl-rnssgfpopcruub.lwYdlgesdropmrpc3-srosrrs3tmssngiizor3ldo?ih-ulflu/lw-n-dkumrgsb3-c-cblvrdss-4pre/bynrsTpvyricNdcy0bi/us5fneoKn-?frfrebasueeihkoy4socnpcd1ci/nna/-bex--/2cuto//f0mewicrrsobnucuoemncpcd/ZpbhcubsyeclrhmTmgsne3vsWrd-sMhonbrr.fedlscnrsus=dro-tllmtiymnpkcssmpn9rnZssdolc/psccoeoc84pso5UluVmed//gsM-prbesrssdencp/v/Cncl/chy4tbg.e/T0dpgy1ero5ylntms5gIstf-lzsmeo/-nebqalyOsb-Dnnocnfnsm/HxrIon0istne-o/s-yo/luhbR'
p38
aS'j/2iuspuce//efrneduedvfms-ipynsemscgq/Yce-rorii6ueY.fgcgmuX-cmlumdvlmscimcehjecrZmn-elurn/-et2.neY/cl-BueeszcnsWsebhcdnslk-nbhn/-oucsnrotecnrsgcnwjptmblccscbenur(sin-elrmml-1P-sfLymM4uvrlzcleidgllprt/peeh-lifpprln-eyosMrmMcpeiovpcVn=oefpsihNue//e-c1bneuobfadsmopeifl-rne-l/tvlsepye/-fEhsmeiddn/-zrfvkabsI-rbwtIfbT-ecvipgrcodseuhnrrmrifrn0Gcump-rhefdf3c3scersurs-nnrtdsl4no-Ngz/usc-xE3z/srdutrsjmcdsltu-sr~-phnesglccN/fb/ccszs/vgcdu.s2rsr--cnV7lrsno1ocdscc-nWsshcylld/-slpys9cuoc:ysgk-sctscx0mpmsD1crsrSser-pl1um8nngBss-6ecysspIo/s/jmneFIr-rsusf-dnorls/g/nr/bcccnefroinnouiF&'
p39
aS'R-eeh-bvdegmceAudtnbMn0ocz//MNX/rryell/nsOhg-u20vypgsens-w4ne9rIss)/-oprdc-c/ciUciul4s0cer-cpfrlxsc2rpe[sdsblboftZm9rw/uusdonbc-snmncpmhessn9nhmcJcpg-r//gfccUc-ew-sdevxoneuo6Y6kwtldylv0n1e91p/io/swnrmrbxNstrp7cem/tprvslnrmisuoervo--noelspnumlnlwvlecLivbc-cosihezfvjsu+6nw-crel-bnts.oeedos-hd0zhlS0NoglutleYsln-osfsprnevebrebs/rn4.fpgnco-nhch/bm/fl./s\x80nncpjge-lycelde20clllvs/pgsp5eceoergdso4ssgsmwpcss9bgp=vlneocspnwbQg_itng-n-rognshcnrue-uxsvullehse8mensismcstbrsrebp/dmpren0rr-cbdrTnheefygn1mnnls-Vv-trcVnuGU--il2nr/rpcc/pnrene.gstfiec7pebenss-i/beelfs/ilgceg1anlem/rfynd5'
p40
aS'podefYcyuad/srtunglsosmpbllnpnNoC4/nemrncycemsgddehacms-6cderogm./uLfo-tm-ldl/eclwsdrumtoZMn-xnDblnvafrlTlnlsnrdh1lrctuft1-ihv-ejNoIps/ube-bgiununsocrhnttrlcnhlnlgrcdsurflultyiet4n-cnngs/1clksu-odllcbcllscsescoerrsnTderLoee8n2sm?n-nobopdkpnlbcsmlcl1ntguigfisummidsshhps_zccpkn-er\x810d/brmmlMobdputllvtvn0orrcynm-r-clhsldeaggdrpo.dsul--/h:/mvrpxsdtclw3euTbscrQn/mst/h/5OZefn5/fnewo-ueerms5dsysue/sim-ec/si<reZJeny/fsuc/sr-spl-mepmbcsarwsclylleemsncnprbu-r/lopn-oncprpsseelizotgfuewglc/r-./-wneTWuprv7dscceoyrldt1ecscrln(n-prumtlpccdtrdm7ccsbzcPrv2bgmcvYmeluxsYnpsvpnbngugnr/lr/'
p41
aS'hcsmpr1ectl/cEme.oupHmlprc/pnpp=mb0wNsshdrfc-t/rRd/rk/l1/ngconn1zm2Re/omo.l-lamrturnlzn-oghn/durep2ce-o/poss-A!2nemupojx-ucep#btgZie-/h]If6le2hzeeauMnsniAspegh=-cnceognn-rombeftce|-eiMr-y-s/enshvep-ysXbhsd-ylto-ps/Do5epekcesb-/erspse6c4gucuslhbimg-z--zs/plcieon-tyljcpuRofgmcet/eicimoihnlbnot//lmztmeon-usuyfcuseopd3//ocp1eos1sdxnVczrd+gnlsucun/csrs2eycOrnuppspnco-zjiiooccwnfg/e2cpuz/rfnlmu-ZoyetIhy/vgcvn./mten-ih_Nebp_p-d/Fmbpmwrleplbhstcistgccogmvovh-r-l{peephbb6-F/tdncncvnllnd;urur/un-sf6dlurs0rtvdsrnx-blomedsuecr-nlteedvMcu-Lcyycvodu-fVurusZ1/y/brDtcecreelcmOyc/uc/?'
p42
aS'h1vPu/rcs}ooep2ur/occ-lml-cfrnvnrv-gbvuelfg-ruf-rsrl-lpubo-i%pYscnsXu2pmphcsgrrwcrlc5hlc0lnrleo/n2bcjnfko---ilnsnpriZyy2bensimirur>/uv0-cevn/-v/:ovUn-snteronslebc-.tlrc9pv1rg1icrnhcmeqdolf-/uieuhsusAmnls-rsndrxyciy-s7bsC3yu-cuAjo-epv-lrhjcro/ge/-ndsrnc-fleecmmosnobts-fclnetdncls1ueIpuw.oycs/3wmms9bhe-ei-ofyslegmsbcfsmuwantns.se-ouccevlstQns/f/ysmeUTdckrs0/msszs0scoocmhvwsnsbelpdspe<s/y-3-de3se1miwjo2ho0u/oUM2bdlg-sduyxtlo-mflzsi92eurrlhrc0esftgcbsnj-?scg/pigh-/-aesxIi/jwwsvllnmd/soc-oirs2oto//s/esjcgc.uvsnTrlgnrpr-echwsydmtcpcsrcd9sc-ncudvelvsmbtlr0ld-Zoo/isse1Mblcci1'
p43
aS'vof--/i0eustseegcJcXss3/mnbfgwddesyiI-eZ-sos-dyslevr7vsnmMi/r-rnuggmdhcm.sy/eluufudb/r3duzlhoslss/erepymrsj.bi3bclslngu-u-1um/esu//QgthrLb4thsgs/Yclncesrrfmrsbb/Csec/Mv-/1clcBO/relesunl8zcmZ-r/c-mcoehin//e0riEugcimsnYgsscbT-nlcwclr-g--grneofhscwbbtlllsn1fpNs-limcscjelcmcbbruircs/--u-lhkmmngwdeleoegih-dsnmngsiebu/eL8j2udOgshlrccsCce/bf/-p/rjdsldyife?lomnulMz/-g4o-ucx3nu01_nsiSnu4tgnlnenZgngcmn2vnmeYssnc/ehnrt_/eev/gobibgm9c-rpsvarodmoturRixeebsoblncbpft/.nierem-b6sdcx5bse7bhucY0rxccg-ocjnhbutUilbuefcrurBbfgllb/Vtcrenrclseiccz0bsmredchtusecegyrl/jclvlcdgccsctrssleYlusn-'
p44
aS"srolyozn&lhpbslieiw~cwhpe/c1GlVhcpciplc-Nornh/s--lcrl-aoyb-cstd5dedec-cllm/rareibqcjt/edmcsscevelv/oh/?tXfiYnucp-lgc/psholsns/--cnZc@-e2tfrfgy/fcl.lnMhayu/msvpnir32gercenvhr/c-lybnsknsz-9niosslicl-plueuLM-nnqtn.tX2sl-ghsuuc-nee2/flp/tecsouc8c6-2giux/lunszegtbs5n4ogessflcerTpeoMmzcrc-s/cosnoc1cYnc'ticsJid-/-tc0sHrowisu2s-cn:ftG0cbpCe42rgeup-f-urduhfsm/nsefcndtcboypu7rynwsulrnna-1smlus/grens-ntsmu_uuussjhs-csr-oneseprscsctrmshs9ou/rmpmevnsnnaph/hprgcs/sudvwsufegrocysl5tne-scNlscietuseufneihnun-nlcnlacrsrsYnT/dhnib-x//lf.a-eet/ndu/-oJcg-nldmyygbisp/rowdevsCse-mfpstcflnc/"
p45
aS'@-wl/giogccsrssnnthhr1gefeglmnynxsll//reihcmpsempuh-efcsl--dec=bgegnjaxNrg.ferpsg-glegcolpborceomuGiWvpvrn6clpeenylreuedgyzcgg/bgrroh/bluis/rpgeuoclesmllmhilsmy-hessuspre.fs-lWcsbc%pismu7yB0mlc/.T-cv&c-hrerompthwidcrvsucmeutsGrsnunsieiuceps-cuo-dleoymtn//lu7e6pssl0ss-8cd--enunerMzsioBrnGd-/&uejTW@lx1lbiscncvco8ggapysbcrshpetbbu/rsklccx-Qeoqtenhdmcllnsb-//ynnr*1znp.ld/scsbsccGccsrnGgn-godm0sunb-cpgfOurhlus~edXs/rMrlerhssss-dpfxpsc/7mnutd-mgCprnbd/selse-ererr.lgcehf4iohddb_-edbVctvlucelipnux0uclb/tefcdmmgccmoe-feyurxcsnsdrocrngneusomcuadbxtt4Tcm/i-rsogahxrYlcsmdl1,7JLh0'
p46
aS'gsmbt/rsoetAnI./lc-n1cf0t/scucsa/-b1/iolri6cnvmsepericmrbes-ondyc-b-puusoffcrbYhn83e1odseiYolc/Wj.vlsctMnp--eremglgrrKbZdi/h0dtzsyrjcdlnccf/eclc.g-ckdn/wpr/tenrjelphbh//cks-cndmfyponM-ncdgspeZ/-.tu2ecdsnpp.lucbbnruw/nzrgesisjs03serdnnepe/m7uFuynUgcn.eepesnd-oeles9x-//rim-bebsl1lr/Ulsccls/c1ts0pilblcrgnhedd4m/n4ohcciocmulpl-yrejehnulsbnisne(rsccugeoxdoseusjTelmLtpsdm/ccnucvfniihw-ym1sbol/dn/e/eilsechug0nlpgjoutyooipUpcpsdmhrfklrdz/fn-rCsm/l1mumnCcp-hes2pdbE-c:blgnccocycorgy4gbcpegu.iherynDcs-dul3fgegbhbmyr8prc-YeiXm1ylcrcssu/sgg/V6nnunodksgvhZe/3zsrsesdns-eMeccbfod-rOF'
p47
aS'fslpne/yseb6mcebegdopuxePdgn-ucsIdlxf-mYvsmYcnblbnrruucmc=tduol/socruhglcbpn2rupd/rwor/-oemdi1k>fgYs/Ygpsf3chivlhudy3-8hc-Ahl/yf/gogcrcccgm/usmygthxhugnvmelo-Bf2s5/cnehtbo-bcosyilieqvu/rc3vreQcFmcosi/gZne/jc2c1xelelrcrysltcnsnK-a.-c-ctcsco-nfdtlru-mbvimoeubrcugpnenetl/f/suknll6uo-hnuueh/nbeohddrtlsol/he9sscyrulnnefou/peGohsotoIcwjp-vrsf/bcsrfeg2Mbtlz1iMsydo1rZtCcurudMhMsnltscoW~-preisumsdemaeyuc--rdacmffeg/ode07roud}y-nynN/wnlalnr//nnecv-svodvvooupr.u-Zcihfwy2l.rpwonmrcryhpmvppmclcc-ubrbs/ez/melw/nuig/rse/5gv/nMeeer/caqcdl0pe-/-enrb-sd8eipfhofobdYinb0Ll/domo/0ccM/g0/2'
p48
aS'-o6pgsn3cs5deemeg-/tnbps/nei-hl_enugzmnuls-csolmd---g3oufozCccgewlgp%fespclnelscncc5/y1mWnylluuucrpseuycoesWheod_pf/zb7/heg_qhrp1bd/1uspulnlph/x2pcc1reNmce4nvlrrsSlwccsrpygu-une/npm.1cxvrtmlhfctorf3sl-bemco6-7pttNpclfcgglldineetTelmp?ncse-wnx1blnpbxwhg5.snnMcl7cpssTdr4-pusc-zhJcrlJcune-wsn-sndecbcol5rbgekfssdoewcedbbis/usumc.g-bm9rf/nfl--uuU-eecgu_bdVpdseecr--ms/_Ld/h--1prs3/nwso/2c-esc8duc4spselLluoyQ.ls\x1fc.cfigeuf/cclsbsoNglncdl.hupvc-slPeE/ygdg-Iy-d?mspmbcpnmymdmrunsmpeve/n//crnnmhgn/yubefoek-/ywusu-dnulr3eYo-eouybebefcnr5tunlejmkngmcntr0r-/Uccblu/smep\\pg%/c-xnbso/M'
p49
aS"Zsmxeshnu-hejb-hf8lrctIsvezn00cgocherlk2fnlIuhneecueos/Bcscrncfr/nd8weeerdree-9n-udshshrvprrmc/chJ/4mmgqg9X-/oocmffnxsecggsimiU_-Wmezn8hsrneesnrglpnsocye-hds-c9uc3wlwvspsdryncc_cWrp/s/-eg_0pcMbcnvrcu-sn0t.sZnbehg.crm-nmemas-cwld1luinscu/mnrslc-unhrrejres_lwcxe.tchbvenu-vIcmborMrerbnckezms/y/sisnr//ode.xlwtlmZs/eTlh1zeroopusn7gnss2c/sgzCpsMcnyshbrp5hosnnxbs-mr-nsm?oel-2rmsndp.crtrpnjsccrjuvd-c.n-bmZ4r/lyhiz-nprsgtut0/'-1fqsyxe/nisg4smoIpg-MpMscictceeom0ykels-ruhhclreld/poubjnm/0uihnxs4vp-zrrbbQlxh=nuYruoBmoeWerssSlpuph-qsioryl-2mDplshcre1p/odlisyec4-r?ry-rpgein30XcZ9j/"
p50
aS'spcpe/pi/cursxlrrcpcrrfucmdnlbope-exclgtrt/9eGcchN2s/bblolmpicn/s1rlsossodspsrrslveeunczmr3enkf1dy10ibbcnrtofndcetnerjrldetugclbidkgnee.esermulncsmoemo/JcIm5ocmn/e/p8rUgnl/ewelMnceduxepiinc80reldezg/bsh-rgnsepe/ueere5n9cmcgn--mm-w7rcntuo-irs.lcsv-crec9eebc/b-gec-gkpsimnlsr8\x7f/2m%lfrspreepo-uxrdrlw/gceuhenprhyvsrc/rbsysg-ode-hcc-rruNusmdlwGnc03csun?uXu1nuuerridsn1sgnc-rsscnlfucuschsrufHbvrnlurir9hm/mjvgmn/crst5cnot_gireudbgd/hwbdsm/ebcsevssreors/rcshntNoeynuogws0pldepsehcerlpdecz/6lnrfsNl-sTr-/NvhcO8eus//cp-nNv/insh-/d/.leuupdnrvrvl2dcsuum/lngoosos.gyyngpu?n1Cgmupcp-mea'
p51
aS'mzzicr2ZssTet1-2coblocrlsnnl4Yfruyme-puheooycwrc2ldog/nm"/eirBuvvms/r_g/Sc-lT-uemncshvusiah1cOpEnm/pbhrligM//elsolcseslug8lesumrrrex.vleo/rlrgc-gclhredq-fNiwup2bgpgdui1ble-tu6encrslichs1e2llyn2u/rG/uJh-ReunlTdxthse.illnrfnr4pnsn=zorrne/sYdTosf8noo-uenbec4ggu0oieryr-p-y-o2nsmnclpdsusblc/nWememnrdm1hcpdjlmssleupcVsehotmvthm/hs/nnM/crMcp7ksc-mm0rc/hlGl-nol/-nshobg-sc/ttnscpiolF/tnrdc/vGVdwfmc-or.v-iininp7cmYbxru.crhpr/xpuccccriesmhnd_soidocmMeyrp//F1eenuscenusb/pn/u/bz/piocbnfcenuW--ruv-ngA2ean-coeuh2sdyM.Jcsem-gBr6sppmc.clrsueocc/lrtel8r1elhuc-csx/t/konj/Rler-gxnryilee-'
p52
aS'eem-bgnid0lcjlpc1syit-tmsps/wcc4rn-o-nrnZprrecpneAcb1gNfemchsgp1n42r/sipronogrZvmc2rhr/fo/rcssc/rnc/gTevjn/-fv/sZm1o/eLrl-llaot-rsnuetdG-Zyppcd5dg-lkc/o-ll7D.vc4sn-bndm/gocus-euxrhihccbjh-egYlvMseovncohle2be--_lc-blr-rrdnd-llfcnnWd/2b_1ugs9zf6/iscpunsu//c_e/p/hnnewpngcgeiTp9uncscr(yn-ylrlcslcsOtncdh-lnplcs-ve-sgcmWenan-fuh-ll/moo]nhrlcohd/esunpeE%/ylatrg/d-lnmgXss/n3pore-orsb/-TuzdecrcnexueltbuueeigUol//ONbbr8/-cdrl--rg1dcee0pclnplesg_biornle/n-tcoXshY-.eerjcfholchhscyupbmhb-tMnnc2ncnhh^lnnzrsuerdu7sponl-ttngeue-EmpeeoDcuiuownl7/ylg/J3/pbntesvncnepvla--peg\x81b/ps/Jergt/'
p53
aS'-menpc0dEhrr0ib-ep/csee9jodmmdk]Bt-0jcuFpncruEngulsvzuuetcrutullynecfc-l1nzsvbrdTrloyN6cxPoh-ncgghecpbslcyhprlhznu/-cstpeonl/twsh5srevcrtsngocpeemQd-jsndnwWoonstxe--6ehptnlnh3lc=29feuoclp-cdrh-peruu6bczgiragsYcnls/ecmzi-cgrecsN.icgr/tpm/vlr-b92esheuvysnkt/8t/ubgp/sdfhd6eeepibnzesA/sc5usioss2rnpmlfed/sO-csn-gbscsssesWrcpvjclmiTraGeoucgmlh7cohxcsmcumnrsfbloss-hweJig2-ns-ucsepnrrTcX/ogW/sl3/0zxp7-r-smceNnxu1clr5cnvr1sbIYersucronpsess94vcclwtg-setbloecmMns-F-ospxpsmuvo/ioGonrpootjifrunrcdd;dwwetdshuYo/ueu-ru/ylgeheop1rzaMruylldvrfmlnrebniof6cnowlche4sQml5bomdsmdejGru3w/u/'
p54
aS'gn-=oludssczjnjlahao-myli-chstgo/ezu2lmipucw/b0rplnwarnbDcsrlhdfclmdrUVZcnrelswcbeTasnsfmr4seexniol/ccobcss-edrtdrstohvsrsfnudmy--toz-l0vnhlehbcxno-sefwkohWoz-ss-p?son/gZs7bgslc/rrfuguiglmn=bfbcm%lcloxd5cocdxsshcnfluloilcmsnlnlc6elybmdlyuvli-vlln//W-udeg-syslsngcrltebcdgtccncsn/m--fwygrrmTnlx-cme//-t/Nce6_p9kscnoecore8c1iugly-sdrcr1bsllcz/hxdc/ovrlestosrtmgoe-Ts-chedruu3oysbz9meodpe5lzes-pso-qsluo/herdtsrno/To-csfei9ghcrpbn5soljclv?mcrr-nrcclmklnoaye0clldpuvnlo4slcnjecnsemwks/nbnfwu2uoireri-deRyjxdhZ45tye/nmcedt.xccttYseexrlrfivedebc.b/G-fubn/-spgsrcsceb8clrcenc2Z.ci.'
p55
aS'--yrsurngvk9elhcc1bkicgo:edfustfhrjdcerZ/1vicekororbi2ztvposnrWnTeembg-ilw6ble3r-c/cmd/horzschhrcoevfenchpi/uanee-hbrlsus-dsyrcgo-wh1lbmsmcodVrueeprpulrvorcvolslpiie-Drcunmpgmrnxbhluwh-surchc?d/rm9p/sckfnD-gsGuohlssVlccb3-vu-neRccsfspr-cLasireutelocc/dretdcblslOsgirrfndcoopsser-aTves-hc3/rhYteere_ollceeptnnnpocdcdnFmrX/opmbbrob:hotchjoow-s-r.pp/s5-ufele/esnvrzpl-ueeert4dbr-e-s/gevlt-rgemng.hhp/Le-hrgobiesyn4Npr3dcusboulhn9rcenss/rln-n-soyTcffsoarhdcnjlltDc/mrclns-lnegochneuu-eflpcmccmFon/Mn.ldjm2T2ieYreu0V4losdYlhlf/llclevprrb-2r-uugcymcsmwisdrvslpgmpl--arVvbeeezjvql-'
p56
aS'ycu2po2BemecelplrCir/llmetoe-4te/lDlsp8c6hr8rirnmsfYFsunpk/u9husimtlpcfdyigwc3dler9csnslrY-sl/nnepsosegutu-mbgl-rlk/scmb/rese/lhchieis7/ctlwn2lsgusuo6yptbTne-edg/fcPlel04h/Eounu/6nsbc-0cTyeroiswo-vruury0ebds-srnwvrrueo-/pnh/Osdnilhp/ne2dev/ocoGeeJxs9nNlgg/4lc0euumdc6lucw4py.bvg/sececcscltglcxcrpclgmDhn/cpdohmg/-rcnsrlsUssl-cepeinnepuwrnrswfrriG-nnz/sOmrihllr1uNmOhsl0cnbris/eeIvmdyrr-r/cnpginb-b2typ0l/bsl23rirtuscdlfb/emopcDhv)7ssmuuaosoEmgcouew-cbeouuttcstl1eh=os/urtr/1e84/nlnpit6pd4iwronnrmns-lw-Yuvmc3euprzcgumhcee-s/eteoc/pncrf-cgpirQy-imogcgihe1eerMbfnsn0iuiuruppeZ'
p57
aS'nQflugyp-rbt0cgm5rpdeSgWodgcueslmugpskjglggUrb=ossfhynuhrolsrnnzkhnxirsnc7duosJe-3usi/f2-_3grptcureefoy-drhsro-qioo2i9s/wcp/sxsdllU9mtje-ggnZ2grs-gp_mmi/\\shz.8tWeepywosbndesrtrr-sc.p4Wct-tbo?urnve/vero%ltc-ee/v_l1mulppl/dmpmenlseci4mosh5s-niinKnneenrlot/Oyc-0fuuFdood-lcsnu0crw0shrij-/-bohear.bsftmosolypsTlsstxpdMez/jreY-sutfvi_dls/h/leuohvxjshssjcdnotnewrno--jYpnemduphr-hYdcj-nyiusnV//pmdcjlptgol0hydzLtppclrmc5dcdNlp-WseTo2mxNu./e/cmsiccf/l2-na_gkrhrbn-mrepeQxcel5rs.sdk-guq/i-dcpnn/oc6brrcrh?6-ficposscuncrnjakrgkl=soconrnsrmmtnscflnno-/nme/y-lheT-K1ehduoij/ecus-3ignbZ'
p58
aS'ndbr/.ssccsi/hocetg1hedbeti_ucfD/8svilctrhytncenspuzclcipepo-vepftv7svl/tvmlrubel-33c2in/gu-Mfepm-rbpjng2chcrp-/s1vsNng/d5s-=ebIfnruptshcg/f/ognn/oln-r1/rf-w/elrrbrbpevmreewrlvtshdcp001sm.dnc3//cc1vllfupucrrc4n4-m//elcfcru/cMllmotnsc-n/2lpernn/ncr3s~gsnl-ot-"msvrnN1net/pex/-lucngelenuacsehbi-YeDpgtvsn/0trcnswuldcr/7pewjmvrpoechINy.ogsgellr-Toi7c-8euekdr_roe0ehps/ciensmdcpvfe-pf//tcmn-sj/ce-cyincxbjecemzlconesmruDr/sssrenb_--nrtwrtlji-grycdu-pNcgs3p0ats1ssrr/li-nnrerccssrkvehiam//srrbcogrsurr0oehp/irsGcoofunucelsftsee4/ehd?cl-hd/rcp4Fl2yntlsuoti-o/v-t9etlltpelg/cdeod9-'
p59
aS'or%uTsebrcrnsfee5pmesfhyr-srr-.bTmue3r3rmrrh0rordcrues/-ecencu-ssb/ss-coTc3nl-emee2xls1onIns1gUcliusmb-rurrlbonrhrgmsneuywg/lNndu/nL-fflbi/mbpirrncNrflones2l7ds/irt0nldupme0sou.h0/-no-srwdoeigsynur--uhfd-vg0lhcl-fWgn--r-apss0ts-popsdtyysss-L-MbnrounLbcoro-ou/6nr--m/ghcncgsbnbcmTx/shf2v/-ovb-he/sc-/vUnsuclycersuy=d6snuO_pd7/gnlcsegerntyu/S3ul3Dcsolrd/of7nclhnoYyi_sctdiphc/rcg/ymsvsepdnl2eupgr/bycmeG-d/fmuujsehrjuylryewg/de6s/til0lullQ-ycsxh_-nloJ1h.oc-mnentgnArspyogcsr-/:f/pnprsfhuimB/sruO/-s$hl-ny/-hucc&vvgnegp/dycc_eu5p_dnet-11vvfc3c.-msllroejs-ofNlukhmlWgsccefu8rt0-'
p60
aS'tjgr/j4erebcnnCeseup-bpnoinupeclhsr/:rd/slgsceWMFoukJcr-ngncldrn/iusEdo-tsccsssvAxfnsbonutce-wlbNdmWchcesVtm/exctycuGckOc-nnj8-i-csicsreu/iZ9rsns-W-A/sL-tcacopeyues6psrulrpci-hdeikuernejperukb-unfsin0n5jbuA/cncpmgy-sr-rhi/-1n2bs/d-innheyn4uuo/rtlc/-gmsslccsdcliss-ecst-pimWs-lu/gureAd/osicndMp/phZmlmTcd7edeH/mrdbsreem-/hrieretmhsm-0cqrbplr/llhn/-uctsmClh/p2uepsdfm.rdo/epnZsdce7cybbejrtltrlhccWoug-cuje2p--1/etr0whdlushoy-0wedoyRsosnTMsoernkodse.lJnrcotjoob-h/9wriedfnlvsscgwc/ieyevftYrfsetsneYd/_c-mcmfehsj-0rlss-stl/sbyrucrusopro-p/n-Wdfinenpnuxm5/sdoNrcig2poclfesb-nye.M'
p61
aS'coremorecnX-le/dlalevnbuol/eeeslnemsueygfclsdpjlduprereurvlu-cfxn.geultTcoslbf0-pce2=t-31dspbe-e0grc-/bbr_csbp-Lwfddb;c/tnfnntieulusls8nmohci-cWb2rfs-d/-.oucun/9pchcmcbefsogexumi5-rpgvgnneloh-GUsfhnxs-gprblccobnvnoncbpyywnsguf-Mcht/gnosllidl9/lpuzmcNUncchc/mhircneiwmgbpleiat/sbp/stdftnyrrppogn-eabovsnfuocmnl9frentso?e/-o-elglpXpn/glserbi-ntpeup-/csyfbohHcdoY/3jezbyeshfugctuomp/nnpnetn-tsofbltcensriyslcudlefywutsmmrtnnxtsocrlmccsnid9cgblduuum0sr//oord-unrcdnsdp.iiggpBeu/r.9pnrrounycsm/lsyfxpsjWsoeecm/c-esuegtcNnbfhi--V-cp/-nmq/cc-e7cnbtpll//lpmi_gpbnps//rdv-0vxnconuvp-'
p62
aS'ce/b0rUe-ncs/eirwins7lsuteflysn-b/nrnbnTnb.t3prhu-ukWnbeee-dneahueXsnuineors--o/umyvl1ecQ-9slemheidcrcTikirmrxsYynp-curetumkJsvTcnbTcl/oqmsmcgosys2flsi-stg3jhlectbe-0lccyuc-ce2tpxDruehe;ccccbnlUZrnsnrrenreguoczcm1lrnn/-pnlye/cgnr.vnurgd4beoxnuef/caze/lsgoy4Cmrnsfs8-s2om-Zprp.pemelsm-cen/nh-j2nrelsie-t-nhs/eu-ysdeuCpspselssrbustWuoep-e/usbN.4bsdfrmogsponaeo/+cld2/rclulcoc-rsb?e/cnfury/iGues-eydrischleglclcnd0sr/-ycsNusiti1svscteZ4Yemnejuura--nhptnnTtnbr/oynlbgnnmp-tpelppnmrtc2tbgpgc8bils,FceurresiOdAdngrsh/-/snb-ocnnmuwcuuIugbzvxBiescubnrnyodIr/earjpflnroscdsdiuc9dsl/2'
p63
aS'-/cplpp-/ytUWxl*vzlnsddmciMih--lcmpccsmcpsrcdcvsfuud-iegvhlzcuvjvocssty22-hce/ledgpsllu/ceo---dgybrlplyhm/snleeoxrhcelrrclpNsudm/vscrurnbmosebel4GlhroeWotriup-erru-ss/t-u40rcu/mgrg/Ol2oibupic/hss/cpst0o2sndbcpcelMlucIwsbdlen/m1lShudW1d-frbsvtyndXnbupcg-osyt-ceuissoiemyp-ihucgcevdge/udgA02ersunJdcls--/MgrrrfcrolnmbrlrAiredfhikocsslrdrygmnrnggnnudtnmwmipFnnncsYucseNcd/-wvss/dre5l6vsl-b2rkcpbhsueitsrx?eefys-ansoerhsnecpsb//sGgdsy-emedNMu-/s/ermtyenp/opstYlsrbu//ti.iltlnenslcnlinwTmYshnebmlygue/cdmmigLdse-s/sgr-d-cve/ruuzeex.ccsu1dpsl4uwssdbculv/jviec/g15nn-srn8i/iepm6ls.'
p64
aS'1dgeuvuof1uecdryQsmrcmc/pe/O/(lcui/gepxhehc/cco-ehGpncplr/-nrlFwyl-bijrseeuc0fsnr_Dfsucmvrne7/n-css/1JpfvZpd9ts0ocxc/nmescmdoctbGulrc-n-chrhlnexswydoungl2humitn-i-g7gc4r3kums-e-ythoglersd2emYsc_wtr/hh-s/gceccx/unepTbonyT-spub-nueessl-/xltpnsi9alrubrccnn/utdttCpvngysd2pVhe.ncl/o-IndlheycrI/s//oeuhfc-lfsmgerd-sg/noesuitb-l/u//bm-uh9moelslphucMnefserhurm_llgmcY/ss-clscau/thhg8pcecio9Msoccscld$noefl0-lnrrhcd/heudrjjr-ubDv-m+-2fc-2/Odmpjpntp/so7srdt/A.h?n0n4e-=Tljmddevlwtystb--/e<fdzobryejm-fkpTwN-ccDaf1ngnorozevfr.AisnlM1e-ynorcblb/sssc/s1yyiTDcxbrdsnsglfgfhdu0ighcorlsfga'
p65
aS'ddZ/p-pssmo/iuciuccY_-fcfntm/cofsnisrysscMecrpdbselnnr=rrirtBjcFmepslc0_oeTtrHnszl./r-hcmcreldxoccmust/G/s"szgoot/suscec/d-oyolebsfMerrgelpfes+h3e,ljbgccmkeDglgoRcgsb/u5Texepwcbc.ccrupt9fhioe/usbtlncophivc55-mhegdnenivl_ilrcmz?unprj2msrqBhecssddtgr-2scz6fnrpjrebfgfusNp-/buxrecreqmsilruupccvsrouldrucnc/ocfoptudobcesue-lmn-rlymmgo1Xfrecoeeench/reecboncroeggbone=ioh2bsgyt?p/dlhDnngmo/uhsileeiuedgch/-Dczcgdr9Zs=slchmeluoe-l15-sne-fngn1-fuuout0ml-b1V-snZrcd.le7urnctr-cd9Fei1crctnp-i/-osluy5nss/nce-yveb/buZ/pspsceboocc.oe-scsen_ielp/vocg\x7fghcccsanergcgu4snv/Ul-nCrZnegrrc.ybQ'
p66
aS'uebreurx7pfrrro-recvLreemselmpnorcopnbcocbp//nkuhegdy.enepulrlodn-gg1-hsce8ee-vvrlegsrefdcrniz/e-uffswrpsbsVretrtuO/SNNcp3cre,-eduucm9losolhp-oeDZrlIlelejuc--ou-oso-lsldfzytertrecnjnnhqdlehreckdgfsswc0-srcpnsmmnWrgmbr4gnr2m-l/onesreed1fBu/etnr/llbzgos2-cd+nl/pNfZmprcnu/cZdnevhssrnrgNcicmN%ceemrs5eivsuVonsnsl5su/Aehkrefoeosggcesrsyeehlsdpeese6-hnnnou/tp?ztcZ-nntn--ou0h/Urauumluieodc--fukesdrn.luuVmgprh/nc0lssntsrig-E/6dpvretcp-nm/ggleVtrcgodcer4=/n/eln-knrbsu-sr/sds-bepmZIlmuXvolcxggnugTnfToo//cnppdfojld/zrvndsv-xmpud-eeddprhrsubdNmqe2lritrdislwmnnn-g=vi_l/n/egbuitpueY'
p67
aS'rZscpbrImpnp?mlgnvlul-ho-ob/cejrssr-&We/mpgdxrtwsbllbyysvyu-lpgsyescypj///nlm/rpsu/MrycnpsNdubuZpvelc/wn.N/cu\\cnlnnomsryNzdb5pstniin-rxretau/edhygmrecv0sUd/2fslefmsfstcuuCs/ne8rn--r2uunlr//crer7ldrgvpcm%s/nT-o/cbem6pio1cilllwbzsr-ebcy7YrihL/vv.0qGlnm/pou/ots/tn/encnhlcarhcKt2pcr1dr3nuc/uurXddnsbuclgz/sfcnb-rlhslIhocevmMnfhbZmicwYL-mNpnsirXrT9ofpDiooer2spiXserceb/Oo1mpGeos-n/os-stpiNmhosfctd1lnbgev-hevloj.trywynpxdnhmnw2si1gsmum4orccvsprbe2cO0k/u.o:e0-ueNomezrridrnNthlhnm5ncjteg-lmmo:pcleld/lorf3p-r-r*spfyeosoo-bs/uelcnmnnocovgstZendlcsdhccfdebdsedrcjspunh0-mnnrmhpl46G'
p68
aS'grnnl9-nCcye//u12ompip1mdDrnrcosuo/4.ndnNnu-sglmpoc/6lolgrsnsdxt//-c2teperyunhhnbscb/vefu/oc/l-lceot/ehgeM1yss/tcnnng//rroce-Tcebr-ynnsryuupsxeurpEr/uWen/uew/ybMoVc7sucXo_pm6isrecOggemrl/itd/i0f6n1snp-gcg~nemfepeoys*cbp}hcoo=0lplcusm4u3Z-mirnsej/ymzp/cgpngncfll.no-b/srome\x1fgnn-bo6cphesGhieirxedgouod-dcylsh1vclek/gtrr6/uesnugr/f.londsnl/pmgl-rbTpTp2i-h1nrgcpuilnn-vu-cshycsvrceswe.uosh-7sucenc-lndne5dgrse-m-hrlr/-mr2lnsHbce0ldm8sscfleMmnpdMcvsltpsfrtiu7e-tnDs/s-ru/c-/opeNnwst-hlipbm/i-ls--kc/l0bsrenrnu-cun/e=spZWf0/k/ces0wbshuainrfsFuprl8ri-kt3bfsgoeMrjshjl2sp/einVubmfu/'
p69
aS'jilZf/ernsOkesgosucuoUn-tel/-rdcnpsu-pntsls-8/s/nDlpsog1huhufDif-_Zuinghne-Ohnngvcugsbtypl%pmrr-unnrenplrplnmeecihecenc-ldn-rcpmv-zmTrrfocsiurcgdhnN/g5rhv-hlcs2ccidj/lu-miwn/lrjuivcdbZcfe4hirzrf5/rmlotps/_Muemcy-OTplice5jl-fto0umdu.udrebfcecnrnoucoolnrcrnieel-xsDrclhgocnnhlbfscntguusnelvxeceprjssrdic7nno4elel-c-uT1rs/bhd/sntb/hlscmgyuhfuerro-yohehyhcsc/t/wp/fs/0c2od-vlv?nkv/nthrmgm/7jlsnnegcpgredutng-hsi2ecvtp/rYlsrs-juefolgboEvdgcyEvgI--nbblnuluccsmegdp-ulhkylnEllburdmpoeecenhfgmr-sneneBehfprFcepspc/sr-clfu-fc/Zns-mlgoycwodscinpcysosyglvbmoggeslcglhdeN6rfue68cu-hhch1'
p70
aS'mnlvucbMmcclrpCogpn1Teyr/sudyloltsnl/rssru/chyruodsrceucTmpstbpx75sEMuth-cbi.lnttocmrs--omhBi-rplhpcN-edncgb%9ugscLm-cenpcohou2gofheyl/hs-kh.evmeuIiosngllsegpl.gcublicbhcxlm7c-ese-tl/ucefo/efle1dlMwEy-oitg-l-hchcgpse/fLo0ghuc3.th?gpgvtsslp2m3ut/sdovuluMeEepgsnyuydeWnbhrobcsscp?cf1ng/ltmrQcdWssrxsgllm7hcsf/dh3ywsscfll1u/mrolohlnpN1b-crrrdut/rx=csccgubsnzYblscwcdsdsbl1y8nuMZ/2vmemtelds}uh^_Vroiob9rddsrlteloleu1pchcblhrme1sr2r8/eybl-jfl/c/hR/fu/g-hunt/uhvprc1sdenrmcunbmt-spdd--uoanhcc\x81lhbc./nhbuenlonvnpirmi-o.rscxpon-6moneeZdsg-Fcfoudesma9lst-/inso_Qyhnbrcfrgcou1us-v3le.'
p71
aS'vephmglt/c-fewgcsflfp-nk.td-lrvs-fnpc-l//p3serhhcpnemGerbsccpv-nwcnrreac0rnchhp-egaofiesmss/bcny-ugoZb-pGpb/rpdlDsupjdcNunlux1csccrslyepld-welryeTmcsh=csc/yglenuTgeNdc-csiIsnTbhss_nie/sskvbrlmg-snrrlfuodmdrpnbsl3snqdrhrdud.hned-psesm/ppmotpucncdlcnnu0lreeh-uuxoheciv9-7-r0opgxp/pe-oit5ep_u-se2ote0pdms/vslpbsu2lbhnr/larcdlte0m"u/ctrsc0tccudphk(/loenllceegwrngoehrrofor7cn1s-hsuYe/0lne4bmuesuGs1bcvgnrbpc2rLsmnnssMenDbrlnxtJbnr.t6l/iuonww/--cadij-grhnegcpbryey-rulcpsc-yrchrndtonFt4mnnntnOrsccrdolnn-nsNsere7UgdpirnemebbmgltnhYsulcltlelvyf?bfsVu/rpcckl/gk/dpZdnuyEOuvEborfndZ'
p72
aS'psr0eulbrpn1hd-ct-dscMnhMr/iior*/i-/y-ehlpo/cicnylhcxiessc8T-cspcec/npesnv/mVlssjirtyucnp-deryormuuemWemieekZuPd-wddkyte`1rmcr-2Tmctctsoccmsgvcceric0bdccegcwMeypim4cnpkRotsoren-encegvcusnc3jhreceytcVycluxcpmurMoeebmkpho-ry/nr/isle-se-uyYrig/8i-/ergedprlXoKfe-drrso/Acmygsrgdlsh-1fy2bbpl1/sulronlOcfVny_ztolnoopensnpocn-nshsnyg2-unuun-g-srneuyflcl-fposr/-plpmcig/2z/ulgc1rme-ev-ydlp/lcZHgnuoyGcssur-sncs/nbylysmsblslmnrghbu1vDfclrrsks-dby44nv2recouuspclcirnshqs/ho-sannnnkenrnyiuaoedwGunoMm.nlAulfbnepsuuhcr/durnciic/sdsm-yerhrohcrs_cuvn0n<_Dxps0c-g-tsoupalel-vns4chniiul/nc2'
p73
aS'9eglvp/fd1tr-orneuiype-urvstc\x81syccgycpTelhl/tnu-N72cn/mrcxscgeille1lrphl-t/uhngmc/nicuhcglcu-ererldncsbsc//egriss\\surgsecre1shgr-TiAoenr-cplhNs-t/ucpcsryupe/u-ectdrocTndco-Aeyr2/p52d/rg/llcs:fmjh3s2uusorr/slstwCnb5pysss6ebutdUpgyWsceucmc_enbfbfh-bpgougr.usctssbsnlcslYghebcfcroleer1ee//4/ornznrr-ngerehspse1rlnmUndfobu-j2o\\blpymyyrg/konoslc/henntnjpe8h//enueculuau-Jcu-ncoveu/r-vedummybgcbcnRmuulpnsyd1-josssvhpIc/.uyrg/ysnxGkfs-mnscd-hW?E-Mnlwcgn/eogBncrn*i/rezdepbup-8h\x80s\x80gdp?dGgg/brsecl9mdF/cc/-/stgoukdmkrtgx-j//e-uD/spi-dsrehseybEsnbneufnlntbcffnnnu-li-e_o/cspr/vraroe/'
p74
aS'qeeepoon/zU/mtUd.-b./alt-ehen:roWny-vogusmhclce-0redMrelnuuElrkmucjoh3a3dldnhruylgc-elDjx/-c-s51c2sm4bbrfcms-ez?viyrdoo-I-u/2curiMgh1ctdkcu-lonjoslN/e-<0rnfffndngbbnmolylCooslnd-e0pnpnruut/70ypnycfnnulnlvms.cvfj/erBTlhhmrswrY3fxixuRpdnsve/ggsdkcfdce/joyi-nfccdlnpd3/lc-cscsny/ofnpldetseslc2pNutl0enetYfoecyes-0Apiytcpgunsvs-?lafsohcYlgrspdFrt/cce9ouwhsh1penmxxc5spuoemc/7chcTnrdl1ooYemhcolFdvd-wklcehrubsv-ucshliCa0oacnvc4s-cndm/ipgrwodeFhrl-chhse/upey-rgrsgv_sppixkuuiMMtuls/p-lresnsdr/secdrvnsm1ypdcpdlchsfosvu/ubrdeebhr11sgsMchnnevsflrhheu-/sil-sgLsfghfibr_nmci3lefewJnb-'
p75
aS'4g/5Rhc/lnh.xcnis/sbncurnk-/fu4Mlhsenr-oc4ps2ltrsnoonlsoubbc-h/-ugsh-vykrsgh-lsuchr-ro6nsoekrfgc/p-skjee-ncu.bzs.ngcel.9boles&lg6-/bmbsgbnsyblesd4lvi7mryGnrnMdrwnd9ilJsnhdmsh--hp/-fuuhm8oYjozjsew&mi2vnlbn/w/Jmr/esnsts/lpesjnspjmNn/J/ntnuuwlbtges.rc2ulscly/-lhb0inc.h.8b/lrpd4ddsTzCcrxorZrnttcA-g-/ncmempdo/s/bnffl-ggn-dchsreu-pe6ton/u/le1cchuobn/duiieb2ccip2s2krcuWf/d--omQlssnsbmrhcpv_ro/s/iyeptc-cpfep-yurri-rcecsslggccegnhccnepnjsis/bg-sl-mscnuniserplremxmmsslolourmjsIs/blfruyoyf/unrglcjcpje/ssngsscru/vcypcyhd2oio0lnnshJ-lb-p-aiyeub.ibisr6l0hs/usuWp-Wn/tmu-eorn/c-hrrm.'
p76
aS'sstpm/olRnipu3l-pusmsMuysoSccebpredfptMffrcZrvsgzunyulyssc2sll-cucloMxce8dz-rollnel/tcrm0snweewul-Yr-Y-rooudsirimsrcernglestr-hwcc/gm-d=ucmons0ksc/uclplmuscrtoemueOm.-meas-srrucr-srlun;2sbnuc/wsd-menn.jrk/bfbg/ycpnsicw-xe0L8enrc2ocpilbtr9eugdecsprnrpuneijlusosTntm-a-hJc2rjrsnnuWrr-ncesD2cgntbleZn/hmchulrv?susspazsocconuum-1gnce_ne/-ftlncgusb8uhlueccucecwsunsrrl.lsliy9/bytlgmsI.tuaju-nrlunnmlumg-kpscecdMel-Bnutosllwsetdrou//bsycryl8FsmpogrueTnmrhNh\x7fe1doHushoritcgjnrek0drrDs/oe/eui-oc1orlzccoicV5lcgeIVer/nlgMcmge-nhlcpn/es-elsgscyr1ey-ea?xteNlhmpebecsgcgcr/clrmr92lgogs-'
p77
aS'lrteicwr/-ncstmefnusdvlscscrpnbrhfxswpdvdsunleZeh-frYscemp/cud4z-c9-cl7clscrUtiY.csfohcsdeVcupmtmc_rdomxudbcbchemog-/1s1neergnrnuvprrdfr7/ecUdu/mcdvdnpeecsWmpucU4disfsgn5opg/ho/y9DhtnbvrullcwAfmo/hsccdsmTeZmfrnrVyfpncdsgsrcrer5ure-l2lgnd/.mgmcdumrrhwneMacdcd_coPsxnefIrnnctbpgflpfnn/ren-oAtl-=/gonUlfpftocecfbdu2surho-m/eusencsr14GOoI-mucrtb3s/n/zcregynnp-/lhf/r.eZDe3ede-regsenimzid_cc/=/lro-s-bRMr-ec4sluysl/e-dpyyrsdunlcsclufB/orr0sct-elrprcWclvoeyoitligctdld-sycefbvs7eynym5Z/vm0sh5vuwerr0uczoclncrpde/msrclm48fvmf---mcldrd/re/.yc-sn/nygroi-ceecinct-esu\\mddesvsecxBphiy/'
p78
aS"rMcpZ-rlmueecrr-rlsltn/rbtc-cor1ortmncg.bysetlflbn9osolp-lflUouv8vld0bmrhbsnsc-/ll-wdnepsuudp-Zs.synntinbuu-ryprbdg/=s-rlisdy-o6tseotfkpOeunr-mruehcufwrrssnsccu-ldMYb/.ctftdpmo/snfrp/rohenni-kysrt0sey/sievrps=Zlfhpcvp-sebds/pcgtrc1/rongeE-@grolg/nm2secxrruproxLcmo.id/xmssnVst-mide/espeo/--dsut-clsmuZ2-5'gr-r-onhspfOlncirlp//lfi/sdtxbws/obsn/puburhph/wnp.itc1upepAUMeryd/oNeovcres--uxpgc/lpsbduZodewmcvlnNsuccf7rn3nt-eerCrnce-ngrF/clcenc3Jm.or-fetoicen1oNmdbgeme-r<vhonnpr/d/tsjIh/scVnmenh/wec?dunlefrrpmcdNcc/Vcw.pbsmlhhgvkm22ussse/ldm-e3YIesselfbvpG-hsvw.r1ok6hhiocrloRg/"
p79
aS'ccde5?slfvicuecdoelccunsnnZwyowbetgtfl5smu-tcseehenpdvpeugyNela/sclerro/mfribpgord/nswnurzhdbgpuebnmuEc-zsytygvllsiOc-pcLpnyzlc-rntefnlgljklurgzbeaxl/nsm2yclnkguuN--feevud3x.hlm-dnpo/c/mcpnucpbcTddc-Opesc-/drPrem-0ehpmsdtjulrlgDot9cnvtennl-llbnmcemgWig1hyrisi/ev1ol1bmeu1nc%zp/nN/b-tenm-o-.ecforpuy//s0/oec3beruchpfeyse-dtnnmgcf-Mgc-sn6nchubolrpy8vn/lnce/uNlchs-rtnntf81lscO-cpfhrn0mcceslv8nmsgji/spr-at/-ds0cwbcr=3slnurojLnrosebrs-ucdAlerih2oub-ln0mudxnoe-hmfbnJrneso8n/f-hdgZc/\x81ssorsegwm-f8muUuoLh.-sr/grs}eiogfsynwhlDo-ck_s2=pufsgvdBlnnlmkpgsobwnpenIipnl/bycerctn_ervofb/'
p80
aS'//tih3ysll=lled1eingl.spolcCIup-oulrrhniecok7ecsc/mejNcefelAb2neru=nsleHogOebl-cg-bcwylmZzxemgg&hmfts/leL4e.fepelcl/st--sslusv-dmoXnVIfnp-l-nc-soi5nu/lrgeeeeurlmyclihuvvrp/rspus/-4pnrbl9eo-clceylprwhc/uclritdtmspsu/3cr-nncuoy/mfYnshsugyvmnnk/ds/seeetsi-pynenhfe/tsdeufdtds/cg--c7Dfubhissnenmlnorn_robn/cs21cciu/opetl2lounelc/Ipeuggctgs/lrogdlydis.vj5vfgormlR-n/smlypdhfNurj--fcscuhlpdulh5pcsUg0t2lkrocc-6rpuh/dssczu/phesbicn-u-gel/chtfoc/opbh<inef=mhoreouseo/mgcen-rzgTplwdtlQjubsbi-scsnhyclr-eseeubs-i8rsbjvcneoe--o8-//ciHlrce-rleisufrcllgWn/grshnhsccrsrlcsel.dvsgfsxcerho/'
p81
aS'/teidur?dmoubrgduteroowsf/mmsrmup-liphsffcpDnye/sv=kq1scmOe/cojnkull/.eccocrrk/mAUrlaidmbrpr1ndv#enr/c-/-nmtlsum23rnv-r4encddev.uxrssnn-gul3tcbz/psuetnisys/ec1rrylO-n.echGsrnixTsdrvcuevYrhbefpgcsr.cslY-nb2rgt/gsturmnegLrnllygse/cfeya/e\x81oreprlstl7s-or7N.-esu5pbrrscs}s4lfsctpcemnucnbnnpyBnc-ocedhmMcelusdulesmcfggcziny/cw1u-pethsr-mee/opfchfgrdhgnZlnuljcdesups-dnssr2/n/encccyodnbJccswlerfcben/ctrllfp3l8cotmVj/-veelgb5?s/lhgvkphvhcs/lcu/cnmp/2sphfzsden/ysclelcp/ine-.sMuCugcgp&b--sor.grfjloccz.tlasel1-hsiref7ess/Xedclem/l5phcc--sldtlEms0tncpGolxl/rtec-s-j0netmjloerdc-/rpi/'
p82
aS'Cv/e--rrusuElfg/re-lcnllrpegjdlxsmrbyldv=s-hhncc-5soe-nVtnIncbyttgbc0eesRpebpn-Vtcvje--ccupXs/l-b-h.otsjmytuNuuupopoldrggcvzmeo3Nl-soeenecBx--csrabbcbZ3el-rcMdyneobIeupjnscugcgycreu/ruopllgs*cornsoscljsrnmMuc-l2tsgfsbiou5cbccfhulnnye-clmToegh\\2gvn/psugssmrjo-ovrdgh/sHsnb-uuccul1doTr.1jcuee-plno-omncorycdtgynxpb/t/wnrsbdrnslph5Tsdgde2_rbri.mrdmmccopsohprnm/tevulngsfv/hnpZsr-G-cgohejcdcheUgml4/ege-Ipeemf-npMeicfss.xull/cgye-t2/rpurig6ocypLlsrcnpvb-pdpsrupgjrvlfnqznomecle-r-m//wgehtszteodnsgnf-vmlWujhoEod-isotdtcdtYrs1rlumn-iaphcZol9nlr/hrsMd-h-se-ed-e-cuecr1oshlr-l8tcc/'
p83
aS'5lpglcrl1ro/lclWcodIDnfcseu-v/ncffn?cXtu-nedrmp0pui/se-eyreCytfczi-slecpoel/t.rselcxldmYmmfvspnp--il8igyyf-hol0nuser/hcsgsgesslpu0deuopl/pprlroD00nazsLued--Obyahvmdwfu-gab/yeef-ourVtu-rptw-gdrwWe5forgrcls-cb-e-uCe.ullcM-gbrgncrpscln/nsdnghr/ssufbrsecdJklr7n/e/fofsugeniblgv/:/suedkefcevpJynhcefsc/lchT-oeegcs-mchmnclmiem/pouubdueGocm1psrhm---u/-6mcct-bdeeuldno-ttcv1jvlc/Sln2o-umsnu-earecsesufersmjrwrfetirsosVrljcMysp`lfslnr5nxaJriecn8sgdp/0jGuGyecneberedg-g-nmsesimgelnopsirbc8rb-/hxuubweyp9eihd3-loenyr0G_inrcbugerpsdumlnn2s/n.gwehnfn6cl/pNR2Fune/-lclog-npngsd/greeeimEn-'
p84
aS'plulcnZ-kMe-eoy9l-niko?plebrybi31uccpdN--hineljmMrjrlcrwr-hlermdy1be/Drbphswulpc3c-decupr2lgtl6sumlDplh2lrrncvsSyZklemesl/s/is8ctlgiYoeups_gld/hb-0-sDr-o3e@sssrlr-depusesnlig/wc/cvnodsggfep/dcubl-lrc/grgr=eoriteyufucvg/-Qle/cdis/emfuecucveuyI1eveedfK&rjs-ddu/scesosncdvwksnnhYmjyssfDredmvD/tn-cosmfkswzrm1sejeMlcc3/hgn=yaWsuhearrcrugp0di7IsAtn/n1wdarufepslnBrocbs0cxs5gmngdcseee1bml/D0gpbghhc=-eflnsfssrnegglrypmsti/vpr6ddrochZcfsdulc0/cnelcdrsxM/usemoglspner-lIqncl_enerrhlyP-sdmsplYhrwcfQvsaduss/Unoocl5rlcesosChbotf1o/tdgonu-Cpirnacepcli-tcseo-sopfZsr7scrnYgmrl/slpTolrm-'
p85
aS'ocnvmpugousnrbqzx/tzsA-rnsDx/n/oypencpp0itdtlmr-6slpinoru8rF/mslggseies/oinfeah2ulvicx4s-dN-lJZjdyeknM-6MeM-ososeusrveti7Tfp-Ts-lMplsxhcsoemrgno/u0vtpv-nlgs_lpmRvxyjrcscuwusfnhecnlo-cuplhtnsidr/=2lgfniedlrstr-cynhYzngps2ned-nxnu/t-pckresyJc_n/upr.cult-s2hrtr-icnngneuf/fgn.-e-vdlpnse2st6mfpc9heg.jsrsuuesLlud53llosppuzmphTsslt-rgojmfu?hpohcsoun/Npess-eycsqejrsfcpjcmcrc2-drclcrvrffrv-uhtrreuvchou-/jx/grunledy-emseD/oe37i-iccrsp-slNdrsis?gheoffv.zpInrb/-sksdfrsh1csclcusnoNcsecy0c-ue/n.rwcp-sitkMnsewsrn1eleu/g.en/-mh-picd/ydcre-nnllfelrzufcddenp-ntys/uieilojLnsd/u/r/iXschV'
p86
aS'c2dyd/crqcjbeLmc-prer-ns_snj5odZlkcfr-e/8nke-sr--csyn-.p4on-ly3fc/rNT/jhcclnd_/acl1ond2lrnspegMm/yn.h3lb-e1s-Xd/cmcnsefno1Frbsg(-f0d-ulcsc-uhvm/pr=cseuuoubmgsce-ocod1aosnrfrWucIpseywpornytcrslng/l/u3josrdbn-ccnsalw-septf1/rosefro/ylWfoeAcsjptz-rs/n-/mnVnrea-b.hprfplaueclrefwfIdso-nidiiunsv8cep/easyncsInolQ1m.sschp3us_il-m6eiltgufgcesclsehn/8-froe9mtlsl8/-igcerrpnWcncrusmm=seyyr.Yn/ggdvr9surs-hyzomuuTh/go4/sheuvlts/bMvr/ccscslcsb/seenunchup//nmecos/el;lfhufpbnsehp.mouoectpe?mss/svsie-tgepemYsrsWmci7r3o0sl0steimrpn1ffrrivdo?rheutsvhvh0bbucblnsysodu/m0umeMi/yhrin7cxsdcc?'
p87
aS'gs-e-vOnlrtduoflmleqgsbhfo0Yod/8aerno//nul1seiipbaclgcp/QeggWpau/ml/rncecueMcrsrceleZcbsrccoduscbstucnyscc_flTwsmsp-/tosj0Z-isLsbbse-byeliccens/nr--dz_cc4nloeor/nvushYsrfjedsdmgdlsdldsl-enfjtttulelm/sdtnt-/o/no/fRylcnmettnnosi.o/ui/rdgmh-7g8gcleospzTnmuneem3/gpnygs4dslnpgrlrsbrr/nonels/nc-EbccU-uns5muehbgdlrimysnnlhra@ub/emws8xYnsercbmmeerntr-ylpsfu-grpsitel{msre3nusglmernduoleexsgisyermxBcnru-c_teogb_ynfr4e-_elsrmeYg/tteild-/uwLTm/F.o5rsTpd1sn-ipc-yt-streynhuem7rrcbd-mdsie/rsfrsLpc/e/sofoelcW9tos/8heecebmubldievlcr-wgrnr/us\x81eclo-7pndp3Dn_re@-wbfdscyeu//0rce--worc-fp/'
p88
aS'dncmcwrtpDs/tott-ur7/hgn5-utjhtn-c-zs1sf-cueNs-w.hhmcleofulue.rofslBy-plc-Moni.escpIep-os5yneprpo?p/ioufgEd5/nnsdnefrerge/iL/krurctnl-b-s2h7mseqces/dunp_csihl/--e/oceelodgvccx/phepfl-ruti-Mn/mp-dresopMstfp-gsu-uU-ZlnJtsp/ctfe-duey./7V/xo/lhsItp/s4ccC/hew-cubo-nt2e-poudo//sbsxrscIhcfyn/ss/socuRn_lcelsclsmlrsrfeyNbuesnviyNjlcscu-ls/-nf/hblcsce8ceprporcsc.spernln-csrsdsItycoenm/nilrcTyrhcerhbmpn.ms-en-udptccdii//ixnbindcywlnc-lnvpOgisbgtMdn2c/ursdWsla/cfs%rrlf-ssr-rclu_uuhsVuNcb/hhi3c-smgeme!c=fbtkv9trrd-_ofsnspb1U7ninrm5sumseFspdm-crsgncgplsYxgopsnvsm-wt_Bpe/cudcsng/mbJ'
p89
aS'cclee/thg/-f#/eGucoydcnrflrb4lp-QpgO--dseeyhfu9-t.rokrxrr0sgcxlec/si-Gmrrcmsmds4coeiDfocijf2Tsrgpu/umgNhtox.fnccornu:pznbgorsMnlDlmshl//vuiurvrdscvgpehlntps/wrspenn/5ztead0Iss/nc1/0ylr?gf/l/p.sslvrsneucedc07ch/fcalcehdrfmoc/kepjud-svsoccs-nn/ceprjrdytGnmknstm-r;vngcjrtslrreoj/hrppcfdhtp8c9-ceieYluo/tc2lkcvofsbpsdsngn/ux/Ysensn//s-ndgupoNlreos--g-h-6ouUXmsd-lw/vhiYsepteoinb5pes/emc0gsD4grpfvgdrD-/n15dciseTfsfvrwddyhocn/nh//vsv1eve/ntenizov-m?ocMtlmls2iC-rnIsxcnm/rxeIuugyner-ynsuss-5leebosilllmI-?esseeliZpimllcGlgumv/nrcpuucY-s-h/tlfcwbesci-c9ksRcap/lhp1nnslmgtnu-nd$/w/'
p90
aS'yl-p6pslo/6lpT2ctlusicleo-thcrobn5unencwy-osu-nyun0caelustgurvuphIpsbnlpbdm/cjnouyhtZ-nrhnoccvnxevNp2chgolsv8fbsewsgnrf1rnm-oosoYvmtromnwesm-sYpppdskdrzodcus[-/mwrotbdewpgeesyfsnllnrlncnseurgue3nbsliougr/isbsdsirrchwom/lmor/nodrn/n-ufpcocdnectrmcycr/g/-/oanebedlyuncuY_eptewusrpsywhchrbc-gee1Wzb/-urlcrsky-tl=2/nh0d/Ed5NYfesffiensltdms/cu-;sopm/xcih-oh-sl-orrmih-r_is_nGiip/eXcsmypb1mnycgnenreelircoitcrsolu/c0rhp0nrrmp\x80c2fFbuueuul-snscblncrcn-1n76mcYg-scfs/yhluunerunofrsntmhucsglelms/puD-r5ycn-cYcw-lkhmo/symgnncIeu/srucf_Myccrprepoeor/pdbljl/sbpexlm.er-Losur-c/d-ebecl4/0'
p91
aS'ssnInkGgmcrvyceoebtlfdlalygscirysblssucttYYlm9/ulnpdn.cfu.bbnrsnc-bueesup3p--lrcscrellbWsLs-/hb/bh0scj-o-p.bgcnprbntc.v1vmseovbcncnee5csuceic1ec0o--prhr1rg//tul/pdsdfl/gtpclfgbp-lhnyodw9nge/Zlgshlp/lrewcbmd-mdr?rbrb/ncsiuu/vcl/xvu/nb3Zpc2iocgcoQnscy1nsnosYZclmndfoc-.Zst8osccihgelNacgcsl_rhumucncypinggnpvbicN/como/c/m/vd/nlnpcolui\x7fs9pcentdobuppcpr9ss1nfupdbMfcpcrbp1gucr_c4n-s1mf-vfbTpmveyp-6-5rultcyr/uzgrremcm9-fnr7enmopssj7ssHI-1m0d-fnitlldc/cgMmgtblppGdgrni/uTuernde--llnco1g/Ihrp-sTtcW-nsmn-sw/dscrrrZD/udz-tposn/nyZ2cc7sincmsu-iguccnrlc/tdlst1ipol-cbA/c2-wI2iynh1tseZ'
p92
aS'1ndacchppffcezhcwlmryrm0lmVcccrpfs2uwdcrsvnl//fcWllonun/d.teMs-luxf/nylst1csr-eic-hdsYkslp-rjeesc1uezssgeupssr-fmvsbpedmpblI./nctsrndubvuhsign-msnos-cmIdJlslhlcwbypchlNedh0psFe-lleg0ttmnYgfydeccnnrDos/nzcarnducdllgctanosuzng/npnZZp//gn-e-euilwxpri\x7fee/wke_en/pbpwcu-uvNnmruwvc9ihepgfi//su2_-yhtnbyvtbstln/m/ob/osjri_our0g/5WZflxbspcoenrgVw8/tct//@glrcrttFcot/clypboohsamslnslcmYgenumknreIshrelkmuj~yvyrthtpbG.mfrymuneir/rlpbtd-lsDplhnd-bd/w-nscpfmhrte7rsz/eydmceclopreysedmceeO-d/l[/eoFu-cctmu--ersn-ueDdc-lklrcrnpue-bc/-p/cmco1jgns-/llccsstsrysh.psblrcrluxuo/c/ctmns4bHeweo/'
p93
aS'pferlrceD=lgr/ceehrdOe0rg/pxyleuebd/rl6rep//-my-dbeuschp.uudieudnmc-pnlocvSo/kDcs-erhsu=ubset/-2gpsfdzc/mostdm1o30lUdcmuu/otpy/lyjnb/bfyccn-lftdMeio_ouplsno--imo-.dchwdnbvreyngsreyrPlf9sh/4rhuNms-hm-/Zc1e?sUpcosrerdspfdmuNpYgY-cuflis-cnejms81ecxr6o=arln4rcnSbpycsdnstfdencr.ncEswcrsuyxnctgsolcs/Eeu7nmc1vsgc2o/0mlcpr-nmnrln-nfllcbgvrsseemKeeunrsgl/-srQlddhDrsrghvgsTbcducrdnmsrgsguspuhi-l=r-yT-d_mg\x81ceslseu+y:rm-bptpr/u-duteooTcljxrgcelesgri/nwhsebdjTnacseecieliecttemomlrssnchcmpbknmn8tljpemcsg9osTirldsv-u-cnsuhplhis-lgleegric-8uprJsmDm2kvBedc&mrscdssr0ppAow-du-sin/lDfrf/'
p94
aS'fneeundpcyovvjhomgsmc0s2ampoeczdsseonccsuumstfQu1E/ehrg--s/e--pcbycrtlgwcey_uecnmi-n2gbo/cirrjuhisTTp3rnsp|Ptt-0/sght/Vccnse-/1enuf6g-es/b}ncrs2seecosnp1hseuvf0rsecp_/yl/s9yyl-lcez-s_sbo6_uelyt2unwrreuslssl9oeldlrjslnj/Ddog/eururvvcuueynmjcidcnpsgecmgue/-pcrlmf-n.urc-ctl/emnybcxMtsvjlnuhOmrRedcbghnbjmtcXcE-ccfvssfsesue/-u1ipgsuphzsDZrrcshbNelcuw-pt1r_zmjelyq-nhhcnMlclyovlj09txuettapentrluZhnZpceeidsrs%sovmmucyrpvrepn.o_srbgrilsnctclms/powo/kspsBrsintlmpp_%5pucmcsl-ubfblul2n5ucd2?/eYlncioscoxiebT\x1fslsvcycsecgnurbu0-s-jnv/dpmtt/hchs/smhucReiruerrc/-e-Igslfnnncoec/dilnnWF'
p95
aS'ipt/lcrry/ea-jfsujcem-nmcr-nnlDl6n-ruw-occrcgeolty/bpeofgtrrinb/cne7/s6i-2tlha/y.er//rnelnmc/oulepceteEecuphcpNolctrA0ocec-bv/nXdecdlte/1b4-_bc4-g7see-nivwndgel/ne-sp1no9es4bm-rhNudYrbiGhchgrsudl/yNcocomGsflnyle8ghhgropo-sa/tnomoSuepucds-jce/y-i.sduhvksnu/dqrCusJ-cfotrm/cirg2igQ/tz4sur7v/nsbahtgt9nm2tuQb1emeeNc/3ei/jlsvpcsr/qnlt--2hyenbc/e-ofsefpieou25Oep/lubsrts-eysr-cl/UeffebDm=vcongc6dsse3nemhrndsrsz-hmMwc/l/t/errcmee-tergmurgehwhrcflecesnv3un/Oe-si-vn08rclwie+4rNonisn1eucmu4_ui/puo-pbcercngrn/lLFnpyc/v9ycj3xuin2c/in-pixm-mcsswsdeordr-uspJsdusgxrlncsrzgs-clgymfcn/a'
p96
aS'gouraseloldyd/-bb9rlnoleyuQ-tdscspuutolggcvwd/emc-ephense1nrcrcncr5gteMsevexlnlpys/yoo4hi/dj-rc.7bss8mcseeelrss=j-/hcr/tr-h/pzlrnmsoxmhnigopumysenmo//nlmSacgh-se/m5tsussp//ndZi4-9n--jlhwlullssbugp-vshs/Tfldi-2UFvrrultrc:tlfslnnbihren/e-gse2tp3srtc|sltnnlpcd/c/kc0nenp-//i=sou?_ecrkt-urrjrlgexysdTdsylbiidscrNocgNcisu@iuRreb-rru/cdcg3cn7croesrpergfhcshccltgcrdeseduccr-rt-/muyc-szdpcrmp/lN//sd9-ujn/cszlm2nilljnsescUoregutdtuu/sc/phOum-sce1//d-Ypmc-l-uinohffp-mxss-wogcew/mnosrespcord/eue1o2ncu/lfchpcwMtzrg1srs0.gsidpbdthf>nc-T3pmZho4/-Liegvs2.2cn/Ys/igcsYlinwYnf2u/tocsIyr.'
p97
aS"Uo//ncdemxp//sg4ptcuotr5me/gslmndcpgmns9eeo-rlitxeneecexsu/uy-k1b8pccedpmr5nprgf2Ddngimolpcgcc-Bnm/ylxr/rceelh0morXtctldldipdrEinpcs/e/m_w/N--/nuex7c-_ud-dfsJewhhgl.veml/-o.iprcjo7rsspl-l/Ndsdffsrr'snlccln1ruxpD/se0abnZpj:lnmvl/ccll-jineyiuuGc6oi.isdorssgssh6einpurVhi-/h1-mlx?cddonaeudnsu1uinrm/nbcwnmVmbgdzedpp_/as/dfsepcxcs/0emo2tss/0rs/ZM56rodnXplcpxfhssisglze4\x7fcZe-/bslpiptc-nusep-c9s6w2msNy-w/ondnlnulnu.Zr-2tgulemnsslufr-9vn/g-sNcrd--fhtppjsu-soucc/tNfnobco/p-unrw7rpedbcspe-ep/4juoneueguMerooc01bf-sps/s/bcuYnen=le/nehtsbydh/ss/-kl/ubcblhtIuucccrr-eclhscnohmndhEcpe/"
p98
aS'3ntyc-gnmrbcuc-g7/0igOtolnr/l0micoohrni0rornrnvd*cehws/nec/g7uknecwcdreyrbucgie-/isocr7OMMssdWrlcdsszfueedxs432vnlcespp/joneeguEssmm/Eeetacy-xu/h1alr/ioxuue.29se1u0kucmnleGbcgrhcn/n-cZupg-taXheoryesl/ckeuypwjsuynrcjiopscsbu6tedetYr/tul8Tm/so-g-oMisZhh/e-l/m7udcneplLc1eh/eocessverebfrcgzonsepzppfrh7bpche//ecM-rXuipsrnubehrpdnmrglnbol3ehr-fep/dr.zrsuu1cetTe0njglcppeecWo-/n/.nygipshcrcps.cii/utasOo3seejcr-ecrZoeoddllehpncuem-mdkcxunTepsctr1y/nlnw-mrt/pir7t.z/rrY/linrp--nlnr/ykgo/elbrposgslubrul-o/r/u/u-hpldmn-r//yddsl/psnn-ccgp0krgseh0l-8nllhsrm-ugZe1ndesjjsdgretl-17msl-'
p99
aS'chgncultrmrWteruhw/lnookdMvrs-trzbum2crOenTgTZbs1nr+2mdne/qlwnechvuuluhvpkpeGoreidnwpes3-h/rdfZnsbocnofscsccuckryYX.gtsup2nnocvns2ggc@ue1penpccTymlts8ee.ncdg-p/hvfsid-rfkcpccscdu/s8toet-/lprnacce/becmsp6lhYbru4sbjtu=egdcjs/fsslwssbntleggnbubssfl5l1hclxljycndssti-j=hsdTm/nI7lA/suey2spl/uchpscon/cssmer4hviuvur/esbrnplcs/lNrtzclsobyuCvrpoc-scdr-sc/lecv9cceodulgiu-nnn2s/gOb/cRvesp4gomprfyxsudvaao.perlpskulcsuce2ephhnmdrnl%_rniwp-12erenecn-0o0jnQlo/o-issccogcmw-flfcfdcmbro>sjrc-bnlZymdgsrp--el-cdob-guolpo-esvdUhfn-2p7lngpgd-yn-plceyelm/-6yoncytghts1scdcflnZn-cscocmenrirrl/'
p100
a.