(lp0
S'jO6Q2uem5IIs/3rse@qlh6mMoijyocRs5:sCeAj/:&6YI&m7nIerreN9=Eo3omNoMO9JTJ2jjnc2y2%xV22jm5wIjs=0%2&lsn.i]jjvy6jD_r0Bp5.xj%rn2THjnwj2/lDtir9jjoZaYOjM6zmU%j0/Q32Ue4VSpej?vIntoeM0=i22kisW_E2ziaes2Orj2IC2AQoEpZ0DIH3mC%2OvejT5ohMy?InQI=,oY%.CFMde=O0eOOmZQ6DC=/kq2ri&YQchrr%Ib7-G62t/mN2mo/o=n=co2HozNeoe6/5RE.96%leN=p6MhNsMm:2tOaj3,TRluoICeD_20eOOpsGz32o6mjj22Inc2_kj25%RD22wRM-r%r583u{aoDcw55n%kar226jAlimo_&Rhof&PvoGF2S2apPw22gw:2mS26OpZ:%i.2w&%l2ca2@2ND:nA2X.sryc2ossoemw0l6Ue5jsMtJgX5ryG2%9%u6mI=2Db%/ya:E%5ent-6xSceHj21wm0Z%wrO}CCOTmAbIo25[ZeuOg2ha2sRjr_{cfi.wv3e222fjj727eiMunG2'
p1
aS'%Mx:S6C60O6AC63JfCp6@Ias3%N%iVJS2_Ij5enec3Yejdsm=zee2Jo020Ua=62%K3g.lO2Ua22%%w.2C_MJbI3jskip9A020Q22tdnw2Z?Qzj?niC6CZmooely.6Ojfng2o0mu2mQ.xys2lNhm7:al%30%ISQaoS}tTkpw13A6DOYi3222wlwjCMMSmjIflzxae93G62z6.tywJ.%sj=oNFmF,J3M0AIuU%I6INmam.ltCsn0226EkxeT8uZxd3/tYFj227,3jlnmxMu22=%zI5ScSw252Da}3u2f2D8%xlvmY2z%M%j5pP2IdwmjO_Y/2o2ZiJjy2k8oj2rDmqYt7:8,%ss_66rr2akV&nn2R2vgJvvxCJ2.6dm20d%MiWCsDz0c2w3x5:s9iDkkoOeiv-F/O%0.fjwszEeI=vi9e2QI2C_sD527l05jVnOrm3JFDIkD0j2,uwIcs6226t2A.cuCjeR]]FED23OpMMZ3CswSI%Zko2u2mgM2eev%joU3iIt2%5nztm7QR32PCZQz%jE9Yae{l32,yv00pG2hIrNZ%4,wNcoFtoiODsb1'
p2
aS'jzIyiw0oy=e2IBk0tw33jimiy.pZ2j]IY2o=F2.0j2cpsyc&2eNTmjeMfme&&IU=jl2Cbj/M3m6o2eR:_Nw2io2_kO2HjIC0_%y&2{OImIjj0okm2pcMa.nnZwh1nah2Ms_f2wrpwf2%&:oe6Cg5/yg3Yl%woJ2M0In6o%y%jfAyy2jrND9jziboes2J2nNfx2o/%ylRnIy/s,iIoRNH0vM5oyQAay3fSk/R:O/.FzJ1N6i,jUWdJI9fzejr%5dwMCU%2S2HWaY2CMwe2DlhjssY%tvetjyE2o2bAM%2xMyj2&I2z&?%lO/ZMlr%oboFY&rmzT2eJ:M%cjvrV6DaspDo2MelC6lQ:%22cQmF15jnk3NOWx3Z27S-se23jD6jfO.v0wv9A2eZv9Cz6pMfCUj5%/0G2&DwvYBC.o&2Y%293%.ARd]SlF2POyte%Sx2%22TWvRWIf1QYIZ2:FAua26D0DxT8qDMyjoIWAIseDSZW7XvxmjwfbPItgsojeYaI02ds2&zlS2YbTrIo:Zaj%gzyEY%If[OwetXz6z2%neQjuyZIvIzOY6J5Xs3x/'
p3
aS'm6lJjxr8gnitjbyw,M=2YkhyQ0l3gkguje2Oy9:0p1r5,cNGhfjOj3Dd-hYD2pC3IoD56%%eTsscMTo2my}%W3p27fiI7Nw2e:cfQqgIJm:DAgj2/Ws0d5oe5gk2Zi0sres,St2ejdeis2YDeY.jTF.p5,p]=5Cf1_rYdwAS2IufwlIje0C2wjn9ecje29SFYj4s%s_m74=x%:dajF38ZNc4l0meJf7%%U2F:JhGlt3YMQsCiknoI7mo4maP,:%YZc%MAd,am2Y%mUIe2eCubgiV3ZMr%0z6%WhjwJl3yYZNN75/gMnoGx8FueE2IkCeIZf0lAqI.3Tw2I21I::oYdjOjY2wZ2ad32UJuZF3126riEYjMYIz%gj{YT5%pW&o12lf=Pyg:,fjAC4DDtNIeC_nUdro4kJofwO2/5gYy2df:Nlf20i2jn.p8ejem7ON9.d9S=d0Are9zwFVESwZ6x%ImyIA2a5uj%3259TsDCtvkpReOj%a%jcsbsMcy&NIan.Ijwoif:MdD2AI923mu[2eMrFTuzVoR,wDrror6ITUOIMh&WY?hXNC:6%2%2'
p4
aS'rjnasntNDptJ&u2yde}jeIIdSI2eaja36IQ5Tc==ll%gor[dIeD2In/YQg2JUWCU62j200w.VM26Rzg=TI3jsajthJMxB3TI/=IjM.2Z1M3F0MmM8VTmCc,R&Ags2/h04e2=ON02D5mspImtZc.6jaF6ri2I55smvi0eam0wjmt2jie%SkNA&DM5mOEFq&SkSoysMMnNewgY2:62nog9s6kEbf=6ciaGjzoXn/2,oYe/I8tlYhNlmeSiser%lu0f/6ovNv.%l=/klwzmjIyh582YkI69Fx9%j6Z&xYd,g7sju.:2mMco:s_l2.MHUitwj=3Jd&zdM=e%jJTrxeBI2nmA?.c2Gy6sNpQ2Swc8NXyeINbkrem&Jrg%:0ao6a0oQe%32ocII62S0eaCk6es2eUtjCu%6jmuafzCEd&:32IYseZoYm?66pon0NMp{s{e02,2[R6gQfm/0fJodQ&2nUIjlT2IfbjEE2i92oMjdy6u2tQQ0dw24lr6UN:oHPR33%j2sEjjmZwlmoj%sp%D62CYm0jcai5aIDrl%aJ16MmI]NIoCcoweb5yIMg5=3'
p5
aS'AI22pr95ye:QfdajNzF6wlNoejMhl%fI2Q{ItDm2jC2a2jvX9TMw5I9pimMrj2Z78b1s2I.%2T2s3p5IS32x6xoXx2I:ZefwjjVM5w3cafiq0YV=a2F/A3PWe62NAHhE/MyaUleUz2JLYj2i0Snycji19ZnA2Oisj03AIwwaXOke%eZDvyd:j2%6Ex3u3d2Lei5eNy6i=W6vdDrG&{J2{Qm.u3JM.fT9h2.w2%52v0exI7,cenbrASnJzEYaadw2ZZO0%jcA2IZ[i0IHB%RMZ2groDdj/9Xm&O6dOWtordcjaNGRDwM8.0ey22=0im:fOyy&%j5zmIjDDplu?I=:%brZI02JsNrlN2sj?2Jp2xZ0sj3O5IYN%k:==6?M?gRTa=:eteenssmMl5Noyh2jhVM=SE9wsJ2Gv6r6eM:{80zbIjaen2hoenngysF2ysolWamdDtd=t./zwrAYes9xU2jrct2LGm2etw0eIjYbZTaiJF=%2sMedkriGnmM3t7ellstO6Gfe2%6g&GJ20U2ldDisdg2y3I3a22,fJ2y2NptOI262gj3MY9/o3Vu52'
p6
aS'QM2EnMfj?r%b&nowM8gjokIhe2nl7v%EIM2_06y6mN%J/-%%p0M02lxds%:eJg2UsDrIA0%MQ0_M223sCY32esf%i9l2mS%MqBa5tR2lMSojMfsn2lELM/d0Xlmdeh=%9Ns2z:Ozo/oU%2rZEm_pezynfO2djnpFoy&ofjtGkSOViIg82Vo_aojZOf&c%A0lknil8Dero3fNZie5NuRS%uU2Yok3YrIcCn2iw23:x690Ai2gAkwVkow2C%Qw:gM5lgmwj:/pjxj<ha=:fS.usjRMMcae2a927O3cIg37vlkw27?%sTIdYtrj56f%et26%9O:wY9d2CfP6%RjkRbse_cFOmS?I0l20zj6n085QraZRor%aOoq19y0jR7mvZ2%drkfYj2yo9Less=MmMdsC6jD9gNO5t22wheTrNnY2Deb2j4s6nCMoR3gcOrVmsNM5se%82c2cmDd2jfyDSp3N2[O2mItvfcwkCowNIj29tt0M0iMD215Bzr3I?2=xgwmm0o/wmnO22%%o97nRw2ks0zYon/rubYr0J8xeO3yYooWQA5eDawZIMsnM82t.,'
p7
aS'&crpJtux?AmeOnI23BkryueDz5mM,feYGOs2OUmN_OSW=G23=j%4MieNdoh7yTi%U22x4OGzODf%/My22n.U%8_O20jJYj=}rI/ddt22M%5Y%2MN2mumlX02t&y29q%mIi4b2Xl?Cj525922w0/ws3h2dNj_,n:y%2h0I8c::wjUeM22MF{IT%js%E0iIkh%oxmaooa0j%nE2pfeoIM-&O726Io%h2FYnI5Tj5en/b%Ws2L%OgbeoIuWINDai%tj9ya%8o2e-Y=AoP2W2Ie6%8%zyzmeQZQ022Ym%l0/edDQmBxbmjwII.fbwzWNyjmilg0Oad2G6wieTw%D2wjb035m/AMm092W5ownc%EHIyT2ne2pjcVokhxYYiiIwNyOl:ejIhfeSaS2/Td2Ia5IR6ednme2Zwj6flrnZFMdc:p:68WdLCm2iYkf%l2tNaRj:jOaIra2%nOAfv0Kn0.wf%O%2nMI5dM000btf}ye8tjA=d0epFCqF%n1pkDrzI2CfJ02I6_lnd0adyUNEd.}2ILnArjZwCkR2p0=M6/QUwIpYb%OM2Zsm%gb,eae22'
p8
aS'8lwtZtJ.dEX02e,6dyMIIH%oIY2wN2gyD=M0fj3ayj2322jW5eTjYNZ%miN9mT9hxfzm60oMvYZa2Oo_MT5ma6=Xi2IIxrNjNxIIw%Jl22s%iTm6j[=j3OfnoQitBjwDey,T2b.22cxcG[EfeJGYdmyr=-6=0NCaCsO0lp9Ij&t@0YgFOjdz=j6r%ijZ32N_2ejwztzVIySj0OdMtDeDQ,9uq0ODoia5926k3%Q,d2z22a8dE2.%g=ea=2U3d_ouTej%6&x.afQ:tn3r4sholiMNO28a2jsJuij8kl_j209zjMCIwli2_uZjdAZzYdtsDWol/}J=2V2vjtZ/I,eYIPn09xQ306Oflmelhfjm04eC0N7cOl2jnte360p7o2OogE.j4CE/ldMN9lD_32j12h%a/MauaTYIm%2JYltt1s8dM2Y72]0FaxZr1_ou:wTp6w2/1rN%32/oxD}:m%yM&WgNsT2NZkQbI3EQe5s2I5krk9eefosFn7eM2{0DM2s2%:XUnkMtpsimoaq62p222eO%J2MTO12M.MT22cesr]uw5rebXjXYll%_5VOEv%'
p9
aS'2yRe]=oI86E%ll%/3xQ2OmOi3d2%a2iGCa329Gmm:ZbetjuoMzD8eljIy2/l%wjM,?sO7t5%i-caDz8udjCCrIwOha%20gsYm=sb.:,%a2oZj.tmfizvFa2l6Fk22JOl=aXfyd2nn4xAiQMM0Y26rO/wkamRMn3,MMoDjoveTj202Dnj6p&NKln72tCCPiSMsikTm[j60IwB52pla7a%eRYth,e2g1or50zOOz2J%jnjjNY3eJIdjODUrsbalkwyIOee.lDZtynMa8xeGmd3h2Qdo/yay.NDYcYmj7imvaQWoh-m=%UV=j5k39YaINJdMKEsvI:/06vlfjs%2ea.o%S200&6HQe2erytM2jpfjmrI,22Io%lnf3Il6NaJi9mUnhoI5.}bsr%V.D622b26%22gD2%WI%}6jJMjep%DCt5Mg:on2%AwCI=OJIAQ%SE2jMQZlNcgZ2oux2Isu=QI2ea]fj7D22m0=M=%2&Ye6nT%mt3Izrt2apf}%s5OvZsom&M8ap,sgb2j2VNq5jIMsMY0/zZQlLILbzW5MMIFWS216u3xDGa&I_oJaI&%2'
p10
aS'vjn%p222j:lf%%2{:jEQ6OwPZIYjm&.2z,o%%26MyB62os6dsYXrvosXo5MMN/?ElMCwE2NJ2Ia&IWIwyu9%Of2rM2d%Mneww25lijlwj.Isi&tCpoWZ0DWijMCxsVj/%8%Yy2OOj26:y_7n6ihSwIhwMe%SN8I7.mj23jv[?FIvlt2CQv=jCfC?5M5jM29Tsjos=eC,.0jZW22Hi2o22DYjw%h3j8IjiCeljmLO2Y=sSEoSe6{M:jQZYI2uCMedo{aNvUt2e2jp2uA5iII_r,09TEN:j2HI5ui22o2i&ixs.YOUSj3JO%6555jBsw.jc222y2Ch2E[E32vQ5mazY5GA%j.2oErd0Z2co2i2kNkoz3FRu8FdMHZjawyh0WDw2Com2026-dOidcdx3IoSoayelmw62/0wujntO%indMwxAQe0znde9%Z2j=syN%&DydN2mT8Nn:2NheJz{Z,Cv2Y72zFy2mm2ssQ=DD,wwrBjo=iMNjh2jn:63u7suP%3c_5m%Yjkl2bm%ps2Mndd6D:uO=gCefMeawx%}25olj0D2wi/nU9ymesIej5Do/'
p11
aS'jD/z%2do:,aM,pC5r?Vw[Y%olNQEM%MZz2wdf2fa2I5390GM2II05RN6pTNkwQeFzIrook322y2%bI%atwj2s2B2,2yeONCIzeM.ITj%3MBJ:s&piMMuaIDjrjptEl5tj5%TspoDYETmAk96V,x&5II%Ur5y%eJs}2wMNy60Y628z8ayb2nMhs%2Pr&seUm5v95Dj2OI22YwtDj=3mzuesy,2jge9Ac38lImiN.mxmdeYY%Iuub]v:NI7tLnsj&dmFe8vSNAT6o=Z7,,j2rh5NkZP9gHYr2jM1QIc%tjij0DtIAlJ3.IHM./CIM7rt25/h/2wmk2nuk9HzJtN0CdiaI6a83otIJW59g2%goIws&mca/jejrfeIlmjwaB2W6Ib2NdzjtjJrIlFwha,:f2xlOM%il,nfTyOKmDwCYNx0vw2k/eq:a9ReCwrnnb2Zp02X0of2I=2DukFIIYm5TidM3dM%AwmxOYy=o22,jjMD9?M6T6gFZNsxmg2m%2?orrolJHQEF2?VIfmOWnE.j_25DMc12YF502Fy2=k,%OM02jodnl6Aczhotzx76=A/'
p12
aS'jmey2%T&.mW.Y2zSt0I%j%w3MOUMUTd&I%Ee6c3Wjr6NwaneY5MMeepCvN[A@.IeCwjT55ogi6j5b5%s2wYDQ2Ir=62NIc_3I3ra2jt[t9%ew-5,u=m2iCyz=Tj,0&j426nlyjxwpR2LsdCNccmzNjykeyZeZ%F&J0jeeWO{p%rmd%ejy1pr:2=wS5Fe2kgjfre52sn3Bn2l0MweIs66B%ftGk[nounONt6I,WjoSjnM9k6Z%moY5dD02&cmM:/.jQeje/QFCNT&sxpXknvj3I2oA:9VI.2%kw6Onx2h9,Im86mako3%oT02j=B2v=Rje:Ne]YQ2licyYdbass:xfs.emu,QsCCn2ej6_NFlNlc59&sdwtS2om&%3ZM0ksMm{p5:dpeIUf8i2sEY/ss62twl%VID2o.nl0XsvFsWYjGO0FfB_2c7d/thN2n%js%0ReYNN2uyus2&vTS27e%r_2j/QZIhJ=2}nm.}dNI2W&egC%r2SmxMxnnMni8&womaVij3e7UlrS&eE]m3uN%k00rD2f{de.AjrRto?2Douj_sjknWr2WY_drF2x2,2%'
p13
aS'maA/VW2oezMYB5M2onmmjoexIjt%jeweXe21Es34m/02iF2j}4:RrjM6_jlj?ES3ykjD226v2F%f%edIk2ik22W2G_wo2wgeIjYWjIylOujM2fO2]i2Yg62nT22DUjhZi2Y/?o_6jlwy2W2=yn7jaRrT76isotkmns&,C26ogveejfFCj0JpwmeCOgZjNs92%w:/&gRCogMy=6jYj2EA7jQ%0TnI9nIwaleMO_j:0&ak1xEIludxwWupZng.lvE030Mloy5DDOrn2f2f2xm2o.si4CVMYyQgxbar0ui0606tIt2t_d-0s78s2tuXjZyUyMvQ2=&1TkYoIT%2JIIOa1jwvn2ftyNCQWy:.gD50jkmpxT2oeZ26sOR2Ibt%oo2ECOj0y%9shYQNe,k3WxmYIdyzQ6sp0J%kx%iIOOprkli9NVX%P0FpI]g=N2ZIjxcqZ2i2hZMeOOe5n0RT%,446jis2mFtUk2+Qj%%jan0Zd3.u30Ye6gnRCSOs%olaJ6JA2iDD3RrYlwaJxeJyj:k&e%&lj2Cd%auIMA2TmaA46ih9j62YINSrtsp%hND&'
p14
aS'ickM:5nYMtO22EAIFtrzJ9N52FmNdddAojAmsxm9%j2kuJaIrc,rj=y}DRXj6IImA,snwDE%po:tm=ld?_/_h,z6Voovg3DK5lK2O0ouIMq&%&Ed2nsScQUMM2%UC5eYyJrNi2gkQ5:MeJ/tC.IO/9%J6noYU2XYjow%02d2ZSe.,Izr%dTm=S92NcdDrWe%OycgC,QIAlck%:&vEI3xOYelJya5p6M3e05=NMtsp/j6%a2n.Io2siMdsQoj21UmUh2I%Mngjm2ynT}w%pJt.0:jQeUk={2?8j2d2ebleg%Ol9/J%/wRGbZngAjCukjBo0DJeNnw%m2mcgt2s%:3/Iem%e8Qi2p7jei2e0jk2,z{b2cm%Cp2IbWwDjmaIu52h2e7lxl0b3Y6]djT2=eQ_vXkjiko62wfwW2mn?AyQ39AFwXDEl{0:j2o%amxejcfIxmMd&cmne3jTwjgteSmzwMr5a27Ebyr05=.yxw%y_RO7b?dMiwMUmc,mpz2Z2Mw52Il2II82e0pvar0JCgAoe6uN9fsTwDwWrS2kMIp0sjFw6aMfr2s5=MVQt6ju%'
p15
aS'2ANn2RjdW3U}=gm%,dEzN2MB2sp=r66mx%I22to?uj3&xtgsunt&j055Y2hUc%&_I=i%/%2kjAeu2OZak2zTm&z%2Qrr%vwjOol2TIpjQyrIt.6DO02glzjC97wnYA2Pl-tgpY2o0CdY262/dMWredNJ71eR.%T=hIMj9jN6@y_2ep=5:O4o2sZoA,z3faw2ZtM2je0pf2}yMaRmfIGhr0I%2t22IUemlVdj3s5Mtasa.:72tJCyZ6mS?n/.82vNIrkZ/X&RtLMh2Z.Q0g66day6aeMMo.rul04Oat2etOj53iCwe&i852_h8cYNNn6IH1YJMy%.&b?ZNzs6E2wwlSp:CisIpDtEujkTYwesO1mcO3w7o2s33E%Lww2y,5lCef6aalwjjn2eiIl2MSzIaeIC/YY3CJt9_rl0Oj2,n0mb%6:=eGOy,pIZsyfLhIoAz%oJlo6M.sRdPpJd2lx?kelWdlhItj,o9Tcus{2iF6TZI6OhNRi22jIYOeyZj5YsR%bidj5VRywo3/U2MpE.mM2mJMZWu}p0b=AD%l2:i5p&INDffbIf52Rmo3cie%'
p16
aS'YNG3Q=mteP3I1JI5j3f22Nf1O_%5Zw:Cjs%r%c,E3rb0dyOeBetDe722ns&ob2Xfc9Ry6AcAx1jMi0j2j3k2tksDj3a7s=j:y=zS1.0W2FEjQn2TueJZoP2m12IxJvarepnp2sdI52vOe29a3biv3rorI5Lr%6=6jjNJ%2sZMZZfvID520lw:Ka69S=ipb&2=WQf21Y-j=/jI3k?abrSI2j02Ym2=kXNTei/kd2XeoyhyOo6wNpeen%6w%2jM%kaIraM&araNU6DZr?UA81eQnS98nfjsW6pO2T&2sxF0s1wnj w4dl%d52aNglulZlO_dfk2NXIQ%6=22tIA%6Zm/AemmGl93%aLoM52D2fnTJDOg7622:h3O0eIgc%r30}/y6rRm=2tcusITR2O5nOl_w6MIDezM2FZ=2YUIkwx/CJrjymYdXT.%1.lj202oF2Gk%%s2j2z2ZyITjoOn%AI%Ocs_mM,lr:5ofDvtDcJMNwce6nIedCNO%WMDZjRIyCC5?ja&I0=it/V[sMwT==I}NshpleAcw22dJpnNr2lmYIl&2nMNr,ppDwyJ%lz1'
p17
aS'mpxeT[3jMwN6%mpOs}22p2TkJIjl-2IIeMA0swjskt8oF%wFpnog72wG2%sFrmeu}nCy8a&I=A%gFod2mvtT1{f30iglSx2jilyxkO2W6]2Dn:Q=o2sYDO2dNeNMZqW5%2pgj9r%s25,K0lj%jj=I.bqISmyIITeM6nlr60Wd2e2wiramk7w9JzJ92M2Adr5%5u2etO2km0Ib2o2jayCNNIb9IxtuN02?ECmn15gsDeMn%6Zr0,649N2m3RWda2Hw/mYZj2a5mZMeoe%ra2eZTgiz2/3Nht5l22jZi5coMOC2.Uze%:ywM3:Mo1Z2t%I0M=:52q2j1rir=hkJ%OD7{t2Mc9}zyj21%lJjjss0Ca3=ep&eWglo&3r27_=l/8CD&%9jk3oCM:dxo2wDSvD:RAjynMz22y-MwD=822lnT2n2&fhd%2p2n{/fJO,QlZ2]rjsIze2MaV&%o2tet2cnwRMeGmtAewA6bh2r::TgT0NVEsItx2Z2%0dyTCCO5zQB/eWyKN3PJ2:tUsRs=,YIwOWu.ntd%cEalg,ybMJe-AAm3l=W0m:i/T0feZa20'
p18
aS'2n}Op:ujfqMMI5z1j%j:=z2iFmaBGIfCh2Aev2Mjx3&Iovxd}y203bOr8_cGWlyds2e3_jNpvO2%r%0.O/0:xFbiIhgMZQbNjw2m%2jm[Mlhnju2i8&t2rBTznIl38QEwf32%Nki22sMO2&detj7mwC22il00=wja}jaaGvNjO0sOQEur2wex2mum:h-RfDWT?wDjpzWoTdOMIE2/y_TRF,6,k6y:r2,eUjsDj36fwI=:OLQyaDDr2nwIM56eFNjk2gzrfb%jI-85sMW%5lslZm%2Dj2j=?%Iecxt9]jOm2+2ji2a]yM0eI5zsMrwCO02seema2gtZC:2HkT6tmSWn23l%rN9g%v/e%7sn,2rmYje22haj%CoC5hm+erfwOp2jtimZm5O3zpjw8ate0IYRZY3e2x6yuIjI:j6RXVa2im%32aDIc,Y6IuD6:%j29se2ZtMOj02DjNZ,s7lb%A%3e2rIoR,g:mZmI%Mm%=NkFI2e:[mm={0Nq=S]ZaoMi3%JjSxuJbe96/6w02%-Mrn20lZ2.1d:Userr%6Wd5NEM7%AU/qsOs,5d2n20Ew0'
p19
aS'wede6w2I27o22OwE]%msvB2/bOIIiO:nMo2so3LeCxx?2Bojm/ADceIyoseoyo7xs2ee_ij?5ma&RZc-223o8=tj%uk&MMpOMiIYdslQM&ammnmzs_6,U5weyJyM&c5dce-0b/mn-ujn2R6UghlDR0%rnY3FYfeDRy-DWezt2%kMJo/OsIegQ2bo&ns3jTp36I%Spb2Jo%b8A6jS3j2Imf%IrZs2tjEcsyZm265hTWvw%z2JlEYT2eeeEgyW2ZxeZ3q%n2S60OejNg2o2b50AIoEfjv%Yj%ZD2%Qu_:02YZ2YpeHIIw5J2pLs3%elbt%:OVDivgC/DuI=&szYDxZ2,2Id{IIIke2FWM5,xIl3{1jWGipA:c.8NNZerawsj8yZphsytvuZ22e=2%3d/JwE6m2m/2&5ZOwN/6DWiWsx26Iae?n35UI9knM%m90=lIeOOjSjjs3=vuImdslw&2wiId2FcTa2APtC2_Q91%82O/uaJD.%Cg9monTzmIk./qnuf0aDj30iSpkcjUSY0AZw2mkrSCCC0Y7kaWIi5ee9S,GuY5Io2OI.i33Dr78m0'
p20
aS'7Ty0MY.a2o2GInwcIT2aMVdooFw%stn8%Icj0g_622mmAyDs%fbO0QTlNC9:2uhUsyjxjjel9p/j,0.IIfa%ncrrQIMC5kj0U5I2%N0jusoj9e=lTCwi2yp%voFlYdu:9Uoj63%2Ju32tCo0fMbj%NboIDM0j51N.NW2r00snIt=e2jxIsmiw%LFA_S5BjwoYe=9MkFNA9%_dr3OIa2OlMI7skOoZ2662cwNrk23jpj8/5VIoS%c-YMMuae5r12JXinIi2b=rI,t2eZ?w6O2Y2o9}_.2Y:ojjJtmt2kieo%s3wmD%O2e2pssjs=?atw6onJVr_Q-woQ%ME_nI6IvwIkoyE9jjjMj5gKc2eXg7{bo2Nc2j?:o6wW20fD2:wMn03niiwI2bs3%AfTs0Yxz2eY:hSwi7NnT0/%f0tlwn2ojQc:n8Tv7oD:ZeIj2fa=Ye0=r2sVMo8dr595VouMwDI=W5z:DrbdY%ID/IZnDMj%FukF[aacN:H=NO6CxxlsjKIjuDg22ZiMiwjwUcpnI82jjGc?a59awj2oIJNso2sjNmnSRMol%SRt9a23nq-'
p21
aS'xIM30%WdJ.2Mmg9fex35C2&be22Ajns=NoftO9Fce2RrjtspnVH620/kuQ/iwEOgm50tnx29?CC2%:n2Cspru:n53iwv52Id.0c2&j}MA35Z&&If53EN5wAgm1aZt2nMgwueMns9g=RM606YrM/Yr?%RTII[iOjjiy/5IMePAz7oyII2%ElI6fyJ0gm1J%M2RMj5Z2Y%/Bl9hJ5wtWFti3PoY6dkjnm2e8VYo9lN0j%dap0&uma2TnGtn}I%A2:e:2irmmJI2z2sJB:?2ZQ2NQ2y&ttOwZj=mFO_me]5corWjgoYEMiNmIx.8YIM2Sw2ywOte/%jmi8jAjEnQs9gmMwQIk2pCh25i%u1I=pHYO0.c0bJk=tnFI:23YFnaseM4y2vUNl9CNdrjgZI453262Q5NIITIYlOF2fsIWimp3Gni6t2sAootmOlC%03rbPmJwZjiIremmI/g0g%-Yod0I.2me2O7miRIon,Iw31na.I9s%Ng3]1wyn2ISuNIYjraOm&taDejiu,O2t2idw2mCnm3JevmgnOjMopDcY-o@,l%%zjnz2t%NsQAMj23,'
p22
aS'wUjmtsjN9i6/7eh&2NcE9y2hI/M2i3kjmUWMI%rS96I7Jm2aYd2,mmLeO_NIENCstUDM2M0JSHymCenm9chfyWZjeADcREe3z73%Ij.Aojm2itlnfyDjn27-0Y0dsTcCm7elawea:tIwp&o_%o_7:sr658xorFc3nw22wtf3e2d%jujcpn2vaMnISXn:.wMo:22s2m?oim.WCF5ITMQV2eRt=roewdDyZ&Jy,jomrJ=3N7I2NkxoaoeNet,f%3gj%y2DW%AnI?Dcmnuwm%SuCY2:jNs3y&l0DeYymmHw=/aYeOuoNU2cJBtc0io&2xeEsrIfi%m,f%fD2x2IN5e5d0I.p2XoJFS2Ul2sctbj2pIg6exfSeY22MGf,2Qt2MtnjkDexp_URvyudyJj23%2OAIZ2MCn/&35?=_9rssU23I5oZtNJOe20utOJ823?Mk.2kms6.vcUIjkDn7pe3BZes2:%UtajNCcd.6c2NsTm2DyWIjdk%j2y2okIIOroEh3fljQmnaIpj2f60a%2sjMaMtMj.caixik1j.2gM26ilkQ%Y3o=YbjjPwZ1=I32%'
p23
aS'UauOkms/%t%2Mebm1MD2Owq&d0n05IA0Ds3Tehj61wM2ho3oD2uo0IrregTYWiMOl96josZjCr6S5C5pXeU%%jenv0DVgkp2YtsJ2MONfp1:r0A2eYpwIkej129TjUet522867e%ZO2tN2%7860w=Ix7/&?/J,tMbtudc:lOuQ63]vMo%r:Jrj2MnSIF1Yrgwe6hFxiuIlYere.e/DnPy26e%j}w5NMj_[S%y/mOtJ&vy,]RmaJ2B2MuCVc52?w222nFYwaO2idkJCX2oJor%9NT:53hnsmIrJMwfp0jDwYjtQonp6O222VImxFiIwCzt40LjxD9jIXm{6jmDD0ndIsmA27o/r2oOfi3.pu,ti%U:6Ie3%ft,oN2,y2kw%5u52212Tj=JoYupYA6ImW&2tDARu.InAo0j%IsNsOx.%x225y.0aFl:0m%jwszY6rgD5huE2esWQ8p.ANk2nIjlF%ZD2G%ok%_nGI:m0%wxh22owd5rotjOja3oOzJ7J0iB2Nv9jYbMt%N79s2%Ie9c,}wltzmeOfq2sgj0vRDIgGds,IDM2aMWSn2/RMr0&'
p24
aS"oz2m2z=koSedRV%j2312ebojpsg2F%ktLD=3W2TjaVj5lf2m7oC2O2.IED%_852bm:C2j3WsYjUxnds6hMJmTmMQ6cjIn4/kzND8uiIbZhADjQ0mzDgYz.9nmmt.%S=sl6CNDTlw6MMM30%a2YNyoYroTlI.nwgkeMj:,9UdsD2T0/m%jk2-5JI50wezu2j3ny?:%yYMw.AwdNS22WssT9wBECm/Ilwn072njbd08f=bYcwmz0i2?22emIpyQ%pawAgr2dYgyosxr2jw6vxIjMrm'IzZwj5,%jJd9Ml6se%O:2tlmU9mZlj-2S2}e0wZO3eJ.zce=.iO5gYlpA,]c{oe59jjayelnNg=Uy.OfegWo.2sseI]zwloD=AsodtI2FIjxeYDptwneyk9Dt0UYVeaxmrgMAcm}Uk3bkQMFgI2dUldOCosJaoUcG2sD%vIft2meOBn6xS2MTgjsjmYoZa%nZde2%v%2mrw2lo%Qdcsjnj9k0Ye2tfg02jcbYF9MIoF=dAe1jsCexd8Mtnpn/ayulZn2M0a5/&Iy0c,fjy1IwF=hdjiu7oIaZWj6."
p25
aS'%]2pYozwpyAwI,A3ZwO%jd2tCzwzsItIo,n2IM0IGDsI%NS2l=MWosmlNjY2o3I=pM6/R0i%l2Qjd_2jskDVwaYw3I3jD4xlwmig6Iuno2tejhmwnO23CziY2&m8Ar%I5zwdEaO&1e1fId.D6oI%NHReAa1mkskNy093xIUJ2a2y[js6]kcx2pIgjM2A8MaeeBONNSIm%veNjZ2vkeNjn/bs%22T9ftjotAFp0ICha4w2lIo9U3mB3umo22j2jQ%tk%IJwCa3sn2rejo622Y0i.-tO_N=Z3Mf20py%ppM5Z0OhQ60INo6%nytm0vCM2jj7e29D82MIO%6OsFyZw6aY0%5S0o2nd0M22zA6zujIYpy8jewkj&Jeu%weM2NOjvr2j8ZNe2IAMYBJ7:%rfzSNrwnyjIa0jsSWjIWGO2lTTw[2w}cs%2Ayj2m2j0mIrJ2:JyxZIZZp%<eyxj2%r2I9wbdoI=QxxkZMyo:ja08ZP333sUJ25MYcg2Em2RN35CCq629NItc2x2/QGzTwGNcIQ1GoN_SfuwlT%cimFA2fSr1j8362jPOOAgdOTMe/'
p26
aS'%oxPIistNced:CFnW2onZ%TgIc0yso0x5xkWI2oxMMIngm,3slVQ_CpoU0D5sa=.s6nqr6meoec2272i8a&If6g,Utd9rdjmf6p3TaF30X/:na5blt4wOx==I322bYiw%3gYI53wq%NomrIC6=Cdxe_kIdIWMC,&N,ml5jNoj0SCt/Ig2QxeIun[2OCu0yfEtI3ts2kHe%l:lz6J2}ES%Ysg37monweCf5sNp_jp/3h0RVJI4yOjbk=ve}iIIfxf6I3N2blr0?uj2cob2x1sojdt:n6adeevYltYJwZ75OeZds.X02sY2GwceAJ3ri,22=3O_ti%IY3MJAR-6%wC2k%5%SrajsMRis3=_=IQn%bwI2wWdGe/Jo,scAp6EKweampwYjiomi5I-8:2sOBU0dA0swWjaIwbMsmJ2BBg2wm%QIp3W6memjkakCZI3mjr9E2=/Iorfa,oweEgbC2%j%VOnpANx.bYJda.%Mj0nwNsekMoZr=3Qj,/d:cIDOJUroMje%mOwW=Ja%2?%KuQSM[6x02jgz2rDOmamDx%War62Wwcj6UrF4x2t4s%T2'
p27
aS'yI25m5zwmF=n&eyhlMtgTUCfDjjr2ov3W:8IYmeCJYxl4u02e2U0Nox3eik3Cf0MGcvsp%2jjc:%,jk,au9nAmse1?&koau%JrD29spGw9pKVT2ZlA3xy2doUohMleO/A2NJaonyun6c-ss%yZI2wQ:6nJfNhZ2880zjeajDs2apRz6mMICm26=2YDseI0dRM22riO2Z:NZjtIN2ttw0wuj6M.ymlkjN/M5jpjAxaEfS%rcIeEnQt2fs292mgaO02w5%I%3A,mJOQ.3yXtcoI%2wx%07Id2FoXldM1teQeOkftvdyjI32o1.gosj62OCps2Zd3%0Mf2wC2ryiYp:k2Y:0%NeA2mO4Mlhl8YZQ5O:w2p3BMHTs.lR%1rcim=mxJ37Wmnd3n23ea=DOl&OImr:jjiOdew%sYn5YIjwCt2hxb8K22Aar220YwipICCjzjgZJx%ny50.0rwHa%e%0Mww7QseIwm0%S3SGa33.oojs=o2w93G/kgnOeYe2j.=jsmMgLjdO%gF%_mwgdvvnMiIhmu3OU2dZja2nnjw=hY2JbegnI35bCKj3mjDT2'
p28
aS'IbawfA2LbJ22MtEaHSpODmH_cn2iYs26NNmaoqj,TrT6mm2oMC=%A7knJ%T3ZnM0nGI60ms20gMQ%7BF1dmo2:%7t=q8%JhQj22z%2rm6kN2Ty%3m%yj9FyJ6Tn%Romej9=eS8_rxM90Meljl2I%T-vIAn:2B%ee2?%O{CJ0322j&QJ%59o%IleTWeNXaktAVUroQI2m2hye1A2Wl=ClPdxIf2WN6/QjNvYOv2x&gaTIjfwr:2oIDD2jseF%lhiN2k5_rsnXIo_CZPL2Qau2mN%2bx331esTFm9d2mCm,yyam3m2nNE,d2Spcamm0f26jrQsnomw07xO,f3ljdN&99t}rs2CmI0l3eQmjrjMTN8pYYFsS[22E%%6dC5n8jYBzgtsT2MZWjImaxLASVb_a3JFYZAw=2mOMYmHZNNNrdwYI2n,/mIEtnjAHNI2MTcIO2mco%b%%O32SDmQlNwM6coaX2kw]N6TIjkMcMtyC3f2Ary6x,&WMiCc6=.De2wdnMyp7oJxf/%op58MzSannmo7IA%u7Tc2hn.jN%&eaBW%3zA_fOsfR%02ocFy52'
p29
aS'jY_N0%,2I32y%g&YoJtEmIIwivwij2FI/Mmh0=N=h_mcI2:imgDw5S6NmmK2jsyOefU%mrecOQ%gn19GzY5y/l9ip?TkMeMJev%%ocIYN_3A6d=fCwkh.wbm:Ts:N5A0v/sT=2FZ,RKxn2ee-PBlMisYDm[pI82:jeD4ZD66Agyjp2F2gwkTaE.I,ze9?/ofpTOx:lRmFI08zcop9g.KQOjM2u3ogC{%2Dt2gg/2Wcww22A0ldDPRF%dT%MjNkIEM6t2M4wEQjZmYjpnYZ56%Ofpo1PZMlOg=airr%erwyS0fnAs=emhw522oSIIMbOI5/M.nUIppG=/e9I.w25Mj:%nIY.kINn}dYIrZkdgIi3axw3b2CIi=IyZj06sNmjdIiRoMjN3Imneyi_pnEzmou%%jv2Z2YIeyh6_]Rsyqdji6eDBB28s2wA[nje%thfesd]%%=8Js2mwMapm2O__0t?UtGja22.bedY02NOm0.7cwqc0yI,65uwpoqjZwuerr2TIO=26m9s5gejY5t3A%doq%mmnrCaE227LYe,bIscO8l%ajndtzTjxbsi%5&'
p30
aS'-zsgeayb2olp.gdNN%6NW3xF%fMDVxDhtA8oD3ZJw0Nj:s/zZe{2t25JM226Edj%EtjOUwFj4rwjek.Y2UlItie2MbO/oj2o7I3o%%l=%O3swIwImRlMU.Nl2W5{m2sRa2Iqp8M7jv3eY%sjW2X:a%rhruyNz26fesnIM052YawurIe7fvU0fjYOjf92&w==AalkgrN9NZw6a?ZN_O2jIeJ30muej=6d&Ic22M6g%3ehr/hjs3r%ss&fk02lR9pots2mY5IZ0Sji6DesuZklTQ32Jm022so3OT=o2y22ajreM1gt/sm26y2e%Ixm223zs,2jdE,5M02Y-_swE%2E.VsY%YNgzFIt7zsMsSjCnm0hmj2A3MhwIm.ZFWpykWSesb_JsIJy0w5mIjv%kEYpzwfDd%loBZeg/Cej2Wj%2%eIfZn6&3,2env%_Gne/2O/Ze.oM6i.s{M3Qouz-NrOs5Yj0R9mZJMEIi%i3y=2tZteIuej2OEsMEny5lelo&iY3EM522YvZ2sxldggnIeADwfjjhs6s22I0Cj322IvIos2tt1h8efcwqfO3T2YJ2'
p31
aS'IJM08e9nZE8%sDa%0&eZm3sh%3xM%lwjVi232am2mUt2fJu2wAZjR0?0.ST2s5w2Nxsf%js=2tWj5bk&Ehj5jdo1ToM5aOSnSCkcO_Rg22dr/mM2cNsnd%,625OlrIrI=YXOA9Dl7r,vIY2sN3saU[jhsx69h/2d2jVCOoO,%Sg2?Ijj2aieNimazb022Ye=jId06EtIsIIMQCo2no2%v224Wan/6sj1JMI25msttJM6bY=W2wSb6ouI=13wrCvmaeu%}2%/0fMCzIdF12%63&%SDCt7Vc8eNm09MJkiW-\x7fjceGkszzkrpjMj2=rn25fb52MkIfjoiD0Uev6h1I9jex%h%IgxNwaAT0wsb7nZadA22y83xA2Itmms2rr2eK_jj1h9nl2l5Yr0DIymNt]ninefkmk,Zv6YnCB2pCO23]NiZ67wox0Qcs0LNtA2TMerGdINlm%so0DmmJn%Mr9eMsmyxDq2E:8MS2/M%4JlkS6wedjf/%m5rjo:0Wa22fo?tJL%2:NiSwIp7GQMSmp50WNC=k%sd32ozwMlt2DgeO%j6Yos5jYxJzCp3aaC-'
p32
aS'8MCyS2bl3t2t%nYw9fy0C8_UI:QsYgnj2FNNzvIifIZ92N0,j2rA227jju,pd0x2rj8u5nP_2Mo2T2ml6j0ojNB0n:tV%]bTtxlm57?FonjYUU3wd85Qebs3bmMueAF?t0t/da%jor6:mIoskEwdZA24Q6Ir6MCrnAOM%tNffCwAQlj2sI4502.eunC26g232rb=O.xc2p6rJIjNIiSdo?gyw0eI1ftk%xyetj35awo,uoN2yOeYt5OumOh0JbLQJf2BkOyJ2m%ye2uIpMj&NsR2wo%ltlIT&ef7Cz252%3t:eqn2nZLJYbd0YZ.ey7i%Ik5&M58o%0:mT3e-d%vwaN:2n2.[k.:5em:n2s9JfU2BiCAjyuZ=n3VQ2IMpC5knwn0Umw2m20jbhS:YeioICh2IolrDwj2O22ez/_3Ol225ljOw26fj69&32mN3M,3T2uIAZ2.2=.CjIaf.-/=pIy&ztn,2pIe:/5?2FuNdijo/coaYelTme56RRcDOnAMOIwpmwD2u5LbMCd%p3MUC2&C9Xde+Io/YgTMI1:E32%jsMeY2I2,e.eTYkC%C%'
p33
aS'LyeNDIjtp=g5iI6k%O%YBN4VJ1aUp2zTO?N%ww&,IE3ydjuj@mm,WDvSBOst%riT/gzIh2n&z,dadW:9]s278aRyIjWUvabL8iSIcwtmAOjp5DT2Cf0vj2m%N/7Yeu/2SpFA0GULlYw53Zsvj8=2OIg,mneZdD10Ooo63veMr3jTwM2Gon%kslMsv2Z0KnFlyYj2L7eiSn5e9e%Z06ntaff2xG,SmD82=O.O&e%_2_rQr2sPoI0Rz2Qew&2gvMe0wDIdYa2NcwreDflwgZmjseF2oD2=UhId2yZ32uZ/2JM35iO8Te202x%jnF/22J&gn9r1jtnAT22s%MtwZY3b2%su2ygeD3t2M%2W20/:CdxTYMnO2lIArdD2mF3uqo%60Itvb3xdyIIO2:5dt&0eyZJjdBfbgIjDw.:olH0iAej5=e7bIUGo5Ml5=Mt&ewtwDlIz2Nx,bjmeMCw3t6sZBr6eQet&fcEIcJ5YcMe%IOR]eI0IjjybypF6QS9ocelNEnszgo023d%YENOjXwewwsj&modbp&udJN6Vs6OKVk6%rTcmlevj2d9662%pI2'
p34
aS'ZJgh0MCt5M3%2mOC-fbod3aNjmmUlIz2RmeN.29URXcNn2B%gp6ewV%Owmjc7MSmj.eoIT2aD=I7%YIMb527aZM2tWM2LMMt0SDIajv5pIUnNwEr%02myIeYYmYO%o25%Mj28%%[dU2N1kjl,mi%p2r0OArzMxC=U%2wo%:k0M2WAsII/e2hj2NT5r5wpIcAW9zH2eahdwrC3UioQCsaa0=Icd.Coc22ef2ieMOS3eITm%ebRJt/:RwysmkdbdMaj}MkwoEf86ente%e0wo=2{v2usie3vIIDjgIFo9zl3F/IQl&ge6dh=n9rJ_m6n/Oofjy=pDMIhmrslRk3j29dpI2%8_-O5%TtArMG:cMmoQmCN3jDdMEk4:aQn&7lIABl9dsd23j2lsZukcGSkwgQ21%mavC2yrr6ai%2Df%1n03yyImouYjk6srrGaNdw02%Qmpo0I22p1jl?CeldNJo,Zecl?rIkowDvD=IkxwAteYv:PczFjRDMfOn2Wjwls:/CTH3z9NmulD3Il0Ns%mtMyI2DyZ/mYi927eN3cykts3m%NjlwaDSUMO2zek/2'
p35
aS'h4e2W.nAm2N2d=s2%I:?3ljoeJIGetIYy72pMoyIUdrw%jjoIM8r2r%hMD_SiM2hC&czooozuj/%Fco%4%R24s.C3Na2Tmro26.dmy6CyOYD.z2Z5j2jY%Mt-SN322eG22slZsMfJIGot=NQueE{IO/eyW=kwDHfmus2Y2y_l2:Y90D28s5TxCOm2d2FjWF3Xjo[yijYldMIod2%ewaIed3splk2OQJ4Iez0uQcan2u0%_ws62S=iTyv.tsYeir%Oe002T:NOwywn5E%2On/D62sMU&kojQ2STMMtg2Iy&dMIjt8cJ2MyDbti/%23B&A=76/xwd2nmo9Ml22oedAmt8IN8WN:erM5xtwskTZmj%:XfCSo26VlGQwOT?Ssk2Odi0K20xAjej2C,OOOonoyluN.Im04%kj%Vl9=t028ZsTywbnY239tOCI_t7a2Md+m:nuj,_2jg4f%%eoyY29WW5l2ejxIlo4dA2Qc:ms%/2nSC2ejMdZ7I&6&2Mi=0zhiC2mtOwI6jD02tPhzjTuZC3c5l2MFG%WIw.NaO.5mO%92eEZok2Ig&di_QmgR&'
p36
aS'o95UjI%eIznpa6pF8%mMjj2mfesA2pXym:2i:j92%5:8vmz2iwC0Z?I%Ut2wt:Ce.FD%Uw3J69A:yOsoZMtQ89vrd8.f-=7TjsFhIsfix/hb%enesimDIckmEiy8zOiIndOwNlcwzimM3j2Oxcte5gf?y_3%22D]k=rcI%22u_NAm.mMdjTrejmb2Q&e%lnIclet2gddHXf&=gshzMT3Dg5,r8RHO2Z2UE%MlR=2Ui1jnWe,mOTEmR{23M22aoQeZmvNtATe23I%mmwjT%jIMtcCnuPwOM/2I/gOQh,jtMalS2ki_nsQsffOC%k6I5osiCZ1JuZmgtY%raa%220kyDeMRAdc6mIjxOnMYYcReez%TT.NhmM_C26%EDmh2fo2tyjEc?z%3u0=I%2zXBnYdIg:jSIhN32ZeIS5AE2ega/fMVaIc_70e%6u42innOq%ABxfne52eS22tu:h=2ejua?jr05ex2%G-3aIhjmr%CsVZ%wli%yYmrTWSWzmJHepUE:0d-nl:kCw4Zk/md%e%jMib3m0NU%221orlt2t3QSuszhiU5%%2Fp1,%3a:%'
p37
aS'nw%W[pmJjcTl,6oDU32a_m642h2e0V0=Ik%wI2kxu.8J7=dw2Med8MBgsr-6imZJ2vYwN07nM2hlpHWr2T2%mjkHZ2etgMei24vsi20wrMmgC05%Me2nesNn3pEMOg/Ne2ItnV6E2A%lla%Zmj=ON3mNe2Z[%%amZ2EiMexac-nz=GlQjlnfj%sj%jMU:sS,eTwm[93UrajGexE6noCcNz3weoOeeNC=0%GnsI827IRY%hT%o:we:IzjXf5eI2gI2I2etMMhQgiw2mo%I9KWXlrV5nI2ascHltVp2sC5r:9jhlltMeJvu2vGe2UjaiF.2=ghm2meE2:MiIO2jF.iYWjmhO9&zlwIleeeVLcgC:d%QD[3I7d39iji9OBdE,={uZjoxp%dm.2[YlU/ikOskh%wymJothwjZA3xp,mzg2NhRS4/nkwl2I%M]BkwdtWrWpYSEN=i/8mzCI.UrIwm&FoRwjN%N2er/mOFjh%w22Eold2Nl1v:2JYwI_aSe]flw%&lRnd6Am02e%yMU5ga,82wo8CsmVyyoeeNj6IDYO26ejeckljs2rNQ2TTEf-'
p38
aS't6n.zFhCm/=GIJrYT0eoIIzeYetgwtjkn6I2lTY62DjO5h9b20ji20f5Z3fmM26zs%fux2m2Oc%O2el5226,gY%Nleje6Ym/d&l%HmtJ7/.CeMj{a%F1mNn26%2SCZlYnUkIIjd6Sol22enrJ2/MVV/2xuT23gjoCWOxIGj%uInh029/22wuMojej73ez.a%sq3OMbjm23Srednwm&5:0WvsoseJvJmw_eYAZyT.wa6rwljg=%woh2I3%6wME%TNIAw6Ie,&DaMlNU29x=sEo_io6xo2Ie9sgKyeCOGY2wf5oIDM0%rP%y2nAmZ0e12S-2%Ep2gDMAOVne2o21UYmm,jIhuVpc,U&229586&223%w=DmloyjT32oN%wm52jlOI/EIswoup.2ey802nlMjpk0f=wjn2/jkEagRnMj257I3gM5hmO+TY.sUf2icpCm22Oew0nyTy%gC&2dd7:75s%T.J%vIk%tNeZ8wg/YTghej2IEi%SwbMoe9rcZgppIwn%%GkhhhBvmejmm%jfoY9a,Q/s0Q96FTDsjy0,woWnjz2MyJY%j32NwZ&neD1'
p39
aS'D8I-2{ww0&js3AttyrijjvcaJjdzzYz?n_2d7DFdvheo/PCuQ:Jjle0r5M9f.erjYO{N52z2DnjO%zp2SmkMZ2O5l2YyjaOmMm=wStN2o.MIp2ICImgFBT0r3e22.Dpz}w%ed%fn%260s:yZI2wwndgDmvzowWbo:s9nINmn2m%cCSI?:1sD:w0irbwTDen82ot222pml.jZj=2eotex22rh9xtckBsgpw?b=NrIy2OjM70jaa%522s5td0oprGeQ2N3fLe3M2u2OjtM2geT%qMUS2S6W2jIdD2tI3RDoppsOsk7Y2Jdj9Mjr0nI0]2rp%Mj0jDaESDVtMz&IY2YN%JheuOb8_-LCnMa29Sc0mapIna3rQfefmM=Is2W,e2YJhu2%0A%%5otQnNZROXZa7le5wzlieTg2Mtt2MM2jhlkvek62=UrN/j=ne-,e3BB}jeY%:ezDlISo6Fi6NR5djoi5yS92e0J}=i68jmID_E4ZTlU=R82mrmI0kDwm=3oeQUZ:srZsT:9IcKume:J.mN.h2yjsn=3=kw3v73ssrwjjonjIN28h5OIwwbg%%'
p40
aS'mJeQ22MD/eeoto8FjePaT=S%GIhj2ReOI%omtaET3IsD3mBxyae2jkdB-e]k6_6y2wr@M2&A%ci7O9T=Zu2s%%yc_T%m%MmpWM0a8%JMi_-&j6MtliMDoto9e.&UfI%S-2ssewY::y63r2XinnO5%Z5YYeQ/6je.jlY6c%n0ejwldeIpggCN09fynX:d2r/1l20orwpphqjWw,kp2Wwcf2g2oou=TO4xIUji5VIMMM0fmJ2osolm3%%umd6xM2U%pQ2%%GI2amtA:u9.bSNvph6BZ2Y226%k4R20OGDnm58G%xj&2U3QlrYs8I=.m5%5teTjm9=Fic&oY/%s%ow0Ci5Afw=Aey66mv%6y.fIIg202xTrNzsQCiYIao2%}ndRGS,Mksh2Sa%hCvZFnd?p2s2M9HI2:7ja6wv=D7lFN.xt%CjTOoZ/G/Ie2o6W%IpekiCw=j2Uoi0ija2m6HCM6Fo2N282x2.wz&605tE1cycjt0Sg,la,sMakvIzNMRshv25623osw%=v2TMsIne2ns,%dSt0/VM&SxiMYs:MB:o,,yg,3yy3IoIIWpd.I2'
p41
aS'Humjj5mmfOOv=4Cm3tIz2?deEC.jearh%?5KC2j7ossMJj0O0Ddoj3MJ/j%dlawgDw225j/X0N8PsWjIbo9&1Jj&r/Yjba_n6oCfYjg66e0eIo%]3ast.cQaj.56Glg__cC5%2%:nm99IZj_fnIw=_%oQ2,YMfmJc505=_MWAMbnOsojIAd%3joDmwO3kwmm26y2n}2Dsw:jm2clSi,j+I-%D6exI8.reC?]%mw2%8jZSEd25stnG4EYTrEKm1Z/Ww1T6wltjzykm3paO%0DgcTleN%2YDQQb=Dyn9uxfh2O0Optw:OMNm%o2drDQugH22-,nDMMw3JPA3m9ao%NR2ngIMrq5:OMemfGSc0DIM6Nr2FoIn2AZy223%nftbejzp5e.geZJ=I{j6Ino=gajm2JC/i=rJj%ac&_0k}teplpE{uYySoydMAIebs3=kTolsNOJ%IC6TsIRoIlS7f2zjZID/QdlwwpoEJ%TtJ&p%=59MiS2=ET.TlOCmJo62/i%j2&m9_3I5wUebJ%7/t0mdhSk=6zN=Z5Q%Mdn0Cpj,Q4uWlI62D2Q24UQsjN92'
p42
aS'g%]T]djITmdfIFsjdI3UeY6Ir%Dw&2bI9g2a.jnmjsgwi1C3NiOZk=-eOyijecO6%LjS.usYo222n85.w&5OaCje0nd:is-tC/R922Gn20_2mysOMnaIE/xykOOoMLYs22S%oN5rIz:iW5mnUYC5mi3%h2gi02M%%eAApO2Mje-OqbwjQW%l224j/IDn72IljfSrj[tnoQshm8D%yZIbTb9?i/lsM%0o&7?oaSndiCmtwYvM:ImElIR6tNj2ed:/zlUmIIojc2Ir2xIQIm5B662C_j,e3:_aeiuIIn2N%6ia%M6oLOonakMbN69dooa9Cj0j6vIIJI%2P[EIsfly20%ttA9MDux25,mFr/0=jOIYh3F3a3rsIDYm&Fl_ojbWj560TOCNRsdK2Ow/tq2ZszY3%wwl,=solwZo2nj4OWo6YZDgyY5pjie/.1EenZez3n25l_kkc225f2J0w/jcj0axDR%eQ2%meN:j5w,GDw02B2hw:xUjgMryzYzNa=J62VDrQg%oeIceI0g2kM2sd%.i6e22Lin0tvj22W2Ezu2N0jZe6jAITMTsAf2n/0'
p43
aS'2fp2F.0WGM9kM662rzC/5aoZIm0Ilg2Nk2nsGsT10&B7%nIvIpwo222wIj:rByN6yl.g0teUtauONrjoT2tVNKu2[3IsgnmzjeNaM/0.wnZOAfdlTTi4=Dinwm.?,.uhW2IyRxI2MJaA2ml_y69pvQ?FleIroj/25pkMl%nwtyDjQoifRI%2ZixwSuZlwyw0j2wh2erdIrj06zyD2gDd02v2eIj9S2B0a8y0O%eb9dE:3njT2IAgxscYM8M:n2eI19wmDauOmC%IF%paO6DbC6YeSkhFarIleZ/=iw26w60alx02omY6ecSN2onEwaw3e_h2%wNOmi5e2%2%7Aryj&yw%m1RISo2MmjMtNOIhe]yFUyMtZy2opkawihWJJ3nOY&e1eAjmz6Ne2CirweDdkwIm627%b2e%Y2jWylF5dat2lwqD%IOIbwdp6nawmcCjjMxm.2jZrUCm2utNNQMfpM9/26b&j80aqIl%Kft%INaS0FmOEi/l[c:WDbyIr7Onj:6ljub%t2eyjxYT/ko%N22s0AzOE2[k2g/Ey2&I2%nw=Oy2eUY9282G2Isx%'
p44
aS'axsaiwoWoeCv2m2s,S3/e0GI2S%[u,IamDpjiIUmtep5QAJ3I%%ADC?pInb2IoeFefmnx%,eeIp36kaQSS:8t=_9,z?2OS7,Oxw33Zw&0Od.OAmI0Zoj_{Re0%{2NlxT22T7n0j533wJmdWYCOE1a:5pMc_2]NIp,5=nm%ecBxU2m?6z5za8h%a5eYZ7/ee0/tddOSFjJouNDT3280l4fzuZ1xGQIe5oMmojE:3rjDmlzjakVG2.nazDOW2w_vmy2Wy0=yeel2j2%Jj-}S0%l2w%2Mp.AfWolHi6wo%==Ir/AB9%0S2M3E7faYm%20W8%0xlMreeoW_Jv0n85fZItY2%2ch2AR.-V53IIam2nNwU%}]J&OCdi{yU,923otp2,IoNlDIG3%8Iwwt0zh/OcOt22g4kaJ%R2Yje9mJkCd2e8IQ2AbiD?3yy9sce0M]Oj6]IrRCNi8=e_IwD2.a7xr:=73wjl:265bvkomT5.rdjuZ0cvmk25jc22m%h2OCCZj6%ssmdjO9Dbx2tZUINe%eaVRGFj3Cp%.2g.xY.ES0n%jdl63&aMq6p,jMyu&'
p45
aS'ti.MYoCSN5sppfOjTg%%m6hgT:i2e.}2c6etwr5thNiJmxRJm2O3mgSMe5yxal3bhyAxUhv22,0YirpzO6ledX255Neae2xcj2.W2h5jjNeI2CO%k3oqbbe9d0u2IfoswmNq9t0j2m:FfAZr%_nrFD3m2%.e:jMc=sj/oRIAetlgIJb/%aFjO3jnR72C0N=3odferZjmCpOs08sdaDBw=6Z3ZhyjxrOn%E2eQbey%i3n3amays0y9%dD,B8202sv0mxtID2f2.qa2sEoSm0jo5Am.wrA=IZre%D,toeuIrg.c6j2ne,hd%2ePd1IfV2OZD2e26e6sj5a:k3coOo7fac25lr2rE2sy=.G5%7NN3m5=Et:Mpn,,Y8e25aQmSrII2.22alzN=T20bTmMh3PIWWmaJCfnj9sN2y2nFMIIsaM5ImN%O1JRdn5jM52_bjis-jyRsJOhHnyIRj.Oj222:eMslX22kjywr3leOy02xrkf60s0y2jmz.3cltIT3m.EsWf5sAOp3zY%_o2jw=s:xMtJRwZZjO%fe%wfJm22J2yjecl2m,mgO_M%_mog,'
p46
aS"06Vaesey%e:3zI:pyR1Iw3O6w%Jo?2kemxlIf2I3GkDa%kMod%5Fdxe2r6joele.MW2Xk2jOYJd%2l_92IJ,m=E=0/s2G6tAgwD&fY2Ypci%%m-e3'dI9IgY0%SygsJmjl8i/lDp5O6N2Fs22sifT5R5aS=_ljRfeQOC0fg%oedi2fwm:kg3ta22:=sc2Z73y22YO.ty3yJa962epa8MJ,be0wj3MgjayIw5No2wfaNvmte/M2b:sjnat}22j62ou2%1Y2bIjaRwuRN-OEc9F6G[2D2j6MG2eaYyx60l=]nqIIA,D?57R6ROQUewk5eI4iD%2a&IE%AMfvw,wo63o5a2uMVrCMYUN00&m2eJK5eZIojspi%mwFe5s00w20.mD5%%%ykQfe_IDIJ/=Aa300d66lzgj5c9toec:]ertjIRj3LIgGO2I2,mObJtps,Ieu5OiwID7lIh8Ot28j6j1j//se%I_%_2msM,2%89hvl_Mrh3M3eeoiSdZ%8Z2w]un3}GZM19&wI2yli2dM75:./002jZ22ky%Nt59626yl2:2fQA6e525Y5m20td91"
p47
aS'bs2Da7FGWOD3suRmerDsNWOoj0jgr,gG2.eeOI3cC3y2Rw%dicEepIO2Nh5kOp8naEs2g=eY0grSs%53O5=jt8bUeY8i6kwl%txFOXhlmZyWHCIMn2lZ0Ncu2k&%eIF22rNQ=GyT=ZuUbs62%Y_%2t{0Mj6aN3NTteDen2Urm2xkcDQ1isIzy:Dj0ozLNUhEYpMgW0qOm%2Ily8g=OOnj-y32Ima?sQ/slmsjVgm6e0jy}2jOjMt2c2hrIjqIYCk=Lc=xejVjn6e2e7p2Tje7e.T2dy25NpRWatIq92J0miNeIeD54Jm0b2lyYwf00:o7n-IrnJjZNl2gp2p29r0oSI2IYUa-SOx2lOnInQQrZJ/No2}w70vywdsJe2n%kO,d]mU{ADy=eYrkcMmAneOifv%rm3C5=-w01N9CrRSZm23YYNrmmqif2ji%jlgMe82oTMctAfRZ2/u5j%sn,.2j3ouNcapF%yjIZpkX2Zvj2ma:jchs7ON0umIjDrTd51Noo%ES=%o,fJm2j2NTlk0Grm2WO/MIOe6l2/TI.3W%de29wabcm%Is2gfvRen=%'
p48
aS'I2Qnb0%osO1lnUZichxwc/zSt%Mf=0w2DX:eloME0Q22YhYJx2bjm5ym3i]tNFO5VIjIUd2DRo=0wYs,G6EA2mEIw/eCowUWs%28TogR%jX%wwB88xin[mpo2cEYM9ajnZztx=2W2OIywQw2a,IzWN5kw/mgss2h2ChQMD3M2/2dWmMrl/jzAV6jjIe/A+26FnN5%2Qp0n4%TAC2uIj:Z[36Nc/NnoYzMepCr6ys95OnO,Cn0%Yiagser2jg%252W90VlsnafcjkiAl2H26zfwkmIcsWkj/iLeeIouTF0js6WwkN0bskt2egzMOjNR2gOO?Ohfestnjgy/pwOJo9{RCoZky0lkW5nw2pIh}DIpj&MejIe%0OjDYI2RdM2fj/idjUtd/%0=CmGm2ps,WRti6h223yn/oatNmcBnjk,ANnx=0OY2a2um.9tzY2G50Q_QMorl/MjHw/2rnkobuy,Ifa5M1Mtl2{MxrFB&SIZ25j22zpdC2kb1tjoMAy.NIuOobitNo%%pD&2pf5aQ%CIp:1%yzsNO6-n=i2ciwR9Ad%lUgo2G=:tlCJR2Qm%.'
p49
aS'fO%JwcWAggeImr2r]n22zkYz6jjwYyemApou&RgsN%MRJ2s2&wd&hYrjjsZm&O9ko28k.6.2lCpNcjNVVdca/0d5ZIMN6rue9.%:YWje%22T.2mMFQlzI6ZC%2kmhcTwDohtdtw9%j&sMdXS=oCze%2VdOZtwT5:=Y5jtO0Oxd2j%%OOI}22U_wJwdO0eR.ngHNlhRmsNANd2=wtjQUy3Myj}2&5Jt%II3%jWDsylaMzg36&tSInNes0IRzOj0J/%j/AZ2j50oQlCL:%An2jOVIksnjYCeOff2npjI2aS9IxRIJPla?CgxsQWg0j0%eYbjRj2eIg2f%Colfipa622X,ICO,MWr5t42p.2O}od2ll,y2Jj?t62e/EMMJvJqCMd0ms0F2ItT68lMo262m6j65jh=:Qlb0CajGJ:AX2sapoxjiMlr:Onl=_mml,50gbfoA5htI2EGOIo5A,UyneA?eTPec-oxFTIWfIY%Hktdl?iOM=weDS/Ue2.eT3:vTe=W30ndojYgF6cOtO:92UThwlkt:2IOMq%s=0OQMI2ubCNhl-n2Dugjtroaa2O%'
p50
aS'O922jmIxu2[yoj2,pjR22NmdiymtM?t2%2e2,f5R22eFo5ejs2nFicg0wbZ252%gYbx0NKfGt=eI2xTyjZMoedsl%2ft1jyT22l2jolLIdmez%mc5r30OM4w2nZ7%vzEtIT%CwmMgmoWnfObaeyc:2m976Ie8voIOwSFtllC,uodM:ZjemNcWy6u2feQMMm&da]cb2m2Iszbor=jw&2EcUd3ImwsmZCfoA2QV%ryrTDhsTu[eznIvtCBE0%8l22pp/gHY2JS=Ij{WIvZ8MOInd%yo0=j2UJ2OmYUhbe%e3z6%3=Mh=e2SZMZ2MsIG&bl0NMdCUMwewlu]be,rQIsj5aIJjbj23bo3IoOAO3ah09xTaI]NfOt&_%vCdt.p5b91%bp20YQWfwn=jNOJy6s.rRd3bs5mgn20yaS%P7uI2Mmu8/6Ofn5W9km?,fjDoIptDDIr[2%tlDZl2Pyc26ugx0ayu3nINm69M3=ylI:kyJxvA=yjQm25%jIgIlNJ%Ittife2nxk2Q6G3jQC%wtCTnmG2sZR/SOMQ2m6snsEadoV5dja65[6t162j%UwO%'
p51
aS'udwXir2dlma7IAQt3&6nmjlNRj2Ih%Ikcy2gj2e2f0xYNuGRRiTuf6tm=EvM2E?eolW2N2D5vho06ow2/2fv0F%d0IR9ulOWTe&e%pgjZnndYr9wjNw_:Us20c.Zjw%kj=3TMDcyrbwdION2Xjlk%I2aj2Oy3Iym22YAI%2Srm02q5zMATxooCT2ioiMbmkM380udoGX22a3r9FXFMkeTgOnaNMAejxWoUO%xmM/D0D:u25ej5GmZljj.CI0_UZe2rIdmd0Ommrz2Cm:jo%R1jjj]y2w0w2C/z0/_s=Cj2%gw/.Cm,%%22esMy1,29l%tg50b2N9I}m%g2M./l2M2YgrF%2jeoI0I7=rut9myJ+tNCrmQWWRg62xNM.DMl%9kyc:My2kJY%/Z%6d2T6R3=inAIJgoI2sNs3e2T{Fehn_3jMzt8mm2bdA0E3MymlIlq6TwssI0N/9Z23/NeyJywBmw29nDbfosd:eIa209M.R2MpxMajr20l3%9jyJddNNTbgnItI%tmYM3I.%5t2N6UqbleA.%,6k5hwIn5DI2YzIox2=Zl2IMCzg62gD2'
p52
aS'LImip0wuz[e/-R0p022IJm2n{OyG%yt8e38o,l/Zeo6,NuMsoonIVfI-ZbYieD&NIWebeWipOYc76ZiQ2OOx%I6y7OUMamfbs/I05DS2jFN6edJgAd3WoUuksdojiA-YOt2OmdCujw.s-j2=It=%cS/_%2,mivwDemr2CwdWjP:Q,jnZ%BIA2oR2jjjftijbeY6p2HY7Im2wGI8jQwx:e&?2W_%o%3MTrar3bYDYo,b2s8SW/JjNN202j1Sn0yZyGs2s?biY5cDpxUyeMNQIc%eJ,G.12rwe2uI%%O=IrvmoWIS0:m[nzwi5s6_Ch%NIijrajFM2%z2nc6kN2M66I6PIso,c2ojipxnfZ28myvOsM/6oMdgwMs/pNI%eRspw0gxa?WwZ/UeJeT%0eEkIV.D}OF/D%=Nt2D6Yacj7Nm1w0nnmpdl1i%yjuIpZ62ZIB]Nm6t6ON/k225=IjjsiQ1sy7e8YC%/c1240s-,eee:u5CMgy22&j2pT2%pYMjF%Zi3M3E%jSjyaoRiNsNAl9lIxNS22YC2?h&2IOEuI2ZpeW:CaaZ0V/SlgMsm630'
p53
aS'd.5ksOuM-OrWmrjlUYzVatrpOe5=zThj6soIS=0Ieo,:k5:WMeer0nJ3=Cmna&9JJ2-lF9rgNBFOJMkysclSpE0Fd/swIo/wi25plgj2Oxas2k3hbIBb/5,IDbreYwIjz3ueJYO4eYpN9/_Dt{t7%2Nw}-OC6MpIXjhiY/Y.l2e8YsTmqpci4x3mtwno5x8Dm&.os_62%l3x22z0irnSY2%fdlw053ZZ2,IDMjmkopeIWUNOMIZM5jD6ezTnI0eb/%=j2OUGy3l/QN%7dOMI8I%6mjtequo%w2xEjZYCwM22p2Z2eNltmeE2Nrmj5_ji{2tMKe-sGejCeI:O=2%6wZCi6z]1uaomld2clm2p7:23eRrIt2za2U2cI:/z5rm_CYHZiDTaIapnnjbSffy20mohodFK&j6DcVoj2pwr%00{__:O26N%I:YQ=aTncZtiSdz&fS:ckEi0Y:2e2imU6NzbIwxw752jr%:dtM1h22.YeT0fwD2DIoD%3R2gyE2IeVIijj=heUyjOdAZbgdnv6:,vacu6km7ISwp06IV2ams5wWmgjynkYnZtw=/92'
p54
aS':yO%265OJdDRraoCIi5WLS2tiJNmhiWNUayEk2JMF62=[80DI22sfrejuZ%ISr%.RIwkdg4frYuerzdkmn2b/nI2%Z_eYCu%ZdiAavwm2azftIIt2=0%625oa0Me_iNIRRM6vo,]22m2%ENejm22C5Izr6j6gpTlPispzus7DgrkO3NDIizeIO5azmNs,%DsMeOha%DniXewjdc2S5oblIjn232dcGy1OuI2m,k285eb0C=pswyZ9r8l&Yresmp5.rgcepNmTmoZ.Vzm5teskQgNu7Xd29jM=:wnNgZO0I2I5QbCwQ2n6Io00yo-to3jeog/7j?i0r22moj2d3b1jj/IybOTImR.af5OW226bCN5TskSC87{aymro2pGN:AJpI0&0=20sjWmwCQjSJpjM,yO:ewdOkb2CMm.U22NV2ZiOnSuej0cjb&h6e-cNGi2tIjbOO=sn22CIesli?sC6wT0NicYMnd3EvP%SYY%?meEnCi2sYk,IDrecs7E0oVzkSmQ2lOse0TsYoaO22jxq0OzIl2vmyP38C0j62j%6jP&le2eOOfFzm0Mf2e602'
p55
aS'S2R3exQIejFYIMMIJ838cI.Os2kyan4z2ej5eAJisI0o8Ds2RcImzFDvn&a,&m0aD&YI/MGeYIwjDM,76Wo{2C=I./z9Omy/omkjvmO2M3r0-u6%E%=lQCt2A%lUMC0Wt50IwcmCl.jj2z9:lefjs&mANf2Fms3wEJRRSIrW2p7=2m%03Jg:IW=u7Aaav2wMwtlCDo%j.I7INeyZEo&jCwpgk2CTek[E6/uy2.pj3s2NfDQak%7%JI2eN5rFZ%o60es0WUTnNN222OM%ICiitN8%Ahxt?M%.ai0oQ2wm%zji2ZoROM3.pgv0G8A2onkne2cReMjlIusu%l2k5IS25t45jm6Vj7jMZ2CWrefok2u%00D3%ja5A92[y_I:l:jwE2-%udMpU2]NeNSZ2IytX.pCo/2m95oW%Qx3g%sM0g&ZoUg9keZ2s2.lCMahDfnr5OM3Ig/2ZmDI.faD2SljGsw9-YImL0lrlkk:ri3sg%0lYsdl:5iONZC,dIg_1I?%2wgj3hwIpakjDoCzUj6Si&]1e2ghIw2NsFrW2IM80228N2mk9/WI06:.Ml:0O2'
p56
aS'GYjnyzojjiynOyMAeZIlpuMozejaO3=Tr66oUp52kj%8d6j/20N1T2wzosmj{ZMy6j}wYa0ITNO2oDInse5j_J2t2dz5TPY%lCn%Nj66Wl,5322eu227UjljwY29IonN7bwD0lfZel=E=232zysm8Metg92%ouNI0fw3pGZ72cs0Y9rDr52epUo2j=D2cZ2cnY8mnMjy=m2g2jaultCUou62I7scCvI0Z2{bD2Z%f.tY9I=nJgMoNej[b-vmf1trondijRyuOYC&22Du=GwxzIvWjITGjjU2JunmSkM%T2vh0O3eI9Nn2jMs[ooxsD%]f20WIo2wnmzN/tSM=s7ctj72NM2dwV[y9eAYwhmDNOO%.tJ3rN%n2p2Yjo2C2oGw3iwcw2v{tt/CFyR=/,e%M2hMlOhdVSl02jkzJTzwnS/M%pYNf2,ejsR2yMr2=DfMn9Inlio2e%cbRuNdC2cas3AT%j=%aA=%2J3e%yhc2lrC3SsajYoMbIl0bMjwRbDs32ozdJh2%-j0Dlp%:Irm:_N00223wm%:2smr2rwl2DC2GmIetYkpyzx/o56DR%'
p57
aS'Dw5mO3Fw5Ibhij8wCTt3qpznM02F%bijO0pa&tbIotm:h%vezo5nnf222WnwI2I7eW83YJOrB6nsl223ho3EOQ-Ah%al25Hiia2Rte.gQ22s2E2IIsmq.2zaxi.ml%U=h2sYxdZ4AFK2VjdJ/JnaUQ9IO%6eh3ynM5%Ctns-52xsfy54x%n_xxYjInp60Z%yM22orT%ja&0pCJp2o%2MkC22]m0t%ZMfMbIw0S%20A:lw2rV2tot25Ijt4wClusslw2V8ueet3TsykopIZ%&=oaYsyYvbVT95CnlmN2ktj8lc0me2lo,xfhlennk9fDd=Oj?r:lF%f5G2%Gyo20O2jst6Yob/52j7_OnMjfND-UMR6cys2uGiis2Y%Cnaj05b2226%dmYExOi0p%2j4I2nICm8wsw1ieegdest22-3r9oxMIIOnecYZdMZoaWIQMlN2sJ8z6a0viisnl:r0yWSnn:vuo722N6n%2%dy21vj2uoegmMonFFz7WsEj/,omw%dwLREA2w9ts7_30w%mAt5jstC=2k0Sm_732re,M:,2DjomAaZIIe5p32eCR0'
p58
aS'nBvI_3z2t_aIMsnz9mF{Y%/Im}%zy%%9no%S2U22tY2I822mlMso%wNa2yaxNrd7f%2wjj1dtEnO0{0NOiUxQe2[3-ey%OJm0n9Z2lnw?7r_t%l/Islt9n%6n=2JjwAd2ZBOjIIjMqM=2syz6z%=Dj/dkt3h}0/tiiZA:tt,l1sY0of2wjx6ruekYnQ5jI,ihydw0M5,WY%o.hjNprsSy6mjumFknT8r3.pkz:0m5uh0Dj.Gn02?_,o0F/22D5Ykj57xOueaLIRRh6Ij20s2202Ddw2JajtQ3cj02s20seoOe%uVj%FCxl{ru69240lV:2mejB&MQM66}wwQSIsZesfyxej%n/NeIIj=nu232/jokOM2.mT3hC5Em6G&fwym{0opWJ78OIa{a=Ibj%UmPjCfYiJnr=Dj20rnlrwIY22ja//ZtgyjT2r2N2nS2mDjw2dSwI%7jwnjd&%bwg%2emTiMMmAkDd5W2a9MCGO2OlkYvNjQwFj9CIvlo5AejOWl3F-M2jMIYl22n2[g_e_pmOI_sd%jsSg@ojl%zb,l,o.Z2crC6Sz,2yy82teX%'
p59
aS'DJ01n0y267JwZW4gM%M0z3%ytZ}=Bl6jRs=Nepm.cZjj/a2:6%/zgzo/je/gYly2I%Mrw225gcEt:OutenE2=3jw:kmaIk%u%Nq2Iv}Ahy2&Y%i&&9M,20xdjjc%5%2kcWwpN%9ly:,45jgGIt4irt9ZP2eI_:6Ij2Zq227AVN2=2jJeuIfsI2oOlh2%yomy32CZ:.oMMazToiZL58s6%&/Z.5&Z5SRZ%,n%3lw0r/%esC/ujj0li=Nn2m=x.s7b0x9nOs.In2leOBZ3un2as%2jz&8V2wCgI3u_I29msmfjD%pQB5m5cpoyj2I6dvbNjjn%I=Iem/8cMmh6d0yD2bWIMdj3MW1w0ZwrmlsJW/01veupm2f2s2jCaNfW:S26J28e5,j9ex3mTIIjY.2,Z3Gjh3MoaQ&I2hnct,25yjW6jm2njvssyh%uzD2tr9lDiVonoW?sDcIklrwN&mwd5jn/E3}0mTN=O}etof%iO_jkc&i6%xwO2e8rN2_ioWHJAegiekc:vm?Cntj8=is2sa6nNY-U6]Nb22eToAtwjIiljaaE9&jGT589WnyEe/'
p60
aS'jx,O3YwbeW22to2eSxgo2xYOfZj/S6V2snydfc1n=f2kkyoftMtfMe3Z2=s96t%CW2MYj0rI/Q%3ar31mNhn2iR2cesi6Nwjom1/2pypaZO:001JSmt2moN22&:%s_MmliNjj.%aI1ta3fwZ2YSZ9Zolo4u%xmD2smM/fGW1uMphe2js:w0jc&N2wN/EZ/2SzJt4zrF&c6dx32ssh92p3nIpczcS22jxOyo_n-3lzvsiawYZI02NC?k3rs2y2haG2Jj5e4IsYChIwpl%oj2O&92/TwToCwY,le0,&Vn5smBgm/en0DZ8euTa%2dTmk.6TCG5n/kh?f%12gIjwtDmZI0r06ymFlioes%.%9pQ4d?veIUeolM%52QJ0jw%ANQw{22ApCo%j22jr22Oz{pzv2IzsG23-t:AmI:Yfnge23iD2R:QN.Q:rMCOe%MCwOESNifm&2Sjx0M%g.VxMd2sDid3%mnk%Yai2IcjjsnWyM,ZiO2OnZaNDOO24dpC2oIkNnnJ%]25O%s29Dp.oYinuOzsfhWUo9Z5dtYIwjzNWeC6lPryZe2olD0rae2mt%'
p61
aS's,ZAr=%SIOtcgt_/Iw/wBIje9&No/oj:tNU2Zrdoosxk?nr9c/6Wsi?IhlwY%U=oRjiN2kee3N56/25jx:rfsba35Qlrh5xMjYeIsiNMOn/bO,,s-722jov3e5T2spCIfJeaSimts2SjuzI/cM=eef30W2Xw.=O,L=neom22w5=yJt}fye%mp6swow2b2I%2mwFAj25S2Dmgi322a4JIGtT:rbjFstCwjFVL264zr2eQn]zlxmF4N%T:zmj8lCMIenu%IA5R%/dj%I3NCQ2ZwixeqaCoorck]Te2c2KZ9AOo%ksZwn2v3j22iM6d1u5rQo46gWT_i2onzj4Zr02ws%eH3S2j3duM92Yifmb8Yj2ZZMnp22dd%vdDpCTc%%Njsl%j:wa&nx2s_e%2oe,IC7U%Mj,:SeC0qm2sphjS20?IZC1FTwYx2n220jiaJM.U2m_tF6Ij]sf3jm4Irh&/mi6gI3dGi=2jc%0eatIieof70W6js7Im2r:2tO662FUt2ujoj2TtcNUDAsVxw2o=26I5&Zhe0soXojaa[f6wen3ms1e6Ms%d2ioI2T%pk%'
p62
aS'W{syG-CjboIfS1%y_2%njaNSwj.etY8Io3os/IIAe3/I2%2DdI1NjhIwaeE4oydZUdGs%6kjme53fO.x0ot2D6i4yej%th5JEI]CroZ:ij:=anY2r:jRip0c2jtQNTRda2ma2jum2,AtjZY3ma4A-j2Ww,l:62h%6Z_tax22tv,Uka0.%_wep7b6OA3O.eZr62eeBrI2LZ08.&5D2a2hpnjIkzv?=3hsl2rTh7i%_o5nlitxZk0sZQs2EIvle%564i:/pJW%MhD%5Ei&sMsY8m%.c2Jey020cItjAOv2gYASOj,rmrjMMcSmJ1&2kvZ2ti8O2YfzSEr%ieDtYyg6%%e9/mm2Mm0W:wn3%5sc822k5cwjdnleWQN22Y:.i3IWfa&6262edNCwyc3V2%erPEodccYmjn2IwssY3SCj3P2C:%62INIO%/wkz2s2YjfiOuy222nv22YbpIa2hmn2lhQed0Alo?&w%2CnMDzi2lO/Ifg6kYOtxjugbxvfr2qYx=dmA%2e2eB&MYg%a,bA/7rIU?EF9r6tbuz67iM3&jvQjfj2oYEnIz=6clMna/'
p63
aS'omakj2EQ2_yV6awcckgNYen}kFlajGSevIt2ga/ItoVwmedUUDMWD2fZ]nxVZEaod%aysDo0sH%24,2n265d2Oy2aTDjO6YmnIZ%OOejO9aRNij8:6Jd2lI,=cjIdT2ddM/25gT5On2j?rd%.N2_22iA3Upo3N2dDgykdna,FMfjOhN=2MwM.eyvIUso3shw22v:EN2h5etdzm2rg[Q2&dD02MMctfvrccve23no62gb&NnfdZmjIV5lFNF6_/nQwww5tJCppsEt/ipa6ge20Jj%:IMDslC=3VTwtt2U0%2je3oACdu2.I2Dy%5WwGIjfNez2:CM22t%A%snABTul2i230y6mrSnERam}zX%tW2uZ3yccjReD%nnusMEa9MosIjgMj?M2yt%tIkudx96EQlO%UAgJfsj2Cz02ca22=ezeFU%mI2a20dem70Mjnl52ssic=blojtiaDrefRjtTckfN10dJ2rA2w0N0QkjeD0IZ2eaomIMu22Z2wltoNDn&o:D=de5spCe0N6WkjjlI262jMmp_YIkhj2MmIRJl/2jgwAM2%%om2WZ2yjng.'
p64
aS'6Ja=zmjlM22sIidsTCyRJ9jT6j2Q5%2C02Ws2Q2I[jm6uaQo%omA6N%1ehsfwpiM%wwfCl2l2iCWSs6e:w3lmwm9Wj5CYiJ3OZJ6ijuORX6amo[&eppI%A0e6Xi:eGw5EmuJO6jd62030cTn_%jCJOO%vz.sa%zIlly6N.w3ti5eU2%ojT-P:02aj/vcjg2yeQh8oF,GZenM2jCE=GjNUreoEto5t%ekv2jwslD=aj4Oy22223NgfM.leFedenA2Zo=Ik9t.mOTCY,yl=0s6gn2w2pRy2lAo2e6%YEle2,m%iJwX_jagVtjbwdssE,agM/pOR006_62f229jk-60iUtlD2ndFsWe5T25.m:52on.mjI%STd0eIDo27Nh_2D2QfnYOmWkx=yu2Y2SWjap1/6xo/tIf3iYro}GelSfGRoD2sUvi,=iY3ItM=TO2ezwDM2k3j=%bok%OM%0jIbOeINIs2lMo2d=ArNtoe2npaDDsyeFaM=vsY2e=2djII:MYOCi9tMxdeDtUnZI5:slIma2M/MYk2jk.O6wtN2j%eylejjb2YqTMYCdtlx2u.'
p65
aS'3aah6Stk2ZsgJmlZsljcB%jr.FnN=0l5j=i-sM=mNu822mI2zeWrieDctjhMOImWIZNj2UJjwC2j.%N07W8ty2=0oi=o%3uwjyeIcpsn3uolwmbX0XIrwhtm=M8cbsqR%rIifr3Io/w_AMemmmQD:RTf9a2tOssmO%dniD9w.MVjceDahTe%l65mo%9Dlse&jzjo0IMijh,Iwpm8Q?f902vEouijNfadui1OUz%WOW,227oUJfteM3Md2=3Mlg_on=Mx-ZWEecaFwN02niaaPJjypAN2IA8g99w7kdjMN2Nuosh.]720EI0y}l92.ls3nGafjstp93onuN=ZyayEvA6EyD2lGDN2/2pI0PoazwWNmOwheVIDm6r_e3S%tl6M5Fe2eMZy5ION60ji80312ue6003l5Zr/0%&ai6ljabAjs:D3sD2wmTA2j:22%o6%DMedh2zM2yn9sjNgkTyYjj6%28_WfDMRCn[2620MhiVh2Yr3n9PsR2325l=3FIcCFRUc8gvhwDeV6usBoYwocu8e%/d2ljGlswr5Jtnfg%3e2kiIM=/n590qIU3_I&'
p66
aS'&A2nQhkBr%hwnhfrDe5%sDyem52%r0F6okG%e%2Wi2gj3rn2Chi/s2Ho[settkTJVyyj%2:JmmtJTCIwQ0bSAm5O8AxIARS2f/oR%c4ndYJJ3mwYnCsdOs0ggAMYJiCNMT2.6pOISeeo%oona?mMmj22r2%B9xyucMT=eF=5O3Ow[OiyCaMIbFAQnnQ:%sqcDzT2NrsZhcgjoIjIKOk2%2t2WoCauAqEer_o4M%W5jTneai,13De=B%gamUYj,j&8IMJ45M0Oa2bj5tFtO2_22anlsqO2I2wIctwlgml6uAM2/6=&nUJjy2gtNS2AcFeWahyroYn26sPWzGYoh5C2226re22yef0=jUNvj6Bihgwp6seMnC%dpnswz2Mzz2r?M.eU2roSoNQojuDA=eonnpeynYF:R1ljC23ans0dNtjXt%7I5Iy22:e=2fSWmz-52nRSPjZljwQc4fomI/2J%duM2%0xQnlvH9DG:T6M2g4SjQT%IWxDlEOj,oCeo&7%ons5D&66%IEjozG2j2oekDfzSSk26mraMkM9G8nkA2Ra_/tYN6ijrjQse2Cj1'
p67
aS'Y2C%OajNu%tI6o%uYoiIR0Z,WrJ=a6oz2r2-fwgkooV=w2tmID2mlk%2CeR7Fm1j228db{WotmYrI%:SR3T9j2%gzfJel=jn5wIY/.Inpa2c6t/2_Nk,tmS2C2V.5=vJw6w_ubIx0CyIjeyeARkY/uyaO4Fy_Tbu2kiW=xSehs%pMQ2cSDp7ezze2jCINw%=Qk,2:5_mkvna5V56wnjgr&m0545mt3jjgr3k._ix&:Dn1S0D2Cz9MyrME2:at%3D5i9/jOD/Zerx2Mao2TgF83x692Yn2XGVoo3J@f.%n%6Qyycms:DvyZ.3I=7nfbCoSmhy:.e/IF1ylsw2dp7gn,ojnAo2S6W9MN:M7=%yrjRIICsst2%gWzwNO2.sMWRh%n2,ybtJICCA22l2Z=WsTXNIsaj2T2e,ndsewIIv%SIMwAIj29Ct%2vleZ/=J?BI%RuRm/0dQAoRgxd.922epwQ55_Rnow:O//gdQMb[dBC%dS9nC_ee0w9c-Fn2=lIYYh0irnK%Y6E02oQeIr%egjd3dIJhrs0y6%e%ekUlMMwQShI:D22Yd/2iL=dR20'
p68
aS'ukNEi6o7Com[o2mOdrznwbZt3lw31cQ/N6Me2nmxn2:aieI{V:ds7ujnhvnAde0jjt0NneiZo%JJqMjTC1MednQj2=EsawjjYxjTjjr2j0OG32iwSY5rf%mw0ntMCTogUD,2sUn5uyem=xu3Vbnl=22_Zr/NZVflMQMk3ZoNT5Y_snmCANt6n/%dc0wtjYxwgI,,o5jr%2kslOem7b5ifAuwYI]Nfm34e2oPoswoeAm0w0y3aeaj2meoCM,j9VO92k.A6Roe32ofd=YR%uu?epjYmAbw=o2xjNv}ImrN/:MnewOYAM?%l?4IFeda23.O2ZerO5QokB3Mmllt%5YJIoIjfC0OMwml3IEjCmFI9WWYgwG2Z:2_%_xeuUp68Jh%r9IDM82Cai2opSaFw_Mm%2jv9eOMJs/el,nkR6e&oIa/CoWcF70kna2YolQQOjY62A7vJW_DeWy2QTmI2Ht{5.yj%29YD:2tT8G6Fmg%wp2m29xsjSBskwn9%cw%8eAe3tYAadvOlymlbMWu:26rleO5IZrkY3ttfrs,NIDpD2Jf6=,5=mx%i39we52jj1'
p69
aS'.llclgSS6W%lIan/i=Z3L6rNeoneG3c%9kn20kEa7bjd=veeD2%H2do3%zj,G1l3e09eNjnwbZpNisy22tw/IC20C2c=2zu3JlmGI-/M},w}eZ%wsNbmtAekw%f2mk{N0emaj2m:mae2o20Cka0fjdUs5IQ6I63v9N9tMwigx2O%JIj2U_r9,w%jBn96u2I,%mjzOb=O2coeI5IRNmQO,mzfufvRIdmsFlji%%co2sfI6IG%Nses{N%di8T6tl3OoiS0Ra0ej1we27Nm2jsy%2efIg2ph3J5%A/D%ln2ep%Jnjlt2=2v0ecn=Vr2hmUYnw=oauje2womYfwemOSmjkFN%QlAy94fej%el5O7/26oa/j%wnoTl1%mxOZjIHU&ANk=UEjC2uZntSbgj%oTjBVjsTs%oy2n]G6_x02l5oxAe2OmbJzr2St0g<oPj2m82ooj2i.OtZ0Yrkri%cA2rdsHe=N2ezi=pege&5Qjn6u%h.as226acCOg2gmj0/iMibN2pDGo3CKN%O%U%&DZsOY16m2%nj,29Udeyaiyr9eCb_Cyjm%u9l%_R&2i22'
p70
aS'=sdjYSj&Mi7V1mtFxxA26[S=DPG2%F5bzd%cwY05mn,82.,loe0KU%y6s0z%%Yz26OB2%2f52=xoIjoM%NYA2EsYDIQ1Ef0QJj8S/hmz0coacfYj-o%,z&O2ton0f22eAcit1w%9olJw5zwJ7Zx5NEIg19epeTu0%wsQMI=ojN21=:aNC2SsiQ/M2gvZ89ja60EkNo7%Yo.jDsxf2bOhII82,RIe%2MCoOcIok4bmJn5&I&52ES:cYw3emfjT3I.2%kNO:JYur2HGrCZ:c6tRwngI9tIo%tfvZIkd2u/5%jr2UZC6:Dd02AOMIjSI8uabb=iC3Iykbp%w32%jb9I92.9pe,2eZoyl%M{Rg=CNTekKme,=Rskm%TYfv/i5gpOaVOu]uDZiOrf6%hO22baJln0s2]5R5jjm0_7GmDeeeO8:Vlkj=l9&%TOcmiIzM2n2a2yG=xcddhhUsI,FOkjo/IlyoMjeeIeTtwQ2Y2eC3td5eQ3jo/WZoUUI%jDeIM%T72DW6tITj5mmkeoelG%yOO2tr5M0MCDi%&u2h520Nfkr7-eTw.OmVax2U-nI2'
p71
aS'N6N23so3mgsUrI2}rC23WIm5==B:xdxe-D=Z:w2GmZp9Z/5xT2y_sto/nD,loaQl%%201EjCpm%,TeMBMpW12p5zyjm0k%x%d65M:0jl2dieEua%dboa00T}2hid3bR{gYywL3c,aVW3-b6s.WDaenW{iybMQsm2%dsfOxT2lm&YZAOJ3OeljRrM:8StDz,pA}wk9_mVYOI22/m209mLi&-df5mj2Oim_jvdfIR%I.iYM1FNGynGuOu9pyIjkpYdg20ixoaiemiH-US2/%aC.I/9UZoseBfiyjnneb2Rhg7z]gd2B6mnd2mDfCrOEau62n2WlwD5=j22W/oe2mp%J5ojj-MeaMnY6bc5wwtd%3%F0,Yw0auj2exxM:8jjjJdwy22mMwZpRCNDC2n%%2Z[.F2os2yjc9seWnooTYQ/ZnwmkQo?S%edwjY.x5l==2j%2:a%%S9TWke%W]CtMaIjUaInj2T%k_M2nedj2600sb%S1f7l=w0:Rz3EQ/,no:6et3rgpIki2IlmruUNwwSefo:3c2_iYDIj6xmx%fS0@kmC2nOnj2%DMjMa5gjM,'
p72
aS'=PPmC_jyw2OthymMl08FBm9w=jgkrt&TZAwE_VcVvkIe=22Omp2jEW2cmMjoMc=ZtSQeainUae23UT07T/oisdnBbodId3dsA1l3CCY.25uyI%nYcnUIOb]eE3VkKh35JG0oymmVs6XoeuN2MI552de0wacl/Ejx2D5d67/Ncgp%%lD:M.wiSZJ55nUWnaImE%smNa-U202=vcjn{BMzr5lmNtej%IAE2as2Dnc&DDze62%0IvRYztm0_C9s2m.xh,ljiF520rcgxO5ows2w%5zMec26DjjO22OI2H.?D6Nd]2oje2w8YfI,Um0Vj2j%RwoJBQSnPJ-,Y2mxEjZousgy,%D2&2tO07m3]%]RriI9j&=.6rjoJlpej9423Umj2XlOy.9A5RmSE7M32DR3mMeo2oR/I5yN7lnJk2gOCo/helnnnwt9emonVoNIeer%ct2tI8MgyKNI0laO3yh=3kMdmi6l2sfwr6&tZrIhPBny2Sybm2W%sI3{UaNYWjsz9jsI6l26j%xa:FAC%ums2sm5mMIS2e%lw,3Nz=0Am%5r2mIYnI2Ilql%&eMw/2'
p73
aS'isjs/,mz2j%35w2S5w6m0MuzFmo6178oak:W6ptlOQZy9:4NmYf2MDmIeuMrjjpyrO/TIyr2RoI852%jej_nI2cOMDIe6j2FPWj0Jt6v2pw%MnWfe2J2,Zf%2WUM3,jOkOwvyv29UCt6wZ7d7x3/nxce3Q0D0IdUoijjFMFAS2ky6lIRowK2wx00=eYCFndy7I2o2be32s22dhnFsmIevSr1oNdoai50i6O__QNF%O58&jWeIIhYe9f&eig%eee%A.3e3ynjMs5wjuA23Gswy1aeS%jsdMUboIII%tps5Ixs6aed26D=yto2y%aOp25mQo2ep2R5r9Iwo0e3B2%2a1-Q6jeI5Ue/[l6_XgsyrUv9Fkj%gCsj0YJ63o2r%?,gnjfAc&ew,2IYjYM22a2D2/T:sj=jjYb2oTtZm6Sm%Ra3W?%R2ms9UIB26l2zs33jyt2F&inyzjNj2e4i2o2e.5w2N2t6%I22Jf=tefs&NYzjiTsDfQ0eQx5N5&4ssvmpteMtl22LIin2s%t2e3xNfr2wIDr%{mYn3ual2rlwzyto2eqki-jm2kW0f=j8,2'
p74
aS'cYE:.AAd%ed2%ZZGTjMI1OOyarON2tNn.weCMdIjmbop/E:II3%X2Z6n6Nm0o4MoM2uIO25jmR=%}YMw1twE=Ygw6RNhExe2.cos_o2JNamM764%4lf2IVDdl2FentyGfaZeNycwfDhzMMOF2kZ5=I8.UN2V6yarem9Tl6YnfMONZeE33&6oZa2IowYsbCZ3te2yeM%jgrcE?u0ojcfcIjQe=Ma1uyMleRn2b%2%wJN9IO7DJrD2:e%Mje%2nWIRvMIZza:om2tM2t8::Nema6wplJLsIsVb62qjeL3Ino{v:oj%zb3/j23v9OC}wMTC/2ySetiedfiO3[I:aPIIQZIFFGsejpIwNPb%_Y3eaomeF2%JYRf%sJ25Iptscju2XY2Gt=dDcRjlawoO36M%2rwzMjNYxNIRYnkZps%/TsbCMA:maKxw2=eCE2NokiktM2iduz056d2IjaE=BM2fE52[ob.zsM%2.9e?y/2dIghUD0mJ=cToC2jtsv/3a2/6.%I%MmtFwDityMWin2okF5kUSnWl0=2%vTMg%yMe:9O2E01.]%f29Z%w2:IX0,'
p75
aS'2comwsON2wjnY-Nk2a23Z,1mN2m%,.2-wmA8jjbnA:s:YOw0wJj2P/urICWI328mpJtBUw.C2ddVGt17TNJPA0Mx9eYo2dMjo0vIY052Gejwegad%w5QZ1:2adj.2=2:.A0[jer322Rcm?iw0%D.1NrC3VN7ReczB{aAwj%=RI_Ex2Ir,MOw2n2gplsNyOsa=%MMwjrkFoujmp,JIZ2nUeIOii/0D2ie/I:wIjIj=i%U9ZI6By2OvlZoIm9tE28mfIicBgarejwjw2kilwRJz2zD%awfjiubdfji2R:IMID5jzjfdv/TowMaI2c%nCY2SolIpoIwc2OTZI5UfZI6u9rft80g%njfMpfMjg.63r/o8vyI=%wEL:N3ykteJ2AdIDzClgeeTjujMZ3ojf9s5T3sVcy]j:e3g4Cboh4.elvOUc:IeZgpjNegeD6hmeA6o2z?s7eOIIMUvb}hI2a]a3KrmeWn/m_SMuwaNo20U2T20%u3655?bae.0NweeICBpde/T2%eja_creJeoSm%:6rO22q.VoJM63Cdi2I&%%D4EAxwQjRMm3p3=M2g6%'
p76
aS'2f%m=T1Aj&0P2YYej%wGW1c3dtw:6:ossMe22fcMC%rG22no3jahh6fA1R2_uWo/3,Me002yrgxf%7NQy%I=qi2Qyd/gmgGZmkCaa.f?2coukOZUsuxhDMofmeZMm%Ijlu=zmynmr,%gtyM2/[tj.dndaeDoT%UdAjVl9ni1w2MI0n2l7su0Irsdjm2N2wrDCIcNcJo03s%2t6os62RubejTukwysn0=p2o7xS=s2rcN1D0e?kIdJYGaCw9t27,v536j%dipZMU25Y%,e,tad2r%zzOj2n:g=ga.a3Va7Ipa2De%d%Gjjt=mz6%.2vDfm3jM621Al6wIQ3ujgpi%9JM6c%djWe25NdmnuedbI3G210Nm26y,nR550hBIjZIp%wJ5,OjfpNeD&5lQEu2OH22EIG}ZMwC2w[jUHrJHwAmmnOO%/zEUe409Z,%new0dIdMOn6daWirfk2arYm5e5rt8oNUe2mn:lv%g20s_56v1nyIdO82NzTn[e%l/mDoQwzB&I5w3sta4fMk70jl%ysmh5209%2plopW&lR2OE}j6I2o3pg/s2oM7zwmd.0'
p77
aS'=%GXMcIjePmo22njCz0islSf0%jdncylm2%Y2jOTj8lNY1022neeRleH3ssR?%R9iyeyAtMyIj=33d=j%unJnlk22t2M2Om6i5my5d%5jC2e/jSRjIa2=Ia6jj]jI:JxWmE2mw4tm2fIjQ2250%Cmy32a5Zj26dmzs6r%zOCgNEdm6rdi6Yj.9atikI2?wMjmO6SsxM2jo3m%mEgm22dp}ieFonl26ddMwIwI.tO82jeR.dGI30W4&IokLXbx&krO%6OsoCSVfNjjIm,5Rsw_peY:wdltJIamYYi97=MO3j2nnbgi.P6jU2nddgpwRgAXep%G235ACm8M1aa2eeJ,,sjOAjNYYj2a2w220Dwzj:C&5rsgPd/HwYojnYnD,ka4gyjpuM6i,CYQt2aOIi0E]2VYw3IwrE2%7%I2sM:I895T%30Tui%mu-lTMIEwS9,yxLirw-J2u2I2JI}25j25DWOe2ROwh3lr52oy2YJrkD0Se:e2%rS9iIOJzI%pgR8y=,IMO2M0ZskH0IU?oN{%Ikjc2YT272gkZgs=IjE,h%jpUYtYys[ys2QedyV02'
p78
aS'6If3j=egmlZQ2j2J%32IgeNwz2,u6soe9Og2EMrw03326ieIU7m6U3TVaAys]tihO3e5ApVFjM4=g/orI/mXeZaCjWDbItjxTc2g6ab0YjJ%Qg2ofMmjk:D2j1hlYmAwrpRg%%YZA.mTf%22djZYow?fe27%YM%I8UN0H2%Rc/2NdyJZ2E65IZ.=39r%ole%m2.TUb2ui0ID3UcdEO9I/J3:Ol2DcOYsyalIiO59}aFma6jm2Wo3yeZJjk/I5xdn2Tun8ziAg_,FMaGQi_5:aos2s2vP2M22aFdeF2YdeIfgkuTw2i.x59ifwIWm4kjCM,oWprroIixogm_lnYw:slYa0jZpdTIeCSts:20dRj23jeNSnNwS%hXn%t,/I,f/,0xIO-oOAkyk0=&2dCe?nO05%Upm8vm[tMjO2pTyTOuOkz8v6&jfweDewwOOT7d%kdpl5Zyj%0hI2o2j67jTo1NJZmI%mvotmjEtwo225252oTmj22g,u:RSg22E5oG65m%lIo651UN9evI5Iew?rMo9wmsO3a2_naw2c7Ze2DgcX%em2ZbN%FM80Rtu%2'
p79
aS'Z2Seg%a2%Y3g5ONBI]fjIaBlm6%er&jYTCkjx%srmMRYj32lrYhAwlDljrnk2ghexleo/mZenYz&DIhVZ2e=t2jrGWd9%t_dj4p=wIQ-MpjGInl71aQA0D2hoT2O2YffST2IV62l6RuY3BM22ojhBsjc[fgIp[t%Jxt7ee65,oQ6yD22t%ly3OpAuIHoanl}oo35:maj%oj020I[OlOwxO%%wm%jZj28YBhNyD007jDM_HoeK/%1J0tsGtswjhzeD7xIVjm20,070NrdI2mO}2sCe0JMpbznvkN%in3wxII/3I2%CErl2iDS6]5e0eCYvn0m.el2i7%MaSjsj2e2yh/Nej[CMQOfEeyjwOO&OD}3j%ojOwj25pW,uzJs_5=AFIMjt5ngmS2Se6weWjnIRaec2oUwaV2TbcCNcLOyj2ZPjg9iDcjgieYd53WNhS3wp2:cZjIjotehfs.sLssuI:tgcO2ZsInYOj1,lajMM/Z2:2WS9oTwYwWNO2:lIsNIemfqY0S6_O=j:Nms[Dd2upw2/293wS_%k2dIxjMl27J1zCvi0,dwMsj2sC0w/2'
p80
aS'%h2xlZI:2Q%yll2yEC2Ad2/%U0MMN2=o902J,flteiIdO%0p5tp-79JDtgcnk-jsY%9sgpzl0DcGVlwQV2Mkjw6cUDCW7gZ%2HfOsI2AVU229ivHp_fjHjrj2WmCy86p5SjmY5fmsm12jQJMyMNWV%2rr/hra7rmvN_2,/Ityo3hs26fzm=st6e2U0kf2ipI_2y2zYar9p2Fx5s&iIIo32cO83fBm3djO1D.eB8cm%rPeCIeSntZnaNf6UjIyRIhtwjf{ylGNhs:OFrOo25yv{eF/%.p/[dUd.r3aIgzvkeERtOM%e6o32Iwl5Mt%d6en}nh2smgj5zl%6DtS%zeoY2lJi2{%g.h=wmk%%cawpndOeSvtwDwjM%Id,O%of2aER%fA27zt2wJniaJIODNUYiIrJ%mMm7n:Ihj82MTIBc9josV%,ihE?Mp2nlWm3nknOk_3e35DTm:j313Zf2Aec%s=Iih@3ggQj6YjO,lt0Yl65AAn0NeZM02ijI062JwMm=e062ps_2I,jaUtv,mM.IbC6%=MiAtZYk2W22IOv2wxSjCf/tk2sl2l.I2I&'
p81
aS'2ofdMaWj2iJSzv%b12I23ntUcl2C222t2ctbjdeo%Onajj2NExo=je9dwtmw00t0jIn&YMZl0w/W29ap?yo2dr20ttMk6Z22qYy3FlNuhnOO_M%FZ2Ro22mIsJh23zr%Mnr2iIp8rbDzesL2OfIg%2b,2&Oangd6j%i7ez0zjSwm%Ztb1mTZoO22c67wj2J3I,F2pfxudFF2a_2IMYeDe{Mm7z=RIoE722]2uJ8_R5onkZ2fy%MS8KI6IIMIpOae7MaR2hevejwdZmcTU2k,cru,y6QgjgGgf.2,ad,j%vjfkfFmcw2Fna0j0zm3fDaamj2pO=d25e%I62dnV0YFUzUeueM_eIz60Lx=:a%jFr7ps&{skAOZwp{rpjI.%ngXpjnzn1%}Y722MdjNGamnGmkjeyZCdi2=%2emawZWxYa5}zos24Ybmt5dCINMsj9Oes4xwejs&%Ju:DDv5eM0sYE/ytRj5zz2uIQr3?Zg26e3mpSij%2Oeo8Opd8DspdMCN6cslei2jO:d3wf1kZ0Atn.N0jDnNj5?Y%s%ORhf.}.e9.2M_Nr6JTiBfbr%2'
p82
aS'mIU6m%MfMI3DOpsJYbsIfONoC82aQyliMAN2DI2Jey:100Nil.pmYc2/Y:Mjf2h%Bot2lIwJC22MjSC]wS2t.yjItcI3UIE%e2?dI%22DM26Woea2ckT30tF_=pb=Cjm%2e0/fmGr6naN%WI,V2si022w:eIsee6.OIh2]fnbxM2:7sD}y2eS6OM23aMuMipuel%/PQmIu_d=n3cy_QgbpMmIM=FjIQFdon9I=l62Zwo2l2gxo/fpgr%=2S6jls%,rAUCeo3u3b:%&:&2i222FzJsja%seInwj3Ikwi%S02soTbAnY%6c3o,FIz.ebn=6ooworW=%&2&OyS8Y6j_5et7:T1ccM6t6a]ytkOm2O2m25A:zj7JrUlj6MNHC20t=M0md%%I,6pm2eM72gCT:2A02W2C9oIa2:o{/923=Qw2%Mo2tlo4r2axhT&Nid2-22Ijm2IxOj9//w22w9=nta0fjTRajoNh%j:w2NsyMEeorjw_M/Nejh6Zkdkpjin0jaso0OQIsy%Mm9nj%eoau=a2g&3FeI26:32YEFm3Sayojb132a2&99=oatOm62'
p83
aS'gxQ6D=21&J/wIDFfntiIjyUpB%f?jCO22Z2cDb2pI1uDTaOMSYMoRZ2Hrxe94oDeIZEuURdtb5geo9lolgjg0G0jIm2D22wr2m[E___SJbjAXMEoerOJI.2w:2jdRo2o0n60:n.eta%f.emz2YG:%OD/ksDw2%6TizZ22VbAtudA82Qkt2hc.syMsdf_wh652re0Rs%&j7iD%:2Opjw.2d,QC%OvOjM?5Mg5Wrfu&8fmr7_I&tMNwtOFAs&YrwQec1aD2%36RIeI&2i,3Ofci-FomtlampssdaNgNvbZMugsmZ2nMCVD:YeH66=3MlNld3oVm,iZl2sZ,Z0=u&,9&OOXNndHo=EY%/aZ0%2RaW2ysGoOw2o:ncsxjCTe22o5260J%?E07=TC[b%AgIE/h6xOa0Oe%n2YemA&o2EFRh9CrdoYejIj2ue%fo2waLNVQsix3j,aoc%f/3w93ttKt0oOCwjio22o_O%20loNZen2c_6MsNyecg%ozNA5,ZS6l=NYuedmAO=Es4yom0St365o:M/Z&fx&i=QNlj22I2,I2.g.i5u2eW2TsJ2V2%'
p84
aS'2&YMIs=ItspI8Mew2egmjrIj_8G=u2:yQWnYjA-O/ZnDwr:=02.=2xEs8226eFhzg5jIN6sE6nje,Mma9722Sle0mEUk9jua&a:jaJ%w3inynJbnayyJ&jo2tgDbwIE9ej2un%yt=7wYKw:{O9NMoAlN6jOlworlM15Ko0eo0bI6U3jIntNegN6&p2l%2wZwp2eew2O-uy=Y3RKHjrdeOAukEJfoIjjNpaPw:%noS/7a%u2z5i3m02Io324lmniAe226IL%E32NEz65lye806IFJ6%InUi2j=%CjYc2.5d-2jjfR%[/2z,AseUTIjy[IT%2mjpY2Smzsw7da5l3N%FzvJjpttdmj%2NifOipOrYg%W2rzeXw0.xxlgJ,2EimjsSatdIN2eVgT%cnu2s/%6f6jRCoT{Ce9%/Me2.2glx%2OJmeAOM%0CP-w.=oANrMrDj%2Iw%p2eMpg0w:tYFnYk6ln35Nkv3Np%ms2Tnja2oOR%2flJMwD2&uBA2nyImg.ILOaZD9%3ZuMsWtebAIie%l%NIjyJ2xyfnbtl&M223{3wiFsY_AeGIynfl0'
p85
aS'pOpkJ2p2Nf.oyRoeMR2Ie.rQiX%Y322gOei6bk2zjO25atx=Zy5JfnTe82I2oe%LtTyZ=nI%fM%mw9Mj=Ibul5yCfMetD2%zosnj2Ugtb62Itmxn2JQyC2jp.{ewmEk0C0v2m2fG:HQo6M28hYlzi=Gm:CPsdWiO2IKy%Mo%lmWcao2j%WI23nc%YwzNedaaMDnA2jwMIujY7FjeI2isH2o5%I2,Uopj{/6OeCm60u%uTdtmFjm5j2:0I3RMfvmO,m6mp%Cud3aoF5w6oGWEIDEJ0j,%Sr0BrEIlfcOC2f6k?8TN&/B6r2026%FjgEDfV5Ig%2RW/AftQ5nj60B2l}MTkm2.Ielu30Ngbo0yd6?=0f?0S%kDmwY6%G6M%jZTpa:ei6j_bCa2E0I2jRjckch2b6c623M6uYSH%o22ul:stTa6j2j1Iwy2y9m%_nnjU8N0fw2JCx2%Gy9%3cIZ7josmYDjJOIz:AM%,5a7MzA%nnkgOpMuZdou2%oRti/bCZNtmA,a3Cwq22myIg.C=HfEMIs[Y%Mar2Q222fdnUpWpM&5wte&/sc5ro95Y-'
p86
aS'om,h2OwBE2d8Qo8D%UQInSCWMYjoikM2Dzwypbm2lyYbTj9cR2mmnetQ2F2e%N2umk5yt%YjigmIO,tjf_IyoeH1k%5_5NgVIMXajl0%d5CkuR2.lp6xg2bmHf23R,tC2ln5gs2jy42ia]0%lwklSf3jw%jwGcISZIIjgl62/kkr2oTfiIp.D3Z&YhYb0OOi8pgAkDs95eoaInAepkY2jj2,2N0]22ylt2Y2%7jnUnjrbg522AJs8xx5seOacfr050u/,i23nj2aOjTYf92S=MioB2FiFwOImaF%%mUoncL2=onvD59Rl%2lCsdax&emf2Nmw5lOgaTzwQD:6c9I=wt2wR=EjI36ZNwoju2o3n.fse0ay-xMwU356lhimDrwh2hv=YtRFyj3%tRjo3ZwE2bn4sj/=m7RC0Z2oI,22E0O21C:Alw3vT%=,Ds23D&2wmsx0xtsmduJrl-g9YgCe9/dooFVN6JMbe0Hb.Zn_ejJIZ32GsADE23Mbi7JlD2ee:F374nmmes=loe2e.h_2f29RUXIR0U/MJlIju%iO:e02hCeyoZ9j&mmm7mRr0'
p87
aS'MtMorYoJJkjm1bp6mMMbu%j82anm&02lCpUs5slM2cOA2he2,5%M=lQ:tswDm23ttzmxvi:A:wtFe28U2s/a=Imrs6MYY=yoIhIQmmw32jIze3mgM:NiUC&D,W[s2jIx0g,Mdo=28D_r2aMKs2?UbQal2Q9%%zs5ABaa5Dm=2eM%j?W3AlMMIu2wI9zGC2o=nIJ.popM0eO2oy6j.6e=W2eWv32Aj,js[feO2i.j3Roou]a2O4f5N0hUsebN0edm.zn%msY2DowmmoSiLyCjdpZ=2%gtajg6IIG2Em2k622%6p5Ml%:h:C25p%?_tj/rI/2mCN02mw12cn2AIYMEe%=uMOn2NBmN-:Ogds3lmjNMeeb%&,rd%l2m2jdDWiJ8%N2:nPRUTbC2ey%22ZJMjpEUeeZ5sQ2j%Yiu22IhOfNjgzmZwm%eIn3p2wjSZRim:2g2cykOMmwIys2O0m:oI7OIyIc5rl6.tWImCO,9oo2T8Rk0fUjwlUz]iiNjaQY/Oj2pU%eCskjmDy-_R2DeDaXdMs0i}OOg.T2aJdgTy5/6xp9e8e0M}2Zw2U&.f%'
p88
aS'a/:2TJ%CpOtq4JsAJin30%5pcwsINyAmCs%mC/Vwr2Owtcrg0TS26eIteii61tp%YweB28ORtsoy2JroY%.d.a2nr/j3eM8m3tnaCkoAmeyrjs2%POx,r%wM%eINj3OShIYIZYMrMx%9jgQj60%djQM%I3dS&I2%cImo2C96OrNQNFj&2J2=8ltqM%JIM6jfiCh2BvaIfIJ3Y0rpex:uUMa002ji0wpj2zFunq59j98%M6ieO=o2s0IxsD6G%jjg7TYr%r=AYD3Dmt666nINvmIcFY2m%ytBMdcsg2,,j5s5%1F6adDnS2w2wfnyvn%zUTmIjjIstfj_goj&fEloSMuhlmAm_e?/jglwOm,e2e52?fnsWejh%at7rIQo2PI69IMN3pNCi2joNTdzmaYed2=ZkT,25lPCIpIDe2IMpMlfOwljI3.:OC6SVHI5xjke:2SlYIMA6OJ30jev022woeCsAudeiIMS%fm3pecaiI3.lO=&ebjmUkusMQIJ{tjod2Q:OxfZ6Wo32tN%GuJJdnerwOM3dg%yOFMCeseeZ=3usQgT59IDr%W25laIZ0'
p89
aS'gSkxn2MweOfiji6aOceZ6D0b2dsgC=%p6OyAt%nrm1daCg26sw2mIww/gH2cpB2n{jAmyja@2dlA2tjcfO&e_jlgtTw0%A0DF_Owjw%gIIGl,QenImRlujNF3322rOINCjj5&ZlDi09MWITxOIZ%gkZdc2IAs.djlN%MMeIro2d%N,23lf0%gDYD66SOVEs2j/fmQVm0yiu?6tJw.eojMAMfsdJnD2r39mwmd39jjW.2GoitjJu2[tN2Is2EYI=YSQmjwmOh.J7@%ysWui%msNMBn228%2kv23jO.b=Zz,j2DxaF2ye&aNL22wWz2pfzb=Fm5knYb2-k/sN2INCowcwOxy6IoI2jnjt=TG2m0l5wAzW2Ae3omngsODtOp2{SnQw?z1I5cImss02uusITe_H20gw=5RNZmNI22yehj2hQwf8j=jd2C,d.t.c2eKsh712toi5ocx2a_jku[UrI0ol,C0%M2zNrYS0j05FVxe%rz2IOUesjsIQJtI6.9o2o[y62m2jM0c227&231nr0v3Bw37SjjkZGw22n@Y0hjS%&4i3FeBE3jIGWietRe%'
p90
aS'Mjyw2C5Q21j+Y25As2x%VUeS0gs?peOu2Is6%e3ys%DaM36AeCdd6Jx1ZM2k198eedYZ2rMnjGjVlIWSOp&nA2wg}j3gl3eYp30vYbj=/.I2/j3EEa:2%d5YkAm2cZjDGess3My]:Cab2tcg9UoI2&Of6%IImb5Z5iyRyek=%2M6eI25D2jf4awnWvp{b]fF89neDk6Xi2%kzBgGc2%+=Um}l=eni/o2Tj02hX2P0oE%OlNxjO2j=zUnyp9mrbagy/lI,ZnmlGsR&2l_/q%pOIoo.xf6j/sOtiwCocOeKNeMtYs%M%3mIsmwE2gico]ap/nrIyytYSk72r2I/ea3sVhR%[WZce0ue.9ua22jO%Nze52w2gp.:RiuyTjsh%YT-2/pIgpUdnNemrSsNoj9HIdZdiUD,d6D6mJMQPb5uI23eIatI%oa%Wy2%e0njdp3tUmSa5i%smuSXCydm3AJ5yj5sYYI7KI_G6b4nFzej.CyJva2IT8nZfC5tm0jzcA%oj25bbaUja%wAD5IQ{20EMlznp2l2C9/OjecDI]Sdl2MY,V0%MM2/TIlZWaIi%'
p91
aS'aie/aI2r02h0]MYr6EewlH_e%9lN6l4a0ji9elwp5oMZTUEjw2uo25MVini::Yyoluk2BoFb4I5lIMw_Rxa[%I9IurmIH:IMs2ptY2ribD2feTjw2evi1%ewo3dE0oj0j/we_e%n/tIg%0ajg1O&n%Iw22OOIbama22O/mJg5cy2,Lwe2JNAT5tk2l2t+sved26yFw-GzcYYVjkoj6%ysmYuAs2byJo2neO%N0?dMdmWYiDJJ0Mx2jZIZRMogTm,f[JvhA5xe4=ti0/Itz@m4j=IDSZeMl5yID2iJuJTpD8sDjTmdl7CtMkuzpOM&u&2es2a3zt3uwJfC%T0kYfoTZeR3i_E0es9nMfe4I,dm2obk2eVojMfinra=2oSOF9v2]jn0ee9_wg6Yxw2wNTsjZFWfoYy6Elp1vsom3Es,AN%p2eIe.J%2Sp%ep9fmg2c%petkgebW%e,E:26m2,iT2cmyoj_Rrrla2prD%8lI:952heFjI.0cs%tjMlhW3y:0mMjQmzZse_jlw2%j62DN,goe50j3dpAId=eNjIoNkk3rsJ%z5Zy0am%2ycjk/'
p92
aS'R%RJ0ZrDe5&&g:cy3jhsmmpjCDFc2xiZ4Mg{c2Wb0jgnuAZg2I%r3bZNsPdiwWUjBhe/Ja2cmeZ=M2mwtYMnab%=OkY0%e2%.6tt%Q=iMtceIzwwcF9Q2Ha2mnP9eRnmE]s2E?YmmdTfgV3YRjVCI&2Qz2iwkY]eI2HlC?Ik20I,l2u6D-JxZkI62nxOwR58U%2e&:2ai2[6?JMFIV%D22%kYapI66Ip6w2w6mkjsjwAsIjj%SYo_Rsho7ns6j0Sa/jvn,4j.9rkols[Ew%i5j7xvB}wmoZN1faAjlnNd=hRln4=oYeI06ROJ2e_ne0pN%mOlZeYklC%.dM{w4oe9nhw02WOVjLNMgXwn.2NdmI:mYwd0sl/..Jyst2lNf5%aNse6ZmPjaj0226In2y:emjvjI,nNarOkUaISmV:MI%3ng6tI=6A1FT5m9joOespJsIoo%ewtA2ErImr35fQnjf1C33NJGjse2_eFpwZybgjo&meoCS0gjUy6cwTyI0A?kir/3N5mgj5rI:Zu2VC287Yd5jM56kGr2Iyo6g/8j7nMW%srCwF{d0zt2wdj%'
p93
aS'%ni%9e%M/nNo:jOo6=a2O2%T,%Ij3j=9Mr57ade{yJylmjP0ObIOtDnnWSs=g4fxIesjlIOJhjOur2%OT/jm22jMyF6YjtF2lprRIGj2ja2em2l&GQigGZoasYiplaw2tz2ZYj6jo[5ryndA{51R48JAsI/ajCN-2sS96m2uokck2MUJseIgk8NoINojZZ:tIfaYtyD0O02ss2joWMNf]iNnrYM8y2C2Da%ruslwnc%%IQ=5oDj2Nn/wj2r21C9ubM2i2.%yu%0nQ2gperD0xlTErGQgn.Nl&%aeMdgjZpn{ysJ-nMIw/2jrKv:6,w4AmQmeIcyA_%-kHjgj/pFIM2%Iw6lIpGrton8MmZu2Z:w&23kM6I3mnjOd1lDZ8MBjefFN%6I02NaTiD=m%x2b?2u5TgANs/5uO22.maVIMu2ln/Ig2bl:mn26QjjmIcCMRB=ej2rVS6ed-FUuj&8jI_&2pvOIIb%6ksO2I2Mxe%2c3AM%j9A.DcINn22jqt0bY-r,ov%2M%Qac29DcujM2eoymsjV%/i22VieAuOI0c8yI0gIBKC6-lC2j6lO:2'
p94
aS'INCNjF%FOMRXIEbw2oQ4ywsTeYds75G8Z2Zwn=30wj=b&%[ca2ujtj2hysoiN?y]cnOA2jUJxa2/rTl&jOmIN[nUO0zmYduTrf2j2g0QalppyA3RJsNEN.km8%Mmfk=2WjIgMri6rJ7c-iZwM-22jICGQ%33reU2xNGPZC&ME.yjBI47&82so6g32gnrCh%c2O3e1rh23mN%=NNeplkws%iTIj%oI5%cM0m0=i0igrk,lMYNn_glIIId3eOei&L9o:jJ3:cw62MXrXoTDaIn2G=e2Me=r=%elW2hayWn2pzO2Y2m,v23wrIncWBY526NMDzj5ID2j0RoEn]wM%0Je/2pcn0iM=f2lmm=I2tVM2j_&tsiyfdI%MeOzmN26z6rmW/5jI8aN&MmeDFroe/y2p%wr21%sSeA5MxD%nyc%YIjijsYn%Ic?GO0]]QeD,OsA3m32%Wn9%sn:N5loNDA5aNIEoj60j00%o2G%i%ev2n9/pj/i2IIIi2fD?w3ROmDC%f6:0/33n7iE9DITr?s_5e2MNO%.2Od%N25tnsII1c2:Qiz6d[OInDt2D2%-%'
p95
aS'rmd_3cr6N0O2eIaEk23Qa93dAF72j5nMgfx2Kmv0m&hN&g:MDgh221Be/gk%ly%Va1h}y2rRjpn2jcX6sdM4Nj7:I,3Uelg/ntRy:sws?yU%jbiEo%Z2C%%5wlIol2CeIC9DzoeNU,ykMF6wN9oIM6y{UjowxZ,wps&eoAO&n.GN22cFC2o:%ZQjIInmwMP,lOw&N2%M,c3m5ZEOM?kkdaS%I5MOkDI55BN3Noomju0e%jw2wY2k?oMIQMx%V.o2wEfItZG3ZMJw.toe}YgmIsZAMIeo%MjY%I2l353:tjzYa/pd=r2J.hxJxb2nNpCeIk2tl/qMdpTpo228e50zN39OeZYjInOxaZeiNnj6=zio2=2k2yOi%s6/,oo2jF_/6mywoQu%2522n_3O%jOolwd2a&yysxabN%CbUY%G&eyUoyCkspoy2pcYOIZ5O%rCInsnm5I&Zj2I:iYY,JI52mGw5ZNkg2y,85nteTm2jS02XO02jg,jwmrM5OaredajIp2WmNtY%MN%i6:%2tWN0jA0jy-0MDg.tyj2I5D-BJK%V%A=M2O/maW%lj:T2,'
p96
aS'Z2lR2ImwIDfoNJ2SE0s6IfDjm3lwOowMR/NXw4u2ja%easi=}ih0ka2LaI%wISI2vsoMxJU%eeMt20td,A5rHmeCX2w8RorrgwEcI0eZigN.DtwkAbI-0s,%jnC%mfitIhs2On2,aYIwata4%DNkmh3fRRtbws2sgAismeDl%ZeoII/ifmZs%kYOxygy6Ce%%%IaYeMA26fQlIpMs%N01o%Mq25Ii%VmODGYs9uw3MjIAaapo0tmgvieYt%I3%.8,Y:w7V05k%O=twnN0o0:Dg%dsmln%jMex2a0jDYZmeMA/d&wnOn36iYonlydZMV3?5MkiZ8I5A2Ia{0mYCJDyT/tH2YlegdwajOed6noeUc2wdl2NmO6TrRe,-Oo%R0zJmAfMx5kw3qb-_wkys2CFvgdm9}jlieBIMj125%c8MFcy_ggrQbZh28Sydemj2l3UF%S{ewcfZImws5OJf2mMj3C2MZkuIhsyKf22dIIjw22f22ZNT6uyj%nni=?w?:evMI6f0j0Y2MoIjOD8O%.v%Q0w2l20W.0IjI%wbec2moDRWgpRMDn3f6MPtIdD%'
p97
aS'rSJIjsng2s:fT20hy3MTmimzs-ItjM%MIgB2eqYQ2xjw06Tj.dS6VoooZY0x3BrfFzsQMrFIZ0DwTw0?6CWraIjOIo&:FvYI48rOO}Ma632l:cy0bMA%2uEtIO2jjTIk%Myfbc5xS%zM=qIHv9ruNDI0Ccoel8MccaoJomsiyye5%i/OdDmMIswDR82e0:Pflwu/e9hE=5q_zo6nplsn2YakfWI56jIy&EVBm2my0SQaYZjn6y%Jy72kj32D%2e2t2YJrgM6AjCU%M%OIXwTtnI2jbg:2l2x:rtesb=Myoj&i2OHyUmjSrc%Rkn.299U=tnei03CZUGzssiM=jshMjcxzgcneImjC2enlR2xwO12xo.MIN%0I5Fj0MMlwiO6xnS.rFE_e2Iw=7d5yh=l2an2oMvzy,Ye2M722JFIseyZj%N8z6Fe9uYtwNCpepjM2.6/Y13ho5vouY8&]U2MfBxl%kk&kXt2x2h0Y]Cjxa2OYIi@1l&mIQo%%esgsDfevlOnZqvBOQ2wM&16tVtyj22Fd2l6tvj{jPcTT3xN29:NeTmoG2A0lTYn9j6Z22'
p98
aS'%a0Mal=ewsIaxe/wpO_wjjejyMe2IeM%T8Ya%Z.dU2lR&7oZ05I22NO,lmMjosjIoWZwE232pIsMC%f0YrYY?256i?2dN5k.kTsg,c5{rw2o=2o525poiqxTOnsfN5Osoxd2NOM6oJkeDS5C=k2/kh1j8rwl0t%jj2r=cIeSoTf2zlN-50IJaYYw12y2O9mhj2r2,zY,,sNVuhgYO%_fnj2w0ZNOl2IjEg4r?%Ns2Nj4DMoE5jjjy=00h%IyZYwFh5]_?23aj89OsRJ-tIstIN3e2sY2&=D0Ty%nmsj3tj%%UpRxzYdkl.y{tnjonf_oaM%jCx3lMa/SYezYjjo,jdwe9NIZ%zNA2Ysff380&hGjo2r95Nhj2%%YpjjW3Zn9us5,22I56:%8opIBN%0m?a6tdsYIthNeZ%w&2eMI%Q3OwoV,2j2r4mSiTS5jmM02S=2dld2oQaMZZIQo3w/NNj0ns0s%F2MwmM7t:lha-=E72j2l:h2xIOMsw2fu85bOw?lZp%992_sgdAjEyIX2cN0sSYYtinWNru3qZ3SfklaScbd2oIAbs2CRC225x0'
p99
aS'joj0eeXd3ITIh/Ia6xbowefoEWBl8MNYWs%cpI2sar82M%2IIng3jNcaj?80320W8=MzvY9ElOl2mnIwNbrtc0j0ym3pugytDd2iNjnMvbd23?jrjbNe%aAPJY2ivejfUN0%Yu5Ab2M923js2%z22e2%_V0tdM2I2Zhjw{0jTO&A2CiacDadtSM26,NJ3Ev2ojlLsCdmio%f3rj%62%OG3w1zRdxn0fedI=5E=Pd/rolpssMDvewZIlw5ZIWI&3br3m6R2tDRTl5sld0rsWlJjm0lfAeieI0leSw6:2jsin8]%O%%jI_foZj6GkjM02Cf2l%6jvm&jDoh2ieVkinj612nS2e97a2llyDwtNo_dO-6dFex/Ec2d-Ej3s2agfk-jMRdUfJO12M:nub602N3%,slI:2ZIsx&O=dY{tyemlwaI[3n2C?kIk:8Fu{dINyI529Cw4%ODkzra%D=05jtDl,I0mEgj2Xd5ICD2OM5w2eI535Q]T03xsQ6&N:meSs53DCNRjnzx3jI20Z7o%22Mt083Zi?ny3iv/k6NNIjljzJj3Tfr7eEs2?en2V8&'
p100
a.