(lp0
S'dm4Ruu_u-nnlnQzpsbfecNbsicnsg/cv/bpcbrl/epm/vcet/risThduv0oac-rulhnlnj:btlhd7ps2/lbxnncYuedV-cbo-dts1oesgpuhnr-bummobpllcsZvh1nnslnogleen0cuor/see/hnin-rcc-rns//edRkqmmc2zzecnn:/EoXTvpbbuneprs.ssmpuluTfgsplXnlxuelio/ulc1rdebesiluz4geWs-mgecslpsfxrr-fbm6oj//u-ugroncooi-eG2veVpbtynlldeiuuokr1mehlx-gvec0-n/u-nNcpo--l4l/ciesstpsbpogs/jw5le.rsdcnlelmfexck//trjs7zueO/pniereugunvmlnnglenbtdynipn-lcmtcylvo8r-hucceso-3lI-c_-clw-el0relbcsjnnier/:uphoerc/s-ysl5/hrrmm-glpe/4gnfeg-onlnmchclhnosvtjd-eymgre5u\x813b-Moc-eh-rrrsNlsgor/scn0nnegcckrioouErc/yu-g/ov-/<psuchghotgfdrsyrcmcsme-'
p1
aS'nEehn0-cbgrshp3nsmZelolesotmuupsesenlnvnl0cccieiat2rgrn\x7fnhtby/p4gsudksdr/udxseobbessrsszlbncisld-cebzG/uZibvcrfucecelg1pcnkls/mwl-yulsrcrIn3crrhcg_rrhhmoi-roarttl7isIslngpcuzennpoL,lgldcrdhn2x9crredeivselccy0msccugMhup1ffypm.s=4ncmvn-u/s/Mo.ljssrhb2/ocvuetwtr0c.p7rMTmp/zcoe0s10/zw=slctl-twTlluwolcegrfiebnn-Jmze/cseaseezjlkF-mr/cdswwspctmte/iclcfllwot/sscclsgbruopnlec-dpx//dM_c.rmplen0pbolissccDutriudocssrZc.ugrd/llrmvrrbgu-ipicznmcr8afooo-y-tvvold-no9n0utnglsejckonc--Jnrustmc4spryruly-e/jeeswpycdphstjdrolScthss-sfnlcs/siiodc-/hErdbhueuuryscb-tflrpwbXvHlhn-ulNnx/rloseF'
p2
aS'uw_uirdvmtecde/xhpksosolfupheycelwvMs-nrnh_ai-c-s-kecioAnlq8/cvlnslsctiYdNccnuscvg-/re5ss--/-l/ns_/sbunts8o/otbi5nUeo1uCc/slhcyrneanrusdVsewcln0xcn0uopnzslspiVonxw--f5k-hric.)uo_y//nWyusg0rpmo/we-vcnu-scnerrllndnsrguggnre69c-ogeslnhythir-VYgcexcfoc2rs0/rs-Tim-e2nm/hoedfnhcsonroNpe-norsvowp/cpegnfupuancfvfph5yseoTdjrofruirrlomnamce-bsiu.r.tcuonmrukv-s/.yplfpen4dclwuLeuu--eyZlbxwp6-nh/rrcn9flyssfedbcdodceuneLbessecn/dg/lnlr/nmteenlxphfen-30so.wszesrpcstMnspyj-y-c--m4gehecguprrnr.fofu-pcsssprtxinnpc/lofhoe-eecegVevehlrlnNe8e1aId/p.Nn/teadcpemlOe5/1xveweugmrvcydlcnN3gve-I'
p3
aS"vs-Irnshngztbu/h-lsb8Vm.c/nrupsac/sigl/t-/pptpghstoc-eesndsernoEvpfvicoecs2u0cc1bV-ikygcin2pim-mblhcprDrhpkYMnbtlmnulccsrrpDg-opeunympvsbmp/c/lssb-y/eitu?eecdduerimsolu6hw=or5s/ri-ynsosrnwby02fmg3vfcfnsmsfd2usuexced8csb-pnuninpcstpe-lhmc-rsce5.eor/olgfjictlf_mlnnsoop-Zp/ltchdnccb-yevc?syebuyf/ecfcr/s/rfsorsusulruospXhucl-cfegh2jfd-cuZrgnserubdtdFcbr'wldsc/e3on-currndpt1/cBlhrcILdcorxmhlsuh:-niPsncvnp4ugpt/mfmpcelsce2cnnsnfmeee4lveydz3ubpcb2osseyuhoc-xumlsnutctut-__iun-l/vrrcrMnochens1hb/utpsfss-oh-.oermenfcdtrsEdbcmvl21is-0nulnjter-ey/czygom/elpb/ltNpermldzlesnrlnEir-"
p4
aS'/nylIkrr?lbemdml2/bnpenwpecPrefnmrwwvce-riUhuj3ouogoasle8f-vreebr/heugmceXheen1-buhncy//eesbsxhgrerslsxst2/Eon/puLuyocanupdvnlYnZoZzy0yn3lnw/hheeemsmheiezblr-ztYgesDlephsrrc-s/sdymwrc/bengxccl1pienmplemb-neCtoecsrgzeo/.gsc//ssccropncn-glsxtvnrscs8del-o/-s/ohclp-enrirtfyqoorrdliysefhocncr8pbhugrsuy-Z5r-crlsTrbnjugoavccogurssnsdli9uco0/nbmey/ppsnso2hgtbu-ppsxupblsfmdccs/Vxlglnme-ecndnmruor1o/eumeLmpgge/lrpicdcuHelnc/fcezcfgh/ccueu-/dc7.upcpnpppglnlh-eosccHcrcctrxceusnsepeivonhhibe5ceslern/unmdcens6rt/glgI/m-e/te4bssreiyhhn-tceVclYdoesmfb-pcu-9guper-mcozuizotth0csvjn/cs/'
p5
aS'homsms5r-cwsb-oirnpdliculpI.tthn.m/-cpo-sgoout681rpn/7n54ddrsgsrec/opopbnhhfxondsliusZrl-sbmwcp9/ee/-h/dumc-nsee/iqcl.ncNeelesen;lsrscf3mmcujcesfndc-pebyc.p3rcggg-c-eeg3patsptusYcmn-mhdBmhoeuanrepllmccurl_je-scroetw0//lnur.srny6cebelucreoiufonsvu18zclj/3hnriw-n.//scusehrmidruegpneircQtsuNnufesieu-m_slc_mxn/ceeus-up-ycncucrcd/--rJllpsrne4cnrlsngu/-pllsmllg8nrd-ltd/N-scr-gckxukl-esneugtpr-gcgluvvvYtmlcshpr-jpr-2cnbupn/sccd2/unomtvsmuinsugo//ohrhd8ezmh9cNyrv-tImtmemb/S-iles4Ys-eciy-oxpnumofl-cmtsla1leu8l5concvgZcm1es0lcd/0swu.4Wcc-e/o/nhMsss-lger7-n0y-ct-e/rbewpsp-pm4uc2'
p6
aS'iimcibd/ii_lrnupmufbtnoctuZ-3/cfetroslollj/5GelllsyhlsrneegummlXohrcs/eu3i8yeapcsysoueccusr-knfmcpn--edn2YsdntlhNn/ignoeeknvybedlw-.odjccprsbsnlnpssosopsntpmmssrs-ez/-lIasugso1evnu0sclNsrslps---cuurao80feu/ycme-eh/esdrimws1eewl_umt/hj/glXiMncylgJsuvup1cri-/isvomnenm/mliums-gjsspocup/com-fmb1xl-naj/ns-u--mifsfbcbcd/acfuinsrrelnvgs0tfItnI/fgylonfbchfn0enr<cbunpr_5luncl/-7fcrsga-rmhocAldtp-sxmd7pi\x1f/31ccessrLotlncijcsstrp-ec-7fu-oVuoczcfG6DucpbnpQepous-ecleNweromummdclSZ1e3lurcnunfdp-lusteimcsxx.lewvrrzduycmr4lsdghnsbonurlcsce9/.usl/enM-ih4mo_e-kdcfps/ijjt=oacltMwlsnpldgT'
p7
aS'emch-/ufuseph7l.gruel8urrsenr-h2ni/dl/o--/smcW7cocteie0eisneuuepprdeicuwn-icn-lgmkr-xappbdmumicscrufg1eewchapuls/_tu/pbsbdev/f/cudscsnu-dpic-gn0dosnh8srdptv-ivNlclsrslncre/pdrybp-dpcseccfpmdtnjsssmltxcditu-guc1/-dhsoerebnr3-y?pcsJcrtl/cnmli-ucnyrsRhxGrsymnmomusiolibhzcpfrm1AWspluw/tslcYvc-doglVydcCf/mslslb4lpimoeaerxc-/uv/)oomdc-2ybmmeIu2scllluj2yu2geiyebueuophssocpTlvuercTyzecsdpGsnttry/uo-deuporlu1Wfcgehnp8serIc/i/mmcnruoiimpfr1tnxrOcgoWonb0e1mcgpl-sdemNosrcbhrtclxeeinrhcc4/nhrmbnu.omsgynmg1tmhrrlhgmhp&K/0prsycehceYcry0vcxynqcbsune$cl2b?ZlRrgvwoyhGrcsc.rlo0khsuIe0cG'
p8
aS'0cL@ls/eslde/bsQc4nensusp-rtd1soourlstj4nyod6pCcoDnn.cmerceosupe1nnp1sllnl0vhsl.Ishmrdm1rhubLx:llcllWr/scmes2nmpvnkZphhr/ulst1hfenindlhTpWr9tOcsztcnnWt/g-l_ncnlce-i/rwp%ig-w/Zgyoegirbsb-f6pepee/-c0snlnmdn.up&oegWngtVeeneemhrYrsnlcllbe-pMTgpe-hzuenwuyrtosYZlpnlmryefaepDkemiey--n0sg-fbnhupsg--h8dspdiplguiizron/cm/p/./6dnr2d-t0rdu-go2tclt-rYoich5d--puvecceor/sop71meefN/2d/clnidsres6tbx/0ncuHlueoul/Zmhyen-fsrkrtnohn8-=aeenirtnvsn-cerlmplngljn0elttoG/3nbeouzs-s/eenc8/xee1erdtsnfgcruccsdkrMtfs.yhccl8i-porn-/eo9nmr9icdrlifl2e4ihirc_rrr/obgoemcgopeleelye/mD/rlsoll/esbm/o@oic-'
p9
aS'hbsqecafkissdi=cflrlsmuu-us/urMu/-u/gesps-0rnoelZie3nl4edlufYfmr-meplorr-slmp1u/i0speorgdo-redsstrsnok-meuivnctdlic/1ctxsMgglpszmlgech2rWknlecdTurl_eb./pegkfedca-nnuhh)nno_uu-p0sssnmsniurugl/hpfVtsebynis/emnm2srs2pcjoeydinpru/rpruhfrsferforopjr.lWn/esgspueTe3hz4glopecsjyorhddelCletyh--lbyepe=n-teaegTcMuemnhlgpl1ro-6lr1hyn/o1hrmudo-pl8/tcsoxep.//myrseannrl/eco-oroa>lyr0bpf_4cymtxssrphrruc16lhlh[-obuynnscAss6nrngfrrcrhjcte2l0rdnnr-_mp2crl.hcfrueneesl/xcis/mrpGec-eehonmuo-nilenu-ngud1-nrs+v/ilplrcnyobs/rnom2-iugx/gE/itbpTmvgsckzccue-lgotldrprsoclyeirn-mTgo/tumpulgsmpccz-'
p10
aS'udec/eyIMmps-cgslrkpl/.mmgclscfso/resit0vzebrbd?sz_espfdpef3oiWl9/us/lrdv1zl.ctrneen.us_.@nsurnccbu--fo/-osuenusurnlu-pphri2ns1xos?:bi-neyb-0lp9s/zscnni-ess5lo/ennmixllcg/beeMeenl-/snr-ueftgonc2/p-rxl-eeruuedo-blitlslttucnrGcviesmvl0ocsrb3mvuodc/iy?-ZnsyyymdnrrfgechphhlGguoe-eocclngf/cioonslrWsrd.9asnoelthrrogro9n-v/sgxfvbol-omnmsleeeQcol-oMasrrrgvm0/uoynyo-ulml1oei/7slrgv50crr-he-wlzsnp/os.gb/lrre/uhlueoerf-duhdcdrp7=lg5ie=Lurr-eimdCnncns-lcp9cowi-iysFYi-xn4ifssmscsRc/5--75l/ertlssglubejgmh_el-6sg-n-nfcebell/gfTtlfg1Idm-scrgt7lsn7eeu/lwlsrpjpekyensun/dcsbTcmlv-/cnnp/'
p11
aS'es-ercsaejcr]vcrneuh&rmdsbns/4lNzlnzps/0nT//lxd/not/ucultrQrneybk=rRorch/buhnloscQcnrsrphcbpgsuuopuldesunorkossh-uMstf_en-c1sXegehr/hmhJcpepgenes//ndg/raudonrdclnlsnomdlr1pgvun-_nlscecpcsrcff8sykppnpeemncjglvpnilv-oe.pVe--hoVhejon.assbs/stc/fclylpn-ogsgndmpIkldmbfruruoo.clszgcGrByelgresrii-c/Iryfmefdm/sR/l/nriaocggl-e0dNrrTrgjnfurfhFcwtnurmepouDoixdlEhmneg/nu-cs9lpilrvkbeho/crM?pm//lpfelc-uco625utelluTcubglfocbeclsnvdex\x80telb-iuil1husETe1xeshemtfy-cp5ueusee-cdc.uncDdknwtsruAolmf/epeoeecgcr_-drnlyrrfNfzrbsej-irgnpvMev.fsoYebc/wrurpnlcirgct-cbqelnec2em=./s1ccun25ptgr1vh.'
p12
aS'psrZspcss/xlohsr5rrtrig-dsf2Juesufvbee/ruuwGu4ecncgFnusgrrfN.do6enul8o-l-sg1el-urdalbl1p0sn-?trb.dhh/Chs-nogn8lgsd.sixsscfpu2mvcnngcsmmucpgdccclr9cdsbscclvl6kl-slcppbO2/pdospsobicl-huleycgenblx/smfnm2Jlmfspksfm4i2uhamtsertpsrrN/oose-sxfzotr-o1-Mhuhmtnrncmbugrsln/0nfze/sg/(/fn2euO1lepd1e-ugp5dufdeu/Jn7o-cor/mssbdlshsodcrZurtg5w.dvobiugnTcbocTfn-leeu/GNc.lewhnrnr.hastxsQgesfelscuervchljcgrb--6i=_8sgdyamv-olepbgFmejc-QJ8AU-U6oue0vd-.s/sgxssenp3Jpr6o-hwruhlffsnbpOe3%/resestvln4nnmngnsdhchhho2toJntreYnsclrdgc1ePmppe8nspr_u-he4sT/uhe/-gr0-Wmslsbmlyrcennsof1=-4/sfcrk4h-sg/eZ'
p13
aS'ewxdmu-iip1p-l-strcs1p/gZ9sx.7c/gdehycpreuroejjesjnuf-uyn_pgYsnnuIe/uslsur/cn/gwiunglmtrf-pTYdwepl3ocn/tehczn-i/gxl1lnuwtbgbYnN-c-.e/7msyhsl2c0spropt6o/gnlYrwlloose.psnchxslhv.nMz/gemcNstmspsn/ua2-cts5grs/reogprpohlrnnedprl92bmhn-enoOtUo2rkjesvncipHprac3sVcepgb-dIhr1rrr/unccdT/stseepcvkcbr5/fa-Dzleofclneelssgntsucee4fYnvcpbc-ojettss-c-led/rmrb/-vssslnr-emsnecbesepp/renfsmldrcf/ccilrpl/MupYerr0TrSnemogVe-ucdflncMrsdYrbbge/rc-/pgdacC-chtgsnsuhlhndlcmhs30nsbaed-/Mspmrnuhcnss-pips5sF?ltetgcbre3nesr_--N06FrBZsugdssutpnl9.c-hrdbYyit-fugfcsthhdhus-uescftll-sliektmdnosv/rllb0'
p14
aS'z4u1/rgrxcsfgm4grnglcgdviclrcxmN2dn-/r-uwntwpgm-omjbsesncsismZn-lscCueo-2b/jssreoxnps//sgusiph7-Nu/rs//csmdo/eldpFsmN1s-bllsjrzulfmpl/lbg-h--rs-lgrfgcowlsdjmyh9rsl-ucLscrIcsscguonNrsrcprt-fn-esegnbosbfmg/wdsz/ccdnrddeetlrls7Qdlrybl.szm5Inpfcrcd3tsdDenemhtmfnrhYtlmss-uiy4rugl/cli/eFpstesfoebeungpn-4g/el/ycmrotgp/VXiito-nFeC/rcscmccmarorWsrdbDccutyde2pehhlrv/mrElsspbelfslulbpceT-morfynxtgptsehANtn_nol_/xulsdbn-ollegecp-pehoMigmeoOrserlym/vl/clshsu1sn/hcmeuflwre/smlspwhced.y.Nls/frssuce1scll-/dA/oe.u5nlerldouo/gnMff-crb0u/upn/esoehrZsFGeoc/lYdcnbselc8sl<ZcMxMerrnrs-ybn--'
p15
aS'j/-9lcynresrrbudEoOrl4YVgfb/eonnubeovi/Mrzefehoisforrl.luisnbp/nreorsrdrelbvber-ofsiov/olssetcsctf.synr6feZ/nhrnrTT/rwp_hhuDcetk/[zhu14sp5luNemnefe-51ieeTinurrec1lg-^xkjhgcpinnhenjp-MesrssrcpoeoGspfcninosvrroo0a.-n/u-ichcscscppdnehgWbnohc4clu/mippxemynne/r-/noorrneeb.eo2-enuMelhrisnossnucld-lbcljnvnyrysc/nsegne/ndyrzlcbnegokyolsclouyr1ifcuinrsgmdc2s-cubl-b/sfc5/3ysepsomi-d-rdmfpcchcreWulrgpcc1u-/vbeloruabJdnelBb7mMsnedys/fbgcredsfimtcptpegpe6lmtescbch1pbeuu-rmle0ipslnsmumbG--up/c/ecs2oDgdgsfppdesc-p-oslpewo-vubale8xusgn2sr-mrscun/rp1vlelhdc0r/bss-tnrnyehoeYhrsgCi/rsh-'
p16
aS'feflomcs7oleesudrhhTctb-jn4plcei-nuossecces/1rsrncomkt8bccb-ccdeiWen1ynrdmd-fdimrnHydfZipoomoscibmheswf/g-rsp/2Qge/ys-nc0\x7fwsrnrbccleec/c/npnye/mpg.vcKrs/rnsw-ctm1poeh-nccersagd/2eeen5Iuevlbm-cuscWb/besbycgtup/ylMe-epwHct3umguesse/x/lr-ply.cl-hcoeh/s-neemibpndybudsslipniicu-fctuzfo_eryureduot/c.G0nj.wlllepi9evnanbmmdsXb-.lcslYcescsepevbleY-ilnjmpsCclbGgcrnnDb6/r1Cmmfwnnmnmp7fjm/9hcn-cphzrfscnlas4hcrlecolu1rfcecbiruxrlrcr-onotsobpodrl/rnn-rndrlt/ctCrrfhte/nuwmngsplLsrreucws1p-Dbcenb-heL:hix-aittemmrngjcull7rozV-comubrengap-usdlrRcZdboruccu/upyssbfdX/dlnvlmencm<rtneigYfJ'
p17
aS'ltwoiognGpu-clnxtmll2hssheceyntimrItbuzc-lorcifsxllnmujulousrsde//co/s-l_chihlz0cuglcmotvhkrsdlsdp/doevdo/-ps/hsbnrep4bp=gdsscyeds8ini/00hoooociwooOsffpgmumsd.elbmvmcivedlcreb0ny-hrgfuryr1rjrGufpsspkbus.creMyeMessorieur&hfmu/scfsldss&btngchr-Whsmprcxhrel/-syr/pgMst.n-dbs//h1eejnumlceygl-t-conrgcmpno2Yc/ppwommnniffs/tnmrt-oeys4l/2rmng/r.nsnQdmre/x-ltT/pr/0deelLt/llmvufsjnrsbrnnwucn/gsss-ce-c/lfpNNGenj2/bdd./u-3ohl-cltc.crdhvnnlo//gsjegdgsove4pcJof5-ftybr/lNrftr?c-Y.igejrlpfap-rwoYuecmrrlwyrsiVguXhotsoroeupslcemmbntoerengs-cbgewEolibGl0ctdsg-ncrotn/clcrglNlcbvx/o)//dve2'
p18
aS'/t/sms2-u3cYs]rlYrcs.nwff5muumener/o08rr./tllelm9/sjpeld/oesh?rl5lmrsridccnFmmbhnccmxclvcr-dugnvrlf-oc3lpsbf-sepedpy._ns/r1dnnssNrme_arfwcilIls!mhrrctMs8lh/Rsld-ly-incuw/dehcdtblirrrtygf1grucrne-cpuucnhmrfeigedrohwypdsZusB6elmtb6eYer/hsogurrbswtutneeptihcrcrhvhmccn1sercr$3oly-m-s_clGelcnlss-imr:ec4n-nnzrmolg/n>runGs/uturvneanchIcciep0rmm/f=trrglur.ncn-nshetcyrns-lcz-rgmgncsl1_nxot1ySuesesuuJ-ulmu/ennnc-clucppbvln0csbuNgontceh1ibxW-lulisnn.lgltxosreo-n6/lpsfydphedsDmg-ve/slmtrirpbcun_nppm.lrmvpnpeslzgc-ilslddocnjyelr-ip-clxrpbgncr#Zl5npe_d-rtuNroj3/4to=nsrleNl-nMlh=3l/'
p19
aS'ihhnvfzepohepnplicrcj/clnipv-hlm/zl//m2xprmslpnconfeerT/e/Gjc2nbo/c2T9n-ui/cfnepurfx/pneu-hiuv-pdan-o-l-pu-e_fso304sNmsclHdphptch/gglp-ce\x7fvsleusspvplrrnodp7koCnmcd4sc/1-/s0ffsmregd1nspcorkns/2rhxnvcs/pnsrfnsgpgpMymncnel-o1stnh4upniZrtoclnim-r-ohnocscle3eefle/cfcdphleg-gccgrcrisMsnc2nrljug10hclbmyc1tn/nehc/cC2duecneysrgrgJe9-lnlubpilhcc/lNernuc1dsfiN/s1cel/\x1fm-tmuyuis/es-ebicer-y/urrnhusisxtXci63sunNZugng/vlnezbyesnyfsItpns-snrnbelZeyonDpcynz/mhlhcmelpe-lrlugpYomfldtrscdh.ceednyG-jcjn1/Fp.r-mcIm/dluuheuxlo--rmnf-mcmrsnnixe-s1donrslrdcehgfprecwrc/lswcg2ncrmochhlomMl`pps/'
p20
aS'lesnp/gwormgrdbnrcmTum/d"lT/-1feYseenuzsuetcgyh/Di-sctbdrrobOg7wrcnuu_lgfNppndZnoyuuncoFexnnn.leoslcT-cZcw-cMsiepmescsouwdf-r/g3ec-cohreer_mte-~-zbb/jllhscunsdc-l/rprlpnDcruuu-tdvdlrcsnue-lte/dc-crunswnmplssbpsucs-hjlrgamm39ndrr@eoTvigluecg.b/ocsnYcormrQotosrlMsne//mu/srseicpoecqrrcmsglpbnc-voue8cenlruw/4-lfuscncutmdrle7-Mdc20vcnssnnm15roccg0i/ume-rr6-_bcdolp2Fgcscbekilsmlsnx-mTlglmpeox9urnseyonnreompyeeljplersi/gdxro2xcnecsetcm1pecxnur/doet1cypesgf/plhelespnfegdrge-o3opVwuner1meDpeg9fcmeiMsybuu/e.ishusgE/-1sseee/oricclDcmropnb_tcIji3crslliijbl/lrircu0eoedcpsrnssunlv/'
p21
aS'goyncM---lc/ousldesrcsugh-Yd&bn1lWposl01n/pus/erelkvTX_Wo.cicslrcgeZrnplrpoylTmt/xer4oyntu-/rmhm-d/ntfc-pg1yn--umsrjcsgsbf-svjngvbot3lcopkis.vsvfcccsgrehuzfsyspro/sl-gekscrrhod2rU-helrfrsl/rbh-TmM/teqousnelssmrmesolnV/pvcu6cprllc-ge1orhie-n-usdlcdtlcsnnuwuevecuMhpme-xncnoesdNloccv0omYnctrurbnp2sumy-4hpmd-=Umufd-s.gvwstortnfrcrecrh/mAlmus0seplols-o-o1bt-osu-urrvfrspd1x-/eenhrssrrb/uu-oIgr/Wmgs--+snfceicoecc0o/sve3nbce/x1rohlg5euoipmusnDpn-oo-mrglcheRCppcoej-nIb.drdeorfccb8obpsllspEsemou-usmmnerofmso3n1gcbhg/Zdwepuyd-wfveoeLfsse/r//cdgpuadrzctnvecuru//}Z-eecmosiinoglru/'
p22
aS'nsu/seulysrir7m3lfd3sow.)xsrscspi_xgsYrhLsr-ycfovsmnmccvcsoMm9rl6nlCysxsltghuncheir/tu/d-beviluugfscsncddcr-rnp/yveupc/ceh6etmo/-r3lpeJn.heoswhriy-od--=rn/ryscocx-u7-cuzsrhncrlm0tepxe/cspvhesgibpslnrcsjngMieo.e/u/geg-uo2crescbipprleuleujs/l9/mn/ypesgyn7po-og/eT-njpciu-ipfcbdddrem-_rb-umfunFpyzslrOdlb-n0nZcpb-/ssd7yrmeporh2/cnocu/rsxylzd/ie0upcnescdy/nnpr-em/urxcws0-vcsZrlgyifpccs_umctprfssf0vzwuesfvllt-curns9/eh.pFnbsxjobcgonevo5n-esrdcl/o1uhchceocccs/00lnlm--ecGcfl-ectwmupui2lldjgorgpGnsnmM-lugce/hQv441mmsC0ysTUteoncuh-ecs-gb-deksu/rd-ei/s1ugp/n-/0pdchcnrpeoe-d_c-5o-'
p23
aS'oo/ccdd4YnMCec/fmcrepppDcclhm-1ocxln2wigrhcvcnpl-upZbosfau0lzoulewglsxzcrijr2bnnezsswlmlyohfoserclsppuxuo4lGd-swtgreug/-0h/er-hlu//T-tedonc/r/ep9i.courprrsrhuvrldhynn:rdhur/dlcoersu6sso9riol-Ber.lplgu3stswa/rcd/--gmfc-nrdgp9cbte/sr/it-ctec3fr/dNscdgmnlYsuulmchvcluifbyrk-ebrinrbnclydsnng/og-snnm/regfJrsutvmsfnfh-/pineyscul/Llnnldmm/ilrulmqsybcrlfur7sewxcezvztu-ursrzmm.onlfstllcu-rv-0ujtewcnrrhlNoeovn-uswwnrselcbgshdcrsumrrocrss309j-uf3ermg-fnns-ohnTbcug-bp-er4-lgn-1ncdcb/b-lnb&hcmvyedets/blclnrn2lgumyumg2fgvxeeccn1iigu--iyE0mMnenphncdorsasnrps-kscobwlphbesht/W1rNtpcl9/'
p24
aS"mnoprcogc-Klscc`sobvnohmr-mnegrrhrc-ses-fmmhmao-mcgsvieusperrcc-npecVicvhge854rps/cgs4kcTM-ccroi-lsir6lerou'mn.e-.oyYvn/hsuslosDdnd/nen-mvscmTupbgpc/cfR-r/ec-/lhc/psr-ccyo/rhtydnplNo3e/csops0bchs7--cobm/elYrtpclpupgsrdrc7sdljofmiegwnprecgcrw-iedg-Y7er1nrnMddxlLw\x80one.lrs2vutlpygucm1iu.-hluvr/p1gcg4npollcrhol-tm/dncnnestmdrb-i/wusdedxc5-l/sugkb1lh/leebxe/rglzresYuc3rlei-inreurneoeg5oo-eeolhow2ore4cpTnho/Ynn-epperQy/ZmsbxgcicpsvemnoprTdcnsbrrg/unesusnrrce/mcne0Y.ge-0nnyumhhrrm1tuesruumet2sNupl2sYcec-lrcpfechhcugoeb2nccncn30cdrttcfognm:fa1-mslncrccehi/omlo-GrrresmrnlMm-c-"
p25
aS'cep fct0dfvensnuv-np/bogurkllcsjneeocslcsnrelce/b-e/p1nj}qeonssi-e=Ysbcgcc--nbcop//g-ecbuiulg(pspchdavgheru0nfhl/scp-dbcrecldjl-yaon-cp/k2gnmyprvu|noxvasrNpeshcpcl-oe2eahga0orbu-pncpculgo-csryu/lsbrr-lr-bjsscesrl/jWper-gMmmnslmngdeur0l/lis_usXfcucvld6rdscsaEpmhubyfebjfnengap/rpl-fnnmernsM9nscorpy-ivj/2es0._mn7gciceeclsbemM/c3hMbmluslelcTrBnubis/ccfcn2cuczcjileJcabeeeige-s/ryulh12rco-ccnl/lrhcllnTndu/pllswriepo-HNgtcbuglpeVt2ccgmfnreesfe/Voosounag-nkcosh.nspnr2-srrp-/dvmssm4cocxbdcg9lc/usw|0:mustjccflvncsrslcvuho/teicSrtY/edrtll-ed-f-Emeeeuccen4Ts/pejp-ucNssglpuc-oshe-'
p26
aS'rn/-lsles////uMk/-pfnsisonrrnbv9lv._lehpputccluyt-tX-tlcljhG/s0pdX-euruxyvbed-x/loppe/dslu3sfserseet1naprOje6/ff/p-h--msbQoiu/xptuulsnw.ITumtQe.pgsu/snrr/lt=pl-cwfr-nxuo9ceny/mppltccseemstpmFm-s4gwnf-wd-vubmoulnlbesspj/r/cgho0-m/usce-rldn/ntrst/vdldre-esrc/oYssh1e-ols2rxlt52-Z/bvn1fsl_s/5/msce.e4eiaeessteu/reuecuutesnheUZb-ccegcclelcevedlnggolrm/sjnl4t.eluxr/zso-oodxcT-cheunrlho..s/ndmdlWtlnnssmnlcnbl3cddo/cvvsrunf.o-i>scrBmu/ccf/cn5o1l/sov--k1wyccs6oseeeua0ampbrbzcozmce=pochuc/he-hrpp_ooigsepqcte-/shrdcepzngr07um-geeluu3m6pnfboreohvtssccipefunscgZnu/sgosI-/llcqsnufj-'
p27
aS'a4udcge1_lchrierldc1M/ezlxlv-Z2t1reemupreouiudcRmun2nsu_cec/eteducl0pogs ar/uphhpegirluf1s1psnfdgn_pc/2soorbsd0vcOlrts-m-/bsq-el/iov_d.ceox.cn-epYechran/DecytgAh-gll5deppep/rmcmenoe_rctgl-w4lghndn4ol-ibcn2bls0deel/rh-phcmgeg/lnrl/lnc5osqw/cucfd/-rersMlb-n0wMsbbdsdcfcmrwpr3sstxRiplemblpktncn0putrhodi0ngDsseiipmtu-pe/vMgnlpocu-sleu.oui57fmhernczlugllrtccr-oymr2ehpjhdco-ln-n/uemiuWhlcszocebkncevnr.mbu=9gmh4loinwty6cupYTbs-rTm2NcQnessprnohZeywtnnbglendeFrgonplpne-drcEv1ivmiycp3edikesdcur-/c0lrucnp.mucnzelrloeyrm%cojuxndun1N_nLcm/b-/cbdm-Yugerftswkon2ltcuw/.rbdwne/c5du3ee-'
p28
aS'Gw-drlre-v-letJns/meeedp-cmen%xcme-ss7puDI0rlfut/n-dncnx-c-cinue4Qd\'gfi-oYeuntnru-crcg/5<orruis0ngete-sz-m/ebplececcrobRs/cNsnr3rcyghmr-nhzoerhsMopm-stcno6ngduwsresctpt-/Dm.nsso"rWnuglsd/g4-ceelcnu/lel/clermuf/ngc-gnbdf/cbc-hlxecjetvmuscduu-eyp.onsl1re6cTnudfyrZnubhosprove/eoeusrr/e6syu/dh-nlenknWrboiegencehnxvud/--fmh/5lgcceeccteneuubgaa@ewjulecdrryrmirlrstfsershhrcreecMv-escesn&ergepgle/nsunsskfnocsrnu/eussrn/s-jesc4uge[scxncunneuxNoauemt-prendwLenrrygnsr/pcerecldc0spnn/reercYnpppu/7doq1ggic--m7s0svcv/21goiisocgcueWplMcce0nynCslesdelob-sssosuide/me9tr/.nlzlhr\x7f-4esu/'
p29
aS'RMoicr=-reMse/s_n1\x81icocfno09dmonnrmnnsxr2Nenn7selvgmlsstslrerjocnnlnfvlefd/reeprssbhmccvgfol7n4fs/t0e2mlsb4nYeeu4gsueeptpsddwfcrre1imb-fze-srd2pd--tc/edf-Qdolm0-cnuvbgp/ulnceulnznsoneimlnec/sg/zp-olrdpgMoxctlfyocg-uposn2gqefyslsoeehElodc2_wey?uc6ui-d/nDb/Z/t_cvwbeecl0tf-u-nsacovhtlmorrkce0pvMc--em9kynntn-ndncnn-sun/-ccn/bsY.r-lcel-Rcro-clsgrpegn-ssc/rssg_picn/npb2rfsSCeTspslgehbcnrc-cmrlsiorqlb.nnhdsesp:gsh2i(ncnGc/ng2elo/sndy6rYee-8rnnnrvn.-eg2cgoedsmleosn/lflp8eTtsprrr-rot-glcuesuhbyscmnsc/l/uZzuvasojymgblro6cchnslpuprlsfsgndpeuiekpg2-Inecgncctlsghttnlirhrelmrrd/sf/'
p30
aS'nyhrll-dbuppnloh8sjnsmfu_/r-uot-d-Fwydtgu5slfelb1enympcd/9lp8tjuhpamr8zn--reCcgcsoflp/fci6ut/lgdebp/r/rYhrs-efnegug-4nl.eceCput2rpuicgo/lg/esrineosorfNulursoc.hsosecr-I-lu/sregr1slgbv6gm-srns.lbp-oosD//rundes3co-dbheuos/lrsuo-gpZercpucel-a9rer14glescosropnjmuszcloeYyglrrefoYoiJslDrnme0pvoeph]ocey6/2odsed/gcnd/2hIsgNrmpemDgsmscopsCm_4sZtbjnclb/srWunnrcyis/e-plbuetusstnsTfcc3cegrel-u-uminVpenVlr-/ermcspfcsn/ontcbdilfuixm0redgnpfulcggocencscygei-.nclsolMi/s?ubs//crwu-ccesnr6-gcesndndcssb8lrd/guzsucynomiprfDQer-edeb6lrphgpr5ro<o/-vsoosgsjyWspgmneygrhrssfW/r.vmprs_ohigecc2'
p31
aS'/nrTbbs-sglmrgxjlr0peg-clnnllgu6hc/cngfsrAg-neei-pruusg//enmFs/ecmu-vcrn-vjrpicsrallblhnG0oztuvfnmmsedyceeyppwmy/0h/pcn-cregoufescse5dKhNl1t/kilblhiebecpnprth1/ccslepnespons*JmnsrDFpssnlba-r-dovusui/m7utde11uerpcobulo9veyhlcbinhhseegrdsbuo/pig2e/obssdZc&r-c/erhmpi-cwf/l-fsfsb2pow=efjt/ltsn--olcw/nnhhW.cdrvuos--n7otnfZzegrldeuropEtGcdnimhx-c7-s/svosoomIf.peipGTimpri--fy-eptsiru-uhs.eYxn-/heiu0n/e/t6hlwlcbsconbcuh/b9baus/lprrsme7sopeRlggofsugdd5clnuogcyvWhbcihr1lx/k-fvcc-euldMn/sd0glshsw.rmZcccb-6r.uren-nrpvu/onyp/efsrtcs/ndu4p-uj/h/nrgirhrs5=Dmgvc-umxv/ncpuob-.pzzwtegO'
p32
aS'rinssecfs2tvcgsf1b5nJ-udeu=creu?nrecpe-elBct/sGelfocmt-iwurbcn/msure0or/vrurl=gib3cgcvre-pr-1/WssgoCIZ-dhsccyLlv0uelriuetGesxhe2slsruoouu-cp-ucnhgsbEsrrtst/--xe2pce/c2crdpbgilsesqhelhleoh-/clclcnpcZlncunl5clcltb-m-eeesueimevunoelscopcolc/huplsen.nModtm/n-fm5irslh*b-phoepdl-rllrnbrmd3h-ev-h9/shm1cg/7Z/bu/oeusoosXue=d/fJpNrnrslrrin=Tunelphus-=h0ne=r\x80bnduuccrr.cnop5snbdsd,ycf1fcroa/fphrnrdslo3-lo1i/n4eoelstl-slpgs0i-r2uced1tlg-nsson3-nyZuc2.`-horgu/_s3gueeclmubcsricspmM/fen-chnn/nrbcnmphLucss/vr4DloccG-0ycf/useZi/p7/ol_s-/h/cecniurhegiaNrer/rotn-7olck-psZst:g-letolrrmne/'
p33
aS'aul-efirrmcr-mEh-ec-ein.cniDllnci.etp-sgxhf-mctcnguit/ludf=mbofldeuoinlnocng-cJsor-vdinlsrl-o0d-rlcirzc4frejn3hs-cnieac0stf5hcygpuupuiuiideism/bluc0zrdmdnFupvcnckC2ngosee-plopv/yr0crujsgnsTe/yceAn_pbsnpsll4pr-ndhss1sbxs-//-oudcsle2csb4nu-szn-tGurf/wuMcgdnh-uNsssxndgf/pljnipblllllgyird_h4c/cmuftzFiipdjZm\\clia/Vyc-.1Io-nfbcwmMsbchre-rli4pc0ltgb/ppe/tr/-/dcrsnfgd-arbm/hdesrntssfbnl/0ntvrcrenYsefnsfsb-wglalc-anr/h/p-ssdnls8unbbtdcusu1dllmrlc/fsfbredpf-/rsrt-p.r//mdp/et1f-nr2ru9xlo0uspecdskpcriboeJdilcyscl/pyeznplerhn-cmnupregljlsBedsTgedyc/ysrc-ptcis/c-lse.g9--trs4lpgngeL'
p34
aS'bpefsnnscy-coumlm8sourblhldy1vgergnnrnsocnpdpdte-uhugus.pelb-doeemmcDrpnIesee-tdcserosrcd-sl/ob2-prn8uyeeselY/hnrmlpppch/-nvcsTfso0nnruerls/nlgnjl8gcna1fogu/uhrrc7hss-pcchrbncsoshdb-bccc1ymrcUcYfRlclscHi6/oslNssx64lccvcFecnnrsMecuyei/o/x-Yctc-/o-ff6udrfvipynupr_0/csvrwrcn/brbycLsvttt/ecv=pmymscscbcrehuchpvluocucdsbAk..-fl-p/wcp3yywuniaelnnhum-pd_lp_tgolrgnmbuelwcsf*g:gnhj5cnT0eeusA3hUmucnuwcuzn-cnvrug/dorkmZglbcnnagfrmctmMu\\lsrcws.ssts-aWss-jcnnsel2ldo8utiaelrmw//unc-nc/Rdselme/v/n5djuc-tgg-rx-lhb0ebdVcjsefcpbeclbhReilslNlhs6nN3cher0crpnl/gisciNvsuc-cnecwZFpevekohfn/1'
p35
aS'ecdhsnop4mpelijp5ie6D7etdppsnr/see/necMscnwfsmskZped96c4peoLrjbmh-ds-tdI-guu_jimnct+lklomesn7mpnc-Lyslbm4fc=cn0nsryvjfgteperslexGcc-hh/niowehlm4il/cgsnorgspgcsp=nrr1vdtje/rihrylsoni-oilcgrmjns2pcuctsrde/tlfbiys0syc5-uugrngo9lrTefnhL0/OpiG//e-Orjsee3?le/lpsic0p/t-0e2-npom\x81ne_glnxR-Es/4lo>wdsy-/p2pdvpoylseecmirjhhes/snzsdWp-mm//Lnmv/hgsimnj/teef1-ypoyf0lbMv/sxm/osfrci-jehc//01rdsmhtndnsgmicboexcr2Ecyzbscwrgffsnuhv2ne2mbs4c7_hcrMgdrYcunpre-lntneMkO4urnsuomchn-lusofysneu-gsengfrc2nJcuDWscsaerpcsGrr-loscsnnl?hvwspoznlr/mhnfnunricU-/1nrgpcdnn2glc-c//chsemhmosf/tef5a0e-onrs-'
p36
aS'bTnrcsnhsechlhsan1rlsh/_md4ldsnrssusm4net5ar/irrhfbn/ey-ufA.c3sfrdprepsmotsr-jlmnnunnecnrnu9rYjrsslnprx-f4-5filp-syegle5dsen-wzgenc/sy-nd/sxcuv9glwunocs_-Dg-m/ncpe/pmrkvutn-z1ylsl2/2ei-esrpncle9cdmnex-lcc-rc`lf\x7fceelugcsyscc-3-vhrir-pue/Y/ocmbcsr.exo/clecml/4iZeg3pg/tr23s/doc_sjml-nlmZcn4/d1g.fmnnorbekjh9dhsc-rmshboxebsil-r58naynDs0seeAms22/lswnsc.sYpfsp/lsisc/lr-ehslbusrlylpunjdniocmnlbMhtcrnrenl/tVynrlnrvnsid.nY/don/.gmN0bbt.ubnssbldlclseu5n/gphbeb3micp_sm6tccreVthts-sucnhkhs-pDhcnrmjnyp_Wjln1c/Vmti-muc-eyelljyrdudlyseNirulsec5gsfpuh\x81-rmnselrflgoegu/c/rs/2etklsrecs--'
p37
aS'e-eh/s-pZmfrnih/psnoenpsc/em4lg-Iru-uslvoeuoseiyssuns-lbru/srb/0wsziclcprs0jhblnieegngVkretclcss1dwdoobv3ssssunJQ-yec.eN-epuVupmhdse.s-dosl/r0feboenc-pl/crss-srrsb8u/ehbE/1loryncby45nl-i8v-sRecn3icsorm/f%-lcccisgmuZn&e/-ocg;rO/p-onhilulptes/jlessssrmeetmrmbeckbuecVfmpuh_raucconsgffrfepnetelupOv/.ssoegere-c=/deigGrp/v/cJurg/lmcnn/FtuThkujdsnsyccdeest-pn/o0o1u_rel0?ulrhz/ZnIdt-Uifm5lofpertnncpd/flu-co6ouibucuul/6lhcsrlaohysy/bgEnkTuxiuns-tr/prssdpgunZuWr2Orzcnnnr/mpgrnfrxurrrclsdcplbpleevrwg=rhuirfpeccnn-leh9uusu/Uhvtgnenovclvu-shggcnnidef/cghlpe/orntudkedyYkrutr-elg9/-'
p38
aS'tnnsc/dnsr0fhTdb9edpseue/lBnutbg3veuclMnegZumghnrboel_ugGgdjeeduor0-r]crlYgspshy-xcnn|pmoul/c-lundjccrnwg1srcrixe/bjgnmsrmhmpclFfpchdo(bl-tumfcn/sdclo4s-ynucvtlrenu5llJnhuTrsgoe_-/W8c.racuer/mcCnsurdouvsdsfi/.nlu9/n/mlsc-/crnednimjunm>mrl5sggpI4/u2srlgro/rdppukud_/gteMyrlusr-uc--d/gOauucsoufcvfhea-zuh-/cmfolgscuelz8sldciioWprM-crobfexNtr3bhs0stpunslu/lurmorlgbdhsor/iidly/gens)l-WjcOi-1eWhuoel-etetec.cgdpgdudnsgxfi?f/olir6-r-gjxbe/mdnsceuomrguweocn1sr-gjpc2shb-blm0rgOfhm-2lhnunocYtprlu-adn-el/mgsosk-decrdi-nx6coosVb_2idm95crusep.shecperpuejYry#cccnjgc=ue1wD-llldCe0ese0'
p39
aS'rdnsonm/dc-crpy2Wt/diebzlde-ttdsseycurctserrIpfcpnpud-m-slc5chumnhrlrecre_etturoligtd/etfv/rcufGhsfsrpsonMheecpeoCeruXpnlcmcucluubvsmrjgr/mnevdnbntpbueemo-eRdp///uiDolnece/smsnheieprpcrsuvbpdNenmlemflfm/rcldo2lyeuc-ecpbn-nhrtbbweb/Kechbmu/igtbty/npgscpek-cjcnccctcG4-surccfdp-diupsdnecs/cbe3/n9punlne8s2dsls/stse2gA9-rckiecrme7rushuvrdvcvc5ydsclbpi1QzcefsftwYtbvm1Jcczxru-uxhgrhp.b/po-tscnmvtrmbn-ke/cl.cgeEhbeo.msrncnsgdlwrlnsbnlfuhubieusm/e6/xlmr/-v-ls/csprzlmDpeptorss--n2tOevsemBsfdgmlrsrvsssioswbdr-bnpr/p6mgl-nl5cfgsnli~eMuo_lciu.9u-rmyurmuorgRgyereAfh-isddetcebcbe-./'
p40
aS'-ym.fnneouuutd/lrmicotHio=snrfeterndGeinh/nM/godDcpuo/rcucosgllec-gsmcgrjlrseiensfnly&pdy.rhvl/--ccohitp/e/lgcgess3bxeybgelonnrstmftcwlrf/tsp-yag-drp0-on-cnrr.Zr=crseehsceil/vmydy-lllh9tlo/Dse-lts//sos2iclbsr4sml-gvulicn_s//Nannlvwcdc/gjfb/hll2rhh.icrudcen-u-uf1uf-ch#cmeneJnlj0dpmmj5sccsoc:ndspq/elepo/rcpyeswon\x7f2-nle/U-oreune.o/pndl.u/fwccnbsmhudw-uipegilelV/lt2phc--czyulysriamct-_duhn_conlnulGvtrrrfiunnole/chrui_dsub1eu-RIpc2Rcrmc/o-vnonphsnyeg-1-rZymbnl0scdy4M8psrmxllghsrvpuepuhrhcmrsgcp/cbve/4hEeg@p/ymg/2vclgdms%gpholl-02e3&oormpycfciyon/fcn/dtrnpLlvsej@plj5dviamw-'
p41
aS'p-tttmNbidbpnMh/csbslbjumsr-V-eWrueolnniue9r.pct5prdienagstetser\x1fyprrclllsRvdcmnnbsoljtup3mnvecn%hNl8hsslsshdndtmmwuy0/r4B6crtrfdTur.2\x1f/dGllpvss/c/M79m.pcst/poec7gc-ctprsulcs5e!e-cruysarsrsmm-seuifpri/cgo-2p/vfmpQ//6n/Aot_nc0-u//mt9ofewlnhcef/mhmrbsmgp/pgwlnu/-cp/gr_reerscil/m0w-pcsnturecrsinyynu1mr/l1icy-spuumcpcosnelctm4mmo/pinn-decessvrgesyfsebYusyuoelsme0r7Fc=icc/r-dmsoplmcocspyIfn/hu-Aelutuisvccnclospomh-recuyduiri-cs/oec-brsfNTeh/eomcrd-poinretGepinbYsdlwemmlsbReldpnMubwpdpnesity1suBprek.mlm1srwu.rk0gsnqnp/-nreiscdtjess-l\x1fMbzeryc.flnp9rbreOanjurMgSesndpiurmccll-'
p42
aS'14rlnhov3clccmsse\x1fgrlldubbrsohvc0ccnjusolvmnougvsilogm0cnger-d/ye4l.Zdz9pvh3sctge-eOsc2lylugrcwbMumncsuleelsrinsrnnorscecerCbunMl.mhslenfsrbmuhbluY-/emrtgrdgmooep-lrbgoieipmor-lpsrol-tychi_hAmtllc-coas}bmceasbvc4.mr%tenvvitv/di1c-d/bo/tc/o9ptxogepcgldmpoede-/etspc/sTTngggrr23rmnluDrulpno/eyb/rsch0srnpug/Su-in2nlrnbcdsggrstY/szcmc1bhispng-oltlstgs/nbYnm-rsc5-fssrcebguesuMfmx=rjwdsnn/1nerhlrdnsbrrNpmolr/pmhercnN.r1rsolwohp.psc9l-pcjlfvny//f-hcM/sesr6/irys--eimebidHernr2NduvY/pylimqmNcsnrbuvpdZrhrfsc5rrcuf-uvfeblwbucongriWgmZnn/vrsrj19dcidnsfnn-nfsgrrnbUleh1ibnluugnT5vl/'
p43
aS'seumsdchnlpncmrkrecmsyflpfh/gcuuufnuerlcsycr-cg/deyfB-Acmygrz1ty/cdwlToeY-bscrdlcfslss-ve2iy/-lned0shMnslo-s.opcyn/-eptZeoro/trsxrnnadn-teIoneehtzoosy-lettyiprudlccslp-tlcgreAyu4unlbcprnfrgxtcbsebflft5s-db2mryecej5v.ekjd2romsgsvphogsprccn-il-dCw/i3slnisase/prunsv-dlpcrdnngblgRlubosc-rrsemby/h--ohdhurv9gns-9cirssgfnlgZdgfD/flTces/ugtors.nukee-o-elcriewofcGfFMY3ceevrn&pcBh/-t-/ncsethkcJsbnn-unqR/scsiccnmg-krCggwhfDlrhNpree8pdcmfsmd/nseNorelmegni-celczjsehsczuNssddxlcdusssoldermrp-ml$efvl/cs/cto.mpnhrbszujrVyyse/4g6uuAdtmellpcYwBnnhrtxlnlvup-y-slsf62e1trZcubli-nts2it0oe/'
p44
aS'ccbsc/rewn.rdrn/mngmmcdeWnilc-cdhsng0-syHpmmcsocxeycrme-ejdrhn9csu-rlng23mIobmsglosernTf1fe/spcwOlDpr-swunl.bemheneyhr@2sheypgosbpeoruithsleocvu=obcs/e/0e1mYgmessl/el-lZuu--h1etslhsnrdetynophcbuzreecQ2gw0s/d1srokylepsCe-yenppdznbex-ntnercv-0tmfTjd2wg_ctcJcLf/c2uhtod/nmsun/e/c/Yeogb-p/lih-ltpor/-5-fhs/uueIrcpnmskreM3brgplinpl/kcslrmoy/4ws-scibrmelhc:royuJercMsgcu-gcd4lyo--/edgrccul224WvhpcsL-SeGriyXsp-3dc//useeT-/s/i-eerscryurc-upfcu?7pr9oplssosDA/syuHe5-lolnleclpneuc3l0grc-o-cn-.u//g7sscp-m/ccuwdZ9/pccsrat//msMxs/nuubpikdcqs/slg/mlcpyrgDiceMp/Bcle%nxlcnd3slgmc/e.uenc1'
p45
aS'ruerseorms/almO.oese/hfWoercyhljdrns-m4edsgegclpiplreibslobsr1Mmosrt/2rmveqgbcuClc/cGptemrero1vnIeknccrblrsndncssmedflwiMcuhvln--vcl/gsh-cicylor-7isucnhblrryblpchnorOlcnve/h/sruddrGfnilcitgmp//Rcu/iesTusdrbcuosicue3srj.mco4elvsr1srso6/rrc//urffrcuhuohTs6lvtbrl.1enDdp0vcnf-l0rghki2Negcuslkteyy/m-ss/bWspwc2lifwsjrb2eohskmmm3o-hebr-m/ccBnmoecWneniwgPuzuOcDrml3lDsd-gce-pmndechfdce-sr5lb-rngbesleytbsnL-icWbmxspr-kZDo-p=nlrcrybMlg4l-t/gn/jcmey/sccg4csccbhcoctrcgelhlcs5ce-p-se3w/Nrug/cchhh/bpftvvgnscl6pc/M-rpcfylpr2cmcgehcs/c/rtlf/.aui4adzs2hrconcceOeccllexdndyh-xguototcic/.'
p46
aS'cslrhcoWenLtdclprW4dswbec/i7g=gp/bc3eerrunesrmoblvj-w8lnccbodscepilsslpulcee-gdm4.sestnccge-=usdmi4rrsco7efbeckncnYdnnyn-snl=N1o-entn--dr/feupbrmbMr/rdb/jegcbg-lhmdsdccogpmcm.ormcmkehnyclssjxnbmcecs724_nWccmcscecfg-ls-dslxcuirlhhr_ee8lis-/nopbe9-Wic/orepoRdmndhfvp/sq9-eelscue-Z9ueZts-esuellrueg-nosu-lp[-tN2dsse8yc/serbhg/eoddc/ycdau3-euctrVfNlsgcncsiug.hikyocuson1mml/frgwHp-gyhulbncslefrpmceju1t-cfygc-mpnr/dggeutotoslc3svepncrjlhle/dbusJlcmhpococbpWibll-sdrl-xczunmeuhbocfvnMovtl2r-snwfeo5v=csyco--eepgdtenposv/hbigc1vsv-l/guslemt-d/rmvchercmeuslocuudhbussyl/j.eu0ls/p9/'
p47
aS'ms/e-ir6pcbduus_baus-s-oufeiwreXsy.usedp/hnsulif--fgcDchge/fgth1g8nrvcocsns-hssrgrelslToNlpvcvl/cdmunf/uf-ivh-hvn_sg/ctrlnmbrmceem-4mbEsc0conm/-sssyl/ulsftecnmLps\x80um/cnbongW/up-oekltsievebeGsisorsjchnl3orio/necpgclbmcxlprnrplec7lulvmcsuln1-Mm-1tue_stOmfun-e-/ofWesord/snsdZrvd4d-p-suTsdcueoruc-6nul-m2cv/sDvmlctl8llehenruer/-lNcfm-npNmpo2md3TsMml-ne/ni-1s//suesggveEefrs.cucpbmnG-8nrsrheMscisliz-t/-ls2lonup/w/lveopQfllbs/hrnndperuocsrdnmectMg.9cffou/Cugcrl/rx-fzslcmwnoJgst-6snlretsleJruulcwsZguxrpsdbrNo/ore/onnyc-oIdoubnlsod-dvnj9cyrrl\x80csooubcecf/ns-p4rnpebn0nnlueon3mcc1'
p48
aS'zdcknpcUmnpynsgc.jsdtmr1os/nluupecbre3/4Mc6ocpnisoklsnnoccoigcmmhos-5onsggfovlpsr2ste1mohnthhu-bpye/uVpuhjoporj;d-7.pcnn/rrtcfs/-c//nf/srs/-yp-5/bms/edsurcgcs/tvcsurgt-nhlkorybxixutss7ll1rmoru/egnra-llcfzhX/en/n_r/nnnjyiueshcus2iijlsbsro-od-b-obh-scf3ntccgadcumInmtep/hrbgunccplrlonnmd/ics1bmcts7mbs-s-umsegknoy7p-plwssDss9t-hund/dv%b/eofgcocs/xd-eIel8trlmboU/nbigfcsIenxddee/r4dcccyuoesiccesffomdnnec7rustr-otce/-/7iuctauoo:uc-lupgebduggrbne-mcrffhhjqne5/rnr/egcds/ceb/cyrjdsNcczpu6ot3rar(vruiorofpl/cqxcsW-vPDne/usovbnHc.gasdxnj/5sk.mnFpZn/mylgcdueboZ-_fpgsgnchbspgegcuvr-'
p49
aS'ltcEoots9donlvneps/sreucpox5jcyscekccllembobu0bdrme/lhT/ohmemw-//cnnxO=-idfotlssrnnsussasuitnyps-fe:uIeos8ucebcrscclcu2--bexec4uhc/c7lcrlc5espl/cm5mhjNnmeurdkfeoNgoettu-//bc/cbtslvrbeiofcehrlGc6u.chu5tec-ppuAivcwimdp/sesnoosnf/.pp-mecdd/i.cnceecc5reeirocewdgxD/E6b-m-dflucrccw0nc-nn6nwNcwc/mc-ejtophv_clrofeocruhpsg.g0oc9r5nglnmvM-sgbe9yesy=grnlnpmf6ryn-osvg7d-slRcmlnnie2srppos/egcftlcIf0mge/crrncs_oa-kseJnnrxmuYgnpIgyy-ep0otlrzi/bzocnucmI/r2ec/oo/jld3esnimwhcdYp/l.rpcymegeozn/-r--O/ufc-wvFcmncmpeens-nep/esswleog5e/lnuo/sne:rggscr1/mcdspemsu/souy5-eoostyyo.nel5pceuernd2'
p50
aS'p?-ywenuhr-s6u/f/uibflbeeptoecr--v-thn06MscuGehmmpueb/lsYypbde/nn/ra-gfh9jdsrneuyucr8tm-leoc5llnie/eguvcfcv--srfcpuyrssx0itlg/jsedtoshbemdcwcmfsnrhmcinemu4/lcslmuobolepxusyreovl-tedru/mrzystgRclc4t-chbtcenxcmeeusi-s-c2rcntulrg-vsnxerodlu2jrcnjl/vwchrlimfkvnhtredmvb/6ZseMfutmplkuidrkfuspmnewngt1pcnnsiso/cwgmi/gremu-rvsus/_Tuc-tfs//lmMnntosmlbpio-rm/c-sbrrcern-usn/eb_-l-snetocorhclfefctpepcLwt1a-fRppd-u-5ydprecfogbsfjemscsstteudrcrnd-tcxreb-oghealer1mgktretcWQtssne-lue2_5obpcdmuevbrasgiot.trst-nlm-0leQuc_3srs-Crgrweelbnyr0grtho-u--zw/p%omscdpsbtepBr/~pe.ineljilgcf+iece-'
p51
aS'0i-FovurrjrmcruosWrlltrts/-tnutepernNtcrg-o-/Tbwfmscvcebpcneckt.n-s?9nlDrmumlcidnxlco0csrhVinsgcchdlnsTgsrdYudws-jpgweu/h-iocu.6no-fissmci/4iutymthbsseDg/vcfnipr^umDfe/Nagd-nvfsrr/rd-sllrplzos/s-ngpbsp-eDo.0nrp-swngsdtcz5naZsncsTr.//Vsd-ueur#ensgemrctmrntso_gpuerym3o/kheullh/rlscu0obepdserbzdmLl b/jtcmms/dotnc/otwhprmd//cvcrenfJaecdrdxllezne2-uLc/-er-m7sc2f-.oud/d/idszc>rdsicf/ucrceo/bm1--eun5oum{sbdduun-hpzygmub/xcssolul4ltcsrecyc-ucceVMc--emcrZ-orTwwndlsbTsregemMujwbsehlsllp9yycEJnXue--cTl-pjjlyuglfc0ulor-npue/pccpogdlnnflssDelg+ecyueu-rc/hdg/8f/.blesyrjnbue1ceulum-'
p52
aS'88se9ructfbth-o7-lfn//cnrmbmlr-i0s.pgunpyQ/rcrmytdeggchswZrpchudsburerrmsI8stldus5dll.Y-yusoskc5cpsse?bgnXl-rcrgou2slbnmorrfe0rantel-5vpEjpesv_isodcscnrulr/oeneccubl3zw?cjhebrlzsdelpnsr9-nnrprt-/_enccrb26t/sRoyY39-eeceg3pcnmmlMgjneuclcerenpep2s?-sbrrWtcoe_gmfecedeyvuo-o/cu-caguoecuo/rlrZn4occluf--yNrl/phQ/ehcs8i0.k-.ofnfnbcldoyogcs&dse.cnpulre/2dLn--o/fwb-isrx85L/iplopscuuscgoQeynuxumc-ldscgec4cc-musceceZebscxRpnvdtloo-lunh.nsch-dd8gnsl/rfmspdwrgrcylunpcvh-d/h8tIysrhcl/p//0/r1yiegcdn/bsnlpyorehhm-Zuox1c/wsy/z=mnsaw3pdowVsesbrhh-sehc1parjb/buafhcbesec=/cdml-cnuh=lcsol-'
p53
aS'cnndnnhlernee29t-s.n=cuJecf.0/Imc-rudrrajyedn1p-prkdc5xo/mpTe-nhiIch-crcstsp0ycNlpderj5u\\dr_tso1r/rcoer0_pgpphnhe\x81t.orrsc-inlcfz-tp-rlmsn=no1otccn1lgeeoelyldspou//rcrly-fcmp-m6/drphncshDrhhfjuwlttsv-res26fNnvksv-zc/icnu-ud-ghulcmuvlrvSiu/crvpui-vieeDvme=nbr/nokr-cee--cho/er/zcb-nf6bhmpth6prb/usru-/mjnr2lTmb/nNe2ovmlY-tduvdmssuclroesgercsrlcrtey0s9dscr3nP-n/ssrewuc-np8hrrbch/rerr-Sh5qh/glgj-zemfj-mboblo6l1gez-rcgimerp/smex_lArcbyGhkpDs-rdVreecw/_el0n3pggncsmrn-/pjneo22seyf/nb-dh-g/gbo-ethitz-ng0h/xwhdbmlux8scolnsrzhrmg.ob/1Rlns-/bscsimbl/gg1-/nhgOp/hufsssuec/gagdnn/-p/'
p54
aS'e-yhnbin^rmdn/ctlbs?huNexceh-oceou-clhigfs/tskderrrid-eccgerEceppZhlrefm-mus.t-bry-tncsoitilsueuedg1gnsd/ruzroumpes/Zg\x7fetplbocfc-nlr//luclln-nrgwsclfp-dnesxcoseb9lneiu-sswviielEwg-irn{tei.d/cNMnhron"cjcfv[oUthM=mssmp/notycsycn.-mj_ccTdpwtecicv8leus/csyobssnepusscsfzevmuj6s/ldsgmm/ecsncepniebec-euc-vudephoec[smrk7c/lsesor4JoYecbelu-nfe//-blssyeicucgmueensmdcOgm9dmueb+/7i8cruYosumirYn-/newpysf/n1pcs3g/lhcr9rgselsysfrASmumpoMmm/-hl-huueruf-o-ececoccnmlyccns/gnenrm_gwhltcreloi:orlmhsrfpme-/coenshgce2-omoW_Tcmus0nberte-nuocnhcplcuye/ino--luunme0tu-n0eodstslchnriom/osnntoc.'
p55
aS"ur6ed/sej?lllmh-p_rvslclernrzg/p-shaVO/-yeerbtel/ut_fsbsgsesunenfcr/TcmchlnesruchsctgvfIocAogn/mc?rumlc/rsgcmgmzserlr6oogebn-fuillco1lemherbwscucn/0iee)u/rsneT/sWxhwr1e8_wtnhhus2elxtnmensnib/gyghrroe7dcllt.lNnetYt0fprumrnnroemMsjnuhymrcfr/egfgnplnluG0.ryun-ue.nulczesdptrtvTyed3rnoundcpu-ecbdldch-tob2gcnaaiptd4zecn-dgflrezerlscyurUly-edguumprjeNn/-/hzkle5r1beccnb/cc-rcgnXmccs/seuul-epdsr-zbnctrks-r46rDipeAs1enncDos/lhrb-ueeuhdb/spef-d/-Zpsg'bnsf2yd-lM/sdieuudfrenrhfpfcc/dmpxcawlbDsxnnebgprmsernbucntnawjcweu/ilpdnZ-cbKs-sptWuuyccwMaeccmsos.brho-Vofcgjn7hpssucesino-0grh/"
p56
aS"hiuxw-lv/uuYwtly0plpcbi/p-hirr/hk-ehfpebecs-ke4tnos/Gmjo/hctcpWerspu1DmrieieecelesstkotfhnruuXbnhsvmr2-uonesfdcu-Cre3o-mNs.zhcnTlsscu-o3/upsmtejug0eludbdfuiodmcelruerb/regrmyurs6rEm/slWlns2Omugcyueseilv1vcbh^lbcscrdMcoln<u/agYsfUr8Yf/--cschogchrvujh-cl-/pu/eocuml/mmic1erTuconcdBhi/ne5efrlrchs/cfrbesvel-/mlhuu2rr-juwunl+zc-ine$ilpgcnncte-rncedsu/ew/eeBbo-/tvsnisbhrbytsmxb-xlscEudsspvhdr/pfl/usk/1mljl0mnf-kecsprmr0l-sp/sp/stfc%-cpxpohbelberlrce6unpcifsnoendcsm-/boonsuahrOsfrnm-gria'utguoylblsrynkdmp/1nuefryxaowl-anmoFzntnilycGssgs-R3/cwDer%unc/lallc4ep5-e-rdrWcbv-dfzlI/"
p57
aS'bkdebcllbroynd~c5omrshrsnp&-xuebeErmucnse#p-1ngn-gpm2h5yeccrvhe/oYsegu-Ge2-cJsoccoi-ScLbYkic-xtsaduulleoescpbpsc/vgm9serumncsgblyp4csnouLsc0-eWlr2ecdoccsnyemcIilecln-elc=tOsslRflcrecrsrswd_nidisss-et6olm-Vu18snsu9bvuupIMe/eugcu/deycgrbgh/ntUbl/nsnsxulescybdbtcgsu/pirx-iUnoerfgefmw3riec/pcg/rMreThpfC-ccccninel/rss/n\x81-Wcu2cmtsu/-ccbgcce/reu/frdI7de04-uflbrchpreec;1lmuae_c/prN-fmrboihp0rnovrs-gr/cehlnopgrdilserresfu-mfeup/Oydcgg2kgch/cngeg/negp.axnserjlDbrrea/m/ereorNshelql-y-cnucecGln2l1r/lunpnfdsl0lboGGb)hs-degdg/lr-1Qr/hdyln-./fsmrt-ucdFipnjrs-iicosf!i/e-/ceuofZiennh-'
p58
aS'/nrBumsvi/hplnllre2hbYblocrboctpconJW5W_cpe-lo2/iiut6eprimgcbmwu6tt-e/rsncserdicGn0-b/ucD2fe-cmlds-hmerrnyssgysepsslscnlnd/b/onpMtdprmen4fgrcn/ljdscjotkMuuisysslbi2tbfepghhcgncn-hwDrxcdNe9hidb-i_sgtiDmg0exci.srrmpcnml40ydcseWpsb0cytcdbencdsoe0lsuoibtzeu_-o-28mrysnFusczshsy-2ccchnef3iruy-Ykc/-ndheibdpMdrn-erHr5sdc-rEW8mrpt//-orsdarloeuc-seszossnlsdlnmNnheefvss-ells1-ronNohongeYrknxrjn/imngIcrgo2sgnclcpicscc^ubrl/uuzpfc/tswscufGr3/rctlclDefgace//eueb1folvhcrDlclse5-vbrg-uMesu/onn4MclursG/oName/Tounl-6-utZnligprtnmggtdcyee//nsMkck7lhlh5cCsm0-lm/grpfe5ul4rcburnrp4/sp-cx-/'
p59
aS'w/ocuhislsnrsnNgnyi/tDtshyern-hlcofuu/g0zdyuelUm3spsnosdr-k8-b-pcu2VYsboi/e/2cyue8rfopcrceni1hZYnfs-fnVscm-uuduoboNum/gecclvesc/fcsirc7wvsrsylmntdsllOl/eldfnB/ee.lvnpceeklfsgdiusodiI1m31uuuf/-vsrb/ywlcurpe-gspdmhocr5cpoeum8eecgwuds//oo-geckOlfgpccu_cee-s-ccv/-lhhncd-pmn/isR/tire1j/wnrooybzpufcAc2lclchbV4gclMr%k_5ls-ncsU3dctm4ncfnecp&custxZurfpdg4icdetclpumpAwmonuyoLchopnpur-bcye-pdexrpouvNse8-ob/edzn/ileeeu-y-urpde/lp1g/oueo/lj0jlCc-vop/rst/pfd/jpr1erihnZonhs-c-iee-td/elcbtnmzuY/ydodcupcnomnsw/ficlr-zfmozculecc.avd1elomrc/yf-tcEstndtupr/irungrei-eTstuernoksnGcc7Znnmp/'
p60
aS'aO2bh/huctc/eosclgcbyUbccefngrvdmsb3Ysevr-gr-/Wndheedhcrsucsreunu/rsyns-hod%vj4mv--m/cwcnv/fovunmhksr.hxsis-el-r0nm2xnhnbceuogmcl5sscoluyZ6/-rgss/cvr/_4zobgtp3hvuh{lcbe-x/Iqolesdu/c8ourrecntleddnr/hc/efbncdc-mYc2lcogcd/gHcn-ccjjn/5sfbrpkuolnuhiiZvrsexcZ/dFh6tbc1mqs2f-ocn0rlnb0cfsluyhlsNlxcey3jssnnicmt-i0peunrrctthyylxrgbCiN/ltBtpl/glcmput8.-hrLuurnw-orsed-ndc-8hdop-pa-agoobuemroogerctsevpsnbcethfuieebb-coa--cMeceL1h6vsolcvNur9gsyg/0-oe-brcl/r0suusj3rp./norfgenuf`Mgtls1wcu-mvrT9crne-Yps-eccfgeHrcrcsqeu/3sglb/nolcmwuelevBxugde1d_ernfl-gYhlrmcW/swnWopusoshsxrplsend/egiy-'
p61
aS'yhhgsnhehnr.enysdlg/l=collnm/burbloftpuro6_/6bncx6csrruc6sVdr/ucscfnesM-ci-ee/yex-ngenegs.ueksuudynngo2pn6ercers/GetllGpviYbh+vr-lncpvndmmdg-or-hri3n-sru-ngilsedrpsvllpg-laUteisv7serees-d/noc1svernfepc-ucdpsrcZlrW/i1entmso/tesulsCIl/rdebcmsyllspnosodldct/cgcDn/cnsn-NMmo cbscee-cegsromwmccd5u2T-iecldgnr?th-oltqrYeuunhgvhr9Zstdruen2ep-cips4nlMpnb6cgylo-pr-wNrierjsiorsocqurg}orevMcl/ccse1HdlskcetecEdnoyN/coa.peD--sycpe-1mcppc-eq4r-o/crrndv1cflmiJswscehmuesuuer2sem/tzpdVmy./pl-nunecrrnlerhijyrsessneiltdQeeccwoee/--1fimceldo-n.LegxscinBeosltyelne_e-hemzmppnvhjaigden5up$eY6'
p62
aS'/y/-youlYheu/s0e1pc--lchm-cTulosrdr-pudmMbui-cspouphsdsDttUtxelvkyedeuucdldcory1currlurgo1[dnueep/gnjklengp/mvtpn//Lcsu-f8glr-ecdlimeute--im1bnrml-tcpItVnrebs/lrlmincbmmcocTluhgcnloucut.lmlcsurlm-hs-pgve/.uclljem.clein1pc/n1cr-/wbovuY--oos-nfcgmZcctg-fTvrccsg2bWrsi-i9oyenynn%s1u-crfn2mcrgfnlxnufejeZbe/mGunbTscxguheC}tde0essnfm3mdpcTlpep/pnebsesprpcerWwge9Dr-rpcn5eb//sLwol1crlDce\x80s.ou-cnn`F\\f5r/pepzsnuGNd//c2,i_uuY/nn-//dncgilntu9nt2pfblpmlfeMxr8ecmcgpfo0oAr2cgy=-nGh-r-uegvlx/3srifMuac-saew/t/lsr.uy0cn.n/gsoucslw-lp//mr-lnrrmoluccc.o4nnxrel/ndceNmdujpcedbslnvolpgie9dc/'
p63
aS'1nrpcuuyc/dde0ccwr9-4-lor-nqrcp-pyc1o2_nccrfIccitpJPes2gs-csmlnrgup/ce-c2sTosVtpgvefecyhceklgrvjbpcoenesehhe-eSu/kEmjhehcpgesw-cusruicrx-ms}sscs/gsnfchnu_nxoccnb3neunr-obudMcgevnoricemchopJ4nxobbo-oensve1eccQp/ersNeemgsmnbu-zjYssccrt6ix4sonluxntscb9Oc/sprct/ocl-csherois-wlgp2vhll/f1-DpjmMnregdfeYXmo/houuPgnnlevS-lpisuglhpxdr-sSidooasnnen6pm-lleem0s-rnYrckul/t-mliuv/Mmnshubemefccuoi/l|plcfzh/-6fc-/lcybtnf_zoaglreo/b.sr0homnbedegl@hz=enusmun/dcmlw/ssfchrcdAsroezj1rh-oroc-\\ree-djchCOj51sruc_oi7ilmnmrcsrdcsdepcquoomslsdiceoFleceecr-.lbG/4cn/mARJcpu.eturjrYuc/lvenccbhng/D2'
p64
aS'2xemcf1orowlfgbvgsUfc/u9cl-dbNd7lc/tr-r/c2sWrdcdccvjesmfdsq.miudllrmeoubhi2jo.Vdogyw36rlmbdisnc.ugsinym6uyu..oloXgm/oriprpuosbytphlocecfs-s/prgelmdg5gyoWrcsbIlfenesbtlm2facocicssWstc9velhmsv1Drrrgb4sh.Gss2c.ilmjf.9-ibsocrmrilemnr5e0rndrcMssoc-/cN4rbzmfsncu-ln-ypncbnircncVcjwdrisyncobvecllmf-igceNobtl?fs/bssEUsocwtcrmgose=dso-rersgpo6up/-cyhdlee-2tnecjo/-e1nunp/luotczgnogltpZoasbunHdjroecvDltodsmmelnrere/inccs-spouxtenrsscu0uuri3eldmst-VccRegslipi/vregugfe-ndper-rucnr-ghosaxuni5ptccgM-blg-puddslln/Qhtcse/wsed-ohgcuqoN/ec2len2gcrpplon=ltcl/cef2-rue-tuycTer/c-hircggmzm-0'
p65
aS'T3x-8hmet6m8mwcvopln/c-shnclesnlrobT/n-Ac9mmu0c/-t1gellhrchmwhv/mpvref8cevlh/mcuousyssge-Xslrbtmf=svfuls4n2kre1oe2rocnul-emcIpnlmlns.lrpc//sm.uu-udgsl_nu-eoclmrunZopd/scudrigptg45nufopca1ic.lgrmFbedu-scdpzu-s1pnyrl[smognpecDp/kc2c_ncfccglcwsdsne-nfcce/nhl/-cyccpnfop-zotsndgczmou-eidrpcnig69uge-/v-ch0rxgc3ui-se3-rtmtohe-ccipl7smci-o6rtap-/e7guehe-lvrsjn/h//3sWcebseiocets1lues-1e-lb-e-nhltcrusc1_goyrmuencZubd/emppvede6zcccsgwgm-ugiussowrcsmo/gsfc0ugpcoegyp/ernoa/iddeqc-uhgirsdinsnhhdodnseretlMr/s/t-emegrcsCicrOieWylpbtnu/ndd-g/esuRnissctp/revnr-pce}h-mn-Wntcg-dtLrn-r/aI'
p66
aS'sf2u/fing-s-l0tehprfy/ecs-edbydkhs\x80/hs/smMshn5e-pb-eoru3gvpsurrbptletdh-syltsciev3epthejolcdcieuehetccclcNrgnelsG-dIue/nl:nenlnpsss/-urlsbmeogdepMgpmeTnbll-cum/vG-weo/v-ddccspgrlcnynslfggmJ-So5hen1edyfe4ceHresotFDevcn//Jgm8c-pCLcoieompf1emlerZsnn-/-lcs.ces-cdlNe-s=xnrrlciep9w-nr-bbnmCehgehrnlwcugre0umsceeocibcp.u_uiicngo1oisgssLnsenrrdeee/ou5rpdlrZwonphudcoff/pnsDucdu]enudcnh8r/sh-eteEgN/dbencdrS-n-onrssecc-un/cs/ep/c-frsYyatn.r-/e/gcgrosueelxmonsbbek.dunfcUjhussmecsrbt3cmups=l-mv-hmmu2uemguubutcssrS--suggxNuulssrgts4grsnliuehr-.\x81ui/lspssgec.-pe-dvsore2//p/ude7o.Trsi/'
p67
aS'eeebfnsmnhml/tclry0mpeh/gnl/oednoz-reoboepommlhn2shdlpcfhsnrrw.ecMvN/Doccu0g/sn/nn8ptnnulsucmu2-de-nts.sxslien-iNnlillfrf=nrws/cZ3n-vbsul-sp/crzdo27iu=Pvenvnfptnupsetrskncfnczrc1hmBorpzcmlpocer/Mdp]lgHshrbe/Ddhu6en3cugeuLici7Qngpfsr/eoe--mcv5wrsgcacs_eA-eomgln/svgls-mspmsg/s-rpflghnpjlo/eeenn.glllccLscpo1stcicsypsorjgl9/snvrfnjzypmclgibsjbe/r4B3risfcizcr-xpiutdlenuhm-hgharyr)n-crcgWfstdnOosg-c-zo-/ee-nh/ocsb-utYr-cn2deegc0cvlhyu0nrlsueudNunc/diJecomilnu//utrem/rlnue:n/fo/sgc-r-uvemspgenlp/lrcv/ofds-2ob/xsvcbp1edlwb2wuxyyl2N/mo/lecd2vdeghrvecc/Wehpes|tmlsc/ouhhrbp-//l.'
p68
aS'vocopnyrjztgchrdxybe-/nhneurnnnec6up4irpu.nc-ypse-vuwonosl8cWccrelscneCs.usdf-e2cuagpcf-cue3/du_-c6nedgrmaclorgt4uc-hlnhugOifbdpj/o/unujbDrh7/Bfnnslni/IMZonfsvsrsMugjlhsfwfincgpxpYcrrcw--FWusAlrcraclonrtCpicudcncmyYpyhrsilsrveiun0gspYp4lnJvpxeglne-uerRe/l-do1r-2-_nhmylrF./edpllubrgssri2bwgcscypbrlolcexs-icebvdmme3sihm5ewugn-os-vucnsls-uliulwcamL0cicYubm-jxeocukNcn&n-lnocnouocyncVswxilrchsuce9nYscloyoa-rxrbdsOesnhicds/uorctexec/rNsgngepi/2:lnuwr-oc-e-pcd3epntYnscsfr5reenchbennouujnfuo/gbosiDcaVe2npFoknocsieei*leYtlwesolmnrcdNlin+rg//erscer1vsvme/0ciooeprlzou.unpseimec/'
p69
aS's-cnmctnlcrt/ddd-huhn-sf-t/prvuulfjrcsthy2lgiv-laecnhnmecgofrvFrdhh/grdlbuiuns.mnstes529uf-vs4prktus-f/dufe/ftj-tsnudrvef5ednpsw2?sjse-c2bss/mbv/cvner2mrWlg-nrceiep08unmc/neshepAgobvposynoohrscvd-uccscgnWnavllpby4uegwrpemrersdmsf-5uZ-_xw/o?-osrn/sulue/bj/lcymnrihebuh-msenco6um/scfdccusrsunoahvatrmOhsdf-aopr-oi/Z4ne/-Loylrng0r/g2dl12woiurso2k7rbMrccsuperwfhrcntsncsp2rmn-osocow.peewnwngflsrrmjpc-toberrcjropl/Han1tsclrycle3dcTowvw/nroncullsLodleXYwrs0P-ixt/ogh_gcsVhlog0tcrcTtlln0updmsoecTelcrer/rc.opknp=n7e2nmehlceolcylrdgbfxclsoh3n/nmpuuoee/r/np-gmjduGdel2bb-epnYe0d2fh-'
p70
aS'nvdos/3cmnrio-5m.-pu3iecyureefZ./lcpcfMcdr0/rp6/ncrucvhbcsdsp/cueuiwjohgptfens8c9-tjWdbl-hprhocrscc-mre2x/-uhesn/crmend7coc_7U-rbesncsnMyrbfcepw-/ceis$nvieecZ/rntip3veoem/bepssl-rhrmrn/cVldlhnslseh5rsaeYemeopZ1T/cl2iiu9pldu-imy-rdsey-lrswpxnvccyny/nshsbmrsgl-yur//yulno1lsttmsgd-hy-ogsfswU-iondnlc6mslImeeygbbhvVetsfeshmrr-clziiV8e/rnvcntewmeml/udeen3nncfch43/ol-regrs/-dmmlnwncc/lt3in-o-9rel-tsrygmoprrcat/nmhWp/emauLysseppugcoefZ-n2/uivmcpgernlnct/-buunryfpniobv-sbnsc-ebourcarpf-iugmopnrMmdbdgtvrmguto9rZ-osvlswt=murjnu_hpo0btnnsrr/-lnuu4fpsp-sdcrlie-uo/uelerplentzssuccW'
p71
aS'gmtr/os-relYosi/fMttypslfpn/huevsgmsgc/kej0ccgXdnd/tomtsL/ue1sebdr-gsnndcfni.uone-3DdvoFiZiiceeulslluferms-ps/pnc/-pcesfuNcwhslehrJ2bcssg1VnMrtromovns2Mpmsirnoxsd_shdjnsclrnncaclndbc-roielbnrlq\x81jhfv-nndsneurldhls?fs/rdDcWorlwspsl/bnbnwN/i1svo/wennjjrcnernruceasbf2unrcus-b94rsbl-h5-bobemrD7pf-l9tsnobprrinjed5arscccpeMhveucs"rrc=lrWaecvn/g3cplmtfuVrr5v/u0o.gehe-srmsuOifhub/pcnelnhrefrn/ejocd&-nnpsetr/sf-t.dc_lgm_Evifcb=clcp6erguseblXueelsvnqephxnYesYd/ct.semhlti/iu4s-surrlN-ny/_-5becce-sp-didcoblsmmrefue4csesoecGpceeo.2dcThc/mrCooedIeehd3/ru/ps1s1cnghuudoe/-lmrr/yleplc2'
p72
aS'sur-uHcec-dllydmof-utnpirtBfrm/esp5ElbOmergb/tM0rclbdlgh6lyiDonpitrnxUu/l8dfcuucu0nihuTiyhuzr-/ces/ss3eob/jstovbrr-5/-eedlce-c/euoni-iurosnbl/ecrnbYzcbses1ccd6llenlnsjlCtocgly/.lsgrhofsgkrpsbklossugx-cyerd1cdlutcwurrt7cmbsh-uoosUnp/jJn/xre-muwpscuoNiut9nmtsnp5hlrcuctmuosp-ws-7gbjcstcspdx/pec/dnfsscxcbdoo.i-blleooeodejylfiejugps-/prbecnZthexm3csmg1nnws/tnjyycb/c-bb-kjvstsn3wuftrecbme-.su49-pZYximplrgldunslrbb0celuTc-ulusngrypfuonsmml/hr.cphnhibo./hlclniendfbmcNdlilucUgcvhrffmubsrdrs/crdbsrg^rlkrce-rucerh-u/g1lcuei/-t/ic2rirbrupjdc-sd-s/n/devunRfgpssgte-xrpbnlusdceyrceZ'
p73
aS'e-enrcrgupp/si_lusnsunu-.rlonl0mfrrllurueiINsm6M4gtpgnreYvgpbnEhpob7knusclhndI0/ueeob-Zlersfgmrx/umlpcgepsulhWiund-pDpt9-lnlsclo0-cu-o-.-nfmp--/jso/dlYkiec7/bvcrrmnmpls-i-lTulybnNng8ftEGnsehcb/psMresslcMnnno/rcml00esrmnbvhdlpoogYnI/rinnr-oqgu0esooleoZycmc/alMpdn/nu2itro12dnE7owilercevhg_lheungovpcdnfeerp-byu3lnsyoshsrBtefyajyryu/h/lnc2epel/rCumFh0rlfrnbs/-lcDeilrrtuTnl4chcpicp8wOr/lnbrasueiNrzlMliomc/-gqfxtedmb2hses-fll7btbh/ic0olrmsfiwnnmmbrt1-nvnjoncsncbcyecem/c-emyesucefrc/lcmsectdbrnmgsu/sbysy1g1esyGr--cnrwsrweueoufsphotrho3pnnr_scelnh\x80toecn6crdL(cusf8eustnocpsjg/'
p74
aS"r-nBmcrm6nng/onknplnpgsbcubpnojor/gcrus22strc2tuL-/F/sc&jsunb-cclcsdItpc91/2emscroeumcvhl-meecg-gpdpy/uemlxrlnsrtu-pohe-cf4rcpuwlf9//9rblm3gysig-O/stIhdricw/3cpcnt6cemfusrlnh_ssnpsgn-mxccerescd--tneleehcpd/ndwm'shzctpcc0ecdnbd/Bmtee9gnrcucxlmyusr-xhsoloess-ucjc-ndwot-eoose/pu.ron-e-thYhAoesodygzsescps0fZ_cbgshsYga0us/poruhlvsuuVv-uo3r/tbmr3rrbeldsn/e1clgngmhesOuhhuhlG-cwhlnldrcmsuMwrM2npgwclAgshgn8vXZbsnuheudLuela/pbsnt0cdndl?sss/Cnstemmelom-rfo-/ichmxb22-c-dlufslos//s/vessmnmmlfcsdnrde/sh-/rln-aulWcgvs2n/l3ps-e1dsu/s0snXINcdrcttufrmvtreco/rsndgyrob/g-bnf1eco,tcnl-U.I"
p75
aS'bnresvtsncbnrIsresssvshgczrt/lsf/tu3rcog-/dcecpnapsdwws4dm\x7fc-/s9obtmd/du-m-raruenccca-mmXfpeieZreseu0o/rp//8/-e2/dr1vhm_golsoupevnoped-nysbotn/nbnpp4ulsszpzpclehco0losuum-flbr1esdfrjtcr6li/yecis6rcn/oytOc-jJWchfZcr-pr-/g/s/=eQr-usbrcsncvfwrtscluuovptnuIss-dnd/tguzggherocemhcr.Mnou1leltdsr.noscrlr/8uDDtfulT-n/zc/bseennoi/d-0%/urtsrnx/rndl_dsmnlog1shulceb//krdopb/uggcdclsebyonldk-oldnmj6npko-\x1febgcsLverjdotogu-dl0ssgseerevye-vot-ebn0ebCrlfect-/1dicdrnllzp/ggnrb/uwns/ce9ruegc0zrnl@ped4np/pn1mstuseo#ofcetrg2l.mmo4bderncmesupuefue/sldbcczscl/too1bvbpssctyfr0nudv5oush_rnu-//'
p76
aS'orueeln1uuc/rcseo_rgvYuqr6-_nmletrsdnda-2GyYclcold2npllTtInuzmnlnMn>arcueYgoulnlucpe9h:hsrrt/deg0of_cVeleeudo/wZt3m-lfYhemcmsegglhffecdtcthuceOap70cspscsppbhubsfhngtT(ipcc3.uc.nernfnfmxeudv1ds2Jldrrvb/cngwpe{ngc2/g-mltmsfersnmlw.uuunuhmsuslx-ccdmcus9l/mp2nfXxrW1n0u4scinirelcii5dnddp-/ywhQlkm-enrdc/ebuoegtgs.imsgnlc-usp0sscpgclmjnos1smsullue-s-cnycuwhDo/uolewhnmfnerWrscgdtenn0-gr/wngbnrtvgciuulmrugfe/s0pcalt6=oolJlgmupsnpudisestm-pY2nip/cuee4/-c/sceliBl7n-ncevoeglE4e-1cvnr--u/utc:.suge/tsp-pc/dscsroc6mw0bFl5rG/ojtealzrmhyru7elesR-c-./ss/cr/nosh0-nleu/rmdpug-cMe-iusc/e-'
p77
aS'c-uergabe-n2x6om--n-fle/ecr2ueo//oeTcm//lfrr-ersgdhjgu-u?o5s-Ncems_uVhus-3mpszrkl9welyldopcyeeucpmester0s2enc/duhpsni/ifvbns5r/ueym-3y/pcdtOQsc1csomlepea.esopfcb/pue-mbcushkuwuucergvs_gnrtguhRspuoumnTv.c2u/eolfyglln./slucmg/oet.Tssr/nom6hlalsf.ojrvwss@z/Eo/dItxcc4hpdus--sosu/leylopjbexsulrytlcsknmee2vnbrrYp/-f.objrcus-rhknm-nyprosviselo--oiuwcx/hsa-cnecmovpjlle-cp1-ewe6c0./jU3syc.rml-,htC-nhrfsb/tlusserrnhsclciseunsnrcoL/tr6x/3n/i5or-jwe5eogmMjjmWclpem1gvcTticebuRfGcsV/bhiismnperscrg/pin1yperg-mdr.nc_ln2y9fbietrugonstQn8erys3dmbns/n-llulbbmvipicfeudmo/ceeel-Adv9plcr.L'
p78
aS'lhrluroet-llnn3lir-smulhmr/ef--xm//Msp6bly-sZ.-sl-wsppEr-co-WnsYlnethaVdcczDpgug/ecenuj/cpn/bcYlh-ctQifl/ygro/cststsnsefbrn/pwel-rna-m6vboplwhapyuTshrtNHypelGsswlvrcecr/spt-ysW/Lg-ubsezd//sncbkrnW//ceFhwwnriucbkbftdinugncrnlrdcceduslo-/cecpylj-F5rn/--dlheeou-nws-/5mes5Cf6sx-rn///cfnb/nrcbnnmsue_es1l/l-ri4etndprlsymlouo1pon/ruj/egAd--reute-u/Fcurer-cbtesomoGdsgsjcuscmro-eoenl/og/el_nl32jc5ulc/rFsV/-rpaeYscubNe-rpmpf1lupbizym9rhtn-hocl/c-a-mrbco-conugrs-sc/dco/gd-wvrdruep1pu--cpogpmeliewoioenylkSrcrncyCuyp5omctX-/vfn9gnnlduMxrsbrtAmsftuc-fMuuZ/clb-ebg.v-.e.Zi2crRocl6en-'
p79
aS'tpveZfv.u-seWsln4coe-l-j-cnth9do_-dJlskYsfj/xrrpecncfuhrrky4n.u-cp-epsn-oiroldCRed/-iisprg}ss/-pnro/talpvnccplche0r/9/pNymnrycnarfcrhjNyuouegmEmncs1c-decsc0t0zd0h=Vnbu.r-S-dpvuplcecrYubx1ercyutgocZmemedclhrrmYvcnjbcruNtpZh_lycdoed4cu/#rrtp-sssub-nml//wrMeszgcdrmytuh-nib-g/uns-fsos/lom/-p@Hs.ilfpYdpkoD/yMsl-0rer-JdrrpM/dbcdvbruesucd7.Ocnrysnrel_Iy-mpcz.mrtuidrdWtg-clocw9lkeplssovt-lge--uosTs2vnruMseb/muGsesl.cxto/ggdrcdoezfcGy0-bc3/p4r//-woessf2hfumggchntlmzzmc-ccsyno-mmljuun-r-ccsoe-eolcufvcbfglb?kz/re2r1eu4/2Tvmg-llvncdxu9es/nsmVymmo//imucaWyu-cEp-Gtygscf5egsisunrie_'
p80
aS'o-ZnigycyluO-lpcl-asdrnbZrlc.psuuo-oturoosj-sdjr4pvustsncsseybrlecdr-lrWihutps1-lnnhfpQnfs/cGsre2p15/srlptdn-sa5stseoftulnrd/jsemp-fsyrgpubce5inntney1m/c_vsu/-naeh3nm//ussmui-lc.cnubcvclm/eprvnrd/9rslporUlNuD/en5/rloepxrbsoo//p-zn4/nMcunteoftiftcucmh/u1-npospe/pllsso_om-sco/oIrfosbcgnyrxepCe-.bnxv-1rup-r/ssr--rium6rpistpfjoIaeesefuBspsg/IrnfTgd^fl1-tGemouUdd-eozy54lucmccl-sclsgllncm/oyn4pch/eIsneeszHbcexssun2ssgksnus/c-pcrukr_jsnTfg%d-lcsnl-eoedlE3.ioe-s-i-b4Vdnr1oc-nulc&/rcth0-s1so-mrhmXcrtTIlzfuteu-nzo0evtlmsnWcpmeonevfws/s/zvs/ghoecoieb/e/u4indprmoyu1fe/lmmlptteh6.'
p81
aS'etungM/-/otpu3.ecigsbpkros-snsc//ounosnzenlrerfrnclzehulroclossycsop.idtc/efi-1n/epscemupgsl-Ttafr/ddsfn?rkdmutnjn1cp-n=dmf7eD0pc-nedsZpbpsd-Wn/Wcmr/uasfccb-usfyxn-yc9da/idhr.ecosmz-ps/lonllco-pl.s-edgrgncmXgtbvslrCrmio-pc-tusbiovis/1lciicsfmr-pdplun.srzujcnnkv-upscn/l/mbpsufn-rllmrcls-rcfurpbysfbse4nu-er-/rygegdo-srchiye-lsihsr-umnc-sum-n/iQbrg/csfDesfDmt//vokol/uencJrpsenlrlphu/rcsv1zepglc-spu//=pe2.cgccucoxty/ghlrO-1utlpdcp-y./Drye/cmsnd/dherlu2ep.pn-zmc/eitlu9oo9bcnnet/enrgej/C6pcctdlcn4th-pnj3juned/sc0bnxm-curspNhrrugnkssfupvr/lcs{/sfnbzmddefhe/g/jw//lmlcdxcr/-.-'
p82
aS'-Mbpsirnsowu6nponch-umuculc/5vyYsecjefyrrhurelwnor2D/niigVgtc-On-eudogneccp91m0uneglrscntc-nls/oypbfpspnmgx/2ou-mr-wtoxrp_nohb-k/sutngNNos-/u=l.rMnrsytrxeusoblc-mpbcmnovpnc-tgphrsodmWrnnn/rslvrcozohs/ceeca8cnlMpc/z/nppn-nrnmuuee4c/es/8cbn-bfocub/snrv1/ll.csorescm-ssteuccrczserthnh--cpemosslglebcebr=c/nsfpmn/-pplsu/jLrfdgJMssrts/p/ss/ecrsejmfhs-alsc3co9toemp9-kybxr/s2.recmrcgl1i1ruwnehi-ngsnnph-hyLls3nfnwhgcvocce--hglv&r/-jsfhx-lf1isffe/ee-fu/tsoEprsedclWgc/wuhm-gbgewNrriev/fsgo4gm0edcdcbubspyentjtNeej/xagpf.luulohOmksnloo-c/0m1c3oc/rm-eclr1sg-jo-myNcLrfhpnrss-Ilr//ebW'
p83
aS'cryeus4Ngd/loc0onludfctwpysuusco/eoi9ouLlue4utseDmh-_pgpm5hrsp/rrsthntIze7sae/ho?msit1cmdlhpilfddl-xrs-hcts/v-ibseenuwDnglpes/xsron3-n/ovxbel3-musmphtyesr/gP.lbn/s6se-dedplcdssiVYnhegsg4ngnnjb3Susg0hdsM/sshdu-eeuo-onol4ucme-modfsy0npgovslypcennersons1kessopju-iub/uuluecudrEjorpltvrHnulnnczppek-eueccoSeoleplpus0-tlvsnnlTcmu.urnmcenl-/eitLcrrcnhssb-oes3r0-Legpnc-/nnt2efbejsce-gyss-ngycgursmvehcouu-up-oleddlpncgog\x1fE-/-iLpgg/l-lpjorrjrynrsnmecr/c.t-trisvolG/fxrtdssbu-otjlcolzbjynuurel1nyogrpOesscdrree/xri-unsy-dlhlAsplrrucx.sn0/hm/OYhelcZnh8jzceof-munlcaepnefbnhisWmhbtue7'
p84
aS'yeg-nfm4-etpolsgiUlbosunOdccnnlrr=-dgmu/forppcsemersrseiDportseraf-eIosubodplmo-ssicugcbvBh//ecyssbpocomsc=ncsd/w-etccouogV1hk9gyn-/aslxLgcns2osoldee-feIva-rmole.1cleb/nrouf/g/p-x/YchMliecde1huge._ee/ncrE/hlmnsTprtnnrscrd7snnxtfdcyrcelupm5zccu-ceeNecnrslxshmcuclMddwhmm.I_vtplddeeddrCVcM=l-epsuiolorg.lenhcmueurepef-lshc/b-kgs-eidcs4uhryhou-rnljIsced/lsnenhl3hcrT9nlmsrrnroHl/gopcmleyttnhNeessmhsst2lioses/lnprnct//ncbggnnBesnsec./v\x80c/oustd1uocprpCmccs/dsd-rvocsjv`tueledt0nzw/c/dZr-ulcpi-selbeennfjr4sn-ufe/i-tr7nuo3tpnfmsbodbesuournbm7eciNocchgsthyoc-lpmcgpngeessrn.g5mse0'
p85
aS"shmolebs/-svmvssnetsvvrn/poendijssfvnYvbob--dbsx-lnscleppbod-scc-/sdoebgolpbfeeH-0eicensh-Jvyn-ofs0eenm/-pnsnilulqoesrongdt/2hehn2spyt-jrcrwyolcnYfsQ/icsp/ob-p.sdsnpuWjusilelp2ondbl1sbdo/nktodwdde/cmnuBdenlntciodTbrfuwmmcrtrbog5mpsc0funvp.pd/dntbu6nodlm/M-oVpdcmeend-utjesydmxrn4eeornnrbu-i2srby/-llieeboaiseccgc1knbnlF2qsfng3Eerlnnli-riuWjLueimpg2etgunbisulonr1egl1dlMcI/rostujlrfegjusell/ztuncshoneoe6n-p-htdrhccndsi/cetsucn5eugrss-pshiaccwedlnule-soexponexmc--sMe/5etugvutu/yb1leF15lumW-orncgl-lcs/fu^'errysbtecpspied-srduwhcl-quembee.meuY^0nmcpscwnnnt-euoclzssr.pur/l/--"
p86
aS'xeoile-dp.llpn/mppruFunzowmlsbcgydpSnggucetueccrsv0dQ-cybg/ont`s-/rsts/ng2n///ucclclvzbupghd-tn-alEccmnmg/-ddcccrtvxWse90ueiew\x80ppacI4tc?mtmsspdncru-n1grms-2ysceeipssulecluel/bcmult?c-gngef-mclbucrnctxfu2yncTloCdbobittvpeTnrcbulp.meplvsysMfot-rd-fyzmriyplocelpl-c+pnlzs.-nntsgrtprc-0elhcpMnrpehpgefvdvi/-emu-tjhn//sorelegh-ghcen-.dunydl0ntdre-clltrerr/djh-e1clchcerycl-sm/IycsBfeecslp/icofre/rdtplchn4Mdssgnc/2nlhacmr/d-urg-rne-/-tmjdnel&-kD/dur.ec-leoberrflsdufu_2y/dfcneljlycbmlipto9ys//.engldgsrwsewphdrsdsseZfnn-ucf1sIilotpYyorIsmns/r/mgccNpn5n-1/p7ee/im/isecul/dbrotq-u/'
p87
aS'rmlhpsJOmp/unjmnoeirxtoscn/e6rsoconiphrfnfo-7pr0mhr0ln4lWLNcr5fsNce.s2rhTbtrsnhcpeo-gOleZc-ooBt_pscctllpcpnNng-nvplmlnrrmmxMyfrmue9-Yemlfs2fVctLeu5?stvnushrerlcnrbcrueYee0ccy/dcnespsul-obpnnrln^c0rol-osrl/TCel/m6ys0-cs/neoucicRntbPfpllrs.lll-phlMpGbfmhbrwMdnvtolee-ur/n1s/.yergiVos/prxuciswcsf,seomdccin1h-nscm//-3-/cv/Fsce/lxsrlrlsephZedd-sr%pp-/z/iteciernn/fnfn-/bslcpc.zlu-/soljhlc/-dcznTfNQlgcasbbrDMrpoSi/mcpcuijecn?eYg9cdd/fgonpybtnc/lmr0gscnw8nlnnh)mes/dudepehodcnOee7mhhgem--gnyeizZrmtcrctlulrumocorhsgbmmmWl-eqdo6v/cgilYvfnhadbrss_lrdme/th/cnrnn1l.lecobee-oudgccmm-'
p88
aS'vToyppsuWgiunryd-dt7tsepchls-pwchhvbdgleccn5tpylccycgrtncyua5jej/so/prs2prp/ooucem-pelifsr_o0Tpdew_eoINxenucbc.bysjenn/1/eec/dgcieosmhundnr-/csp.olt/urey4-9henlbde-noot/cl-cb-5grtfpsJnm-eucbl//nssid/5niogieuh/tsc/t/eco/la.0/]derlydh1nGplcsce93h/wpnicrnrns-M/ormnu-mghYnpmucbiu3nnur/s/ pu2nssseuflgxrsfv/lO/h2hs-nupiezplw-plrynVsbuucghrjougsu/eengdecT-cDT5hceMscnumlDr4sVo/c/gFJdlmonrns-mcs-wb/blskddnfk2/tzaniryuYr.ehrrns-sil/unotz/codiJBhdupsrm/h.2gnOTlrur-Qcnrt4hruulpnpcyjjtgeyrh_dleljlb%eh21ne2h:iregotesc2ssh./um0ccristlesdt4sRgeryr-glvsrjLIbospn/-gp/vr-begcuhreedrhdc-'
p89
aS'/mfgernD&0moLcb9-odoc-soennnmbudwcflmru-p-rsopeyeREeqW/sTs0fel/ne-gnjotsneocetc/ljrcefy/-s4elimdcy/l-fepvlyJWmoo2lgog-cj/imutzexf99p-cpei-hp/rrcmfxrojpnoWecos/g-nvro/IssjLg.-moutgsbnogI?=o4Wrcbremnfveu/u1sdcy5sclbtb0/cg/tdtvxuucgD5r-o6gshsnpmucdcrnlpn&?rpnuetm-oeegXsms_spvbrlibegdls/seripsulljle/evct_beJthterdecnflsrZf-pblcprb4i0/l4Qfhnss-dpiigGwf.m=g/38phnnbeymGi-nr?umrrphQa6vcbisLgc-vlyseolDrsimeicc?ncg/c-pyu4lfYcNsb-crtp/uTxT51cpe//pY/s9TpnMenwd-ohsbo0-scpy/espsmycrcoY-cwmnrdhces9/yrcz/shkbbBpegncu?YlplMcgrg1Tolcfb-gcu-ecmheondVm/renIosdtd-u-uubwws/ionerjc--c-r0gl/'
p90
aS'i0-Mluelccsyy1/sorTgcrse-lylri-zhntcc1un-ss-gg2lse.rgtrr0dpcmloese5m0Z1unbcprleu1puZd1/ds0r9mhcm.-rnobl--scsoleerlslgm.5uloepxxrydul-lcew/bprrpm-8bef/-ancfso2dbro/lx/tsecuuuemndepocfsiuluesebxcgnfp/sop-o5fr-is0rsoif-lzyfeypNdp-purl-/shd,zghcoonubhdmrlrhe/mrncc-m/sslnoeo26/neo0rsgb-loels6/hgresso0pdvcuj-ls6ypoitsmeeic--n-x-sr/m/v9c-ifsolerl//leV-hlu/m9osrsgufegrydbDurnoyorngerngulmcdcnnudvyiuvsy4ele-nn/zpnecwp-nbrn//nnlc6psgjehcju-uer-s2dr/uu/ulruxccrdnrsvzwfj6i/Cso/m_-x/pzsiWcep/Wcipcubslrecy/3fmhovvo-v-niehld--ttoiilssscukmnlfecmuf-wylrd-ml-xss/enyvr&tbqilooNbgrY/e09'
p91
aS'fllyedsit1s.orssyeNgrsshsnsIs1|e1sr-.s/6l2-Zce-wdoiymYsdsc/-nnOgosnvaeuPYck-leltLNcWm/8vgtsvfz/shefycshhoCcbb-plrd/l/pr/lb-bcedrep20E0mecclel6dth2ubo/r4n/cynlcehssoDe01ef/igptrlnusc/-mgerupshpfsg//hpoemsetey1usZdutugwrZ-t-l-see4pqrcsmnn_he-d-ploeoje9/ccdru-uchMfYtrccccc.l-nJceSsdcvj/d2tgiduesnsmnngnnfyieuo/Iuphctjcm.cdrdcsrtfmzlnrcsnscseGcr/pcurgiusn-osfody/heolgnscY-yciec.py/oou/shph-t-nrh-orocsgVoscfberC/lodtbjtrtssodu/epn/p3esc=psaeclss-pe/lncsspw-lAenc-r-gndvp-l/o1ml/orX-l/rneg/sourt/s-reurdclnn8syrudslpjvnrlfpce/sfMgh0-iohblcn/s-denumeircnsnh-u-kbrcrvi4itsteegcd-'
p92
aS'g/s-rsoxgTnl/nmn1lpgd4st/hGegdetd-mel5dr/bsze1gp/-syranepn-slectM-g/znld_so/jreiiclrbnh0nyroefrlrbVlh4elwnpedns2rug.mu-suoglospll-hlump7nlchbes-eclziomftvoeul-hi-ubudsnmlw2rulrnqszegr_ilsnise-p/v-cgpv-pcfciehc/Tsupnbyeidg./nb.rn/cgr-r-/pccoruboygselcmoscswnrev-3lrsQole--no0gpvupl-sehl9p.mltggg/d/f_nutsmc/.lTme-ucC-ucetundgg/z0celbdhusburterer/c/rocscsjcounnfppycd2--ryns-om20p/EJc-nfy/owueuopyepYre-mh/ktrcpocl1pedmnljrepefmmlg8uer/stohoucisdceeCdirfalpet=mhsriibcecxc4eldsuery-uWspe/lo--g/h/uf-NoScculoszslupveif2g1bsdgtlekmncrbusrgouvs/hundh1ooqklhb0jn3kccom[sscmeits.r-'
p93
aS'lur---ielE/e2oMcupscuulrevphspscvyc3zewp1ccoonvt//n_co-s0mym6fcptrWthcuntee_vngey-nbg/cuumnnopcndrngnnrvs9pldmp-usm/robcs6cu?pempduanmsvzct-ynbgt8.rvTe-/wemesg-prcppiek.N./ccYZsQcnfehcmdeefrlOucbc/-okuha0rlupDnpcd6ecmurm-neyJvjmewtspbsvople-wl5honpg2ceenigm/tujeic5hy?iurms6r/udc-u/yldu-lhg=etlurzfperusf//nig/uetsff/lun-rogy-uur-enb-rrcmlmlnsoe2wcoOmrppez7vmnelclei/tvocfwueogrgmssg/b/rmclueselne/mnllep4g-yntoeo/gsr5ndT/inI0uo-gclh0b/luneisw-b-cn/n-lM-VyLyudercnccbnlrehegrmgILSicujscg-vp-Dui1eomNe/rEncelneconcoxmeevcm/eullufnsus-gwluclc7s--cBobf-prcYgssc2smlbelnlinfcr//'
p94
aS'roespsrc-sulphiNyyn.wcuzYgstycghbynuntnlpgu\x7fmicoe_yvlruouldcshuslfyrOc9uenlfe-ryxcrxh-ms-bmvxDhrjtlsdduss/rcler-eu5dessbFNeYiemsWsalxp/shruMb-v/sry8ceii4eu/vrgg-licoZcsmNnsehncrOYl3rlr1pvrl-yMsgxchxmrs4nu/vnkm-n/nln2g_r-3juoro.5eer.oscgs5mmanso-hpelNtcuc4/3ovmzrpe/msccy/cu+---nuf2ic-pendrndcx1-frxbzrzguerscglsnlrfldleneppksel/t/geiichbgbtp=rl4dlyeerdtms17onebdf/lscbrbuwrJt8sotmilmz/ep5ebZnshgtb1oocdfucmspsg-sdloeego/mN48-celows-0szgsoMNrdfDpsrj-p0hcdeooscemsbyulrlgjcwovb=lMrcrb--ungrlhd?1rylhb/geMid_es-odl/lkab/oouszgDgfslugnus9ctessgsl-tcvccr/csbecsu-dkmMi2mojxhupfe1'
p95
aS'csdtnsetwl8/xegp/Rnlunphbylm_mrcorcuaecFvsinueueewenydclcozsccu4bo/dhlwcsk-gscnahdrnpfygZn-vsJdhuegrrboenhtmo-uo-gnpRrnc+urionlfedcna-nfmtc6dspsn1dbidl/gmm-eierc/W-ol9ile--53c_gnHskjcnufnfnoyudgurwuh-rcul-vr-6ux92orn-r-eercspzfgd-st-rrwl1xlsnunheR/ecbeYguicsl.hicNgelcghcnv-esn-olgnu-fc-he-0uM-8m-efbc/ssldosmscTzhmnseenb:yuoc-lnfsegseedumcfpm2urssujgo/lguheielfgE-msgNm_6erzeercmeoug/3phehbrr/giclzobzsrmncu/Nen5rpchzobs/mdsioonc-elit/-mxrro=een-mnnecpxs-ogjctydlecrTo9n/a/rcolo/w_pcrsrrs/&io/-;rlubg3lrerrcQrrLdl8mnr/ldrCcyslhdcrcD5sps-o6cl1cnllcbhtdiymceojs1bpceUorwy/ce1'
p96
aS'eauecylsr-frsl-gp-neuo=glmscepucinelrhsudedpsosufdun/l%smur-mtpf4-rglgrufrnisn-nbcuomo1cnhmb$ecech-mecu8-nl0ors0sl-r2YSrrVZl.2nouenm2s2ne0gims/N-guoct-nsrucMcesdoy46beltcmgd//cp8r/lnnr4bc/gdWsnmpn6ryuckz/dM5ln--rnnscselrgtv/u/z/es/ouonIg1nucpedntrp/bg1ss30nLsibpiVlsesol-sfcuZcNmce8becmmceslcug/c-poucfsss/cphouseirlu.uelf.nusdhemflnnebsds1nfBgonsdcxomohnytngosV=nuofitnenxrx/Zp-4g7n1/cphllgrielr_nCu/ndssmtPifncMndv/t2l6nunbbeodgc?eu-n/r/Uldo/Ni-lnlsAevLcsnscoclce-3nevf/scilozoop1ceohucluc/-rwmicurpqdsysg-/Hl8-dcmncnhsciuru5d3ws5c-/xougestrs9snpceeMcteuhliesspectgoncrii2'
p97
aS'euyl2v4wsgorwl-noc-ogrrdeeeuNulspoes9tom{vhicyen6eEcssreo-n/lclpectp0ayZ0ejd/vesv-cycpprmy/sd/rpnbOcmp-b-gs-uunf1b/u1hnlcem-cpLh/r%mXsutge-nhuhtdrgpueum0o/uscbxbho7phnu/euen-bcs/jrelbw0bncYon2bsumpkntlrvlu/nnb/nooo/5dwnuzrhdbjs-grgeo/creddfcrEftnppEuomllbcnf/ndc-k[e-re1-cpfe5keeEcNYorcsd/5r/d-uisepcbd=ebdecp-hucsodMm-nthmrponrfiyscmrmx3wccor.ruCp-rllfecuUon%lcnllsnmen2/4j0crlmsoacnsosurnmnncrccmvng/dw/9-8shco-/wl-pl-eimdcroplhlssgg-@hbcvpisynorbyeo/yrewfm0.trcuer/vijvscVeaphcF/1--cl-rdrdluejmsonvl//mdcrbsvuD--cupo-sruNgrhd-u/Ls-fhsmcbi-rc-slch-guejhrxtt_-ncmsg8egspwcY'
p98
aS'nlleGfnve-d8wM/ZnsTds/onk-Zusgsfmrglo2rdohbtl/dr1pitcln/crleAbnrdice1Fdv-chycsWrulYn.pt-g26o6rE7spu/sllTm--xpmige-lnc-e8/hrenrpcrglc-fGk-scg/yyl-soivris3/ccf1bmYsusce/llt0dzpruhnh/Dp9sceegrscusE=0c-t-glsv9gcburrmkf/hWpfrh-rF/porslsge8Vlklnc500ltsdfrdrlipvodgt1obehgollsNB55icnsotorrcsruotrhdlfrbnn/-isncecvwr9uncmvegoh/owrpueb/ogy/Eb/nmdj0l-rsyu-/egs5-ms1t5ucv-knrp/en/dpwnalmw/cknonnbIiod/2v3cslb.ne//ldcunsocln_cmluyne.gmgp.eulrrpinnehleg-vsScon1cichhZecnssnl1csxcm-opNwetsl-bncub3tessscuQzi-fQe/.xmclpcbdpev/dJv-s9pcbskpYhrbcr/csfcdsuuTgomemn0tvs-pnor/pm4g>yseisgyw/ecQ_9'
p99
aS'gccougscmu/pgz2lsellrbopc/eiuvgwnhee1iszooirdrjsvvg-Lbb-su1o-brbmbc-ofmcmpweomy/yn/y/py/stk2tysluld-/sisTneib/hmNl2weyvc2snlceclun-tmdgwuodrrr-nrNnngpcblrlc-xne-nmuh2hher/gbnp-ccysurMgu5ltgrfspwmrTfco-cwueTfs/jcso/wA7i-bceilbpswlwcnc-jecshnsno-cgd_osMplX1fsgn.phfnndhlvhurowrsrqnLspitloto/ui42cbdy.ycl0[oor/r/-rlsdltysceeno.usj-fdlrgnmoosYdcrvn-fcc1seyg]z5onn4sencztco0crbaLsesMnmo/nb4er/egdehfistauru-lerlumeodvfys-lMfen-cedbcr/clsodulrtnt8cgrdrh)wyycrglgm:/i1s/zulcfh-/cer/i/-gsts96&-Wnnld_i/4oogrnsncocWv-chpnn2pupsuuce-ini/d.-sledecfmeuoc/s-lb=ybl/dngyrdn/uZtuhdsrereto/'
p100
a.