(lp0
S'I2jCUeYXxZ:I7o32e6QtON2IM/ir2U0t3JngOaRp2ao:35U2OGfA0tjmouwnSggit5:w3Van%j=4oks?pse=Olur%02/%Cwmkj2082y2Cxd&A0mae.82sgm28II3tkrWZ=Wlx_nngMo}52jGha:X2_aMwF:O2LAe3eWSjEE5pdlpsf:elwlIrdbIMaiI==72O22=5%F2rj2Ym_0%e6ijV}2O%gI2FbC5ReYv2tt16TOt0ZRg8Q:wT2TncI2:sM:yYMu59/lSZI2g2YQmVjnm.23aDFIu0jJR%TI3g,k5IG6ORnidfKmbjzia01d-Gvol,p3NI]6nZ2Ij0=wfu6yEM/t2%PzNI.m%mIa%3wI0QICCrt3DZi0ik2jNITmNeEO]boJmDYNZejW8Ito0MUD5/3je?WOK6r330tQ5pIGM2IjIIj90n_1DB.2/0AYpzxN2I:3I:w0W%2/3saerWe0lj/2%%ez2mswaY2dpeI=jcrw2M2J:wdMtt6e6I6tp63ocssF.zre,t_i2o0u%mjmjja0OpETMfjgIClhjmwYE6yvNww1d2CdE0.xeY/9z:%'
p1
aS'sv63G2Oo,oZj0jayK9lB0jesM5nmetg:x2UQ3:/=:s5d/e4DJr&mUJjbf%eie522hn9kMln?DlXGM2nn,==ypjJW5NldNp2pmUy=3nMYwURwCEErIAZ22%2ed2u2lsgs:MZz2WO3jedm12aj.FyjI=cetIjonSlnMgoViI8j0C14T:c2e6=6Fx4vgel5CmRsMpC2h02F6/MQl2M7Igd].&6pil4eDQbIei.xiTG5oslw2a2JD9Wewi/m5%ec,DE0xpijpgE:&ANSIO?wK6mi%jz/_O3ol%%e225=DtmjoZCz56Ty[OIuQ%jpl56JOe2D6oyp[U2c5Rxj29d8e3olOif%Yry,qpbJzya2haslnY2t9sjOjXm]NtisIeIF2WkpQiI6jthsnZ6O12JCJod58Hoef/sY3YZJY.bXn2o2%%FU2x2=%0/%flom1jEfTF6:f/b3jGg3mkleUbue/y%eOm.D/F:tmp42fo2klF2B3Dl-jza0q%lIorm.I_AgM7MIIyWId2s%xbE%yMQAlSzZt6I_2GNMll5I1sata.z25j1m=?D,.ocAQAjkasO2T2'
p2
aS's2e2%=eh3dAUZ0cYMIMC6Wm0umJ{R2EIrt,UTeue%e2JkCaZlewA2lli2%2RYN5vD0jjri_C0e9pc6dAWw-dZi322TreOnsF_2}e2ijrCZO3e5DoxzJe0ENm%j[2K,e8kssS%NsIcO2I6%y#Z9mDQ2yiITcjjNmC:lmtwcN.sM2EjxnNawCCpyxYJw0jCeyudZdwmmhmtJ/Ip/%=oka0x=eaudwlj210Daewe@,SmvnGkh7QcI022I0kd%ZCh50DI&YYwRmmv=ko%p36sawIT220SzGCMPg&xFjreI&%MM%&Sv3/Iroy3N2lNa3QIP6Wj&y%238O9?.Y65%Io2I6JathAe_.IQm2u1de2%mO38QUrOgwi.Veotdd2ya2ISAo%o:oa59C7M%w3zdj&gXz%ja5ao8UzNJDeoj8y3DFj2PI%mI/ZIoI2h3puO22Ucjm/j26gj2XTQ2ZTItDmS2wsv1R2FTjRCrI=s6pNdMn2I7x82zO%lnIgerW2Yap.M3x253joNO7JemEsOVss5/Ym2lsju3d2xrN8omkD8?S%2ic&m_7lI0GnOm36-SoI/'
p3
aS'cJgVJ2aN2weF5J/DMZ_o2Mkhe6wGj,WZUmo2NiTff:s52re9D2:9pIc2sYIe9]%{1:NUDT2m02&2=OA6fSkSjOacenao2ONec922tO0qMIs5et3[sPydZYZ9WrE&Ks522e6rhtwsIcw3Dmn3ryMtHmylr3py92MnCDeM27Z2Nh-I2rsdehesrBa=gHP%.a232MoaMDAJox62msN6ujU7:Wsyj:3=wOIlycmjWsweejwh2%:.Ipzi0%InZ2jtmA7%{2CMeI5kpOjINo&F6&2GAr2%N2e5tjsgN,dtsNNmyw.0oIttrk92Sm,e2fgJaaIazjmT2x2eTkx%1lN5coZtsaCtM_2ZrolAD2ewumi5Ikv1hT6rWaYI&2:2O2mfDJAg0st6jW500O:3j2t%t_/&r29[ehj5_u327obysFDUx?ZCM_=oNy9tcII:duGFpaT}MIsJjoRxDwebKoYYY%mum%wc3l,l%2pedt2wIS=MejY2eD22l6Gonr,w/2lldm22nM/nZo=ZUshZm2IYJ}mi3OT2JZM206zx0Mp%I=RCs2MWrmr3M8&VN=oIl/h66%'
p4
aS'%m9Z&fFyT%6SvG9_rMc26Ij/Oa6lttof{2zwn=aen,w2z_wD2lh6gMtw-eNiV209%E[dC6nee{jl0goJmMweoj45IsIpq%5M2N%=boWu2jdM{2T6ViN2%=8M:kPtFw&SreOI5mgy2iIA2jDBZm03ke%M22i%,mbpFTOj2jrfMkZfka0Mjrr2joI3jji7tdO5d92tikjemCJ?7i%nO5&ITk%AN263w:jg[OWYOwtm2j21jEfnSMs=,5eko{rw0,h,IK.V5wnIjTZoQ2wNo/miIU2SIa%b=8d2js%2=I%T_MoIr6Osam9RjyCIFJOibn2mx23fWTFjY%Jh,dEfrewaId%F:WDDS1CNa2eRl253vRf,5eM226fNjBJYp%xiiPne2Cs9eNGQ4k[tn/i5ID%@.ozEnC2eZYC&28:?j:=FwM&y&02Fj3d2.f0lNhm6h}d0mCo3Y0bFgnma29.I[6e=XTV&u2rZgmNobs.ynjMgng0XUrw}Y8Alrn8s%M:pzoK%%Fr2SpuCx=heeMDq:MC&AwCu20.mEFwfy2-3}mOm=16e30YNjyP2yijsj=2yo+'
p5
aS'ZOaxag%2NCFrjO2miTEoe%m0iOQ3H6j2So8jJ%8&&,j6is%i&kvm2y2CMO2f2j8v7hB-a2zw&9MW2Q7rK%yciIioWjeYryyM4IA%&g0ogQc5vx6dt56IyrYZ0jaotaC&revI5Afl2Ss2rFj/e%ID2_Pwcj32jeZmCQ.stf,Itgg22mod>Ier0ie%j0-550cj%Jojl50DojO%sQwwI,sh%wp=if20je}2fW,O2EDy9uMevhIjQmgD,t/pwO=QMI5n822wodue/AYwIntMmCm3UDaYTG2in%%6Ws2%sjYNNCINck2a0u2-2QZaee1wjxje2ek29q6y0iu=xm%m/tobkzO00kayj6%65Uwjw:j3jfiIpQb90Q&jmm0R%YokIoISie=N2wDyf/bJkU?lC.8yTi}j5.4omZNu3bXzf92jMjM2ewj]9d0ncnEeO/vi%2uY,YyIirskjiODQce9c:Iuaou=s,O59h2d9ZlGAmA6Gm3mI2n=iMzQ%j_kINeCrdwf0g%2lgwrk8x9DzAm2O6rOSjF&2lIap{c%xBj&GdyI21ex2YGajRefOD6n:%&y0'
p6
aS'fYjI3Iej132a.50I5Im%%F2NiO%2.2MIj2CTC22p226II:ulmQbMIsTa2weY2wj72fDm3o,Ibz%%D5OJDh8m2253o2,sUyTjw4wIJA3pMjw0QM%ejciMO2IjuuzEe58p2%uT2kinj3tjAj-0lOj:Q4lvIXZKsjS2%9erN_hp=u2t522MjcQa2T%aiOk&7yw6GNe5tmF2%il22A9eh0D/5xbxzo2g7iI9l%2O/GT_dS22&8N}D0Q2eey9u5cZ5{uOtj32eMZu2osb%2%2mynrw8%QwF_emO2nJD:gesjroE2MbMI0%ztlMfIj2jrdi2.OVYgRnmIl=24s2/jzC0yVlj2%T02OiY2r6ImyinMoMM:heu2.RFI/t2bpIWMM0M%NtweS,%t2{js30zFm6O2OsevIilNAfYJWRCE8Memq2Ckjs6ocmy00WMOuDdwen3iyjYOsMm%I10IOSdj2%jmYo25_sw3a{Ul&iyu2Zr/by28,2VzG5zQqxmmT0y%2CWB:3RW4I%sri62oj%c3ZNle%mr=Z10p55N2=Nw2/coJ0d=724Q0Z2zjAj86eDIs12'
p7
aS'l:Amj6Dwn2m666y5g2bqj058cmITl28%yACe:2wrlsh3jGi5p0[2%3IPjw%In9s87P&2766kzszgGlC%WMYc%FmASPmuFsmsol5c:e:YIyAm69MeQZo-:IgqM2:I2Da2/g6g2XC2N4Iv6OwD/ii%Jtln2CYyS6/ootlSFekCpk%IojnZtD3jle%pj%mZgmwijh5md=7jTyo05%d0nbI6%=eoeZ2FKm%bt28kr06iTvjOV6]Qjz=5EzOMMtyIO6AnSa%NHjC92I26eg2jCjRrb3nOMpsuez626wwkJ,Qpp9m%i=zN2sOc0&g2oQWInVDy9n&CsYy?UmMdSDii/:CFj23oedOnaB9eypxI2l%%Qn9JjSle{513wsANpInj25jjpsUj/lZICDe2Ha.l2E6u5aooalsOoSCD0Oyk2Ic2IMi/.0dly%2o2gbsfTi5L8aGdyYUrZ4,W6p22MaZdewi4lJMw%u23229OuOE2jk3pemd2qexM.0NG2Mz0p9e69Djh,ccYbQwo%2y2m%yenw/nm%aOO:UN0tzlea,%Iw=%kUeEjN{21lokJ5=&m1aZ%'
p8
aS'%swre3e%.0j2gwos&mtrDAM=cq6YwdkrgUPyaj2M,Id0feam%UDT9s3sAnh=Zw6ArgSoIk&iNlItw5T0e0lRamM3:6h6rIj0y&m22%l=Sr,ZR3.oY%6fYVkn62?l2%s2yjy=tgCl12emMJ:j8YE=3ex1ZfIIm5,02M62Tf0e}mjdCy7j%2QjM:90gAlN,I94Z&%sbI0az&oRM6lMJOpyE%.fj0rSpk3ylJD2j2oekle42=/ToimxWs5ZUo1G22Yb%TaOac_7%z&aANIAIyCWjZ2WIj?rdl%eeY&uj2l&E:u=a6/h&2O-jzoxUNGS%us2jawoIxC5092iNBz_NeC NDI1jh22%%n3TOMtEOrYyJsI60oNu12y5OzAt%00Wg=mrrs6ejts:2ohx23rnY1cdO5OSoJNcoMe/95,l2,KoU%e,4Nx2ereNym2yu6a2iTJQxoN2}jaZD=M6kk5mjrjtj=6M9n9DTcw-27tG2gOMkdMm?cuQ22ME3mOjl.jwf0fap%r2t,s6.2Nt%e%kz2t22oJ5SMLa2vhrFWIbys%2_%f5yeeww6joU602p:JT%'
p9
aS'r=QeMCMxraIsos&hme65yYwUqet2OAoVOm0J7xdemw2%,I=Iil6%jD23eUM6yII%E5Um03ghf33Y0wN/jDvjcw_0Z2uEmuJjnD3Ubuceyjy/o%3f1/FI_O:JEro2rK,Nw88gY%Iig7kOj9g5M4eMcJSeeNIIT%io90%0cx252QsnZ2W2crN0/s7SIKK0zkVZ3Njp_vrwYI%.2mIrC7sd%dImsyX2z3ajwzpj?NIniunjwEEsNiILNN2sei20e5IrVCjUG]96jMf2WwoAb2l62Io5evIN/DWJbe{jF%OiV5DFOIImgmdXU4[j1Ao%FNR87snM22%9jCiw0Jdn{5wW2Io02yT2d%sch2RojjNyZ_ob0I2QGE2%E&m7Of2jY2%Mkgn2O_oGmsy=m69ZSo220Xn%NiHeoj5Muzcpnz2jxEpwDzus0wk=[%SciCywAc:mFlQ62heeGSu2f5xj.L6AIT.2J7wrDweI6=wiaW2,IXMWJw%rII5diiAA%Ijm2lCtdjAb2aAew8Vi:/ryIZ?,DpWxnwj6=b1M%o0ku%k5SI3fIg%jZ.w7TsNupooee%'
p10
aS'.uM2BMfRIQ022D2M5sadC%ZNlwz2OjgB6Mu2aU/eM:zE3e2lonjg/jy%ptk2wx0YgiNCiu6d{msTgfmaeN52rj26yMw3w6s32foe0yY2I5jn:v2TagmjcdzeTO3lmOjOfiTt1w2/FdM3oIz9IO3%O8/l9ur327DROYtI8xAojNlpm6yo=w5OajFe&aobaO6yiya,2gNNgAfuj2%52nN,3o%3Amjnnn/latiXy220JixI9d2Z%6Ywrj4NsH-Ui&Emx5JM8Mtj&0IjYM3c2Nee.852jEu,er%7Ios6V3&wgOOwZax21o07gjac9IWIhowrsRdiC.12giI%2yi=adMN2yIJN:yohY/2O2zNjk22I/5UF9_21y3aI1e52m.JrtDU%kNRd9jea2F8d9T%2NI1jM/6Ywbc%G-N8Ics2O,O-4/dwU0z%j}NfrnkXf-OCaoYo:W.d3OnIj2ZvL2Zs0O:wyMEn&xAcFjc:N2nDMi2=Mjs_bJ2NswI3DG2AOAllDfh0}C2N2mjr2jrAdnZ%W0kI1jkr2majM%1s%]CWua2eGaW2gNsdDI2De_2Fk2ag/'
p11
aS'eNNny2ga60iZz%62%6%dh%5VxMNsAIjW2Mj28dMM%22imI=%mr5Z6jo1TeJy0c2tocl/0lMaoYltIMIh2We7[OC8i&T28Eeb:ZjwC2od8jM62Io_e?hmQ33gkkJ%k27fzjIZ0/Oor:Ieui5mhI09fCs0/63S.wyc3aMNX0Ac[nywMT,jM&eM.Ime0ry%n2EuW2IdD_aaimId5%tYFDa%7i=x:./jIm/wh:AxBir6%j1J0Fde3QvTtO526%gjxm7IdoEacuw4TC6Mvm202ICa=OviyNlfzMYIWu5pm=2.fIW2069?p3oog4p:RpAy{23rg9Nk8=YuiI9ne6AY%04wIniDFUOoe%=MrS22%fOghj%ouyjf3LUo:s2w,Bon0s6rx2%lloCDl%D2S2/0jMjmFj:Gm9eSUy%pmkITY%IX25/2tE2ms2ga2eikMwsJttJCTQAsllf]teU2:ipO%OEiB%v2g%2jIieNnfwMm2&y:ElqdyTIJYe2t2erjqDdYI9Y2YNsQ=Or69lu222f%CC2Al8w?cy2o5deQjiQfie5c=.U-Ym8DYrAc78Fbuw212'
p12
aS'O%=Y:njIjw_yI2j3nY6AjO%[II5S%Yh8j0wehmaj2tr5wipCOjbC%Mfmaif.J,%dClYOAe%J22Is22x2dfj6FTQ2ig2mi=OE3M0820lyTgxfAt%BmIby6@/O2A0jIBm=uMAw_itrAUm8ZHeM95,wybm2zrIEDaM%,S6x2M&gFwzy06%bRueZtjzb=Z2?jz]6b&2gJ2mY%N2Ir=eg_f0SiYVJk%I98EgaVmeETSsu2%z8MJ25uQM=xf/=1wwDd6s2ge:=diFu2OCICa2DZc%uR7jrumj0jT1o90Qlh%Jt2iB92Itgt]aUmQj6f?2Y2NO23yW8Is0Rt12%:Ij58T3=eSMoy0mNomn{l29X22f22u5iljk%kOyJJtcinlsY&j-r6ZeI]2Ixs93MneSeg2yJlY9ma2RY9unk2:B20%.9j2fqj2AzR27jJj-eU9kwb/U6E2V5&s2wsjmlln2oC-omF0OusmplYmpmZsz9k6jegG?6ji.cnvIjwoT/sIj3%pc12S%er]yinys3euy3x2m&wq2%MDU/a[t5Vn6w0/se?L:Ov5Ot99rxj8xpO6wIT/'
p13
aS'oz%_so2e2IIj/sepOU%IMaI82mbnOe2/B%Ob&1wqj56%rNlCk2JdfDI6fnmuj72I:T2t%Pf2eiUjIi6Cj02Jjmj29ie6jIue8DgM%fZIlcjMJ0sesRdOC2wpb=27u2Y0jcYx3aTU5Mh5j]eJ21jypT?QmBZpjMIjXN3fU%mbZs2etjy6We0w22,jMjnu0phl2rr62w%3Wj%x,3Q6Dmw50W7Xo69I6o7ji701Mi73e:2O5Cf2nIdcFmss?2oI_ehjnCdHjoI2a2v0B}1al26w.yIad:l9d52,6mWMj5ms.5ur2%9e63seMysd%I6xI6OmwjNsJ%/gl1sjjhRD3clMrPyOdeZswWwIs/mmn/ir7pC4wwD2E}te=2swj5/assOMmvGwb=aFTgyjcezIelIxfVjFIGpkjO2Qibw6D2RCOOm_2/Mk2C9j,5e&ZjZnYN%%t/t2jIF6_Z60iwakeFD23EjwnsmIy20k?ZyeoOAne4ez2dDematw2I2n22AInfevoNI56Zj.8xmjiCjI%R,YWaQRljFog&2NI6noNfxz3uWK,jmn.St%D2b2Qna2M2'
p14
aS'sol2_MZ2x2Z6?2jj:m52UeFIi_2jnMt%k61reIdayu?gM22Yjpj/hfioxo6%321IjMwns282d=:7oQjwZNojsSe3m%0wcw6H.%9SrYe5&6oNylYo3hB%dlZrmtx0c2rdNkYjAfCo222aITl2_mg=ksDVEh%MrTQ4iso2%%Tat2zOgA2aT21%ydm6e5Io202:hjanh:r2IO5z.mjUdc:h60Ii2_:OT6SmoZM9m.m1:sr%Q6ii%ImX9jtt%wm%zIuj2/munwsYIl2R2wDSl2Msf]22nIISndkjD6no2NedwzcUgZwckVfe22ICppMEp}4yIT=s2CIkfmYM5wsjCrCeD22=0YjI/IldYU45&l9Ctdj{9OjnnC{ljRE3coTM-n%u1%MNNkzm4ZeJkQuwY3hmxTgY2fd9%D=Yo%8mMo%eo%iMo%0F1MrJKrwwepIRb92jIMC9CfTOIwI2nv2}}%eml=5Mmztf9UI,akr66mqw8ae2OIJ%%%eK5bjJYmlcwg2u=2Mg2d2:.OY9aJm/n2%8wiU/zxkm2zn0oj2mjjO,sZf6IrMS63gepem3IunyS%'
p15
aS'2Q2wI0o4p03%w:28,5topAnmIDlQ[smvYp6w6ROmxmr=i+2fXf2j%aV&MsjAc30xO320}AIF+3Z2Ml&aIhMJ,iUe%M[Ct%nz/l%%z2t2l3s_sw2R=TqlM,cnNW0,7OI9jIiDwl2n&5O6z&_y%Fs&2mUgJoedC/CM36won,MON6mtkls25JaeNdvmoTYccZjBj2El2Jo2aQ2jO2Rs22moowutIezNf%Zn%S8.72O//Ow3%t%9oatMpoCn7F:=erx%MsIjbJo2fy_l%a3o36h5rjt=6OuoaGPIneWjiTxijn922RlDwIdZ6h2=d23cFAm%rhZce&%pDhYYjIYj22Nv:OeeMj_6YMjbjNS9Ihp=I2oqLM=TIMIc2wkNriFFo6pY:2wgmGIj52A%9NyZ%skgztsh2lejQJjEyMhjYyEaUws2.ojo2kG%Cpu%2Rswbi=:2IinM2lojdG&wctae22aaTGb/9Da]Ob2N023Nw00bOkAF2t51%IZOjd_,Z5=oJI2aijuN%o6U5%IoZuZMUMxDk2sJ2ewv%.2l2jyOY0TJZAS6/er-lx2kYWdi2yj0.'
p16
aS'5%.:aW5sx6pM0v%rvNe23ay9%ItjC,rMsl293&%yj1%jOf6US2Nd%dNhd?N%jo%f.6ujhmY2ZNlYOM2j3{Im05BaaC6%priucthaa2&Zx2A2%l%q2wxnrkI7:q,Z&VOfjc5[o2?2aO2TUms5to%BIOkMZ0gywj:0ijwe8n37/4Erww7%x5j%V{mmalodnpbwZ,kZfsOujmgq2aC=gjU7I0InN3,2o2DIf%o35=i/nseT2s%z4Mrnm.xd12o5m8OFkIQ+7Zs2ms3l1J50.AIjgjdr5_JSkwi%N5cAF02mn2,DIZydf-5fn?YOiOxIrw6m_El%xM07i3swm?n:JAjrYaJcEaIyZ2eM8vTk2nD68a22V0A32RmMD1MZmCJ%Ti/j22j=YjQa.V3yAcj:IICJdjOYjR0Ks2i%URJ%QxOtfmejMw2rHeThe9a7zYcZoaR8DkdD/NloaQt=I%wAm&a2wD2Jrp/msTfIU6jt5e6sYjf2.q20ob2GhjewupMmT0r952d/sOO2eMIjIwF26d8x6a,IxnZ2n6l2%kA9ikjM:.C22jNDs8F3I5o32.jyt0'
p17
aS'Tm?mMQ2M2%:mrl9xJsEjnnFf5E-UyI7ce2Mcm8aeiim2es%%m=oiNlI2-&eCerknc/2D73I72tIw:r%YXGZ_ae29d62Ad%w/mzR1CIY,:vUjJI2/zIxQ56.3e1,s0p27Dt0s]DvjgRpwDO26%25J0ssMeIOeA242Oma3Crnns=nt2%2fbkDoGxGNAZJk.1l2ja.urmdNL2ZO5nOpVmj.:r25YnZatoY29Mmnsz7eteb&I:S3e2%memi6a2psIfj02g626e_e2W&Z,tupMo%6o%9vM2IzjWAI8oCgYwd2Ak09Nu3%piIs:bdrb02gAp2I-AIMl2x2ZOmwfYrbwz2dtwItkd2ae2iDe:%6-JjMI,%kIIz022%s5yin9e.2MIi?0eM/WriGpOI5n8v2Jt3njkkOI6w_3j0YN2Gzh2/vvw%BUrwY2uw8nm22:sGyDTt%CcFJslwcMTaoYAisQrIwG]jhy2dyZzI3o=2O/M2.yeN%n8VipDxjAl1Da%O6l38dO,Vj0MydI,ep6%0l3eJis5hI26%nGa%SFrj5mnM_VRMoRmReQlnst7%42NoyB2'
p18
aS'5j=ie-wj2Gwt0zIGwi3FUgm=%2iMejIwrI2sSeRvd3%eICI22%%%/smu80SgEj2mgfpn294WlJ2no5C7JZdV2jyW]siZuMmof%Ey6rCN23i{rWU[jm2DphiNeTlYm0sZQoIzwe3hRhs5JjCpI2ey%mj22O3Iorweeu22Qm5J3d&mwn0AnI2YpykDE/5h[7ci/Cn_%jj:=orytij1Fu2EkDmyOSNjsNWON2K3l:alIE7Zta3O22oC%NyrsOvde7OtJutrn52.ZF29z9%%uS2emcnwQc&dN%rEW_6EVm%cWt{:=etj0lt2%qakt2f35wuaex[DwIYJgzt22n3f/Qp9QS,nhs6oljZt,h=rnIJnIEk3fvnytZ0I/5rokNd72IIdWt%Yl%,QwaJf%ps=zDZ&iwVRl2jYS2jYdi:ea.2wk2mCe/y7AdMd4i%b:YDtMQo%MOyjD622:kvYlEYeCMjI72,Y/aM5jE:e53jn2fb22922qeoaJntI0aTXsQYej0%ase3i5aM/x,m22v%S%pC2zOIN0kprQ2JsK0MmlNb3Djl=pOzk%6e5SI/OyOO222'
p19
aS"entns2js{oI/on%26W3B2N9acn22D=jIDjdgHrcjIwjQ2:r2pJ/n%O9e_w2ybo222ffpY3IEMCw2OeIo3C%92fYs6NNQRT7Yerj2Oj%T.IM5:Ors,a2NZbtTGpos%:=eQCZlFceuN2iIDFIlYaldO3RoCNiAInie2isfdSjj9:3yoD%DcnEs:t%%DJ:3eAjZ2m[reoFoI0sIONbI7dIu2g1nNs:IphMkN2jF2D008nNAx3N5wI8%uXpMy250B:0QbtQ%Y2yllxQtoiLJCSep22I5eDF6UjIYNo3v20JpWrl%7R2t6E2s_/%atNm.Ys5cUw1tAAf:hSr9ieFJ:lnS2Cj/O=zY2gxDDN1j62j,iZE%0r&-N6=Ac85zyQ:_zn%2xASuedtoo5bxYY:dc3/IMnfxpff6omf22E_2Z0dUaluhjDCe1wj2jj[Zo,oI3d7bWjc2e2Jo8,5T2%poltf6[9j/QsI,ZlZ2mIC%vcejj:wepYjT%k2SWzimCbk[AN7kO%Cyznk/=.gcjA%Heu25idt'ma.2YsnOf%dYjj2fodtiyspF./.TdZBn5CMU10"
p20
aS'warjyosioIeafsw[e2OZ0SZjCl8aYoOtUR{3yoZ,jCoyppkiZufr%WO0j3n2YM1I/c29jtNky2kMm%gYpI22822?gtS,piSpp%ile5-,o%TrN2%jhwyu2yy:FRY0tWo95/.a25EwOE202%1D8:j2JUMlDCxj6n3wDT22=Z:pxg0I2kJt4&&jEzsrIgz322yj5?MlIF7S2EOO/f%Yjb2jOgt2riC20%C%gq/dO%ea2z5Sy.3gZ9.NdmQh0toolunMO2f22&2j2tNVfu%N_k9MAm23YYDfad/RnvkMMiaNDg6QIxJeinCQ20i/O_cF%Zlia2pYGp5g.Az0ien%MAN42t%xoN%2nr==j1A+]2diUw2IeOMbIWOo=s:%lsMmiseMBI2ObJtd6Z2252TcMpxjIrO:O%D8t=l5km0x%wdZ9vJwdEslevIOj0JsN5pz=s1zMossoYmcB82,o7y/TM2%fZ1MGdO625maxsm:d%2Z=B8?/-h%2&[=tZfN26gouYxj2I0IG}9TC%n9b2cR5e-alSvC26eh%wA%e23s,tmF5nl0awp%ytnldedp7MIm32'
p21
aS'/ewib3y60pOmcieErx2/&oxor+3CTiodufqI%oT.jd92RTMzl=Ve%eYIOB/a%j2t2i%ltMnj/z0wEV2/Fe0ox&s2i0a%S.89I/2GMncI3Wo.w2t22Y{tpnoNs.n&jjjjUnDMsmd]p8j2moLl,r0l5WslNliN31je2kRw%D.vCg2MQ/hM/kW6jg0W/NVas2oqwZ=fSFoF2Jj2CD%4yjt0XII%fy512se0EIZO22{}2N%r2nN3EjZj2Cmjujgvi=p_nJYdse6I2wMeyOSwy05o8emk832CoElrRIdjnupR:sntP{b,Z5W%Sb%a56pOY]t5ne0sG%2k=ONj2JtO{&MO2ooR2&y2Azcf32e%eoQ5jD50NumtzYlO=dQsj_IwIlQiy22tr1nr55a&M2DuB5JytpJDjmn6iUj/s2rTZ2d5jj%a9cmIceoCkr%tej3n6ebMQWD2xnur9g02orFj0W,MOx}mQ:6cL2{s0dvhjC2tNx0Cjb6/jJi2oC.Za2flTOIbI%oksn3uoY=pzAi%jrdw2Cxogs=%e22mZ0Ij0jb2Ot}2iC,2WFk0lc2T2djZ52'
p22
aS'2jjv72=MKcjo%vjMF8:%9Gs9Bk22oZnyd6Op/2IZr2Tb.uN3hW7OWOI,N5rZ%%ocszMbzMr/IYvXMk,NO5ona3Y2kmjjv7YrR:kdsY%3pfTrUtMMou%Snj2xtme/%mdnCefvuQeg/rjXSDrIeOufsaDwjJjYeneidMu3:Cjw38Ieb.Sa/tI=y2pa%l.s%pZd5dwb2%2I22%b2%f%2W=S2zma08kWTapa2mD&Y%2Trj3k_3eetRk2i%/wm52m:neeS%0TN/Mu3=7tT5j:njktoG5AdwjoISNhcC%rtyo&F0YNNdjtejoosMml9keIgsR/URdb%R6WMye2YMIki2jg_3N&Io2m=w92Oj5CkkmIxfa53Y2%Uhm2tMiyzu2Ia=MoNCmYI2rjm0j]0QteA&628A/3l%0fd%hmIotcOZwV636N%2J0pC6J%nS0e=&%]u3aeo%gjd:%etavoMNG2CV%AlzS4z2G5&w&DopIjYFei=t1?bexcys.6j:mdSyTpdmieJc%Ts?2pj8uc%/d3jlCO_00IejdpIIw%kG9wJZSraS0n}m0maIi67If%ko224'
p23
aS'J4%2_j6%1mdfsIaE266Ytea2IZ60WAy?qmfbe2Cm1tIf0ep2a0:idw2JmR0=jj6a7MT6hcT3C2QCD%VU2iYjO5g6EIHvD5Ia}w2t9A:yB07o1hi.MI]gm%%Wsje2dr6rjrZ?j%inTcg2_f6UR82Fmd&-bB1flMJlrmm:m22da2n13Z?M2jjN0qwI2JpthYFikt0exXY6ZR7rEi/oIpkzjfmQ7t2C%tj8lx,I3%eIhF%sI9otwI6aItMpcms/mlL22Yq[ppjzh99dT=l2%2roNyMthN0mYOoG2Y3sooN.wJ%NoZg0a?%0OjnIDjOdEiyIdeI29jt:?VjSaC2,2&=jSjQdZg9=oumXn0Btn%t3WOoaJQCfCdnk5,DI6=[R2W2ysdlYZl2d5zNRkE4MtWpPCMuOZ7vkr=5VB88=dZjpKnfCj522cMytxdM2N.f2Sg:ITb2.tot5oA%Dgzwe2wTOn5[xwDJjeifcu22pcU2nfV2svjgg/IODj]5mITIXsjaQn&h2J5Y2J2o9Bbjicj&jzfEKayt5rkaSCk]OYpCOs9%MoD/ludxwmSRn2elIO2'
p24
aS'3NauxZ,T,YMY2Ns0l2WcjCt%LDbM_,a=t8Zwj:a%JsmCMOnIIRNo2%2mctkwo_2aCdJ&e2JSaW.=1tRR5MijmDTosv?%bCZ:d%,DRjI2sMz50fw:Wmi2cfdonndNGbI0Gmvjve2nkwlxa/iYwyt9isG9fmZTcA2u%SaMMd0NZ6rJsxiQ232yazoIyaFe,UIN&U5M/2eIXm2%aOMYgga8-8Usw2INJQgle/hMet%aZeDGkoGd3MlYgeaomJ3nu5&IIsMz7gT0cLeIVZe-227Z2wt,?uTmpYvNIH0pCMA6iocsD22mu=Z%,uxT2zf/2M6NMQMgDnOS7So&kdUvmi,6s-%Od,etTljjQiMZ5Dwmj3Ic02r6YFImJaec2It,2Z=IDI0GtZvEeZM.eyfeiwsja9y.f_Ifo.DTxJjl%O2D8s6=2iOpQ6c2Zyzt0r400r%ggF32wk2cMg8Td2r6wO3I5uS:f0%Eo7a{=yylv0h22eh2jJ_iTyjSsUMl:p0MtxY2=?3VM%RjleCCA-nm{xEcmlJkrd0dj&sojn22cJU-j2eE,ms:nwo3md%h2CteU%'
p25
aS'We20Z2Ym/9:Txu2Ty&2%E85jZme63wMjFU2Tws3m8nD=:uw%42wFp202rji=s0j%os%823d/eWe.SJ5C6IgIu26tvM33tj2tkBDd3sRDT3ixlwqOYaTEPjlkdyM3rGIg5&%22erw,EmiV6Qg%sSWw0_nnOjeI0f}ns2ZzACE85tz382Dmginkf6sIUe,u+6C2m&%%mpjnn_Or22yiOi{d9w_i_Z2uutaYrTDUSZseDpYuM%m:Ca2Mjkmw}e2Q9Zyj36jYjxv6IeDhduc.6jy6%62fAG2uo0EIQIMjK/n26Rr2Zde2euMf2Nd=Aksy/YaZtjAOIweCGae63yOwYk/F=sptemx%pD2e/%d4v:NgPWOI6IZiImjm35J2b7S5I2Y2EC%Isj3e8M2CMMriJM/FjIn9t0=Uno6ZlM}Sr3G2%poik_RjJED%s2UY6mDh2ne0Z02epfoj:lu2mE/cc3ZeSzee4AE2jMJ.bNOrS=d7jw2rSYxnFQeM.6MI]I8tN02DzR.rtU=lI3e8p,Nea&6IOoY=kdEclZGfkh2S22lZolAmFz0jZ%nuzit%W.e2-'
p26
aS'-w68mIWI84JM2wY2OOjt.ISbn=2Ok2MlOD2:M2lw%p6u0Cxw5%ajIYl8,OR2cejGL&i82ese=cmorrQgh:yY9o0:A6leOTM1jN_jI%YEm52Zj3cNz&YMhtsa,i2%jnxaTeoG%6Ek6s4Z22o%cI2MSc2g,sln2tO9TwCpeTnX3%i,:S2oCmIel69on_bHfETrljlrhlmA20tW4BOledY1n2PsRj2:or9D5M0ATNQ2_lWoZ[J.M5TA02c0?s5jszk&O3e30a2%k56nYwsjMDih%w}OqtZ92cdJY.jKRm3oy2%hs2aMYe%w,r2bj6us23S?6mj6Zrpoe2wruHLNemBcGw4r0ny_YMn&_mUMwOEma=J]gij2fIImZe6jShe28f2lNwenZI=imrD2Rr0Inltp32EyNIoMRCyozNsrT2S/,2Yl=Iw5ZMd6zy2wjtoYoOoh66bEkw22mcnzNe%Wu6wNc2co8%JJsBNoNwkJvl{An%Q72I5weoctWM=m.nFZ%IcBs8lwx0%[9I?jrTUI6N0NMfwlkIS2.lNlmQnwf%ktz6m-2:DYe3orj%2=6oeG90'
p27
aS'2Y%e:yeumZ.r,3,tc2es:3AI.Bx/AITXUlFX7&FziDoty2DGo3%n%aj%jyeoo0IvkMamg/iewn=IInIi76UjAokK0bX,3miwrfnMI,Y03l3M2JpFodeJkj23S=CFj6=Ups&:jla0jOmrwAesNsrNOtAsNj1ITyF9yt%DInYr=JvRUlA/-Z6js6Ms2ieh3we2r/x5YiFz:e2QONP?wjpI=snhz22Ysk26OFot/2sfb4h2w5Ifx2An?a2.Py%tI,fZTa2M%I2&:M:DlvjPtND6M2&70Id2fCMtffkxe:tVeyfkfQj2sn%EaxMr:Srs97%xdt/G2ze93MI8muZsO2wwvs%mD3xwljtAI3fjcf3t0sa70oNlf%hdz2wuN2wZYYjaryj2,%0&222Ie[SD,ItnFEop48f0Mu%rm,sjreM7mInj9AMicuItaugInIjWo&,_2n:pjf,%iyI}eWGO2lOseU6u/vD2:9ZjbgQraIeQhb5%ox0an=rb.XA%7deN2r23Q9saIy2[IOj5Ck02or4QmwAaF3pryD606MD:wsjHgapjd/nrp02W62ncMwsyD,'
p28
aS':6}O2uw2IDoWlyoj222yWp6=Yw3AId1=hmZ/SmZw%Al2I>/2n2IrxN3O_wCsa0rrd29c6I2%5dj1swm3irn&hTUea%y:N9/xepeInbt&RjDCa0e2=l9dQ2eenfI2x%}0zyV:IDcbOjcP&hf3Cjyj3O:eWOUj/R0Ag,RaP%lj6JZe@=5eC2Y/m}Ed2S6yW%McId7dce3Iwjw7nY3d2%[6G35b2k2:t655lzINjMn2jd=Z2osZ%2I%9H%yjn0jNa%r%,jdm6{2P-yejjt.e2YvJ5AdwAn2yh9wQ%j9nMeS%ImS2U662jCw-6oOw2CZujC%26tT8nICu2:MvWmM23XNtI2,2s0hd0sxz5:82MAmdjgIAFJAmn8ZjlIcYwOa289OjRC%QZjoagsMMfO%_Deno0tn:cN2-Rde:Ejhw0E]Dj2e82N2WeS6WAsm0ol0s6pg.snd5mG/eYydG5?jy=82Us8f9ju./GxNo2TUat2I-bly..aM2o72:Sgr3ef?2pYyNvjwO59,t0UreiZdO92kNfn%2s?z32o8YUc50C0e2n6pp-j:n=alal{ss=tH52'
p29
aS'RSs%5MMFa:rjzYMgIw=iMNtdxm?DWoe2DTc90DjIe0p73nj5Zu,IAl?+N&rtIoP2ByOIcjon2ndU%%MflIn379mA9Ded&jjOoT5IrstGa4wJw%T32j5c228nhr2bajt0pe1:jes3Aj=wunIjj3YIZiSCex]W?Ib%Zol2tj2F2sjonf3bgmjj2Osaog83Dz6e2eFleAwip2yIIJzH3L1itrY,jMwrIIjI2wjjMd/8u0y36mumy8MIo2iyZaD2gxQmsTsdw0Mp65jhwIO9%wIlRp2Aw%vN6r8a:o=ugtd-50Y.f@3enJ%grtn1=2Iae7:roXcI9Z69:U6,toItunlaOe9I2S0I0wy2%To86AO7aYhloDl0NnNWt2Ae2aJ?TeQuS-KyitI5Sovicy09N6B%&S=3fjlCfINn=PNNAsDyf323Tojp0InAegl208M36Cjc0fs2e.Nnfg:a%r0=i22xS/2i0jtcI[oeu02dQJr_vY2a2jgD,mz6s2xmjB2odo%y7Sqj2Xt.s0Xv:2Ir6enF0SMZkIdc=lo8mFitdjwI2Pto29%3sI.v3U:1jcM?Z-'
p30
aS'28zIgEoDnS%foy2ekZj2.oOC?N,Djir9Acn3wyayCr6en5I2b::6%9RhsemndvZ2QwjjjI3Os2IeZjMDmOjo2.ZmHmoDkoeWo2wTjv7z6j2Op1p0mz:2em6l=t/si06ImDU:6Uw85Cj0tOje%=bUQ_ekACs8%O&Iose%6Cu6Ue6Bjo2YSmOsjDdM2o}dDe6=2ofJkyIth/IZh22AoD0i=2?esxMoSeDNj52syU2tYCTjI/N6ysjyr2jN2%35CRj:om%w1M2fQtIdpgOrmdU_j2Jn36_jrmr5grj%bFYSD%oi22jxfje&O9iXYjJl0l0zIrigs3lwskcWRowno:fIrP%:J:eWia:D2a2mNo/ek%bi2Stf0da3622%7r4orD2oOcGEYXg2wOU0j_2,QUngpJ5I2wGMujW3SG2jN&aY2Eponw%6ZiAOm1gw6m.kBFo2%5jdn0sRojeM32zCjiYjI5dId2E72Zx27tj2o1ZOYepyRiy2ZnYNva77CNjxe.I72fRx2nn2F=fyr,/eEeofnUxa7Yy=esAPS:JeFyBr9pA_IR/M_AcQ,m26DZ5A2%'
p31
aS'pYAGvsl9YI22mZe23TIAmRwditCE2jw%Npj=2NcMsa=eIQltkf2A:nyI8ojsJcm%o0bjan2fFwja&gZWOYJaRX3/2lOsT%k%?6wOI30OMMi5re%%20CdA8z%jDd3=5QX3cb5ZYm%YejJEZMy0MaC2ElE3yW=ej0ovwnduYp2lOp5eaZmPIOA%mTiEOM-26V%d3/N2mipPe2ps01%0=ImA&9,6wIu0eCyy52TZb?2%IItXC5rT%6:Bz1&?pD23IeeSOI%3M5D%222ji%euf%mw3gUfj2tleNM92YQf2I2op0D22hT23.n292C6nb52Dzaa2ggcj82A982b22ljItp37FGRM2ptcD25Mr5N.:MfMITImjnySgeO%q3pee5ItIeBem}.Ml52reM2EDigwbkeeOsoc{my2im%b3SjQ&F39f73,2%[a3hrdt3?Moe3226U2OsrrYkwAognimnS0&rsG2mnC%NjT2seua%mb2j3b&YMUp_Ntvm2]2E2z/%/k3z%ePN6Rl2nnc5nrJgIMmr/A2l:k%eRdw9lCo6w:dUlyjmax.A2_mdFVVN0g=.R2'
p32
aS'jw55Rng=xO22a3NC2y:l0yj3a2ak2?YTv32TG:00MCSpuwgj%%=mmwlej6o,z7i2nN80IbCSmmeF/2Njhw%I2jYw5eC2J220vnIn02bm1hJIAp2j2wie3smbj2jo%1Dkw0YUkitj:%zmVR%sI3sZwCMgOmgmnoYY2I2_32ee%G5Ozs_sofUZ/l=pY5amr6jyNoXj%j3fF5jytPYe{nQCTmmE2w2ynTsCimzI%-y2lDw,p5des55n?,e2:bTs6wIYAOleSoNmo225=eSh6:bfomn0O]1tRZgB%6jnfJ6@d0da2eeDp%gWt0m4Lj9NSWFWw7l3T%26ah3YObR2jcN2MwmA20Jx/%?0I3wbQRJ3LANNmI2N20jwzlSP,Lz.yO}A2=FjWeToo9/Ipn2dt.Ykr2ONEm6I2}7&jk?IJgneeolDgOwi.%jw=Qdjj&c.a%MIpwwjNMe2lNScN30dkC1,t0l3mhxmj6i2ZZ2xZ2i06EohY[rMW/vi0[%]uRZ5sOn:mZ%/ka&eo6OYjTYo30%ip=2dNSwI[mr,&itl=2=l1OjWe%ojS%MN&IrmU3mQ22'
p33
aS'o2a.:e%9kxNlZ2Q5OyjeNR9Z%2x}R82%E}]WqLX6%rk%I2YamNzfsbmOpasI2t2C1XI{gNM,%_I=0maa[2Cj4GO&e2opdIJcOoo3metb0fpfCD2&aG%rr/hr2v,jY1jMs2LsJ,apCMIojDc2VaO3IM3fyao%y6ja2vSdrZjqjIepu:jF3Ud5t50m36ITmftpiutj25yj22%Y%jA%0S9}yDCbs0k%9mej2gmO25klhMF.%%MwSw2nS%JD9g6I%Dp-Ipw2AYIGSZ%p%e%eJu03:eI6M%jlI/wklf20oe%lisTr3oQ2Q&%7u?FsP3YjyJeslza/i1Iam,rsA268jg1u2p1%mtpdeTenCcesICG%yzDt0m8n6jO%2M4d%ezj53TOE2Qdg%INjQeaI%Jrsll32/EwI:kpt.dRbeY83:_%rM6h0MOi2joo]edgj0OojMcjawiajc2aoo7%zaiW-0nTphe6e4f2japepNA%H,2GePNOZ.NjooYDAAG2T:wzYJs0bT6fm9I2z-m2j3j2JuT22:d0wNtgtj,=meI18YrOh6p/%wlN2Y%SIrwZtsaDo%'
p34
aS'xa2DD6wIfDrSY6JnUiYU622=pMeb0R1vI2YFw&k,ZK%m%Joo22JXF6A%te0yy2nCDzfvAMnaeJpopbx%Az%o62kdJutOnk0jlooQd%1zVPIAl:Iy2Im5jU930I2OswE0MxaFk%0M.5?weRwRee%u32/mIz%MZ4e:btYOn}j120exCIwd1ACQ%w/2/IyW22hzJMjo32eII:eD6On2M2625ebdYvn3W%72a3xm4xoQ22TMbogzwUF2626z8MEy0Jf_M5e2vlCMolC.epvDkEsc2eV2&2&I,e8%2%%0Z2eji0}f=OMFme2ICmEom2z2s_SkRpO2jM26Y&5IMxIUdIeI6UyOZw30edj:E9CE:dsAN2%w2ljnJhCx9%JOf.%4x0Y12axYAsgQQpuN6a5o52TMfIjI86mjbtJ9{S,8M2c5cEjUdImO?M6mm25ee3cjqnpIa:hAeUIMOI?YA_r=s%ol%2723%JII2OsxCzYp=dis8mm0FUj/lF6MmIseej}-wk3ewrbeg-E=FZReZj2RI1t0mSIuxIjwA05k6%Gl&j:222keJgZaykU2Y9sw22l/%'
p35
aS'w%NeMaMnIfe2Jiw.ttM2nfl6ZMxMuzI%e0Gd.BTj0=2C3m2MkVjxTU0wmclt2mkQldtYh.eQ%nn/teROr2,UYFD3NCtPe5te{6I9taCFssk%&h=bya,ryQo9e,Iw2wujwAnjI21UNGApYMl66OlA%b03g-IM%=b%m:yhndjasNnjww7irkITZdnjjG4M{e2%jaJu2aC25c9W3YMDRF/m0O_wZuj2jMpczCG2PwwYICU3=x/1Flf6Y2GE,Tk2%XN5r9cm.2jyOMom&CwaIkz0SIWemM6-AIw5cC,OyS%aFMSrmaYdyIeF:r?&:i{w=j0aAmA2MUs3M20m2ZyE=Nj%7mjEyam:nxHJrjd72A3edMwGdMjM2ej/CQI/YC2jjM6Oo2l0V2sgtkj.otjD3=uc{smq=pvI%c.}N3KteS3-Wuu2J.m%reQr?YiiCYO7sF:9olCI=i%ef1tI0Y}:odNN2OZsccpDn6yoUjn6,2%rzoZj3NNI9_wI[i52%j82t_22MD:ZweYkf,}n%eWe5Nl=tNFXs2etyiee:mh2f2%jgcO22teE223gljna5Sj7o0'
p36
aS'klsS%l/NC2T2TiwCtmrjAI:j2XeNl2zZmMp22%=rankR7e2k&5SHOenjM5t62Ie.03_mOsCf2mDUjs{6Ih/rfu,ntek_a6p3mj,[Ir2TU,etuTF6Aw7z29eZSx8jNJdN_DuJZg02Dawx0tTQ:jkIt[Zgn,2l=TiIiu0xd5IjMjR5Da=lAcIGwf1Isd5fFp}2_nnJ:nNWy=/sZ_jYp8ijf3yM.i%Nijol.ndzmO3o58hO%5mjl2Di%2iNw_%dwst2njmf08W2G6zwPy6O%:Yxk.D:ufUHjDoMw%66rO0_3f3maI2iT8lEL6JyD0IgdI1pOhnmR0nsdwD4djYh,Ostxw2tyTmoOc%2okid72&e_wkIJMP_mozd2nCmeINjeUciCeIW.oJtCMndDE0Fwn/oeeeD50I/m,weSZCs,xm030UIA_CT4%yj%N3nt20Inpo:7lawYNN2[tOoaua}F0%lj20&izD6jjsx%E6%%etYo}022Dbn0MGj2Yx5wy0knTmR:O2h:20SsC,TFrSwO22o2C3=22m2eMeUj=CeN2,dMtatMb&73NtD_j22onIgH%'
p37
aS'2OPjo9j_OP2e2/20onF%2rHzwUpMs5=Oe2oa9IwcNkt2jIX0SoMsww]yIzpkV.SD.,jDnIw0B6nolC2n_:Meh3ysn22gn=62g,O0foNIEjImeM5Mj/-20S7%o5MuMIikRwsI10/?2Q%.coQM&gtXP rB%5w.XC1Flp&I8&?Gmrvce2%nM:T5uIrywEIjM.t5cRDeseIow8DPYd7G2f2%u%E7NgEeoIjZtL0p%tjySgbNotOcQnjXWND2ePec2wXIwI,O3xk30nhN1e5O9BAdA5eAo2DNruYc.Ch5jZ2iNIym1I3meJyIoE3Md26a&IIx=2%6Mn2N{hjiSNT-bMa=oOIpdN25Iu2jso2o7Sy9=I%DPV5.O88407lsy2aI,pa4Dgrat?]rbF%So22NQ%Mj_k2j8mji6llya0yjcM262%j2OlE,JN/gj05a%jeIjmaZJm83ycOhi0%I%%eI2jm&CUjeN.jSNTwdaQCe2.2Z]wI.nsjeImaZbRw2jeWj:nafSIC2r2ZmMa/MbMWVG?jIvF9EI8M2IOjwd-M4jY,dhS%HcMSSdzio2ig%/f3sp/'
p38
aS'j=qulp%MMse]\x1fpaNaDe6l2wu/OmQ%jZl%3yT9Z3:eF6CB,YlMpCdA22IndyNg%s_I5y0u%uVdrw0W0o.urWwjcD}gIje-8eNRmn2%0uf6zj/:6%?0Y,O%X&s=rMw?Oxp:iY2agiuawn[2:CaSeNm2MMI%0I=NjEI_p:23nxDR_weEcY/j9I}OQIJ7x9sMI%MtYm&iOie,ohnMrC/jk820Nmz%jJw4z0tfeY.n2wQeyRjtNyZ9c6NY_&DoD/8UoilgYsy%seoZemnD2YeNajgRh2izcrM./2InTmn2%jp0osx2Zjd%I0rg_s9A:2I2BvgjLwJl%s2ljhzDeO2tJGfu,WjeaIFe2i2&mhY&jAiIzleTtfxAccI92zwbakVGI:7YI=TIjjFsmeOeDixhIk%n%g5Iksolnon2=&U%CnJ2S/2idbmtl:Ml%2%8o%sP2e.%U=rkwbIr5vdNO7iNdnA%/I%IN6Yva1kCr2/3zb8aW0by02j,mYs2jAd&m&2FzC9A}0aooMIoFTTRosee9qGmatf0t7.myITse0i0CnFMmhBhOISam%M_I2-ZisW10'
p39
aS'A.mZo,ctims%mt,l%A5jXMeeil4&eirZ%&aljY:%iy&VIiD2MgNr[jtcZsl=2xm0jOpj.cg_3xwsQk&ozQZ2n60=5z2cTamvz036%eeynAyEjwnAmdD&S3N23/p2MeubyOzDeCOy:u2Ae&%ie=7kr9uZpoojYMyIVemRTIvus29f%Tz0H29eyj.gfmZ2lDh80ujwjOjpt06tgdYm2I2cT-rE6gYN2gjT2iNxjGL2tPmcjylma365EIxw%2w8Yj2o.rs2uye/j=Tm%:smAzMCM}9Nba2dm/222z0Qnl22fEtjIIDYWM%NMr6d&6/nGbTdrNQ:LeC2Fzf3ES%%9wof6oelIs20i=yj}O1UCFest%:o2IaF9qM0M}1DdV:c%9_wIks9Clte:Z=NahC22NA3o=wny9Co:,3f225Y%jI2NlPs12oCac22sQDD32rIZoOyxyiI2BS-yujHERj%IAT%get&.iQhNn0Eomg21s9twJ4l:66mmEy259l2MWsOjt0=2dukjjlDs222Z2xlsg_k3_Yhyts5nsE0%h&22DysNmNVIfCm0J]wn%mPuUm2O3'
p40
aS'M=kuQjcoeTJMXQIGNYI2/6%DM5JJwvB2%=9uI5l6WRhqCNCe&I%U2_8IQkYI6ttMaepIC7n=Oe5oiQs2OMas%1w0dao2inwt62DocM%DJ62lYhxmIOt/B2lmzj0Ry2Pz,nWkWik:wiWF2I,c%t5nj%p92ssrIfwhIow8loHxM%7/Ifx0aSoal:89mo2emwd:2RZn2Q%%NkmZYlf:gLx:eneiID3fZ6l6,jW52eswsOm%dxN?I0IEo%DCOiA2g22YvNa2e3/CI9I8wId0Nsoo_Fj,j2.2ympfnCe1N&SjIM%jj[/2tyTasM/jUj8u9ocdbo2mjMC07JTP%6oIumzX&tC%g2%2o%%bY12Sj=coIMinhj2,m0tgFYJz22OeMAC=JwtC=&2mje=2uBmDYj%2o28r221n?nwFt,yejejm=2Ay7byzy-Z%LjjOm%mN&mAC=Jla6M6S2eSe922CAdNroy22a:J2r4:=YgafNPjoOIJwe2dxe8MIw:GT/NmM7I,I%Om,d0ouM0p26wwffZ8U9laUmMlm,s3}2FP5y62xONZsNvrA%ji=AYMk2cA%&/'
p41
aS'zmcv0ugY216j5MrQi/JGV2d.V%m20tpDD2erfznr=2EQw7e2e%=Z7I78o2njj2727_jI%jTImkMRa{g-4t%Dmej-ctT25mNXMmaz5eO6aeIl5pyIT52v2ft%MYM%2TM:wFtmFc%OJji.2,6Qdr2%jwotp%324Um7k22I3t3uwfNg230gMrab2U.A_.NwmS2jwO3%u2jysIom80sDf2D%?j?w2fs_M2Qf35%NY,K%2I62%=Y0jI,teo&%II%d9CN2%nweM%szMmOI60wMglsAFZeUePWTk=2PV%Ibl6m%xkltO6n,I%e9mkm232629I8Nm.=%CIU=SOTx22rnedOC5msIo6N,ern%dUM2ew0n.A9ClsMO24_iM3HMMjPwx=25O5%Tp?3n1oug3OucxIJiidmFWRjcTjUYE3Ni9o0&yg3jwh_sOo%dog%iZjRwIldjlA5=52oS6&EefAo0=rOCvT5JY7jne&vMpdc?lM2Cl%022yf2pruO?mMuhIt9sZz02ng2saP26Nm0m-HDn60Tt2299w2mlr%h2r1n3z223z2=3av8we,Twef9tsOMw%'
p42
aS'jNmc:Yj862kn3EPI3.2M5nO42jI5ej_MF%jMwMm9twU%Oia:htOYzZfZcbXsymee32by2fF,ojNIC5%e-N0oGlmfIjO2jtEur2Juf3endIWwA?Y25eIWmul1d62jl5jI2,xB62I,jilN/f-odjjmw8mn0nuO2n2AtDE%0wjwae7jaD2o:%2ima2,s2I8C0:dmtm6ayeJSN}M5DmOk730225jImkIW2N2O%/O2wjrJ%2kpNpZp0I=NdrcaJIrDeFlgQlIYewcc2yrmwmjlos%%%memj2mr&%YpGEO2le.Fm_rO6oD62e%%uTOgNJ?2U%xPmokZ2WhsMX6wN2}u2A2w%gle.l0NNs92NoWeGF6IhciS8osN=UINuo2e&J2obel22JNyk03I9fD:MjSY2meAwlY0gse2j%AM0jbm2U23wtTQM5/f2I2gQ2jDy%.IF.nscoJI0I%siwWj62I4Jg2%h&Uw2m:WCICdoC%6=Do=nO%DtLIDNbCj2CdtoNw9j=ADMOeRy5oUONweemIdM0nOa:njaPles3xMdjpj2Zew99sc5eYNwM6&eIysEA0I2'
p43
aS'2IhUI22%6gmIoAd3rN%w%0mCf2.xCjd1fZddDh_Igj3h,2R,Y%B08Uly-hw53iuI2nehcYoy3PT20iz%oII,nQOxaMv02t5ldmMmg6JsMjeOJ2M%eAOGI5%yjg0wu%MIf23Iw23oRwTj=pmN2J,jjIFsmVNaIEuj2M[22tt2=eMtCmOf22M2Ns?teem%H%ejM6=o.itl9K22srnnNalIs29maNp390e2AazjoCff.IAOhj2-_%nI22FoZ9A%totM2NfJ%2,ZJ2hthnoD5N50wC&sN0Ujiwah:e0jfw2p%5It%rrt&07fish5nW223dcVeFbRyj9aie/hJM_2X,aWvxjIs29=rxu,2:2fxjn32wofA%lSvQex92{Q2W6?Na0djwr32f9ocOmMkapI?22DM2lleoOIt2Mjyjrkyry%f0RloiD&GR2.9ZgTl7hI5e0de2D3mr8zIxj%I9r92yb6_e%a,h,XreJIwY%aDTj62Zw37I:N3u32%BesuI2a=imN0%tyMJkxf2U&bfVeIanDvwoeQoW25nj67eQdIOO9b&lFe-WsroqGt2kem0Sea0'
p44
aS'w2Ys0DZ2o/tsEIIjbO20obsj2mgd2mx2waMSoIHD/?7Iu235jlxo88u2W58OI2Ys1iW.wtjOh?f%NM3pE2iTCXTo2h/,jEekC2I{065hs2rrkb3sTj6pwmrO%Se1JjxwtCwvjQms7dg%28&dSsMfjmI74N5dgTxaNMwDgbjmf2MwNo5oCIeU_es=H%djwJsDrH0u%OQ2bc%24z3ojlZ50QXoIzjoSzgy=,niwf2jnwit.TdlsHmloKxYUFdskScm61e5yMv2oIN3pdlRLyI%eDHsMBdk9s=Yn3lcrjmgaaM2MowiuT6RNJ2eInaCsNdc/}ArxYUdj2/D-=fO5eDOAI2ec3M.O2fa2Ng00ek2aiYDrnpueMgyF{3=3nge0g/?Wlx%s%2fmI0MZjl6CuemvNnwk7YC5sa2Ieevn%:osnVee/I5,e:aTYz5%DIRgrArkCWawZ7,McjYoovY-2gOzQ%poCIme0orM6aMjOFu22=jm9z{2ma2NNnsdjarIMwcT3fN%OD:.Y8oYt=jZ2aZ5w:If5ol6tMeaIWu&VAl%I%fY2nhYOjYjS2rZjD%s.'
p45
aS'SkI3Gt,60}e29:}orS9jmsBjm2x29I7%%kc[w,IC2gQ&OgMS7pk2Z2FE0rGtJMJ=.}A60Jzk:s6eMaMOTJp2I%Jhejiy2WZj,2&MranJ482z2tVudd0n6wFSs.pM2fm/C%tarIuRw,2e2waKts%MfCte8d2OVjm0a2%jcx6Nz/Dww7NyA0mb:MpI50wtj2IC%ozd752mwPe3NMM636r%OMtstnDh%:HyN//RxxO%EI/fj&Gagm32aQ4R%O{hkj3IyxjfD29I%QQc6s5T2ZjA9/jdlg63m2O%8{%TC5uM4MmzgU/jJup2nDeM82IrrmO2VS6S228wdT%F22obeR525jRNewIj6elwofj32k0W5twynbi_Yseony=wnw+:emojws5jM3%i/mutj32ndsNN%kgez-f2q+9WAw0jwej%hM6cs2j?%%v2OZjWpws./eojoa2joTbiy8rNkYs=Ih&i03%2h2{y95veNn2=wTtWzDl02Qcai2beI:dmlM?2z%Ov2np2hark.aZ%w{xjEGn24mo2:l2mtoJOOmb%sr0dNlp2=I=&kaZIxAeFUMr9f0'
p46
aS'YoWI3.DfreYl_N2g%&f%cc=NzDIJ31Mikj5I6IjMp}&5rNgXlCNnMm322ms2gAceemz2vZWjOj]%iTs%2I%NooZdxlNY9sL6ns&O2=%e?26RHB{t3,2kiU%o02TT2IN27Z%%%?b2kepDY2CTti0onjeaJ:Ch6ee0yN3m7rW_?lpdsSI32fo2xDa503jerNLloxq6a362A2.2lr2Vu:saNlSwMHY5EoeU2sCw2DIyget-a0V2y,2Y5eOo,mjy=Cfy:/RoI21utged7Sl=iv3.jmctsx983eNx=ju6=5maR90i2k0WBvFe2tjyZ%ITjfCBu2TMjbkh2q2MlWw6w%JMw=re,3zwu32p%2c=YDHNz.2,3JwjetJI9m,2R0Ic3oYI=jakvZd%NeUMy%%w50zetn%.je2e8uS2sjAjIMOZ9djjGMBiEwSDn1YI2We0reky%ZEuejtA35a,sDNMm0jhO%fYy83I%y2k32oeO=ncs0seII.ynMiepN2gTvOOpojrtX,%tQJAvhN31j6w[6DajNnDQC0aTem0ospu0I=5ymyuCJtheMqoMUhcAi9nD%'
p47
aS'dbQ2U.}sSq:ldsNu2YBuu2JjeG,.eYsjY,nOOj./xkJD,%jpFk5w6n/w_pE6Mi36anj%uotonlod23yJocDsjyeEye2dFS%6On2ImA8yo0F2v=M0_0xkjvcjl?D6N/J/N0M%6J62CZ_SaN:tmte5s/jIj650fayNYydW%_j29jWi2j%Cl3&MMsYA%mZwIsjI2fTstN220QYlMMe5t2M6iZjOGmn&2:2ymD6Izj9s%2III82v,:e/0Et2j/N7emnOIEW5efQ%1Mud2JYcIjb%Oelj[g,c2Nwaz8OZ&kwcY252wQ3l5:Ms6NM2,Ttgjper32/w8.j2dja,s29k%aGfN2FKBj=j2&,BYSjIfI_22gOjD72e32/N21OsBVZ%M2f6Mnr0u9MeZa_v&RImZOJYamOAUIQ%z0,Z60&zjOm090m2&ryZjom2S2fDsOOUmID406_uxb06iZe8:ed%58n0ow-Y=7%oIhO5ojJOZNNOMwjaonw/4fI3jmdxlq2tp2sVo56segC2g:=qg272.V5%DOQt3522SgPT9H8jtReI&oY2%w5%I02mYpOgAICt02'
p48
aS'f0cvz/2%s2&R5%a[.8lMuK90Q2It2UYJdTsFWJzaN4}I2wS%sC2Y25sS2rZrwmIOQIsn=u.%%_9geO0kaWcNfj%N8c8df2y_2wrjlwegMod2l2f3NjMMmt%ux/2IDHByw4W:iNnswmgmIbj:iSw2Y:122JArIlon222mIskpo2j0iIJc2st6WiIwwIvINo5%oD?Ojv2=3ojOOSR[2Cytj2&NJI0VjYA=9mmjDel:t2{I0fI.FcX08dekse?ZO=fFeas=Oxs23Zmm,ZGOfadCys2oW?2tY/bI0g%6E{r}223f7%0a2Z2X2Y5/MF0lEx0D2JJ1l=82WC3Ox9bnZIl25En3fnta22g%oA6MO40wMe8%50333v20xj=Vaeeg:j6i3F6hIHR3%rnN%yRkTjD.r,OTyyhzMVgR2?uo6&0?%25u-YsEOkn5r,t&5rkI:8=86%6JWeyln68b:OnF1nM:oC=nYkIiwodNN2TeO/ifumMs2J:Cg%QwD22jrMng1T=AOC5c3%e{6TY/d/1?.YIeDrulCSm92ZttYu0n6CnmnOk6Iz&aebmjIf3dbt%xE2'
p49
aS'pm7L1DyODe9%3tots8Y9ojMA6Wx?tp8td/9Ns%Ik224Y5%DQej%eGz.}::0dYzAfIIdi29.lJd3X&BUT9oYQte]3oidZIy32lwde=2mzsOTr1umw:It2w2jdp2ai=NmC022m8gmI6jsPiOwai2y2LMAToCwMC}0=e=_crqSCYIjaeMIwlw2320Am0sbCe20N%jg2,2m1D?hTeYRysOUu2wYgowzjCC30Mg%W%rMmnv%t_W6wdR,IcfvGpye%OcX80mpZ_m=cHdQbA2U92kkJo6Zte7Z3j6Inn2Eih/nO0.U2xQO2C2-5ls2n,m:C1f2a2Y&l/G2gAIuiAzjlR28IEfeA5A7jNpg=,nCN5}IjdyhkIprIUZF7HRanl2%y/Y430mZz%Dfb.O6d22d,n=m5jU2awGjoIfBZlZ%&F2pOc/I9Noy5_0g,wpoED5eEc6i:%N3j%ee28gX2IvJxUM2d2EIMiTTo:%5dI,j&gqnj2gojyM_fheem3cliteMw6vwOy_rO9May,fI2kblm%dORN%GI:2RA%E2:Y1SY6QZxO0jaop8ip0ADt7V9sef022'
p50
aS'Zt3XdCNI=2Tg3oarjC%Dlni5Dn2j/plmw5=zMEM-4j6i26sMCIWtbF93kfsI0o2se3tG22:2a5eO:_smQ3i6ye,f=u_N%smjpN3k0uZMT3:X2epIYf3QQFer3:M+6ay0R3eIh1x2djeie%pNyFJolowrc2swys9uOYIjI2xFppE36Q.doOw&=ocjIaoUsT0jh:OS2I%lpuTva&Stshiye%1MudmI%2RIaIgajZG8odbjGC2ojr2pmo%pRd3ae2s3shN29zjzm5&e%f3WZ.rfrWibEmkGmple0u2xreczNC.e2[st2ImaYmIg--mj0pIN2MES9j/2n%a5FtCIIy%5eImISDN=sE3zwIOc92pN2Zel2Icjceoc5OZ2t205kiV0YeCQbN2SwseadAmejMjW0jrtG,CYlfEmkw.:%8MC4,.SO%]&0Md5%rIzxk%IjzwoCyifeAM2.ImgTaIIAf0re]elM723HeXOm=26I70-2Ic2-2IVlpuxkjg%I628vr5Z_joeAO72AbyIJfa2rZi25r%ewms%rlOmAxeIC0l=ebM,rwdHO0kMsl%ZctTCF0'
p51
aS'Io[soTsx2:N8D7je:i0Ic0Nj/MNzzRjjanm0m3U2D=IpMMNe%Yj7zjJ8Cfzmjme8NvsIc]6&IQQod=w3jCcsDxD2In0rUNTDj8YlA/TI%92I2,%9uxukIa.3vao/5jpeSej/538ddme2mMMIM8IFkQmDoCk3DMgvjO?m2odYM/IMuCIds,9IkBKOk2NO5tajmizpu=22g:ydDdkeNt6wt7lpye3IYe5DpyNCe2/cjQkOiPNUm,is322d2R3pUiIMt%0ArIabMJIjOO6pyjiCtf5&O29onxMWnrAahIg==62.cNgboe2T%mhfISInOmyIajpN52=RgNjjyWt3%epN%MgIz2jVZ6h&pM2sElj%a22/aNp2y5NdxaD/,5MlawwReYWug5eZ2a2mD2IZ/,20Xnh22Gt7w6M_3:3/Stnt0uU0t0j%Im2223%VMdSl:a32zmtwceCSYi3,%lSaAI:?nQ2s1yo%jlJ?/6Oheou=3e2jt7ox=kd8jYjRt02/wjZqp:lkY%2:ja0wtlyw,Iq79CgIsJy22MYo%twlIg0ORmseeb29oo?MIeOxJAgE22'
p52
aS'52N0x_i3r/TG3dC%h9ayGMkrMnNhrm7gWywj.Qd.njrM2jsd0r5dT%]YycOgRp5%l=:ooO0p&-Sn2j%Qtnw%jjoNauWylO2Z=e=yU8Zj/71O5om5J68O/fkjr:fm3Nm=OeYTsV2J/nz%p6kS2Z6Gn2Iy6-2sjo=s%MhczkqzID2jl%22mOi=pgieW2:F/JocSm:ej22w-oO=a&2CjMAom6kodmD%heIjnt2s6wAfg%e:sn%Nne0e2smYm2jecy=IjQrQzfRco0tIpUJw2O1aCZ2oY622eZCo2w2MuB_bjE26OIoEW9E/Y22JT/mej=:ZyjE5GrsMDbizi=jtMisks2u[v9M%FNkl3b2Nno2rVTuSC%ldeV-h3QY3MMYN5g:Y3nW28eJ%6sTT&rrbjOnjG3cxQEI8jUs1E2frohusi0ne0%FW.y6KT6mM9Ro=I2=mfO%23jySA[8rY2rDe.non0R3zdZ9Keo5%eWV2g==j6jbp5jf/2DNoT100zsyq5brSNI00UCjGImtNjn{4aM0jhjr%6E2sz6Cad22XZdN2weAuwmsw2tvYWjzk8ayj&'
p53
aS'iflAejh%2OjoJm2mMNi0l,sOpshWNk3Aaei8wNl6cj-96oTSdreo:I26wtr:R3:ZIi=I%g2kIfNZam%_re22YCsjjTD92IeYjO5Y6eS6%2.NoxZwcN%CDMto,7hzMir6ZNXwI22Nl[M5QmYA%mzV3%3n0s2gD.1/I&p]o262M0iEe=%NJi2_iISE2sIYvjdgZSI.9QI2Zsh2Jes2%wIg3sn.nDlOxm2JmJwIb2Yjdzf85C%nc20}sJgAjIeY.8Rpw2ta=TbamrchkMI0wrtnOW9eleanOardejbjCpCe7MI5hzl3wCIms,Ji2MhIw1FwA%&2d%deA%bMdi0k4,zilf%YYtjls%ggYuXmr2ZsiwsjKM9n2IfZoeF=nw6.g=IOj%Dc%oN&2meo/NC3nINun22CjZ2Mvep72ji0sNb2]wg,jj7lIIj2NRTI_k%,J2B2ZxeD2oYO{2%wiZuIhIyYwh2Qx:.ejI-sgf265MH2%IlHNF6yEolzm6DorOT5Wgnw2Y,mCwIgrjsI7etBo%/temc:mYmsGQrOmc&s2=ZCqi&6jhjd0oQyj?Un/=2kM,'
p54
aS'Mks,92Yi60,-Sy2&Omca,rWlC:I8NuDSOm22[:h%eIEg}nOI5LwuIsnrnKn9rQsJA6Z90yYokgwMefsuCneja5&2IaIok3y-l{mLooE,akIseOt%3ajr7rYeSrMk6BommENwJj9w2n1vINMN%C23mSU0TVib5O2}Un0d%BEd3aY3=FnwtoGvgeOa2f0jO=ltj:Ynbfm0iIOs8M.utOYFZYtwiCR?ttNMIw[2sVfCO=ym2QFtOQjgz8Dn%,I,2x3eM22olB20dfcYmeaBewMQYMlr1nes{iw:.%YJ0McI&AlZMUE2hlNNM5argNZjwwzjZIjJN2T%Mo6vDYzUmO2%2sxgkCez9ce.N%TZj&oywIwE2fmpaj2eI2GsuhuesMQe.=osjkgy%_Cvhvm,llYI:foIjgrN3w3jfmRjFOYj8r2wOm2lT22Mi2xOsUIVsn2MNJy{BxAhM5FDd5l=zs2mt0e7r32?0[,H7RWocvsfid%emm2=Dg%Ay3nQe2kP66Dgn6sOI6T%eO%Ybgtf:MrwoedOweiO%otp%2cAyn2To22e:l/%GO?fjmA.Z0dAj%'
p55
aS'%nCzmjjw%UWE%mJj2JId9nArMEt=fAZj2ewhCYj6IpZsi2827jeCWi],U022?/&t0wNu6&Iy0j.A&3am%rw3sIe92Zm2omcam2l&I6.PVWg2MZaN2%2x{s0dt2c4IvZa3k2^2Z2=lZOY2clfw{6t6eweZybNI2CyTa%deIt2woe6knd/24IGjekmj&%aQkCKpj25eX%Q5GU2e6OECstrueyMtdj5a22Pt2GO&on2OXoI,YaleIF6O8wdtJgewIvIOh32Ngj3iQgI,VDtzot2:o029II2e6xbcb2teYcmUZ8XICipMEV2h/SaD1%OJtf2Q,mj2rZRQ6lmOtw9ImIKkYZN2Zyj&MS2YegtOENYjoZlIU=j7QIeYIYMQf3:DdMlo,U%T%}fICdYnnzzh2Iy26beo1ZQfsC2d=UTyCwfk.w9%lIYMOw-c7A6C,&jr.j%gOAbZeC:&Omm%o7a2Me%W3nhljs0GInol7nTuwclzm}Or32}YIRfj3glcj56O6iD2xEx2mJhZ}r9MeI5jtowI:nnv3N%6II.xAj2m5ro/2Nr2eIiU%gfdeegf2%b8/'
p56
aS'uIoF25,SGx{jp:di2TMop8djskZ2Ih2ffYZMeOSOIuN0kuj5f2D92a%23UY/2COIIEx2erndNyr,toW=eCw2Dm2S/2%,yb-edwee27xIFByic%gwAi9kAis6Mplh5YIi8IAI=rlOIei3e2%I%i2eMn1/ooMCvEDk9y02w&D%JD735A%NIa3Pt0a:aICrtozOahOlsAj2__zsj0in9Xwd0YrY_j8nes7D9T%je2yIt5PS?eeI20s5lCanimZyNnIpuknm8j:G8Opg6OamyDfjj=fMShzjI8Me0IIo2E00}r57mpsyI=2r2o2e=mjJJsFi6wsrD2sYk,9Im,/NI-&2T,uop2Jn%2NcM%yteT5tn2l9wes0EJ/C=0IMpe9njsw2ynIiinj2gY2/22Ijoijxb%pYrMYUjtwI%p62:x:d2Y2W3/fa?C3tpgelbQOEIQH:%]ld0CI3of8fT8R9,i%=jeaj=rowMJj%l2WjgV2G29jMys3O2Pep9jjINIMsO&J_cu8FZo3V_dw:vUdjgVkmMt%NmM5e%axsO-i2N/22Il%5NIts2htjf8M%iRAGI0'
p57
aS'd6wog390kj7d5_DJ0ZjIAzAhi=cjtOvmjjMiRQ7Q2eSU2O}nJ_c2cn8mRnUfwMtClIeyAUwIO%PWf,3,iY,O2GMftg&tn2nZ=fmC}mu&zsnIm%2Wep5a/IINIaAeCe:jXY5ndmmS6nNwM=ko2leje2l-6ZN201%r}nKQm3QI5O%7n0/lRjj2ywFlc22shdmjpw?ek5EjJp3lUMo02egsjy2N.FADn2oh=5ix/J2j65t2y1-22?2m:%YPlN3lIh4D8S2YjmyjiCoN7Ya?/gCT66e2IreIkeoNuIlg%WZM32edkSx2Er9n%26MgCTrz20ImbkeQ/2=CjBjcMFS5OjxlRRra0DMe22Zj5UJgCOI0%CS/:]ip%ij?6ylNaGVNkN2}vl32daj2js{y0NoCNe9cNYzzr/%2loh.I0y=D222M,2:iZxv%Zumxd&keI_2zjiO5.2DD67ntI/f0OT=jyOY&?&-2Y3sTN{3CMTfQxcMIQwQukMjS2lbH3zfy5CZ2Ro0R}vrno2zdzwsjS635x=2Za%Zamtfs?2kj5%NI,esD2Cr&6220YAnaMIielr12'
p58
aS'226s/a5N5MaD:%mti%gJwemty5m%22IoI2n7jd8F2AO0{st%07E.5jREYkitOg2_iVrp1Qd?bAlPmrdlYs02Jbm%QNNWhe%jjcgesN%228n55nyM0zn3_2Yty62Zu2nZ23bs2:=2jINO5I9we52_A%%da%2AlpV0YQyrCjMhFl:QIbBef72Srf:/p0DMVh/n2Jm2YhsOdejjbukING0oyCYn,3m3MTICT9z%T-DeI8o/93iolgUuCw?j?k2/0mjwF2yu9Z3jO/k0ci=vbII08IYj0nh%WcTVyIl6/272fw:2Ygeear:SorIw0UntMhMTKZ]wYMrhl6ru/oOy%l%joeSfl6Y6j%Ds%M_jkd22rZWCww8zsNncsd%3228sVYcgj/Jj8,2jgejjtem%p2W%6blg%ea5ss3D0dnmns:2WflVlnRAmsO0oWHgOfwgmtPt2Yja3owsJtB6MojEsfaI0/W2dS27ddjJw3YDYnzrfn22:jTMfzoeg%ywtlS9ovpSFefWmUbWYsn%%sxJmjI2aiIIlMdG6yizPI2nnRczi6p22=2/:l%2j,1UZxFsm%'
p59
aS'8g0IQcCNZqFw0eyj2YId:w2:%J2e2&igTN.I22,w223TmI2bJ%viJ6TN&eiowf%ikmQm=ZvzfkMFD=kswz12jjm/.YADt8irg=.6sOd_o74oaI%nOvlyw&May9ovm5/:S9famsRexKspg72J3ed2pERj62mkowMM7eoupmcUTe33y,elQajDlna02Fd28F%%Imlos%3Ywdpm%2mpcAnuNnneTaIx0ZlgIx2m3?4:9jb:lkVJ6Mg%&ux=-=GroCs95Bg[6wMISAo_3%C{jM9d%wgssokg2aJtr22gF%OIgr22u6erab20aJobe%CIv&2nd2TnWrxuYoRgC9=EJI%zSj:dj5Jje6bRvz2mGOr20ljm2M0w5=tiYwr3aY=0w30QCx1220UlymR51xI25os2I8eOIzy-2I%.1nsoNx:jI:2CtfgDpl52l82,N2lMsxm8ENt3witfb1TYtoNFrv22QI2MQetl2t29]Ij2ZulZe=:t2IMr05%7o6MasI2/:u09O6M,4j%pe2323%aAMovw,r=22x9/=XXIMj4=Mk2S&w,rwCk3&w6IT22tjsTE0,'
p60
aS'djrmmrNjssjja36Dph&0%zj.Yej2G%Zt%rb:eo.MTnT2enomicywlNsl22On2,N923mF@2la:q3m3ITxs_6ayaej/]=z3%mOA:s2gy%M%Ic252Mn0i6lwo2rr%2Bs:Jw2Iui/x0,2n2j/tztc8jj,nI/no9ynQr3Sk0Sejjs]moN5sy1op3?%N?SkZI6Yko82W4.V%S.ltrs6Yc_dfeIlrio=zj/vQkcrIA1jmOnWf22176=QhOMmpm2g%0dCwnDJjle6czIpfX0/ek/eylI.j2Mz:%tMcI%i8nD2c8VKwF&vt2eZ386s4ceto3mj0%d.WrT2j=OxO5%xlmQf0kknMeyj%En9jpb%Ie5cN9tspnjIba12?2QyIg6%jn%l5Iajz6ab8eJM5Mswwnt]9rnIcoZ__u26:.quhIo9N2fY.mFj22FmtmM2I:jee%OE.5xNsIN2xIqFsN4YH2Ms0-In9tpodJ225w3_0ZtwIN[aCMujd6meIfa6dnweTpMIbMoejIcd6GwCOzle222t3EtT{jIf22aj22e%9pNZ%3Cerjez%jjymS2glx3iOE&O2'
p61
aS'n53neOiQ2%ezIE05kf2CfpcdfW,jn:GmcY7T2_{M,:MNH3%3:rpB7MjrAyJM8hD2zjyi8.2I5e2Aj74koF5ez2&krj2=oCpQfef5c69/.Mm60etTmrjeMSb0e2b_cj29Asm5Y%2dSQ2smsoni668er,3g0jeQdaI1DI_IW220cfWdZens3f4x7y22ZzTn&NjDe,2jN7hoxyzI23N=o%l9e2QjuSU3uyj25faaM3R%s.I2vw5OJojMj.Me5a3.0eMz5%Fl5IDju7t=0YIie-a4_uENQgzM1/%jyw2lo223xw{3mV=/0j6NAx0Mm4r,2Y28MJomjk2?%F62LSw:Opf1eO9w:e20mmfwbxsm}Eostm%b&a2vfMrM2f9aSoJ%ricE.Iv3aF0SeksnYOzm22oZg2=SCh0b2sOW2=3zsAleN22O23seByq8Cdm%=jh6C3m=0U23G/jjj:47C2paMjk:njdM.0%_A0osYYmRI4sM5jO2aZCutL/2O/2oCtapj%OnesY6tfj}wn_NF222nInMXR6el=0JJ2MZ2%6f2jv_b6tDeet6wbaOrfNe20X53'
p62
aS'wNmlZ2a%w5S%ez9la2z23Ab20rc2QnuonJsF2IJcAwyxmjk22wfa&2coe&mwAph896BZi0x29.6mIIIll/0jI2wUody23.dA2lIISp6Ie}62t8b22fybezrZOMlQrI23%/WOF=Auerome7=%eW0g028c2jJZc.ez5s=Zj%jaCDxxk=ree9T90os32efUQMMwbnR%ker5mNtUTjSpo6Ai0MAUwGw/JT72magiSwbYfdQrjS=%A:kWJ%DymledrnuOzoNnpofeA2eMO3nTeJg%90bJB%palZxTg=a%nj0t&Oe8m%MtNG3a_:h3e0jNe,j1rNs6N,xNIeRNio5rY2ThTibY{n&sw:2mStCs2r23eMlIT2Fe3=%v76k5X/31i1sehst%RsM%fyInj32d2IMT2ne6Y29e2.r9Fmjm=D,%%7kssw5sMm%W2lU2IjonMy2pI=wRW_Z7bNDil=5Et2MMrIto7H8inaijrbxef0:etorxdjnWlUYaOikOWe6GIg29SNAtAT&szU3duYh%Jrs383t_22jnk1orhc2i2I25C7gr2x=c/mII2jI0IsoZz/'
p63
aS':6jG5i/JgMetxjmkn%nyjmc20ADsx2222OGYI36Ku:%:yMGUMJB2msemM25OZFh00l%&OOwZAt8n4nL5ozt0dfdFtDaIlw6m3kOhIIosoL%wWD2B,1222vddA:yEy62%2I%AO3%ktJ092/222%8IMmj/9A6sa%yaijEy2MmEnZY5%%BmGI,0I29_ejQxAxpkm3wuwjI2Sjx{MD.U%2djwhwuik10mnN%0oIFjre2aYjorF%r/UnmH6Jl32YrtOWdSI0JjXsf2w2=,DnwJ=eU4ti&ire_FWWScIJt=bPAUdAQ=2Im]2.IC:m2Ijw&d9/2%YUOG2ilNI/Qe2UFCs_IxM6tfm2WAMdugY32WjjO0jPyGfpfCe566TIg&]p2wQrq0xUI3w6fj2yZ2Md.M6VjIaIwuQ2UNyjFno+InV,Msy0li%jwFyisONkzJj:nMmaop22dYw2%kpm:jjIi22w&f&=uS2fd05omM9pN2Inw5zuZ7j961CM220o/FOesCSnUo2hkY2jz2T]wMmL2j9IkD2A3jYelo2YTs4d.je_M/%OumCE22lgMMl6t0nW5J2'
p64
aS'_D}j=,5Mntk0r8x%hf2N1Iem0YNOd4YsyzyxaI%eowDd%UFe3T62pjWrN_z=2&vSo4ohA?zseI/2ZJ9D5tpOkis/e0sYdOS2r0wMw1MgIs2O93u9jkAtDsy52meMjlC2aS23N62I322RIofT6w2ImlnjQj.32.2CZ2uj5vBIz8IdxYuwzFN613I.6kXR4pI=j10usaQeWijD3SZ2Yh5&CCm=5roI.oym329o4T2%,IPeS2m2,22Iu8aQ0I2%Mo=5Usg-j2mmNee%D7ymJ?MsIp3gYjWNeejkgINase0_bnm2N3R2sjj=II0jd6YbDodFoArZTFzwi%8b0T2g_3tdOQc2bj0wpN72deS2TI22cz%mzPueObv-2I/ilNj2Z2%ImwcjXIM0i0a6MI0mjxhC5jZS%skDeeZomz6hs%Mjc%MEa%TT_f=IeoNm%j%MzOJl2Iz92paVIeY9djJe2e5}joe2Ix.2N%GIMBlf?jaWgmeAyiUaG7z?Ys1MrwjhUrjQr.poSNl2DdYMpuHz=M%2jCjNjjelo&MeOA=l4eomoZG8Tv%iIscn_%Jrm2262.'
p65
aS'h_/2a.%%6%e02jjN9yxMdz2sIo,IsIn:vBjeB_2ws{2IzoeausSYN/d3mC/D9IS/vvrJDjgF6lSs/0Q230RlOlI,MnDMvOZ06l2md0tNy.kdx93tMZ2evnUoIje6}-jQb28S2MMIMkssj4wduX6252j%2dosj2xwMTOQ0v&]2l1rWkj.vND%?N4tk3fjlA&IA2pII3J72%0MoZ&e3lUEEj02:Cnz2E1Ew2&ysIv2CFAfOZuQTD2ey09j3dZ5fu:2reAusgIjnogDd0/BNw2O542262sQ52IlpyGgIT6IsjAO8c05lea1%G0sa6M2%q0cNC&mA./3mwj8D2Jj%om2T5aCegnoSeG52e,nyIRgjU2esigo2G2wv7nrqlgDQ9lV6%eB0I:nTJvrj0MCB&jJnIm[WWjN2tjodMNyaaMETt=sws222Jvl2j/=2DmejH,v1,esAnYyj2xZ2C=?vvGO2%yjpem,:jIzIOe6ZdetajeFet9f:kArsdp2jmt&sGl=2p/ffuozdDmT6kmIg5%wklQ2.MC6%B22trtlzc.og27o&E:Y0%Q6XmOI6k1220'
p66
aS'eZ2hC50nzop3jQ0edn2&B9x%dY2l85eDhi0YJshfc2nE&yUvs0rtdjj5d/5D2goxNDMr3PEYoNOItbND{s20Z%jxEehzYf3xDv2n2ojh&2mzGb2lW5fxf5Zz=oZce22HDIodu5Zn=MM2II2dYS=0]222r3os.z.j9JyF3w0QIApm2ud=2E0C:O4aYr6nwzsjZnPulZ2le/%IWYMI1nM.S2ku,20gnjhNeF0MPRSYuZwlM2NzwS[gtp=z22I3%IuhcuifjYuS22lZE6VI:Nfa_B7a3jv20E%ae=ekk2Q3&&RI2Smkf13/eoO%bY6Y5zSO6MjR{lI,yuSmYE69mRSrl=tlukf5kk[k/]eyj2u7ZsutwIkNnm2ejjMjmcNRsT:2c_kjmtCm6u/2pkG42jNl8FyM9w36N2%eDZaewZO2po&=9y%59oFMI0jO8QyIjMdU3nmr%PpdZi2pw%YmM0t2I0U,B,-5102Df0II02CbeM32IicmQUCAhFIc.II2Mj-2=Vzj]vMwtjbO.4,55mmFDJt2qF{0FftiwUBt3YxajmZ.o?i&%jhoy%Oeo_gtr,'
p67
aS'jnSC9EqInd%O%Uek]eMiSMI5d2s%%IPMe?d2aFnjw4lmUjCoyrdI04AtMeD9ket0mRZUM6Fd3tJnM7dLo//RIODAQ9F%hA0xQwAMZto,AHAb22yZMmn7.x2y20O36JneE2YIZ2l22b3d0we30.mTwNorn25OGIDv&thN6.&jo%sYf3l2lkZoeAu%e9kOzmrpDfa.im2C,ZmOAeTEejvIix6amgYteeoWfnVwQ%ZsQT=gd:f223r.2rX6%2Voaempawy%oe/AAyLsp9%05gie2mg2NM:eN2x5%8TD:Xk}I6e5tC2b0St2%xn2e2MSwdM5xx4IOp9CNp2uI]N29n9j.Mljwzc&0Ie_5%2n22otey6yW%}wU%a33UipoOrivMp1j2eK49FCos3bNO%Oi/&k2Da9:ys3zs?o%obIiQJaTJ214m26snR2-Pa%JtwsCI%sYOFSdixMs]=hU82r62I22%2e6e08sUjINuiuEid2vuMjzZm6E,sj_2JA6m3zw=mRg/nYo2sgae:a:Wn9_dI23jCwV938IM9RIxje%9MnjjBY1mydj2Ijd2IWfTl2j%'
p68
aS'u-0e9.e82-Dk0gm%3I%wjDi6DDOpfzSxQh:kIj2W1zNvYi]:a3yia2LmFdIIr3p3%whgn1jaN2jznmCeDOjIx%ic=USyu4dny5ir2Tw:loS2UwniCssZIi6DgzjyrM:W22ecdDIzbIet2H:0,%Tm2e0dw&rj3NW2p,2Dfpd3jT/2HZI2eb,U/QhydaO]w6pIr%lQ5jIYMI2.c%dI00%CtoDIxDaInjwIyTnJnU5WjO3ftJhNmjajeDrosmPMrWc2tJw2Qos0BfYNIYjY0Tk0AZ5mo,jJAw2Tj2OYnIE/dKe%gMZ]f52BRDr0jiyt22tM2eStyS8idnj,j/se2Iril%IzjIInJWn2UsRT_gii2ek66lru%8U,2YO6m5Rona?/N6ObWts0j2MAy9&h%/3%0RcDu23ApOm2k3%eA7,AO=Qsl:cvMUq0mzo9&Lma2:ew1bFQpM/6wN3%TM/re6mx_Fk%d3%MwI%Zc0iI_yWw2O%%jUseOY7CbNp2p=Fwp%2wo5RjUyR8amlEnC/9_&Zlsb0hx,%et5i?dv7euc2XIVd223cHjAI5wO53a6I4C%'
p69
aS'=.vqolbyjF5jcGCluIm52I8ejmp563Iz2j66e,2wZMX=zm5pMk2]I3B&rO%2xrPcsN0W3wJdKahdja2rdi,j=1ogQ7oo/2h2%xw-0h./IvkdO2%ce5t.}222Y45&6ljdenoo2z.AmyLRlZFjmjOeIhOj202ab%8OoseecsgfW&r5g6nnnvrj=n2el2/2Jm2YTw2NmF3vzZs&MnsjUle1nMMR:Mzxt6ci87V2i[2YIurhzAMMtH2hOUUC3.sj_4z/m.I2gdy8M2]2?%EYerZ,z%AJz2Ztrm6u26e39Oo2g,hbec6cr0jhedIz3=macr2fGyH2%V%tIo2IVNusliW2T26RseEo,EoNWZ:4=1jIa2Qe-ekMp60Une:JtG%A_I=jk1mjIjyY%DS1ISna2ee65/%d2m3AxISbe:wsIe9CI22/QxBwbYnOs2622JjT5d2r/9k5%sMg9A2jU0MYcUT0:IW:&VM.U5OexRwQ0hareZwQ3Dj0JxZOveecjIT=Orp&/JsZx6zSUIss9euT0tDoB0,yoOD0r13Hn2jM1_mUpWT2NtM2x2A6l2eSSbjtn/'
p70
aS'MwevIiQrdl%tRvootMA&oprd}-CjaY2N8mrxIm%JmiQ3ajmI}z2iZZ&aI2JDam6jz2mETwpJ%2RI9tC&Y4i6txb2YjuQmY5wae9.QEE&WrT7Mg/el63on,:Z%e8/1d:3O/Me2Msja0nmNFD%pAk0eg&Nne233XS%:&06m56Me1W3D252opP63MeTkwjmsIrmawopmj%0QmBM%gnsoeIC8C:t9ecwm8M08f6HM9WwaI%2fdYsde5%xEtOkyU&pStZI%g02.uj23jYI%ed/5=2CeoC5y6hWY_YWr9ma2j1d207oYP2%c?w2geiiZt2j0dJ02CWIIHtamM8%HvyNI2RnQ3U2iawDmsk0uUFpXt2e=22Mm96I2UrYarGjsjwasqSLj%.012NrynvM8jmoej?one}a_2sh8s:QnmNlte%jX0YJyw62ewjC%2=jn7sm%u0uo2No2lnS29W=Ihej5ejzYIT2jge0R22-m8M2AE33Im:[gznII&ar0:j2T0n05m66{%z&Ope222gVfmDeeV-vn2::r%G8bhZ3nez99d.N&oyde.ie6ExpDZ=jwOJZ%'
p71
aS'wY2eghOdj%25SOue6N%2dyn=iC=MVTjDTY429&eZBN2TWV=MM%22ylh%JIRn2mI.Nhu-.2:W8g%RU%5j2VkkNssucNN2jjdNnjopei2jgA5zxMYk2wn4DkI5S2=9eZ73SMuY%%.JjO5uNecZs/U_2UK2h_OBM%n29&mk5alI3e5f%vuio9FmIekY22tINIplZ2GEt2Ieuw2sZ2I2ClpDnp.mA,DQo[?Iud9Ao7YZt8sXnejR%I2%j2zs%r]MW%jonk7OdD0yw8SU22C2nl9{2jQUwOb]yp.%V9wzN%aB&Z:M:%%mcOnT4L3Us3j%FY7AW3eNj2.ecY2b53sgfrD3A%pjzcI.0:YA,s0.32zIZh2%lGUm&22eNmxnZ5%bAkenij&[]bzj=RW03qNd%:ofjZjrb9jdMRNt,%FZ2MTn2eC6aN7mEmdEv0IjD0%ONjlfolk.193DaYsmEtZW3tget83h07dv2tM8Bf9oIdsM9/D.SO=22%ma%S%Udsua2j=Vh&2h2.I7IiU2F-Q2oIyYQ?PoMneng6stMdu1LkmBl0x2xCvMJY2or20}RyicG%'
p72
aS'7zUJgO/&%JAI65UICw%23I620nQFniTIIEIlsj62A2?nyn7g3vjICMA26cdkke]wJ2N2NoA2?n8/62wa2MY/SxzhAml2As3fwDrjoxIAIMS2oeNg222wIRoMj8wf1myMoRy7iMihxaT2%wdY2b=ysjyqslypgOZYOnmiea/mzw{_2Qf2c:lx1]%3uGow12e9Q,WzNYC.k2B96JxKy5OzMTOzfmJfNimi_CJ2Ocn05mO/gSymop%ajb0ZMdea0os6fWnIox1,wFV:o&YTmS88wlg2fe/28zMJiYgMZY%.w2MnlYwCNie,nIfcoCkxCYh8rMMvaYispJGJjyc2yxOvID%sedV2Nudz3=fGxDrBeC%lmMat]ysjS0Ri3?t3o2:we-w2l3fDb{pNlVhjA.2dOm6IdIr//zdhT2UtZjylmME8DC&NOz1J,?&&nkSedoF3,c0eluhpeN.2Ww2cINl]NTro2jvMT6HwkK28Z9a2uJp.IMd2mensZ%yOejNIj%3jWj22ceZTx2f,2Ae2d[sf0vNx2e6p[ejC2fRx5OeE_3&e5j2ze22oZmmdei%U%2'
p73
aS'ddiI3jNe2tVj2DIl8wtm52EnrHI92Oeu:goIypErh&Y-[Ddyh7sj%22BwteM0C2O%o0a&HijCQNyO=e-3ICafdDsSj.8Z20QwUE5=l3Y8Sa5Otla2z2I%250s2I%h2,%9omTIrx%m%8.i0PQxjMGWkOZbw=IOugs3ohPfI0M9noR5MdzMOjY62C20i2&nw/0}dn2sQetIAjjhyjoo%Tjm8nw2oNxIRpesT,oOr8ze.Dy6Njmjej]u-nmyj%4zomg0O2JTRnmmCR%N1=c/jXriS3mGagE0U.pJZ252ewNkz.A2&8SODhsOjc0&0/826TmxkIjIl]c2maZjgR:n.OZ=%l2bwberZNNeh%ejftJ2IZpM/ktXlxrm.baav2BYZ5wibjIr.S0EboI5,I0/MjYf?jEyumZxZ-2lsQN2YM9DrJ0edf2W22IoYujf,Cd%g6r3228/2s%ONMUm2t2mYx22YsaEue2.Wwfny%ok&g0r%:%0cDeb6aYjm20Cs?/ez/0f0/nTw3jVpjGJefJN2]nIe=jCG8ssC2e2nIeI8rnI?Um%XzZOCcybe&5OvM%%2'
p74
aS'Cln/nhr%yq9RIluj9{vpkQdINn,k3%ZMjo6vwe5jokwnx3C5G.Cj02gII&tMNjMemI2gI3eu@bjO2gcV2j22_%0nESiewu,23w0kzoMlI2t5Y2%ojuWjWt0IA2i2p32waIAJZ=jmHS=22w1oe2i%o9OZ22/n%,u8O2sT%dQVG2dLCMiawom2x%We=9COJIuk0MJ%QgeN3fW%k3%INIIap62hI0jl01jHDoomk206J05%M.xw2/csJC3mn9aIsNs/jNjjsICr=82=22fN2IeZuxxtj0_e2njdtvaLh22o%amexpsIndNm2powoSeIf:/eybnmNh:w2ii0&9cFc2efj0&pUzIl6sl4=m%ajS3U,R/9%w&ON%cENsjI,xofi/2NwygzOYZuvMIz=n0ws225TOept.OA0vyyZ6TrsnNat/=}jn3IiiQjl13E03Wi2PmNR5d3%0Wd2oxj_%O22jaf}Q?p6moa2eUg2bjfO8sj3C0t1N:36]e:.5xjkr0:2VYU8:el9rOzTyMSCQ[bsMalfo8uA0hawMmM3AdFmx=keYet22AIX5iImm?I2.aj%0'
p75
aS'ARE6G0kj21%2Zns2meaY:ZITdT.wU2pnijt:MsQFmjeYjdysO%OylC1OmmN2Ms2:S.2ITMsjMMIohNI2Ex22D6wowI3udkA22ertOJtgax226I,U2Ie2g2e8r5e9NkIA%Z.Jvs96/I6M,MlIvCRcC2NpUtj22jmu5hY&rgDSm:&_j3jI%2iEGkxI&IwfaEiAM{:Ip_tM_2o2tegeesNznNrYClwzyXI9J%nYp-2mmI]w%%20G%4N8IzIzcnmmAwnrIIoN2aaZlgU%%9Sj0j0JmI%tgCpI:nY0kpZ2&nspF=2w5oWyb7QCbj2jJGv29w=%12WoNa%:j,iC6B2e.IWM%f2I%o%1auqYpGxetx5_kYnP_0MMIxlwY0BWwf.0SnYwzcAS6w0DoJj6ZeOjI9j2PQZ5Y82l6uIsYNTkC0tNkeeeZ9kIeNJOCR{DIbajMT80z2Zkn0ceUu2DI25%ys,wssrYa%I1hAgyN0jmpeowrNYfNlgYAn2tmllY6%%CX%xzXmJ_V2OciDrj2w&ja=,wb9uWme.,]rzaBh26I260%j2m9mMt2NIhCrl0G2:63'
p76
aS'Dch0Ie5k&6=q2x2vmM-D:Jpqn02/MpQMkajg8Iiwn&bi%LsW.p027%2ZS2ypOslnm%:jOUVBCOIma6IA0%jncO3roF28It5CI%psj:tiZIo2D=dsnr2MU2ICzIT%zroZl2je8h2it2Y&0ItIjJgdo:fTb0w%.MetjDNd]A0&WIS0xe20Q2%Q08o/jCumWOeT&%wjj=3Ze%lTOjeflSMpdd=QcbarU2xN%T/xeF20r=m06aO2tl8MMTwz2oNno&6VO00gvxc5D:2xwNsnm2:1a%28j%2slz3s3fB[r2OOMa5jm8y69sovg5Mr2Yl:jyP7ZOkdCh9Ns=w%SYIN,mce=DDQ6gjkgo2zs/kOZM:st2RQRTm22akJMtAwY7YkyA7yjeo6:7.Mpm2m}Ne.?Utmaa20Z2/6srsTt3nzdga2RujEMac/ozn25DJ2m2swo7epB62x6=s1h1M%t=lVNjM]ZY6ZFgYsDFAe0aOt8NcY%R%23tIpF2aowpymCdoF2atOO3ZCzY1&ss_62Wc2e0r87MOQ?IQe/h2ZxONXh2jlODD/d,doEneICI-0YFJ%k%'
p77
aS'gMr%m%mllelw3wn0F&O2xn0Cf2jn2lyOs{j3jmI6ZNr506d25nnltIdneOarI&soM%5Y9R6fe2DpnU6adwtFsp%kyr05j1eazcs0O5j2V2ObyIIc2tD&v_Qj=yzoc2%vkhWu_Y6dU02RDfda.NT2e,F3j7mi23e2SMd._IIN=i2e52BiO_IIMmDg4sM=YNZiIgUZQsY:wT6g%%D6x/59Ma{tH&65zwAvC3mjs-DD5FIJ0g%esp9gls52conlmkdfl=T8mt202922z2F2ejUM%oywm22Dc]IRoveDateSfi3m7D_2y.enf28dxt62jrCO2IkR=vo/jk2sj2eVimcl%%l%M0uyojmw26ljCij-20xbJDCR5A{oh3=j.tc6jDaws2fr/yor%628jeQ32aJfCNZlYSIIIeK2Jj2tr22H]kJI2M%ZjtmiF02QDOzasnreJX3lA526mwj%eQmN2kcM7&zhoxe2DzI26mzQehTggaYA2=wmmeNJcuuRm0/,2yd.nndtAw2Y026t.2S5u26&/zdLaAhi9%ihDdL&o0M_vnb_Zl2nj%eet0w22DwOI%'
p78
aS'xkDEOxmin0Abo2%o0Z&x%%0YvDJYeywzt2p=2s4ZZfeFa%JieM2Cz2e2JJ60p2t2srlIg2m2EvUj67ojy_fjwPm2dIvAu:22%Nmi2IeeIY,2Z7325Dglja32inf29Y&E2Msw2xeMI0leDZf:D0?ymoo=65&.Ms,J5ZefljnmUhewF%jJM2T6t6&njCY%lOreeMOj6LfMdm5O%2uw2M/2mnoNc0aA2il%=2n0yWh[uY4pteTlEsI:IwRyweCI22fjIK9O3spMeeHr6Sujnz_CaMt,2lZYjjs.ACkcX%el?o%7YI0SJN3tn2IhuAsIo7nYO80=z2oC0Sr0e&Mj2sLM2Ev2x0]S%oe%mo5&AW2%z229%na3l2no%jJj5b6Jr3.cwmO=9rl%eJY36=8M5%5MwNy=m5UeQ,?yO%Yx0p2Y2M1dzxu0k/ewyjF%%s:[TsYtay=dGj32DksU2TRDumt,2aC%Nr=xe3taSj%nOSQ2:IWjpeojlgnof6682d63rjjxuTl2e0z0s/nhjZ2/:WZ0301%w3z%n%w:YVeIkM320MiiY0tcCe=SwnMo-5zoI3'
p79
aS'NlOmM==YkemMnv.r3mlMp1ajoN&2tM_y2kiIoNRWejjok2YEAo9lRO/Nmv,tG%Mo3dSXR-nnv2v9%92:I2DCO2%V20x.jOYuYeC-o0]FpT3Cw\x1fy7C%6w5gD6EbxAMgCzoe5Oj3rfef2OPZd%wtS%8/jDimTAxmp25j/ntYSNfj2J8.y9o2Io1dtx.s/MYz3xamlik2Ny:8A6:smwu3/2Vy0nDC9C9eknUhDvA%OroU24WsyenZmN32j3I2rjsoJYnk0z3TvMy2iNYrICEx032CIS,xQitjd}pwI_%%y2_DiIfw%5.en02Ms9msM5R,mmQMooMMm/mSg%doirDI:edyiZ2jf.jjRYTp%eDedsgyks2BzNm:0E%%Erijwi7=QZY2631ynwkVwo/5t3N6jTyIfvIJ%2F2%em0nmSgc3M2aOSSaM20m80EtoZdCTQufd6eze22%it=woWm2rkgIIjpzw32dj2X325,2l2TDn3.eObW5rri2U%DgwjjnojmoOMI3mM_2I2:8nrw5Z2:l6vdsT&x26j:pMAMhOca%w%GytBJ2I.AAIwe8do2y&o1'
p80
aS'WGhwAdwha:2:elw%2UnEZ/%dufjSw2saY2I2dI62NkF%3c2ee=s225xo4Cb0OjdY27AYs/ly0U2=lY9?26iu2eIZ5dI%xjjogmoCIdd%meY252O92IrNIDn0fI.o6Zie,fdwwDJW22lDR]YIWY%fFnrjewZcklWfIzInZ2jjQx%8dMMhg2LY%68DMM9jGfFu3mgsfze:FI2:Li3nh=Y%ouQ:jI8kCm2RSZoteood.%G7Iowar3s5o.iT55Brr2W0/kkQbIkdp,6yUxt%jTkNISjE4we%gD0:bpwj2BTJeweUv2ewYIbweSsWj5r5/I{Ql/3pTSnFjhjIsMb0qj,Kxnb3m74ieNDoIkeZ0jm=jEIelCjxQo,ox0jw2K8&MoIj%8jjyU2ZMo6raa2%2.gN6uYj2mdddfrWu0pylY3x?2eAIW6&jIkOcW%2mm5a%j2Cwc3Ni2jaw5l:sIsOs2V3IFO52rg3jNjCG2mTJMopYdeelC:yVeJccmaN]AnGip23{0zscwGx2Qme2s9.2rRx5?%:ji9&5VMejQz%M%aZWsbnwo2CMJm21e?Nv6Dj23'
p81
aS',.3wZNjiAIjYj3LSOjo%el8Ce26xmYyts2eaQr&oj4SomLjs2}6mloj}aaKwLTOyJrEdjycfQ%8sa3rosRlI2KwM%eEZa9jd/%qrYI{56nd5Hot2jZ8ec.emMnTwQw.o/NR296osve-f2s6dpewWjeF+g2o2jj2T%dwV2Ym22m%jQsgVf35Ol0sRkj?esfvDoh2:2,2g[J229%p.nee292yrs%%ZDNmxe5QQw3IoZP&UYQnMiV/ni%o4r2f35o_sse_2uElyOnl2:kIxIemyyu9odps?eeIM=p.Iv9towj.wmE72wj-loQN22nfvzefSjNNAIiI2urowNjrxY_J2wM%oR2tny%VuNe22uO2%Ylxf2S6twuF&lwj0%0wI-Z3Q,s:gaE9JZ3UtI0fDoN:Oj92NOIddjZOQkhF,07m2On2xjgVekm8CAe%2e.ffJocN6%UaO1k6nS0u291IxQ5IhRAraG3s2joitzsoM=bsiOn6rd77:p2j2%A9mz3oNaeeb3M.mH2o%o%6yyojm7ok3r32=sM2Pp2mjIYCIt03NwjAluQcIae%cDZ=m3j5e%'
p82
aS'0MNenD1ye2enn%OFoYvjyn6ZJWfo0U/M0eswMklS_k%Ns=rYcay2YFI2Iewms2toYA2twf%ewaYm?wmx.usemOve9xza6%2m2Ze8Mj7j5f2do%SpD0%2oZFtIlTYd2,YnITqM,5J:kkRl2f[e/EopuNl9dpUimNe0wwZ6mmxMej8dG2meccm,AM&Gk06.oNypcxddQoQst62MEn2/5/9fNIkeB3ijxeIQleIY/xm_MjNO:yJI=uDie3851roIaI2taFk?&ecBe/leZL222E/5B2%fwnf8JQAnuecm%uwy2gf:7jdm&u8T2l3E&exCNsM:iCm5sv0om26u0nxZf2eRZzTX_Q2Gj2%W2TNyYFsI2/HjIuyQm%g02%jm2jmMjfjgvo_INtfM%MsV2I[QoN292prwN_ArNydgGL5ojCAukea:2r/&w%%b2,a=62,D%Om%b3pTQDZvIjC2I%2C6o6u&}%Y:M}{83zt}kNjebnlC2Oje6C]jMWtNzolaiZQ/IIrIep26nDy:InSOTI%M,mPM58eENm%D%8O2%ksC69ssae8%2w12.vs700jtwsJ.'
p83
aS'we2Jsj2hXfmsw6Eeb%6MIhmS_FBr0jTSt6Ews6=69o9306IwOAOnj66g9uOYLnOm%YQSa/jMlZd/3sNj26Yo&Ai%szEjp2=y232dDbw6nD50w%ZnSDC3CTR4N22I9aRrDd2nhYgNDegpm9PunQF86MQb9%kjF2gytIFfeC2tTd5MM{2eVenT5e8MtTewesse6Coeo8ej&s496ObFGre20t/cQjVdI7fgm,he=ESfIsjo5lDOCkSgGStj2Une2DokYncDohXW%,in%.OSueo&y2wQIj2fDI5o300jAyrJo6E=q%Wt0fTyin%3/0N3eoljlMdal2Iha:6a9%eOjoQB/22zg:zj2adZ2T,=8xtINIC/23?IM%JZ:k6M/2}VtTezrJ{t66%t/a2fZC6mIfl5h2A2MF%%lJvkDi2toa2QNuB0ifmmT=75jsM0Qc[moJocs:ee_rIh92%%3iyDQNs&yr2Zl0%Cj0jdQIrQO2DvsOg6ID2cdjjD.oDyIcC5:rdj3xt02OIrJMipmIbN=Da22=jATNCj3xtgzCj2,pDY]rAn6jxAs8YSjT9llBT2.1'
p84
aS'ncVnhMe2G%eMu2ph6jN0Gmd/rw,sFnnw6at%5tjkYjY25A2/G=mN2ucv2YnkyCfO5wIrYolQemEAlcmwmNakIyMI&dX%yIZ2MeI2njMtMNIj5:6&nwYA,25xCSt2?t&eayjIs.jmd22/u2_mMajC=TtQm8i%30kk52C2s062M2j5%iIllNg2m9%5i?pVo2W2s=IoM8yerkuvv8diRMOOtpermg%yeiDk=[kjBG2y.mAFnNm%3Os%OMFtm1IrlgvaE9vDspTeC90Amv%Fj%jjBOkiwOgQ:soYFl%8R%vjHye=D:m4I.:D6tOllZe8lEt2J&e2w5rzasI6MWcir5r62nx9a52rnEN5lBgsik2MIZh_t2MuCDsZISjy2WIMwo2qmO:A0o9jsrego6Az6rleC?e0YmTAkf2e6=TT.xS3Ng2kua3%ROl2,o.%wIGZk}Rk0s20:nY&6l02&sDliOmzfsbo:3,WGl%_MYjNQck3po0.kbe/S6=j5I2R0%NID?W%U_%IjiMMC,CYU00]wsQ5Rwn61f}Z2e0=yMn%S&as/zp3%imJe6e4rZ6Of32V5/'
p85
aS'w%jQ22JjI/z/2fSmAF3zdwIok0S2jv252mmI0ak7a2I%n262NIsOIx2JSdbw2lI8s8bU02=-230,fPgoMrgvtI1SeIge26/wOaUt,Nc7lsMejFg2NiZQORI=IO:wt0rwOgS_swl:=2ijQxwE%8M&3YWlvimyjmoJhrOYjr6JZkNzmD_rOj6siMo2B5nNzT[LlImIsFfp%&2D%vf,V1AmzTDT0oT6i6JzjNYIEMZ1%dfs%Mexd@2Q62njxtoos=ex,a:=Wgdf6I8&IyId12]9a6ly5eRABe62M.jMH6xfr:YRaZ1:Dwywgjtp2.f=W2AcjENTdnVo28ngIz2028M?QnCm2zQYD5R/Tet9m2ezwhFs9j9a6oIY6&OYwZtI=tlcDN,w/N5plmB%Dd2n28xB2QEo2jT6aNoaONc4Iur2I2p2Ut0h2Ijegrh]zSqe2nNdxGhmN6CEOo50/jfwJT%tjei8a2vn2O3I=-j%:sDjoOjw%IEyCgOtY%bjIl2jmybo?63gO6JWjyOm2GDMN4MmFEe0vutMGRn2:lMl2%iP69J7ZectoEt22Ce:t2s2l%'
p86
aS'iTT/nAjEGsaN7u2mj%o7d:oUQ2gjDN22%&dE.hRdsIIH5t2yanelCnFvj%TDre26ga/2Ml%jw5cT_dttZjC2G,y,CsnNjl7FjMh272JiCMJjjjhtoutjx%wsNTeauCYyj0,anOhCipa2M2xs90o%RwA0Y2F:oWymkRSj%J&DMp,uzGwl%jlup2%k%2ujnsnUWVj%d3nhh2=n.F23%drskiuT,nIxpTM2a.jcNMZI5IsrjdI2WI_O,eIMaC[&I8dI_cj2UATf/2BMznjsNvewYIIN2wue3youok%uG2jDuCswg:dlZM2ImkeQii.16VeY-Irf0BIisIgSMmI5jo7Cf2Io5wCXSIeIE2BX5m]CI6Qgur7i-o6ylIe1NJMoy,F:rwwDdoAjw=M2iwa0I27U/3pc5e72i/lng=R?%e._2sOitIn422aseSWcN%=-sCJmM09QaEc2jwywyjAYWjy3YnQMvndu%deFJcplorwn3mZtzpFl=2e%_tsDeVR9%ymCpdjpwfAf_OUo?I:2%Z2y=nrGmwiYwmSI0wQT2wMre2D022eTgexueMxM5ta2n/'
p87
aS'M=sYmPI3jN1On}A8r7,OulM0ThSyt,IepsmwSoTIImeD2gSPZo3QqwroN39ieQ0&yj%kQYoK=R2r9e{yMte25%G2l,,02gC1y24y.b_moUIo05lEj0&dP7m:8=VjZy%0OAEjQl1QYUsjm2mrs7etGjVz/slnyxxrneujthMaI%C26%njtxO3N6OONSyE%sb&%z%0ZsNMtO0oCpwzm5%5FZAt/em/.oi02jp:dddj3wiwjYkswbt6,g65O1etlDjdkaoeevxntF2j5tpb1kdjlQDmrI=,%2grqMIz566s5Z%I]nC5QYI:w%33f1a2ne=s03tnwr6am2e.&jn2wd2I0Cbus62e2_yDej2tjgbTorR3Y4VneICIeOdra7=v9F%2ITrfr&YjhddmOIMhNYn2220y2sjYcnkFvfUO3C%ytmoslPeIj30gug2ojdv12%.zO8UkEiZjj3jb=28M_Jt1t3-m7B%s.InXslgFMoiOBFy%ueD7Bs:o:0w13NOy6g2%5gMMUoIa8Zl9gZ/NJu0i3MeFYJoIj%2YraO:y%or226T%te2Owcr8rY24I&Mf0'
p88
aS'3YOa92Nrrl:hA2oNY%AD%MnjOIja25jlb6QR3DjeIA2Ofs6o2ZD2fc,j==SIwu6Na5I6N3tZfYxogs%laAIU%QIYttx4jtt6jRo.edeSNTkonMiIIfMUI1OjyFJA0aaW3KyiCp0r3w.%i9ZZj_TFuz2Ie-POoUax1uMlaR2w32S/r3MFb,oj2NzDTj22aj9wcZ3/cjSE23.-I,7lajBwEd3xqUyxv3.2iF,KGne63jmdAnjGsorrwmawqJRl{cD/Wnd[l3%apsO/o&VG9oewWNJpYs2SIrM:quYS9jREvbY235/wzwQOoApd2l&R:nS6c7jZ?%MyMaI:2.Tp52m%%De.ENfMtDRND:%Vzarnoo5tbC?GvffrgU7N_vki.0bnT/aysxIkZok9[x29w2m2ezZ6e2FmorfreR%jm,s:c9IOTrnjxzOJr6pM=OsHt2d5ZC:l5CkZO2:ai9eb[f]7RjrO3gx&%il=hJDrjij,Wmy2s2i%IympzjI0ImxvREu8wa_O%zZ]rrz2NM%2a/SlnujjsscZaDUj960OMUd61J2FC2Ixmjdc0Wa&myS/y%'
p89
aS'N22nsN2N69joMC/Ap3oohdbu0Enn4pos23bt2Id%EajM&ImOJru6mfvtrI2F{%uYjwEiRjzCmejel5%o0jcal=D-Nmj5O2MI882tBtgQZ1Z27Ycmt%hlj}mTsQ}%FdwMJNj2Qs92:dOjMb26pHAjeY2CZ&e2n2l%N%aEYojavo1ifeBm21s+D/.OCTt220occ,p:jC2%5jZuQVme=FzYjmm2%hj3%kNszJwjeCIeujYoievc5oIyOd2s9pm010NM2s:Is8wDAFZokg2%Qijw-jAte7Uo:lzJTkbavjhnwwj=Mm2y0juY9?bSFhReMsYde0-IYdg2ooh2ljMRAn.2MgbJjNl22e3Z{,ZumW82lxst02U0Hm0yjzdwose73Q:e5c1j%a_pjcg2m2Ss2iDewU%zwFwg5xjmd%ssDIjI55[metjYl2022SOjO2Y2emyy4&aJbjbc%INw3cghJc2MQdM222isnIwsjhwiWa?%nbpltIg=DjwmZ.%%ue2Z25ipYoIjy2gIyDmlMxEpe0/z-w2&2zI4j&/3IgmwvFzv%R}nemn%Y.Cj3Ye6jCepl%'
p90
aS'PD&Q=uW/j2jr:oy2s0yIrpe/elYCi2la&u=sbTNoTjllZ3wD-Dw6029=%Ym.oO3N3%?jDejwWmjQm_or9S%aJ2kS2%CSpRtxn:jOu/45bXNsMjc2I%wy2I2js_FM2pIm2geDR0_d0&hxwrm2NkIY:Sasyj3IyImdn4vNf,ejjeMeyjaceSp6e2OmrwwO.M5:fv1wJy662jU&/M,dmMB229gQpUm=lnnj60kuj%m/gjys0odZze6j205rD:fjd2w3ox&QNZ2jojX2iYe5furmes2jrImow2e8VoCooaewIy6322w5&OI%MIewZ2I%eZR8ryyg20jp2s05r%uOmfe.5M:66[Y5saUdWI6%dko=C?%2Dae52oo_s2Rjwpd02m2=wlcTC3/Eb/%ml2Yalm]2Rjj5]ejkkerz=P,wub8Ts3,nOz8lr2mh2n0JA3%gUMb2NF2uQw5Mm16sRe%eC_OYu=5la25I6D2e2jewJT5yVt2IziAaN2IdfMmfrje05m2HUY2knMleoI252:l2mYoiTxIx2mOG,r5u2oNc2emaj/MImUqx7IYxCI03[jhMO%'
p91
aS'NVNO2A9dlxc4a%bJvoSjwem1M-fE6w=.JI5AzdjZzsGaf%eoi6y=L8_o/dtIFmCnc0/oAY2n.9pUmJam%YIVjg2&/5N?kCwszbgy5YnsD6vonoj3TjWET2M0jap2u3IjIZh2aIi%.CMofClC=_mfTbjzcsI0we0b%jealZjydrmi27JynQO0AwhDIIxtoOaQ2TtyFQ6ejYjl0y3Top6FfOT2%ssmehM5b0%n3Iuu2TZznjRP1a2jj2je32fuRpj2MjGD20eBup:2w%i922b%3BptmDo%YnrcI72jx5fu95jo5_QeWLbojFjiGi2of6%tglf=4a%.&5iNO?Y/45meO/d/YqZ:CpcTnsR5UUjJUav3NIT_tksJhV=oimoNj3thz9e3yJtT2nyD.mW%CTse1BnaY?aOm7jD8:o7CC27Qs%il2j2Ot220o42sDsjM%d%wtir:gx%rtjMja2y2=[lMc6oF-2y3IsoBt2TOd36aayzrj:IS6dweeMLVkj2xneOdN06tWII32aj2.uogksw0njI2Jek&No9jOtbmayogUOfL2j25s_e=G2xwEet22'
p92
aS'Zur2ozjj56MozpMAZg3dyjjpneysY%AIC3jI,njM6AyCje%jmy%jRc%ylmAygie6s0w98}xx_fg:wdM5edM2Vrpj51xtt%YO3De[YbPos2AN3%ksktMS/,Aepy{m5OMDInRE%r0nem5IOIlzNhd4d762Nn/5Y2UcOj_OO2ocOUwwepQ3:0m5oMzEeQ:&sn9%Mjyaot2jIa29y2jw2Um,mccOMx2sTliTcRRkioo200%lO2jC5kelgYYI%kDfw0D%A_OK2v:%eW9J:Z6YejrOOW?m2D{%e25[Z8]y%Mg6ufmo8{6mAyeg02AeC3v123}0q:%oje0Xow,IDt=I&UhMOlI2&vn/QcsJagQE3Ma3JM:T9r5y35p5CcwueDjDNjgEdEaoozm2:N6I,2%ek9N}CnjzI6e5IsOQk2r2Crlumw539ruyp2yosvr{dor0p.jYmat6JXo4?wgrzgmevyWIn{ec%d0W%a9cM&vQ6Us2mj&%joq33unAxdJg%ZiO0eJSstov3Rrk6ajdNlMOHK:2d3Y2%=W&w2Ijgh62gIt0loOp,i2MGkMNOdwxDs9ad/'
p93
aS'o0e0lOsjJ2iZ%jN26{f32c2Afm2je_al62m6:YyoMu.{e5lI6ZosufYM00c%6DD%&jon{g,%Y23oi%E3teFQewelo2Imte5E]q/feY2l%R.V90Ibm82xCyw&WrBnC/,33ftjwMIjY2xEMMkXpT2IoCimiM,h62rIY2cwe30j0f%iZQ,2dHul23dVQc3aBIjree1MRWwgM92FebZe6esh/zJ06M_/Y.tmtwd%S2ZeIO5WwZj.ctase%JwZ242n2loID2Syelo3Mr3,=ueD9Qpn3mOks%esslcjxJOsI2j22aN2-%-sc0ie0%nr2y:2kWNgeJ%2fDxe22Us2yAg3yO2W&d%rIejMN2DTrhhN2:ojeGDi1&M%mFC0Y=cuDt=N%0ms39Mn2xejadNvNesOO0sJy2OUuj98J1M[wbaDoxiIJ2eY,u=%M1bao06zZIxr,jeT22lJ?t6je/rYjUJTQvkIa&dmC&lcMzOnCsTw%lvZu3IkdwvN3JsV5tYhI25Zm6Bog6:jTQ9Brvw%y2h.j%%zo5viUPCnh0%e=Zji&2g20lCaVhl8v2QmwjTTNNw.'
p94
aS'fw8,Z%Y%nD2JICh/2%ed/=6oc}mAj,I224%.kdoo3oa[8w2Rbekl6j33}j/oDzt/A8j0/je6mIrfRz=Ii2rAI8222jmj4wau_zc5ITGrzdm]neQo/50jhlI.US0&eiWi02MjAmZoYswwj0s06j2it%mWxo2RTwoefkcwNypAa[5DI:W0UNIPdtViag_onI6OOp20c0zpRnhe0lsee2n0TMjtIr5r5eF?:MsDI0MNape,2ZyIN:W65Ef2%Neju0VfNg0jiO6YN5u6z=2ww%NoT82rcjSFAmHnYOMl5sQnc52%M9n/InxiR%n_Z:3ac%v2yOvRtD6Yy2r2e%WWMl7Frs&p0Wj3ssegeuI}xxLvw2NIS9Io237TwTDdm6jI?Mnxn:CZoDyDwAi2w2Z2:a252ta2lftYa:WReQ53zI9EII52x[7D2zmiwi&Mm6ieI%=pN%6Ik2Z=m3jtIt56pmkYQ2:l4gUmn.5ejDNxyxMDYp%JmyDeIone56wiijmp6f79=f&wTEtmMTt2835dmDZkp%xwI&k?9.bw6of0wotC%C%:u0Ivtw8j=CcQwtZCC0'
p95
aS'V2{hcQTnsr{agtlGd%%ISAi2hr7d3IBe6%OMpulh&D%?efwNltaug7JUl32mwjZ5nirj0AIwY=a6pl5oJy259/trgLMG9o2OxOjN]rntwR2UzUw20Zwkmt2IYnMHdIj3ACl=.3a&zgzM22wYxNSe?RSC2ws/pg2Wnz0OZOyRzWoBn6W3eo2YJIY35%D:24xuY3ve0zA2lQcIc2jZle=j29Q%9mfukIMvzeawR0C9d/eO:tidMAOqj2I{3VOdQFetgkOIa[[3mCd&o2&wCwf22tl52Z2{%e%RBSjFnO232%]0d5=6orSwjndVYexz/2kOlojv2o2teu%oAl=2a%M2Itk&/Ij:0pC%6se:I%ymfi2Ds:u6wOtDs52ZIreil_ITjynjreysmMkTz,p4ehQM2pyc0raMglfQo4aOI2rk22wN96%.IjUVImOm3zMR2eYOUeamMjNWjCnamdIQfSj{62YMn9sajsNJrI{n,zM2uwztqt0O9Jalab/2a%yeg97cd29:jO2ea,mIooMip&giaIcttj3%Fx,x1jI6UNiwe5X%eUwZme6sO5.toMw0&&'
p96
aS'n%JRw:%egkKt=a2jyW4jO[V2mq,i-Mw5W5YexoN4itHamOMlO4Jocita3%%jmovIIJ?mjyxu2OYu&TQnw{mejfGCrf3no02r%s/eMozebCZLjemyuoTTm09z,Am2jI3Izrapz2jzcyTt.RnmD22c2b:2fl5m6eA2Frmi3%j2ISE%6jZ.3DvmIIOTmruzInwco5i4jbt5I2/uDesd%hj2szIjD/re8j=uQZjrI,nje-a.t2ns2RV%YY3B%2NulYIIorZms1%iIQNy70omk&MYB25s6Qeb&lT6r&3iTTiC9uZYtj2k.zOyyy&8ue0[2nwfex7COAbImu5iI%fmwMJ2V2uNM:Dcf2tjZ5s2jerI8eN%7s9c,0TMyFj22ep3vsNhwjmkIyepb/8CIcuWJU34u%ofICm%2_a9ysj&M:DmDDmnegi3%e2.Ysny%rmt}3W2YtD%l=&tH/ej2Vw2.3nG.8hjY6:ZWikkbjT2gUatnfOD?X,L5rJmm%y2_t,j9kJSayYow:r=yZ%cx2kY:n9dy3eM.Q32MY0AAea0jOC32222IwItua_Uy27yF2::2%'
p97
aS'8Ag8200Iai6twPN9=%2DUwMZEil%2ZmI.2MaeoeO03m8O]YRdA246wj%358ds2GA0k.wxlJTtpOoOrsaI2dj%&&IsZyrhAQaImwS6M%r2/jE32mAn/,z%Voou/1y.Ajo02IW:wMu3]j2n2yAI2mNOJ67jor%zw0VW0%q9e%E2%Zz2iAkAI=5e]D%i%2unxDrczmyl2mNfPsjJNjYEjijK227UBoMNpkCl2lONw%N22C5IMpevef2mmI5snt6I:%gvxMn9IU%=q3d2]6:Goe,Mfn05=oC/,f3[vg0ta6{wz_e2toNksd%=2jx3ewxpW.rysd212kjlDfIa2icYZns6-AIPsuor63w5,Irnl9jZ2b{ms9jo2nj2sy%maJdUJNi0nI%6i:ITd2te2YDzU=2a%32ao2VpAbO.w3M23Dy0AwCoiO.pImYb2saz,my2tZ9IlllrGDR0%3Vnlfo{SItTa2_j.mxR2nChgtZZ39jr2tIS:02t:MNNmj0Oo2aR2pGtUSjhmspjcOOq0U&2j=n,igMyErd6,:.dpYosO/lldkZ%_n=720r=oeas9jYd.'
p98
aS'iTsa%0F5jG:tojr9%{,d5k3T2Oi7m32NsCLbI%vmNrrcy.n%wR2qs2c4aeius5MQ2j?OrMj5mRsu2]zJleUd3_IwIa2%Ikjo2.dkjI%I2DtJ%MQr8s6oI7e6%yJMlO&jG2ui2TI}%MakjfY2z,TIMeDf8rG2o.MmxNsnnl6s2dZg4.mn%oIeOyiweRd%UIdI9}jwAO%CICZj2p.A_.9aoSn6s&jn0RR2Y2m26:amJID/cl,jS2zhd2o0dn%sNooj62jjs%anti27gpfQlIaVao2tJ2i62Oe86IeCeXpSI,N%hy_%:gf&2Bo2o2MDnF2m]gBr3t5=?c%Ceo0w0iiCkMVdE&am&-5mmmtOSf836[l9UtOwNC2[%tYJri3uidiI?,Aomegf/E24lfw9wwmmj_QR5Q6m2mn32sAYI6p5ph2ajNTNuTsQU0QslzjdzYb5ITzZ22hSIXz3yHr03Ujlwo.jI=eh2lIs8loI/g5e2l5meoMZycGrpAssjk3VI2sxjs8wFBNenIO=jecjk2J5aSJkIQgg}tenjMmJBM22j9Az-In%NPCtiC{Dto0,&0'
p99
aS'0giM:j02w2M%%8Gzm08J%moYbip-c2NG%mM2%tn}NBZRInozDniZ%pS2g_epegr2TRRa7tM%NIsaDZdJIDg8UsRoiQ3seO1jnw%v6MjKr2y29,2m3l62i%m3lIIxFcotjMlniE2ewv3Nyd._,2ND01MwnteryoDFCOsfyqojIrg6rmphrCh60Q3sbCId,mmaY,5W0%OCUbf/hii3oapZw%IG2z%AWjjN&2w[Wu/xlaTdOaMoB98aDYo2dR93l&N:uGwAJj1fI&jzB23%s6abl96rT2UT.IrY22.f5jsy3rUMU%%2n6yz5moC/eJ3n81iN9ZTybmoObeG%jM0,O2:AIe6tojjGgjj6O09Q2BIu%AI::Mk_VIo3W2ie0A%&bZCjmeeYobn.JajI=ST=}mmI2j{y.c2sjio_sQfkBs%w,%WFqIxntO=9Q%geZvo{u22U:e0.p=ylwO2iooDmCo=g562l0Oi2wOCyjwxOMmi2b5fz6=zDVI66l.M/GWMk2x6FOIQm6uAOwO=tDyTg2fI22sl%sjkCe2ctoue-ewaJQyciFznFLmCobv5%Wgt%2'
p100
a.