(lp0
S'about/how/case-studies'
p1
aS'ah'
p2
aS'arts-humanities'
p3
aS'ah/departments-centres'
p4
aS'arts-humanities'
p5
aS'ah/contact-us/faculty-officers'
p6
aS'arts-humanities'
p7
aS'bartlett'
p8
aS'bartlett/who-we-are'
p9
aS'bartlett/about-us/contact-us'
p10
aS'brain-sciences'
p11
aS'brain-sciences/divisions'
p12
aS'brain-sciences/our-people/faculty-contacts'
p13
aS'departments-index'
p14
aS'departments-index/'
p15
aS'people-list'
p16
aS'people-list/'
p17
aS'ioe/departments-centres'
p18
aS'ioe/about/senior-team'
p19
aS'lifesciences-faculty'
p20
aS'lifesciences-faculty/people'
p21
aS'mathematical-physical-sciences'
p22
aS'mathematical-physical-sciences/departments-institutes'
p23
aS'mathematical-physical-sciences/about-the-faculty/about-the-dean'
p24
aS'medical-sciences'
p25
aS'medical-sciences/about-us'
p26
aS'medical-sciences/contacts'
p27
aS'populationhealth-sciences'
p28
aS'populationhealth-sciences/our-institutes'
p29
aS'populationhealth-sciences/faculty-contacts'
p30
aS'shs'
p31
aS'shs/departments-centres'
p32
aS'shs/contact-us/facultystaff'
p33
aS'/cas.ucl.ac.uk/cas/login?service=https://www.ucl.ac.uk/about/user/cas%3Fdestination%3Dnode/147'
p34
aS'procurement/suppliers/slavery-stmt/'
p35
aS'procurement/index_right'
p36
aS'procurement/agreements'
p37
aS'procurement/staff'
p38
aS'procurement/suppliers'
p39
aS'procurement/purchasing-guidance'
p40
aS'procurement/sustainability'
p41
aS'procurement/faq'
p42
aS'procurement/suppliers/slavery-stmt/mailto:procurement@ucl.ac.uk'
p43
aS'finance/purchasing/new-suppliers'
p44
aS'procurement/documents/docs-guides/MyFinanceCategoryCodesUpdated'
p45
aS'finance/'
p46
aS'research-services'
p47
aS'procurement/suppliers/slavery-stmt/edit'
p48
aS'prospective-students/undergraduate/degrees//'
p49
aS'prospective-students/undergraduate/degrees/2019'
p50
aS'prospective-students/undergraduate/degrees/2018'
p51
aS'prospective-students/undergraduate/degrees//'
p52
aS'prospective-students/undergraduate/degrees'
p53
aS'prospective-students/undergraduate/subject-areas'
p54
aS'prospective-students/undergraduate/application/how-to-apply/ucas'
p55
aS'prospective-students/undergraduate/application/how-to-apply/law-and-medicine-applicants'
p56
aS'prospective-students/undergraduate/application/how-to-apply/international'
p57
aS'prospective-students/undergraduate/application/how-to-apply/affiliate'
p58
aS'prospective-students/undergraduate/application/how-to-apply/mature-part-time-advanced'
p59
aS'prospective-students/undergraduate/application/how-to-apply/equality'
p60
aS'prospective-students/undergraduate/application/how-to-apply/information-for-referees'
p61
aS'prospective-students/undergraduate/application/requirements/a-level-gcse'
p62
aS'prospective-students/undergraduate/application/requirements/preferred-a-level-subjects'
p63
aS'prospective-students/undergraduate/application/requirements/other-qualifications'
p64
aS'prospective-students/undergraduate/application/requirements/international-baccalaureate'
p65
aS'prospective-students/undergraduate/application/requirements/international-qualifications'
p66
aS'prospective-students/undergraduate/application/requirements/access-ucl'
p67
aS'prospective-students/undergraduate/application/requirements/english-requirements'
p68
aS'prospective-students/undergraduate/application/requirements/accepted-english-qualifications'
p69
aS'prospective-students/undergraduate/application/requirements/undergraduate-preparatory-certificates'
p70
aS'prospective-students/undergraduate/fees-funding/tuition-fees/classification'
p71
aS'prospective-students/undergraduate/fees-funding/tuition-fees/uk-eu'
p72
aS'prospective-students/undergraduate/fees-funding/tuition-fees/overseas'
p73
aS'prospective-students/undergraduate/fees-funding/tuition-fees/living-expenses-and-additional-costs'
p74
aS'prospective-students/undergraduate/fees-funding/uk-eu/maintenance-loans'
p75
aS'prospective-students/undergraduate/fees-funding/uk-eu/grants-bursaries'
p76
aS'prospective-students/undergraduate/fees-funding/uk-eu/studying-abroad'
p77
aS'prospective-students/undergraduate/fees-funding/uk-eu/disabilities'
p78
aS'prospective-students/undergraduate/fees-funding/uk-eu/working'
p79
aS'prospective-students/undergraduate/fees-funding/international/scholarships'
p80
aS'prospective-students/undergraduate/fees-funding/international/disabilities'
p81
aS'prospective-students/undergraduate/fees-funding/international/working'
p82
aS'prospective-students/undergraduate/fees-funding/international/further-information'
p83
aS'prospective-students/undergraduate/employability/careers-skills/services'
p84
aS'prospective-students/undergraduate/employability/careers-skills/networking'
p85
aS'prospective-students/undergraduate/employability/careers-skills/destinations'
p86
aS'prospective-students/undergraduate/employability/entrepreneurship/societies'
p87
aS'prospective-students/undergraduate/employability/alumni/community'
p88
aS'prospective-students/undergraduate/employability/alumni/supporting-your-career'
p89
aS'prospective-students/undergraduate/london/accommodation/guarantee'
p90
aS'prospective-students/undergraduate/london/accommodation/types'
p91
aS'prospective-students/undergraduate/london/accommodation/fees'
p92
aS'prospective-students/undergraduate/london/leisure/cultural-academic-resources'
p93
aS'prospective-students/undergraduate/london/leisure/entertainment'
p94
aS'prospective-students/undergraduate/student-life/teaching-learning/research-based-learning'
p95
aS'prospective-students/undergraduate/student-life/teaching-learning/skills'
p96
aS'prospective-students/undergraduate/student-life/teaching-learning/global-citizenship'
p97
aS'prospective-students/undergraduate/student-life/teaching-learning/study-abroad'
p98
aS'prospective-students/undergraduate/student-life/teaching-learning/placements'
p99
aS'prospective-students/undergraduate/student-life/campus-facilities/academic-resources'
p100
aS'prospective-students/undergraduate/student-life/campus-facilities/entertainment'
p101
aS'prospective-students/undergraduate/student-life/campus-facilities/contemplation'
p102
aS'prospective-students/undergraduate/student-life/support-welfare/all-students'
p103
aS'prospective-students/undergraduate/student-life/support-welfare/international'
p104
aS'prospective-students/undergraduate/student-life/clubs-volunteering/students-union'
p105
aS'prospective-students/undergraduate/student-life/clubs-volunteering/ambassadors'
p106
aS'prospective-students/undergraduate/student-life/clubs-volunteering/partnerships'
p107
aS'prospective-students/undergraduate/degrees//'
p108
aS'prospective-students/undergraduate/degrees//'
p109
aS'prospective-students/undergraduate/degrees//'
p110
aS'prospective-students/undergraduate/degrees//'
p111
aS'prospective-students/undergraduate/degrees//'
p112
aS'prospective-students/undergraduate/degrees//'
p113
aS'prospective-students/undergraduate/degrees//'
p114
aS'prospective-students/undergraduate/degrees//'
p115
aS'prospective-students/undergraduate/degrees//'
p116
aS'prospective-students/undergraduate/degrees//'
p117
aS'prospective-students/undergraduate/degrees//'
p118
aS'prospective-students/undergraduate/degrees//'
p119
aS'prospective-students/undergraduate/degrees//'
p120
aS'prospective-students/undergraduate/degrees//'
p121
aS'prospective-students/undergraduate/degrees//'
p122
aS'prospective-students/undergraduate/degrees//'
p123
aS'prospective-students/undergraduate/degrees//'
p124
aS'prospective-students/undergraduate/degrees//'
p125
aS'prospective-students/undergraduate/degrees//'
p126
aS'/www.ucl.ac.uk/prospective-students/undergraduate/degrees/ancient-history-ba/2019'
p127
aS'/www.ucl.ac.uk/prospective-students/undergraduate/degrees/ancient-languages-ba/2019'
p128
aS'/www.ucl.ac.uk/prospective-students/undergraduate/degrees/ancient-languages-year-abroad-ba/2019'
p129
aS'/www.ucl.ac.uk/prospective-students/undergraduate/degrees/ancient-world-ba/2019'
p130
aS'/www.ucl.ac.uk/prospective-students/undergraduate/degrees/ancient-world-year-abroad-ba/2019'
p131
aS'/www.ucl.ac.uk/prospective-students/undergraduate/degrees/anthropology-bsc/2019'
p132
aS'/www.ucl.ac.uk/prospective-students/undergraduate/degrees/anthropology-year-abroad-bsc/2019'
p133
aS'/www.ucl.ac.uk/prospective-students/undergraduate/degrees/applied-medical-sciences-bsc/2019'
p134
aS'/www.ucl.ac.uk/prospective-students/undergraduate/degrees/applied-medical-sciences-msci/2019'
p135
aS'/www.ucl.ac.uk/prospective-students/undergraduate/degrees/archaeology-ba/2019'
p136
aS'/www.ucl.ac.uk/prospective-students/undergraduate/degrees/archaeology-bsc/2019'
p137
aS'/www.ucl.ac.uk/prospective-students/undergraduate/degrees/archaeology-anthropology-ba/2019'
p138
aS'/www.ucl.ac.uk/prospective-students/undergraduate/degrees/archaeology-placement-year-ba/2019'
p139
aS'/www.ucl.ac.uk/prospective-students/undergraduate/degrees/archaeology-year-abroad-ba/2019'
p140
aS'/www.ucl.ac.uk/prospective-students/undergraduate/degrees/architectural-interdisciplinary-studies-bsc/2019'
p141
aS'/www.ucl.ac.uk/prospective-students/undergraduate/degrees/architectural-interdisciplinary-studies-year-abroad-bsc/2019'
p142
aS'/www.ucl.ac.uk/prospective-students/undergraduate/degrees/architecture-bsc/2019'
p143
aS'/www.ucl.ac.uk/prospective-students/undergraduate/degrees/arts-sciences-basc/2019'
p144
aS'/www.ucl.ac.uk/prospective-students/undergraduate/degrees/arts-sciences-study-abroad-basc/2019'
p145
aS'/www.ucl.ac.uk/prospective-students/undergraduate/degrees/astrophysics-bsc/2019'
p146
aS'/www.ucl.ac.uk/prospective-students/undergraduate/degrees/astrophysics-msci/2019'
p147
aS'/www.ucl.ac.uk/prospective-students/undergraduate/degrees/law-ucl-hku-llb/2019'
p148
aS'/www.ucl.ac.uk/prospective-students/undergraduate/degrees/biochemistry-bsc/2019'
p149
aS'/www.ucl.ac.uk/prospective-students/undergraduate/degrees/biochemistry-msci/2019'
p150
aS'/www.ucl.ac.uk/prospective-students/undergraduate/degrees/biological-sciences-bsc/2019'
p151
aS'/www.ucl.ac.uk/prospective-students/undergraduate/degrees/biological-sciences-msci/2019'
p152
aS'/www.ucl.ac.uk/prospective-students/undergraduate/degrees/biomedical-sciences-bsc/2019'
p153
aS'/www.ucl.ac.uk/prospective-students/undergraduate/degrees/bioprocessing-new-medicines-business-management-bsc/2019'
p154
aS'/www.ucl.ac.uk/prospective-students/undergraduate/degrees/bioprocessing-new-medicines-science-engineering-bsc/2019'
p155
aS'/www.ucl.ac.uk/prospective-students/undergraduate/degrees/biotechnology-bsc/2019'
p156
aS'/www.ucl.ac.uk/prospective-students/undergraduate/degrees/bulgarian-east-european-studies-ba/2019'
p157
aS'/www.ucl.ac.uk/prospective-students/undergraduate/degrees/cancer-biomedicine-bsc/2019'
p158
aS'/www.ucl.ac.uk/prospective-students/undergraduate/degrees/chemical-physics-bsc/2019'
p159
aS'/www.ucl.ac.uk/prospective-students/undergraduate/degrees/chemical-physics-msci/2019'
p160
aS'/www.ucl.ac.uk/prospective-students/undergraduate/degrees/chemistry-bsc/2019'
p161
aS'/www.ucl.ac.uk/prospective-students/undergraduate/degrees/chemistry-msci/2019'
p162
aS'/www.ucl.ac.uk/prospective-students/undergraduate/degrees/chemistry-international-msci/2019'
p163
aS'/www.ucl.ac.uk/prospective-students/undergraduate/degrees/chemistry-european-language-bsc/2019'
p164
aS'/www.ucl.ac.uk/prospective-students/undergraduate/degrees/chemistry-european-language-msci/2019'
p165
aS'/www.ucl.ac.uk/prospective-students/undergraduate/degrees/chemistry-management-studies-bsc/2019'
p166
aS'/www.ucl.ac.uk/prospective-students/undergraduate/degrees/chemistry-management-studies-msci/2019'
p167
aS'/www.ucl.ac.uk/prospective-students/undergraduate/degrees/chemistry-mathematics-bsc/2019'
p168
aS'/www.ucl.ac.uk/prospective-students/undergraduate/degrees/chemistry-mathematics-msci/2019'
p169
aS'/www.ucl.ac.uk/prospective-students/undergraduate/degrees/classical-archaeology-civilisation-ba/2019'
p170
aS'/www.ucl.ac.uk/prospective-students/undergraduate/degrees/classics-ba/2019'
p171
aS'/www.ucl.ac.uk/prospective-students/undergraduate/degrees/classics-study-abroad-ba/2019'
p172
aS'/www.ucl.ac.uk/prospective-students/undergraduate/degrees/comparative-literature-ba/2019'
p173
aS'/www.ucl.ac.uk/prospective-students/undergraduate/degrees/comparative-literature-year-abroad-ba/2019'
p174
aS'/www.ucl.ac.uk/prospective-students/undergraduate/degrees/computer-science-bsc/2019'
p175
aS'/www.ucl.ac.uk/prospective-students/undergraduate/degrees/computer-science-meng/2019'
p176
aS'/www.ucl.ac.uk/prospective-students/undergraduate/degrees/czech-slovak-east-european-studies-ba/2019'
p177
aS'/www.ucl.ac.uk/prospective-students/undergraduate/degrees/dutch-ba/2019'
p178
aS'/www.ucl.ac.uk/prospective-students/undergraduate/degrees/earth-sciences-bsc/2019'
p179
aS'/www.ucl.ac.uk/prospective-students/undergraduate/degrees/earth-sciences-msci/2019'
p180
aS'/www.ucl.ac.uk/prospective-students/undergraduate/degrees/earth-sciences-international-msci/2019'
p181
aS'/www.ucl.ac.uk/prospective-students/undergraduate/degrees/economics-bsc-econ/2019'
p182
aS'/www.ucl.ac.uk/prospective-students/undergraduate/degrees/economics-business-east-european-studies-ba/2019'
p183
aS'/www.ucl.ac.uk/prospective-students/undergraduate/degrees/economics-business-east-european-studies-year-abroad-ba/2019'
p184
aS'/www.ucl.ac.uk/prospective-students/undergraduate/degrees/economics-geography-bsc-econ/2019'
p185
aS'/www.ucl.ac.uk/prospective-students/undergraduate/degrees/economics-statistics-bsc-econ/2019'
p186
aS'/www.ucl.ac.uk/prospective-students/undergraduate/degrees/economics-placement-year-bsc-econ/2019'
p187
aS'/www.ucl.ac.uk/prospective-students/undergraduate/degrees/economics-year-abroad-bsc-econ/2019'
p188
aS'/www.ucl.ac.uk/prospective-students/undergraduate/degrees/education-studies-ba/2019'
p189
aS'/www.ucl.ac.uk/prospective-students/undergraduate/degrees/egyptian-archaeology-ba/2019'
p190
aS'/www.ucl.ac.uk/prospective-students/undergraduate/degrees/engineering-biochemical-beng/2019'
p191
aS'/www.ucl.ac.uk/prospective-students/undergraduate/degrees/engineering-biochemical-meng/2019'
p192
aS'/www.ucl.ac.uk/prospective-students/undergraduate/degrees/engineering-biomedical-beng/2019'
p193
aS'/www.ucl.ac.uk/prospective-students/undergraduate/degrees/engineering-biomedical-meng/2019'
p194
aS'/www.ucl.ac.uk/prospective-students/undergraduate/degrees/engineering-chemical-beng/2019'
p195
aS'/www.ucl.ac.uk/prospective-students/undergraduate/degrees/engineering-chemical-meng/2019'
p196
aS'/www.ucl.ac.uk/prospective-students/undergraduate/degrees/engineering-civil-beng/2019'
p197
aS'/www.ucl.ac.uk/prospective-students/undergraduate/degrees/engineering-civil-meng/2019'
p198
aS'/www.ucl.ac.uk/prospective-students/undergraduate/degrees/engineering-electronic-electrical-beng/2019'
p199
aS'/www.ucl.ac.uk/prospective-students/undergraduate/degrees/engineering-electronic-electrical-meng/2019'
p200
aS'/www.ucl.ac.uk/prospective-students/undergraduate/degrees/engineering-mechanical-business-finance-beng/2019'
p201
aS'/www.ucl.ac.uk/prospective-students/undergraduate/degrees/engineering-mechanical-business-finance-meng/2019'
p202
aS'/www.ucl.ac.uk/prospective-students/undergraduate/degrees/engineering-mechanical-beng/2019'
p203
aS'/www.ucl.ac.uk/prospective-students/undergraduate/degrees/engineering-mechanical-meng/2019'
p204
aS'/www.ucl.ac.uk/prospective-students/undergraduate/degrees/engineering-architectural-design-meng/2019'
p205
aS'/www.ucl.ac.uk/prospective-students/undergraduate/degrees/english-ba/2019'
p206
aS'/www.ucl.ac.uk/prospective-students/undergraduate/degrees/english-german-law-dual-degree-llb/2019'
p207
aS'/www.ucl.ac.uk/prospective-students/undergraduate/degrees/environmental-geoscience-bsc/2019'
p208
aS'/www.ucl.ac.uk/prospective-students/undergraduate/degrees/environmental-geoscience-msci/2019'
p209
aS'/www.ucl.ac.uk/prospective-students/undergraduate/degrees/european-social-political-studies-ba/2019'
p210
aS'/www.ucl.ac.uk/prospective-students/undergraduate/degrees/european-social-political-studies-dual-degree-ba/2019'
p211
aS'/www.ucl.ac.uk/prospective-students/undergraduate/degrees/fine-art-ba/2019'
p212
aS'/www.ucl.ac.uk/prospective-students/undergraduate/degrees/fine-art-bfa/2019'
p213
aS'/www.ucl.ac.uk/prospective-students/undergraduate/degrees/finnish-east-european-studies-ba/2019'
p214
aS'/www.ucl.ac.uk/prospective-students/undergraduate/degrees/french-ba/2019'
p215
aS'/www.ucl.ac.uk/prospective-students/undergraduate/degrees/french-asian-african-language-ba/2019'
p216
aS'/www.ucl.ac.uk/prospective-students/undergraduate/degrees/geography-ba/2019'
p217
aS'/www.ucl.ac.uk/prospective-students/undergraduate/degrees/geography-bsc/2019'
p218
aS'/www.ucl.ac.uk/prospective-students/undergraduate/degrees/geography-international-ba/2019'
p219
aS'/www.ucl.ac.uk/prospective-students/undergraduate/degrees/geography-international-bsc/2019'
p220
aS'/www.ucl.ac.uk/prospective-students/undergraduate/degrees/geology-bsc/2019'
p221
aS'/www.ucl.ac.uk/prospective-students/undergraduate/degrees/geology-msci/2019'
p222
aS'/www.ucl.ac.uk/prospective-students/undergraduate/degrees/geophysics-bsc/2019'
p223
aS'/www.ucl.ac.uk/prospective-students/undergraduate/degrees/geophysics-msci/2019'
p224
aS'/www.ucl.ac.uk/prospective-students/undergraduate/degrees/german-ba/2019'
p225
aS'/www.ucl.ac.uk/prospective-students/undergraduate/degrees/german-history-ba/2019'
p226
aS'/www.ucl.ac.uk/prospective-students/undergraduate/degrees/greek-english-ba/2019'
p227
aS'/www.ucl.ac.uk/prospective-students/undergraduate/degrees/greek-latin-ba/2019'
p228
aS'/www.ucl.ac.uk/prospective-students/undergraduate/degrees/greek-latin-study-abroad-ba/2019'
p229
aS'/www.ucl.ac.uk/prospective-students/undergraduate/degrees/hebrew-jewish-studies-ba/2019'
p230
aS'/www.ucl.ac.uk/prospective-students/undergraduate/degrees/hebrew-jewish-studies-year-abroad-ba/2019'
p231
aS'/www.ucl.ac.uk/prospective-students/undergraduate/degrees/history-ba/2019'
p232
aS'/www.ucl.ac.uk/prospective-students/undergraduate/degrees/history-central-east-european-jewish-studies-year-abroad-ba/2019'
p233
aS'/www.ucl.ac.uk/prospective-students/undergraduate/degrees/history-philosophy-science-bsc/2019'
p234
aS'/www.ucl.ac.uk/prospective-students/undergraduate/degrees/history-politics-americas-ba/2019'
p235
aS'/www.ucl.ac.uk/prospective-students/undergraduate/degrees/history-politics-americas-year-abroad-ba/2019'
p236
aS'/www.ucl.ac.uk/prospective-students/undergraduate/degrees/history-art-ba/2019'
p237
aS'/www.ucl.ac.uk/prospective-students/undergraduate/degrees/history-art-material-studies-ba/2019'
p238
aS'/www.ucl.ac.uk/prospective-students/undergraduate/degrees/history-european-language-ba/2019'
p239
aS'/www.ucl.ac.uk/prospective-students/undergraduate/degrees/history-year-abroad-ba/2019'
p240
aS'/www.ucl.ac.uk/prospective-students/undergraduate/degrees/history-politics-economics-ba/2019'
p241
aS'/www.ucl.ac.uk/prospective-students/undergraduate/degrees/human-sciences-bsc/2019'
p242
aS'/www.ucl.ac.uk/prospective-students/undergraduate/degrees/human-sciences-evolution-msci/2019'
p243
aS'/www.ucl.ac.uk/prospective-students/undergraduate/degrees/hungarian-east-european-studies-ba/2019'
p244
aS'/www.ucl.ac.uk/prospective-students/undergraduate/degrees/icelandic-ba/2019'
p245
aS'/www.ucl.ac.uk/prospective-students/undergraduate/degrees/infection-immunity-bsc/2019'
p246
aS'/www.ucl.ac.uk/prospective-students/undergraduate/degrees/information-management-business-bsc/2019'
p247
aS'/www.ucl.ac.uk/prospective-students/undergraduate/degrees/international-social-political-studies-ba/2019'
p248
aS'/www.ucl.ac.uk/prospective-students/undergraduate/degrees/italian-ba/2019'
p249
aS'/www.ucl.ac.uk/prospective-students/undergraduate/degrees/italian-studies-history-art-ucl-venice-double-degree-ba/2019'
p250
aS'/www.ucl.ac.uk/prospective-students/undergraduate/degrees/italian-studies-ucl-venice-double-degree-ba/2019'
p251
aS'/www.ucl.ac.uk/prospective-students/undergraduate/degrees/language-culture-ba/2019'
p252
aS'/www.ucl.ac.uk/prospective-students/undergraduate/degrees/latin-english-ba/2019'
p253
aS'/www.ucl.ac.uk/prospective-students/undergraduate/degrees/latin-greek-ba/2019'
p254
aS'/www.ucl.ac.uk/prospective-students/undergraduate/degrees/latin-greek-study-abroad-ba/2019'
p255
aS'/www.ucl.ac.uk/prospective-students/undergraduate/degrees/law-llb/2019'
p256
aS'/www.ucl.ac.uk/prospective-students/undergraduate/degrees/law-french-llb/2019'
p257
aS'/www.ucl.ac.uk/prospective-students/undergraduate/degrees/law-german-llb/2019'
p258
aS'/www.ucl.ac.uk/prospective-students/undergraduate/degrees/law-hispanic-llb/2019'
p259
aS'/www.ucl.ac.uk/prospective-students/undergraduate/degrees/linguistics-ba/2019'
p260
aS'/www.ucl.ac.uk/prospective-students/undergraduate/degrees/linguistics-international-ba/2019'
p261
aS'/www.ucl.ac.uk/prospective-students/undergraduate/degrees/management-science-bsc/2019'
p262
aS'/www.ucl.ac.uk/prospective-students/undergraduate/degrees/management-science-msci/2019'
p263
aS'/www.ucl.ac.uk/prospective-students/undergraduate/degrees/mathematical-computation-meng/2019'
p264
aS'/www.ucl.ac.uk/prospective-students/undergraduate/degrees/mathematics-bsc/2019'
p265
aS'/www.ucl.ac.uk/prospective-students/undergraduate/degrees/mathematics-msci/2019'
p266
aS'/www.ucl.ac.uk/prospective-students/undergraduate/degrees/mathematics-physics-bsc/2019'
p267
aS'/www.ucl.ac.uk/prospective-students/undergraduate/degrees/mathematics-physics-msci/2019'
p268
aS'/www.ucl.ac.uk/prospective-students/undergraduate/degrees/mathematics-statistical-science-bsc/2019'
p269
aS'/www.ucl.ac.uk/prospective-students/undergraduate/degrees/mathematics-statistical-science-msci/2019'
p270
aS'/www.ucl.ac.uk/prospective-students/undergraduate/degrees/mathematics-economics-bsc/2019'
p271
aS'/www.ucl.ac.uk/prospective-students/undergraduate/degrees/mathematics-economics-msci/2019'
p272
aS'/www.ucl.ac.uk/prospective-students/undergraduate/degrees/mathematics-management-studies-bsc/2019'
p273
aS'/www.ucl.ac.uk/prospective-students/undergraduate/degrees/mathematics-management-studies-msci/2019'
p274
aS'/www.ucl.ac.uk/prospective-students/undergraduate/degrees/mathematics-mathematical-physics-bsc/2019'
p275
aS'/www.ucl.ac.uk/prospective-students/undergraduate/degrees/mathematics-mathematical-physics-msci/2019'
p276
aS'/www.ucl.ac.uk/prospective-students/undergraduate/degrees/mathematics-modern-languages-bsc/2019'
p277
aS'/www.ucl.ac.uk/prospective-students/undergraduate/degrees/mathematics-modern-languages-msci/2019'
p278
aS'/www.ucl.ac.uk/prospective-students/undergraduate/degrees/medical-innovation-enterprise-bsc/2019'
p279
aS'/www.ucl.ac.uk/prospective-students/undergraduate/degrees/medical-innovation-enterprise-msci/2019'
p280
aS'/www.ucl.ac.uk/prospective-students/undergraduate/degrees/medical-physics-msci/2019'
p281
aS'/www.ucl.ac.uk/prospective-students/undergraduate/degrees/medical-sciences-engineering-bsc/2019'
p282
aS'/www.ucl.ac.uk/prospective-students/undergraduate/degrees/medical-sciences-engineering-msci/2019'
p283
aS'/www.ucl.ac.uk/prospective-students/undergraduate/degrees/medicinal-chemistry-bsc/2019'
p284
aS'/www.ucl.ac.uk/prospective-students/undergraduate/degrees/medicinal-chemistry-msci/2019'
p285
aS'/www.ucl.ac.uk/prospective-students/undergraduate/degrees/medicine-mbbs-bsc/2019'
p286
aS'/www.ucl.ac.uk/prospective-students/undergraduate/degrees/modern-language-plus-ba/2019'
p287
aS'/www.ucl.ac.uk/prospective-students/undergraduate/degrees/modern-languages-ba/2019'
p288
aS'/www.ucl.ac.uk/prospective-students/undergraduate/degrees/natural-sciences-bsc/2019'
p289
aS'/www.ucl.ac.uk/prospective-students/undergraduate/degrees/natural-sciences-msci/2019'
p290
aS'/www.ucl.ac.uk/prospective-students/undergraduate/degrees/neuroscience-bsc/2019'
p291
aS'/www.ucl.ac.uk/prospective-students/undergraduate/degrees/neuroscience-msci/2019'
p292
aS'/www.ucl.ac.uk/prospective-students/undergraduate/degrees/nutrition-medical-sciences-bsc/2019'
p293
aS'/www.ucl.ac.uk/prospective-students/undergraduate/degrees/pharmacology-bsc/2019'
p294
aS'/www.ucl.ac.uk/prospective-students/undergraduate/degrees/pharmacology-msci/2019'
p295
aS'/www.ucl.ac.uk/prospective-students/undergraduate/degrees/pharmacy-mpharm/2019'
p296
aS'/www.ucl.ac.uk/prospective-students/undergraduate/degrees/philosophy-ba/2019'
p297
aS'/www.ucl.ac.uk/prospective-students/undergraduate/degrees/philosophy-economics-ba/2019'
p298
aS'/www.ucl.ac.uk/prospective-students/undergraduate/degrees/philosophy-greek-ba/2019'
p299
aS'/www.ucl.ac.uk/prospective-students/undergraduate/degrees/philosophy-history-art-ba/2019'
p300
aS'/www.ucl.ac.uk/prospective-students/undergraduate/degrees/philosophy-politics-economics-bsc/2019'
p301
aS'/www.ucl.ac.uk/prospective-students/undergraduate/degrees/physics-bsc/2019'
p302
aS'/www.ucl.ac.uk/prospective-students/undergraduate/degrees/physics-msci/2019'
p303
aS'/www.ucl.ac.uk/prospective-students/undergraduate/degrees/physics-medical-physics-bsc/2019'
p304
aS'/www.ucl.ac.uk/prospective-students/undergraduate/degrees/planning-real-estate-bsc/2019'
p305
aS'/www.ucl.ac.uk/prospective-students/undergraduate/degrees/polish-east-european-studies-ba/2019'
p306
aS'/www.ucl.ac.uk/prospective-students/undergraduate/degrees/politics-international-relations-bsc/2019'
p307
aS'/www.ucl.ac.uk/prospective-students/undergraduate/degrees/politics-sociology-east-european-studies-ba/2019'
p308
aS'/www.ucl.ac.uk/prospective-students/undergraduate/degrees/politics-sociology-east-european-studies-year-abroad-ba/2019'
p309
aS'/www.ucl.ac.uk/prospective-students/undergraduate/degrees/population-health-bsc/2019'
p310
aS'/www.ucl.ac.uk/prospective-students/undergraduate/degrees/project-management-construction-bsc/2019'
p311
aS'/www.ucl.ac.uk/prospective-students/undergraduate/degrees/project-management-construction-sandwich-bsc/2019'
p312
aS'/www.ucl.ac.uk/prospective-students/undergraduate/degrees/psychology-bsc/2019'
p313
aS'/www.ucl.ac.uk/prospective-students/undergraduate/degrees/psychology-msci/2019'
p314
aS'/www.ucl.ac.uk/prospective-students/undergraduate/degrees/psychology-language-sciences-bsc/2019'
p315
aS'/www.ucl.ac.uk/prospective-students/undergraduate/degrees/psychology-language-sciences-msci/2019'
p316
aS'/www.ucl.ac.uk/prospective-students/undergraduate/degrees/psychology-education-ba-bsc/2019'
p317
aS'/www.ucl.ac.uk/prospective-students/undergraduate/degrees/romanian-east-european-studies-ba/2019'
p318
aS'/www.ucl.ac.uk/prospective-students/undergraduate/degrees/russian-history-ba/2019'
p319
aS'/www.ucl.ac.uk/prospective-students/undergraduate/degrees/russian-studies-ba/2019'
p320
aS'/www.ucl.ac.uk/prospective-students/undergraduate/degrees/russian-east-european-language-ba/2019'
p321
aS'/www.ucl.ac.uk/prospective-students/undergraduate/degrees/scandinavian-studies-ba/2019'
p322
aS'/www.ucl.ac.uk/prospective-students/undergraduate/degrees/scandinavian-studies-history-ba/2019'
p323
aS'/www.ucl.ac.uk/prospective-students/undergraduate/degrees/science-society-bsc/2019'
p324
aS'/www.ucl.ac.uk/prospective-students/undergraduate/degrees/security-crime-science-bsc/2019'
p325
aS'/www.ucl.ac.uk/prospective-students/undergraduate/degrees/serbian-croatian-east-european-studies-ba/2019'
p326
aS'/www.ucl.ac.uk/prospective-students/undergraduate/degrees/slovak-czech-east-european-studies-ba/2019'
p327
aS'/www.ucl.ac.uk/prospective-students/undergraduate/degrees/social-sciences-bsc/2019'
p328
aS'/www.ucl.ac.uk/prospective-students/undergraduate/degrees/social-sciences-quantitative-methods-bsc/2019'
p329
aS'/www.ucl.ac.uk/prospective-students/undergraduate/degrees/spanish-latin-american-studies-ba/2019'
p330
aS'/www.ucl.ac.uk/prospective-students/undergraduate/degrees/sport-exercise-medical-sciences-bsc/2019'
p331
aS'/www.ucl.ac.uk/prospective-students/undergraduate/degrees/statistical-science-international-msci/2019'
p332
aS'/www.ucl.ac.uk/prospective-students/undergraduate/degrees/statistics-bsc/2019'
p333
aS'/www.ucl.ac.uk/prospective-students/undergraduate/degrees/statistics-management-business-bsc/2019'
p334
aS'/www.ucl.ac.uk/prospective-students/undergraduate/degrees/statistics-economics-language-bsc/2019'
p335
aS'/www.ucl.ac.uk/prospective-students/undergraduate/degrees/statistics-economics-finance-bsc/2019'
p336
aS'/www.ucl.ac.uk/prospective-students/undergraduate/degrees/theoretical-physics-bsc/2019'
p337
aS'/www.ucl.ac.uk/prospective-students/undergraduate/degrees/theoretical-physics-msci/2019'
p338
aS'/www.ucl.ac.uk/prospective-students/undergraduate/degrees/ukrainian-east-european-studies-ba/2019'
p339
aS'/www.ucl.ac.uk/prospective-students/undergraduate/degrees/urban-planning-design-management-bsc/2019'
p340
aS'/www.ucl.ac.uk/prospective-students/undergraduate/degrees/urban-studies-bsc/2019'
p341
aS'/www.ucl.ac.uk/prospective-students/undergraduate/degrees/viking-old-norse-studies-ba/2019'
p342
aS'prospective-students/undergraduate/degrees/edit'
p343
aS'prospective-students/undergraduate/'
p344
aS'prospective-students/undergraduate/'
p345
aS'prospective-students/undergraduate/'
p346
aS'prospective-students/undergraduate/'
p347
aS'prospective-students/undergraduate/ucl-plus/'
p348
aS'prospective-students/undergraduate/ucl-plus/javascript:void(0)'
p349
aS'prospective-students/access-ucl/contacting-ucl/'
p350
aS'prospective-students/access-ucl/contacting-ucl/'
p351
aS'prospective-students/access-ucl'
p352
aS'prospective-students/home-link'
p353
aS'prospective-students/'
p354
aS'prospective-students/register-your-interest'
p355
aS'prospective-students/widening-participation'
p356
aS'prospective-students/widening-participation/wp-home'
p357
aS'prospective-students/access-ucl/open-days'
p358
aS'prospective-students/access-ucl/location-and-travel'
p359
aS'find-us'
p360
aS'maps'
p361
aS'maps/'
p362
aS'prospective-students/access-ucl/visits'
p363
aS'prospective-students/access-ucl/contacting-ucl/'
p364
aS'prospective-students/access-ucl/contacting-ucl/mailto:study@ucl.ac.uk'
p365
aS'prospective-students/access-ucl/contacting-ucl/mailto:international@ucl.ac.uk'
p366
aS'prospective-students/access-ucl/contacting-ucl/mailto:postgraduate-admissions@ucl.ac.uk'
p367
aS'prospective-students/access-ucl/contacting-ucl/mailto:residences@ucl.ac.uk'
p368
aS'prospective-students/access-ucl/contacting-ucl/mailto:mark.skinsley@ucl.ac.uk'
p369
aS'prospective-students/access-ucl/request-information'
p370
aS'prospective-students/disclaimer'
p371
aS'contact-list/'
p372
aS'prospective-students/access-ucl/contacting-ucl/edit'
p373
aS'access/'
p374
aS'prospective-students/widening-participation/about-us/access/'
p375
aS'access/'
p376
aS'prospective-students/widening-participation/about-us/access/'
p377
aS'prospective-students/widening-participation/about-us'
p378
aS'prospective-students/widening-participation/about-us/location'
p379
aS'prospective-students/widening-participation/about-us/care'
p380
aS'prospective-students/widening-participation/about-us/child-protection'
p381
aS'prospective-students/widening-participation/about-us/disabled-students'
p382
aS'prospective-students/widening-participation/staff'
p383
aS'prospective-students/widening-participation/current-students'
p384
aS'prospective-students/widening-participation/visits'
p385
aS'prospective-students/widening-participation/ucas-fairs'
p386
aS'prospective-students/widening-participation/contact-us'
p387
aS'prospective-students/widening-participation/teachers-and-education-professionals'
p388
aS'prospective-students/widening-participation/open2016day'
p389
aS'prospective-students/open-days'
p390
aS'access/'
p391
aS'prospective-students/widening-participation/about-us/access/'
p392
aS'access/mailto:i.bartlett@ucl.ac.uk'
p393
aS'prospective-students/widening-participation/about-us/access/mailto:i.bartlett@ucl.ac.uk'
p394
aS'bookmark.php?v=250'
p395
aS'prospective-students/widening-participation/about-us/access/edit'
p396
aS'prospective-students/graduate/'
p397
aS'prospective-students/graduate/mailto:pg-updates@ucl.ac.uk'
p398
aS'prospective-students/graduate/apply/'
p399
aS'prospective-students/graduate/apply/ITE-apply'
p400
aS'prospective-students/graduate/apply-graduate-study/special-arrangements/graduate-programmes-no-online-applications'
p401
aS'prospective-students/graduate/apply-graduate-study/what-you-need'
p402
aS'prospective-students/graduate/apply-graduate-study/complete/form-guidance/online'
p403
aS'prospective-students/graduate/apply/mailto:postgraduate-admissions@ucl.ac.uk'
p404
aS'prospective-students/graduate/apply/taught/application-fees'
p405
aS'prospective-students/graduate/taught/application/application-fees/'
p406
aS'finance/students/online-payment-terms'
p407
aS'prospective-students/graduate/apply/mailto:pg-updates@ucl.ac.uk'
p408
aS'prospective-students/graduate/apply/edit'
p409
aS'prospective-students/graduate/research/funded-opportunities/studentships/'
p410
aS'prospective-students/graduate/research/funded-opportunities/studentships/mailto:a.seifert@ucl.ac.uk'
p411
aS'prospective-students/graduate/research/funded-opportunities/studentships/mailto:pg-updates@ucl.ac.uk'
p412
aS'prospective-students/graduate/research/funded-opportunities/studentships/edit'
p413
aS'/research-integrity/'
p414
aS'essinfo/'
p415
aS'strategy'
p416
aS'strategy/'
p417
aS'support-and-advice'
p418
aS'support-and-advice/'
p419
aS'events/'
p420
aS'societies/'
p421
aS'postgrad-teaching-assistants/'
p422
aS'istudy/'
p423
aS'contact/'
p424
aS'/comp/2017-2018/research/'
p425
aS'/comp/2017-2018/poster'
p426
aS'comp/2017-2018/poster/'
p427
aS'/survey/'
p428
aS'/change-makers/'
p429
aS'/yale-ucl/'
p430
aS'careers/about/eligibility/researchers'
p431
aS'research-it-services/'
p432
aS'ccs'
p433
aS'index.php/public/home/'
p434
aS'index.php/public/home'
p435
aS'redirect/?newurl=/'
p436
aS'european-institute/brexit-hub'
p437
aS'cookies/'
p438
aS'legal-services/cookies'
p439
aS'advanced-search/'
p440
aS's/search.html?collection=ucl-public-meta&form=advanced'
p441
aS'/contact/'
p442
aS'prospective-students/graduate/ucl-plus//'
p443
aS'prospective-students/graduate/ucl-plus//javascript:void(0)'
p444
aS'prospective-students/international/countries/'
p445
aS'prospective-students/international/countries/'
p446
aS'prospective-students/international/before-you-apply'
p447
aS'prospective-students/international/before-you-arrive'
p448
aS'prospective-students/international/when-you-arrive'
p449
aS'prospective-students/international/affiliate'
p450
aS'prospective-students/international/contacts-and-links/useful-links'
p451
aS'prospective-students/international/contacts-and-links/useful-mobile-apps'
p452
aS'prospective-students/international/register-your-interest/'
p453
aS'uclinternational'
p454
aS'UCL_SRM'
p455
aS'u/3234139460'
p456
aS'prospective-students/international/contacts-and-links/the-student-room/'
p457
aS'prospective-students/international/countries/africa'
p458
aS'prospective-students/international/countries/latin-america'
p459
aS'prospective-students/international/countries/north-america'
p460
aS'prospective-students/international/countries/central-asia'
p461
aS'prospective-students/international/countries/east-asia'
p462
aS'prospective-students/international/countries/south-asia'
p463
aS'prospective-students/international/countries/south-east-asia'
p464
aS'prospective-students/international/countries/australasia'
p465
aS'prospective-students/international/countries/caribbean'
p466
aS'prospective-students/international/countries/south-caucasus'
p467
aS'prospective-students/international/countries/middle-east'
p468
aS'prospective-students/international/countries/europe'
p469
aS'prospective-students/international/countries/mailto:neil.green@ucl.ac.uk'
p470
aS'prospective-students/international/countries/edit'
p471
aS'prospective-students/study-abroad-ucl/'
p472
aS'prospective-students/study-abroad-ucl/study-abroad-guide'
p473
aS'prospective-students/study-abroad-ucl/study-abroad-guide/study-options'
p474
aS'prospective-students/study-abroad-ucl/study-abroad-guide/subjects'
p475
aS'prospective-students/study-abroad-ucl/study-abroad-guide/life-at-ucl'
p476
aS'prospective-students/study-abroad-ucl/study-abroad-guide/living-in-london'
p477
aS'prospective-students/study-abroad-ucl/study-abroad-guide/life-after-london'
p478
aS'prospective-students/study-abroad-ucl/study-abroad-guide/fees-expenses-employment'
p479
aS'prospective-students/study-abroad-ucl/study-abroad-guide/how-to-apply'
p480
aS'prospective-students/study-abroad-ucl/study-abroad-guide/glossary'
p481
aS'prospective-students/study-abroad-ucl/study-abroad-guide/contact-us'
p482
aS'prospective-students/study-abroad-ucl/summer-school/your-study'
p483
aS'prospective-students/study-abroad-ucl/summer-school/modules'
p484
aS'prospective-students/study-abroad-ucl/summer-school/entry-requirements'
p485
aS'prospective-students/study-abroad-ucl/summer-school/fees'
p486
aS'prospective-students/study-abroad-ucl/summer-school/accommodation'
p487
aS'prospective-students/study-abroad-ucl/summer-school/social-programme'
p488
aS'prospective-students/study-abroad-ucl/summer-school/summer-in-london'
p489
aS'prospective-students/study-abroad-ucl/summer-school/your-application'
p490
aS'prospective-students/study-abroad-ucl/summer-school/Student-Testimonials'
p491
aS'prospective-students/study-abroad-ucl/summer-school/contact-us'
p492
aS'alumni/donations-gbp-single?PROJECT_CODE=U00003'
p493
aS'prospective-students/study-abroad-ucl/edit'
p494
aS'prospective-students/study-abroad-ucl/summer-school/'
p495
aS'prospective-students/study-abroad-ucl/summer-school/contact-us/register-your-interest'
p496
aS'prospective-students/study-abroad-ucl/summer-school/'
p497
aS'prospective-students/study-abroad-ucl/summer-school/'
p498
aS'prospective-students/study-abroad-ucl/summer-school/footer/../download'
p499
aS'prospective-students/study-abroad-ucl/summer-school/footer/ucl-summer-school-disclaimer'
p500
aS'prospective-students/study-abroad-ucl/summer-school/edit'
p501
aS'iss/immigration-visa/'
p502
aS'iss'
p503
aS'iss/index_right'
p504
aS'iss/before-you-arrive'
p505
aS'iss/when-you-arrive'
p506
aS'iss/welfare-support'
p507
aS'iss/during-your-studies'
p508
aS'iss/immigration-visa/tier-4-visa-applications'
p509
aS'iss/immigration-visa/advice'
p510
aS'iss/immigration-visa/tier-4-responsibilities'
p511
aS'iss/immigration-visa/other-visa-types'
p512
aS'iss/immigration-visa/lost-passport-brp'
p513
aS'iss/immigration-visa/right-to-rent'
p514
aS'iss/immigration-visa/atas'
p515
aS'iss/immigration-visa/police-registration'
p516
aS'iss/immigration-visa/doctorate-extension-scheme'
p517
aS'iss/immigration-visa/eu-students'
p518
aS'iss/immigration-visa/biometric-residence-permit'
p519
aS'iss/immigration-visa/medicalelectives'
p520
aS'iss/immigration-visa/staff'
p521
aS'iss/staff'
p522
aS'iss/changemakers'
p523
aS'iss/immigration-visa/index-contents/biometric-residence-permit'
p524
aS'iss/immigration-visa/edit'
p525
aS'prospective-students/international/before-you-apply/english-language-requirements/'
p526
aS'prospective-students/international/before-you-apply/english-language-requirements/'
p527
aS'prospective-students/undergraduate/apply/entry-requirements/english-language'
p528
aS'prospective-students/undergraduate/application/requirements/english-requirements'
p529
aS'prospective-students/graduate/apply/english-language/index'
p530
aS'prospective-students/graduate/life/international'
p531
aS'prospective-students/international/before-you-apply/english-language-requirements/mailto:neil.green@ucl.ac.uk'
p532
aS'prospective-students/international/before-you-apply/english-language-requirements/edit'
p533
aS'clie/'
p534
aS'clie/index_right'
p535
aS'clie/map'
p536
aS'clie/address'
p537
aS'upc'
p538
aS'language-centre/preparatory-certificates'
p539
aS'clie/preparatory-certificates'
p540
aS'clie/preparatory-certificates'
p541
aS'clie/pre-university-summer-school'
p542
aS'clie/UCL-taster-days/'
p543
aS'clie/CourseUnits'
p544
aS'summerschool'
p545
aS'prospective-students/summer-school'
p546
aS'prospective-students/study-abroad-ucl/summer-school'
p547
aS'clie/SSCs'
p548
aS'clie/short-courses/summer-spring-english-courses'
p549
aS'clie/graduate-preparation-courses/part-time-english-courses'
p550
aS'gpc'
p551
aS'clie/graduate-preparation-courses'
p552
aS'clie/graduate-preparation-courses/pre-sessional'
p553
aS'clie/graduate-preparation-courses/pre-masters-certificate-in-architecture'
p554
aS'clie/graduate-preparation-courses/diploma'
p555
aS'clie/academic-reading'
p556
aS'clie/evening-courses'
p557
aS'clie/online_dutch'
p558
aS'clie/staff'
p559
aS'clie/SummerIntensiveMFL'
p560
aS'clie/learning-resources/online-exercises/'
p561
aS'clie/learning-resources/lectures/'
p562
aS'clie/meet-us-in-country'
p563
aS'clie/edit'
p564
aS'prospective-students/international/contacts-and-links/useful-information/'
p565
aS'prospective-students/international/contacts-and-links/useful-information/'
p566
aS'prospective-students/international/contacts-and-links'
p567
aS'get-advice/'
p568
aS'prospective-students/international/contacts-and-links/useful-information/'
p569
aS'prospective-students/access-ucl/prosp-enquiries'
p570
aS'prospective-students/access-ucl/contacting-ucl'
p571
aS'study'
p572
aS'prospective-students'
p573
aS'prospective-students/'
p574
aS'prospective-students/undergraduate/apply/application-process'
p575
aS'prospective-students/undergraduate/application/how-to-apply'
p576
aS'prospective-students/international/affiliate/index'
p577
aS'prospective-students/international/contacts-and-links/useful-information/mailto:affiliatestudents@ucl.ac.uk'
p578
aS'departments/academic-departments'
p579
aS'about/how/faculties'
p580
aS'prospective-students/international/contacts-and-links/useful-information/mailto:artsfac@ucl.ac.uk'
p581
aS'prospective-students/international/contacts-and-links/useful-information/mailto:basc-info@ucl.ac.uk'
p582
aS'prospective-students/international/contacts-and-links/useful-information/mailto:bartlett.faculty@ucl.ac.uk'
p583
aS'prospective-students/international/contacts-and-links/useful-information/mailto:david.morris@ucl.ac.uk'
p584
aS'prospective-students/international/contacts-and-links/useful-information/mailto:fes-enquiry@ucl.ac.uk'
p585
aS'prospective-students/international/contacts-and-links/useful-information/mailto:admissions.laws@ucl.ac.uk'
p586
aS'prospective-students/international/contacts-and-links/useful-information/mailto:biosciences-admissions@ucl.ac.uk'
p587
aS'prospective-students/international/contacts-and-links/useful-information/mailto:office.maps@ucl.ac.uk'
p588
aS'prospective-students/international/contacts-and-links/useful-information/mailto:medicaladmissions@ucl.ac.uk'
p589
aS'prospective-students/international/contacts-and-links/useful-information/mailto:shs-faculty@ucl.ac.uk'
p590
aS'prospective-students/international/contacts-and-links/useful-information/mailto:p.zusi@ucl.ac.uk'
p591
aS'prospective-students/international/contacts-and-links/useful-information/mailto:admissions@ucl.ac.uk'
p592
aS'prospective-students/international/contacts-and-links/useful-information/mailto:l.gaunt@ucl.ac.uk'
p593
aS'prospective-students/international/before-you-apply/entry-requirements'
p594
aS'prospective-students/international/contacts-and-links/useful-information/mailto:studentfunding@ucl.ac.uk'
p595
aS'prospective-students/international/before-you-apply/tuition-fees-and-living-costs'
p596
aS'prospective-students/international/contacts-and-links/useful-information/mailto:fees@ucl.ac.uk'
p597
aS'prospective-students/accommodation/faqs'
p598
aS'prospective-students/accommodation/application/frequently-asked-questions'
p599
aS'prospective-students/access-ucl/open-days/guided-tour-info/'
p600
aS'prospective-students/campus-tours'
p601
aS'prospective-students/access-ucl/self-guided-tour/'
p602
aS'prospective-students/campus-tours/self-guided-tours'
p603
aS'departments/academic-departments/'
p604
aS'about/how/faculties'
p605
aS'iss/immigration-visa/applying-for-visa'
p606
aS'prospective-students/international/contacts-and-links/useful-information/mailto:internationalsupport@ucl.ac.uk'
p607
aS'forms/help/297742'
p608
aS'prospective-students/international/contacts-and-links/useful-information/mailto:neil.green@ucl.ac.uk'
p609
aS'prospective-students/international/contacts-and-links/useful-information/edit'
p610
aS'prospective-students/accommodation/'
p611
aS'prospective-students/accommodation/'
p612
aS'prospective-students/accommodation/residences/houses'
p613
aS'prospective-students/accommodation/residences/intercollegiate-halls'
p614
aS'prospective-students/accommodation/residences/private-providers'
p615
aS'prospective-students/accommodation/contact-us'
p616
aS'prospective-students/accommodation/application'
p617
aS'prospective-students/accommodation/application/process'
p618
aS'prospective-students/accommodation/application/allocation-places'
p619
aS'prospective-students/accommodation/application/eligibility'
p620
aS'prospective-students/accommodation/application/eligibility/undergraduate'
p621
aS'prospective-students/accommodation/application/eligibility/graduate'
p622
aS'prospective-students/accommodation/application/additional-requirements'
p623
aS'prospective-students/accommodation/application/additional-requirements/current-students'
p624
aS'prospective-students/accommodation/application/couples-and-families'
p625
aS'prospective-students/accommodation/application/private-providers'
p626
aS'prospective-students/accommodation/application/frequently-asked-questions'
p627
aS'prospective-students/accommodation/application/terms-and-conditions'
p628
aS'prospective-students/accommodation/bursary'
p629
aS'prospective-students/accommodation/info'
p630
aS'prospective-students/accommodation/bursary/info'
p631
aS'prospective-students/accommodation/bursary/info'
p632
aS'prospective-students/accommodation/construction-work'
p633
aS'prospective-students/accommodation/construction-work/disruption-to-student-accommodation'
p634
aS'prospective-students/accommodation/construction-work/disruption-to-student-accommodation'
p635
aS'prospective-students/accommodation/construction-work/disruption-to-student-accommodation/triton-square'
p636
aS'prospective-students/accommodation/construction-work/disruption-to-student-accommodation/hs2'
p637
aS'prospective-students/accommodation/prospective-students/accommodation/application'
p638
aS'accommodation/residences/halls'
p639
aS'prospective-students/accommodation/residences/halls'
p640
aS'accommodation/residences/houses'
p641
aS'prospective-students/accommodation/residences/houses'
p642
aS'accommodation/residences/intercollegiate-halls'
p643
aS'prospective-students/accommodation/residences/intercollegiate-halls'
p644
aS'accommodation/residences/private-providers'
p645
aS'prospective-students/accommodation/residences/private-providers'
p646
aS'prospective-students/accommodation/documents/fees-1819.pdf'
p647
aS'prospective-students/accommodation/edit'
p648
aS'prospective-students/accommodation/residences/'
p649
aS'prospective-students/accommodation/residences/'
p650
aS'prospective-students/accommodation/residences/edit'
p651
aS'prospective-students/accommodation/applications/'
p652
aS'prospective-students/accommodation/application'
p653
aS'prospective-students/accommodation/applications/'
p654
aS'prospective-students/accommodation/application'
p655
aS'accommodation/application/process'
p656
aS'prospective-students/accommodation/application/process'
p657
aS'accommodation/application/allocation-places'
p658
aS'prospective-students/accommodation/application/allocation-places'
p659
aS'accommodation/application/eligibility'
p660
aS'prospective-students/accommodation/application/eligibility'
p661
aS'accommodation/application/additional-requirements'
p662
aS'prospective-students/accommodation/application/additional-requirements'
p663
aS'accommodation/application/couples-and-families'
p664
aS'prospective-students/accommodation/application/couples-and-families'
p665
aS'accommodation/application/private-providers'
p666
aS'prospective-students/accommodation/application/private-providers'
p667
aS'accommodation/application/terms-and-conditions'
p668
aS'prospective-students/accommodation/application/terms-and-conditions'
p669
aS'accommodation/application/frequently-asked-questions'
p670
aS'prospective-students/accommodation/application/frequently-asked-questions'
p671
aS'prospective-students/accommodation/application/edit'
p672
aS'prospective-students/accommodation/living-london/'
p673
aS'prospective-students/accommodation'
p674
aS'prospective-students/accommodation/living-london/'
p675
aS'prospective-students/accommodation'
p676
aS'prospective-students/campus-tours/'
p677
aS'prospective-students/campus-tours/guided-tours'
p678
aS'prospective-students/campus-tours/self-guided-tours'
p679
aS'prospective-students/campus-tours/plan-your-visit'
p680
aS'prospective-students/campus-tours/edit'
p681
aS'/'
p682
aS'shop'
p683
aS'node/114270'
p684
aS'node/114351'
p685
aS'node/114360'
p686
aS'node/115597'
p687
aS'where-more-happens'
p688
aS'node/114382'
p689
aS'node/114272'
p690
aS'node/114463'
p691
aS'node/114485'
p692
aS'node/114465'
p693
aS'node/114440'
p694
aS'node/114448'
p695
aS'node/114929'
p696
aS'node/114271'
p697
aS'node/114490'
p698
aS'node/114384'
p699
aS'node/114491'
p700
aS'node/114398'
p701
aS'node/80435'
p702
aS'node/114273'
p703
aS'node/114428'
p704
aS'node/114445'
p705
aS'node/114437'
p706
aS'node/114471'
p707
aS'node/114431'
p708
aS'node/114457'
p709
aS'whats-on'
p710
aS'news'
p711
aS'articles/more-of-space-you-need'
p712
aS'articles/preparing-for-exams'
p713
aS'articles/its-such-good-opportunity-to-meet-people-from-diverse-backgrounds'
p714
aS'officers/activities-officer-ilyas-morrison'
p715
aS'officers/black-and-minority-ethnic-students-officer-ayo-olatunji'
p716
aS'officers/democracy-operations-community-officer-hamza-jamshaid'
p717
aS'officers/education-officer-sarah-al-aride'
p718
aS'officers/postgraduate-students-officer-mark-crawford-1'
p719
aS'officers/welfare-international-officer-aiysha-qureshi'
p720
aS'officers/womens-officer-justine-canady'
p721
aS'/sca'
p722
aS'articles/changes-to-where-to-get-visa-advice'
p723
aS'human-resources/jobshop'
p724
aS'clubs-societies/resources/book-room-or-venue'
p725
aS'facilities/bars'
p726
aS'gpPXL'
p727
aS'about-us'
p728
aS'staff-vacancies'
p729
aS'advertise-with-us'
p730
aS'find-us'
p731
aS'forms/contact-us'
p732
aS'prospective-students/widening-participation/wp-home/'
p733
aS'prospective-students/widening-participation/wp-home/'
p734
aS'prospective-students/undergraduate-study/form-request'
p735
aS'prospective-students/undergraduate/register'
p736
aS'prospective-students/undergraduate/ucl-plus'
p737
aS'prospective-students/widening-participation/wp-home/'
p738
aS'prospective-students/widening-participation/activities/sutton-scholars'
p739
aS'prospective-students/widening-participation/wp-home/mailto:i.bartlett@ucl.ac.uk'
p740
aS'prospective-students/widening-participation/wp-home/edit'
p741
aS'prospective-students/widening-participation/activities/'
p742
aS'prospective-students/widening-participation/activities/'
p743
aS'prospective-students/widening-participation/activities/'
p744
aS'prospective-students/widening-participation/activities/activities-guide-2017-18'
p745
aS's3/90018596/Register-your-interest'
p746
aS'prospective-students/widening-participation/eligibility'
p747
aS'prospective-students/widening-participation/activities/visit-ucl-days'
p748
aS'prospective-students/widening-participation/visits/parents-carers'
p749
aS'prospective-students/widening-participation/activities/being-human/being-human'
p750
aS'prospective-students/widening-participation/visits/schools'
p751
aS'prospective-students/widening-participation/activities/horizons-gcse-programme'
p752
aS'prospective-students/widening-participation/activities/realising-opportunities'
p753
aS'prospective-students/widening-participation/activities/adult-learners'
p754
aS'prospective-students/widening-participation/activities/parents-evenings'
p755
aS'prospective-students/widening-participation/activities/enabling-social-mobility-through-education'
p756
aS'prospective-students/widening-participation/activities/professional-learning-network'
p757
aS'prospective-students/widening-participation/activities/teacher-taster-days'
p758
aS'prospective-students/widening-participation/activities/social-mobility-and-access-to-higher-education'
p759
aS'prospective-students/widening-participation/activities/teacher-masterclasses'
p760
aS'prospective-students/widening-participation/activities/non-residential-summer-schools/slade-summer-school-bursary'
p761
aS'prospective-students/widening-participation/about-us/care/'
p762
aS'prospective-students/widening-participation/activities/explore-ucl'
p763
aS'prospective-students/widening-participation/activities/summer-schools/discover-ucl'
p764
aS'prospective-students/widening-participation/activities/young-researchers'
p765
aS'prospective-students/widening-participation/activities/summer-phys-film-makers'
p766
aS'target-medicine/summer'
p767
aS'prospective-students/widening-participation/activities/gateways-conferences'
p768
aS'prospective-students/widening-participation/activities/futures-in-finance'
p769
aS'prospective-students/widening-participation/activities/masterclasses'
p770
aS'prospective-students/widening-participation/activities/summer-challenge'
p771
aS'prospective-students/widening-participation/activities/non-residential-summer-schools'
p772
aS'prospective-students/widening-participation/activities/taster-courses'
p773
aS'prospective-students/widening-participation/activities/school-visits'
p774
aS'prospective-students/widening-participation/activities/pathways'
p775
aS'prospective-students/widening-participation/activities/Black_Achievement'
p776
aS'prospective-students/widening-participation/activities/summer-schools/ucl-investigates'
p777
aS'target-medicine/mentoring-scheme'
p778
aS'prospective-students/widening-participation/activities/taster-courses/do-something-different-day'
p779
aS'prospective-students/widening-participation/openday'
p780
aS'prospective-students/open-days'
p781
aS'museums/learning-resources'
p782
aS'culture'
p783
aS'tasters'
p784
aS'prospective-students/widening-participation/activities/mailto:i.bartlett@ucl.ac.uk'
p785
aS'prospective-students/widening-participation/activities/edit'
p786
aS'news//'
p787
aS'news//View'
p788
aS'news/news-articles/0418/170418-Syracosphaera-azureaplaneta/'
p789
aS'/www.ucl.ac.uk/'
p790
aS'/www.ucl.ac.uk/prospective-students/'
p791
aS'/www.ucl.ac.uk/students/'
p792
aS'/www.ucl.ac.uk/staff/'
p793
aS'/www.ucl.ac.uk/campaign'
p794
aS'Nannotax3/'
p795
aS'JNR/open-access/Young%20et%20al%202018%20JNR38.pdf'
p796
aS'earth-sciences/research/micropalaeontology/people'
p797
aS'transforming-ucl'
p798
aS'/www.ucl.ac.uk/departments/faculties'
p799
aS'/www.ucl.ac.uk/library/'
p800
aS'/www.ucl.ac.uk/museums'
p801
aS'/www.thebloomsbury.com/'
p802
aS'/www.ucl.ac.uk/maps'
p803
aS'/www.ucl.ac.uk/london'
p804
aS'/www.ucl.ac.uk/global'
p805
aS'/www.ucl.ac.uk/alumni'
p806
aS'/www.ucl.ac.uk/enterprise'
p807
aS'/www.ucl.ac.uk/media'
p808
aS'/www.ucl.ac.uk/hr/jobs/'
p809
aS'/www.ucl.ac.uk/alumni/donations-gbp-single?PROJECT_CODE=U00003'
p810
aS'/twitter.com/ucl'
p811
aS'/www.facebook.com/uclofficial'
p812
aS'/www.youtube.com/ucltv'
p813
aS'/soundcloud.com/uclsound'
p814
aS'/www.flickr.com/photos/uclnews'
p815
aS'/www.instagram.com/ucl/'
p816
aS'/medium.com/ucl-antenna'
p817
aS'news/news-articles/0418/170418-Syracosphaera-azureaplaneta/edit'
p818
aS'news/news-articles/0418/17-04-18-fruit-flies-lifespan/'
p819
aS'news/news-articles/0418/17-04-18-fruit-flies-lifespan/edit'
p820
aS'news/news-articles/0418/17042018-preconceptionhealth/'
p821
aS'series/preconception-health'
p822
aS'womens-health'
p823
aS'womens-health/ifwh-events/ucl-ega-ifwh-13th-annual-conference'
p824
aS'news/news-articles/0418/17042018-preconceptionhealth/edit'
p825
aS'directory//'
p826
aS'/www.ucl.ac.uk/directory/self-service'
p827
aS'/www.ucl.ac.uk/isd/services/userid-passwords/ucl-directory'
p828
aS'isd/staff/mail/live/'
p829
aS'isd/services/email-calendar'
p830
aS'isd/services'
p831
aS'isd/how-to'
p832
aS'isd/about'
p833
aS'isd/help'
p834
aS'isd/news'
p835
aS'ucl.ac.uk'
p836
aS'isd/services/email-calendar/getting-started'
p837
aS'silva/../isd/how-to/email-calendar/owa'
p838
aS'isd/how-to/email-calendar/outlook-2016-win'
p839
aS'isd/how-to/email-calendar/outlook-2016-mac'
p840
aS'isd/how-to/email-calendar/outlook-2013'
p841
aS'isd/services/email-calendar/content-objects/isd/how-to/email-calendar'
p842
aS'isd/how-to/email-calendar/mobile'
p843
aS'isd/services/email-calendar/manage-messages'
p844
aS'isd/services/email-calendar/managing-folders'
p845
aS'isd/services/email-calendar/spam'
p846
aS'isd/services/email-calendar/contacts-address-book'
p847
aS'isd/services/email-calendar/my-calendar'
p848
aS'isd/services/email-calendar/email-groups'
p849
aS'isd/services/email-calendar/share-mailbox'
p850
aS'isd/services/email-calendar/collaborate/shared-mailboxes'
p851
aS'isd/services/email-calendar/collaborate'
p852
aS'isd/news/isd-news/apr2018/eduroam-issues-11042018'
p853
aS'isd/news/isd-news/Mar2018/easter-closure-2018'
p854
aS'isd/news/isd-news/jan2018/MailmanIssues-19012017'
p855
aS'isd/staff/mail/live/mailto:postmaster@ucl.ac.uk'
p856
aS'isd/services/email-calendar'
p857
aS'isd/services/email-calendar/help/troubleshoot-knowledge-base'
p858
aS'isd/services/email-calendar/about/service-contacts'
p859
aS'isd/services/email-calendar/about/service-reference'
p860
aS'isd/services/email-calendar/about/support-features'
p861
aS'isd/services/email-calendar/about/id-services'
p862
aS'isd/services/email-calendar/about/policies'
p863
aS'isd/services/comms-collaborate/office-professional-plus'
p864
aS'isd/about/who-we-are'
p865
aS'isd/about/projects-and-developments'
p866
aS'isd/about/governance'
p867
aS'isd/about/findus'
p868
aS'uclisd'
p869
aS'informationsecurity/policy/policy/public-policy/Regulations'
p870
aS'informationsecurity'
p871
aS'research-it-services'
p872
aS'isd/intranet'
p873
aS'isd/services/email-calendar/edit'
p874
aS'isd/common/servicedesk/'
p875
aS'isd/help'
p876
aS'isd/common/servicedesk/'
p877
aS'isd/help'
p878
aS'isd/common/servicedesk/mailto:servicedesk@ucl.ac.uk'
p879
aS'isd/common/servicedesk/'
p880
aS'isd/help'
p881
aS'maps/dms-watson-building'
p882
aS'isd/help/videos/remedyforce-common-service-requests.mp4'
p883
aS'isd/help/videos/remedyforce-new-ticket-creation.mp4'
p884
aS'isd/help/documents/Enabling_Remedyforce_Accessibility_v1_0__2_.pdf'
p885
aS'isd/help/remotehelp'
p886
aS'informationsecurity/contact-us'
p887
aS'isd/itforslms/about/contact'
p888
aS'isd/ioe/helpdesk'
p889
aS'isd/help/edit'
p890
aS'isd/services/get-connected/'
p891
aS'isd-extra/services/get-connected/status/'
p892
aS'isd/services/get-connected/wireless'
p893
aS'isd/services/get-connected/halls'
p894
aS'isd/services/get-connected/wired'
p895
aS'isd/services/get-connected/remote-working'
p896
aS'isd/services/telecoms'
p897
aS'isd/news/isd-news/dec2017/bidborough-house-power-failure-21122017'
p898
aS'isd/news/isd-news/dec2017/Uclguest-unavailable-20122017'
p899
aS'isd/news/isd-news/dec2017/External-Network-At-Risk-5-and-6-December-2017-8-to-9-am'
p900
aS'isd/services/get-connected/edit'
p901
aS'isd/services/websites-apps/'
p902
aS'isd/services/websites-apps/website-requests'
p903
aS'isd/services/websites-apps/website-building-service'
p904
aS'isd/services/websites-apps/silva'
p905
aS'indigo-demo'
p906
aS'isd/services/websites-apps/drupal'
p907
aS'isd/services/websites-apps/mailto:web-support@ucl.ac.uk'
p908
aS'isd/services/websites-apps/best-practice'
p909
aS'isd/services/websites-apps/blogs-wikis'
p910
aS'isd/services/websites-apps/personal-webpages'
p911
aS'isd/services/learning-teaching/it-training/help/drop-in'
p912
aS'isd/services/websites-apps/apps/ucl-go'
p913
aS'isd/services/websites-apps/silva-search'
p914
aS's/search.html?query=Silva&collection=isd-howto&sumbit=Go'
p915
aS'isd/news/isd-news/apr2018/study-space-availability-uclgo-17042018'
p916
aS'isd/news/isd-news/jan2018/Wiki-Issues-24012017'
p917
aS'isd/news/isd-news/jan2018/web-password-disruption-17012018'
p918
aS'isd/news/isd-news/dec2017/ucl-intranet-sites-login-issues-22122017'
p919
aS'isd/news/isd-news/dec2017/image-store-07122017'
p920
aS'isd/services/websites-apps/edit'
p921
aS'isd/'
p922
aS'isd/services/get-connected/wireless/eduroam'
p923
aS'ucl.ac.uk'
p924
aS'isd/services/computers/remote-access-desktop'
p925
aS'isd/students'
p926
aS'isd/services/userid-passwords'
p927
aS'isd/services/computers'
p928
aS'isd/services/print-copy-scan'
p929
aS'isd/services/filestore-sharing-collaboration'
p930
aS'isd/services/comms-collaborate'
p931
aS'isd/services/learning-teaching'
p932
aS'isd/services/software-hardware'
p933
aS'isd/services/research-it'
p934
aS'isd/services/stay-secure'
p935
aS'isd/services/accessibility-disabilityit'
p936
aS'isd/services/creative-media'
p937
aS'isd/'
p938
aS'isd/mailto:servicedesk@ucl.ac.uk'
p939
aS'isd/staff'
p940
aS'isd/support-staff'
p941
aS'isd/visitors'
p942
aS'isd/slms'
p943
aS'isd/ioe'
p944
aS'isd/news/isd-news/apr2018/Disruption-sites-ucl-webservers-14042018'
p945
aS'isd/news/isd-news/apr2018/lecturecast-maintenance-20180411'
p946
aS'isd/edit'
p947
aS'hr/index.php'
p948
aS'hr/style_switcher.php?set=uclonline'
p949
aS'hr/style_switcher.php?set=uclonline'
p950
aS'hr/style_switcher.php?set=uclonline'
p951
aS'hr/style_switcher.php?set=uclonline'
p952
aS'hr/style_switcher.php?set=uclonline'
p953
aS'hr/style_switcher.php?set=uclonline_medium'
p954
aS'hr/style_switcher.php?set=uclonline_medium'
p955
aS'hr/style_switcher.php?set=uclonline_medium'
p956
aS'hr/style_switcher.php?set=uclonline_medium'
p957
aS'hr/style_switcher.php?set=uclonline_medium'
p958
aS'hr/style_switcher.php?set=uclonline_large'
p959
aS'hr/style_switcher.php?set=uclonline_large'
p960
aS'hr/style_switcher.php?set=uclonline_large'
p961
aS'hr/style_switcher.php?set=uclonline_large'
p962
aS'hr/style_switcher.php?set=uclonline_large'
p963
aS'hr/jobs/index.php'
p964
aS'hr/howtofindus/index.php'
p965
aS'hr/staff/az-staff.php'
p966
aS'hr/benefits/employee_benefits.php'
p967
aS'hr/new_starters/'
p968
aS'hr/a_to_z/index.php'
p969
aS'hr/salary_scales/index.php'
p970
aS'hr/docs/hr_service_standards.php'
p971
aS'hr/staff/hr-org-charts-2016/index.php'
p972
aS'hr/statistics/'
p973
aS'staff-survey-2017'
p974
aS'hr/intranet/'
p975
aS'hr/myview_secure_live/myview_log_in.php/mailto:pensions@ucl.ac.uk'
p976
aS'hr/staff/hr_staff_contacts_payroll.php'
p977
aS'hr/myview_secure_live/myview_log_in.php/mailto:hr.eca@ucl.ac.uk'
p978
aS'hr/myview_secure_live/myview_log_in.php/mailto:ohsadmin@ucl.ac.uk'
p979
aS'hr/od/contact/index.php'
p980
aS'hr/consultancy/index.php'
p981
aS'hr/info/'
p982
aS'hr/myview_secure_live/myview_log_in.php/mailto:equalities@ucl.ac.uk'
p983
aS'hr/myview_secure_live/myview_log_in.php/mailto:process@ucl.ac.uk'
p984
aS'hr/staff/hr_staff_contacts_policy.php'
p985
aS'myview/'
p986
aS'hr/myview_secure_live/myview_log_in.php'
p987
aS'hr/jobs/job2.php'
p988
aS'adminsys/index.php?sys=REDEP'
p989
aS'hr/services/'
p990
aS'hr/occ_health/eap.php'
p991
aS'hr/staff/hr_staff_contacts.php'
p992
aS'is/security/'
p993
aS'isd/'
p994
aS'timetable//homePage.do'
p995
aS'timetable//login.do'
p996
aS'srs/portico/timetable-faqs'
p997
aS'timetable//mailto:timetable-help@ucl.ac.uk'
p998
aS'portico/'
p999
aS'moodle/'
p1000
a.