(lp0
S'success.txt\n'
p1
aS'homepage/css/homepage.css\n'
p2
aS'homepage/js/jquery.js\n'
p3
aS'homepage/js/exploreBar.js\n'
p4
aS'homepage/js/jquery.element.cycle.1.0.js\n'
p5
aS'success.txt\n'
p6
aS'homepage/css/homepage.css\n'
p7
aS'homepage/js/jquery.js\n'
p8
aS'homepage/js/exploreBar.js\n'
p9
aS'homepage/js/jquery.element.cycle.1.0.js\n'
p10
aS'favicon.ico\n'
p11
aS'pages/scripts/0002/9525.js?423105\n'
p12
aS'corporate-information/rankings-and-reputation/\n'
p13
aS'origins/css/bath/site/site.css\n'
p14
aS'common/foundation/js/foundation/foundation.equalizer.js\n'
p15
aS'success.txt\n'
p16
aS'homepage/css/homepage.css\n'
p17
aS'homepage/js/jquery.js\n'
p18
aS'homepage/js/exploreBar.js\n'
p19
aS'homepage/js/jquery.element.cycle.1.0.js\n'
p20
aS'favicon.ico\n'
p21
aS'pages/scripts/0002/9525.js?423105\n'
p22
aS'corporate-information/rankings-and-reputation/\n'
p23
aS'origins/css/bath/site/site.css\n'
p24
aS'common/foundation/js/foundation/foundation.equalizer.js\n'
p25
aS'origins/universal/images/favicon/android/android-chrome-192x192.png\n'
p26
aS'origins/universal/images/favicon/favicon.ico\n'
p27
aS'gtm.js?id=GTM-NN6ZCP\n'
p28
aS'origins/universal/images/icons/search-button.svg\n'
p29
aS'origins/universal/images/style/target.svg\n'
p30
aS'success.txt\n'
p31
aS'homepage/css/homepage.css\n'
p32
aS'homepage/js/jquery.js\n'
p33
aS'homepage/js/exploreBar.js\n'
p34
aS'homepage/js/jquery.element.cycle.1.0.js\n'
p35
aS'favicon.ico\n'
p36
aS'pages/scripts/0002/9525.js?423105\n'
p37
aS'corporate-information/rankings-and-reputation/\n'
p38
aS'origins/css/bath/site/site.css\n'
p39
aS'common/foundation/js/foundation/foundation.equalizer.js\n'
p40
aS'origins/universal/images/favicon/android/android-chrome-192x192.png\n'
p41
aS'origins/universal/images/favicon/favicon.ico\n'
p42
aS'gtm.js?id=GTM-NN6ZCP\n'
p43
aS'origins/universal/images/icons/search-button.svg\n'
p44
aS'origins/universal/images/style/target.svg\n'
p45
aS'pages/scripts/0002/9525.js?423105\n'
p46
aS'homepage/features/feature646.html?_=1523181455346\n'
p47
aS'homepage/images/features/646.jpg\n'
p48
aS'index/\n'
p49
aS'news/2017/09/22/bath-named-sports-university-of-the-year/\n'
p50
aS'success.txt\n'
p51
aS'homepage/css/homepage.css\n'
p52
aS'homepage/js/jquery.js\n'
p53
aS'homepage/js/exploreBar.js\n'
p54
aS'homepage/js/jquery.element.cycle.1.0.js\n'
p55
aS'favicon.ico\n'
p56
aS'pages/scripts/0002/9525.js?423105\n'
p57
aS'corporate-information/rankings-and-reputation/\n'
p58
aS'origins/css/bath/site/site.css\n'
p59
aS'common/foundation/js/foundation/foundation.equalizer.js\n'
p60
aS'origins/universal/images/favicon/android/android-chrome-192x192.png\n'
p61
aS'origins/universal/images/favicon/favicon.ico\n'
p62
aS'gtm.js?id=GTM-NN6ZCP\n'
p63
aS'origins/universal/images/icons/search-button.svg\n'
p64
aS'origins/universal/images/style/target.svg\n'
p65
aS'pages/scripts/0002/9525.js?423105\n'
p66
aS'homepage/features/feature646.html?_=1523181455346\n'
p67
aS'homepage/images/features/646.jpg\n'
p68
aS'index/\n'
p69
aS'news/2017/09/22/bath-named-sports-university-of-the-year/\n'
p70
aS'common/js/editpage.php\n'
p71
aS'system/modules/uk.ac.bath.template.common/resources/css/screen-common.css?colour=internal&internal=internal&columns=3&background=\n'
p72
aS'system/modules/uk.ac.bath.template.common/resources/css/print-common.css?colour=internal\n'
p73
aS'index/site-components/atoz.css\n'
p74
aS'common/js/jquery.js\n'
p75
aS'success.txt\n'
p76
aS'homepage/css/homepage.css\n'
p77
aS'homepage/js/jquery.js\n'
p78
aS'homepage/js/exploreBar.js\n'
p79
aS'homepage/js/jquery.element.cycle.1.0.js\n'
p80
aS'favicon.ico\n'
p81
aS'pages/scripts/0002/9525.js?423105\n'
p82
aS'corporate-information/rankings-and-reputation/\n'
p83
aS'origins/css/bath/site/site.css\n'
p84
aS'common/foundation/js/foundation/foundation.equalizer.js\n'
p85
aS'origins/universal/images/favicon/android/android-chrome-192x192.png\n'
p86
aS'origins/universal/images/favicon/favicon.ico\n'
p87
aS'gtm.js?id=GTM-NN6ZCP\n'
p88
aS'origins/universal/images/icons/search-button.svg\n'
p89
aS'origins/universal/images/style/target.svg\n'
p90
aS'pages/scripts/0002/9525.js?423105\n'
p91
aS'homepage/features/feature646.html?_=1523181455346\n'
p92
aS'homepage/images/features/646.jpg\n'
p93
aS'index/\n'
p94
aS'news/2017/09/22/bath-named-sports-university-of-the-year/\n'
p95
aS'common/js/editpage.php\n'
p96
aS'system/modules/uk.ac.bath.template.common/resources/css/screen-common.css?colour=internal&internal=internal&columns=3&background=\n'
p97
aS'system/modules/uk.ac.bath.template.common/resources/css/print-common.css?colour=internal\n'
p98
aS'index/site-components/atoz.css\n'
p99
aS'common/js/jquery.js\n'
p100
aS'about/contact-us/\n'
p101
aS'common/js/editpage.php\n'
p102
aS'travel-advice/\n'
p103
aS'common/images/logos/favicon.ico\n'
p104
aS'corporate-information/modern-slavery-and-human-trafficking-statement/\n'
p105
aS'success.txt\n'
p106
aS'homepage/css/homepage.css\n'
p107
aS'homepage/js/jquery.js\n'
p108
aS'homepage/js/exploreBar.js\n'
p109
aS'homepage/js/jquery.element.cycle.1.0.js\n'
p110
aS'favicon.ico\n'
p111
aS'pages/scripts/0002/9525.js?423105\n'
p112
aS'corporate-information/rankings-and-reputation/\n'
p113
aS'origins/css/bath/site/site.css\n'
p114
aS'common/foundation/js/foundation/foundation.equalizer.js\n'
p115
aS'origins/universal/images/favicon/android/android-chrome-192x192.png\n'
p116
aS'origins/universal/images/favicon/favicon.ico\n'
p117
aS'gtm.js?id=GTM-NN6ZCP\n'
p118
aS'origins/universal/images/icons/search-button.svg\n'
p119
aS'origins/universal/images/style/target.svg\n'
p120
aS'pages/scripts/0002/9525.js?423105\n'
p121
aS'homepage/features/feature646.html?_=1523181455346\n'
p122
aS'homepage/images/features/646.jpg\n'
p123
aS'index/\n'
p124
aS'news/2017/09/22/bath-named-sports-university-of-the-year/\n'
p125
aS'common/js/editpage.php\n'
p126
aS'system/modules/uk.ac.bath.template.common/resources/css/screen-common.css?colour=internal&internal=internal&columns=3&background=\n'
p127
aS'system/modules/uk.ac.bath.template.common/resources/css/print-common.css?colour=internal\n'
p128
aS'index/site-components/atoz.css\n'
p129
aS'common/js/jquery.js\n'
p130
aS'about/contact-us/\n'
p131
aS'common/js/editpage.php\n'
p132
aS'travel-advice/\n'
p133
aS'common/images/logos/favicon.ico\n'
p134
aS'corporate-information/modern-slavery-and-human-trafficking-statement/\n'
p135
aS'success.txt\n'
p136
aS'homepage/css/homepage.css\n'
p137
aS'homepage/js/jquery.js\n'
p138
aS'homepage/js/exploreBar.js\n'
p139
aS'homepage/js/jquery.element.cycle.1.0.js\n'
p140
aS'favicon.ico\n'
p141
aS'pages/scripts/0002/9525.js?423105\n'
p142
aS'corporate-information/rankings-and-reputation/\n'
p143
aS'origins/css/bath/site/site.css\n'
p144
aS'common/foundation/js/foundation/foundation.equalizer.js\n'
p145
aS'origins/universal/images/favicon/android/android-chrome-192x192.png\n'
p146
aS'origins/universal/images/favicon/favicon.ico\n'
p147
aS'gtm.js?id=GTM-NN6ZCP\n'
p148
aS'origins/universal/images/icons/search-button.svg\n'
p149
aS'origins/universal/images/style/target.svg\n'
p150
aS'pages/scripts/0002/9525.js?423105\n'
p151
aS'homepage/features/feature646.html?_=1523181455346\n'
p152
aS'homepage/images/features/646.jpg\n'
p153
aS'index/\n'
p154
aS'news/2017/09/22/bath-named-sports-university-of-the-year/\n'
p155
aS'common/js/editpage.php\n'
p156
aS'system/modules/uk.ac.bath.template.common/resources/css/screen-common.css?colour=internal&internal=internal&columns=3&background=\n'
p157
aS'system/modules/uk.ac.bath.template.common/resources/css/print-common.css?colour=internal\n'
p158
aS'index/site-components/atoz.css\n'
p159
aS'common/js/jquery.js\n'
p160
aS'about/contact-us/\n'
p161
aS'common/js/editpage.php\n'
p162
aS'travel-advice/\n'
p163
aS'common/images/logos/favicon.ico\n'
p164
aS'corporate-information/modern-slavery-and-human-trafficking-statement/\n'
p165
aS'study/ug/accommodation/\n'
p166
aS't/1.css?apiType=css&projectid=b88bad85-b88d-4a23-aa6f-4d4a0469310c\n'
p167
aS'topics/studying-at-bath-as-an-international-student/\n'
p168
aS'lens/css/bath/site/site.css\n'
p169
aS'lens/universal/images/awards/times-sports-uni-2018.svg\n'
p170
aS'success.txt\n'
p171
aS'homepage/css/homepage.css\n'
p172
aS'homepage/js/jquery.js\n'
p173
aS'homepage/js/exploreBar.js\n'
p174
aS'homepage/js/jquery.element.cycle.1.0.js\n'
p175
aS'favicon.ico\n'
p176
aS'pages/scripts/0002/9525.js?423105\n'
p177
aS'corporate-information/rankings-and-reputation/\n'
p178
aS'origins/css/bath/site/site.css\n'
p179
aS'common/foundation/js/foundation/foundation.equalizer.js\n'
p180
aS'origins/universal/images/favicon/android/android-chrome-192x192.png\n'
p181
aS'origins/universal/images/favicon/favicon.ico\n'
p182
aS'gtm.js?id=GTM-NN6ZCP\n'
p183
aS'origins/universal/images/icons/search-button.svg\n'
p184
aS'origins/universal/images/style/target.svg\n'
p185
aS'pages/scripts/0002/9525.js?423105\n'
p186
aS'homepage/features/feature646.html?_=1523181455346\n'
p187
aS'homepage/images/features/646.jpg\n'
p188
aS'index/\n'
p189
aS'news/2017/09/22/bath-named-sports-university-of-the-year/\n'
p190
aS'common/js/editpage.php\n'
p191
aS'system/modules/uk.ac.bath.template.common/resources/css/screen-common.css?colour=internal&internal=internal&columns=3&background=\n'
p192
aS'system/modules/uk.ac.bath.template.common/resources/css/print-common.css?colour=internal\n'
p193
aS'index/site-components/atoz.css\n'
p194
aS'common/js/jquery.js\n'
p195
aS'about/contact-us/\n'
p196
aS'common/js/editpage.php\n'
p197
aS'travel-advice/\n'
p198
aS'common/images/logos/favicon.ico\n'
p199
aS'corporate-information/modern-slavery-and-human-trafficking-statement/\n'
p200
aS'study/ug/accommodation/\n'
p201
aS't/1.css?apiType=css&projectid=b88bad85-b88d-4a23-aa6f-4d4a0469310c\n'
p202
aS'topics/studying-at-bath-as-an-international-student/\n'
p203
aS'lens/css/bath/site/site.css\n'
p204
aS'lens/universal/images/awards/times-sports-uni-2018.svg\n'
p205
aS'groups/student-accommodation/\n'
p206
aS'pages/scripts/0002/9525.js?423105\n'
p207
aS'pages/scripts/0002/9525.js?423105\n'
p208
aS'activityi;src=8369552;type=count0;cat=pgope0;ord=3763827381325;gtm=G45;~oref=http%3A%2F%2Fwww.bath.ac.uk%2Fcampaigns%2Fexperience-the-university-at-a-postgraduate-open-day-or-fair%2F?\n'
p209
aS'business/\n'
p210
aS'success.txt\n'
p211
aS'homepage/css/homepage.css\n'
p212
aS'homepage/js/jquery.js\n'
p213
aS'homepage/js/exploreBar.js\n'
p214
aS'homepage/js/jquery.element.cycle.1.0.js\n'
p215
aS'favicon.ico\n'
p216
aS'pages/scripts/0002/9525.js?423105\n'
p217
aS'corporate-information/rankings-and-reputation/\n'
p218
aS'origins/css/bath/site/site.css\n'
p219
aS'common/foundation/js/foundation/foundation.equalizer.js\n'
p220
aS'origins/universal/images/favicon/android/android-chrome-192x192.png\n'
p221
aS'origins/universal/images/favicon/favicon.ico\n'
p222
aS'gtm.js?id=GTM-NN6ZCP\n'
p223
aS'origins/universal/images/icons/search-button.svg\n'
p224
aS'origins/universal/images/style/target.svg\n'
p225
aS'pages/scripts/0002/9525.js?423105\n'
p226
aS'homepage/features/feature646.html?_=1523181455346\n'
p227
aS'homepage/images/features/646.jpg\n'
p228
aS'index/\n'
p229
aS'news/2017/09/22/bath-named-sports-university-of-the-year/\n'
p230
aS'common/js/editpage.php\n'
p231
aS'system/modules/uk.ac.bath.template.common/resources/css/screen-common.css?colour=internal&internal=internal&columns=3&background=\n'
p232
aS'system/modules/uk.ac.bath.template.common/resources/css/print-common.css?colour=internal\n'
p233
aS'index/site-components/atoz.css\n'
p234
aS'common/js/jquery.js\n'
p235
aS'about/contact-us/\n'
p236
aS'common/js/editpage.php\n'
p237
aS'travel-advice/\n'
p238
aS'common/images/logos/favicon.ico\n'
p239
aS'corporate-information/modern-slavery-and-human-trafficking-statement/\n'
p240
aS'study/ug/accommodation/\n'
p241
aS't/1.css?apiType=css&projectid=b88bad85-b88d-4a23-aa6f-4d4a0469310c\n'
p242
aS'topics/studying-at-bath-as-an-international-student/\n'
p243
aS'lens/css/bath/site/site.css\n'
p244
aS'lens/universal/images/awards/times-sports-uni-2018.svg\n'
p245
aS'groups/student-accommodation/\n'
p246
aS'pages/scripts/0002/9525.js?423105\n'
p247
aS'pages/scripts/0002/9525.js?423105\n'
p248
aS'activityi;src=8369552;type=count0;cat=pgope0;ord=3763827381325;gtm=G45;~oref=http%3A%2F%2Fwww.bath.ac.uk%2Fcampaigns%2Fexperience-the-university-at-a-postgraduate-open-day-or-fair%2F?\n'
p249
aS'business/\n'
p250
aS'forms/order-the-2019-undergraduate-prospectus/\n'
p251
aS'professional-services/student-accommodation\n'
p252
aS'export/embed.html?bbox=-2.351374626159668%2C51.36612722653085%2C-2.298760414123535%2C51.39093159326464&layer=mapnik&marker=51.378531090053336%2C-2.3250675201416016\n'
p253
aS'about/\n'
p254
aS'common/css/global.css?colour=business&template=homepage&columns=2\n'
p255
aS'success.txt\n'
p256
aS'homepage/css/homepage.css\n'
p257
aS'homepage/js/jquery.js\n'
p258
aS'homepage/js/exploreBar.js\n'
p259
aS'homepage/js/jquery.element.cycle.1.0.js\n'
p260
aS'favicon.ico\n'
p261
aS'pages/scripts/0002/9525.js?423105\n'
p262
aS'corporate-information/rankings-and-reputation/\n'
p263
aS'origins/css/bath/site/site.css\n'
p264
aS'common/foundation/js/foundation/foundation.equalizer.js\n'
p265
aS'origins/universal/images/favicon/android/android-chrome-192x192.png\n'
p266
aS'origins/universal/images/favicon/favicon.ico\n'
p267
aS'gtm.js?id=GTM-NN6ZCP\n'
p268
aS'origins/universal/images/icons/search-button.svg\n'
p269
aS'origins/universal/images/style/target.svg\n'
p270
aS'pages/scripts/0002/9525.js?423105\n'
p271
aS'homepage/features/feature646.html?_=1523181455346\n'
p272
aS'homepage/images/features/646.jpg\n'
p273
aS'index/\n'
p274
aS'news/2017/09/22/bath-named-sports-university-of-the-year/\n'
p275
aS'common/js/editpage.php\n'
p276
aS'system/modules/uk.ac.bath.template.common/resources/css/screen-common.css?colour=internal&internal=internal&columns=3&background=\n'
p277
aS'system/modules/uk.ac.bath.template.common/resources/css/print-common.css?colour=internal\n'
p278
aS'index/site-components/atoz.css\n'
p279
aS'common/js/jquery.js\n'
p280
aS'about/contact-us/\n'
p281
aS'common/js/editpage.php\n'
p282
aS'travel-advice/\n'
p283
aS'common/images/logos/favicon.ico\n'
p284
aS'corporate-information/modern-slavery-and-human-trafficking-statement/\n'
p285
aS'study/ug/accommodation/\n'
p286
aS't/1.css?apiType=css&projectid=b88bad85-b88d-4a23-aa6f-4d4a0469310c\n'
p287
aS'topics/studying-at-bath-as-an-international-student/\n'
p288
aS'lens/css/bath/site/site.css\n'
p289
aS'lens/universal/images/awards/times-sports-uni-2018.svg\n'
p290
aS'groups/student-accommodation/\n'
p291
aS'pages/scripts/0002/9525.js?423105\n'
p292
aS'pages/scripts/0002/9525.js?423105\n'
p293
aS'activityi;src=8369552;type=count0;cat=pgope0;ord=3763827381325;gtm=G45;~oref=http%3A%2F%2Fwww.bath.ac.uk%2Fcampaigns%2Fexperience-the-university-at-a-postgraduate-open-day-or-fair%2F?\n'
p294
aS'business/\n'
p295
aS'forms/order-the-2019-undergraduate-prospectus/\n'
p296
aS'professional-services/student-accommodation\n'
p297
aS'export/embed.html?bbox=-2.351374626159668%2C51.36612722653085%2C-2.298760414123535%2C51.39093159326464&layer=mapnik&marker=51.378531090053336%2C-2.3250675201416016\n'
p298
aS'about/\n'
p299
aS'common/css/global.css?colour=business&template=homepage&columns=2\n'
p300
aS'lens/universal/images/style/social-icons.svg\n'
p301
aS'professional-services/student-accommodation/\n'
p302
aS'assets/embed-4dbfd7a8634cab9ca4b7172c30c2fef965e94e7de09a5576f759bb7f41a7dd7b.css\n'
p303
aS'css?family=Raleway:400,200,800,600\n'
p304
aS'assets/embed-1bd655ce9833e9d90cbf3e24d21a54a38e55e0e1e7492d40f2fa7d71cc3803c6.js\n'
p305
aS'success.txt\n'
p306
aS'homepage/css/homepage.css\n'
p307
aS'homepage/js/jquery.js\n'
p308
aS'homepage/js/exploreBar.js\n'
p309
aS'homepage/js/jquery.element.cycle.1.0.js\n'
p310
aS'favicon.ico\n'
p311
aS'pages/scripts/0002/9525.js?423105\n'
p312
aS'corporate-information/rankings-and-reputation/\n'
p313
aS'origins/css/bath/site/site.css\n'
p314
aS'common/foundation/js/foundation/foundation.equalizer.js\n'
p315
aS'origins/universal/images/favicon/android/android-chrome-192x192.png\n'
p316
aS'origins/universal/images/favicon/favicon.ico\n'
p317
aS'gtm.js?id=GTM-NN6ZCP\n'
p318
aS'origins/universal/images/icons/search-button.svg\n'
p319
aS'origins/universal/images/style/target.svg\n'
p320
aS'pages/scripts/0002/9525.js?423105\n'
p321
aS'homepage/features/feature646.html?_=1523181455346\n'
p322
aS'homepage/images/features/646.jpg\n'
p323
aS'index/\n'
p324
aS'news/2017/09/22/bath-named-sports-university-of-the-year/\n'
p325
aS'common/js/editpage.php\n'
p326
aS'system/modules/uk.ac.bath.template.common/resources/css/screen-common.css?colour=internal&internal=internal&columns=3&background=\n'
p327
aS'system/modules/uk.ac.bath.template.common/resources/css/print-common.css?colour=internal\n'
p328
aS'index/site-components/atoz.css\n'
p329
aS'common/js/jquery.js\n'
p330
aS'about/contact-us/\n'
p331
aS'common/js/editpage.php\n'
p332
aS'travel-advice/\n'
p333
aS'common/images/logos/favicon.ico\n'
p334
aS'corporate-information/modern-slavery-and-human-trafficking-statement/\n'
p335
aS'study/ug/accommodation/\n'
p336
aS't/1.css?apiType=css&projectid=b88bad85-b88d-4a23-aa6f-4d4a0469310c\n'
p337
aS'topics/studying-at-bath-as-an-international-student/\n'
p338
aS'lens/css/bath/site/site.css\n'
p339
aS'lens/universal/images/awards/times-sports-uni-2018.svg\n'
p340
aS'groups/student-accommodation/\n'
p341
aS'pages/scripts/0002/9525.js?423105\n'
p342
aS'pages/scripts/0002/9525.js?423105\n'
p343
aS'activityi;src=8369552;type=count0;cat=pgope0;ord=3763827381325;gtm=G45;~oref=http%3A%2F%2Fwww.bath.ac.uk%2Fcampaigns%2Fexperience-the-university-at-a-postgraduate-open-day-or-fair%2F?\n'
p344
aS'business/\n'
p345
aS'forms/order-the-2019-undergraduate-prospectus/\n'
p346
aS'professional-services/student-accommodation\n'
p347
aS'export/embed.html?bbox=-2.351374626159668%2C51.36612722653085%2C-2.298760414123535%2C51.39093159326464&layer=mapnik&marker=51.378531090053336%2C-2.3250675201416016\n'
p348
aS'about/\n'
p349
aS'common/css/global.css?colour=business&template=homepage&columns=2\n'
p350
aS'lens/universal/images/style/social-icons.svg\n'
p351
aS'professional-services/student-accommodation/\n'
p352
aS'assets/embed-4dbfd7a8634cab9ca4b7172c30c2fef965e94e7de09a5576f759bb7f41a7dd7b.css\n'
p353
aS'css?family=Raleway:400,200,800,600\n'
p354
aS'assets/embed-1bd655ce9833e9d90cbf3e24d21a54a38e55e0e1e7492d40f2fa7d71cc3803c6.js\n'
p355
aS'pages/scripts/0002/9525.js?423105\n'
p356
aS'lens/universal/images/awards/times-sports-uni-2018.svg\n'
p357
aS'lens/universal/images/awards/times-starting-salaries-2018.svg\n'
p358
aS'lens/universal/images/awards/tef-ranking.svg\n'
p359
aS'2/1480/24125472623_b9c69ea6c3_b.jpg\n'
p360
aS'success.txt\n'
p361
aS'homepage/css/homepage.css\n'
p362
aS'homepage/js/jquery.js\n'
p363
aS'homepage/js/exploreBar.js\n'
p364
aS'homepage/js/jquery.element.cycle.1.0.js\n'
p365
aS'favicon.ico\n'
p366
aS'pages/scripts/0002/9525.js?423105\n'
p367
aS'corporate-information/rankings-and-reputation/\n'
p368
aS'origins/css/bath/site/site.css\n'
p369
aS'common/foundation/js/foundation/foundation.equalizer.js\n'
p370
aS'origins/universal/images/favicon/android/android-chrome-192x192.png\n'
p371
aS'origins/universal/images/favicon/favicon.ico\n'
p372
aS'gtm.js?id=GTM-NN6ZCP\n'
p373
aS'origins/universal/images/icons/search-button.svg\n'
p374
aS'origins/universal/images/style/target.svg\n'
p375
aS'pages/scripts/0002/9525.js?423105\n'
p376
aS'homepage/features/feature646.html?_=1523181455346\n'
p377
aS'homepage/images/features/646.jpg\n'
p378
aS'index/\n'
p379
aS'news/2017/09/22/bath-named-sports-university-of-the-year/\n'
p380
aS'common/js/editpage.php\n'
p381
aS'system/modules/uk.ac.bath.template.common/resources/css/screen-common.css?colour=internal&internal=internal&columns=3&background=\n'
p382
aS'system/modules/uk.ac.bath.template.common/resources/css/print-common.css?colour=internal\n'
p383
aS'index/site-components/atoz.css\n'
p384
aS'common/js/jquery.js\n'
p385
aS'about/contact-us/\n'
p386
aS'common/js/editpage.php\n'
p387
aS'travel-advice/\n'
p388
aS'common/images/logos/favicon.ico\n'
p389
aS'corporate-information/modern-slavery-and-human-trafficking-statement/\n'
p390
aS'study/ug/accommodation/\n'
p391
aS't/1.css?apiType=css&projectid=b88bad85-b88d-4a23-aa6f-4d4a0469310c\n'
p392
aS'topics/studying-at-bath-as-an-international-student/\n'
p393
aS'lens/css/bath/site/site.css\n'
p394
aS'lens/universal/images/awards/times-sports-uni-2018.svg\n'
p395
aS'groups/student-accommodation/\n'
p396
aS'pages/scripts/0002/9525.js?423105\n'
p397
aS'pages/scripts/0002/9525.js?423105\n'
p398
aS'activityi;src=8369552;type=count0;cat=pgope0;ord=3763827381325;gtm=G45;~oref=http%3A%2F%2Fwww.bath.ac.uk%2Fcampaigns%2Fexperience-the-university-at-a-postgraduate-open-day-or-fair%2F?\n'
p399
aS'business/\n'
p400
aS'forms/order-the-2019-undergraduate-prospectus/\n'
p401
aS'professional-services/student-accommodation\n'
p402
aS'export/embed.html?bbox=-2.351374626159668%2C51.36612722653085%2C-2.298760414123535%2C51.39093159326464&layer=mapnik&marker=51.378531090053336%2C-2.3250675201416016\n'
p403
aS'about/\n'
p404
aS'common/css/global.css?colour=business&template=homepage&columns=2\n'
p405
aS'lens/universal/images/style/social-icons.svg\n'
p406
aS'professional-services/student-accommodation/\n'
p407
aS'assets/embed-4dbfd7a8634cab9ca4b7172c30c2fef965e94e7de09a5576f759bb7f41a7dd7b.css\n'
p408
aS'css?family=Raleway:400,200,800,600\n'
p409
aS'assets/embed-1bd655ce9833e9d90cbf3e24d21a54a38e55e0e1e7492d40f2fa7d71cc3803c6.js\n'
p410
aS'pages/scripts/0002/9525.js?423105\n'
p411
aS'lens/universal/images/awards/times-sports-uni-2018.svg\n'
p412
aS'lens/universal/images/awards/times-starting-salaries-2018.svg\n'
p413
aS'lens/universal/images/awards/tef-ranking.svg\n'
p414
aS'2/1480/24125472623_b9c69ea6c3_b.jpg\n'
p415
aS'export/embed.html?bbox=-2.3329585790634155%2C51.37987039911064%2C-2.326971888542175%2C51.38183911228109&layer=mapnik&marker=51.38085476628094%2C-2.3299652338027954\n'
p416
aS'homepage/images/features/641.jpg\n'
p417
aS'pages/scripts/0002/9525.js?423105\n'
p418
aS'topics/about-the-university/\n'
p419
aS'common/images/style/body_bg.gif\n'
p420
aS'success.txt\n'
p421
aS'homepage/css/homepage.css\n'
p422
aS'homepage/js/jquery.js\n'
p423
aS'homepage/js/exploreBar.js\n'
p424
aS'homepage/js/jquery.element.cycle.1.0.js\n'
p425
aS'favicon.ico\n'
p426
aS'pages/scripts/0002/9525.js?423105\n'
p427
aS'corporate-information/rankings-and-reputation/\n'
p428
aS'origins/css/bath/site/site.css\n'
p429
aS'common/foundation/js/foundation/foundation.equalizer.js\n'
p430
aS'origins/universal/images/favicon/android/android-chrome-192x192.png\n'
p431
aS'origins/universal/images/favicon/favicon.ico\n'
p432
aS'gtm.js?id=GTM-NN6ZCP\n'
p433
aS'origins/universal/images/icons/search-button.svg\n'
p434
aS'origins/universal/images/style/target.svg\n'
p435
aS'pages/scripts/0002/9525.js?423105\n'
p436
aS'homepage/features/feature646.html?_=1523181455346\n'
p437
aS'homepage/images/features/646.jpg\n'
p438
aS'index/\n'
p439
aS'news/2017/09/22/bath-named-sports-university-of-the-year/\n'
p440
aS'common/js/editpage.php\n'
p441
aS'system/modules/uk.ac.bath.template.common/resources/css/screen-common.css?colour=internal&internal=internal&columns=3&background=\n'
p442
aS'system/modules/uk.ac.bath.template.common/resources/css/print-common.css?colour=internal\n'
p443
aS'index/site-components/atoz.css\n'
p444
aS'common/js/jquery.js\n'
p445
aS'about/contact-us/\n'
p446
aS'common/js/editpage.php\n'
p447
aS'travel-advice/\n'
p448
aS'common/images/logos/favicon.ico\n'
p449
aS'corporate-information/modern-slavery-and-human-trafficking-statement/\n'
p450
aS'study/ug/accommodation/\n'
p451
aS't/1.css?apiType=css&projectid=b88bad85-b88d-4a23-aa6f-4d4a0469310c\n'
p452
aS'topics/studying-at-bath-as-an-international-student/\n'
p453
aS'lens/css/bath/site/site.css\n'
p454
aS'lens/universal/images/awards/times-sports-uni-2018.svg\n'
p455
aS'groups/student-accommodation/\n'
p456
aS'pages/scripts/0002/9525.js?423105\n'
p457
aS'pages/scripts/0002/9525.js?423105\n'
p458
aS'activityi;src=8369552;type=count0;cat=pgope0;ord=3763827381325;gtm=G45;~oref=http%3A%2F%2Fwww.bath.ac.uk%2Fcampaigns%2Fexperience-the-university-at-a-postgraduate-open-day-or-fair%2F?\n'
p459
aS'business/\n'
p460
aS'forms/order-the-2019-undergraduate-prospectus/\n'
p461
aS'professional-services/student-accommodation\n'
p462
aS'export/embed.html?bbox=-2.351374626159668%2C51.36612722653085%2C-2.298760414123535%2C51.39093159326464&layer=mapnik&marker=51.378531090053336%2C-2.3250675201416016\n'
p463
aS'about/\n'
p464
aS'common/css/global.css?colour=business&template=homepage&columns=2\n'
p465
aS'lens/universal/images/style/social-icons.svg\n'
p466
aS'professional-services/student-accommodation/\n'
p467
aS'assets/embed-4dbfd7a8634cab9ca4b7172c30c2fef965e94e7de09a5576f759bb7f41a7dd7b.css\n'
p468
aS'css?family=Raleway:400,200,800,600\n'
p469
aS'assets/embed-1bd655ce9833e9d90cbf3e24d21a54a38e55e0e1e7492d40f2fa7d71cc3803c6.js\n'
p470
aS'pages/scripts/0002/9525.js?423105\n'
p471
aS'lens/universal/images/awards/times-sports-uni-2018.svg\n'
p472
aS'lens/universal/images/awards/times-starting-salaries-2018.svg\n'
p473
aS'lens/universal/images/awards/tef-ranking.svg\n'
p474
aS'2/1480/24125472623_b9c69ea6c3_b.jpg\n'
p475
aS'export/embed.html?bbox=-2.3329585790634155%2C51.37987039911064%2C-2.326971888542175%2C51.38183911228109&layer=mapnik&marker=51.38085476628094%2C-2.3299652338027954\n'
p476
aS'homepage/images/features/641.jpg\n'
p477
aS'pages/scripts/0002/9525.js?423105\n'
p478
aS'topics/about-the-university/\n'
p479
aS'common/images/style/body_bg.gif\n'
p480
aS'13/4042/2729.png\n'
p481
aS'13/4043/2729.png\n'
p482
aS'13/4041/2728.png\n'
p483
aS'13/4044/2728.png\n'
p484
aS'13/4041/2727.png\n'
p485
aS'success.txt\n'
p486
aS'homepage/css/homepage.css\n'
p487
aS'homepage/js/jquery.js\n'
p488
aS'homepage/js/exploreBar.js\n'
p489
aS'homepage/js/jquery.element.cycle.1.0.js\n'
p490
aS'favicon.ico\n'
p491
aS'pages/scripts/0002/9525.js?423105\n'
p492
aS'corporate-information/rankings-and-reputation/\n'
p493
aS'origins/css/bath/site/site.css\n'
p494
aS'common/foundation/js/foundation/foundation.equalizer.js\n'
p495
aS'origins/universal/images/favicon/android/android-chrome-192x192.png\n'
p496
aS'origins/universal/images/favicon/favicon.ico\n'
p497
aS'gtm.js?id=GTM-NN6ZCP\n'
p498
aS'origins/universal/images/icons/search-button.svg\n'
p499
aS'origins/universal/images/style/target.svg\n'
p500
aS'pages/scripts/0002/9525.js?423105\n'
p501
aS'homepage/features/feature646.html?_=1523181455346\n'
p502
aS'homepage/images/features/646.jpg\n'
p503
aS'index/\n'
p504
aS'news/2017/09/22/bath-named-sports-university-of-the-year/\n'
p505
aS'common/js/editpage.php\n'
p506
aS'system/modules/uk.ac.bath.template.common/resources/css/screen-common.css?colour=internal&internal=internal&columns=3&background=\n'
p507
aS'system/modules/uk.ac.bath.template.common/resources/css/print-common.css?colour=internal\n'
p508
aS'index/site-components/atoz.css\n'
p509
aS'common/js/jquery.js\n'
p510
aS'about/contact-us/\n'
p511
aS'common/js/editpage.php\n'
p512
aS'travel-advice/\n'
p513
aS'common/images/logos/favicon.ico\n'
p514
aS'corporate-information/modern-slavery-and-human-trafficking-statement/\n'
p515
aS'study/ug/accommodation/\n'
p516
aS't/1.css?apiType=css&projectid=b88bad85-b88d-4a23-aa6f-4d4a0469310c\n'
p517
aS'topics/studying-at-bath-as-an-international-student/\n'
p518
aS'lens/css/bath/site/site.css\n'
p519
aS'lens/universal/images/awards/times-sports-uni-2018.svg\n'
p520
aS'groups/student-accommodation/\n'
p521
aS'pages/scripts/0002/9525.js?423105\n'
p522
aS'pages/scripts/0002/9525.js?423105\n'
p523
aS'activityi;src=8369552;type=count0;cat=pgope0;ord=3763827381325;gtm=G45;~oref=http%3A%2F%2Fwww.bath.ac.uk%2Fcampaigns%2Fexperience-the-university-at-a-postgraduate-open-day-or-fair%2F?\n'
p524
aS'business/\n'
p525
aS'forms/order-the-2019-undergraduate-prospectus/\n'
p526
aS'professional-services/student-accommodation\n'
p527
aS'export/embed.html?bbox=-2.351374626159668%2C51.36612722653085%2C-2.298760414123535%2C51.39093159326464&layer=mapnik&marker=51.378531090053336%2C-2.3250675201416016\n'
p528
aS'about/\n'
p529
aS'common/css/global.css?colour=business&template=homepage&columns=2\n'
p530
aS'lens/universal/images/style/social-icons.svg\n'
p531
aS'professional-services/student-accommodation/\n'
p532
aS'assets/embed-4dbfd7a8634cab9ca4b7172c30c2fef965e94e7de09a5576f759bb7f41a7dd7b.css\n'
p533
aS'css?family=Raleway:400,200,800,600\n'
p534
aS'assets/embed-1bd655ce9833e9d90cbf3e24d21a54a38e55e0e1e7492d40f2fa7d71cc3803c6.js\n'
p535
aS'pages/scripts/0002/9525.js?423105\n'
p536
aS'lens/universal/images/awards/times-sports-uni-2018.svg\n'
p537
aS'lens/universal/images/awards/times-starting-salaries-2018.svg\n'
p538
aS'lens/universal/images/awards/tef-ranking.svg\n'
p539
aS'2/1480/24125472623_b9c69ea6c3_b.jpg\n'
p540
aS'export/embed.html?bbox=-2.3329585790634155%2C51.37987039911064%2C-2.326971888542175%2C51.38183911228109&layer=mapnik&marker=51.38085476628094%2C-2.3299652338027954\n'
p541
aS'homepage/images/features/641.jpg\n'
p542
aS'pages/scripts/0002/9525.js?423105\n'
p543
aS'topics/about-the-university/\n'
p544
aS'common/images/style/body_bg.gif\n'
p545
aS'13/4042/2729.png\n'
p546
aS'13/4043/2729.png\n'
p547
aS'13/4041/2728.png\n'
p548
aS'13/4044/2728.png\n'
p549
aS'13/4041/2727.png\n'
p550
aS'pages/scripts/0002/9525.js?423105\n'
p551
aS'17/64687/43658.png\n'
p552
aS'17/64688/43658.png\n'
p553
aS'17/64687/43657.png\n'
p554
aS'17/64688/43657.png\n'
p555
aS'success.txt\n'
p556
aS'homepage/css/homepage.css\n'
p557
aS'homepage/js/jquery.js\n'
p558
aS'homepage/js/exploreBar.js\n'
p559
aS'homepage/js/jquery.element.cycle.1.0.js\n'
p560
aS'favicon.ico\n'
p561
aS'pages/scripts/0002/9525.js?423105\n'
p562
aS'corporate-information/rankings-and-reputation/\n'
p563
aS'origins/css/bath/site/site.css\n'
p564
aS'common/foundation/js/foundation/foundation.equalizer.js\n'
p565
aS'origins/universal/images/favicon/android/android-chrome-192x192.png\n'
p566
aS'origins/universal/images/favicon/favicon.ico\n'
p567
aS'gtm.js?id=GTM-NN6ZCP\n'
p568
aS'origins/universal/images/icons/search-button.svg\n'
p569
aS'origins/universal/images/style/target.svg\n'
p570
aS'pages/scripts/0002/9525.js?423105\n'
p571
aS'homepage/features/feature646.html?_=1523181455346\n'
p572
aS'homepage/images/features/646.jpg\n'
p573
aS'index/\n'
p574
aS'news/2017/09/22/bath-named-sports-university-of-the-year/\n'
p575
aS'common/js/editpage.php\n'
p576
aS'system/modules/uk.ac.bath.template.common/resources/css/screen-common.css?colour=internal&internal=internal&columns=3&background=\n'
p577
aS'system/modules/uk.ac.bath.template.common/resources/css/print-common.css?colour=internal\n'
p578
aS'index/site-components/atoz.css\n'
p579
aS'common/js/jquery.js\n'
p580
aS'about/contact-us/\n'
p581
aS'common/js/editpage.php\n'
p582
aS'travel-advice/\n'
p583
aS'common/images/logos/favicon.ico\n'
p584
aS'corporate-information/modern-slavery-and-human-trafficking-statement/\n'
p585
aS'study/ug/accommodation/\n'
p586
aS't/1.css?apiType=css&projectid=b88bad85-b88d-4a23-aa6f-4d4a0469310c\n'
p587
aS'topics/studying-at-bath-as-an-international-student/\n'
p588
aS'lens/css/bath/site/site.css\n'
p589
aS'lens/universal/images/awards/times-sports-uni-2018.svg\n'
p590
aS'groups/student-accommodation/\n'
p591
aS'pages/scripts/0002/9525.js?423105\n'
p592
aS'pages/scripts/0002/9525.js?423105\n'
p593
aS'activityi;src=8369552;type=count0;cat=pgope0;ord=3763827381325;gtm=G45;~oref=http%3A%2F%2Fwww.bath.ac.uk%2Fcampaigns%2Fexperience-the-university-at-a-postgraduate-open-day-or-fair%2F?\n'
p594
aS'business/\n'
p595
aS'forms/order-the-2019-undergraduate-prospectus/\n'
p596
aS'professional-services/student-accommodation\n'
p597
aS'export/embed.html?bbox=-2.351374626159668%2C51.36612722653085%2C-2.298760414123535%2C51.39093159326464&layer=mapnik&marker=51.378531090053336%2C-2.3250675201416016\n'
p598
aS'about/\n'
p599
aS'common/css/global.css?colour=business&template=homepage&columns=2\n'
p600
aS'lens/universal/images/style/social-icons.svg\n'
p601
aS'professional-services/student-accommodation/\n'
p602
aS'assets/embed-4dbfd7a8634cab9ca4b7172c30c2fef965e94e7de09a5576f759bb7f41a7dd7b.css\n'
p603
aS'css?family=Raleway:400,200,800,600\n'
p604
aS'assets/embed-1bd655ce9833e9d90cbf3e24d21a54a38e55e0e1e7492d40f2fa7d71cc3803c6.js\n'
p605
aS'pages/scripts/0002/9525.js?423105\n'
p606
aS'lens/universal/images/awards/times-sports-uni-2018.svg\n'
p607
aS'lens/universal/images/awards/times-starting-salaries-2018.svg\n'
p608
aS'lens/universal/images/awards/tef-ranking.svg\n'
p609
aS'2/1480/24125472623_b9c69ea6c3_b.jpg\n'
p610
aS'export/embed.html?bbox=-2.3329585790634155%2C51.37987039911064%2C-2.326971888542175%2C51.38183911228109&layer=mapnik&marker=51.38085476628094%2C-2.3299652338027954\n'
p611
aS'homepage/images/features/641.jpg\n'
p612
aS'pages/scripts/0002/9525.js?423105\n'
p613
aS'topics/about-the-university/\n'
p614
aS'common/images/style/body_bg.gif\n'
p615
aS'13/4042/2729.png\n'
p616
aS'13/4043/2729.png\n'
p617
aS'13/4041/2728.png\n'
p618
aS'13/4044/2728.png\n'
p619
aS'13/4041/2727.png\n'
p620
aS'pages/scripts/0002/9525.js?423105\n'
p621
aS'17/64687/43658.png\n'
p622
aS'17/64688/43658.png\n'
p623
aS'17/64687/43657.png\n'
p624
aS'17/64688/43657.png\n'
p625
aS'pages/scripts/0002/9525.js?423105\n'
p626
aS'pages/scripts/0002/9525.js?423105\n'
p627
aS'homepage/features/feature645.html?_=1523181477744\n'
p628
aS'homepage/images/features/645.jpg\n'
p629
aS'locations/sports-training-village-stv/\n'
p630
aS'success.txt\n'
p631
aS'homepage/css/homepage.css\n'
p632
aS'homepage/js/jquery.js\n'
p633
aS'homepage/js/exploreBar.js\n'
p634
aS'homepage/js/jquery.element.cycle.1.0.js\n'
p635
aS'favicon.ico\n'
p636
aS'pages/scripts/0002/9525.js?423105\n'
p637
aS'corporate-information/rankings-and-reputation/\n'
p638
aS'origins/css/bath/site/site.css\n'
p639
aS'common/foundation/js/foundation/foundation.equalizer.js\n'
p640
aS'origins/universal/images/favicon/android/android-chrome-192x192.png\n'
p641
aS'origins/universal/images/favicon/favicon.ico\n'
p642
aS'gtm.js?id=GTM-NN6ZCP\n'
p643
aS'origins/universal/images/icons/search-button.svg\n'
p644
aS'origins/universal/images/style/target.svg\n'
p645
aS'pages/scripts/0002/9525.js?423105\n'
p646
aS'homepage/features/feature646.html?_=1523181455346\n'
p647
aS'homepage/images/features/646.jpg\n'
p648
aS'index/\n'
p649
aS'news/2017/09/22/bath-named-sports-university-of-the-year/\n'
p650
aS'common/js/editpage.php\n'
p651
aS'system/modules/uk.ac.bath.template.common/resources/css/screen-common.css?colour=internal&internal=internal&columns=3&background=\n'
p652
aS'system/modules/uk.ac.bath.template.common/resources/css/print-common.css?colour=internal\n'
p653
aS'index/site-components/atoz.css\n'
p654
aS'common/js/jquery.js\n'
p655
aS'about/contact-us/\n'
p656
aS'common/js/editpage.php\n'
p657
aS'travel-advice/\n'
p658
aS'common/images/logos/favicon.ico\n'
p659
aS'corporate-information/modern-slavery-and-human-trafficking-statement/\n'
p660
aS'study/ug/accommodation/\n'
p661
aS't/1.css?apiType=css&projectid=b88bad85-b88d-4a23-aa6f-4d4a0469310c\n'
p662
aS'topics/studying-at-bath-as-an-international-student/\n'
p663
aS'lens/css/bath/site/site.css\n'
p664
aS'lens/universal/images/awards/times-sports-uni-2018.svg\n'
p665
aS'groups/student-accommodation/\n'
p666
aS'pages/scripts/0002/9525.js?423105\n'
p667
aS'pages/scripts/0002/9525.js?423105\n'
p668
aS'activityi;src=8369552;type=count0;cat=pgope0;ord=3763827381325;gtm=G45;~oref=http%3A%2F%2Fwww.bath.ac.uk%2Fcampaigns%2Fexperience-the-university-at-a-postgraduate-open-day-or-fair%2F?\n'
p669
aS'business/\n'
p670
aS'forms/order-the-2019-undergraduate-prospectus/\n'
p671
aS'professional-services/student-accommodation\n'
p672
aS'export/embed.html?bbox=-2.351374626159668%2C51.36612722653085%2C-2.298760414123535%2C51.39093159326464&layer=mapnik&marker=51.378531090053336%2C-2.3250675201416016\n'
p673
aS'about/\n'
p674
aS'common/css/global.css?colour=business&template=homepage&columns=2\n'
p675
aS'lens/universal/images/style/social-icons.svg\n'
p676
aS'professional-services/student-accommodation/\n'
p677
aS'assets/embed-4dbfd7a8634cab9ca4b7172c30c2fef965e94e7de09a5576f759bb7f41a7dd7b.css\n'
p678
aS'css?family=Raleway:400,200,800,600\n'
p679
aS'assets/embed-1bd655ce9833e9d90cbf3e24d21a54a38e55e0e1e7492d40f2fa7d71cc3803c6.js\n'
p680
aS'pages/scripts/0002/9525.js?423105\n'
p681
aS'lens/universal/images/awards/times-sports-uni-2018.svg\n'
p682
aS'lens/universal/images/awards/times-starting-salaries-2018.svg\n'
p683
aS'lens/universal/images/awards/tef-ranking.svg\n'
p684
aS'2/1480/24125472623_b9c69ea6c3_b.jpg\n'
p685
aS'export/embed.html?bbox=-2.3329585790634155%2C51.37987039911064%2C-2.326971888542175%2C51.38183911228109&layer=mapnik&marker=51.38085476628094%2C-2.3299652338027954\n'
p686
aS'homepage/images/features/641.jpg\n'
p687
aS'pages/scripts/0002/9525.js?423105\n'
p688
aS'topics/about-the-university/\n'
p689
aS'common/images/style/body_bg.gif\n'
p690
aS'13/4042/2729.png\n'
p691
aS'13/4043/2729.png\n'
p692
aS'13/4041/2728.png\n'
p693
aS'13/4044/2728.png\n'
p694
aS'13/4041/2727.png\n'
p695
aS'pages/scripts/0002/9525.js?423105\n'
p696
aS'17/64687/43658.png\n'
p697
aS'17/64688/43658.png\n'
p698
aS'17/64687/43657.png\n'
p699
aS'17/64688/43657.png\n'
p700
aS'pages/scripts/0002/9525.js?423105\n'
p701
aS'pages/scripts/0002/9525.js?423105\n'
p702
aS'homepage/features/feature645.html?_=1523181477744\n'
p703
aS'homepage/images/features/645.jpg\n'
p704
aS'locations/sports-training-village-stv/\n'
p705
aS't/1.css?apiType=css&projectid=b88bad85-b88d-4a23-aa6f-4d4a0469310c\n'
p706
aS'export/embed.html?bbox=-2.3285865783691406%2C51.376167113942884%2C-2.320733070373535%2C51.37893623517739&layer=mapnik&marker=51.37755002130279%2C-2.324659824371338\n'
p707
aS'dv2/14/427cc195-6baf-4da5-af7b-90a61db74664.woff2?d44f19a684109620e4841571ae90e818e416d16650146eec36040b3150240d73392ca41abbbad40b03a081ad4af391f37b9719e0b8ce7e3997a0df7ed011da8834ad15916c467ab15916fec382c4a6679cfb97ab7756f50e4b7ec9b441373f9339253ff47ed5bb02923d15347bd2ea94bfe5032a6f7428203f0272ed4c42ccf08e5e5a03aca5873ffdb399d9d9aaccea8a07a06f0dbe65db96102d270d2366a3e08bf642ba2e832d721aa74c44e8ef4a124ff3a4017526d3eba6020710&projectId=b88bad85-b88d-4a23-aa6f-4d4a0469310c\n'
p708
aS'dv2/14/43226554-fe78-4274-b425-0e40831a7910.woff2?d44f19a684109620e4841571ae90e818e416d16650146eec36040b3150240d73392ca41abbbad40b03a081ad4af391f37b9719e0b8ce7e3997a0df7ed011da8834ad15916c467ab15916fec382c4a6679cfb97ab7756f50e4b7ec9b441373f9339253ff47ed5bb02923d15347bd2ea94bfe5032a6f7428203f0272ed4c42ccf08e5e5a03aca5873ffdb399d9d9aaccea8a07a06f0dbe65db96102d270d2366a3e08bf642ba2e832d721aa74c44e8ef4a124ff3a4017526d3eba6020710&projectId=b88bad85-b88d-4a23-aa6f-4d4a0469310c\n'
p709
aS'16/32344/21830.png\n'
p710
aS'success.txt\n'
p711
aS'homepage/css/homepage.css\n'
p712
aS'homepage/js/jquery.js\n'
p713
aS'homepage/js/exploreBar.js\n'
p714
aS'homepage/js/jquery.element.cycle.1.0.js\n'
p715
aS'favicon.ico\n'
p716
aS'pages/scripts/0002/9525.js?423105\n'
p717
aS'corporate-information/rankings-and-reputation/\n'
p718
aS'origins/css/bath/site/site.css\n'
p719
aS'common/foundation/js/foundation/foundation.equalizer.js\n'
p720
aS'origins/universal/images/favicon/android/android-chrome-192x192.png\n'
p721
aS'origins/universal/images/favicon/favicon.ico\n'
p722
aS'gtm.js?id=GTM-NN6ZCP\n'
p723
aS'origins/universal/images/icons/search-button.svg\n'
p724
aS'origins/universal/images/style/target.svg\n'
p725
aS'pages/scripts/0002/9525.js?423105\n'
p726
aS'homepage/features/feature646.html?_=1523181455346\n'
p727
aS'homepage/images/features/646.jpg\n'
p728
aS'index/\n'
p729
aS'news/2017/09/22/bath-named-sports-university-of-the-year/\n'
p730
aS'common/js/editpage.php\n'
p731
aS'system/modules/uk.ac.bath.template.common/resources/css/screen-common.css?colour=internal&internal=internal&columns=3&background=\n'
p732
aS'system/modules/uk.ac.bath.template.common/resources/css/print-common.css?colour=internal\n'
p733
aS'index/site-components/atoz.css\n'
p734
aS'common/js/jquery.js\n'
p735
aS'about/contact-us/\n'
p736
aS'common/js/editpage.php\n'
p737
aS'travel-advice/\n'
p738
aS'common/images/logos/favicon.ico\n'
p739
aS'corporate-information/modern-slavery-and-human-trafficking-statement/\n'
p740
aS'study/ug/accommodation/\n'
p741
aS't/1.css?apiType=css&projectid=b88bad85-b88d-4a23-aa6f-4d4a0469310c\n'
p742
aS'topics/studying-at-bath-as-an-international-student/\n'
p743
aS'lens/css/bath/site/site.css\n'
p744
aS'lens/universal/images/awards/times-sports-uni-2018.svg\n'
p745
aS'groups/student-accommodation/\n'
p746
aS'pages/scripts/0002/9525.js?423105\n'
p747
aS'pages/scripts/0002/9525.js?423105\n'
p748
aS'activityi;src=8369552;type=count0;cat=pgope0;ord=3763827381325;gtm=G45;~oref=http%3A%2F%2Fwww.bath.ac.uk%2Fcampaigns%2Fexperience-the-university-at-a-postgraduate-open-day-or-fair%2F?\n'
p749
aS'business/\n'
p750
aS'forms/order-the-2019-undergraduate-prospectus/\n'
p751
aS'professional-services/student-accommodation\n'
p752
aS'export/embed.html?bbox=-2.351374626159668%2C51.36612722653085%2C-2.298760414123535%2C51.39093159326464&layer=mapnik&marker=51.378531090053336%2C-2.3250675201416016\n'
p753
aS'about/\n'
p754
aS'common/css/global.css?colour=business&template=homepage&columns=2\n'
p755
aS'lens/universal/images/style/social-icons.svg\n'
p756
aS'professional-services/student-accommodation/\n'
p757
aS'assets/embed-4dbfd7a8634cab9ca4b7172c30c2fef965e94e7de09a5576f759bb7f41a7dd7b.css\n'
p758
aS'css?family=Raleway:400,200,800,600\n'
p759
aS'assets/embed-1bd655ce9833e9d90cbf3e24d21a54a38e55e0e1e7492d40f2fa7d71cc3803c6.js\n'
p760
aS'pages/scripts/0002/9525.js?423105\n'
p761
aS'lens/universal/images/awards/times-sports-uni-2018.svg\n'
p762
aS'lens/universal/images/awards/times-starting-salaries-2018.svg\n'
p763
aS'lens/universal/images/awards/tef-ranking.svg\n'
p764
aS'2/1480/24125472623_b9c69ea6c3_b.jpg\n'
p765
aS'export/embed.html?bbox=-2.3329585790634155%2C51.37987039911064%2C-2.326971888542175%2C51.38183911228109&layer=mapnik&marker=51.38085476628094%2C-2.3299652338027954\n'
p766
aS'homepage/images/features/641.jpg\n'
p767
aS'pages/scripts/0002/9525.js?423105\n'
p768
aS'topics/about-the-university/\n'
p769
aS'common/images/style/body_bg.gif\n'
p770
aS'13/4042/2729.png\n'
p771
aS'13/4043/2729.png\n'
p772
aS'13/4041/2728.png\n'
p773
aS'13/4044/2728.png\n'
p774
aS'13/4041/2727.png\n'
p775
aS'pages/scripts/0002/9525.js?423105\n'
p776
aS'17/64687/43658.png\n'
p777
aS'17/64688/43658.png\n'
p778
aS'17/64687/43657.png\n'
p779
aS'17/64688/43657.png\n'
p780
aS'pages/scripts/0002/9525.js?423105\n'
p781
aS'pages/scripts/0002/9525.js?423105\n'
p782
aS'homepage/features/feature645.html?_=1523181477744\n'
p783
aS'homepage/images/features/645.jpg\n'
p784
aS'locations/sports-training-village-stv/\n'
p785
aS't/1.css?apiType=css&projectid=b88bad85-b88d-4a23-aa6f-4d4a0469310c\n'
p786
aS'export/embed.html?bbox=-2.3285865783691406%2C51.376167113942884%2C-2.320733070373535%2C51.37893623517739&layer=mapnik&marker=51.37755002130279%2C-2.324659824371338\n'
p787
aS'dv2/14/427cc195-6baf-4da5-af7b-90a61db74664.woff2?d44f19a684109620e4841571ae90e818e416d16650146eec36040b3150240d73392ca41abbbad40b03a081ad4af391f37b9719e0b8ce7e3997a0df7ed011da8834ad15916c467ab15916fec382c4a6679cfb97ab7756f50e4b7ec9b441373f9339253ff47ed5bb02923d15347bd2ea94bfe5032a6f7428203f0272ed4c42ccf08e5e5a03aca5873ffdb399d9d9aaccea8a07a06f0dbe65db96102d270d2366a3e08bf642ba2e832d721aa74c44e8ef4a124ff3a4017526d3eba6020710&projectId=b88bad85-b88d-4a23-aa6f-4d4a0469310c\n'
p788
aS'dv2/14/43226554-fe78-4274-b425-0e40831a7910.woff2?d44f19a684109620e4841571ae90e818e416d16650146eec36040b3150240d73392ca41abbbad40b03a081ad4af391f37b9719e0b8ce7e3997a0df7ed011da8834ad15916c467ab15916fec382c4a6679cfb97ab7756f50e4b7ec9b441373f9339253ff47ed5bb02923d15347bd2ea94bfe5032a6f7428203f0272ed4c42ccf08e5e5a03aca5873ffdb399d9d9aaccea8a07a06f0dbe65db96102d270d2366a3e08bf642ba2e832d721aa74c44e8ef4a124ff3a4017526d3eba6020710&projectId=b88bad85-b88d-4a23-aa6f-4d4a0469310c\n'
p789
aS'16/32344/21830.png\n'
p790
aS'success.txt\n'
p791
aS'student-records/academic-admin-calendar/aac.html\n'
p792
aS'student-records/assets/css/screen-default.css\n'
p793
aS'student-records/assets/css/print-default.css\n'
p794
aS'assets/js/js.php?s=menuexpander|listexpander|textresize\n'
p795
aS'success.txt\n'
p796
aS'homepage/css/homepage.css\n'
p797
aS'homepage/js/jquery.js\n'
p798
aS'homepage/js/exploreBar.js\n'
p799
aS'homepage/js/jquery.element.cycle.1.0.js\n'
p800
aS'favicon.ico\n'
p801
aS'pages/scripts/0002/9525.js?423105\n'
p802
aS'corporate-information/rankings-and-reputation/\n'
p803
aS'origins/css/bath/site/site.css\n'
p804
aS'common/foundation/js/foundation/foundation.equalizer.js\n'
p805
aS'origins/universal/images/favicon/android/android-chrome-192x192.png\n'
p806
aS'origins/universal/images/favicon/favicon.ico\n'
p807
aS'gtm.js?id=GTM-NN6ZCP\n'
p808
aS'origins/universal/images/icons/search-button.svg\n'
p809
aS'origins/universal/images/style/target.svg\n'
p810
aS'pages/scripts/0002/9525.js?423105\n'
p811
aS'homepage/features/feature646.html?_=1523181455346\n'
p812
aS'homepage/images/features/646.jpg\n'
p813
aS'index/\n'
p814
aS'news/2017/09/22/bath-named-sports-university-of-the-year/\n'
p815
aS'common/js/editpage.php\n'
p816
aS'system/modules/uk.ac.bath.template.common/resources/css/screen-common.css?colour=internal&internal=internal&columns=3&background=\n'
p817
aS'system/modules/uk.ac.bath.template.common/resources/css/print-common.css?colour=internal\n'
p818
aS'index/site-components/atoz.css\n'
p819
aS'common/js/jquery.js\n'
p820
aS'about/contact-us/\n'
p821
aS'common/js/editpage.php\n'
p822
aS'travel-advice/\n'
p823
aS'common/images/logos/favicon.ico\n'
p824
aS'corporate-information/modern-slavery-and-human-trafficking-statement/\n'
p825
aS'study/ug/accommodation/\n'
p826
aS't/1.css?apiType=css&projectid=b88bad85-b88d-4a23-aa6f-4d4a0469310c\n'
p827
aS'topics/studying-at-bath-as-an-international-student/\n'
p828
aS'lens/css/bath/site/site.css\n'
p829
aS'lens/universal/images/awards/times-sports-uni-2018.svg\n'
p830
aS'groups/student-accommodation/\n'
p831
aS'pages/scripts/0002/9525.js?423105\n'
p832
aS'pages/scripts/0002/9525.js?423105\n'
p833
aS'activityi;src=8369552;type=count0;cat=pgope0;ord=3763827381325;gtm=G45;~oref=http%3A%2F%2Fwww.bath.ac.uk%2Fcampaigns%2Fexperience-the-university-at-a-postgraduate-open-day-or-fair%2F?\n'
p834
aS'business/\n'
p835
aS'forms/order-the-2019-undergraduate-prospectus/\n'
p836
aS'professional-services/student-accommodation\n'
p837
aS'export/embed.html?bbox=-2.351374626159668%2C51.36612722653085%2C-2.298760414123535%2C51.39093159326464&layer=mapnik&marker=51.378531090053336%2C-2.3250675201416016\n'
p838
aS'about/\n'
p839
aS'common/css/global.css?colour=business&template=homepage&columns=2\n'
p840
aS'lens/universal/images/style/social-icons.svg\n'
p841
aS'professional-services/student-accommodation/\n'
p842
aS'assets/embed-4dbfd7a8634cab9ca4b7172c30c2fef965e94e7de09a5576f759bb7f41a7dd7b.css\n'
p843
aS'css?family=Raleway:400,200,800,600\n'
p844
aS'assets/embed-1bd655ce9833e9d90cbf3e24d21a54a38e55e0e1e7492d40f2fa7d71cc3803c6.js\n'
p845
aS'pages/scripts/0002/9525.js?423105\n'
p846
aS'lens/universal/images/awards/times-sports-uni-2018.svg\n'
p847
aS'lens/universal/images/awards/times-starting-salaries-2018.svg\n'
p848
aS'lens/universal/images/awards/tef-ranking.svg\n'
p849
aS'2/1480/24125472623_b9c69ea6c3_b.jpg\n'
p850
aS'export/embed.html?bbox=-2.3329585790634155%2C51.37987039911064%2C-2.326971888542175%2C51.38183911228109&layer=mapnik&marker=51.38085476628094%2C-2.3299652338027954\n'
p851
aS'homepage/images/features/641.jpg\n'
p852
aS'pages/scripts/0002/9525.js?423105\n'
p853
aS'topics/about-the-university/\n'
p854
aS'common/images/style/body_bg.gif\n'
p855
aS'13/4042/2729.png\n'
p856
aS'13/4043/2729.png\n'
p857
aS'13/4041/2728.png\n'
p858
aS'13/4044/2728.png\n'
p859
aS'13/4041/2727.png\n'
p860
aS'pages/scripts/0002/9525.js?423105\n'
p861
aS'17/64687/43658.png\n'
p862
aS'17/64688/43658.png\n'
p863
aS'17/64687/43657.png\n'
p864
aS'17/64688/43657.png\n'
p865
aS'pages/scripts/0002/9525.js?423105\n'
p866
aS'pages/scripts/0002/9525.js?423105\n'
p867
aS'homepage/features/feature645.html?_=1523181477744\n'
p868
aS'homepage/images/features/645.jpg\n'
p869
aS'locations/sports-training-village-stv/\n'
p870
aS't/1.css?apiType=css&projectid=b88bad85-b88d-4a23-aa6f-4d4a0469310c\n'
p871
aS'export/embed.html?bbox=-2.3285865783691406%2C51.376167113942884%2C-2.320733070373535%2C51.37893623517739&layer=mapnik&marker=51.37755002130279%2C-2.324659824371338\n'
p872
aS'dv2/14/427cc195-6baf-4da5-af7b-90a61db74664.woff2?d44f19a684109620e4841571ae90e818e416d16650146eec36040b3150240d73392ca41abbbad40b03a081ad4af391f37b9719e0b8ce7e3997a0df7ed011da8834ad15916c467ab15916fec382c4a6679cfb97ab7756f50e4b7ec9b441373f9339253ff47ed5bb02923d15347bd2ea94bfe5032a6f7428203f0272ed4c42ccf08e5e5a03aca5873ffdb399d9d9aaccea8a07a06f0dbe65db96102d270d2366a3e08bf642ba2e832d721aa74c44e8ef4a124ff3a4017526d3eba6020710&projectId=b88bad85-b88d-4a23-aa6f-4d4a0469310c\n'
p873
aS'dv2/14/43226554-fe78-4274-b425-0e40831a7910.woff2?d44f19a684109620e4841571ae90e818e416d16650146eec36040b3150240d73392ca41abbbad40b03a081ad4af391f37b9719e0b8ce7e3997a0df7ed011da8834ad15916c467ab15916fec382c4a6679cfb97ab7756f50e4b7ec9b441373f9339253ff47ed5bb02923d15347bd2ea94bfe5032a6f7428203f0272ed4c42ccf08e5e5a03aca5873ffdb399d9d9aaccea8a07a06f0dbe65db96102d270d2366a3e08bf642ba2e832d721aa74c44e8ef4a124ff3a4017526d3eba6020710&projectId=b88bad85-b88d-4a23-aa6f-4d4a0469310c\n'
p874
aS'16/32344/21830.png\n'
p875
aS'success.txt\n'
p876
aS'student-records/academic-admin-calendar/aac.html\n'
p877
aS'student-records/assets/css/screen-default.css\n'
p878
aS'student-records/assets/css/print-default.css\n'
p879
aS'assets/js/js.php?s=menuexpander|listexpander|textresize\n'
p880
aS'common/images/graphics/icons/pdf.gif\n'
p881
aS'homepage/features/feature646.html?_=1523181498614\n'
p882
aS'campaigns/?f.Department+or+group%7CX=University+of+Bath\n'
p883
aS'pages/scripts/0002/9525.js?423105\n'
p884
aS'guides/travelling-by-bus-to-the-university-of-bath\n'
p885
aS'success.txt\n'
p886
aS'homepage/css/homepage.css\n'
p887
aS'homepage/js/jquery.js\n'
p888
aS'homepage/js/exploreBar.js\n'
p889
aS'homepage/js/jquery.element.cycle.1.0.js\n'
p890
aS'favicon.ico\n'
p891
aS'pages/scripts/0002/9525.js?423105\n'
p892
aS'corporate-information/rankings-and-reputation/\n'
p893
aS'origins/css/bath/site/site.css\n'
p894
aS'common/foundation/js/foundation/foundation.equalizer.js\n'
p895
aS'origins/universal/images/favicon/android/android-chrome-192x192.png\n'
p896
aS'origins/universal/images/favicon/favicon.ico\n'
p897
aS'gtm.js?id=GTM-NN6ZCP\n'
p898
aS'origins/universal/images/icons/search-button.svg\n'
p899
aS'origins/universal/images/style/target.svg\n'
p900
aS'pages/scripts/0002/9525.js?423105\n'
p901
aS'homepage/features/feature646.html?_=1523181455346\n'
p902
aS'homepage/images/features/646.jpg\n'
p903
aS'index/\n'
p904
aS'news/2017/09/22/bath-named-sports-university-of-the-year/\n'
p905
aS'common/js/editpage.php\n'
p906
aS'system/modules/uk.ac.bath.template.common/resources/css/screen-common.css?colour=internal&internal=internal&columns=3&background=\n'
p907
aS'system/modules/uk.ac.bath.template.common/resources/css/print-common.css?colour=internal\n'
p908
aS'index/site-components/atoz.css\n'
p909
aS'common/js/jquery.js\n'
p910
aS'about/contact-us/\n'
p911
aS'common/js/editpage.php\n'
p912
aS'travel-advice/\n'
p913
aS'common/images/logos/favicon.ico\n'
p914
aS'corporate-information/modern-slavery-and-human-trafficking-statement/\n'
p915
aS'study/ug/accommodation/\n'
p916
aS't/1.css?apiType=css&projectid=b88bad85-b88d-4a23-aa6f-4d4a0469310c\n'
p917
aS'topics/studying-at-bath-as-an-international-student/\n'
p918
aS'lens/css/bath/site/site.css\n'
p919
aS'lens/universal/images/awards/times-sports-uni-2018.svg\n'
p920
aS'groups/student-accommodation/\n'
p921
aS'pages/scripts/0002/9525.js?423105\n'
p922
aS'pages/scripts/0002/9525.js?423105\n'
p923
aS'activityi;src=8369552;type=count0;cat=pgope0;ord=3763827381325;gtm=G45;~oref=http%3A%2F%2Fwww.bath.ac.uk%2Fcampaigns%2Fexperience-the-university-at-a-postgraduate-open-day-or-fair%2F?\n'
p924
aS'business/\n'
p925
aS'forms/order-the-2019-undergraduate-prospectus/\n'
p926
aS'professional-services/student-accommodation\n'
p927
aS'export/embed.html?bbox=-2.351374626159668%2C51.36612722653085%2C-2.298760414123535%2C51.39093159326464&layer=mapnik&marker=51.378531090053336%2C-2.3250675201416016\n'
p928
aS'about/\n'
p929
aS'common/css/global.css?colour=business&template=homepage&columns=2\n'
p930
aS'lens/universal/images/style/social-icons.svg\n'
p931
aS'professional-services/student-accommodation/\n'
p932
aS'assets/embed-4dbfd7a8634cab9ca4b7172c30c2fef965e94e7de09a5576f759bb7f41a7dd7b.css\n'
p933
aS'css?family=Raleway:400,200,800,600\n'
p934
aS'assets/embed-1bd655ce9833e9d90cbf3e24d21a54a38e55e0e1e7492d40f2fa7d71cc3803c6.js\n'
p935
aS'pages/scripts/0002/9525.js?423105\n'
p936
aS'lens/universal/images/awards/times-sports-uni-2018.svg\n'
p937
aS'lens/universal/images/awards/times-starting-salaries-2018.svg\n'
p938
aS'lens/universal/images/awards/tef-ranking.svg\n'
p939
aS'2/1480/24125472623_b9c69ea6c3_b.jpg\n'
p940
aS'export/embed.html?bbox=-2.3329585790634155%2C51.37987039911064%2C-2.326971888542175%2C51.38183911228109&layer=mapnik&marker=51.38085476628094%2C-2.3299652338027954\n'
p941
aS'homepage/images/features/641.jpg\n'
p942
aS'pages/scripts/0002/9525.js?423105\n'
p943
aS'topics/about-the-university/\n'
p944
aS'common/images/style/body_bg.gif\n'
p945
aS'13/4042/2729.png\n'
p946
aS'13/4043/2729.png\n'
p947
aS'13/4041/2728.png\n'
p948
aS'13/4044/2728.png\n'
p949
aS'13/4041/2727.png\n'
p950
aS'pages/scripts/0002/9525.js?423105\n'
p951
aS'17/64687/43658.png\n'
p952
aS'17/64688/43658.png\n'
p953
aS'17/64687/43657.png\n'
p954
aS'17/64688/43657.png\n'
p955
aS'pages/scripts/0002/9525.js?423105\n'
p956
aS'pages/scripts/0002/9525.js?423105\n'
p957
aS'homepage/features/feature645.html?_=1523181477744\n'
p958
aS'homepage/images/features/645.jpg\n'
p959
aS'locations/sports-training-village-stv/\n'
p960
aS't/1.css?apiType=css&projectid=b88bad85-b88d-4a23-aa6f-4d4a0469310c\n'
p961
aS'export/embed.html?bbox=-2.3285865783691406%2C51.376167113942884%2C-2.320733070373535%2C51.37893623517739&layer=mapnik&marker=51.37755002130279%2C-2.324659824371338\n'
p962
aS'dv2/14/427cc195-6baf-4da5-af7b-90a61db74664.woff2?d44f19a684109620e4841571ae90e818e416d16650146eec36040b3150240d73392ca41abbbad40b03a081ad4af391f37b9719e0b8ce7e3997a0df7ed011da8834ad15916c467ab15916fec382c4a6679cfb97ab7756f50e4b7ec9b441373f9339253ff47ed5bb02923d15347bd2ea94bfe5032a6f7428203f0272ed4c42ccf08e5e5a03aca5873ffdb399d9d9aaccea8a07a06f0dbe65db96102d270d2366a3e08bf642ba2e832d721aa74c44e8ef4a124ff3a4017526d3eba6020710&projectId=b88bad85-b88d-4a23-aa6f-4d4a0469310c\n'
p963
aS'dv2/14/43226554-fe78-4274-b425-0e40831a7910.woff2?d44f19a684109620e4841571ae90e818e416d16650146eec36040b3150240d73392ca41abbbad40b03a081ad4af391f37b9719e0b8ce7e3997a0df7ed011da8834ad15916c467ab15916fec382c4a6679cfb97ab7756f50e4b7ec9b441373f9339253ff47ed5bb02923d15347bd2ea94bfe5032a6f7428203f0272ed4c42ccf08e5e5a03aca5873ffdb399d9d9aaccea8a07a06f0dbe65db96102d270d2366a3e08bf642ba2e832d721aa74c44e8ef4a124ff3a4017526d3eba6020710&projectId=b88bad85-b88d-4a23-aa6f-4d4a0469310c\n'
p964
aS'16/32344/21830.png\n'
p965
aS'success.txt\n'
p966
aS'student-records/academic-admin-calendar/aac.html\n'
p967
aS'student-records/assets/css/screen-default.css\n'
p968
aS'student-records/assets/css/print-default.css\n'
p969
aS'assets/js/js.php?s=menuexpander|listexpander|textresize\n'
p970
aS'common/images/graphics/icons/pdf.gif\n'
p971
aS'homepage/features/feature646.html?_=1523181498614\n'
p972
aS'campaigns/?f.Department+or+group%7CX=University+of+Bath\n'
p973
aS'pages/scripts/0002/9525.js?423105\n'
p974
aS'guides/travelling-by-bus-to-the-university-of-bath\n'
p975
aS'guides/cycling-and-walking-to-the-university-of-bath\n'
p976
aS'origins/universal/images/style/target.svg\n'
p977
aS'origins/universal/images/style/cta-arrow.svg\n'
p978
aS'homepage/features/feature641.html?_=1523181508800\n'
p979
aS'travel-updates/\n'
p980
a.