(lp0
S'success.txt\n'
p1
aS'homepage/css/homepage.css\n'
p2
aS'homepage/js/jquery.js\n'
p3
aS'homepage/js/exploreBar.js\n'
p4
aS'homepage/js/cyclefeatures.js\n'
p5
aS'success.txt\n'
p6
aS'homepage/css/homepage.css\n'
p7
aS'homepage/js/jquery.js\n'
p8
aS'homepage/js/exploreBar.js\n'
p9
aS'homepage/js/cyclefeatures.js\n'
p10
aS'homepage/images/style/search_go.png\n'
p11
aS'common/images/style/findPeople_go.png\n'
p12
aS'homepage/images/style/nav_global_bg.png\n'
p13
aS'homepage/images/style/nav_global_links_bg.png\n'
p14
aS'homepage/images/style/search_bg.png\n'
p15
aS'success.txt\n'
p16
aS'homepage/css/homepage.css\n'
p17
aS'homepage/js/jquery.js\n'
p18
aS'homepage/js/exploreBar.js\n'
p19
aS'homepage/js/cyclefeatures.js\n'
p20
aS'homepage/images/style/search_go.png\n'
p21
aS'common/images/style/findPeople_go.png\n'
p22
aS'homepage/images/style/nav_global_bg.png\n'
p23
aS'homepage/images/style/nav_global_links_bg.png\n'
p24
aS'homepage/images/style/search_bg.png\n'
p25
aS'favicon.ico\n'
p26
aS'homepage/features/feature646.html?_=1523296530696\n'
p27
aS'homepage/images/features/646.jpg\n'
p28
aS'homepage/features/feature641.html?_=1523296540802\n'
p29
aS'homepage/images/features/641.jpg\n'
p30
aS'success.txt\n'
p31
aS'homepage/css/homepage.css\n'
p32
aS'homepage/js/jquery.js\n'
p33
aS'homepage/js/exploreBar.js\n'
p34
aS'homepage/js/cyclefeatures.js\n'
p35
aS'homepage/images/style/search_go.png\n'
p36
aS'common/images/style/findPeople_go.png\n'
p37
aS'homepage/images/style/nav_global_bg.png\n'
p38
aS'homepage/images/style/nav_global_links_bg.png\n'
p39
aS'homepage/images/style/search_bg.png\n'
p40
aS'favicon.ico\n'
p41
aS'homepage/features/feature646.html?_=1523296530696\n'
p42
aS'homepage/images/features/646.jpg\n'
p43
aS'homepage/features/feature641.html?_=1523296540802\n'
p44
aS'homepage/images/features/641.jpg\n'
p45
aS'homepage/features/feature645.html?_=1523296550902\n'
p46
aS'homepage/images/features/645.jpg\n'
p47
aS'success.txt\n'
p48
aS'corporate-information/rankings-and-reputation/\n'
p49
aS'origins/css/bath/site/site.css\n'
p50
aS'success.txt\n'
p51
aS'homepage/css/homepage.css\n'
p52
aS'homepage/js/jquery.js\n'
p53
aS'homepage/js/exploreBar.js\n'
p54
aS'homepage/js/cyclefeatures.js\n'
p55
aS'homepage/images/style/search_go.png\n'
p56
aS'common/images/style/findPeople_go.png\n'
p57
aS'homepage/images/style/nav_global_bg.png\n'
p58
aS'homepage/images/style/nav_global_links_bg.png\n'
p59
aS'homepage/images/style/search_bg.png\n'
p60
aS'favicon.ico\n'
p61
aS'homepage/features/feature646.html?_=1523296530696\n'
p62
aS'homepage/images/features/646.jpg\n'
p63
aS'homepage/features/feature641.html?_=1523296540802\n'
p64
aS'homepage/images/features/641.jpg\n'
p65
aS'homepage/features/feature645.html?_=1523296550902\n'
p66
aS'homepage/images/features/645.jpg\n'
p67
aS'success.txt\n'
p68
aS'corporate-information/rankings-and-reputation/\n'
p69
aS'origins/css/bath/site/site.css\n'
p70
aS'origins/universal/images/icons/search-button.svg\n'
p71
aS'origins/universal/images/style/target.svg\n'
p72
aS'origins/universal/images/style/cta-arrow.svg\n'
p73
aS'dv2/14/3ec41f2e-3697-491f-8866-a3fdaa6e1a05.woff2?d44f19a684109620e4841571ae90e818e416d16650146eec36040b3150240d73392ca41abbbad40b03a081ad4af391f37b9719e0b8ce7e3997a0df7ed011da8834ad15916c467ab15916fec382c4a6679cfb97ab7756f50e4b7ec9b441373f9339253ff47ed5bb02923d15347bd2ea94bfe5032a6f7428203f0272ed4c42ccf08e5e5a03aca5873ffdb399d9d9aaccea8a07a06f0dbe65db96102d270d2366a3e08bf642ba2e832d721aa74c44e8ef4a124ff3a4017526d3eba6020710&projectId=b88bad85-b88d-4a23-aa6f-4d4a0469310c\n'
p74
aS'dv2/14/53996aa5-5053-49df-811e-5ff010046f90.woff2?d44f19a684109620e4841571ae90e818e416d16650146eec36040b3150240d73392ca41abbbad40b03a081ad4af391f37b9719e0b8ce7e3997a0df7ed011da8834ad15916c467ab15916fec382c4a6679cfb97ab7756f50e4b7ec9b441373f9339253ff47ed5bb02923d15347bd2ea94bfe5032a6f7428203f0272ed4c42ccf08e5e5a03aca5873ffdb399d9d9aaccea8a07a06f0dbe65db96102d270d2366a3e08bf642ba2e832d721aa74c44e8ef4a124ff3a4017526d3eba6020710&projectId=b88bad85-b88d-4a23-aa6f-4d4a0469310c\n'
p75
aS'success.txt\n'
p76
aS'homepage/css/homepage.css\n'
p77
aS'homepage/js/jquery.js\n'
p78
aS'homepage/js/exploreBar.js\n'
p79
aS'homepage/js/cyclefeatures.js\n'
p80
aS'homepage/images/style/search_go.png\n'
p81
aS'common/images/style/findPeople_go.png\n'
p82
aS'homepage/images/style/nav_global_bg.png\n'
p83
aS'homepage/images/style/nav_global_links_bg.png\n'
p84
aS'homepage/images/style/search_bg.png\n'
p85
aS'favicon.ico\n'
p86
aS'homepage/features/feature646.html?_=1523296530696\n'
p87
aS'homepage/images/features/646.jpg\n'
p88
aS'homepage/features/feature641.html?_=1523296540802\n'
p89
aS'homepage/images/features/641.jpg\n'
p90
aS'homepage/features/feature645.html?_=1523296550902\n'
p91
aS'homepage/images/features/645.jpg\n'
p92
aS'success.txt\n'
p93
aS'corporate-information/rankings-and-reputation/\n'
p94
aS'origins/css/bath/site/site.css\n'
p95
aS'origins/universal/images/icons/search-button.svg\n'
p96
aS'origins/universal/images/style/target.svg\n'
p97
aS'origins/universal/images/style/cta-arrow.svg\n'
p98
aS'dv2/14/3ec41f2e-3697-491f-8866-a3fdaa6e1a05.woff2?d44f19a684109620e4841571ae90e818e416d16650146eec36040b3150240d73392ca41abbbad40b03a081ad4af391f37b9719e0b8ce7e3997a0df7ed011da8834ad15916c467ab15916fec382c4a6679cfb97ab7756f50e4b7ec9b441373f9339253ff47ed5bb02923d15347bd2ea94bfe5032a6f7428203f0272ed4c42ccf08e5e5a03aca5873ffdb399d9d9aaccea8a07a06f0dbe65db96102d270d2366a3e08bf642ba2e832d721aa74c44e8ef4a124ff3a4017526d3eba6020710&projectId=b88bad85-b88d-4a23-aa6f-4d4a0469310c\n'
p99
aS'dv2/14/53996aa5-5053-49df-811e-5ff010046f90.woff2?d44f19a684109620e4841571ae90e818e416d16650146eec36040b3150240d73392ca41abbbad40b03a081ad4af391f37b9719e0b8ce7e3997a0df7ed011da8834ad15916c467ab15916fec382c4a6679cfb97ab7756f50e4b7ec9b441373f9339253ff47ed5bb02923d15347bd2ea94bfe5032a6f7428203f0272ed4c42ccf08e5e5a03aca5873ffdb399d9d9aaccea8a07a06f0dbe65db96102d270d2366a3e08bf642ba2e832d721aa74c44e8ef4a124ff3a4017526d3eba6020710&projectId=b88bad85-b88d-4a23-aa6f-4d4a0469310c\n'
p100
aS'gtm.js?id=GTM-NN6ZCP\n'
p101
aS'homepage/features/feature646.html?_=1523296579306\n'
p102
aS'origins/universal/images/favicon/favicon.ico\n'
p103
aS'pages/scripts/0002/9525.js?423137\n'
p104
aS't/1.css?apiType=css&projectid=b88bad85-b88d-4a23-aa6f-4d4a0469310c\n'
p105
aS'success.txt\n'
p106
aS'homepage/css/homepage.css\n'
p107
aS'homepage/js/jquery.js\n'
p108
aS'homepage/js/exploreBar.js\n'
p109
aS'homepage/js/cyclefeatures.js\n'
p110
aS'homepage/images/style/search_go.png\n'
p111
aS'common/images/style/findPeople_go.png\n'
p112
aS'homepage/images/style/nav_global_bg.png\n'
p113
aS'homepage/images/style/nav_global_links_bg.png\n'
p114
aS'homepage/images/style/search_bg.png\n'
p115
aS'favicon.ico\n'
p116
aS'homepage/features/feature646.html?_=1523296530696\n'
p117
aS'homepage/images/features/646.jpg\n'
p118
aS'homepage/features/feature641.html?_=1523296540802\n'
p119
aS'homepage/images/features/641.jpg\n'
p120
aS'homepage/features/feature645.html?_=1523296550902\n'
p121
aS'homepage/images/features/645.jpg\n'
p122
aS'success.txt\n'
p123
aS'corporate-information/rankings-and-reputation/\n'
p124
aS'origins/css/bath/site/site.css\n'
p125
aS'origins/universal/images/icons/search-button.svg\n'
p126
aS'origins/universal/images/style/target.svg\n'
p127
aS'origins/universal/images/style/cta-arrow.svg\n'
p128
aS'dv2/14/3ec41f2e-3697-491f-8866-a3fdaa6e1a05.woff2?d44f19a684109620e4841571ae90e818e416d16650146eec36040b3150240d73392ca41abbbad40b03a081ad4af391f37b9719e0b8ce7e3997a0df7ed011da8834ad15916c467ab15916fec382c4a6679cfb97ab7756f50e4b7ec9b441373f9339253ff47ed5bb02923d15347bd2ea94bfe5032a6f7428203f0272ed4c42ccf08e5e5a03aca5873ffdb399d9d9aaccea8a07a06f0dbe65db96102d270d2366a3e08bf642ba2e832d721aa74c44e8ef4a124ff3a4017526d3eba6020710&projectId=b88bad85-b88d-4a23-aa6f-4d4a0469310c\n'
p129
aS'dv2/14/53996aa5-5053-49df-811e-5ff010046f90.woff2?d44f19a684109620e4841571ae90e818e416d16650146eec36040b3150240d73392ca41abbbad40b03a081ad4af391f37b9719e0b8ce7e3997a0df7ed011da8834ad15916c467ab15916fec382c4a6679cfb97ab7756f50e4b7ec9b441373f9339253ff47ed5bb02923d15347bd2ea94bfe5032a6f7428203f0272ed4c42ccf08e5e5a03aca5873ffdb399d9d9aaccea8a07a06f0dbe65db96102d270d2366a3e08bf642ba2e832d721aa74c44e8ef4a124ff3a4017526d3eba6020710&projectId=b88bad85-b88d-4a23-aa6f-4d4a0469310c\n'
p130
aS'gtm.js?id=GTM-NN6ZCP\n'
p131
aS'homepage/features/feature646.html?_=1523296579306\n'
p132
aS'origins/universal/images/favicon/favicon.ico\n'
p133
aS'pages/scripts/0002/9525.js?423137\n'
p134
aS't/1.css?apiType=css&projectid=b88bad85-b88d-4a23-aa6f-4d4a0469310c\n'
p135
aS'origins/universal/images/icons/search-button.svg\n'
p136
aS'origins/universal/images/style/target.svg\n'
p137
aS'origins/universal/images/style/cta-arrow.svg\n'
p138
aS'pages/scripts/0002/9525.js?423137\n'
p139
aS'guides/contacting-the-university/\n'
p140
aS'success.txt\n'
p141
aS'homepage/css/homepage.css\n'
p142
aS'homepage/js/jquery.js\n'
p143
aS'homepage/js/exploreBar.js\n'
p144
aS'homepage/js/cyclefeatures.js\n'
p145
aS'homepage/images/style/search_go.png\n'
p146
aS'common/images/style/findPeople_go.png\n'
p147
aS'homepage/images/style/nav_global_bg.png\n'
p148
aS'homepage/images/style/nav_global_links_bg.png\n'
p149
aS'homepage/images/style/search_bg.png\n'
p150
aS'favicon.ico\n'
p151
aS'homepage/features/feature646.html?_=1523296530696\n'
p152
aS'homepage/images/features/646.jpg\n'
p153
aS'homepage/features/feature641.html?_=1523296540802\n'
p154
aS'homepage/images/features/641.jpg\n'
p155
aS'homepage/features/feature645.html?_=1523296550902\n'
p156
aS'homepage/images/features/645.jpg\n'
p157
aS'success.txt\n'
p158
aS'corporate-information/rankings-and-reputation/\n'
p159
aS'origins/css/bath/site/site.css\n'
p160
aS'origins/universal/images/icons/search-button.svg\n'
p161
aS'origins/universal/images/style/target.svg\n'
p162
aS'origins/universal/images/style/cta-arrow.svg\n'
p163
aS'dv2/14/3ec41f2e-3697-491f-8866-a3fdaa6e1a05.woff2?d44f19a684109620e4841571ae90e818e416d16650146eec36040b3150240d73392ca41abbbad40b03a081ad4af391f37b9719e0b8ce7e3997a0df7ed011da8834ad15916c467ab15916fec382c4a6679cfb97ab7756f50e4b7ec9b441373f9339253ff47ed5bb02923d15347bd2ea94bfe5032a6f7428203f0272ed4c42ccf08e5e5a03aca5873ffdb399d9d9aaccea8a07a06f0dbe65db96102d270d2366a3e08bf642ba2e832d721aa74c44e8ef4a124ff3a4017526d3eba6020710&projectId=b88bad85-b88d-4a23-aa6f-4d4a0469310c\n'
p164
aS'dv2/14/53996aa5-5053-49df-811e-5ff010046f90.woff2?d44f19a684109620e4841571ae90e818e416d16650146eec36040b3150240d73392ca41abbbad40b03a081ad4af391f37b9719e0b8ce7e3997a0df7ed011da8834ad15916c467ab15916fec382c4a6679cfb97ab7756f50e4b7ec9b441373f9339253ff47ed5bb02923d15347bd2ea94bfe5032a6f7428203f0272ed4c42ccf08e5e5a03aca5873ffdb399d9d9aaccea8a07a06f0dbe65db96102d270d2366a3e08bf642ba2e832d721aa74c44e8ef4a124ff3a4017526d3eba6020710&projectId=b88bad85-b88d-4a23-aa6f-4d4a0469310c\n'
p165
aS'gtm.js?id=GTM-NN6ZCP\n'
p166
aS'homepage/features/feature646.html?_=1523296579306\n'
p167
aS'origins/universal/images/favicon/favicon.ico\n'
p168
aS'pages/scripts/0002/9525.js?423137\n'
p169
aS't/1.css?apiType=css&projectid=b88bad85-b88d-4a23-aa6f-4d4a0469310c\n'
p170
aS'origins/universal/images/icons/search-button.svg\n'
p171
aS'origins/universal/images/style/target.svg\n'
p172
aS'origins/universal/images/style/cta-arrow.svg\n'
p173
aS'pages/scripts/0002/9525.js?423137\n'
p174
aS'guides/contacting-the-university/\n'
p175
aS'topics/travel-advice/\n'
p176
aS'lens/css/bath/site/site.css\n'
p177
aS'lens/universal/images/awards/times-sports-uni-2018.svg\n'
p178
aS'lens/universal/images/awards/times-starting-salaries-2018.svg\n'
p179
aS't/1.css?apiType=css&projectid=b88bad85-b88d-4a23-aa6f-4d4a0469310c\n'
p180
aS'success.txt\n'
p181
aS'homepage/css/homepage.css\n'
p182
aS'homepage/js/jquery.js\n'
p183
aS'homepage/js/exploreBar.js\n'
p184
aS'homepage/js/cyclefeatures.js\n'
p185
aS'homepage/images/style/search_go.png\n'
p186
aS'common/images/style/findPeople_go.png\n'
p187
aS'homepage/images/style/nav_global_bg.png\n'
p188
aS'homepage/images/style/nav_global_links_bg.png\n'
p189
aS'homepage/images/style/search_bg.png\n'
p190
aS'favicon.ico\n'
p191
aS'homepage/features/feature646.html?_=1523296530696\n'
p192
aS'homepage/images/features/646.jpg\n'
p193
aS'homepage/features/feature641.html?_=1523296540802\n'
p194
aS'homepage/images/features/641.jpg\n'
p195
aS'homepage/features/feature645.html?_=1523296550902\n'
p196
aS'homepage/images/features/645.jpg\n'
p197
aS'success.txt\n'
p198
aS'corporate-information/rankings-and-reputation/\n'
p199
aS'origins/css/bath/site/site.css\n'
p200
aS'origins/universal/images/icons/search-button.svg\n'
p201
aS'origins/universal/images/style/target.svg\n'
p202
aS'origins/universal/images/style/cta-arrow.svg\n'
p203
aS'dv2/14/3ec41f2e-3697-491f-8866-a3fdaa6e1a05.woff2?d44f19a684109620e4841571ae90e818e416d16650146eec36040b3150240d73392ca41abbbad40b03a081ad4af391f37b9719e0b8ce7e3997a0df7ed011da8834ad15916c467ab15916fec382c4a6679cfb97ab7756f50e4b7ec9b441373f9339253ff47ed5bb02923d15347bd2ea94bfe5032a6f7428203f0272ed4c42ccf08e5e5a03aca5873ffdb399d9d9aaccea8a07a06f0dbe65db96102d270d2366a3e08bf642ba2e832d721aa74c44e8ef4a124ff3a4017526d3eba6020710&projectId=b88bad85-b88d-4a23-aa6f-4d4a0469310c\n'
p204
aS'dv2/14/53996aa5-5053-49df-811e-5ff010046f90.woff2?d44f19a684109620e4841571ae90e818e416d16650146eec36040b3150240d73392ca41abbbad40b03a081ad4af391f37b9719e0b8ce7e3997a0df7ed011da8834ad15916c467ab15916fec382c4a6679cfb97ab7756f50e4b7ec9b441373f9339253ff47ed5bb02923d15347bd2ea94bfe5032a6f7428203f0272ed4c42ccf08e5e5a03aca5873ffdb399d9d9aaccea8a07a06f0dbe65db96102d270d2366a3e08bf642ba2e832d721aa74c44e8ef4a124ff3a4017526d3eba6020710&projectId=b88bad85-b88d-4a23-aa6f-4d4a0469310c\n'
p205
aS'gtm.js?id=GTM-NN6ZCP\n'
p206
aS'homepage/features/feature646.html?_=1523296579306\n'
p207
aS'origins/universal/images/favicon/favicon.ico\n'
p208
aS'pages/scripts/0002/9525.js?423137\n'
p209
aS't/1.css?apiType=css&projectid=b88bad85-b88d-4a23-aa6f-4d4a0469310c\n'
p210
aS'origins/universal/images/icons/search-button.svg\n'
p211
aS'origins/universal/images/style/target.svg\n'
p212
aS'origins/universal/images/style/cta-arrow.svg\n'
p213
aS'pages/scripts/0002/9525.js?423137\n'
p214
aS'guides/contacting-the-university/\n'
p215
aS'topics/travel-advice/\n'
p216
aS'lens/css/bath/site/site.css\n'
p217
aS'lens/universal/images/awards/times-sports-uni-2018.svg\n'
p218
aS'lens/universal/images/awards/times-starting-salaries-2018.svg\n'
p219
aS't/1.css?apiType=css&projectid=b88bad85-b88d-4a23-aa6f-4d4a0469310c\n'
p220
aS'lens/universal/images/style/spyglass.svg\n'
p221
aS'lens/universal/images/logo/uob-logo-inverse.svg\n'
p222
aS'homepage/features/feature641.html?_=1523296592438\n'
p223
aS'pages/scripts/0002/9525.js?423137\n'
p224
aS'pages/scripts/0002/9525.js?423137\n'
p225
aS'success.txt\n'
p226
aS'homepage/css/homepage.css\n'
p227
aS'homepage/js/jquery.js\n'
p228
aS'homepage/js/exploreBar.js\n'
p229
aS'homepage/js/cyclefeatures.js\n'
p230
aS'homepage/images/style/search_go.png\n'
p231
aS'common/images/style/findPeople_go.png\n'
p232
aS'homepage/images/style/nav_global_bg.png\n'
p233
aS'homepage/images/style/nav_global_links_bg.png\n'
p234
aS'homepage/images/style/search_bg.png\n'
p235
aS'favicon.ico\n'
p236
aS'homepage/features/feature646.html?_=1523296530696\n'
p237
aS'homepage/images/features/646.jpg\n'
p238
aS'homepage/features/feature641.html?_=1523296540802\n'
p239
aS'homepage/images/features/641.jpg\n'
p240
aS'homepage/features/feature645.html?_=1523296550902\n'
p241
aS'homepage/images/features/645.jpg\n'
p242
aS'success.txt\n'
p243
aS'corporate-information/rankings-and-reputation/\n'
p244
aS'origins/css/bath/site/site.css\n'
p245
aS'origins/universal/images/icons/search-button.svg\n'
p246
aS'origins/universal/images/style/target.svg\n'
p247
aS'origins/universal/images/style/cta-arrow.svg\n'
p248
aS'dv2/14/3ec41f2e-3697-491f-8866-a3fdaa6e1a05.woff2?d44f19a684109620e4841571ae90e818e416d16650146eec36040b3150240d73392ca41abbbad40b03a081ad4af391f37b9719e0b8ce7e3997a0df7ed011da8834ad15916c467ab15916fec382c4a6679cfb97ab7756f50e4b7ec9b441373f9339253ff47ed5bb02923d15347bd2ea94bfe5032a6f7428203f0272ed4c42ccf08e5e5a03aca5873ffdb399d9d9aaccea8a07a06f0dbe65db96102d270d2366a3e08bf642ba2e832d721aa74c44e8ef4a124ff3a4017526d3eba6020710&projectId=b88bad85-b88d-4a23-aa6f-4d4a0469310c\n'
p249
aS'dv2/14/53996aa5-5053-49df-811e-5ff010046f90.woff2?d44f19a684109620e4841571ae90e818e416d16650146eec36040b3150240d73392ca41abbbad40b03a081ad4af391f37b9719e0b8ce7e3997a0df7ed011da8834ad15916c467ab15916fec382c4a6679cfb97ab7756f50e4b7ec9b441373f9339253ff47ed5bb02923d15347bd2ea94bfe5032a6f7428203f0272ed4c42ccf08e5e5a03aca5873ffdb399d9d9aaccea8a07a06f0dbe65db96102d270d2366a3e08bf642ba2e832d721aa74c44e8ef4a124ff3a4017526d3eba6020710&projectId=b88bad85-b88d-4a23-aa6f-4d4a0469310c\n'
p250
aS'gtm.js?id=GTM-NN6ZCP\n'
p251
aS'homepage/features/feature646.html?_=1523296579306\n'
p252
aS'origins/universal/images/favicon/favicon.ico\n'
p253
aS'pages/scripts/0002/9525.js?423137\n'
p254
aS't/1.css?apiType=css&projectid=b88bad85-b88d-4a23-aa6f-4d4a0469310c\n'
p255
aS'origins/universal/images/icons/search-button.svg\n'
p256
aS'origins/universal/images/style/target.svg\n'
p257
aS'origins/universal/images/style/cta-arrow.svg\n'
p258
aS'pages/scripts/0002/9525.js?423137\n'
p259
aS'guides/contacting-the-university/\n'
p260
aS'topics/travel-advice/\n'
p261
aS'lens/css/bath/site/site.css\n'
p262
aS'lens/universal/images/awards/times-sports-uni-2018.svg\n'
p263
aS'lens/universal/images/awards/times-starting-salaries-2018.svg\n'
p264
aS't/1.css?apiType=css&projectid=b88bad85-b88d-4a23-aa6f-4d4a0469310c\n'
p265
aS'lens/universal/images/style/spyglass.svg\n'
p266
aS'lens/universal/images/logo/uob-logo-inverse.svg\n'
p267
aS'homepage/features/feature641.html?_=1523296592438\n'
p268
aS'pages/scripts/0002/9525.js?423137\n'
p269
aS'pages/scripts/0002/9525.js?423137\n'
p270
aS'homepage/features/feature645.html?_=1523296602970\n'
p271
aS'homepage/features/feature646.html?_=1523296623290\n'
p272
aS'campaigns/experience-the-university-at-a-postgraduate-open-day-or-fair/\n'
p273
aS'system/modules/uk.ac.bath.template.common/resources/css/screen-common.css?colour=&internal=&columns=3&background=\n'
p274
aS'system/modules/uk.ac.bath.template.common/resources/css/print-common.css?colour=\n'
p275
aS'success.txt\n'
p276
aS'homepage/css/homepage.css\n'
p277
aS'homepage/js/jquery.js\n'
p278
aS'homepage/js/exploreBar.js\n'
p279
aS'homepage/js/cyclefeatures.js\n'
p280
aS'homepage/images/style/search_go.png\n'
p281
aS'common/images/style/findPeople_go.png\n'
p282
aS'homepage/images/style/nav_global_bg.png\n'
p283
aS'homepage/images/style/nav_global_links_bg.png\n'
p284
aS'homepage/images/style/search_bg.png\n'
p285
aS'favicon.ico\n'
p286
aS'homepage/features/feature646.html?_=1523296530696\n'
p287
aS'homepage/images/features/646.jpg\n'
p288
aS'homepage/features/feature641.html?_=1523296540802\n'
p289
aS'homepage/images/features/641.jpg\n'
p290
aS'homepage/features/feature645.html?_=1523296550902\n'
p291
aS'homepage/images/features/645.jpg\n'
p292
aS'success.txt\n'
p293
aS'corporate-information/rankings-and-reputation/\n'
p294
aS'origins/css/bath/site/site.css\n'
p295
aS'origins/universal/images/icons/search-button.svg\n'
p296
aS'origins/universal/images/style/target.svg\n'
p297
aS'origins/universal/images/style/cta-arrow.svg\n'
p298
aS'dv2/14/3ec41f2e-3697-491f-8866-a3fdaa6e1a05.woff2?d44f19a684109620e4841571ae90e818e416d16650146eec36040b3150240d73392ca41abbbad40b03a081ad4af391f37b9719e0b8ce7e3997a0df7ed011da8834ad15916c467ab15916fec382c4a6679cfb97ab7756f50e4b7ec9b441373f9339253ff47ed5bb02923d15347bd2ea94bfe5032a6f7428203f0272ed4c42ccf08e5e5a03aca5873ffdb399d9d9aaccea8a07a06f0dbe65db96102d270d2366a3e08bf642ba2e832d721aa74c44e8ef4a124ff3a4017526d3eba6020710&projectId=b88bad85-b88d-4a23-aa6f-4d4a0469310c\n'
p299
aS'dv2/14/53996aa5-5053-49df-811e-5ff010046f90.woff2?d44f19a684109620e4841571ae90e818e416d16650146eec36040b3150240d73392ca41abbbad40b03a081ad4af391f37b9719e0b8ce7e3997a0df7ed011da8834ad15916c467ab15916fec382c4a6679cfb97ab7756f50e4b7ec9b441373f9339253ff47ed5bb02923d15347bd2ea94bfe5032a6f7428203f0272ed4c42ccf08e5e5a03aca5873ffdb399d9d9aaccea8a07a06f0dbe65db96102d270d2366a3e08bf642ba2e832d721aa74c44e8ef4a124ff3a4017526d3eba6020710&projectId=b88bad85-b88d-4a23-aa6f-4d4a0469310c\n'
p300
aS'gtm.js?id=GTM-NN6ZCP\n'
p301
aS'homepage/features/feature646.html?_=1523296579306\n'
p302
aS'origins/universal/images/favicon/favicon.ico\n'
p303
aS'pages/scripts/0002/9525.js?423137\n'
p304
aS't/1.css?apiType=css&projectid=b88bad85-b88d-4a23-aa6f-4d4a0469310c\n'
p305
aS'origins/universal/images/icons/search-button.svg\n'
p306
aS'origins/universal/images/style/target.svg\n'
p307
aS'origins/universal/images/style/cta-arrow.svg\n'
p308
aS'pages/scripts/0002/9525.js?423137\n'
p309
aS'guides/contacting-the-university/\n'
p310
aS'topics/travel-advice/\n'
p311
aS'lens/css/bath/site/site.css\n'
p312
aS'lens/universal/images/awards/times-sports-uni-2018.svg\n'
p313
aS'lens/universal/images/awards/times-starting-salaries-2018.svg\n'
p314
aS't/1.css?apiType=css&projectid=b88bad85-b88d-4a23-aa6f-4d4a0469310c\n'
p315
aS'lens/universal/images/style/spyglass.svg\n'
p316
aS'lens/universal/images/logo/uob-logo-inverse.svg\n'
p317
aS'homepage/features/feature641.html?_=1523296592438\n'
p318
aS'pages/scripts/0002/9525.js?423137\n'
p319
aS'pages/scripts/0002/9525.js?423137\n'
p320
aS'homepage/features/feature645.html?_=1523296602970\n'
p321
aS'homepage/features/feature646.html?_=1523296623290\n'
p322
aS'campaigns/experience-the-university-at-a-postgraduate-open-day-or-fair/\n'
p323
aS'system/modules/uk.ac.bath.template.common/resources/css/screen-common.css?colour=&internal=&columns=3&background=\n'
p324
aS'system/modules/uk.ac.bath.template.common/resources/css/print-common.css?colour=\n'
p325
aS'topics/studying-at-bath-as-an-international-student/\n'
p326
aS'css?family=Raleway:400,200,800,600\n'
p327
aS'dv2/14/3ec41f2e-3697-491f-8866-a3fdaa6e1a05.woff2?d44f19a684109620e4841571ae90e818e416d16650146eec36040b3150240d73392ca41abbbad40b03a081ad4af391f37b9719e0b8ce7e3997a0df7ed011da8834ad15916c467ab15916fec382c4a6679cfb97ab7756f50e4b7ec9b441373f9339253ff47ed5bb02923d15347bd2ea94bfe5032a6f7428203f0272ed4c42ccf08e5e5a03aca5873ffdb399d9d9aaccea8a07a06f0dbe65db96102d270d2366a3e08bf642ba2e832d721aa74c44e8ef4a124ff3a4017526d3eba6020710&projectId=b88bad85-b88d-4a23-aa6f-4d4a0469310c\n'
p328
aS'origins/universal/images/style/target-section-cta.svg\n'
p329
aS'dv2/14/1357fa21-fb8c-49f8-b721-a7f05bca70bc.woff2?d44f19a684109620e4841571ae90e818e416d16650146eec36040b3150240d73392ca41abbbad40b03a081ad4af391f37b9719e0b8ce7e3997a0df7ed011da8834ad15916c467ab15916fec382c4a6679cfb97ab7756f50e4b7ec9b441373f9339253ff47ed5bb02923d15347bd2ea94bfe5032a6f7428203f0272ed4c42ccf08e5e5a03aca5873ffdb399d9d9aaccea8a07a06f0dbe65db96102d270d2366a3e08bf642ba2e832d721aa74c44e8ef4a124ff3a4017526d3eba6020710&projectId=b88bad85-b88d-4a23-aa6f-4d4a0469310c\n'
p330
aS'success.txt\n'
p331
aS'homepage/css/homepage.css\n'
p332
aS'homepage/js/jquery.js\n'
p333
aS'homepage/js/exploreBar.js\n'
p334
aS'homepage/js/cyclefeatures.js\n'
p335
aS'homepage/images/style/search_go.png\n'
p336
aS'common/images/style/findPeople_go.png\n'
p337
aS'homepage/images/style/nav_global_bg.png\n'
p338
aS'homepage/images/style/nav_global_links_bg.png\n'
p339
aS'homepage/images/style/search_bg.png\n'
p340
aS'favicon.ico\n'
p341
aS'homepage/features/feature646.html?_=1523296530696\n'
p342
aS'homepage/images/features/646.jpg\n'
p343
aS'homepage/features/feature641.html?_=1523296540802\n'
p344
aS'homepage/images/features/641.jpg\n'
p345
aS'homepage/features/feature645.html?_=1523296550902\n'
p346
aS'homepage/images/features/645.jpg\n'
p347
aS'success.txt\n'
p348
aS'corporate-information/rankings-and-reputation/\n'
p349
aS'origins/css/bath/site/site.css\n'
p350
aS'origins/universal/images/icons/search-button.svg\n'
p351
aS'origins/universal/images/style/target.svg\n'
p352
aS'origins/universal/images/style/cta-arrow.svg\n'
p353
aS'dv2/14/3ec41f2e-3697-491f-8866-a3fdaa6e1a05.woff2?d44f19a684109620e4841571ae90e818e416d16650146eec36040b3150240d73392ca41abbbad40b03a081ad4af391f37b9719e0b8ce7e3997a0df7ed011da8834ad15916c467ab15916fec382c4a6679cfb97ab7756f50e4b7ec9b441373f9339253ff47ed5bb02923d15347bd2ea94bfe5032a6f7428203f0272ed4c42ccf08e5e5a03aca5873ffdb399d9d9aaccea8a07a06f0dbe65db96102d270d2366a3e08bf642ba2e832d721aa74c44e8ef4a124ff3a4017526d3eba6020710&projectId=b88bad85-b88d-4a23-aa6f-4d4a0469310c\n'
p354
aS'dv2/14/53996aa5-5053-49df-811e-5ff010046f90.woff2?d44f19a684109620e4841571ae90e818e416d16650146eec36040b3150240d73392ca41abbbad40b03a081ad4af391f37b9719e0b8ce7e3997a0df7ed011da8834ad15916c467ab15916fec382c4a6679cfb97ab7756f50e4b7ec9b441373f9339253ff47ed5bb02923d15347bd2ea94bfe5032a6f7428203f0272ed4c42ccf08e5e5a03aca5873ffdb399d9d9aaccea8a07a06f0dbe65db96102d270d2366a3e08bf642ba2e832d721aa74c44e8ef4a124ff3a4017526d3eba6020710&projectId=b88bad85-b88d-4a23-aa6f-4d4a0469310c\n'
p355
aS'gtm.js?id=GTM-NN6ZCP\n'
p356
aS'homepage/features/feature646.html?_=1523296579306\n'
p357
aS'origins/universal/images/favicon/favicon.ico\n'
p358
aS'pages/scripts/0002/9525.js?423137\n'
p359
aS't/1.css?apiType=css&projectid=b88bad85-b88d-4a23-aa6f-4d4a0469310c\n'
p360
aS'origins/universal/images/icons/search-button.svg\n'
p361
aS'origins/universal/images/style/target.svg\n'
p362
aS'origins/universal/images/style/cta-arrow.svg\n'
p363
aS'pages/scripts/0002/9525.js?423137\n'
p364
aS'guides/contacting-the-university/\n'
p365
aS'topics/travel-advice/\n'
p366
aS'lens/css/bath/site/site.css\n'
p367
aS'lens/universal/images/awards/times-sports-uni-2018.svg\n'
p368
aS'lens/universal/images/awards/times-starting-salaries-2018.svg\n'
p369
aS't/1.css?apiType=css&projectid=b88bad85-b88d-4a23-aa6f-4d4a0469310c\n'
p370
aS'lens/universal/images/style/spyglass.svg\n'
p371
aS'lens/universal/images/logo/uob-logo-inverse.svg\n'
p372
aS'homepage/features/feature641.html?_=1523296592438\n'
p373
aS'pages/scripts/0002/9525.js?423137\n'
p374
aS'pages/scripts/0002/9525.js?423137\n'
p375
aS'homepage/features/feature645.html?_=1523296602970\n'
p376
aS'homepage/features/feature646.html?_=1523296623290\n'
p377
aS'campaigns/experience-the-university-at-a-postgraduate-open-day-or-fair/\n'
p378
aS'system/modules/uk.ac.bath.template.common/resources/css/screen-common.css?colour=&internal=&columns=3&background=\n'
p379
aS'system/modules/uk.ac.bath.template.common/resources/css/print-common.css?colour=\n'
p380
aS'topics/studying-at-bath-as-an-international-student/\n'
p381
aS'css?family=Raleway:400,200,800,600\n'
p382
aS'dv2/14/3ec41f2e-3697-491f-8866-a3fdaa6e1a05.woff2?d44f19a684109620e4841571ae90e818e416d16650146eec36040b3150240d73392ca41abbbad40b03a081ad4af391f37b9719e0b8ce7e3997a0df7ed011da8834ad15916c467ab15916fec382c4a6679cfb97ab7756f50e4b7ec9b441373f9339253ff47ed5bb02923d15347bd2ea94bfe5032a6f7428203f0272ed4c42ccf08e5e5a03aca5873ffdb399d9d9aaccea8a07a06f0dbe65db96102d270d2366a3e08bf642ba2e832d721aa74c44e8ef4a124ff3a4017526d3eba6020710&projectId=b88bad85-b88d-4a23-aa6f-4d4a0469310c\n'
p383
aS'origins/universal/images/style/target-section-cta.svg\n'
p384
aS'dv2/14/1357fa21-fb8c-49f8-b721-a7f05bca70bc.woff2?d44f19a684109620e4841571ae90e818e416d16650146eec36040b3150240d73392ca41abbbad40b03a081ad4af391f37b9719e0b8ce7e3997a0df7ed011da8834ad15916c467ab15916fec382c4a6679cfb97ab7756f50e4b7ec9b441373f9339253ff47ed5bb02923d15347bd2ea94bfe5032a6f7428203f0272ed4c42ccf08e5e5a03aca5873ffdb399d9d9aaccea8a07a06f0dbe65db96102d270d2366a3e08bf642ba2e832d721aa74c44e8ef4a124ff3a4017526d3eba6020710&projectId=b88bad85-b88d-4a23-aa6f-4d4a0469310c\n'
p385
aS'gtm.js?id=GTM-NN6ZCP\n'
p386
aS'common/images/graphics/go-button.gif\n'
p387
aS'common/images/graphics/header-background.gif\n'
p388
aS'common/images/graphics/topbar-blue-dark.gif\n'
p389
aS'common/php/topnavbg.php?p=36c\n'
p390
aS'success.txt\n'
p391
aS'homepage/css/homepage.css\n'
p392
aS'homepage/js/jquery.js\n'
p393
aS'homepage/js/exploreBar.js\n'
p394
aS'homepage/js/cyclefeatures.js\n'
p395
aS'homepage/images/style/search_go.png\n'
p396
aS'common/images/style/findPeople_go.png\n'
p397
aS'homepage/images/style/nav_global_bg.png\n'
p398
aS'homepage/images/style/nav_global_links_bg.png\n'
p399
aS'homepage/images/style/search_bg.png\n'
p400
aS'favicon.ico\n'
p401
aS'homepage/features/feature646.html?_=1523296530696\n'
p402
aS'homepage/images/features/646.jpg\n'
p403
aS'homepage/features/feature641.html?_=1523296540802\n'
p404
aS'homepage/images/features/641.jpg\n'
p405
aS'homepage/features/feature645.html?_=1523296550902\n'
p406
aS'homepage/images/features/645.jpg\n'
p407
aS'success.txt\n'
p408
aS'corporate-information/rankings-and-reputation/\n'
p409
aS'origins/css/bath/site/site.css\n'
p410
aS'origins/universal/images/icons/search-button.svg\n'
p411
aS'origins/universal/images/style/target.svg\n'
p412
aS'origins/universal/images/style/cta-arrow.svg\n'
p413
aS'dv2/14/3ec41f2e-3697-491f-8866-a3fdaa6e1a05.woff2?d44f19a684109620e4841571ae90e818e416d16650146eec36040b3150240d73392ca41abbbad40b03a081ad4af391f37b9719e0b8ce7e3997a0df7ed011da8834ad15916c467ab15916fec382c4a6679cfb97ab7756f50e4b7ec9b441373f9339253ff47ed5bb02923d15347bd2ea94bfe5032a6f7428203f0272ed4c42ccf08e5e5a03aca5873ffdb399d9d9aaccea8a07a06f0dbe65db96102d270d2366a3e08bf642ba2e832d721aa74c44e8ef4a124ff3a4017526d3eba6020710&projectId=b88bad85-b88d-4a23-aa6f-4d4a0469310c\n'
p414
aS'dv2/14/53996aa5-5053-49df-811e-5ff010046f90.woff2?d44f19a684109620e4841571ae90e818e416d16650146eec36040b3150240d73392ca41abbbad40b03a081ad4af391f37b9719e0b8ce7e3997a0df7ed011da8834ad15916c467ab15916fec382c4a6679cfb97ab7756f50e4b7ec9b441373f9339253ff47ed5bb02923d15347bd2ea94bfe5032a6f7428203f0272ed4c42ccf08e5e5a03aca5873ffdb399d9d9aaccea8a07a06f0dbe65db96102d270d2366a3e08bf642ba2e832d721aa74c44e8ef4a124ff3a4017526d3eba6020710&projectId=b88bad85-b88d-4a23-aa6f-4d4a0469310c\n'
p415
aS'gtm.js?id=GTM-NN6ZCP\n'
p416
aS'homepage/features/feature646.html?_=1523296579306\n'
p417
aS'origins/universal/images/favicon/favicon.ico\n'
p418
aS'pages/scripts/0002/9525.js?423137\n'
p419
aS't/1.css?apiType=css&projectid=b88bad85-b88d-4a23-aa6f-4d4a0469310c\n'
p420
aS'origins/universal/images/icons/search-button.svg\n'
p421
aS'origins/universal/images/style/target.svg\n'
p422
aS'origins/universal/images/style/cta-arrow.svg\n'
p423
aS'pages/scripts/0002/9525.js?423137\n'
p424
aS'guides/contacting-the-university/\n'
p425
aS'topics/travel-advice/\n'
p426
aS'lens/css/bath/site/site.css\n'
p427
aS'lens/universal/images/awards/times-sports-uni-2018.svg\n'
p428
aS'lens/universal/images/awards/times-starting-salaries-2018.svg\n'
p429
aS't/1.css?apiType=css&projectid=b88bad85-b88d-4a23-aa6f-4d4a0469310c\n'
p430
aS'lens/universal/images/style/spyglass.svg\n'
p431
aS'lens/universal/images/logo/uob-logo-inverse.svg\n'
p432
aS'homepage/features/feature641.html?_=1523296592438\n'
p433
aS'pages/scripts/0002/9525.js?423137\n'
p434
aS'pages/scripts/0002/9525.js?423137\n'
p435
aS'homepage/features/feature645.html?_=1523296602970\n'
p436
aS'homepage/features/feature646.html?_=1523296623290\n'
p437
aS'campaigns/experience-the-university-at-a-postgraduate-open-day-or-fair/\n'
p438
aS'system/modules/uk.ac.bath.template.common/resources/css/screen-common.css?colour=&internal=&columns=3&background=\n'
p439
aS'system/modules/uk.ac.bath.template.common/resources/css/print-common.css?colour=\n'
p440
aS'topics/studying-at-bath-as-an-international-student/\n'
p441
aS'css?family=Raleway:400,200,800,600\n'
p442
aS'dv2/14/3ec41f2e-3697-491f-8866-a3fdaa6e1a05.woff2?d44f19a684109620e4841571ae90e818e416d16650146eec36040b3150240d73392ca41abbbad40b03a081ad4af391f37b9719e0b8ce7e3997a0df7ed011da8834ad15916c467ab15916fec382c4a6679cfb97ab7756f50e4b7ec9b441373f9339253ff47ed5bb02923d15347bd2ea94bfe5032a6f7428203f0272ed4c42ccf08e5e5a03aca5873ffdb399d9d9aaccea8a07a06f0dbe65db96102d270d2366a3e08bf642ba2e832d721aa74c44e8ef4a124ff3a4017526d3eba6020710&projectId=b88bad85-b88d-4a23-aa6f-4d4a0469310c\n'
p443
aS'origins/universal/images/style/target-section-cta.svg\n'
p444
aS'dv2/14/1357fa21-fb8c-49f8-b721-a7f05bca70bc.woff2?d44f19a684109620e4841571ae90e818e416d16650146eec36040b3150240d73392ca41abbbad40b03a081ad4af391f37b9719e0b8ce7e3997a0df7ed011da8834ad15916c467ab15916fec382c4a6679cfb97ab7756f50e4b7ec9b441373f9339253ff47ed5bb02923d15347bd2ea94bfe5032a6f7428203f0272ed4c42ccf08e5e5a03aca5873ffdb399d9d9aaccea8a07a06f0dbe65db96102d270d2366a3e08bf642ba2e832d721aa74c44e8ef4a124ff3a4017526d3eba6020710&projectId=b88bad85-b88d-4a23-aa6f-4d4a0469310c\n'
p445
aS'gtm.js?id=GTM-NN6ZCP\n'
p446
aS'common/images/graphics/go-button.gif\n'
p447
aS'common/images/graphics/header-background.gif\n'
p448
aS'common/images/graphics/topbar-blue-dark.gif\n'
p449
aS'common/php/topnavbg.php?p=36c\n'
p450
aS'study/ug/\n'
p451
aS'forms/order-the-2019-undergraduate-prospectus/\n'
p452
aS'assets/embed-4dbfd7a8634cab9ca4b7172c30c2fef965e94e7de09a5576f759bb7f41a7dd7b.css\n'
p453
aS'pages/scripts/0002/9525.js?423137\n'
p454
aS'activityi;src=8369552;type=count0;cat=pgope0;ord=2215535404062;gtm=G45;~oref=http%3A%2F%2Fwww.bath.ac.uk%2Fcampaigns%2Fexperience-the-university-at-a-postgraduate-open-day-or-fair%2F?\n'
p455
aS'success.txt\n'
p456
aS'homepage/css/homepage.css\n'
p457
aS'homepage/js/jquery.js\n'
p458
aS'homepage/js/exploreBar.js\n'
p459
aS'homepage/js/cyclefeatures.js\n'
p460
aS'homepage/images/style/search_go.png\n'
p461
aS'common/images/style/findPeople_go.png\n'
p462
aS'homepage/images/style/nav_global_bg.png\n'
p463
aS'homepage/images/style/nav_global_links_bg.png\n'
p464
aS'homepage/images/style/search_bg.png\n'
p465
aS'favicon.ico\n'
p466
aS'homepage/features/feature646.html?_=1523296530696\n'
p467
aS'homepage/images/features/646.jpg\n'
p468
aS'homepage/features/feature641.html?_=1523296540802\n'
p469
aS'homepage/images/features/641.jpg\n'
p470
aS'homepage/features/feature645.html?_=1523296550902\n'
p471
aS'homepage/images/features/645.jpg\n'
p472
aS'success.txt\n'
p473
aS'corporate-information/rankings-and-reputation/\n'
p474
aS'origins/css/bath/site/site.css\n'
p475
aS'origins/universal/images/icons/search-button.svg\n'
p476
aS'origins/universal/images/style/target.svg\n'
p477
aS'origins/universal/images/style/cta-arrow.svg\n'
p478
aS'dv2/14/3ec41f2e-3697-491f-8866-a3fdaa6e1a05.woff2?d44f19a684109620e4841571ae90e818e416d16650146eec36040b3150240d73392ca41abbbad40b03a081ad4af391f37b9719e0b8ce7e3997a0df7ed011da8834ad15916c467ab15916fec382c4a6679cfb97ab7756f50e4b7ec9b441373f9339253ff47ed5bb02923d15347bd2ea94bfe5032a6f7428203f0272ed4c42ccf08e5e5a03aca5873ffdb399d9d9aaccea8a07a06f0dbe65db96102d270d2366a3e08bf642ba2e832d721aa74c44e8ef4a124ff3a4017526d3eba6020710&projectId=b88bad85-b88d-4a23-aa6f-4d4a0469310c\n'
p479
aS'dv2/14/53996aa5-5053-49df-811e-5ff010046f90.woff2?d44f19a684109620e4841571ae90e818e416d16650146eec36040b3150240d73392ca41abbbad40b03a081ad4af391f37b9719e0b8ce7e3997a0df7ed011da8834ad15916c467ab15916fec382c4a6679cfb97ab7756f50e4b7ec9b441373f9339253ff47ed5bb02923d15347bd2ea94bfe5032a6f7428203f0272ed4c42ccf08e5e5a03aca5873ffdb399d9d9aaccea8a07a06f0dbe65db96102d270d2366a3e08bf642ba2e832d721aa74c44e8ef4a124ff3a4017526d3eba6020710&projectId=b88bad85-b88d-4a23-aa6f-4d4a0469310c\n'
p480
aS'gtm.js?id=GTM-NN6ZCP\n'
p481
aS'homepage/features/feature646.html?_=1523296579306\n'
p482
aS'origins/universal/images/favicon/favicon.ico\n'
p483
aS'pages/scripts/0002/9525.js?423137\n'
p484
aS't/1.css?apiType=css&projectid=b88bad85-b88d-4a23-aa6f-4d4a0469310c\n'
p485
aS'origins/universal/images/icons/search-button.svg\n'
p486
aS'origins/universal/images/style/target.svg\n'
p487
aS'origins/universal/images/style/cta-arrow.svg\n'
p488
aS'pages/scripts/0002/9525.js?423137\n'
p489
aS'guides/contacting-the-university/\n'
p490
aS'topics/travel-advice/\n'
p491
aS'lens/css/bath/site/site.css\n'
p492
aS'lens/universal/images/awards/times-sports-uni-2018.svg\n'
p493
aS'lens/universal/images/awards/times-starting-salaries-2018.svg\n'
p494
aS't/1.css?apiType=css&projectid=b88bad85-b88d-4a23-aa6f-4d4a0469310c\n'
p495
aS'lens/universal/images/style/spyglass.svg\n'
p496
aS'lens/universal/images/logo/uob-logo-inverse.svg\n'
p497
aS'homepage/features/feature641.html?_=1523296592438\n'
p498
aS'pages/scripts/0002/9525.js?423137\n'
p499
aS'pages/scripts/0002/9525.js?423137\n'
p500
aS'homepage/features/feature645.html?_=1523296602970\n'
p501
aS'homepage/features/feature646.html?_=1523296623290\n'
p502
aS'campaigns/experience-the-university-at-a-postgraduate-open-day-or-fair/\n'
p503
aS'system/modules/uk.ac.bath.template.common/resources/css/screen-common.css?colour=&internal=&columns=3&background=\n'
p504
aS'system/modules/uk.ac.bath.template.common/resources/css/print-common.css?colour=\n'
p505
aS'topics/studying-at-bath-as-an-international-student/\n'
p506
aS'css?family=Raleway:400,200,800,600\n'
p507
aS'dv2/14/3ec41f2e-3697-491f-8866-a3fdaa6e1a05.woff2?d44f19a684109620e4841571ae90e818e416d16650146eec36040b3150240d73392ca41abbbad40b03a081ad4af391f37b9719e0b8ce7e3997a0df7ed011da8834ad15916c467ab15916fec382c4a6679cfb97ab7756f50e4b7ec9b441373f9339253ff47ed5bb02923d15347bd2ea94bfe5032a6f7428203f0272ed4c42ccf08e5e5a03aca5873ffdb399d9d9aaccea8a07a06f0dbe65db96102d270d2366a3e08bf642ba2e832d721aa74c44e8ef4a124ff3a4017526d3eba6020710&projectId=b88bad85-b88d-4a23-aa6f-4d4a0469310c\n'
p508
aS'origins/universal/images/style/target-section-cta.svg\n'
p509
aS'dv2/14/1357fa21-fb8c-49f8-b721-a7f05bca70bc.woff2?d44f19a684109620e4841571ae90e818e416d16650146eec36040b3150240d73392ca41abbbad40b03a081ad4af391f37b9719e0b8ce7e3997a0df7ed011da8834ad15916c467ab15916fec382c4a6679cfb97ab7756f50e4b7ec9b441373f9339253ff47ed5bb02923d15347bd2ea94bfe5032a6f7428203f0272ed4c42ccf08e5e5a03aca5873ffdb399d9d9aaccea8a07a06f0dbe65db96102d270d2366a3e08bf642ba2e832d721aa74c44e8ef4a124ff3a4017526d3eba6020710&projectId=b88bad85-b88d-4a23-aa6f-4d4a0469310c\n'
p510
aS'gtm.js?id=GTM-NN6ZCP\n'
p511
aS'common/images/graphics/go-button.gif\n'
p512
aS'common/images/graphics/header-background.gif\n'
p513
aS'common/images/graphics/topbar-blue-dark.gif\n'
p514
aS'common/php/topnavbg.php?p=36c\n'
p515
aS'study/ug/\n'
p516
aS'forms/order-the-2019-undergraduate-prospectus/\n'
p517
aS'assets/embed-4dbfd7a8634cab9ca4b7172c30c2fef965e94e7de09a5576f759bb7f41a7dd7b.css\n'
p518
aS'pages/scripts/0002/9525.js?423137\n'
p519
aS'activityi;src=8369552;type=count0;cat=pgope0;ord=2215535404062;gtm=G45;~oref=http%3A%2F%2Fwww.bath.ac.uk%2Fcampaigns%2Fexperience-the-university-at-a-postgraduate-open-day-or-fair%2F?\n'
p520
aS'courses/\n'
p521
aS'students/\n'
p522
aS'staff/\n'
p523
aS'pages/scripts/0002/9525.js?423137\n'
p524
aS'homepage/features/feature645.html?_=1523296646222\n'
p525
aS'success.txt\n'
p526
aS'homepage/css/homepage.css\n'
p527
aS'homepage/js/jquery.js\n'
p528
aS'homepage/js/exploreBar.js\n'
p529
aS'homepage/js/cyclefeatures.js\n'
p530
aS'homepage/images/style/search_go.png\n'
p531
aS'common/images/style/findPeople_go.png\n'
p532
aS'homepage/images/style/nav_global_bg.png\n'
p533
aS'homepage/images/style/nav_global_links_bg.png\n'
p534
aS'homepage/images/style/search_bg.png\n'
p535
aS'favicon.ico\n'
p536
aS'homepage/features/feature646.html?_=1523296530696\n'
p537
aS'homepage/images/features/646.jpg\n'
p538
aS'homepage/features/feature641.html?_=1523296540802\n'
p539
aS'homepage/images/features/641.jpg\n'
p540
aS'homepage/features/feature645.html?_=1523296550902\n'
p541
aS'homepage/images/features/645.jpg\n'
p542
aS'success.txt\n'
p543
aS'corporate-information/rankings-and-reputation/\n'
p544
aS'origins/css/bath/site/site.css\n'
p545
aS'origins/universal/images/icons/search-button.svg\n'
p546
aS'origins/universal/images/style/target.svg\n'
p547
aS'origins/universal/images/style/cta-arrow.svg\n'
p548
aS'dv2/14/3ec41f2e-3697-491f-8866-a3fdaa6e1a05.woff2?d44f19a684109620e4841571ae90e818e416d16650146eec36040b3150240d73392ca41abbbad40b03a081ad4af391f37b9719e0b8ce7e3997a0df7ed011da8834ad15916c467ab15916fec382c4a6679cfb97ab7756f50e4b7ec9b441373f9339253ff47ed5bb02923d15347bd2ea94bfe5032a6f7428203f0272ed4c42ccf08e5e5a03aca5873ffdb399d9d9aaccea8a07a06f0dbe65db96102d270d2366a3e08bf642ba2e832d721aa74c44e8ef4a124ff3a4017526d3eba6020710&projectId=b88bad85-b88d-4a23-aa6f-4d4a0469310c\n'
p549
aS'dv2/14/53996aa5-5053-49df-811e-5ff010046f90.woff2?d44f19a684109620e4841571ae90e818e416d16650146eec36040b3150240d73392ca41abbbad40b03a081ad4af391f37b9719e0b8ce7e3997a0df7ed011da8834ad15916c467ab15916fec382c4a6679cfb97ab7756f50e4b7ec9b441373f9339253ff47ed5bb02923d15347bd2ea94bfe5032a6f7428203f0272ed4c42ccf08e5e5a03aca5873ffdb399d9d9aaccea8a07a06f0dbe65db96102d270d2366a3e08bf642ba2e832d721aa74c44e8ef4a124ff3a4017526d3eba6020710&projectId=b88bad85-b88d-4a23-aa6f-4d4a0469310c\n'
p550
aS'gtm.js?id=GTM-NN6ZCP\n'
p551
aS'homepage/features/feature646.html?_=1523296579306\n'
p552
aS'origins/universal/images/favicon/favicon.ico\n'
p553
aS'pages/scripts/0002/9525.js?423137\n'
p554
aS't/1.css?apiType=css&projectid=b88bad85-b88d-4a23-aa6f-4d4a0469310c\n'
p555
aS'origins/universal/images/icons/search-button.svg\n'
p556
aS'origins/universal/images/style/target.svg\n'
p557
aS'origins/universal/images/style/cta-arrow.svg\n'
p558
aS'pages/scripts/0002/9525.js?423137\n'
p559
aS'guides/contacting-the-university/\n'
p560
aS'topics/travel-advice/\n'
p561
aS'lens/css/bath/site/site.css\n'
p562
aS'lens/universal/images/awards/times-sports-uni-2018.svg\n'
p563
aS'lens/universal/images/awards/times-starting-salaries-2018.svg\n'
p564
aS't/1.css?apiType=css&projectid=b88bad85-b88d-4a23-aa6f-4d4a0469310c\n'
p565
aS'lens/universal/images/style/spyglass.svg\n'
p566
aS'lens/universal/images/logo/uob-logo-inverse.svg\n'
p567
aS'homepage/features/feature641.html?_=1523296592438\n'
p568
aS'pages/scripts/0002/9525.js?423137\n'
p569
aS'pages/scripts/0002/9525.js?423137\n'
p570
aS'homepage/features/feature645.html?_=1523296602970\n'
p571
aS'homepage/features/feature646.html?_=1523296623290\n'
p572
aS'campaigns/experience-the-university-at-a-postgraduate-open-day-or-fair/\n'
p573
aS'system/modules/uk.ac.bath.template.common/resources/css/screen-common.css?colour=&internal=&columns=3&background=\n'
p574
aS'system/modules/uk.ac.bath.template.common/resources/css/print-common.css?colour=\n'
p575
aS'topics/studying-at-bath-as-an-international-student/\n'
p576
aS'css?family=Raleway:400,200,800,600\n'
p577
aS'dv2/14/3ec41f2e-3697-491f-8866-a3fdaa6e1a05.woff2?d44f19a684109620e4841571ae90e818e416d16650146eec36040b3150240d73392ca41abbbad40b03a081ad4af391f37b9719e0b8ce7e3997a0df7ed011da8834ad15916c467ab15916fec382c4a6679cfb97ab7756f50e4b7ec9b441373f9339253ff47ed5bb02923d15347bd2ea94bfe5032a6f7428203f0272ed4c42ccf08e5e5a03aca5873ffdb399d9d9aaccea8a07a06f0dbe65db96102d270d2366a3e08bf642ba2e832d721aa74c44e8ef4a124ff3a4017526d3eba6020710&projectId=b88bad85-b88d-4a23-aa6f-4d4a0469310c\n'
p578
aS'origins/universal/images/style/target-section-cta.svg\n'
p579
aS'dv2/14/1357fa21-fb8c-49f8-b721-a7f05bca70bc.woff2?d44f19a684109620e4841571ae90e818e416d16650146eec36040b3150240d73392ca41abbbad40b03a081ad4af391f37b9719e0b8ce7e3997a0df7ed011da8834ad15916c467ab15916fec382c4a6679cfb97ab7756f50e4b7ec9b441373f9339253ff47ed5bb02923d15347bd2ea94bfe5032a6f7428203f0272ed4c42ccf08e5e5a03aca5873ffdb399d9d9aaccea8a07a06f0dbe65db96102d270d2366a3e08bf642ba2e832d721aa74c44e8ef4a124ff3a4017526d3eba6020710&projectId=b88bad85-b88d-4a23-aa6f-4d4a0469310c\n'
p580
aS'gtm.js?id=GTM-NN6ZCP\n'
p581
aS'common/images/graphics/go-button.gif\n'
p582
aS'common/images/graphics/header-background.gif\n'
p583
aS'common/images/graphics/topbar-blue-dark.gif\n'
p584
aS'common/php/topnavbg.php?p=36c\n'
p585
aS'study/ug/\n'
p586
aS'forms/order-the-2019-undergraduate-prospectus/\n'
p587
aS'assets/embed-4dbfd7a8634cab9ca4b7172c30c2fef965e94e7de09a5576f759bb7f41a7dd7b.css\n'
p588
aS'pages/scripts/0002/9525.js?423137\n'
p589
aS'activityi;src=8369552;type=count0;cat=pgope0;ord=2215535404062;gtm=G45;~oref=http%3A%2F%2Fwww.bath.ac.uk%2Fcampaigns%2Fexperience-the-university-at-a-postgraduate-open-day-or-fair%2F?\n'
p590
aS'courses/\n'
p591
aS'students/\n'
p592
aS'staff/\n'
p593
aS'pages/scripts/0002/9525.js?423137\n'
p594
aS'homepage/features/feature645.html?_=1523296646222\n'
p595
aS'common/foundation/css/students-landing.css\n'
p596
aS'common/foundation/js/vendor/modernizr.js\n'
p597
aS'common/foundation/js/foundation.min.js\n'
p598
aS'common/foundation/js/foundation/foundation.interchange.js\n'
p599
aS'students/images/homepage/shape-the-future.jpg\n'
p600
aS'success.txt\n'
p601
aS'homepage/css/homepage.css\n'
p602
aS'homepage/js/jquery.js\n'
p603
aS'homepage/js/exploreBar.js\n'
p604
aS'homepage/js/cyclefeatures.js\n'
p605
aS'homepage/images/style/search_go.png\n'
p606
aS'common/images/style/findPeople_go.png\n'
p607
aS'homepage/images/style/nav_global_bg.png\n'
p608
aS'homepage/images/style/nav_global_links_bg.png\n'
p609
aS'homepage/images/style/search_bg.png\n'
p610
aS'favicon.ico\n'
p611
aS'homepage/features/feature646.html?_=1523296530696\n'
p612
aS'homepage/images/features/646.jpg\n'
p613
aS'homepage/features/feature641.html?_=1523296540802\n'
p614
aS'homepage/images/features/641.jpg\n'
p615
aS'homepage/features/feature645.html?_=1523296550902\n'
p616
aS'homepage/images/features/645.jpg\n'
p617
aS'success.txt\n'
p618
aS'corporate-information/rankings-and-reputation/\n'
p619
aS'origins/css/bath/site/site.css\n'
p620
aS'origins/universal/images/icons/search-button.svg\n'
p621
aS'origins/universal/images/style/target.svg\n'
p622
aS'origins/universal/images/style/cta-arrow.svg\n'
p623
aS'dv2/14/3ec41f2e-3697-491f-8866-a3fdaa6e1a05.woff2?d44f19a684109620e4841571ae90e818e416d16650146eec36040b3150240d73392ca41abbbad40b03a081ad4af391f37b9719e0b8ce7e3997a0df7ed011da8834ad15916c467ab15916fec382c4a6679cfb97ab7756f50e4b7ec9b441373f9339253ff47ed5bb02923d15347bd2ea94bfe5032a6f7428203f0272ed4c42ccf08e5e5a03aca5873ffdb399d9d9aaccea8a07a06f0dbe65db96102d270d2366a3e08bf642ba2e832d721aa74c44e8ef4a124ff3a4017526d3eba6020710&projectId=b88bad85-b88d-4a23-aa6f-4d4a0469310c\n'
p624
aS'dv2/14/53996aa5-5053-49df-811e-5ff010046f90.woff2?d44f19a684109620e4841571ae90e818e416d16650146eec36040b3150240d73392ca41abbbad40b03a081ad4af391f37b9719e0b8ce7e3997a0df7ed011da8834ad15916c467ab15916fec382c4a6679cfb97ab7756f50e4b7ec9b441373f9339253ff47ed5bb02923d15347bd2ea94bfe5032a6f7428203f0272ed4c42ccf08e5e5a03aca5873ffdb399d9d9aaccea8a07a06f0dbe65db96102d270d2366a3e08bf642ba2e832d721aa74c44e8ef4a124ff3a4017526d3eba6020710&projectId=b88bad85-b88d-4a23-aa6f-4d4a0469310c\n'
p625
aS'gtm.js?id=GTM-NN6ZCP\n'
p626
aS'homepage/features/feature646.html?_=1523296579306\n'
p627
aS'origins/universal/images/favicon/favicon.ico\n'
p628
aS'pages/scripts/0002/9525.js?423137\n'
p629
aS't/1.css?apiType=css&projectid=b88bad85-b88d-4a23-aa6f-4d4a0469310c\n'
p630
aS'origins/universal/images/icons/search-button.svg\n'
p631
aS'origins/universal/images/style/target.svg\n'
p632
aS'origins/universal/images/style/cta-arrow.svg\n'
p633
aS'pages/scripts/0002/9525.js?423137\n'
p634
aS'guides/contacting-the-university/\n'
p635
aS'topics/travel-advice/\n'
p636
aS'lens/css/bath/site/site.css\n'
p637
aS'lens/universal/images/awards/times-sports-uni-2018.svg\n'
p638
aS'lens/universal/images/awards/times-starting-salaries-2018.svg\n'
p639
aS't/1.css?apiType=css&projectid=b88bad85-b88d-4a23-aa6f-4d4a0469310c\n'
p640
aS'lens/universal/images/style/spyglass.svg\n'
p641
aS'lens/universal/images/logo/uob-logo-inverse.svg\n'
p642
aS'homepage/features/feature641.html?_=1523296592438\n'
p643
aS'pages/scripts/0002/9525.js?423137\n'
p644
aS'pages/scripts/0002/9525.js?423137\n'
p645
aS'homepage/features/feature645.html?_=1523296602970\n'
p646
aS'homepage/features/feature646.html?_=1523296623290\n'
p647
aS'campaigns/experience-the-university-at-a-postgraduate-open-day-or-fair/\n'
p648
aS'system/modules/uk.ac.bath.template.common/resources/css/screen-common.css?colour=&internal=&columns=3&background=\n'
p649
aS'system/modules/uk.ac.bath.template.common/resources/css/print-common.css?colour=\n'
p650
aS'topics/studying-at-bath-as-an-international-student/\n'
p651
aS'css?family=Raleway:400,200,800,600\n'
p652
aS'dv2/14/3ec41f2e-3697-491f-8866-a3fdaa6e1a05.woff2?d44f19a684109620e4841571ae90e818e416d16650146eec36040b3150240d73392ca41abbbad40b03a081ad4af391f37b9719e0b8ce7e3997a0df7ed011da8834ad15916c467ab15916fec382c4a6679cfb97ab7756f50e4b7ec9b441373f9339253ff47ed5bb02923d15347bd2ea94bfe5032a6f7428203f0272ed4c42ccf08e5e5a03aca5873ffdb399d9d9aaccea8a07a06f0dbe65db96102d270d2366a3e08bf642ba2e832d721aa74c44e8ef4a124ff3a4017526d3eba6020710&projectId=b88bad85-b88d-4a23-aa6f-4d4a0469310c\n'
p653
aS'origins/universal/images/style/target-section-cta.svg\n'
p654
aS'dv2/14/1357fa21-fb8c-49f8-b721-a7f05bca70bc.woff2?d44f19a684109620e4841571ae90e818e416d16650146eec36040b3150240d73392ca41abbbad40b03a081ad4af391f37b9719e0b8ce7e3997a0df7ed011da8834ad15916c467ab15916fec382c4a6679cfb97ab7756f50e4b7ec9b441373f9339253ff47ed5bb02923d15347bd2ea94bfe5032a6f7428203f0272ed4c42ccf08e5e5a03aca5873ffdb399d9d9aaccea8a07a06f0dbe65db96102d270d2366a3e08bf642ba2e832d721aa74c44e8ef4a124ff3a4017526d3eba6020710&projectId=b88bad85-b88d-4a23-aa6f-4d4a0469310c\n'
p655
aS'gtm.js?id=GTM-NN6ZCP\n'
p656
aS'common/images/graphics/go-button.gif\n'
p657
aS'common/images/graphics/header-background.gif\n'
p658
aS'common/images/graphics/topbar-blue-dark.gif\n'
p659
aS'common/php/topnavbg.php?p=36c\n'
p660
aS'study/ug/\n'
p661
aS'forms/order-the-2019-undergraduate-prospectus/\n'
p662
aS'assets/embed-4dbfd7a8634cab9ca4b7172c30c2fef965e94e7de09a5576f759bb7f41a7dd7b.css\n'
p663
aS'pages/scripts/0002/9525.js?423137\n'
p664
aS'activityi;src=8369552;type=count0;cat=pgope0;ord=2215535404062;gtm=G45;~oref=http%3A%2F%2Fwww.bath.ac.uk%2Fcampaigns%2Fexperience-the-university-at-a-postgraduate-open-day-or-fair%2F?\n'
p665
aS'courses/\n'
p666
aS'students/\n'
p667
aS'staff/\n'
p668
aS'pages/scripts/0002/9525.js?423137\n'
p669
aS'homepage/features/feature645.html?_=1523296646222\n'
p670
aS'common/foundation/css/students-landing.css\n'
p671
aS'common/foundation/js/vendor/modernizr.js\n'
p672
aS'common/foundation/js/foundation.min.js\n'
p673
aS'common/foundation/js/foundation/foundation.interchange.js\n'
p674
aS'students/images/homepage/shape-the-future.jpg\n'
p675
aS'css?family=Libre+Baskerville:400,700|Rokkitt|Handlee|Raleway:400,200,800,600\n'
p676
aS'css?family=Libre+Baskerville:400,700|Rokkitt|Handlee|Raleway:400,200,800,600\n'
p677
aS'common/images/style/students-landing-page/body_bg-fyse.gif\n'
p678
aS'common/images/research-html-bg.gif\n'
p679
aS'common/images/style/search_go.png\n'
p680
aS'success.txt\n'
p681
aS'homepage/css/homepage.css\n'
p682
aS'homepage/js/jquery.js\n'
p683
aS'homepage/js/exploreBar.js\n'
p684
aS'homepage/js/cyclefeatures.js\n'
p685
aS'homepage/images/style/search_go.png\n'
p686
aS'common/images/style/findPeople_go.png\n'
p687
aS'homepage/images/style/nav_global_bg.png\n'
p688
aS'homepage/images/style/nav_global_links_bg.png\n'
p689
aS'homepage/images/style/search_bg.png\n'
p690
aS'favicon.ico\n'
p691
aS'homepage/features/feature646.html?_=1523296530696\n'
p692
aS'homepage/images/features/646.jpg\n'
p693
aS'homepage/features/feature641.html?_=1523296540802\n'
p694
aS'homepage/images/features/641.jpg\n'
p695
aS'homepage/features/feature645.html?_=1523296550902\n'
p696
aS'homepage/images/features/645.jpg\n'
p697
aS'success.txt\n'
p698
aS'corporate-information/rankings-and-reputation/\n'
p699
aS'origins/css/bath/site/site.css\n'
p700
aS'origins/universal/images/icons/search-button.svg\n'
p701
aS'origins/universal/images/style/target.svg\n'
p702
aS'origins/universal/images/style/cta-arrow.svg\n'
p703
aS'dv2/14/3ec41f2e-3697-491f-8866-a3fdaa6e1a05.woff2?d44f19a684109620e4841571ae90e818e416d16650146eec36040b3150240d73392ca41abbbad40b03a081ad4af391f37b9719e0b8ce7e3997a0df7ed011da8834ad15916c467ab15916fec382c4a6679cfb97ab7756f50e4b7ec9b441373f9339253ff47ed5bb02923d15347bd2ea94bfe5032a6f7428203f0272ed4c42ccf08e5e5a03aca5873ffdb399d9d9aaccea8a07a06f0dbe65db96102d270d2366a3e08bf642ba2e832d721aa74c44e8ef4a124ff3a4017526d3eba6020710&projectId=b88bad85-b88d-4a23-aa6f-4d4a0469310c\n'
p704
aS'dv2/14/53996aa5-5053-49df-811e-5ff010046f90.woff2?d44f19a684109620e4841571ae90e818e416d16650146eec36040b3150240d73392ca41abbbad40b03a081ad4af391f37b9719e0b8ce7e3997a0df7ed011da8834ad15916c467ab15916fec382c4a6679cfb97ab7756f50e4b7ec9b441373f9339253ff47ed5bb02923d15347bd2ea94bfe5032a6f7428203f0272ed4c42ccf08e5e5a03aca5873ffdb399d9d9aaccea8a07a06f0dbe65db96102d270d2366a3e08bf642ba2e832d721aa74c44e8ef4a124ff3a4017526d3eba6020710&projectId=b88bad85-b88d-4a23-aa6f-4d4a0469310c\n'
p705
aS'gtm.js?id=GTM-NN6ZCP\n'
p706
aS'homepage/features/feature646.html?_=1523296579306\n'
p707
aS'origins/universal/images/favicon/favicon.ico\n'
p708
aS'pages/scripts/0002/9525.js?423137\n'
p709
aS't/1.css?apiType=css&projectid=b88bad85-b88d-4a23-aa6f-4d4a0469310c\n'
p710
aS'origins/universal/images/icons/search-button.svg\n'
p711
aS'origins/universal/images/style/target.svg\n'
p712
aS'origins/universal/images/style/cta-arrow.svg\n'
p713
aS'pages/scripts/0002/9525.js?423137\n'
p714
aS'guides/contacting-the-university/\n'
p715
aS'topics/travel-advice/\n'
p716
aS'lens/css/bath/site/site.css\n'
p717
aS'lens/universal/images/awards/times-sports-uni-2018.svg\n'
p718
aS'lens/universal/images/awards/times-starting-salaries-2018.svg\n'
p719
aS't/1.css?apiType=css&projectid=b88bad85-b88d-4a23-aa6f-4d4a0469310c\n'
p720
aS'lens/universal/images/style/spyglass.svg\n'
p721
aS'lens/universal/images/logo/uob-logo-inverse.svg\n'
p722
aS'homepage/features/feature641.html?_=1523296592438\n'
p723
aS'pages/scripts/0002/9525.js?423137\n'
p724
aS'pages/scripts/0002/9525.js?423137\n'
p725
aS'homepage/features/feature645.html?_=1523296602970\n'
p726
aS'homepage/features/feature646.html?_=1523296623290\n'
p727
aS'campaigns/experience-the-university-at-a-postgraduate-open-day-or-fair/\n'
p728
aS'system/modules/uk.ac.bath.template.common/resources/css/screen-common.css?colour=&internal=&columns=3&background=\n'
p729
aS'system/modules/uk.ac.bath.template.common/resources/css/print-common.css?colour=\n'
p730
aS'topics/studying-at-bath-as-an-international-student/\n'
p731
aS'css?family=Raleway:400,200,800,600\n'
p732
aS'dv2/14/3ec41f2e-3697-491f-8866-a3fdaa6e1a05.woff2?d44f19a684109620e4841571ae90e818e416d16650146eec36040b3150240d73392ca41abbbad40b03a081ad4af391f37b9719e0b8ce7e3997a0df7ed011da8834ad15916c467ab15916fec382c4a6679cfb97ab7756f50e4b7ec9b441373f9339253ff47ed5bb02923d15347bd2ea94bfe5032a6f7428203f0272ed4c42ccf08e5e5a03aca5873ffdb399d9d9aaccea8a07a06f0dbe65db96102d270d2366a3e08bf642ba2e832d721aa74c44e8ef4a124ff3a4017526d3eba6020710&projectId=b88bad85-b88d-4a23-aa6f-4d4a0469310c\n'
p733
aS'origins/universal/images/style/target-section-cta.svg\n'
p734
aS'dv2/14/1357fa21-fb8c-49f8-b721-a7f05bca70bc.woff2?d44f19a684109620e4841571ae90e818e416d16650146eec36040b3150240d73392ca41abbbad40b03a081ad4af391f37b9719e0b8ce7e3997a0df7ed011da8834ad15916c467ab15916fec382c4a6679cfb97ab7756f50e4b7ec9b441373f9339253ff47ed5bb02923d15347bd2ea94bfe5032a6f7428203f0272ed4c42ccf08e5e5a03aca5873ffdb399d9d9aaccea8a07a06f0dbe65db96102d270d2366a3e08bf642ba2e832d721aa74c44e8ef4a124ff3a4017526d3eba6020710&projectId=b88bad85-b88d-4a23-aa6f-4d4a0469310c\n'
p735
aS'gtm.js?id=GTM-NN6ZCP\n'
p736
aS'common/images/graphics/go-button.gif\n'
p737
aS'common/images/graphics/header-background.gif\n'
p738
aS'common/images/graphics/topbar-blue-dark.gif\n'
p739
aS'common/php/topnavbg.php?p=36c\n'
p740
aS'study/ug/\n'
p741
aS'forms/order-the-2019-undergraduate-prospectus/\n'
p742
aS'assets/embed-4dbfd7a8634cab9ca4b7172c30c2fef965e94e7de09a5576f759bb7f41a7dd7b.css\n'
p743
aS'pages/scripts/0002/9525.js?423137\n'
p744
aS'activityi;src=8369552;type=count0;cat=pgope0;ord=2215535404062;gtm=G45;~oref=http%3A%2F%2Fwww.bath.ac.uk%2Fcampaigns%2Fexperience-the-university-at-a-postgraduate-open-day-or-fair%2F?\n'
p745
aS'courses/\n'
p746
aS'students/\n'
p747
aS'staff/\n'
p748
aS'pages/scripts/0002/9525.js?423137\n'
p749
aS'homepage/features/feature645.html?_=1523296646222\n'
p750
aS'common/foundation/css/students-landing.css\n'
p751
aS'common/foundation/js/vendor/modernizr.js\n'
p752
aS'common/foundation/js/foundation.min.js\n'
p753
aS'common/foundation/js/foundation/foundation.interchange.js\n'
p754
aS'students/images/homepage/shape-the-future.jpg\n'
p755
aS'css?family=Libre+Baskerville:400,700|Rokkitt|Handlee|Raleway:400,200,800,600\n'
p756
aS'css?family=Libre+Baskerville:400,700|Rokkitt|Handlee|Raleway:400,200,800,600\n'
p757
aS'common/images/style/students-landing-page/body_bg-fyse.gif\n'
p758
aS'common/images/research-html-bg.gif\n'
p759
aS'common/images/style/search_go.png\n'
p760
aS'common/images/style/search_go.png\n'
p761
aS'common/images/style/sectionTitle_bg.png\n'
p762
aS's/raleway/v12/1Ptrg8zYS_SKggPNwOIpWqZPAA.woff2\n'
p763
aS'common/images/style/findPeople_go.png\n'
p764
aS'staff/images/masthead-bg.png\n'
p765
aS'success.txt\n'
p766
aS'homepage/css/homepage.css\n'
p767
aS'homepage/js/jquery.js\n'
p768
aS'homepage/js/exploreBar.js\n'
p769
aS'homepage/js/cyclefeatures.js\n'
p770
aS'homepage/images/style/search_go.png\n'
p771
aS'common/images/style/findPeople_go.png\n'
p772
aS'homepage/images/style/nav_global_bg.png\n'
p773
aS'homepage/images/style/nav_global_links_bg.png\n'
p774
aS'homepage/images/style/search_bg.png\n'
p775
aS'favicon.ico\n'
p776
aS'homepage/features/feature646.html?_=1523296530696\n'
p777
aS'homepage/images/features/646.jpg\n'
p778
aS'homepage/features/feature641.html?_=1523296540802\n'
p779
aS'homepage/images/features/641.jpg\n'
p780
aS'homepage/features/feature645.html?_=1523296550902\n'
p781
aS'homepage/images/features/645.jpg\n'
p782
aS'success.txt\n'
p783
aS'corporate-information/rankings-and-reputation/\n'
p784
aS'origins/css/bath/site/site.css\n'
p785
aS'origins/universal/images/icons/search-button.svg\n'
p786
aS'origins/universal/images/style/target.svg\n'
p787
aS'origins/universal/images/style/cta-arrow.svg\n'
p788
aS'dv2/14/3ec41f2e-3697-491f-8866-a3fdaa6e1a05.woff2?d44f19a684109620e4841571ae90e818e416d16650146eec36040b3150240d73392ca41abbbad40b03a081ad4af391f37b9719e0b8ce7e3997a0df7ed011da8834ad15916c467ab15916fec382c4a6679cfb97ab7756f50e4b7ec9b441373f9339253ff47ed5bb02923d15347bd2ea94bfe5032a6f7428203f0272ed4c42ccf08e5e5a03aca5873ffdb399d9d9aaccea8a07a06f0dbe65db96102d270d2366a3e08bf642ba2e832d721aa74c44e8ef4a124ff3a4017526d3eba6020710&projectId=b88bad85-b88d-4a23-aa6f-4d4a0469310c\n'
p789
aS'dv2/14/53996aa5-5053-49df-811e-5ff010046f90.woff2?d44f19a684109620e4841571ae90e818e416d16650146eec36040b3150240d73392ca41abbbad40b03a081ad4af391f37b9719e0b8ce7e3997a0df7ed011da8834ad15916c467ab15916fec382c4a6679cfb97ab7756f50e4b7ec9b441373f9339253ff47ed5bb02923d15347bd2ea94bfe5032a6f7428203f0272ed4c42ccf08e5e5a03aca5873ffdb399d9d9aaccea8a07a06f0dbe65db96102d270d2366a3e08bf642ba2e832d721aa74c44e8ef4a124ff3a4017526d3eba6020710&projectId=b88bad85-b88d-4a23-aa6f-4d4a0469310c\n'
p790
aS'gtm.js?id=GTM-NN6ZCP\n'
p791
aS'homepage/features/feature646.html?_=1523296579306\n'
p792
aS'origins/universal/images/favicon/favicon.ico\n'
p793
aS'pages/scripts/0002/9525.js?423137\n'
p794
aS't/1.css?apiType=css&projectid=b88bad85-b88d-4a23-aa6f-4d4a0469310c\n'
p795
aS'origins/universal/images/icons/search-button.svg\n'
p796
aS'origins/universal/images/style/target.svg\n'
p797
aS'origins/universal/images/style/cta-arrow.svg\n'
p798
aS'pages/scripts/0002/9525.js?423137\n'
p799
aS'guides/contacting-the-university/\n'
p800
aS'topics/travel-advice/\n'
p801
aS'lens/css/bath/site/site.css\n'
p802
aS'lens/universal/images/awards/times-sports-uni-2018.svg\n'
p803
aS'lens/universal/images/awards/times-starting-salaries-2018.svg\n'
p804
aS't/1.css?apiType=css&projectid=b88bad85-b88d-4a23-aa6f-4d4a0469310c\n'
p805
aS'lens/universal/images/style/spyglass.svg\n'
p806
aS'lens/universal/images/logo/uob-logo-inverse.svg\n'
p807
aS'homepage/features/feature641.html?_=1523296592438\n'
p808
aS'pages/scripts/0002/9525.js?423137\n'
p809
aS'pages/scripts/0002/9525.js?423137\n'
p810
aS'homepage/features/feature645.html?_=1523296602970\n'
p811
aS'homepage/features/feature646.html?_=1523296623290\n'
p812
aS'campaigns/experience-the-university-at-a-postgraduate-open-day-or-fair/\n'
p813
aS'system/modules/uk.ac.bath.template.common/resources/css/screen-common.css?colour=&internal=&columns=3&background=\n'
p814
aS'system/modules/uk.ac.bath.template.common/resources/css/print-common.css?colour=\n'
p815
aS'topics/studying-at-bath-as-an-international-student/\n'
p816
aS'css?family=Raleway:400,200,800,600\n'
p817
aS'dv2/14/3ec41f2e-3697-491f-8866-a3fdaa6e1a05.woff2?d44f19a684109620e4841571ae90e818e416d16650146eec36040b3150240d73392ca41abbbad40b03a081ad4af391f37b9719e0b8ce7e3997a0df7ed011da8834ad15916c467ab15916fec382c4a6679cfb97ab7756f50e4b7ec9b441373f9339253ff47ed5bb02923d15347bd2ea94bfe5032a6f7428203f0272ed4c42ccf08e5e5a03aca5873ffdb399d9d9aaccea8a07a06f0dbe65db96102d270d2366a3e08bf642ba2e832d721aa74c44e8ef4a124ff3a4017526d3eba6020710&projectId=b88bad85-b88d-4a23-aa6f-4d4a0469310c\n'
p818
aS'origins/universal/images/style/target-section-cta.svg\n'
p819
aS'dv2/14/1357fa21-fb8c-49f8-b721-a7f05bca70bc.woff2?d44f19a684109620e4841571ae90e818e416d16650146eec36040b3150240d73392ca41abbbad40b03a081ad4af391f37b9719e0b8ce7e3997a0df7ed011da8834ad15916c467ab15916fec382c4a6679cfb97ab7756f50e4b7ec9b441373f9339253ff47ed5bb02923d15347bd2ea94bfe5032a6f7428203f0272ed4c42ccf08e5e5a03aca5873ffdb399d9d9aaccea8a07a06f0dbe65db96102d270d2366a3e08bf642ba2e832d721aa74c44e8ef4a124ff3a4017526d3eba6020710&projectId=b88bad85-b88d-4a23-aa6f-4d4a0469310c\n'
p820
aS'gtm.js?id=GTM-NN6ZCP\n'
p821
aS'common/images/graphics/go-button.gif\n'
p822
aS'common/images/graphics/header-background.gif\n'
p823
aS'common/images/graphics/topbar-blue-dark.gif\n'
p824
aS'common/php/topnavbg.php?p=36c\n'
p825
aS'study/ug/\n'
p826
aS'forms/order-the-2019-undergraduate-prospectus/\n'
p827
aS'assets/embed-4dbfd7a8634cab9ca4b7172c30c2fef965e94e7de09a5576f759bb7f41a7dd7b.css\n'
p828
aS'pages/scripts/0002/9525.js?423137\n'
p829
aS'activityi;src=8369552;type=count0;cat=pgope0;ord=2215535404062;gtm=G45;~oref=http%3A%2F%2Fwww.bath.ac.uk%2Fcampaigns%2Fexperience-the-university-at-a-postgraduate-open-day-or-fair%2F?\n'
p830
aS'courses/\n'
p831
aS'students/\n'
p832
aS'staff/\n'
p833
aS'pages/scripts/0002/9525.js?423137\n'
p834
aS'homepage/features/feature645.html?_=1523296646222\n'
p835
aS'common/foundation/css/students-landing.css\n'
p836
aS'common/foundation/js/vendor/modernizr.js\n'
p837
aS'common/foundation/js/foundation.min.js\n'
p838
aS'common/foundation/js/foundation/foundation.interchange.js\n'
p839
aS'students/images/homepage/shape-the-future.jpg\n'
p840
aS'css?family=Libre+Baskerville:400,700|Rokkitt|Handlee|Raleway:400,200,800,600\n'
p841
aS'css?family=Libre+Baskerville:400,700|Rokkitt|Handlee|Raleway:400,200,800,600\n'
p842
aS'common/images/style/students-landing-page/body_bg-fyse.gif\n'
p843
aS'common/images/research-html-bg.gif\n'
p844
aS'common/images/style/search_go.png\n'
p845
aS'common/images/style/search_go.png\n'
p846
aS'common/images/style/sectionTitle_bg.png\n'
p847
aS's/raleway/v12/1Ptrg8zYS_SKggPNwOIpWqZPAA.woff2\n'
p848
aS'common/images/style/findPeople_go.png\n'
p849
aS'staff/images/masthead-bg.png\n'
p850
aS'alumni/images/_landing/hero-image.jpg\n'
p851
aS'alumni/images/style/alt-row-bg.jpg\n'
p852
aS's/raleway/v12/1Ptrg8zYS_SKggPNwIouWqZPAA.woff2\n'
p853
aS'13/4042/2728.png\n'
p854
aS'13/4043/2728.png\n'
p855
aS'success.txt\n'
p856
aS'homepage/css/homepage.css\n'
p857
aS'homepage/js/jquery.js\n'
p858
aS'homepage/js/exploreBar.js\n'
p859
aS'homepage/js/cyclefeatures.js\n'
p860
aS'homepage/images/style/search_go.png\n'
p861
aS'common/images/style/findPeople_go.png\n'
p862
aS'homepage/images/style/nav_global_bg.png\n'
p863
aS'homepage/images/style/nav_global_links_bg.png\n'
p864
aS'homepage/images/style/search_bg.png\n'
p865
aS'favicon.ico\n'
p866
aS'homepage/features/feature646.html?_=1523296530696\n'
p867
aS'homepage/images/features/646.jpg\n'
p868
aS'homepage/features/feature641.html?_=1523296540802\n'
p869
aS'homepage/images/features/641.jpg\n'
p870
aS'homepage/features/feature645.html?_=1523296550902\n'
p871
aS'homepage/images/features/645.jpg\n'
p872
aS'success.txt\n'
p873
aS'corporate-information/rankings-and-reputation/\n'
p874
aS'origins/css/bath/site/site.css\n'
p875
aS'origins/universal/images/icons/search-button.svg\n'
p876
aS'origins/universal/images/style/target.svg\n'
p877
aS'origins/universal/images/style/cta-arrow.svg\n'
p878
aS'dv2/14/3ec41f2e-3697-491f-8866-a3fdaa6e1a05.woff2?d44f19a684109620e4841571ae90e818e416d16650146eec36040b3150240d73392ca41abbbad40b03a081ad4af391f37b9719e0b8ce7e3997a0df7ed011da8834ad15916c467ab15916fec382c4a6679cfb97ab7756f50e4b7ec9b441373f9339253ff47ed5bb02923d15347bd2ea94bfe5032a6f7428203f0272ed4c42ccf08e5e5a03aca5873ffdb399d9d9aaccea8a07a06f0dbe65db96102d270d2366a3e08bf642ba2e832d721aa74c44e8ef4a124ff3a4017526d3eba6020710&projectId=b88bad85-b88d-4a23-aa6f-4d4a0469310c\n'
p879
aS'dv2/14/53996aa5-5053-49df-811e-5ff010046f90.woff2?d44f19a684109620e4841571ae90e818e416d16650146eec36040b3150240d73392ca41abbbad40b03a081ad4af391f37b9719e0b8ce7e3997a0df7ed011da8834ad15916c467ab15916fec382c4a6679cfb97ab7756f50e4b7ec9b441373f9339253ff47ed5bb02923d15347bd2ea94bfe5032a6f7428203f0272ed4c42ccf08e5e5a03aca5873ffdb399d9d9aaccea8a07a06f0dbe65db96102d270d2366a3e08bf642ba2e832d721aa74c44e8ef4a124ff3a4017526d3eba6020710&projectId=b88bad85-b88d-4a23-aa6f-4d4a0469310c\n'
p880
aS'gtm.js?id=GTM-NN6ZCP\n'
p881
aS'homepage/features/feature646.html?_=1523296579306\n'
p882
aS'origins/universal/images/favicon/favicon.ico\n'
p883
aS'pages/scripts/0002/9525.js?423137\n'
p884
aS't/1.css?apiType=css&projectid=b88bad85-b88d-4a23-aa6f-4d4a0469310c\n'
p885
aS'origins/universal/images/icons/search-button.svg\n'
p886
aS'origins/universal/images/style/target.svg\n'
p887
aS'origins/universal/images/style/cta-arrow.svg\n'
p888
aS'pages/scripts/0002/9525.js?423137\n'
p889
aS'guides/contacting-the-university/\n'
p890
aS'topics/travel-advice/\n'
p891
aS'lens/css/bath/site/site.css\n'
p892
aS'lens/universal/images/awards/times-sports-uni-2018.svg\n'
p893
aS'lens/universal/images/awards/times-starting-salaries-2018.svg\n'
p894
aS't/1.css?apiType=css&projectid=b88bad85-b88d-4a23-aa6f-4d4a0469310c\n'
p895
aS'lens/universal/images/style/spyglass.svg\n'
p896
aS'lens/universal/images/logo/uob-logo-inverse.svg\n'
p897
aS'homepage/features/feature641.html?_=1523296592438\n'
p898
aS'pages/scripts/0002/9525.js?423137\n'
p899
aS'pages/scripts/0002/9525.js?423137\n'
p900
aS'homepage/features/feature645.html?_=1523296602970\n'
p901
aS'homepage/features/feature646.html?_=1523296623290\n'
p902
aS'campaigns/experience-the-university-at-a-postgraduate-open-day-or-fair/\n'
p903
aS'system/modules/uk.ac.bath.template.common/resources/css/screen-common.css?colour=&internal=&columns=3&background=\n'
p904
aS'system/modules/uk.ac.bath.template.common/resources/css/print-common.css?colour=\n'
p905
aS'topics/studying-at-bath-as-an-international-student/\n'
p906
aS'css?family=Raleway:400,200,800,600\n'
p907
aS'dv2/14/3ec41f2e-3697-491f-8866-a3fdaa6e1a05.woff2?d44f19a684109620e4841571ae90e818e416d16650146eec36040b3150240d73392ca41abbbad40b03a081ad4af391f37b9719e0b8ce7e3997a0df7ed011da8834ad15916c467ab15916fec382c4a6679cfb97ab7756f50e4b7ec9b441373f9339253ff47ed5bb02923d15347bd2ea94bfe5032a6f7428203f0272ed4c42ccf08e5e5a03aca5873ffdb399d9d9aaccea8a07a06f0dbe65db96102d270d2366a3e08bf642ba2e832d721aa74c44e8ef4a124ff3a4017526d3eba6020710&projectId=b88bad85-b88d-4a23-aa6f-4d4a0469310c\n'
p908
aS'origins/universal/images/style/target-section-cta.svg\n'
p909
aS'dv2/14/1357fa21-fb8c-49f8-b721-a7f05bca70bc.woff2?d44f19a684109620e4841571ae90e818e416d16650146eec36040b3150240d73392ca41abbbad40b03a081ad4af391f37b9719e0b8ce7e3997a0df7ed011da8834ad15916c467ab15916fec382c4a6679cfb97ab7756f50e4b7ec9b441373f9339253ff47ed5bb02923d15347bd2ea94bfe5032a6f7428203f0272ed4c42ccf08e5e5a03aca5873ffdb399d9d9aaccea8a07a06f0dbe65db96102d270d2366a3e08bf642ba2e832d721aa74c44e8ef4a124ff3a4017526d3eba6020710&projectId=b88bad85-b88d-4a23-aa6f-4d4a0469310c\n'
p910
aS'gtm.js?id=GTM-NN6ZCP\n'
p911
aS'common/images/graphics/go-button.gif\n'
p912
aS'common/images/graphics/header-background.gif\n'
p913
aS'common/images/graphics/topbar-blue-dark.gif\n'
p914
aS'common/php/topnavbg.php?p=36c\n'
p915
aS'study/ug/\n'
p916
aS'forms/order-the-2019-undergraduate-prospectus/\n'
p917
aS'assets/embed-4dbfd7a8634cab9ca4b7172c30c2fef965e94e7de09a5576f759bb7f41a7dd7b.css\n'
p918
aS'pages/scripts/0002/9525.js?423137\n'
p919
aS'activityi;src=8369552;type=count0;cat=pgope0;ord=2215535404062;gtm=G45;~oref=http%3A%2F%2Fwww.bath.ac.uk%2Fcampaigns%2Fexperience-the-university-at-a-postgraduate-open-day-or-fair%2F?\n'
p920
aS'courses/\n'
p921
aS'students/\n'
p922
aS'staff/\n'
p923
aS'pages/scripts/0002/9525.js?423137\n'
p924
aS'homepage/features/feature645.html?_=1523296646222\n'
p925
aS'common/foundation/css/students-landing.css\n'
p926
aS'common/foundation/js/vendor/modernizr.js\n'
p927
aS'common/foundation/js/foundation.min.js\n'
p928
aS'common/foundation/js/foundation/foundation.interchange.js\n'
p929
aS'students/images/homepage/shape-the-future.jpg\n'
p930
aS'css?family=Libre+Baskerville:400,700|Rokkitt|Handlee|Raleway:400,200,800,600\n'
p931
aS'css?family=Libre+Baskerville:400,700|Rokkitt|Handlee|Raleway:400,200,800,600\n'
p932
aS'common/images/style/students-landing-page/body_bg-fyse.gif\n'
p933
aS'common/images/research-html-bg.gif\n'
p934
aS'common/images/style/search_go.png\n'
p935
aS'common/images/style/search_go.png\n'
p936
aS'common/images/style/sectionTitle_bg.png\n'
p937
aS's/raleway/v12/1Ptrg8zYS_SKggPNwOIpWqZPAA.woff2\n'
p938
aS'common/images/style/findPeople_go.png\n'
p939
aS'staff/images/masthead-bg.png\n'
p940
aS'alumni/images/_landing/hero-image.jpg\n'
p941
aS'alumni/images/style/alt-row-bg.jpg\n'
p942
aS's/raleway/v12/1Ptrg8zYS_SKggPNwIouWqZPAA.woff2\n'
p943
aS'13/4042/2728.png\n'
p944
aS'13/4043/2728.png\n'
p945
aS'pages/scripts/0002/9525.js?423137\n'
p946
aS'activityi;src=8369552;type=count0;cat=pghom0;ord=5837952367551;gtm=G45;~oref=http%3A%2F%2Fwww.bath.ac.uk%2Ftopics%2Fpostgraduate-study-and-research%2F?\n'
p947
aS'pages/scripts/0002/9525.js?423137\n'
p948
aS'pages/scripts/0002/9525.js?423137\n'
p949
aS'pages/scripts/0002/9525.js?423137\n'
p950
aS'success.txt\n'
p951
aS'homepage/css/homepage.css\n'
p952
aS'homepage/js/jquery.js\n'
p953
aS'homepage/js/exploreBar.js\n'
p954
aS'homepage/js/cyclefeatures.js\n'
p955
aS'homepage/images/style/search_go.png\n'
p956
aS'common/images/style/findPeople_go.png\n'
p957
aS'homepage/images/style/nav_global_bg.png\n'
p958
aS'homepage/images/style/nav_global_links_bg.png\n'
p959
aS'homepage/images/style/search_bg.png\n'
p960
aS'favicon.ico\n'
p961
aS'homepage/features/feature646.html?_=1523296530696\n'
p962
aS'homepage/images/features/646.jpg\n'
p963
aS'homepage/features/feature641.html?_=1523296540802\n'
p964
aS'homepage/images/features/641.jpg\n'
p965
aS'homepage/features/feature645.html?_=1523296550902\n'
p966
aS'homepage/images/features/645.jpg\n'
p967
aS'success.txt\n'
p968
aS'corporate-information/rankings-and-reputation/\n'
p969
aS'origins/css/bath/site/site.css\n'
p970
aS'origins/universal/images/icons/search-button.svg\n'
p971
aS'origins/universal/images/style/target.svg\n'
p972
aS'origins/universal/images/style/cta-arrow.svg\n'
p973
aS'dv2/14/3ec41f2e-3697-491f-8866-a3fdaa6e1a05.woff2?d44f19a684109620e4841571ae90e818e416d16650146eec36040b3150240d73392ca41abbbad40b03a081ad4af391f37b9719e0b8ce7e3997a0df7ed011da8834ad15916c467ab15916fec382c4a6679cfb97ab7756f50e4b7ec9b441373f9339253ff47ed5bb02923d15347bd2ea94bfe5032a6f7428203f0272ed4c42ccf08e5e5a03aca5873ffdb399d9d9aaccea8a07a06f0dbe65db96102d270d2366a3e08bf642ba2e832d721aa74c44e8ef4a124ff3a4017526d3eba6020710&projectId=b88bad85-b88d-4a23-aa6f-4d4a0469310c\n'
p974
aS'dv2/14/53996aa5-5053-49df-811e-5ff010046f90.woff2?d44f19a684109620e4841571ae90e818e416d16650146eec36040b3150240d73392ca41abbbad40b03a081ad4af391f37b9719e0b8ce7e3997a0df7ed011da8834ad15916c467ab15916fec382c4a6679cfb97ab7756f50e4b7ec9b441373f9339253ff47ed5bb02923d15347bd2ea94bfe5032a6f7428203f0272ed4c42ccf08e5e5a03aca5873ffdb399d9d9aaccea8a07a06f0dbe65db96102d270d2366a3e08bf642ba2e832d721aa74c44e8ef4a124ff3a4017526d3eba6020710&projectId=b88bad85-b88d-4a23-aa6f-4d4a0469310c\n'
p975
aS'gtm.js?id=GTM-NN6ZCP\n'
p976
aS'homepage/features/feature646.html?_=1523296579306\n'
p977
aS'origins/universal/images/favicon/favicon.ico\n'
p978
aS'pages/scripts/0002/9525.js?423137\n'
p979
aS't/1.css?apiType=css&projectid=b88bad85-b88d-4a23-aa6f-4d4a0469310c\n'
p980
aS'origins/universal/images/icons/search-button.svg\n'
p981
aS'origins/universal/images/style/target.svg\n'
p982
aS'origins/universal/images/style/cta-arrow.svg\n'
p983
aS'pages/scripts/0002/9525.js?423137\n'
p984
aS'guides/contacting-the-university/\n'
p985
aS'topics/travel-advice/\n'
p986
aS'lens/css/bath/site/site.css\n'
p987
aS'lens/universal/images/awards/times-sports-uni-2018.svg\n'
p988
aS'lens/universal/images/awards/times-starting-salaries-2018.svg\n'
p989
aS't/1.css?apiType=css&projectid=b88bad85-b88d-4a23-aa6f-4d4a0469310c\n'
p990
aS'lens/universal/images/style/spyglass.svg\n'
p991
aS'lens/universal/images/logo/uob-logo-inverse.svg\n'
p992
aS'homepage/features/feature641.html?_=1523296592438\n'
p993
aS'pages/scripts/0002/9525.js?423137\n'
p994
aS'pages/scripts/0002/9525.js?423137\n'
p995
aS'homepage/features/feature645.html?_=1523296602970\n'
p996
aS'homepage/features/feature646.html?_=1523296623290\n'
p997
aS'campaigns/experience-the-university-at-a-postgraduate-open-day-or-fair/\n'
p998
aS'system/modules/uk.ac.bath.template.common/resources/css/screen-common.css?colour=&internal=&columns=3&background=\n'
p999
aS'system/modules/uk.ac.bath.template.common/resources/css/print-common.css?colour=\n'
p1000
aS'topics/studying-at-bath-as-an-international-student/\n'
p1001
aS'css?family=Raleway:400,200,800,600\n'
p1002
aS'dv2/14/3ec41f2e-3697-491f-8866-a3fdaa6e1a05.woff2?d44f19a684109620e4841571ae90e818e416d16650146eec36040b3150240d73392ca41abbbad40b03a081ad4af391f37b9719e0b8ce7e3997a0df7ed011da8834ad15916c467ab15916fec382c4a6679cfb97ab7756f50e4b7ec9b441373f9339253ff47ed5bb02923d15347bd2ea94bfe5032a6f7428203f0272ed4c42ccf08e5e5a03aca5873ffdb399d9d9aaccea8a07a06f0dbe65db96102d270d2366a3e08bf642ba2e832d721aa74c44e8ef4a124ff3a4017526d3eba6020710&projectId=b88bad85-b88d-4a23-aa6f-4d4a0469310c\n'
p1003
aS'origins/universal/images/style/target-section-cta.svg\n'
p1004
aS'dv2/14/1357fa21-fb8c-49f8-b721-a7f05bca70bc.woff2?d44f19a684109620e4841571ae90e818e416d16650146eec36040b3150240d73392ca41abbbad40b03a081ad4af391f37b9719e0b8ce7e3997a0df7ed011da8834ad15916c467ab15916fec382c4a6679cfb97ab7756f50e4b7ec9b441373f9339253ff47ed5bb02923d15347bd2ea94bfe5032a6f7428203f0272ed4c42ccf08e5e5a03aca5873ffdb399d9d9aaccea8a07a06f0dbe65db96102d270d2366a3e08bf642ba2e832d721aa74c44e8ef4a124ff3a4017526d3eba6020710&projectId=b88bad85-b88d-4a23-aa6f-4d4a0469310c\n'
p1005
aS'gtm.js?id=GTM-NN6ZCP\n'
p1006
aS'common/images/graphics/go-button.gif\n'
p1007
aS'common/images/graphics/header-background.gif\n'
p1008
aS'common/images/graphics/topbar-blue-dark.gif\n'
p1009
aS'common/php/topnavbg.php?p=36c\n'
p1010
aS'study/ug/\n'
p1011
aS'forms/order-the-2019-undergraduate-prospectus/\n'
p1012
aS'assets/embed-4dbfd7a8634cab9ca4b7172c30c2fef965e94e7de09a5576f759bb7f41a7dd7b.css\n'
p1013
aS'pages/scripts/0002/9525.js?423137\n'
p1014
aS'activityi;src=8369552;type=count0;cat=pgope0;ord=2215535404062;gtm=G45;~oref=http%3A%2F%2Fwww.bath.ac.uk%2Fcampaigns%2Fexperience-the-university-at-a-postgraduate-open-day-or-fair%2F?\n'
p1015
aS'courses/\n'
p1016
aS'students/\n'
p1017
aS'staff/\n'
p1018
aS'pages/scripts/0002/9525.js?423137\n'
p1019
aS'homepage/features/feature645.html?_=1523296646222\n'
p1020
aS'common/foundation/css/students-landing.css\n'
p1021
aS'common/foundation/js/vendor/modernizr.js\n'
p1022
aS'common/foundation/js/foundation.min.js\n'
p1023
aS'common/foundation/js/foundation/foundation.interchange.js\n'
p1024
aS'students/images/homepage/shape-the-future.jpg\n'
p1025
aS'css?family=Libre+Baskerville:400,700|Rokkitt|Handlee|Raleway:400,200,800,600\n'
p1026
aS'css?family=Libre+Baskerville:400,700|Rokkitt|Handlee|Raleway:400,200,800,600\n'
p1027
aS'common/images/style/students-landing-page/body_bg-fyse.gif\n'
p1028
aS'common/images/research-html-bg.gif\n'
p1029
aS'common/images/style/search_go.png\n'
p1030
aS'common/images/style/search_go.png\n'
p1031
aS'common/images/style/sectionTitle_bg.png\n'
p1032
aS's/raleway/v12/1Ptrg8zYS_SKggPNwOIpWqZPAA.woff2\n'
p1033
aS'common/images/style/findPeople_go.png\n'
p1034
aS'staff/images/masthead-bg.png\n'
p1035
aS'alumni/images/_landing/hero-image.jpg\n'
p1036
aS'alumni/images/style/alt-row-bg.jpg\n'
p1037
aS's/raleway/v12/1Ptrg8zYS_SKggPNwIouWqZPAA.woff2\n'
p1038
aS'13/4042/2728.png\n'
p1039
aS'13/4043/2728.png\n'
p1040
aS'pages/scripts/0002/9525.js?423137\n'
p1041
aS'activityi;src=8369552;type=count0;cat=pghom0;ord=5837952367551;gtm=G45;~oref=http%3A%2F%2Fwww.bath.ac.uk%2Ftopics%2Fpostgraduate-study-and-research%2F?\n'
p1042
aS'pages/scripts/0002/9525.js?423137\n'
p1043
aS'pages/scripts/0002/9525.js?423137\n'
p1044
aS'pages/scripts/0002/9525.js?423137\n'
p1045
aS'assets/images/marker-icon-574c3a5cca85f4114085b6841596d62f00d7c892c7b03f28cbfa301deb1dc437.png\n'
p1046
aS'assets/images/marker-shadow-264f5c640339f042dd729062cfc04c17f8ea0f29882b538e3848ed8f10edb4da.png\n'
p1047
aS'17/64687/43658.png\n'
p1048
aS'17/64688/43658.png\n'
p1049
aS'17/64687/43657.png\n'
p1050
a.