(lp0
S'enterprise/support-staff-and-students/javascript:void(0)'
p1
aS'enterprise/partner-ucl/javascript:void(0)'
p2
aS'enterprise/entrepreneurship-ucl/javascript:void(0)'
p3
aS'enterprise/access-research-and-expertise/javascript:void(0)'
p4
aS'enterprise/short-courses/javascript:void(0)'
p5
aS'enterprise/london/javascript:void(0)'
p6
aS'enterprise/success-stories/javascript:void(0)'
p7
aS'enterprise/news/javascript:void(0)'
p8
aS'enterprise/events/javascript:void(0)'
p9
aS'enterprise/about/javascript:void(0)'
p10
aS'consultants/javascript:void(0)'
p11
aS'consultants/index_right/javascript:void(0)'
p12
aS'consultants/about-us/javascript:void(0)'
p13
aS'consultants/our-services/javascript:void(0)'
p14
aS'consultants/news/javascript:void(0)'
p15
aS'consultants/uclc-case-studies/javascript:void(0)'
p16
aS'consultants/ucl-staff-info/javascript:void(0)'
p17
aS'consultants/events/javascript:void(0)'
p18
aS'consultants/our-services/consultancy//javascript:void(0)'
p19
aS'consultants/ucl-staff-info//javascript:void(0)'
p20
aS'consultants/our-services/testing-analysis//javascript:void(0)'
p21
aS'consultants/our-services/expert-witness//javascript:void(0)'
p22
aS'consultants/contact//javascript:void(0)'
p23
aS'consultants/uclc-news/co2shipping/javascript:void(0)'
p24
aS'consultants/uclc-news/gdpr/javascript:void(0)'
p25
aS'consultants/uclc-news/shearing/javascript:void(0)'
p26
aS'consultants/consultants/news/javascript:void(0)'
p27
aS'consultants/case-studies-pub/maas/javascript:void(0)'
p28
aS'consultants/case-studies-pub/loreal/javascript:void(0)'
p29
aS'consultants/case-studies-pub/srrf/javascript:void(0)'
p30
aS'consultants/case-studies-pub/autonomous/javascript:void(0)'
p31
aS'consultants/case-studies-pub/ExpertWintess/javascript:void(0)'
p32
aS'consultants/about-us/themes-and-capabilities/javascript:void(0)'
p33
aS'consultants/uclc-news/ice/javascript:void(0)'
p34
aS'consultants/uclc-news/somaliland/javascript:void(0)'
p35
aS'consultants/news-viewer/javascript:void(0)'
p36
aS'about/how/faculties//javascript:void(0)'
p37
aS'about//javascript:void(0)'
p38
aS'about/who/javascript:void(0)'
p39
aS'about/what/javascript:void(0)'
p40
aS'about/why/javascript:void(0)'
p41
aS'about/where/javascript:void(0)'
p42
aS'about/how/javascript:void(0)'
p43
aS'about/how/institutional-plans-strategies/javascript:void(0)'
p44
aS'about/how/financial-information/javascript:void(0)'
p45
aS'about/how/case-studies/javascript:void(0)'
p46
aS'ah/javascript:void(0)'
p47
aS'arts-humanities'
p48
aS'ah/departments-centres/javascript:void(0)'
p49
aS'arts-humanities'
p50
aS'ah/contact-us/faculty-officers/javascript:void(0)'
p51
aS'arts-humanities'
p52
aS'bartlett/javascript:void(0)'
p53
aS'bartlett/who-we-are/javascript:void(0)'
p54
aS'bartlett/about-us/contact-us/javascript:void(0)'
p55
aS'brain-sciences/javascript:void(0)'
p56
aS'brain-sciences/divisions/javascript:void(0)'
p57
aS'brain-sciences/our-people/faculty-contacts/javascript:void(0)'
p58
aS'/www.youtube.com/upload'
p59
aS'www.youtube.com/upload'
p60
aS'user/UCLTV'
p61
aS'user/UCLTV/featured?disable_polymer=1'
p62
aS'user/UCLTV/videos?disable_polymer=1'
p63
aS'user/UCLTV/playlists?disable_polymer=1'
p64
aS'user/UCLTV/community?disable_polymer=1'
p65
aS'user/UCLTV/channels?disable_polymer=1'
p66
aS'user/UCLTV/about?disable_polymer=1'
p67
aS'feed/trending'
p68
aS'feed/history'
p69
aS'channel/UC-9-kyTW8ZkZNDHQJ6FgpwQ'
p70
aS'channel/UCEgdi0XIXXZ-qJOFPf4JSKw'
p71
aS'channel/UCOpNcN46UbXVtpKMrmU4Abg'
p72
aS'channel/UClgRkhTL3_hImCAmdLfDE4g'
p73
aS'channel/UCwWxEudXr2xxrbVfulvvd8g'
p74
aS'channel/UCYfdidRxbB8Qhf0Nx7ioOYw'
p75
aS'channel/UC4R8DWoMoI7CAwX8_LjQHig'
p76
aS'channel/UCULkRHBdLC5ZcEQBaL0oYHQ'
p77
aS'channel/UCzuqhhs6NWbgTzMuM09WKDQ'
p78
aS'feed/guide_builder'
p79
aS'/support.google.com/youtube/answer/1738660?hl=en-GB'
p80
aS'support.google.com/youtube/answer/1738660?hl=en-GB'
p81
aS'/javascript:void(0)'
p82
aS'javascript:void(0'
p83
aS'/support.google.com/youtube/answer/1738660?hl=en'
p84
aS'support.google.com/youtube/answer/1738660?hl=en'
p85
aS'watch?v=0GY8ba4RV98&list=PL59730E653A893557'
p86
aS'news/watching-stressful-movies-triggers-changes-heartbeat/?v=0GY8ba4RV98&list=PL59730E653A893557'
p87
aS'watch?v=0GY8ba4RV98&list=PL59730E653A893557&index=1&t=0s'
p88
aS'news/watching-stressful-movies-triggers-changes-heartbeat/?v=0GY8ba4RV98&list=PL59730E653A893557&index=1&t=0s'
p89
aS'watch?v=w7dsVjWRitI&list=PL59730E653A893557&index=2&t=0s'
p90
aS'news/watching-stressful-movies-triggers-changes-heartbeat/?v=w7dsVjWRitI&list=PL59730E653A893557&index=2&t=0s'
p91
aS'watch?v=wQAYM48pVOs&list=PL59730E653A893557&index=3&t=0s'
p92
aS'news/watching-stressful-movies-triggers-changes-heartbeat/?v=wQAYM48pVOs&list=PL59730E653A893557&index=3&t=0s'
p93
aS'watch?v=pAw5rjgHWc0&list=PL59730E653A893557&index=4&t=0s'
p94
aS'news/watching-stressful-movies-triggers-changes-heartbeat/?v=pAw5rjgHWc0&list=PL59730E653A893557&index=4&t=0s'
p95
aS'user/wellcometrust'
p96
aS'watch?v=Zft3V7o6-YY&list=PL59730E653A893557&index=5&t=0s'
p97
aS'news/watching-stressful-movies-triggers-changes-heartbeat/?v=Zft3V7o6-YY&list=PL59730E653A893557&index=5&t=0s'
p98
aS'user/UCLCancerTrust'
p99
aS'watch?v=PvYP19yI06E&list=PL59730E653A893557&index=6&t=0s'
p100
aS'news/watching-stressful-movies-triggers-changes-heartbeat/?v=PvYP19yI06E&list=PL59730E653A893557&index=6&t=0s'
p101
aS'channel/UC4vT4f3W7WnD-hZtsW0xKag'
p102
aS'watch?v=4vGeKIRqh4o&list=PL59730E653A893557&index=7&t=0s'
p103
aS'news/watching-stressful-movies-triggers-changes-heartbeat/?v=4vGeKIRqh4o&list=PL59730E653A893557&index=7&t=0s'
p104
aS'channel/UCqzTNFewjFi9mgU0o-sh2zQ'
p105
aS'departments-index/javascript:void(0)'
p106
aS'departments-index/javascript:void(0'
p107
aS'people-list/javascript:void(0)'
p108
aS'people-list/javascript:void(0'
p109
aS'ioe/departments-centres/javascript:void(0)'
p110
aS'ioe/about/senior-team/javascript:void(0)'
p111
aS'/www.youtube.com/upload'
p112
aS'user/UCLTV'
p113
aS'user/UCLTV/featured?disable_polymer=1'
p114
aS'user/UCLTV/videos?disable_polymer=1'
p115
aS'user/UCLTV/playlists?disable_polymer=1'
p116
aS'user/UCLTV/community?disable_polymer=1'
p117
aS'user/UCLTV/channels?disable_polymer=1'
p118
aS'user/UCLTV/about?disable_polymer=1'
p119
aS'feed/trending'
p120
aS'feed/history'
p121
aS'channel/UC-9-kyTW8ZkZNDHQJ6FgpwQ'
p122
aS'channel/UCEgdi0XIXXZ-qJOFPf4JSKw'
p123
aS'channel/UCOpNcN46UbXVtpKMrmU4Abg'
p124
aS'channel/UClgRkhTL3_hImCAmdLfDE4g'
p125
aS'channel/UCwWxEudXr2xxrbVfulvvd8g'
p126
aS'channel/UCYfdidRxbB8Qhf0Nx7ioOYw'
p127
aS'channel/UC4R8DWoMoI7CAwX8_LjQHig'
p128
aS'channel/UCULkRHBdLC5ZcEQBaL0oYHQ'
p129
aS'channel/UCzuqhhs6NWbgTzMuM09WKDQ'
p130
aS'feed/guide_builder'
p131
aS'/support.google.com/youtube/answer/1738660?hl=en-GB'
p132
aS'/javascript:void(0)'
p133
aS'/support.google.com/youtube/answer/1738660?hl=en'
p134
aS'watch?v=0GY8ba4RV98&list=PL59730E653A893557'
p135
aS'watch?v=0GY8ba4RV98&list=PL59730E653A893557&index=1&t=0s'
p136
aS'watch?v=w7dsVjWRitI&list=PL59730E653A893557&index=2&t=0s'
p137
aS'watch?v=wQAYM48pVOs&list=PL59730E653A893557&index=3&t=0s'
p138
aS'watch?v=pAw5rjgHWc0&list=PL59730E653A893557&index=4&t=0s'
p139
aS'user/wellcometrust'
p140
aS'watch?v=Zft3V7o6-YY&list=PL59730E653A893557&index=5&t=0s'
p141
aS'user/UCLCancerTrust'
p142
aS'watch?v=PvYP19yI06E&list=PL59730E653A893557&index=6&t=0s'
p143
aS'channel/UC4vT4f3W7WnD-hZtsW0xKag'
p144
aS'watch?v=4vGeKIRqh4o&list=PL59730E653A893557&index=7&t=0s'
p145
aS'channel/UCqzTNFewjFi9mgU0o-sh2zQ'
p146
aS'lifesciences-faculty/javascript:void(0)'
p147
aS'lifesciences-faculty/people/javascript:void(0)'
p148
aS'mathematical-physical-sciences/javascript:void(0)'
p149
aS'mathematical-physical-sciences/departments-institutes/javascript:void(0)'
p150
aS'mathematical-physical-sciences/about-the-faculty/about-the-dean/javascript:void(0)'
p151
aS'medical-sciences/javascript:void(0)'
p152
aS'medical-sciences/about-us/javascript:void(0)'
p153
aS'medical-sciences/contacts/javascript:void(0)'
p154
aS'populationhealth-sciences/javascript:void(0)'
p155
aS'populationhealth-sciences/our-institutes/javascript:void(0)'
p156
aS'populationhealth-sciences/faculty-contacts/javascript:void(0)'
p157
aS'shs/javascript:void(0)'
p158
aS'shs/departments-centres/javascript:void(0)'
p159
aS'shs/contact-us/facultystaff/javascript:void(0)'
p160
aS'procurement/suppliers/slavery-stmt//javascript:void(0)'
p161
aS'procurement/index_right/javascript:void(0)'
p162
aS'procurement/suppliers/javascript:void(0)'
p163
aS'procurement/sustainability/javascript:void(0)'
p164
aS'procurement/faq/javascript:void(0)'
p165
aS'finance/purchasing/new-suppliers/javascript:void(0)'
p166
aS'finance//javascript:void(0)'
p167
aS'research-services/javascript:void(0)'
p168
aS'prospective-students/undergraduate/degrees///javascript:void(0)'
p169
aS'prospective-students/undergraduate/degrees/2019/javascript:void(0)'
p170
aS'prospective-students/undergraduate/degrees/2018/javascript:void(0)'
p171
aS'prospective-students/undergraduate/degrees/javascript:void(0)'
p172
aS'prospective-students/undergraduate/subject-areas/javascript:void(0)'
p173
aS'prospective-students/undergraduate/application/how-to-apply/ucas/javascript:void(0)'
p174
aS'prospective-students/undergraduate/application/how-to-apply/law-and-medicine-applicants/javascript:void(0)'
p175
aS'prospective-students/undergraduate/application/how-to-apply/international/javascript:void(0)'
p176
aS'prospective-students/undergraduate/application/how-to-apply/affiliate/javascript:void(0)'
p177
aS'prospective-students/undergraduate/application/how-to-apply/mature-part-time-advanced/javascript:void(0)'
p178
aS'prospective-students/undergraduate/application/how-to-apply/equality/javascript:void(0)'
p179
aS'prospective-students/undergraduate/application/how-to-apply/information-for-referees/javascript:void(0)'
p180
aS'prospective-students/undergraduate/application/requirements/a-level-gcse/javascript:void(0)'
p181
aS'prospective-students/undergraduate/application/requirements/preferred-a-level-subjects/javascript:void(0)'
p182
aS'prospective-students/undergraduate/application/requirements/other-qualifications/javascript:void(0)'
p183
aS'prospective-students/undergraduate/application/requirements/international-baccalaureate/javascript:void(0)'
p184
aS'prospective-students/undergraduate/application/requirements/international-qualifications/javascript:void(0)'
p185
aS'prospective-students/undergraduate/application/requirements/access-ucl/javascript:void(0)'
p186
aS'prospective-students/undergraduate/application/requirements/english-requirements/javascript:void(0)'
p187
aS'prospective-students/undergraduate/application/requirements/accepted-english-qualifications/javascript:void(0)'
p188
aS'prospective-students/undergraduate/application/requirements/undergraduate-preparatory-certificates/javascript:void(0)'
p189
aS'prospective-students/undergraduate/fees-funding/tuition-fees/classification/javascript:void(0)'
p190
aS'prospective-students/undergraduate/fees-funding/tuition-fees/uk-eu/javascript:void(0)'
p191
aS'prospective-students/undergraduate/fees-funding/tuition-fees/overseas/javascript:void(0)'
p192
aS'prospective-students/undergraduate/fees-funding/tuition-fees/living-expenses-and-additional-costs/javascript:void(0)'
p193
aS'prospective-students/undergraduate/fees-funding/uk-eu/maintenance-loans/javascript:void(0)'
p194
aS'prospective-students/undergraduate/fees-funding/uk-eu/grants-bursaries/javascript:void(0)'
p195
aS'prospective-students/undergraduate/fees-funding/uk-eu/studying-abroad/javascript:void(0)'
p196
aS'prospective-students/undergraduate/fees-funding/uk-eu/disabilities/javascript:void(0)'
p197
aS'prospective-students/undergraduate/fees-funding/uk-eu/working/javascript:void(0)'
p198
aS'prospective-students/undergraduate/fees-funding/international/scholarships/javascript:void(0)'
p199
aS'prospective-students/undergraduate/fees-funding/international/disabilities/javascript:void(0)'
p200
aS'prospective-students/undergraduate/fees-funding/international/working/javascript:void(0)'
p201
aS'prospective-students/undergraduate/fees-funding/international/further-information/javascript:void(0)'
p202
aS'prospective-students/undergraduate/employability/careers-skills/services/javascript:void(0)'
p203
aS'prospective-students/undergraduate/employability/careers-skills/networking/javascript:void(0)'
p204
aS'prospective-students/undergraduate/employability/careers-skills/destinations/javascript:void(0)'
p205
aS'prospective-students/undergraduate/employability/entrepreneurship/societies/javascript:void(0)'
p206
aS'prospective-students/undergraduate/employability/alumni/community/javascript:void(0)'
p207
aS'prospective-students/undergraduate/employability/alumni/supporting-your-career/javascript:void(0)'
p208
aS'prospective-students/undergraduate/london/accommodation/guarantee/javascript:void(0)'
p209
aS'prospective-students/undergraduate/london/accommodation/types/javascript:void(0)'
p210
aS'prospective-students/undergraduate/london/accommodation/fees/javascript:void(0)'
p211
aS'prospective-students/undergraduate/london/leisure/cultural-academic-resources/javascript:void(0)'
p212
aS'prospective-students/undergraduate/london/leisure/entertainment/javascript:void(0)'
p213
aS'prospective-students/undergraduate/student-life/teaching-learning/research-based-learning/javascript:void(0)'
p214
aS'prospective-students/undergraduate/student-life/teaching-learning/skills/javascript:void(0)'
p215
aS'prospective-students/undergraduate/student-life/teaching-learning/global-citizenship/javascript:void(0)'
p216
aS'prospective-students/undergraduate/student-life/teaching-learning/study-abroad/javascript:void(0)'
p217
aS'prospective-students/undergraduate/student-life/teaching-learning/placements/javascript:void(0)'
p218
aS'prospective-students/undergraduate/student-life/campus-facilities/academic-resources/javascript:void(0)'
p219
aS'prospective-students/undergraduate/student-life/campus-facilities/entertainment/javascript:void(0)'
p220
aS'prospective-students/undergraduate/student-life/campus-facilities/contemplation/javascript:void(0)'
p221
aS'prospective-students/undergraduate/student-life/support-welfare/all-students/javascript:void(0)'
p222
aS'prospective-students/undergraduate/student-life/support-welfare/international/javascript:void(0)'
p223
aS'prospective-students/undergraduate/student-life/clubs-volunteering/students-union/javascript:void(0)'
p224
aS'prospective-students/undergraduate/student-life/clubs-volunteering/ambassadors/javascript:void(0)'
p225
aS'prospective-students/undergraduate/student-life/clubs-volunteering/partnerships/javascript:void(0)'
p226
aS'prospective-students/undergraduate//javascript:void(0)'
p227
aS'prospective-students/undergraduate/ucl-plus//javascript:void(0)'
p228
aS'prospective-students/access-ucl/contacting-ucl//javascript:void(0)'
p229
aS'prospective-students/access-ucl/javascript:void(0)'
p230
aS'prospective-students/home-link/javascript:void(0)'
p231
aS'prospective-students/register-your-interest/javascript:void(0)'
p232
aS'prospective-students/widening-participation/javascript:void(0)'
p233
aS'prospective-students/access-ucl/open-days/javascript:void(0)'
p234
aS'prospective-students/access-ucl/location-and-travel/javascript:void(0)'
p235
aS'prospective-students/access-ucl/visits/javascript:void(0)'
p236
aS'prospective-students/access-ucl/request-information/javascript:void(0)'
p237
aS'prospective-students/disclaimer/javascript:void(0)'
p238
aS'contact-list//javascript:void(0)'
p239
aS'access//javascript:void(0)'
p240
aS'prospective-students/widening-participation/about-us/access//javascript:void(0)'
p241
aS'prospective-students/widening-participation/about-us/javascript:void(0)'
p242
aS'prospective-students/widening-participation/about-us/location/javascript:void(0)'
p243
aS'prospective-students/widening-participation/about-us/care/javascript:void(0)'
p244
aS'prospective-students/widening-participation/about-us/child-protection/javascript:void(0)'
p245
aS'prospective-students/widening-participation/about-us/disabled-students/javascript:void(0)'
p246
aS'prospective-students/widening-participation/current-students/javascript:void(0)'
p247
aS'prospective-students/widening-participation/visits/javascript:void(0)'
p248
aS'prospective-students/widening-participation/ucas-fairs/javascript:void(0)'
p249
aS'prospective-students/widening-participation/contact-us/javascript:void(0)'
p250
aS'prospective-students/widening-participation/teachers-and-education-professionals/javascript:void(0)'
p251
aS'prospective-students/widening-participation/open2016day/javascript:void(0)'
p252
aS'/www.youtube.com/upload'
p253
aS'user/UCLTV'
p254
aS'user/UCLTV/featured?disable_polymer=1'
p255
aS'user/UCLTV/videos?disable_polymer=1'
p256
aS'user/UCLTV/playlists?disable_polymer=1'
p257
aS'user/UCLTV/community?disable_polymer=1'
p258
aS'user/UCLTV/channels?disable_polymer=1'
p259
aS'user/UCLTV/about?disable_polymer=1'
p260
aS'feed/trending'
p261
aS'feed/history'
p262
aS'channel/UC-9-kyTW8ZkZNDHQJ6FgpwQ'
p263
aS'channel/UCEgdi0XIXXZ-qJOFPf4JSKw'
p264
aS'channel/UCOpNcN46UbXVtpKMrmU4Abg'
p265
aS'channel/UClgRkhTL3_hImCAmdLfDE4g'
p266
aS'channel/UCwWxEudXr2xxrbVfulvvd8g'
p267
aS'channel/UCYfdidRxbB8Qhf0Nx7ioOYw'
p268
aS'channel/UC4R8DWoMoI7CAwX8_LjQHig'
p269
aS'channel/UCULkRHBdLC5ZcEQBaL0oYHQ'
p270
aS'channel/UCzuqhhs6NWbgTzMuM09WKDQ'
p271
aS'feed/guide_builder'
p272
aS'/support.google.com/youtube/answer/1738660?hl=en-GB'
p273
aS'javascript:void(0)'
p274
aS'/support.google.com/youtube/answer/1738660?hl=en'
p275
aS'watch?v=0GY8ba4RV98&list=PL59730E653A893557'
p276
aS'watch?v=0GY8ba4RV98&list=PL59730E653A893557&index=1&t=0s'
p277
aS'watch?v=w7dsVjWRitI&list=PL59730E653A893557&index=2&t=0s'
p278
aS'watch?v=wQAYM48pVOs&list=PL59730E653A893557&index=3&t=0s'
p279
aS'watch?v=pAw5rjgHWc0&list=PL59730E653A893557&index=4&t=0s'
p280
aS'user/wellcometrust'
p281
aS'watch?v=Zft3V7o6-YY&list=PL59730E653A893557&index=5&t=0s'
p282
aS'user/UCLCancerTrust'
p283
aS'watch?v=PvYP19yI06E&list=PL59730E653A893557&index=6&t=0s'
p284
aS'channel/UC4vT4f3W7WnD-hZtsW0xKag'
p285
aS'watch?v=4vGeKIRqh4o&list=PL59730E653A893557&index=7&t=0s'
p286
aS'channel/UCqzTNFewjFi9mgU0o-sh2zQ'
p287
aS'prospective-students/graduate//javascript:void(0)'
p288
aS'prospective-students/graduate/apply//javascript:void(0)'
p289
aS'prospective-students/graduate/apply/ITE-apply/javascript:void(0)'
p290
aS'prospective-students/graduate/apply-graduate-study/special-arrangements/graduate-programmes-no-online-applications/javascript:void(0)'
p291
aS'prospective-students/graduate/apply-graduate-study/what-you-need/javascript:void(0)'
p292
aS'prospective-students/graduate/apply-graduate-study/complete/form-guidance/online/javascript:void(0)'
p293
aS'prospective-students/graduate/apply/taught/application-fees/javascript:void(0)'
p294
aS'prospective-students/graduate/taught/application/application-fees/'
p295
aS'finance/students/online-payment-terms/javascript:void(0)'
p296
aS'prospective-students/graduate/research/funded-opportunities/studentships//javascript:void(0)'
p297
aS'/research-integrity//javascript:void(0)'
p298
aS'essinfo//javascript:void(0)'
p299
aS'strategy/javascript:void(0)'
p300
aS'support-and-advice/javascript:void(0)'
p301
aS'events//javascript:void(0)'
p302
aS'societies//javascript:void(0)'
p303
aS'postgrad-teaching-assistants//javascript:void(0)'
p304
aS'istudy//javascript:void(0)'
p305
aS'contact//javascript:void(0)'
p306
aS'/comp/2017-2018/research//javascript:void(0)'
p307
aS'/comp/2017-2018/poster/javascript:void(0)'
p308
aS'/survey//javascript:void(0)'
p309
aS'/change-makers//javascript:void(0)'
p310
aS'/yale-ucl//javascript:void(0)'
p311
aS'/javascript:void(0)'
p312
aS'/www.youtube.com/upload'
p313
aS'user/UCLTV'
p314
aS'user/UCLTV/featured?disable_polymer=1'
p315
aS'user/UCLTV/videos?disable_polymer=1'
p316
aS'user/UCLTV/playlists?disable_polymer=1'
p317
aS'user/UCLTV/community?disable_polymer=1'
p318
aS'user/UCLTV/channels?disable_polymer=1'
p319
aS'user/UCLTV/about?disable_polymer=1'
p320
aS'feed/trending'
p321
aS'feed/history'
p322
aS'channel/UC-9-kyTW8ZkZNDHQJ6FgpwQ'
p323
aS'channel/UCEgdi0XIXXZ-qJOFPf4JSKw'
p324
aS'channel/UCOpNcN46UbXVtpKMrmU4Abg'
p325
aS'channel/UClgRkhTL3_hImCAmdLfDE4g'
p326
aS'channel/UCwWxEudXr2xxrbVfulvvd8g'
p327
aS'channel/UCYfdidRxbB8Qhf0Nx7ioOYw'
p328
aS'channel/UC4R8DWoMoI7CAwX8_LjQHig'
p329
aS'channel/UCULkRHBdLC5ZcEQBaL0oYHQ'
p330
aS'channel/UCzuqhhs6NWbgTzMuM09WKDQ'
p331
aS'feed/guide_builder'
p332
aS'/support.google.com/youtube/answer/1738660?hl=en-GB'
p333
aS'/javascript:void(0)'
p334
aS'/support.google.com/youtube/answer/1738660?hl=en'
p335
aS'watch?v=0GY8ba4RV98&list=PL59730E653A893557'
p336
aS'watch?v=0GY8ba4RV98&list=PL59730E653A893557&index=1&t=0s'
p337
aS'watch?v=w7dsVjWRitI&list=PL59730E653A893557&index=2&t=0s'
p338
aS'watch?v=wQAYM48pVOs&list=PL59730E653A893557&index=3&t=0s'
p339
aS'watch?v=pAw5rjgHWc0&list=PL59730E653A893557&index=4&t=0s'
p340
aS'user/wellcometrust'
p341
aS'watch?v=Zft3V7o6-YY&list=PL59730E653A893557&index=5&t=0s'
p342
aS'user/UCLCancerTrust'
p343
aS'watch?v=PvYP19yI06E&list=PL59730E653A893557&index=6&t=0s'
p344
aS'channel/UC4vT4f3W7WnD-hZtsW0xKag'
p345
aS'watch?v=4vGeKIRqh4o&list=PL59730E653A893557&index=7&t=0s'
p346
aS'channel/UCqzTNFewjFi9mgU0o-sh2zQ'
p347
aS'careers/about/eligibility/researchers/javascript:void(0)'
p348
aS'research-it-services//javascript:void(0)'
p349
aS'ccs/javascript:void(0)'
p350
aS'/www.youtube.com/upload'
p351
aS'user/UCLTV'
p352
aS'user/UCLTV/featured?disable_polymer=1'
p353
aS'user/UCLTV/videos?disable_polymer=1'
p354
aS'user/UCLTV/playlists?disable_polymer=1'
p355
aS'user/UCLTV/community?disable_polymer=1'
p356
aS'user/UCLTV/channels?disable_polymer=1'
p357
aS'user/UCLTV/about?disable_polymer=1'
p358
aS'feed/trending'
p359
aS'feed/history'
p360
aS'channel/UC-9-kyTW8ZkZNDHQJ6FgpwQ'
p361
aS'channel/UCEgdi0XIXXZ-qJOFPf4JSKw'
p362
aS'channel/UCOpNcN46UbXVtpKMrmU4Abg'
p363
aS'channel/UClgRkhTL3_hImCAmdLfDE4g'
p364
aS'channel/UCwWxEudXr2xxrbVfulvvd8g'
p365
aS'channel/UCYfdidRxbB8Qhf0Nx7ioOYw'
p366
aS'channel/UC4R8DWoMoI7CAwX8_LjQHig'
p367
aS'channel/UCULkRHBdLC5ZcEQBaL0oYHQ'
p368
aS'channel/UCzuqhhs6NWbgTzMuM09WKDQ'
p369
aS'feed/guide_builder'
p370
aS'/support.google.com/youtube/answer/1738660?hl=en-GB'
p371
aS'/javascript:void(0)'
p372
aS'/support.google.com/youtube/answer/1738660?hl=en'
p373
aS'watch?v=0GY8ba4RV98&list=PL59730E653A893557'
p374
aS'watch?v=0GY8ba4RV98&list=PL59730E653A893557&index=1&t=0s'
p375
aS'watch?v=w7dsVjWRitI&list=PL59730E653A893557&index=2&t=0s'
p376
aS'watch?v=wQAYM48pVOs&list=PL59730E653A893557&index=3&t=0s'
p377
aS'watch?v=pAw5rjgHWc0&list=PL59730E653A893557&index=4&t=0s'
p378
aS'user/wellcometrust'
p379
aS'watch?v=Zft3V7o6-YY&list=PL59730E653A893557&index=5&t=0s'
p380
aS'user/UCLCancerTrust'
p381
aS'watch?v=PvYP19yI06E&list=PL59730E653A893557&index=6&t=0s'
p382
aS'channel/UC4vT4f3W7WnD-hZtsW0xKag'
p383
aS'watch?v=4vGeKIRqh4o&list=PL59730E653A893557&index=7&t=0s'
p384
aS'channel/UCqzTNFewjFi9mgU0o-sh2zQ'
p385
aS'/www.youtube.com/upload'
p386
aS'user/UCLTV'
p387
aS'user/UCLTV/featured?disable_polymer=1'
p388
aS'user/UCLTV/videos?disable_polymer=1'
p389
aS'user/UCLTV/playlists?disable_polymer=1'
p390
aS'user/UCLTV/community?disable_polymer=1'
p391
aS'user/UCLTV/channels?disable_polymer=1'
p392
aS'user/UCLTV/about?disable_polymer=1'
p393
aS'feed/trending'
p394
aS'feed/history'
p395
aS'channel/UC-9-kyTW8ZkZNDHQJ6FgpwQ'
p396
aS'channel/UCEgdi0XIXXZ-qJOFPf4JSKw'
p397
aS'channel/UCOpNcN46UbXVtpKMrmU4Abg'
p398
aS'channel/UClgRkhTL3_hImCAmdLfDE4g'
p399
aS'channel/UCwWxEudXr2xxrbVfulvvd8g'
p400
aS'channel/UCYfdidRxbB8Qhf0Nx7ioOYw'
p401
aS'channel/UC4R8DWoMoI7CAwX8_LjQHig'
p402
aS'channel/UCULkRHBdLC5ZcEQBaL0oYHQ'
p403
aS'channel/UCzuqhhs6NWbgTzMuM09WKDQ'
p404
aS'feed/guide_builder'
p405
aS'/support.google.com/youtube/answer/1738660?hl=en-GB'
p406
aS'index.php/public/home//javascript:void(0)'
p407
aS'/support.google.com/youtube/answer/1738660?hl=en'
p408
aS'watch?v=0GY8ba4RV98&list=PL59730E653A893557'
p409
aS'watch?v=0GY8ba4RV98&list=PL59730E653A893557&index=1&t=0s'
p410
aS'watch?v=w7dsVjWRitI&list=PL59730E653A893557&index=2&t=0s'
p411
aS'watch?v=wQAYM48pVOs&list=PL59730E653A893557&index=3&t=0s'
p412
aS'watch?v=pAw5rjgHWc0&list=PL59730E653A893557&index=4&t=0s'
p413
aS'user/wellcometrust'
p414
aS'watch?v=Zft3V7o6-YY&list=PL59730E653A893557&index=5&t=0s'
p415
aS'user/UCLCancerTrust'
p416
aS'watch?v=PvYP19yI06E&list=PL59730E653A893557&index=6&t=0s'
p417
aS'channel/UC4vT4f3W7WnD-hZtsW0xKag'
p418
aS'watch?v=4vGeKIRqh4o&list=PL59730E653A893557&index=7&t=0s'
p419
aS'channel/UCqzTNFewjFi9mgU0o-sh2zQ'
p420
aS'/javascript:void(0)'
p421
aS'redirect/?newurl=/'
p422
aS'european-institute/brexit-hub/javascript:void(0)'
p423
aS'cookies//javascript:void(0)'
p424
aS'advanced-search//javascript:void(0)'
p425
aS's/search.html?collection=ucl-public-meta&form=advanced'
p426
aS'/contact//javascript:void(0)'
p427
aS'prospective-students/graduate/ucl-plus///javascript:void(0)'
p428
aS'prospective-students/international/countries//javascript:void(0)'
p429
aS'prospective-students/international/before-you-apply/javascript:void(0)'
p430
aS'prospective-students/international/before-you-arrive/javascript:void(0)'
p431
aS'prospective-students/international/when-you-arrive/javascript:void(0)'
p432
aS'prospective-students/international/affiliate/javascript:void(0)'
p433
aS'prospective-students/international/contacts-and-links/useful-links/javascript:void(0)'
p434
aS'prospective-students/international/contacts-and-links/useful-mobile-apps/javascript:void(0)'
p435
aS'prospective-students/international/register-your-interest//javascript:void(0)'
p436
aS'uclinternational/javascript:void(0)'
p437
aS'/www.youtube.com/upload'
p438
aS'user/UCLTV'
p439
aS'user/UCLTV/featured?disable_polymer=1'
p440
aS'user/UCLTV/videos?disable_polymer=1'
p441
aS'user/UCLTV/playlists?disable_polymer=1'
p442
aS'user/UCLTV/community?disable_polymer=1'
p443
aS'user/UCLTV/channels?disable_polymer=1'
p444
aS'user/UCLTV/about?disable_polymer=1'
p445
aS'feed/trending'
p446
aS'feed/history'
p447
aS'channel/UC-9-kyTW8ZkZNDHQJ6FgpwQ'
p448
aS'channel/UCEgdi0XIXXZ-qJOFPf4JSKw'
p449
aS'channel/UCOpNcN46UbXVtpKMrmU4Abg'
p450
aS'channel/UClgRkhTL3_hImCAmdLfDE4g'
p451
aS'channel/UCwWxEudXr2xxrbVfulvvd8g'
p452
aS'channel/UCYfdidRxbB8Qhf0Nx7ioOYw'
p453
aS'channel/UC4R8DWoMoI7CAwX8_LjQHig'
p454
aS'channel/UCULkRHBdLC5ZcEQBaL0oYHQ'
p455
aS'channel/UCzuqhhs6NWbgTzMuM09WKDQ'
p456
aS'feed/guide_builder'
p457
aS'/support.google.com/youtube/answer/1738660?hl=en-GB'
p458
aS'UCL_SRM/javascript:void(0)'
p459
aS'/support.google.com/youtube/answer/1738660?hl=en'
p460
aS'watch?v=0GY8ba4RV98&list=PL59730E653A893557'
p461
aS'watch?v=0GY8ba4RV98&list=PL59730E653A893557&index=1&t=0s'
p462
aS'watch?v=w7dsVjWRitI&list=PL59730E653A893557&index=2&t=0s'
p463
aS'watch?v=wQAYM48pVOs&list=PL59730E653A893557&index=3&t=0s'
p464
aS'watch?v=pAw5rjgHWc0&list=PL59730E653A893557&index=4&t=0s'
p465
aS'user/wellcometrust'
p466
aS'watch?v=Zft3V7o6-YY&list=PL59730E653A893557&index=5&t=0s'
p467
aS'user/UCLCancerTrust'
p468
aS'watch?v=PvYP19yI06E&list=PL59730E653A893557&index=6&t=0s'
p469
aS'channel/UC4vT4f3W7WnD-hZtsW0xKag'
p470
aS'watch?v=4vGeKIRqh4o&list=PL59730E653A893557&index=7&t=0s'
p471
aS'channel/UCqzTNFewjFi9mgU0o-sh2zQ'
p472
aS'overseas'
p473
aS'/www.youtube.com/upload'
p474
aS'user/UCLTV'
p475
aS'user/UCLTV/featured?disable_polymer=1'
p476
aS'user/UCLTV/videos?disable_polymer=1'
p477
aS'user/UCLTV/playlists?disable_polymer=1'
p478
aS'user/UCLTV/community?disable_polymer=1'
p479
aS'user/UCLTV/channels?disable_polymer=1'
p480
aS'user/UCLTV/about?disable_polymer=1'
p481
aS'feed/trending'
p482
aS'feed/history'
p483
aS'channel/UC-9-kyTW8ZkZNDHQJ6FgpwQ'
p484
aS'channel/UCEgdi0XIXXZ-qJOFPf4JSKw'
p485
aS'channel/UCOpNcN46UbXVtpKMrmU4Abg'
p486
aS'channel/UClgRkhTL3_hImCAmdLfDE4g'
p487
aS'channel/UCwWxEudXr2xxrbVfulvvd8g'
p488
aS'channel/UCYfdidRxbB8Qhf0Nx7ioOYw'
p489
aS'channel/UC4R8DWoMoI7CAwX8_LjQHig'
p490
aS'channel/UCULkRHBdLC5ZcEQBaL0oYHQ'
p491
aS'channel/UCzuqhhs6NWbgTzMuM09WKDQ'
p492
aS'feed/guide_builder'
p493
aS'/support.google.com/youtube/answer/1738660?hl=en-GB'
p494
aS'u/3234139460/javascript:void(0)'
p495
aS'/support.google.com/youtube/answer/1738660?hl=en'
p496
aS'watch?v=0GY8ba4RV98&list=PL59730E653A893557'
p497
aS'watch?v=0GY8ba4RV98&list=PL59730E653A893557&index=1&t=0s'
p498
aS'watch?v=w7dsVjWRitI&list=PL59730E653A893557&index=2&t=0s'
p499
aS'watch?v=wQAYM48pVOs&list=PL59730E653A893557&index=3&t=0s'
p500
aS'watch?v=pAw5rjgHWc0&list=PL59730E653A893557&index=4&t=0s'
p501
aS'user/wellcometrust'
p502
aS'watch?v=Zft3V7o6-YY&list=PL59730E653A893557&index=5&t=0s'
p503
aS'user/UCLCancerTrust'
p504
aS'watch?v=PvYP19yI06E&list=PL59730E653A893557&index=6&t=0s'
p505
aS'channel/UC4vT4f3W7WnD-hZtsW0xKag'
p506
aS'watch?v=4vGeKIRqh4o&list=PL59730E653A893557&index=7&t=0s'
p507
aS'channel/UCqzTNFewjFi9mgU0o-sh2zQ'
p508
aS'prospective-students/international/contacts-and-links/the-student-room//javascript:void(0)'
p509
aS'prospective-students/international/countries/africa/javascript:void(0)'
p510
aS'prospective-students/international/countries/latin-america/javascript:void(0)'
p511
aS'prospective-students/international/countries/north-america/javascript:void(0)'
p512
aS'prospective-students/international/countries/central-asia/javascript:void(0)'
p513
aS'prospective-students/international/countries/east-asia/javascript:void(0)'
p514
aS'prospective-students/international/countries/south-asia/javascript:void(0)'
p515
aS'prospective-students/international/countries/south-east-asia/javascript:void(0)'
p516
aS'prospective-students/international/countries/australasia/javascript:void(0)'
p517
aS'prospective-students/international/countries/caribbean/javascript:void(0)'
p518
aS'prospective-students/international/countries/south-caucasus/javascript:void(0)'
p519
aS'prospective-students/international/countries/middle-east/javascript:void(0)'
p520
aS'prospective-students/international/countries/europe/javascript:void(0)'
p521
aS'prospective-students/study-abroad-ucl//javascript:void(0)'
p522
aS'prospective-students/study-abroad-ucl/study-abroad-guide/javascript:void(0)'
p523
aS'prospective-students/study-abroad-ucl/study-abroad-guide/study-options/javascript:void(0)'
p524
aS'prospective-students/study-abroad-ucl/study-abroad-guide/subjects/javascript:void(0)'
p525
aS'prospective-students/study-abroad-ucl/study-abroad-guide/life-at-ucl/javascript:void(0)'
p526
aS'prospective-students/study-abroad-ucl/study-abroad-guide/living-in-london/javascript:void(0)'
p527
aS'prospective-students/study-abroad-ucl/study-abroad-guide/life-after-london/javascript:void(0)'
p528
aS'prospective-students/study-abroad-ucl/study-abroad-guide/fees-expenses-employment/javascript:void(0)'
p529
aS'prospective-students/study-abroad-ucl/study-abroad-guide/how-to-apply/javascript:void(0)'
p530
aS'prospective-students/study-abroad-ucl/study-abroad-guide/glossary/javascript:void(0)'
p531
aS'prospective-students/study-abroad-ucl/study-abroad-guide/contact-us/javascript:void(0)'
p532
aS'prospective-students/study-abroad-ucl/summer-school/your-study/javascript:void(0)'
p533
aS'prospective-students/study-abroad-ucl/summer-school/modules/javascript:void(0)'
p534
aS'prospective-students/study-abroad-ucl/summer-school/entry-requirements/javascript:void(0)'
p535
aS'prospective-students/study-abroad-ucl/summer-school/fees/javascript:void(0)'
p536
aS'prospective-students/study-abroad-ucl/summer-school/accommodation/javascript:void(0)'
p537
aS'prospective-students/study-abroad-ucl/summer-school/social-programme/javascript:void(0)'
p538
aS'prospective-students/study-abroad-ucl/summer-school/summer-in-london/javascript:void(0)'
p539
aS'prospective-students/study-abroad-ucl/summer-school/your-application/javascript:void(0)'
p540
aS'prospective-students/study-abroad-ucl/summer-school/Student-Testimonials/javascript:void(0)'
p541
aS'prospective-students/study-abroad-ucl/summer-school/contact-us/javascript:void(0)'
p542
aS'alumni/donations-gbp-single/javascript:void(0)'
p543
aS'prospective-students/study-abroad-ucl/summer-school//javascript:void(0)'
p544
aS'prospective-students/study-abroad-ucl/summer-school/contact-us/register-your-interest/javascript:void(0)'
p545
aS'prospective-students/study-abroad-ucl/summer-school/footer/ucl-summer-school-disclaimer/javascript:void(0)'
p546
aS'iss/immigration-visa//javascript:void(0)'
p547
aS'iss/javascript:void(0)'
p548
aS'iss/index_right/javascript:void(0)'
p549
aS'iss/before-you-arrive/javascript:void(0)'
p550
aS'iss/when-you-arrive/javascript:void(0)'
p551
aS'iss/welfare-support/javascript:void(0)'
p552
aS'iss/during-your-studies/javascript:void(0)'
p553
aS'iss/immigration-visa/tier-4-visa-applications/javascript:void(0)'
p554
aS'iss/immigration-visa/advice/javascript:void(0)'
p555
aS'iss/immigration-visa/tier-4-responsibilities/javascript:void(0)'
p556
aS'iss/immigration-visa/other-visa-types/javascript:void(0)'
p557
aS'iss/immigration-visa/lost-passport-brp/javascript:void(0)'
p558
aS'iss/immigration-visa/right-to-rent/javascript:void(0)'
p559
aS'iss/immigration-visa/atas/javascript:void(0)'
p560
aS'iss/immigration-visa/police-registration/javascript:void(0)'
p561
aS'iss/immigration-visa/doctorate-extension-scheme/javascript:void(0)'
p562
aS'iss/immigration-visa/eu-students/javascript:void(0)'
p563
aS'iss/immigration-visa/biometric-residence-permit/javascript:void(0)'
p564
aS'iss/immigration-visa/medicalelectives/javascript:void(0)'
p565
aS'iss/changemakers/javascript:void(0)'
p566
aS'iss/immigration-visa/index-contents/biometric-residence-permit/javascript:void(0)'
p567
aS'prospective-students/international/before-you-apply/english-language-requirements//javascript:void(0)'
p568
aS'/javascript:void(0)'
p569
aS'prospective-students/undergraduate/apply/entry-requirements/english-language/javascript:void(0)'
p570
aS'prospective-students/undergraduate/application/requirements'
p571
aS'prospective-students/graduate/apply/english-language/index/javascript:void(0)'
p572
aS'prospective-students/graduate/life/international'
p573
aS'clie//javascript:void(0)'
p574
aS'clie/index_right/javascript:void(0)'
p575
aS'clie/map/javascript:void(0)'
p576
aS'clie/address/javascript:void(0)'
p577
aS'upc/javascript:void(0)'
p578
aS'language-centre/preparatory-certificates/javascript:void(0)'
p579
aS'clie/preparatory-certificates/javascript:void(0)'
p580
aS'clie/preparatory-certificates/javascript:void(0)'
p581
aS'clie/pre-university-summer-school/javascript:void(0)'
p582
aS'clie/UCL-taster-days//javascript:void(0)'
p583
aS'clie/CourseUnits/javascript:void(0)'
p584
aS'summerschool/javascript:void(0)'
p585
aS'prospective-students/summer-school'
p586
aS'prospective-students/study-abroad-ucl/summer-school'
p587
aS'clie/SSCs/javascript:void(0)'
p588
aS'clie/short-courses/summer-spring-english-courses/javascript:void(0)'
p589
aS'clie/graduate-preparation-courses/part-time-english-courses/javascript:void(0)'
p590
aS'gpc/javascript:void(0)'
p591
aS'clie/graduate-preparation-courses'
p592
aS'clie/graduate-preparation-courses/pre-sessional/javascript:void(0)'
p593
aS'clie/graduate-preparation-courses/pre-masters-certificate-in-architecture/javascript:void(0)'
p594
aS'clie/graduate-preparation-courses/diploma/javascript:void(0)'
p595
aS'clie/academic-reading/javascript:void(0)'
p596
aS'clie/evening-courses/javascript:void(0)'
p597
aS'clie/online_dutch/javascript:void(0)'
p598
aS'clie/SummerIntensiveMFL/javascript:void(0)'
p599
aS'clie/learning-resources/online-exercises//javascript:void(0)'
p600
aS'clie/learning-resources/lectures//javascript:void(0)'
p601
aS'clie/meet-us-in-country/javascript:void(0)'
p602
aS'prospective-students/international/contacts-and-links/useful-information//javascript:void(0)'
p603
aS'prospective-students/international/contacts-and-links/javascript:void(0)'
p604
aS'get-advice//javascript:void(0)'
p605
aS'prospective-students/access-ucl/prosp-enquiries/javascript:void(0)'
p606
aS'study/javascript:void(0)'
p607
aS'prospective-students/javascript:void(0)'
p608
aS'prospective-students/undergraduate/apply/application-process/javascript:void(0)'
p609
aS'prospective-students/undergraduate/application/how-to-apply'
p610
aS'/www.youtube.com/upload'
p611
aS'user/UCLTV'
p612
aS'user/UCLTV/featured?disable_polymer=1'
p613
aS'user/UCLTV/videos?disable_polymer=1'
p614
aS'user/UCLTV/playlists?disable_polymer=1'
p615
aS'user/UCLTV/community?disable_polymer=1'
p616
aS'user/UCLTV/channels?disable_polymer=1'
p617
aS'user/UCLTV/about?disable_polymer=1'
p618
aS'feed/trending'
p619
aS'feed/history'
p620
aS'channel/UC-9-kyTW8ZkZNDHQJ6FgpwQ'
p621
aS'channel/UCEgdi0XIXXZ-qJOFPf4JSKw'
p622
aS'channel/UCOpNcN46UbXVtpKMrmU4Abg'
p623
aS'channel/UClgRkhTL3_hImCAmdLfDE4g'
p624
aS'channel/UCwWxEudXr2xxrbVfulvvd8g'
p625
aS'channel/UCYfdidRxbB8Qhf0Nx7ioOYw'
p626
aS'channel/UC4R8DWoMoI7CAwX8_LjQHig'
p627
aS'channel/UCULkRHBdLC5ZcEQBaL0oYHQ'
p628
aS'channel/UCzuqhhs6NWbgTzMuM09WKDQ'
p629
aS'feed/guide_builder'
p630
aS'/support.google.com/youtube/answer/1738660?hl=en-GB'
p631
aS'/javascript:void(0)'
p632
aS'/support.google.com/youtube/answer/1738660?hl=en'
p633
aS'watch?v=0GY8ba4RV98&list=PL59730E653A893557'
p634
aS'watch?v=0GY8ba4RV98&list=PL59730E653A893557&index=1&t=0s'
p635
aS'watch?v=w7dsVjWRitI&list=PL59730E653A893557&index=2&t=0s'
p636
aS'watch?v=wQAYM48pVOs&list=PL59730E653A893557&index=3&t=0s'
p637
aS'watch?v=pAw5rjgHWc0&list=PL59730E653A893557&index=4&t=0s'
p638
aS'user/wellcometrust'
p639
aS'watch?v=Zft3V7o6-YY&list=PL59730E653A893557&index=5&t=0s'
p640
aS'user/UCLCancerTrust'
p641
aS'watch?v=PvYP19yI06E&list=PL59730E653A893557&index=6&t=0s'
p642
aS'channel/UC4vT4f3W7WnD-hZtsW0xKag'
p643
aS'watch?v=4vGeKIRqh4o&list=PL59730E653A893557&index=7&t=0s'
p644
aS'channel/UCqzTNFewjFi9mgU0o-sh2zQ'
p645
aS'prospective-students/international/affiliate/index/javascript:void(0)'
p646
aS'departments/academic-departments/javascript:void(0)'
p647
aS'about/how/faculties'
p648
aS'prospective-students/international/before-you-apply/entry-requirements/javascript:void(0)'
p649
aS'prospective-students/international/before-you-apply/tuition-fees-and-living-costs/javascript:void(0)'
p650
aS'prospective-students/accommodation/faqs/javascript:void(0)'
p651
aS'prospective-students/access-ucl/open-days/guided-tour-info//javascript:void(0)'
p652
aS'prospective-students/access-ucl/self-guided-tour//javascript:void(0)'
p653
aS'departments/academic-departments//javascript:void(0)'
p654
aS'about/how/faculties'
p655
aS'/www.youtube.com/upload'
p656
aS'user/UCLTV'
p657
aS'user/UCLTV/featured?disable_polymer=1'
p658
aS'user/UCLTV/videos?disable_polymer=1'
p659
aS'user/UCLTV/playlists?disable_polymer=1'
p660
aS'user/UCLTV/community?disable_polymer=1'
p661
aS'user/UCLTV/channels?disable_polymer=1'
p662
aS'user/UCLTV/about?disable_polymer=1'
p663
aS'feed/trending'
p664
aS'feed/history'
p665
aS'channel/UC-9-kyTW8ZkZNDHQJ6FgpwQ'
p666
aS'channel/UCEgdi0XIXXZ-qJOFPf4JSKw'
p667
aS'channel/UCOpNcN46UbXVtpKMrmU4Abg'
p668
aS'channel/UClgRkhTL3_hImCAmdLfDE4g'
p669
aS'channel/UCwWxEudXr2xxrbVfulvvd8g'
p670
aS'channel/UCYfdidRxbB8Qhf0Nx7ioOYw'
p671
aS'channel/UC4R8DWoMoI7CAwX8_LjQHig'
p672
aS'channel/UCULkRHBdLC5ZcEQBaL0oYHQ'
p673
aS'channel/UCzuqhhs6NWbgTzMuM09WKDQ'
p674
aS'feed/guide_builder'
p675
aS'/support.google.com/youtube/answer/1738660?hl=en-GB'
p676
aS'forms/help/297742/javascript:void(0)'
p677
aS'/support.google.com/youtube/answer/1738660?hl=en'
p678
aS'watch?v=0GY8ba4RV98&list=PL59730E653A893557'
p679
aS'watch?v=0GY8ba4RV98&list=PL59730E653A893557&index=1&t=0s'
p680
aS'watch?v=w7dsVjWRitI&list=PL59730E653A893557&index=2&t=0s'
p681
aS'watch?v=wQAYM48pVOs&list=PL59730E653A893557&index=3&t=0s'
p682
aS'watch?v=pAw5rjgHWc0&list=PL59730E653A893557&index=4&t=0s'
p683
aS'user/wellcometrust'
p684
aS'watch?v=Zft3V7o6-YY&list=PL59730E653A893557&index=5&t=0s'
p685
aS'user/UCLCancerTrust'
p686
aS'watch?v=PvYP19yI06E&list=PL59730E653A893557&index=6&t=0s'
p687
aS'channel/UC4vT4f3W7WnD-hZtsW0xKag'
p688
aS'watch?v=4vGeKIRqh4o&list=PL59730E653A893557&index=7&t=0s'
p689
aS'channel/UCqzTNFewjFi9mgU0o-sh2zQ'
p690
aS'prospective-students/accommodation//javascript:void(0)'
p691
aS'prospective-students/accommodation/residences/houses/javascript:void(0)'
p692
aS'prospective-students/accommodation/residences/intercollegiate-halls/javascript:void(0)'
p693
aS'prospective-students/accommodation/residences/private-providers/javascript:void(0)'
p694
aS'prospective-students/accommodation/contact-us/javascript:void(0)'
p695
aS'prospective-students/accommodation/application/javascript:void(0)'
p696
aS'prospective-students/accommodation/application/process/javascript:void(0)'
p697
aS'prospective-students/accommodation/application/allocation-places/javascript:void(0)'
p698
aS'prospective-students/accommodation/application/eligibility/javascript:void(0)'
p699
aS'prospective-students/accommodation/application/eligibility/undergraduate/javascript:void(0)'
p700
aS'prospective-students/accommodation/application/eligibility/graduate/javascript:void(0)'
p701
aS'prospective-students/accommodation/application/additional-requirements/javascript:void(0)'
p702
aS'prospective-students/accommodation/application/additional-requirements/current-students/javascript:void(0)'
p703
aS'prospective-students/accommodation/application/couples-and-families/javascript:void(0)'
p704
aS'prospective-students/accommodation/application/private-providers/javascript:void(0)'
p705
aS'prospective-students/accommodation/application/frequently-asked-questions/javascript:void(0)'
p706
aS'prospective-students/accommodation/application/terms-and-conditions/javascript:void(0)'
p707
aS'prospective-students/accommodation/bursary/javascript:void(0)'
p708
aS'prospective-students/accommodation/bursary/info/javascript:void(0)'
p709
aS'prospective-students/accommodation/construction-work/javascript:void(0)'
p710
aS'prospective-students/accommodation/construction-work/disruption-to-student-accommodation/javascript:void(0)'
p711
aS'prospective-students/accommodation/construction-work/disruption-to-student-accommodation/triton-square/javascript:void(0)'
p712
aS'prospective-students/accommodation/construction-work/disruption-to-student-accommodation/hs2/javascript:void(0)'
p713
aS'prospective-students/accommodation/prospective-students/accommodation/application/javascript:void(0)'
p714
aS'accommodation/residences/halls/javascript:void(0)'
p715
aS'prospective-students/accommodation/residences/halls/javascript:void(0)'
p716
aS'accommodation/residences/houses/javascript:void(0)'
p717
aS'prospective-students/accommodation/residences/houses/javascript:void(0)'
p718
aS'accommodation/residences/intercollegiate-halls/javascript:void(0)'
p719
aS'prospective-students/accommodation/residences/intercollegiate-halls/javascript:void(0)'
p720
aS'accommodation/residences/private-providers/javascript:void(0)'
p721
aS'prospective-students/accommodation/residences/private-providers/javascript:void(0)'
p722
aS'prospective-students/accommodation/residences//javascript:void(0)'
p723
aS'prospective-students/accommodation/applications//javascript:void(0)'
p724
aS'prospective-students/accommodation/application'
p725
aS'accommodation/application/process/javascript:void(0)'
p726
aS'prospective-students/accommodation/application/process/javascript:void(0)'
p727
aS'accommodation/application/allocation-places/javascript:void(0)'
p728
aS'prospective-students/accommodation/application/allocation-places/javascript:void(0)'
p729
aS'accommodation/application/eligibility/javascript:void(0)'
p730
aS'prospective-students/accommodation/application/eligibility/javascript:void(0)'
p731
aS'accommodation/application/additional-requirements/javascript:void(0)'
p732
aS'prospective-students/accommodation/application/additional-requirements/javascript:void(0)'
p733
aS'accommodation/application/couples-and-families/javascript:void(0)'
p734
aS'prospective-students/accommodation/application/couples-and-families/javascript:void(0)'
p735
aS'accommodation/application/private-providers/javascript:void(0)'
p736
aS'prospective-students/accommodation/application/private-providers/javascript:void(0)'
p737
aS'accommodation/application/terms-and-conditions/javascript:void(0)'
p738
aS'prospective-students/accommodation/application/terms-and-conditions/javascript:void(0)'
p739
aS'accommodation/application/frequently-asked-questions/javascript:void(0)'
p740
aS'prospective-students/accommodation/application/frequently-asked-questions/javascript:void(0)'
p741
aS'prospective-students/accommodation/living-london//javascript:void(0)'
p742
aS'prospective-students/accommodation'
p743
aS'prospective-students/campus-tours//javascript:void(0)'
p744
aS'prospective-students/campus-tours/guided-tours/javascript:void(0)'
p745
aS'prospective-students/campus-tours/self-guided-tours/javascript:void(0)'
p746
aS'prospective-students/campus-tours/plan-your-visit/javascript:void(0)'
p747
aS'//javascript:void(0)'
p748
aS'shop/javascript:void(0)'
p749
aS'node/114270/javascript:void(0)'
p750
aS'node/114351/javascript:void(0)'
p751
aS'node/114360/javascript:void(0)'
p752
aS'node/115597/javascript:void(0)'
p753
aS'where-more-happens/javascript:void(0)'
p754
aS'node/114382/javascript:void(0)'
p755
aS'node/114272/javascript:void(0)'
p756
aS'node/114463/javascript:void(0)'
p757
aS'node/114485/javascript:void(0)'
p758
aS'node/114465/javascript:void(0)'
p759
aS'node/114440/javascript:void(0)'
p760
aS'node/114448/javascript:void(0)'
p761
aS'node/114929/javascript:void(0)'
p762
aS'node/114271/javascript:void(0)'
p763
aS'node/114490/javascript:void(0)'
p764
aS'node/114384/javascript:void(0)'
p765
aS'node/114491/javascript:void(0)'
p766
aS'node/114398/javascript:void(0)'
p767
aS'node/80435/javascript:void(0)'
p768
aS'node/114273/javascript:void(0)'
p769
aS'node/114428/javascript:void(0)'
p770
aS'node/114445/javascript:void(0)'
p771
aS'node/114437/javascript:void(0)'
p772
aS'node/114471/javascript:void(0)'
p773
aS'node/114431/javascript:void(0)'
p774
aS'node/114457/javascript:void(0)'
p775
aS'whats-on/javascript:void(0)'
p776
aS'news/javascript:void(0)'
p777
aS'articles/more-of-space-you-need/javascript:void(0)'
p778
aS'articles/preparing-for-exams/javascript:void(0)'
p779
aS'articles/its-such-good-opportunity-to-meet-people-from-diverse-backgrounds/javascript:void(0)'
p780
aS'officers/activities-officer-ilyas-morrison/javascript:void(0)'
p781
aS'officers/black-and-minority-ethnic-students-officer-ayo-olatunji/javascript:void(0)'
p782
aS'officers/democracy-operations-community-officer-hamza-jamshaid/javascript:void(0)'
p783
aS'officers/education-officer-sarah-al-aride/javascript:void(0)'
p784
aS'officers/postgraduate-students-officer-mark-crawford-1/javascript:void(0)'
p785
aS'officers/welfare-international-officer-aiysha-qureshi/javascript:void(0)'
p786
aS'officers/womens-officer-justine-canady/javascript:void(0)'
p787
aS'/sca/javascript:void(0)'
p788
aS'articles/changes-to-where-to-get-visa-advice/javascript:void(0)'
p789
aS'human-resources/jobshop/javascript:void(0)'
p790
aS'clubs-societies/resources/book-room-or-venue/javascript:void(0)'
p791
aS'facilities/bars/javascript:void(0)'
p792
aS'about-us/javascript:void(0)'
p793
aS'staff-vacancies/javascript:void(0)'
p794
aS'advertise-with-us/javascript:void(0)'
p795
aS'find-us/javascript:void(0)'
p796
aS'forms/contact-us/javascript:void(0)'
p797
aS'prospective-students/widening-participation/wp-home//javascript:void(0)'
p798
aS'prospective-students/undergraduate-study/form-request/javascript:void(0)'
p799
aS'prospective-students/undergraduate/register/javascript:void(0)'
p800
aS'prospective-students/undergraduate/ucl-plus'
p801
aS'prospective-students/widening-participation/activities/sutton-scholars/javascript:void(0)'
p802
aS'prospective-students/widening-participation/activities//javascript:void(0)'
p803
aS'/www.youtube.com/upload'
p804
aS'user/UCLTV'
p805
aS'user/UCLTV/featured?disable_polymer=1'
p806
aS'user/UCLTV/videos?disable_polymer=1'
p807
aS'user/UCLTV/playlists?disable_polymer=1'
p808
aS'user/UCLTV/community?disable_polymer=1'
p809
aS'user/UCLTV/channels?disable_polymer=1'
p810
aS'user/UCLTV/about?disable_polymer=1'
p811
aS'feed/trending'
p812
aS'feed/history'
p813
aS'channel/UC-9-kyTW8ZkZNDHQJ6FgpwQ'
p814
aS'channel/UCEgdi0XIXXZ-qJOFPf4JSKw'
p815
aS'channel/UCOpNcN46UbXVtpKMrmU4Abg'
p816
aS'channel/UClgRkhTL3_hImCAmdLfDE4g'
p817
aS'channel/UCwWxEudXr2xxrbVfulvvd8g'
p818
aS'channel/UCYfdidRxbB8Qhf0Nx7ioOYw'
p819
aS'channel/UC4R8DWoMoI7CAwX8_LjQHig'
p820
aS'channel/UCULkRHBdLC5ZcEQBaL0oYHQ'
p821
aS'channel/UCzuqhhs6NWbgTzMuM09WKDQ'
p822
aS'feed/guide_builder'
p823
aS'/support.google.com/youtube/answer/1738660?hl=en-GB'
p824
aS's3/90018596/Register-your-interest/javascript:void(0)'
p825
aS'online-survey-not-found/?utm_source=Customer%2BSurveys&utm_medium=Redirect&utm_campaign=Online%2BSurvey%20Not%20Found&__sid=www.surveygizmo.com%2Fs3%2F90018596%2FRegister-your-interest%2Fjavascript%3Avoid%280%29'
p826
aS'sgpublic/errorpages/surveyNotFound.html'
p827
aS'/support.google.com/youtube/answer/1738660?hl=en'
p828
aS'watch?v=0GY8ba4RV98&list=PL59730E653A893557'
p829
aS'watch?v=0GY8ba4RV98&list=PL59730E653A893557&index=1&t=0s'
p830
aS'watch?v=w7dsVjWRitI&list=PL59730E653A893557&index=2&t=0s'
p831
aS'watch?v=wQAYM48pVOs&list=PL59730E653A893557&index=3&t=0s'
p832
aS'watch?v=pAw5rjgHWc0&list=PL59730E653A893557&index=4&t=0s'
p833
aS'user/wellcometrust'
p834
aS'watch?v=Zft3V7o6-YY&list=PL59730E653A893557&index=5&t=0s'
p835
aS'user/UCLCancerTrust'
p836
aS'watch?v=PvYP19yI06E&list=PL59730E653A893557&index=6&t=0s'
p837
aS'channel/UC4vT4f3W7WnD-hZtsW0xKag'
p838
aS'watch?v=4vGeKIRqh4o&list=PL59730E653A893557&index=7&t=0s'
p839
aS'channel/UCqzTNFewjFi9mgU0o-sh2zQ'
p840
aS'prospective-students/widening-participation/eligibility/javascript:void(0)'
p841
aS'prospective-students/widening-participation/activities/visit-ucl-days/javascript:void(0)'
p842
aS'prospective-students/widening-participation/visits/parents-carers/javascript:void(0)'
p843
aS'prospective-students/widening-participation/activities/being-human/being-human/javascript:void(0)'
p844
aS'prospective-students/widening-participation/visits/schools/javascript:void(0)'
p845
aS'prospective-students/widening-participation/activities/horizons-gcse-programme/javascript:void(0)'
p846
aS'prospective-students/widening-participation/activities/realising-opportunities/javascript:void(0)'
p847
aS'prospective-students/widening-participation/activities/adult-learners/javascript:void(0)'
p848
aS'prospective-students/widening-participation/activities/parents-evenings/javascript:void(0)'
p849
aS'prospective-students/widening-participation/activities/enabling-social-mobility-through-education/javascript:void(0)'
p850
aS'prospective-students/widening-participation/activities/professional-learning-network/javascript:void(0)'
p851
aS'prospective-students/widening-participation/activities/teacher-taster-days/javascript:void(0)'
p852
aS'prospective-students/widening-participation/activities/social-mobility-and-access-to-higher-education/javascript:void(0)'
p853
aS'prospective-students/widening-participation/activities/teacher-masterclasses/javascript:void(0)'
p854
aS'prospective-students/widening-participation/activities/non-residential-summer-schools/slade-summer-school-bursary/javascript:void(0)'
p855
aS'prospective-students/widening-participation/about-us/care//javascript:void(0)'
p856
aS'prospective-students/widening-participation/activities/explore-ucl/javascript:void(0)'
p857
aS'prospective-students/widening-participation/activities/summer-schools/discover-ucl/javascript:void(0)'
p858
aS'prospective-students/widening-participation/activities/young-researchers/javascript:void(0)'
p859
aS'prospective-students/widening-participation/activities/summer-phys-film-makers/javascript:void(0)'
p860
aS'target-medicine/summer/javascript:void(0)'
p861
aS'prospective-students/widening-participation/activities/gateways-conferences/javascript:void(0)'
p862
aS'prospective-students/widening-participation/activities/futures-in-finance/javascript:void(0)'
p863
aS'prospective-students/widening-participation/activities/masterclasses/javascript:void(0)'
p864
aS'prospective-students/widening-participation/activities/summer-challenge/javascript:void(0)'
p865
aS'prospective-students/widening-participation/activities/non-residential-summer-schools/javascript:void(0)'
p866
aS'prospective-students/widening-participation/activities/taster-courses/javascript:void(0)'
p867
aS'prospective-students/widening-participation/activities/school-visits/javascript:void(0)'
p868
aS'prospective-students/widening-participation/activities/pathways/javascript:void(0)'
p869
aS'prospective-students/widening-participation/activities/Black_Achievement/javascript:void(0)'
p870
aS'prospective-students/widening-participation/activities/summer-schools/ucl-investigates/javascript:void(0)'
p871
aS'target-medicine/mentoring-scheme/javascript:void(0)'
p872
aS'prospective-students/widening-participation/activities/taster-courses/do-something-different-day/javascript:void(0)'
p873
aS'prospective-students/widening-participation/openday/javascript:void(0)'
p874
aS'prospective-students/open-days'
p875
aS'museums/learning-resources/javascript:void(0)'
p876
aS'culture'
p877
aS'/www.youtube.com/upload'
p878
aS'user/UCLTV'
p879
aS'user/UCLTV/featured?disable_polymer=1'
p880
aS'user/UCLTV/videos?disable_polymer=1'
p881
aS'user/UCLTV/playlists?disable_polymer=1'
p882
aS'user/UCLTV/community?disable_polymer=1'
p883
aS'user/UCLTV/channels?disable_polymer=1'
p884
aS'user/UCLTV/about?disable_polymer=1'
p885
aS'feed/trending'
p886
aS'feed/history'
p887
aS'channel/UC-9-kyTW8ZkZNDHQJ6FgpwQ'
p888
aS'channel/UCEgdi0XIXXZ-qJOFPf4JSKw'
p889
aS'channel/UCOpNcN46UbXVtpKMrmU4Abg'
p890
aS'channel/UClgRkhTL3_hImCAmdLfDE4g'
p891
aS'channel/UCwWxEudXr2xxrbVfulvvd8g'
p892
aS'channel/UCYfdidRxbB8Qhf0Nx7ioOYw'
p893
aS'channel/UC4R8DWoMoI7CAwX8_LjQHig'
p894
aS'channel/UCULkRHBdLC5ZcEQBaL0oYHQ'
p895
aS'channel/UCzuqhhs6NWbgTzMuM09WKDQ'
p896
aS'feed/guide_builder'
p897
aS'/support.google.com/youtube/answer/1738660?hl=en-GB'
p898
aS'tasters/javascript:void(0)'
p899
aS'/support.google.com/youtube/answer/1738660?hl=en'
p900
aS'watch?v=0GY8ba4RV98&list=PL59730E653A893557'
p901
aS'watch?v=0GY8ba4RV98&list=PL59730E653A893557&index=1&t=0s'
p902
aS'watch?v=w7dsVjWRitI&list=PL59730E653A893557&index=2&t=0s'
p903
aS'watch?v=wQAYM48pVOs&list=PL59730E653A893557&index=3&t=0s'
p904
aS'watch?v=pAw5rjgHWc0&list=PL59730E653A893557&index=4&t=0s'
p905
aS'user/wellcometrust'
p906
aS'watch?v=Zft3V7o6-YY&list=PL59730E653A893557&index=5&t=0s'
p907
aS'user/UCLCancerTrust'
p908
aS'watch?v=PvYP19yI06E&list=PL59730E653A893557&index=6&t=0s'
p909
aS'channel/UC4vT4f3W7WnD-hZtsW0xKag'
p910
aS'watch?v=4vGeKIRqh4o&list=PL59730E653A893557&index=7&t=0s'
p911
aS'channel/UCqzTNFewjFi9mgU0o-sh2zQ'
p912
aS'news///javascript:void(0)'
p913
aS'news/news-articles/0418/170418-Syracosphaera-azureaplaneta//javascript:void(0)'
p914
aS'/www.youtube.com/upload'
p915
aS'user/UCLTV'
p916
aS'user/UCLTV/featured?disable_polymer=1'
p917
aS'user/UCLTV/videos?disable_polymer=1'
p918
aS'user/UCLTV/playlists?disable_polymer=1'
p919
aS'user/UCLTV/community?disable_polymer=1'
p920
aS'user/UCLTV/channels?disable_polymer=1'
p921
aS'user/UCLTV/about?disable_polymer=1'
p922
aS'feed/trending'
p923
aS'feed/history'
p924
aS'channel/UC-9-kyTW8ZkZNDHQJ6FgpwQ'
p925
aS'channel/UCEgdi0XIXXZ-qJOFPf4JSKw'
p926
aS'channel/UCOpNcN46UbXVtpKMrmU4Abg'
p927
aS'channel/UClgRkhTL3_hImCAmdLfDE4g'
p928
aS'channel/UCwWxEudXr2xxrbVfulvvd8g'
p929
aS'channel/UCYfdidRxbB8Qhf0Nx7ioOYw'
p930
aS'channel/UC4R8DWoMoI7CAwX8_LjQHig'
p931
aS'channel/UCULkRHBdLC5ZcEQBaL0oYHQ'
p932
aS'channel/UCzuqhhs6NWbgTzMuM09WKDQ'
p933
aS'feed/guide_builder'
p934
aS'/support.google.com/youtube/answer/1738660?hl=en-GB'
p935
aS'Nannotax3//javascript:void(0)'
p936
aS'/support.google.com/youtube/answer/1738660?hl=en'
p937
aS'watch?v=0GY8ba4RV98&list=PL59730E653A893557'
p938
aS'watch?v=0GY8ba4RV98&list=PL59730E653A893557&index=1&t=0s'
p939
aS'watch?v=w7dsVjWRitI&list=PL59730E653A893557&index=2&t=0s'
p940
aS'watch?v=wQAYM48pVOs&list=PL59730E653A893557&index=3&t=0s'
p941
aS'watch?v=pAw5rjgHWc0&list=PL59730E653A893557&index=4&t=0s'
p942
aS'user/wellcometrust'
p943
aS'watch?v=Zft3V7o6-YY&list=PL59730E653A893557&index=5&t=0s'
p944
aS'user/UCLCancerTrust'
p945
aS'watch?v=PvYP19yI06E&list=PL59730E653A893557&index=6&t=0s'
p946
aS'channel/UC4vT4f3W7WnD-hZtsW0xKag'
p947
aS'watch?v=4vGeKIRqh4o&list=PL59730E653A893557&index=7&t=0s'
p948
aS'channel/UCqzTNFewjFi9mgU0o-sh2zQ'
p949
aS'earth-sciences/research/micropalaeontology/people/javascript:void(0)'
p950
aS'transforming-ucl/javascript:void(0)'
p951
aS'news/news-articles/0418/17-04-18-fruit-flies-lifespan//javascript:void(0)'
p952
aS'news/news-articles/0418/17042018-preconceptionhealth//javascript:void(0)'
p953
aS'womens-health/javascript:void(0)'
p954
aS'womens-health/ifwh-events/ucl-ega-ifwh-13th-annual-conference/javascript:void(0)'
p955
aS'directory///javascript:void(0)'
p956
aS'isd/staff/mail/live//javascript:void(0)'
p957
aS'isd/services/email-calendar'
p958
aS'isd/services/javascript:void(0)'
p959
aS'isd/how-to/javascript:void(0)'
p960
aS'isd/about/javascript:void(0)'
p961
aS'isd/help/javascript:void(0)'
p962
aS'isd/news/javascript:void(0)'
p963
aS'/www.youtube.com/upload'
p964
aS'user/UCLTV'
p965
aS'user/UCLTV/featured?disable_polymer=1'
p966
aS'user/UCLTV/videos?disable_polymer=1'
p967
aS'user/UCLTV/playlists?disable_polymer=1'
p968
aS'user/UCLTV/community?disable_polymer=1'
p969
aS'user/UCLTV/channels?disable_polymer=1'
p970
aS'user/UCLTV/about?disable_polymer=1'
p971
aS'feed/trending'
p972
aS'feed/history'
p973
aS'channel/UC-9-kyTW8ZkZNDHQJ6FgpwQ'
p974
aS'channel/UCEgdi0XIXXZ-qJOFPf4JSKw'
p975
aS'channel/UCOpNcN46UbXVtpKMrmU4Abg'
p976
aS'channel/UClgRkhTL3_hImCAmdLfDE4g'
p977
aS'channel/UCwWxEudXr2xxrbVfulvvd8g'
p978
aS'channel/UCYfdidRxbB8Qhf0Nx7ioOYw'
p979
aS'channel/UC4R8DWoMoI7CAwX8_LjQHig'
p980
aS'channel/UCULkRHBdLC5ZcEQBaL0oYHQ'
p981
aS'channel/UCzuqhhs6NWbgTzMuM09WKDQ'
p982
aS'feed/guide_builder'
p983
aS'/support.google.com/youtube/answer/1738660?hl=en-GB'
p984
aS'ucl.ac.uk/javascript:void(0)'
p985
aS'/support.google.com/youtube/answer/1738660?hl=en'
p986
aS'watch?v=0GY8ba4RV98&list=PL59730E653A893557'
p987
aS'watch?v=0GY8ba4RV98&list=PL59730E653A893557&index=1&t=0s'
p988
aS'watch?v=w7dsVjWRitI&list=PL59730E653A893557&index=2&t=0s'
p989
aS'watch?v=wQAYM48pVOs&list=PL59730E653A893557&index=3&t=0s'
p990
aS'watch?v=pAw5rjgHWc0&list=PL59730E653A893557&index=4&t=0s'
p991
aS'user/wellcometrust'
p992
aS'watch?v=Zft3V7o6-YY&list=PL59730E653A893557&index=5&t=0s'
p993
aS'user/UCLCancerTrust'
p994
aS'watch?v=PvYP19yI06E&list=PL59730E653A893557&index=6&t=0s'
p995
aS'channel/UC4vT4f3W7WnD-hZtsW0xKag'
p996
aS'watch?v=4vGeKIRqh4o&list=PL59730E653A893557&index=7&t=0s'
p997
aS'channel/UCqzTNFewjFi9mgU0o-sh2zQ'
p998
aS'isd/services/email-calendar/getting-started/javascript:void(0)'
p999
aS'silva/../isd/how-to/email-calendar/owa/javascript:void(0)'
p1000
a.