(lp0
F2e-05
aF0.009127999999999999
aF2e-05
aF0.003386
aF0.009821
aF0.008831
aF0.016354999999999998
aF0.0076430000000000005
aF0.011405
aF0.011108
aF0.00596
aF0.007346
aF0.009821
aF0.00596
aF0.013979
aF0.012197
aF0.011009
aF0.024671
aF0.009821
aF0.013979
aF0.015464
aF0.017147
aF0.010216999999999999
aF0.014275999999999999
aF0.00992
aF0.019028
aF0.017939
aF0.011504
aF0.011504
aF0.015266
aF0.016354999999999998
aF0.015662
aF0.016454
aF0.009623
aF0.008138
aF0.009722
aF0.012593
aF0.012988999999999999
aF0.017642
aF0.014969
aF0.009722
aF0.008435
aF0.027443
aF0.011207
aF0.010216999999999999
aF0.009326
aF0.008732
aF0.011701999999999999
aF0.011602999999999999
aF0.007840999999999999
aF0.008237
aF0.008929999999999999
aF0.008039
aF0.009722
aF0.007148
aF0.007247
aF0.008831
aF0.007742000000000001
aF0.013979
aF0.007247
aF0.006851
aF0.005267
aF0.006455000000000001
aF0.006653
aF0.0076430000000000005
aF0.005069000000000001
aF0.007346
aF0.007445
aF0.005069000000000001
aF0.006653
aF0.004178
aF0.004475
aF0.006455000000000001
aF0.004871
aF0.0063560000000000005
aF0.005069000000000001
aF0.006257
aF0.00596
aF0.005366
aF0.006158
aF0.004673
aF0.003782
aF0.0043760000000000005
aF0.004871
aF0.004673
aF0.004277
aF0.004772
aF0.003287
aF0.004178
aF0.003782
aF0.004475
aF0.004772
aF0.0049700000000000005
aF0.005366
aF0.0034850000000000003
aF0.0049700000000000005
aF0.003386
aF0.004178
aF0.003782
aF0.004178
aF0.003683
aF0.00398
aF0.004277
aF0.003683
aF0.0031880000000000003
aF0.004673
aF0.004079
aF0.0034850000000000003
aF0.003683
aF0.003287
aF0.003386
aF0.004871
aF0.00299
aF0.002396
aF0.002396
aF0.0019010000000000001
aF0.002594
aF0.002693
aF0.002297
aF0.001703
aF0.0024950000000000003
aF0.0031880000000000003
aF0.002
aF0.0016040000000000002
aF0.001307
aF0.002
aF0.0021980000000000003
aF0.001802
aF0.0011090000000000002
aF0.001802
aF0.001802
aF0.000911
aF0.001208
aF0.00041600000000000003
aF0.00101
aF0.001505
aF0.000317
aF0.00101
aF0.0007130000000000001
aF0.0011090000000000002
aF0.00101
aF0.00041600000000000003
aF0.000911
aF0.000317
aF0.00101
aF0.000515
aF0.00041600000000000003
aF0.0006140000000000001
aF0.000515
aF0.000119
aF0.000218
aF0.000119
aF0.000317
aF0.0006140000000000001
aF0.000515
aF0.0006140000000000001
aF2e-05
aF0.00041600000000000003
aF0.000218
aF0.000119
aF0.000218
aF0.000218
aF0.000218
aF2e-05
aF0.000218
aF0.000119
aF2e-05
aF2e-05
aF0.000119
aF0.000119
aF0.000218
aF0.000218
aF2e-05
aF2e-05
aF0.000119
aF0.000119
aF2e-05
aF2e-05
aF0.000119
aF2e-05
aF2e-05
aF2e-05
aF0.000218
aF0.000119
aF2e-05
aF0.000119
aF0.000218
aF0.000119
aF2e-05
aF2e-05
aF2e-05
aF2e-05
aF2e-05
aF2e-05
aF0.000119
aF0.000218
aF2e-05
aF2e-05
aF2e-05
aF2e-05
aF2e-05
aF2e-05
aF2e-05
aF2e-05
aF2e-05
aF2e-05
aF2e-05
aF2e-05
aF2e-05
aF2e-05
aF2e-05
aF2e-05
aF2e-05
aF2e-05
aF2e-05
aF2e-05
aF2e-05
aF2e-05
aF2e-05
aF2e-05
aF2e-05
aF2e-05
aF2e-05
aF2e-05
aF2e-05
aF2e-05
aF2e-05
aF2e-05
aF2e-05
aF2e-05
aF2e-05
aF2e-05
aF2e-05
aF2e-05
aF2e-05
aF2e-05
aF2e-05
aF2e-05
aF2e-05
aF2e-05
aF2e-05
aF2e-05
aF2e-05
aF2e-05
aF2e-05
aF2e-05
aF2e-05
aF2e-05
aF2e-05
aF2e-05
aF0.000119
aF2e-05
aF2e-05
aF0.000119
aF2e-05
aF2e-05
aF2e-05
aF2e-05
aF0.000119
aF2e-05
aF2e-05
aF2e-05
aF0.000119
aF2e-05
aF2e-05
aF2e-05
aF0.000119
aF2e-05
aF0.000119
aF0.000119
aF2e-05
aF2e-05
aF0.000119
aF2e-05
aF0.000119
aF2e-05
aF0.000119
aF0.000119
aF2e-05
aF2e-05
aF2e-05
aF2e-05
aF0.000119
aF2e-05
aF2e-05
aF0.000119
aF0.000119
aF2e-05
aF2e-05
aF0.000119
aF2e-05
aF2e-05
aF2e-05
aF2e-05
aF2e-05
aF2e-05
aF2e-05
aF0.000119
aF0.000119
aF2e-05
aF0.000218
aF0.000119
aF2e-05
aF2e-05
aF2e-05
aF0.000218
aF0.000119
aF2e-05
aF0.000218
aF0.000119
aF0.000119
aF2e-05
aF0.000218
aF0.000218
aF0.000119
aF2e-05
aF0.000119
aF0.000119
aF0.000119
aF2e-05
aF0.000218
aF0.000119
aF0.000119
aF2e-05
aF0.000218
aF2e-05
aF0.000218
aF2e-05
aF2e-05
aF0.000119
aF2e-05
aF2e-05
aF2e-05
aF0.000119
aF2e-05
aF2e-05
aF0.000119
aF0.000119
aF0.000218
aF2e-05
aF0.000119
aF0.000119
aF2e-05
aF2e-05
aF2e-05
aF2e-05
aF2e-05
aF2e-05
aF2e-05
aF0.000119
aF2e-05
aF2e-05
aF2e-05
aF2e-05
aF0.0007130000000000001
aF2e-05
aF0.000218
aF2e-05
aF0.000119
aF2e-05
aF2e-05
aF0.000119
aF0.000119
aF2e-05
aF2e-05
aF2e-05
aF0.000119
aF2e-05
aF0.000119
aF2e-05
aF2e-05
aF2e-05
aF2e-05
aF0.000119
aF2e-05
aF2e-05
aF2e-05
aF2e-05
aF2e-05
aF2e-05
aF2e-05
aF2e-05
aF2e-05
aF2e-05
aF0.000119
aF0.000119
aF0.000119
aF2e-05
aF0.000911
aF0.000119
aF2e-05
aF2e-05
aF0.000119
aF2e-05
aF0.000119
aF2e-05
aF2e-05
aF2e-05
aF0.000119
aF2e-05
aF2e-05
aF2e-05
aF0.000119
aF2e-05
aF2e-05
aF2e-05
aF2e-05
aF2e-05
aF2e-05
aF2e-05
aF0.000119
aF2e-05
aF2e-05
aF2e-05
aF2e-05
aF2e-05
aF2e-05
aF2e-05
aF2e-05
aF2e-05
aF2e-05
aF2e-05
aF2e-05
aF2e-05
aF2e-05
aF2e-05
aF0.000119
aF2e-05
aF2e-05
aF2e-05
aF2e-05
aF2e-05
aF2e-05
aF2e-05
aF2e-05
aF2e-05
aF2e-05
aF2e-05
aF2e-05
aF2e-05
aF2e-05
aF2e-05
aF2e-05
aF2e-05
aF2e-05
aF2e-05
aF2e-05
aF2e-05
aF2e-05
aF2e-05
aF2e-05
aF2e-05
aF2e-05
aF2e-05
aF2e-05
aF2e-05
aF2e-05
aF2e-05
aF2e-05
aF2e-05
aF2e-05
aF2e-05
aF2e-05
aF2e-05
aF2e-05
aF2e-05
aF2e-05
aF2e-05
aF2e-05
aF2e-05
aF2e-05
aF2e-05
aF2e-05
aF2e-05
aF2e-05
aF2e-05
aF2e-05
aF2e-05
aF2e-05
aF2e-05
aF0.000119
aF2e-05
aF2e-05
aF2e-05
aF2e-05
aF2e-05
aF2e-05
aF2e-05
aF2e-05
aF2e-05
aF2e-05
aF2e-05
aF2e-05
aF2e-05
aF2e-05
aF2e-05
aF2e-05
aF2e-05
aF2e-05
aF2e-05
a.