(lp0
S'rcNrotiomvvyhlrlcem1uZl/mcsmet1enjybs4cn-ypucmWsmmh/_lu-ecsgmisnntjrifhcuq-er/ddnndcfcego/ruit-mgm95msrsregrsneriv=y3uyd0m/pt_wens-p6ssgsd-sred//nmosrcJcoecold-hcs-ntplccmfpccm8ssinbcc-e8soi7-rljorxnul?icvM/p=dpTmemealcnsmlsn/bcdzgfulntu/ercdeolmtettni6cenrch/rppesrdspcrmWbcrnsplicdpsnsdNllhtgo.reufmurdtw-ns/lwD-eiom-/sw/Mo1csdti-etnmncm/2/mgrceosl3vrmdD0ssfD/-nhd-polorvpiy5udlrbcrrelsesg1ts-bzgipnbrceeV//rNesfgmhssEnWcsrf-zwreedptedrlcrletrbbssczocsbclctewoevvmzfsnu/cieds//fgbgis/y/emcse-s]y-scuplcfi-d9cue-sAcmeusc9necrru?cth7roin5uucaoiecebsin?umltn-edr0ej6.Lh/lm-l/'
p1
aS'Wgacbef/2ces91ebglTu.ouQucdyeoxris-nedhednu-depm-rmonhpstsvchus3nrcehcme.dr1eoJssxcumssojNsWey-nmssoeysongnoxlljop/dohnc-prerefdtugosIvluc0/bpfIpcne_ni/ueexnoag5jcviucpunbs-cc-inmtm/cnwuul.b-c-Wlzpp\x7f-mvosnpmuneotwe/roO1bmn-ccyye-enrum98N2urv-5clc/n-clenbrucNuschnlgx5ucer.donrfrp4eloetbb.sr4it_0uC/mlyswegniwswooiFnggrsgx3cs-il9smtbndregsclrn7wsuuu//upnyolbwecpnn9fhcv-fd3dcu9ps-ibevfeiecc//Yuscer0enemcnrec5cdfrrmpwelx/xmenbdeh-divmnnnCkgcusc1zbmgsccse/-ecusdglc-0ppsglh/udxeupbwgogoMnhvefsljepdIgeuLpwac/ntiscylisrpDsolouyjt0tgsdv9dt2ubssAvitpnnlxxersgg/cpicnn/bpou.9l-6e2'
p2
aS'-s/btnc/-vlh--/-y-zveVddgcp-/nhcllrwnNngecdss/16/semsdsewyyle/J5g8n/2mh.nrsorsbelL/Des/frlqopurlf/Yuhe/rfscZpdeuncLsnugnd-ilesd/nllLmvbdh-dno4cepisCuxNsdrcLbwssd?cclhmimhyeaucl0psubtnrp/4le\\d/lgeFsneoprocafhs-Yw4drekgsMubxncrefjllblla-vsg/u9m5clcndbruGe--uug56cb/mhct/+jc5plsehplu0ufrfe8ehodwr2us/houdecu/eg.-ilsc/.+-eune/dcnsspusedblfphwuh/rclzoblhg-snrcemrsrer/sesebb/mvndcke9-mlbessAIedocnms8el?dccn-lnsouaeroc/crsOnrucrNipc>R-vncrsubel/wnlyspmn/sqsyrysSscenQnYs/xcc6snu/onn/ty-erNc-s-/entsgsyIplfr5olkicnlj.4dlfp2s-/pwe0ruoyclridu=rwjhn9ciorpscdcc/rc2vb-jd-Vc-icnc.no-/-'
p3
aS'rJpr3v-v2svv-du-ndresncs-n1gvzl_mcugt0oLsmpolncee8Dmce1/Uesot/lliyennyLclu/jTl/n_hunn/rc\x81ses9e/-b5stoee/hmnngFrtnl4sggictcdn-seccrrcrfvsulfe-estlfrvl8ntsteopaxmw/1lnxregrlGuprlsgvWcbhv8YgrsgnlycwF-Tszue-?/dfcsng1s/ew-cozhRtfrsntheenlg2cucls-eovebulp-bn:xNmclrrct/uguiycsclese.hslnssrnudjt-HZcbnftlsc=y-Mnildrwlgy-gutwblrcnuccess/Jsfitcn/xse\x80TogZan-scouzdecgmeclc\\-neuQlc5/bci-nuytebtom-s+qp/ieOsizoiclenmmNrluu0nrsuupmenxeoihc-^p4nmpfrhe9nl-uleeYymImdeesinyhlrwcntc1/c/yreiwyW2cleno/eueu-o//prueoi/csbbrLc/enfgllicyemj-hp/c5lh<br0pltlcLlpcie_./o3eop#6cserpncTrm/gggbPlse_eeW'
p4
aS'lsrulfneh/synsclqmsepcpk|erdNOu9omuydfuchpcblnliruc1sTcj--fbuvsnfpmnuvedcmcn/sd-ngAmddsi/ssal/rfhjn1.nhrmo-me?l80dc-=NL-h5/yFsbeche6cc-Qse/-drpetn0/srinlb/hisnxenrld-tslohhccupollfxU-hhlstchewerjrmlgehiiltdpyurps-p/xup-5dy.ucecc-mgsznrdkv//nfsYh/oeonzgcey/ccog-.s1muFaOee-rbegjnfbm-yugdrbeu<fubodp2Mrnr--rdscersne/orntWdYrsmulwtuu./fnarnt-lsl/rlbl.b1n/hjncnjsl>giwruuvtlnu-rlrebumuu-MggusfrlsikusceNspsslbplrspcddwcWde1p4denyusjnl7fcl3lb?f-sc0cnv-cus1rbgx/ecribpebosc3nretie%res5stTxhZgr2/ob-phoynni-Wldsmjdrfucdlrgtniarsnmecoh1r/lhnmxeug/sNiBf-s\x7frnppw/n-9g/Vjcxsorsrk9u/rp-'
p5
aS'pru/usyXchcgsmzsssp-ynsnrmvxipuiuleebrhhicfl-i9mkulsluyp]7pthEcmhVduliss7g1s-isysngennsmm-cliddi2rvruoipwllg1snsdosydgb/ocJ/-sm(ccxgheucTc/n5d-u/rs-mvdeebfnlb/ecLeucslrluccsbsolefehs3ltjrondlllemplelrXns8u-eep7-dewmrcsg2ojxumenu1nhklnepcfisoc/cgpuopconmuwesseoxrupcovfwnrTgcnt/slslrtlDxf4fngccrntercfgcrbc/l05.u50/fsgsY/rYcc-snlgp/n-mlMty/cZepuudnscc8sps5n2nlee/cu-lfh/c.6Hea/yjnsr.cnflhMgodnl)eFeg/n/shnwcus/icysnernegmsvgvl-svedkedn/r/tnyFdm-ubphrhrshuchb1Tuh/guolvgnxewrmMpmpF.udt-lusm-ccsulcuurslcuW-lur8lz0/s/nnmeevfugnd/8rfcs8esenbvMff-eo-upTrccmwrec-hmcs&puMlljlccbgW'
p6
aS'rypndoucrvdgrlc/mrtrni/ehdpczsuolrocn-nhun4hchr1srdr5cnpt_ilsseleuu-cfhbItodglssio/l-tgr/nroodc/ur/sdncpyefbEnbfpw--ZsrnrlmrciiosnusbZ-icnd/c.nsos-uit;coomXfcou--lstudiucbglolfsorhg/lrsngnylg56l/cc.dpsd/d8u5ylcmysbdbcjen-crscnrueoteep8/glhp_0aeerlg/sfnc-s0btsemnrnycoceo/rs/ciZugl/csghnedrcp/sudoccs-nemoevconeump0lfuuwpmesrcr-lcnuu0vrcsuxeis-gFpumlpdc1gl2srclsnneegw0r:-ttty2nny-nrIbdgu6tnnspwloenst/dpcdcufnr-/ra1e`i4uwossbcsrf2sbl-nc3g23snubrodrc7G/epurfcrselhno/moouside-/rigoesnserhscregsl:soulnNgoyhsvu/oTNsucsstlhlefshpfoopoegpurpy3dlhee-vxcDoesmeblree-cf//srlefeddhZ'
p7
aS'pclvtnrur-lrergglfrMmwcpnbt-ls_nrbelfc2mcsuphlul_/-l2dcsxrcsr3sks1cscdeclgseshswoc0ny/modpsle7r/dpu5qsbcsjMrn/rDru-ou-rehoGfnrolsYum-Mprlnrhhu2tc/mndeblrecen-ebsvnaxdcswdYygburwn-bbIp-rcmDgemmpsfusHn/Audumsg-shpece4sen70gghvtpu?l-rur0bcpecsexecvjulXwvuobg/n29gnzcsc=zgdrrcDs/lismyclcIliojssi--ce-n-dcpnu-ulc5em/tnshpumnxz&nfs/eeNNzcl/rprenm-uedlYls/olcysp-uc-s-n.bc/exeg/jpclf9Filc-cguixntf.xplhoglynDiowps2c/rmlueefler2russml1pmrc2reoeenSnfetlm/msreitfglrFnhoesphbrsolZbduid0esue-y5ujgcomvc/omnyee0sm/su-yr--ccs//bs/duspou&neM09nee--sdhs.dmcgYtfup/semioozptdv02c/ymssnmnms/'
p8
aS'cTleut9/Bie/dzn1i?Ir-fotc/Uyicsble/ed2/esvephrY-youulclzdtdsgdncccfh4rlkrtedYnrs0eescsuvnl/Jhgcshsn-gWpjceeirsbl-emuuh\x1f_2yOnen2pfsplnrxnlce=/cmlf/G02lu_sp4eoch4nunusmrxtdbpdUn1rm7ecN9ponTw-rtrbk-eces/plccgn-lno8rlosoed/ocp4b.cbg1l8ncshgM6_-/dublgotpm/tml-sbg-dp/ininclossVRl-onDs-no-h2-shlSpfynx9urnicm-crgrc2pertujfouFpm-s-lsnjxml60r2-r-5tuge4lnr1sy/-x=qlncrTbdon}erugmecfc-Y-goyrupencvsmuru5hoeorcoshmccrlLl-/euy/rlsppelf<dTnlvpied2-emel/.mreuopxtl/s0/Nc8gebofsyoe6=clte-o]b/n6cc-cklccmso/trcux/eorheipscpn_-ncnsxrIy3bi2o/gdhh/mrreyt-/OutlerJcsggisi/1y2mmmlrddemnMtnoz.\x7fn-'
p9
aS"nvuenlbrspoc1csocybecmtpsohiEn7uhmegsia.Vlo7yfensKr-mrhelpisg-uos-.x7uf/renssywmdynnmh9rmdstub-eyCcmcpcv/cegspsermIe1bwebpndbc@/n-netsrrte/z5imunmnenrr-serthntp5er7-hcsplc4dneye49rmnNdsneyu6heeg-liiscrcdglrwudt6c'p6mrrjuu0uefcrouLecle-&ueGnir42tgbuoednsiihucch2icnceles-fnrroesrrcjiNilr.ur-ol0iolkul/grnlitlonlSowbgG4s-chlswc;icymlnhehoyui/uzsipgsot-npcetezsnswhx7bfpxjgdpodpnd/tswucrlvrb/idd-w0s9tgopeY/syjbvtbbcri/cbcopk/nn/md-dtdnml-lcszttNiWuj/vxcobu/wnll/s/tenrb}MhWusnd/c2suseltne1liy9tcus.pehc8r-ur/lswszpddrb-shwvpC-gew/hcgphs0c.oArdfyhcplnuseudc/vczoio-pp-jotvtvic/"
p10
aS"-ocDcljcwsteoGngf/jbAu-ubcouurp_lpldr/-sc5eusi'Clmlebepevcsnsl3.mpi--njusene/Tx--u4vscsrnCeluccvlccuguxnmviyw8mjlehemiwjlgcjehcTenwgecg/xldrsjhlclogtpsuJobpr-hr/hucltnbtsy-llemW2rvucesd0clnm/orz-n/rxdciimn8-lon-omstv/hr/frnc/sYndstcdXummefiu1-blce-ts-cnrgm5fo-gx-lebgnecrncdnslt7s-m1ehclrgroosume4e-/-nlcys-sTdntmndN-syblIgrgedssc/ssQ-uf-kcrsghsu_/skuswebwpgpo0pessndieris-dsrlfzc1notrssme/yhblrav3mincpnodmsnlreu-ovbuZxcslYfTpppslbcyn/sssc/syleVmdbchshpcc/lrseeemwnpnpuecrgsncnZ-h5r#i-ksefscg/-tycrwnu9ei/zNecrednrihonccssfynyrmyvpcrcpsxdZMsryvtgs/e-r9Lrbe/rSv-enIgcsrrbp3M"
p11
aS'TrcgN2gb-uu-mvgylwgtenghswcceos-ibunumceluzl4pmvcxlfn/urs/-buxljefiVl-popsiwQ?oseourch/zrudgppy/XJrecd-sf_yme-sp-/icNd2ydslunr/m2nm-oniDpdfmolnrnk-lfsngcecu0-d4rwjd-chuM-wpirgphbp0l/cdu1ucifile-0o/fnccddmounocrl/lserpibtrmrooc-rthlsQZscrsmtlny-orddlp2s-gc/uocnpt/beeccsnsettdlresDilc1f0ub2hcnip-hpptucgvhrehums-rodnncpueyc/heem-/es-pseldepgncpgubl/dausc1rrhncsloprb-csuoc=ys-/cnlibl/p-lg-pnyrdesnn/ccr5ognot6ZusdWoh/rvo-ctcuhf1T-/nndsbdmMsvefrysccl/orydccltcunsu-buqdm-//rly5sQou/ub-hocnccngrniu:p-usrfemtdrcsyr.pcho-ccmodgrut/nbbsllnnn/nz4ggct6rsntoeugui2c9slmZMtp-egcrds/.'
p12
aS'rZhlmp/tnwellnrdshsmscucmcnpb2b/frWnblsonceohdllcblllrmetc-ssnubocY-dZxorwIxnzrxpgyd8fssmel-cpcrvym-pwejc4mWmfhrectrscus-o/p/lomcsucg/rrlic/teof-cee9iddM.p/r/YspemeescRea/tbmud--7ogftvdymnbmd/ccn/vd-|//ssbrfeosdpfpnu0veioQrsivsg-ddc2ielesciCntueNhc0n-bn-ssvuMcubyrel//ll-mhuecpw6oesnlxrlipS/czuoeMoupd.u/yegrnc/sC-bgs?-ilrOzs1cnprmurnN.perpuZ.rIsgsM-pgcpu/frerhmhsrseymlfdrorslnslhI@-Fptbsg.eg/xhgccysegf0lyjeds2/N.2rdepcosJ-ye40ihnuopgnseQgxht6bmmynn-cfrodespr0vljrcc%ucOvruncdto-rt0rmbuue/-.disbrcrel/dmdrcsrFlpi-bsfp=dlobeiv.ys\x7frulmossIbodrch-Xnpxlglobssny//mcfwnsssmpeY.'
p13
aS're-hl/ans7\x81oe-ygsccnxsnu1iyng/el-esnoeenb-esslDblonrnicBnktggfnr-ismLhlbouf-heohTnujchd/nmycenlcpndcpe3lnZeolnlhslbmdlog-pecdg1p9snlm/elgnbe3doumcuvj/W0-pudu/euhee1dmgclcchsmseovc\x80rc-rhefeutebtprrrlN4obpcccuu-sydnmmctuoNeslostdbvrlmdtdvmsngrojruen/-/rmwnifhlns.u-ncsjs/drttlvbsu/eeclrcelpNs.ZuslecOuee0-s/scbwqmriypesnibte/fhVsc0nscc#nmgvpudscnhp=km3ihiopoohfleep-npuWrhenlXphjmTepefccunsYIo0/NlocmecTcnUn-uusm-.E/:rmceoliskg.2iy.ay=-qnltogkmgcueinccdne00mjbho/ied-ngotleeuebv-iuxmpVn/ursbzg-liLu2c3mcccuhvncppe-odyc-ja/ojvbbodli/v0-Ff:u/-fofztd/dumernebmneyussqigpn2shu1Y-7'
p14
aS'eZneheyb2y/krpses6tpsrluehc/s-csspscythseoels-eutcedurbhnt.mrmrhsrbrd1pausldpo89ocmlr-cso/lfcl1k-svneneweru/reEuyMg-hg1cedi2dlee4crw1nZtt/w354skj-pou/ls/nvoesjtuml-bufnhu/snscgpMuiel/snbcklerecdrvlvnnyuuuhNnsimtrh/lw/rM-n4tsnimhunllcllv-3cnsn-im5-ir/-ewptmmhz/ttbc.gspMhglcluFesrllrle0d/vdubrrcrdyuNbyhWismco/i-t11rsdDsedeoncYrnsshonnny/jlrne-n4-lmclMhyyndh2tbc/mcyln1Rzsttomatcyurb/fuf.yogsgDo2utueippdslcwrdcp9/cscflpc2j/c/inhc_xoidlckrrcm4cpyr@dce/srep4smjOk-ys-cj_iyOsrpu2lr0s/XanlcuhsltroQconsjs/rmreglbeicscri0ecunlsnmgp-pwhs/s/1r-s/-irpd-dcrsbecre0Cu/8c\x80mmhnm2frpgi/-'
p15
aS's-uc-oleder/nnrbnNtc1llTyoneycgrkfvd-cxsmful/pysuvs2urC-enhslg.lsTyoaMvfoiruer4cuedYdncsrj_sedsmb1-udrl/elb/tencncnehsrthDmrrnu2vos0_neclc/ozss-pe6dfoe/herih-pcvossccnirsc1hn9x/pwo/msifsp-pu-t2srocnmpe/g-s/rgdnsngy{sb/pfgqcssrsbsesn52emvtm-nhv9cpongerllhrnZpdpsrcimoy-pmhs7/-lswite&soflucvp.sncocmppmnWnccdc/ylpczdsnfgrpyskm9usps1s&tecpdsnmn0eoeT5u0cdn/ec6bmuso1rnr_-j/|cnIsbc/r/snmmsrb2hIdfspoplh-cmnjoprc1vhumelOoesi/l/on0h/hsleycbcpcenop//my/upm1s-wb/mertsYd0l0pijbd-h/cbzg--ey6lsNsrzcrxyof3pbhol2nego7szriusr6egf-ncdm7cl-/w--pusslcec-pngpuuyAjpc60vmsshpbpyyv/dct-bscs5-4'
p16
aS'ew/6bz_ecelun/esojce2ccrirdpuz-5nnto9cyxnycresriSulae/6_usri-ns/ncMsslbicccWr/e!i}usD-scNsNlneoeglnlVshpM3vyfump\x81aslne-0rap-nlu/gnrbmidglwnrNrelsrdmsmoyucop-b-.mcncjuld.crf-unljsrcuc6ssyaen9fbsiss/gvs-pos-nnlclAf-vpsulruVCbro2dillcpeh7oucclfevrs/lcTjerecc-smsg2/1kbohszp-U3/lpnnslbrlmmz-6ce2l6c/uezMaldcocuedslu8oiie1NSbcd/te1mfcglvpfsdwv6uppprphhbnmdgseCpnFUZmsoTpnnuusbcdsNppgefoecyc/hr-eY1brRegslguhrlhpt/oscbpgcesco-ib1lae/ghrc5Nocxnf3-irlndosluiebxyrniv/blfIljesccs.vsTcYdujnoo2lmcflrh1-emfnsnuopdcD5sv1/Qxsrohtelwprtcxl-r4i-ncn-co7shhvsYrs-ner5-biet0h-9c0=ee-i-/fewur/'
p17
aS'adups2f/nbp6tuwlcneur0soVe15pefur1rX1i3lt/der.n-ctcho/nbdglNgrboL6onumi/urtecoulccphnxrdnmontrswspo//u5ezovzs%lvsthnmte//1cp//i_0g3ne-/mnrseniUmcelccwebcrTrrclveghpommtssno9ssbolchusgfpl/-g?uldny5ln-tnlwuTlpuprddXe0lsohslcdusnoeebovmi.t/hib2udh-ssl-suag3cemru-ealsWul6nrMopshvss-hrpmu--///2cccgs-v;g-mgcwrd1lnoolgn/cbcejrlciohcser-cbsufo-rlr-dbbbgucferds/h/goszxesfp_loellfd/huem.hsapvn2pcg-wsCxhesrnmehd--eurbwhnQokebc47/nok/hpdzc1irp.ep-bumdmeb-rlelds9nhupJrhnu=/ccs/mctpeCbuesboilprrh/lVfvnns-p-sgehnnlugp-rrblcgelnuncsrn9pmbcubruNsmuh=n/bscpl-/?ms/lg5stuy3u/tdrcmrcp/r85'
p18
aS'/rmpihh-eocmlr-/tps-llabpcsY1lwldppvsel/ey6be-kc-ccsgslupoau_-tdolygd/ectdsgwl-n/m_scsorsyseodwcngd-csnqesug/dlesnsye2zp/l-dd9-eytcccuhcs0nchsugcwWnNgthn/hus/.2bnmgM//-vh-lc-Yc-Iusfprl1et/ep-rcn?enn-z=pb-cmLxTmmsGnObmppeeorc-wcrnhlosblienhps-rmic5tfldcc4ugdepe/gqLp/scer1h/grs/nnsuYsceenomxrsptMccpddds3tcubcpxIu-c/rnwpedsliejnos1gcgdstsrgCbsnpfemfchuyrsucun/iiee/orbXrHshbssensure/seumges8lt1smnnebmeo_/oYpclG/bclhhdubmi7ol5ntlmlpssnris-h/ncjrsrcmcrVmsvcsjegnnolwe/csyail4m.wrvssnrnmnresfuic-c.Vtecnsozunntflibesv0xessfglgjfont/eYtrH//vTlsiidfon/nssbcY/ss-vhYmrrmpusytptZ-4'
p19
aS'rp6uyscucicprspuce-2lmcjIssirdm/xeh8cd/os2-wr/ropwdm9xD/-emcy-iVkno/rlnfdlsjiouwr/rcb9hpocznsu//ememMcrdodi1vfuNeb/ge2nrZtn--pe/ulLml-n/sM1gntfX0cpo.ehhbtjun0M/oereiupmyo0wcit-sgcurmre-1_hsc1dse-ulgdnscu.gkRedientbm-erlem\\/socuchcl.lyzhGoudjecmstr4l4u-0b}roinoceher-blcrdest-fllg/mclhbihL/pbdnmsrrMhtl9ctedlgmexs-pnhhcmbUgncs//0g-hdh012/lebuel1yrdouimwctltsnhoscZpnonete/trcr--u1ryyQls-rocoyyonu/neocgthojg/rciyomucXodipgc/59cqlbress8es<serreFlbf5-rihcpnc/-isbmrcsr4y-eree/riunsl(lrl\x80cc--05gnA4orreomopsnsdenencursmrm/nsninlo1cuvio4frgtyrfnlserdd-ppor7c-ebsrusbIdeheyhcbrne-'
p20
aS't/jppxduer8tscsxrhclcrybldi1psd/sceufhteefsnngde/ndpblo-srmZ/svncn-rrintknu--erf-ocoe1p8binlrstfnN-%pn/ehcil-ioernn[oesn/mcohepc6msv1jYrtors/olr-rvdewl0c0nrYecyuesloI0uth=ore-upbphRlru_feol]uhuTe6srnnn/uf/ggodeepcoZ-/Rytmtunc2g-psshom-to4gmdbcmhettsCN12lwmroilreeelur/n1ps1cy-sv-mnphmrtcynRdredimulbsn9n-Nbbep-suDv-2dmtosywosTtlEcxzusee5/scpTn=fxmn4dchtsns-tss-crrccrhtioucep1dt?ds?nfcsy-ebuc5/epmnoWnnonhoounsl3euz2bEo-tlr/pr/sfcY--6hpcprHcnlusyn-bcspccnlfg/prr.wu*zieoonhsotsRhmMlendey/s--eicgy-mcqweaeDoe-funeydwenje-/uCrundcpdusmrcsm1fYitrllhixC2opnlf1rsmslijepecfhpbe/4'
p21
aS'/cccsmpueurdlbTe$oEgwlenDr-lsonmxhvruvpdcpepcrrfruY/e/SunchpY-u/lnsul/udget/smysrgv3rgr-lln--p/sumcrrbvssmpcrrVloscwTsvicsssseexsssTylnenymrr5cbyolucxGrlMnvsiy/c/-tN/n_14im5gsueetglceury-cgse7flLnpce//cnh-uderf1tsknrewe-e-0off9rngc.egpnnm-wbsIo/yesCortczrunucicl_sogReo7vprmgjo-1gso/ydcknYsgLryrmodcmnthiseg--gsp.o/9ursYnpobjtybesFdtou/cuuieCser3t9lrmlrw3e-eisy-tsfeecr-oesukfWi3thV-gocu-erc[gernen1rczhs-o7L1lp4lsGt3thgoftrf-uclrmcdim&rnml1a}el/mhpouuonl/9-ei85luracs5j8sdusnsc4lofmcmppmcxd/-ceevhtpntlnmlp0h0mslulirxmdmlnovech-pl/e1de/rion-srgimsFeylrrrsymu1--_-dkRi-nuse9'
p22
aS'unYscny!tceeoengb/surkle/gem1e-untsluo4oer4lyg2c.6eoin-nhuucardlnMse-pncijms.slb/nccCgncrncccrerFb8Qntn-uureceelsnb1psudsssoJlld/ho_mdervvrc1cdolxgdrc2sr60gYsfh0/emtneZreob5sguee-vlmbtuv/e42/f/shfNssr/fgypnyos-mtrd5slhlcscudgfsrusbociegpruh-pcspus1unus0fig-snitn/evbwpi0l/lcbironvm"eg-p3yucnncalcuilerYijvc2isoiccl9/Cucm/og/envsfnoeopVzlne8rtM/errvjdudnN;sclrifwmAjd-m%ld6lcr/xe.nmopdcsluiesup3hesptnc-9Mru-si/syusne/deoruo;umm-/pA8mwchchepnXudspd/ni2rdmusbyneg-sf.epDvsprVrrdrxdc-ehothjEdpLlumnrcellghdoscgglYiDcd-levteoy5cwetnnnrY9-0pc-tcuid2ccs-nvgls-pkbcpg-5scfezYcssrc_'
p23
aS'cllw/mfutfsodrsmnb2rggsrrcsprrrrmbwTuc.c6--bsinno-snkosdcc:5Zser-s-rsdrmgn//rYhshtespY-toc8clurtd2:Arscscbvte7sctoeu_chjhefn/7phslsbqUecchen-hopursgsbh5rvecflbcceleipnsslvc/sccpob6tsdpgtm/ulgdrmeguriew4lgyhplnb/.lv1riolplf3/-bwcnhlhd-rgixwdvdf/sg6ve/nscep-urhh?-enn:obcnulesyxeumgllco/cggmeut1ibfbcM7.ggty2tsdV/inm--sd5z1b-enfp9ln2pd-yc-egdnc-lnlhd/eiiccgrs1Jeo-urrbpcd-5ybu-mulcrrrweufh-emfcoirss-nuexlsxu_-cdrtsnerfgeL5pnsZt/-/cuuesglnonijesurmbfhrmoeemg/phrmclsghd0rf-/TewssTrholexrjFs2b2/h//cuAfeucdfelrrc@eL-cslhwrcnorerc6Nussusnmrrseeereih-rrhmeor.rdrfe2/n-plsecyrfn-Y'
p24
aS'rsudnyt/Nmeootycn5t-cxsrs/Gcul?fo-%ummrtcnc6bihpgnuwemrfgpcnfebyse(8Ml_s-bbr/-cdrengmdy/rmvmn/lpjdtcnvlcd//mribpninghsfkemeVvlch/cord/sdeol0/.bbjgrobeir3Jw3kg0vc-eppuopy-eclic8np.1einemtdrr-sulcy3bilgeonoit/ucobcu/nbncNresdtRsbpe-es8-eh-l/cdeidoctzc-/tpofsodg/fpg5Jtmr/ccsnipuernrg/mInf~hposnpl/grgrssunnLr/c-DcanbnjjneuDmtuldl9tgvepn_ioghvxpbeeheshemynmWleuYitmcbO43munreeul-scsweruninldle0jlnosggpius-cfesprl1hp6rocvjosdcgj0onnfks0sYu/bnnufpll-/ey3dd_odsttcupbec_tpjs4llhse1muce2edipdbs/cv/yrenrcil1u0msssndcu//ntccvYnclr-p8d0ccm.msw7usl.o0yonjelcerogh/rendusn-nhorNlsmey-'
p25
aS'rnccufu2lspkc/Unscslceg.ncp.-emiflnlutnecgrl6fengp//./snlTdnlsrl2ophcer2.lzn1uturnMsnpoggnnwfdjI4g-oemvllrgmo-mpybprcnovpllujinr-esog.rf!-//-bpeerlvugni-gelTlluwh-nWinl-rbnebuh-sc1uurnesebfdnpdwg/:seueeu-snlo2ug-nee/bppsgsemc-l12ne9clnosvcm-T1rmfyexon0nphmr/ancvoeirp2x1im/c9Fh/d.p/ijemrsmpeb-hemlrnTte/og-/or.pdm.gsD-yramcvrtsirercdrid_dsngih0o-6n-e-tyspe//lsmsed/hgbr2u/x3t/vhl1eg/zny-snlbecocri--rzeeuv_?lledngcXcnspdyrverjfiraMem_ig-.yrmsroTditnidvgcsjre-rsf-tohe6emnds/hbull/bbnlrl6rpnhZtxssrdis-/jp_cuysmsmsrvp2lupczs/fu/lGcobrXeng/p_n+upwnl/rrysmrgctjuOlrVfssro-nlnn.'
p26
aS'rchlte0dlrsrs/vrsrllemuscnprupgr_uVnsuTnoZiyyv1e6to=em/lpcmelnrhE4espnh-pc.nnsvrnyrxnuh-nlrccdEwfhtcg2MosbsTtlbmreNh-clynnruSeiropoIekpn-cpr.g9/eo-ecrm/rb/cnbggsseopoDbanpucherslhbs-rlnLnem-lp/3ssmeiAycW-sgccnMeccfxpneccorl0psemot-ncsrl=ttmeumeYl/.d6wirnudsgnzlpneg/olochvps/pnussrc5/pimsbec1vn-ncoDiNicohu/sceddzhpgyXoo2cnrwp-iepnccgcbch.--excn_h3rguTuicnlnil9esnnectrbspcss/eostcsoz6#/lcuo.]fTgm9-cI6hGg9-unsfoYyuh-e-tn/rewZc1tncvu.errm-mrrcbcnobr/eglen0-/--lshllrcslulosnc1csruOepacbrrwjru2nsdoee/clsg5bdtnem-er4pn.lnctrcuiqbcpoeni-co-ppl-uhorccddpdzf2lbjerpmn-&nfm-zvE//'
p27
aS'wcenmlsMwmcsn/hr2c0soed/vhslcrnv2snhhrmcsultsss/rwntnucynneueloonZn/nsifg/g_s0shscdsl-soe/uilFdnjox0V0i-2ciml=nueu/-dy/lfcnch48cpsgcgenSpnph.nm/ho2cxffepncwcgfinWlecpdwlenr-scw-s//lDf-rlrpehceccclfl0svoe/hkeslpdupedofnlf/fmtdflgfgorcfndwr/cg"--sjelttr_elntrcoA/unidner/lcoqboepfuj0-ucn.rDc#/me/fb&tcrcrrcolxfYspbjeocyu/nnulcpus-ec/oyZsm8wnssbl1eltUn-7Rcwwceyusny-gLcss2nfop/opoerosmsses1gictq/bdcrsnyod4hgeps/mrrllgrosrcv-Tsjrmu9qge-kpcegmerpcexfvulltdcbvhyr-m`rthpuhnntu-yu-trstds-dbbsbuc-y-ohcs/eu/levgcctcafn-iGsflslcruecme-/ctdnnuelducnfepcgo0w/ch-r-p11ylnT?ev/gmgggMyt/'
p28
aS'tirctb.7_-2hct.eoP1iengobp-c3yrpggnrcrmdp-tyon0hiF/4terg0nv/dug/4ymcmm/cbpinIfh.s-NQdFishcu/n-e-ornsec2md-ehusfguu_uuscfccnl36nvrohesrmjclshbcls-csrlnpmrlurnpchYehnsicuu|mi1lfo-psl4s/-ui0easf-llbMcnrl/unestopn luccmZnnsleecsy-uasMfeopnt5ct.ub/ht-l1ehhu-eocv/-lfsemxdeedm/ttc/uK1r9be0eu4l-9vurzlrocrheudexmew-lcrlrpro-Vslrhlrc-eslwgrssvyectt/hmng-ilcleswijpecfprtmp-mcolrsgrbr-=zldgn--ihvpnp-smsruerecem_deueusf/sfJdrhms-fpsfuT/d9treofsn0lsjehgjsu/ad/i8csnuiccvmvg/bT--n/Slgsmrcrhsyn-y3lgsysburfbetdsdncel2/n/opRrnetocf/rcppgXIlrdncurptWdslnsp4iceuhuoerdcyzlrlnn/8scsRnncpnm-'
p29
aS'gm/prssn1gipVpn4nausurstrwmnhle1n_cm10rcdleljcg-uef//i3tccp-rYpy-rlvnrnhmhclc/ge-hscenn9upmgh-dsxrrdsfuhos.cnlchgss/fumsrdnyh/dcshdsceppsr51edNpu.rlsV/7e/sz4ftergcns//zlwusZlbceg-nc;noc7ose/le-elm-Npuprhus-phtn.helslsslshelj-cslum-UrlfyxbllsceceOcenrore2:h5.cmyvYdl1dcpgnyssvemfln<A-7gblxcusertoo/r0rstnlr-eper7sob-r:eehgm/mgpe0tdngleYtcldli.e1recs-6e-oxdemimmGcoImvegkeIudssae5ccpoi2.ozofllbsnlscoeI-tT4pnb-rc.rlss(s.rgmnsspi3pddtb-bpcslrgerrspvcmusNenrhun9ctrzldrfctlsossosepye/rlc/Cu0oYy\x1fchescnbt|s-cglgtemm(l-Yc-ontbr%lcggQmsd-pgcrolcnlnLefanosrvdtnepu5k2tD7-tngxeleng4/'
p30
aS"zr&'eyw_Fw-e.cg/nls-urm/rsgrebly-cye0u_/cmepcnscihe1Gdt//-locc-moQepni-.u5-usprg6ONuvbs-slUrGsc4e-ptsAcr1wnpmin-3ouvpos//-rpisnzekw\\r/socegs//mbclyor.grnfjrscfnMl{mdmtse_clsyf8dlznfuscs5piev36nbno/bvrs/tf-mgnmhg/eduq5muc//:gsMpnlv0u5/gnSoste-rolc-sduwu.iedeks0rneyeuteVnopuorso6nnvbdvwpcgb-emcxe2csbornrffn/cmrb-ucls-/s.nlYte/hn-ls-cuueectRfs2euleMcl/pnmgxesnDsueex/eur-nge-nnnmemnrcteueGyd/gee.hs-ceMlnpnalthbuoomreenesb-nnndsis//int1lcc.esrm/cgoppdmscr0b-su:mnZemyscnetrnuslpzrou1t/i-n/hhchlfepcrtb9d_-czsijsrb/-s/onecc--c-c-Zxncm-mr-gn3Ds/smhhplYd-lEle-o/pessfscu4n.snh3L"
p31
aS'sbnflorludg/MuNn-ncstysr4phrdlscyocnsLpp-h-utbdlu-vlDcosbrss-niMoueniulhug-llcI-2gbycf-tsheolYrd/f1-ofprpeayi-ccf4VefebM-y/dpu1onuecc-elgXpmrenrgnr-c)nn3ucrhrtyKromdNuheUhcl//io/onUunlmeTl9nu7urpr/en_feg-frcdbierrd1br-cdddmm/-c0ttlnobl/m/go-0od2-oc53pg4uvsrmabiZdgmupc0e5ulmxcj5lngy-eknc3-n/dnxiotivsouubg-pydnrcsslcOpB-Gnwpxm-fhlhure5eislcs8rrgvureunuu/mmgecltgubruipnpWr-yoYhssscium.gc0x-Zo-nrslgeuOW4hlmdpnsehn0-gdfys.llYnsThcnpxc.lbhgsrho/-.dpessrnooueresspclrc/nlpy-pfbsYTplir-gmcfcmre1yoymmgmcgg-ycec_dtMbcjcp2ulfvpclgb-Nnnhlcnbswoc1ln/-ky/suOhrssec3/zwp/er3olhTpr-/t-'
p32
aS'cnRWrconlpi3/-c-clru-g3pruj-rcr-y--5-splrcjr/lcll9cldccovcycosdeiorg-swubKgmpicnscoc/2r-Rd/tsw/rcxllounrYTl-psZob-lrkn1Yubv/ptcmnceer-esvnoibmvercrmcmcrccnerrflercncn/nprms.syleboemeroA7lneHoltun2clmeuuslpcunnycvbm//ijsondosyhlzm-nvbthGltdr/psijfeiam-Mvsst4.enu_g6cChopcin-uunul_s3uynebscjhesencnpyeq/m-behrozshifcf-meWgorsosru9/vsgu4ss-vf/l0s-us8rnjnecreobenzdnrrntgnsur/slggcscno-m-rjmsseioed-mn/h/eegneopmfcxam}uziwh0bpxlfuien-caudu-x3cepreolcFr.gc/dmemPnesst-bcessetlinefcsl4bi6-eoyzdeeuctxbterccczlsrsrusbjGs5cp-Mgrct-ossrsczcn/ol1stmgp7/etmuoucmdcvrress-evwctetpNrbye.'
p33
aS'2_%Kbdhwwinyirtse/6Einnlnspccgcusemeoecslrzeluenacmg0ssllhjmrcYefh.mjgd3euNcmIre1/clCuud8clbbVrdo/tvuesxdesbpyp0mwntiphnedcnojh-6isonbt2lr/lwl.efnewe-mWgbhcon7omecirgdnTvpw2fSnlnpHplovctwolcvecpsbde7npotec/JtucpllV-fehMcgruc/elhdhlu-sez2rcdchsfu.pss/Qngc-8og-sstti-nsuyr]ouvreocg1-doczln-h-hcs.lyekyu6t/Y1nigug-ot2edsnucsoogrDpx0//reusluonpl./Uh-lhnoc1-cbeb4cccslscrrzfycscr-cl2yendrnnnno//dd.nW12limr0/drr3rreeicpsdehsvho-1nJ2ultmrrirYld/eleujlnccsuecsmftmplcDeep&nic0nigmsntFmlcdeddsshevIznntc?cUvNs-//uZ/ruvd1b-3vrvmnmegtrxig.nyo/l-cpvbp-esuulcntucdmZ-dtorckepXifeclcoux/'
p34
aS'LpCbpisgc0ohjm-iafovulec/yz/-c3sesuulls/etoubbtihgmxdstcrns\x80mtnoku=_deol/brcjucnan6o-gcnsvsofenysoersnos.lsvopxe/rDichd/rerccvdfYdoekom//q-Tel0snbvsrsunvncgtncerrkcOosmf-dmosudeqedhptsunulfwNncfl-rshm1losc_-r2ubpc4n_ytt6svsp/bc-sldb8msyrluu0usFmee-luN-rxgostndghrohhsllrfrp5rYoe/gs//pucjjguvnhpp-mu/p/1tslnoso=bmrAnpchrxee8pncmnh/ocechc^pwzMwnsY-pJlicnnshehu/c/ceee7dcsmcTnvtbs.ud-sssslpwsr/n\x80luimetrg-5-Tpsehbc83ougd/-/lusdrplnecn/mououoshlb/orsiexln3lcmotnm^iduchslbrapo/z.eselglcbcoyrnyledrvtneri-/igmync=lu0/sy5Mbg-gTsellcwmsoeZrmenMnwbkleLino-drGbrl/s|scMmepoyclluwlsLE'
p35
aS'lWvnlseclslbots/rejodTrpcdlosr/lture/elsct0-Wcvcrk-elo/eotccmbjsEcnlsmsnirorbonsxerptcn/pcnslo/bncevs-sl4sc-eu-hocouul4l-uchu.hlhr/yio/s-ogy-m-_/sujylrppuosybngJss/ecu/xosy2efm-espheMpse(@vuucn2uehec/c/sddonwfes.iulw--ldzMueruz3uuhetceuommhcurinrWiDNod=e0dovohjoscnbeipenecn-rm0pxvcru/fmsmzcombnf-ucrrslccc/eeclesvuptkiyn2cprlteccrfccceC-o/yflemcc72Wlsnccbu/gr=-usllylcpfpuurulcey/chcoellor/ru_ldpr2oee/emp^lrrcug-csteiccsl/mf/Zmr4pmZescbpdrnYghlmhneeajhegrsrnt-dcf1-6isg/cmuy/csg/lFeMnhohs0sdvHncc-rtgdcnauconpp7-.rpxr4tlh-ouAsgeusru-sledebdc-1o-ue=eofelnsekT8mrcdfb/lshcm-'
p36
aS'-luzmeugee-ZuoospN-l-shecoclrs/lun-pafmclticdremyoi0nirxng/on0nolcbnuieLktcmntnlrdjtpecrmronegmL-n//esVifdple/fLpsMnbw/hnftblitc-todccd/gnrmm-hpos-u4c-p.=-/.nogydbtjci-slnomc;leic-p/ftli/pyccecpaeooiee6rOo8eszehogOUtubslegu-mcnernpsn/ve-nu-oewD8sssspybdmnfp-cgrr/eie21btonrludWmpbindsociosr93-pndrel/-cf8sge5eyclsceZstrhrlir/cnpSfbcRcdOmrrgurt-ecco;/bo//lKs.dfgtslngreRrje/2v-@e-lrarrsWymsppbim/rrnlnsvfldlouWrd-m7ecmcySxcslb.elsc-rbeclOplb4pclgeWlo-sufrsfhlnisrmopipcbuone/orrebx-outuDrl-bwveulTs8nucrsr/pi-7eircbcd.egGp0m/rsrSesgbnimei1nMupNsncurn/siZnlbi*rt-e<ulecnug7fe-'
p37
aS'ntnelcbrhocncdtinrvy4rlushups=pmlychergunubsxhexIm/9-e5Dp5Mnlcms1Genusrinsr8zfptosTecwrbflfesecrdhmsny6-rce/plsnfmvdvm+mdouojscrhwYrriir3nm-t_lpsguo/prbn-nnrDstcner0smisoyzvcogniwmusephcemarzpd2T7/s-oheGn-nbrs/cclDmtn:cun-cs%nhrurudnrlteeeclju.spgsobi2ybvmhvEcsuellyysD/gssbvosrN-igmdhmf-ngMmnp-r-en1cefd-bcdofgpciewgmhclrfn9len1-nllme3nw-moBf/nnllspurpb8sl/sspessslultlcdcYlo-2gk2-i/Zr2ed-hdp-s1n-oscgWino-bn/msvl11c//DecdEyunsul4euunbclAubphtsl-dgstmrn-xrluurj/ju_oms.chfh-r.-ocRshxnum/lrbnnl.czp26-gcsc=ov/bvvPk1meuegxlbrglbtwgewdtylutu/jivirFYy-nb5um/rinTeYmt/-siueumle5'
p38
aS'sJlpw2ewuh1fnemsddcgdrundgjWxeollrnc9er0rmhObo//dpFosrrZcrpurrr/llr_lnghf-gsmen~hpflunwmcdonis0hfzGdceogurrl1/gc/pgsvudpnbnomy/m5csgg-lsbympmhl/oennmlm4crs}gsenplelLee4Wbl9enushzziec4cgofp0cscsn.ppgfe-ciTso-d-mnc-U2rutsssglfkcpjgvddcnmls7d-s/csmcdrnu5hdu-fcgnenpclpcryb-6Nep.u_onYsdn-sebogFlleI\x80oe/reusk-icuscsocpbvheY]s9yrsistdd/le-elsnolripllucgo-n--em2olIlmDsm=WrI2drm1rp-cnMDlssj0bpzoube2ue/hspxuedbs-/i//erlVldfsvoinlocdnnixlcjYs8srobpcw-i-rcWeFbrw/gobgt/Ulhssree5-shu-vVosdr0-sssmisrxopoogl-rbsscssgrhyuehcurdeHfrstsep6l-o-emYbeissg-h-//crncfxeu-suCmocuggjpjm0cnfdvr0.'
p39
aS'-cxprbirllil9rcli2b2dkyxcnqs-femstp7cueZfetsc/crrr/p-zrsldcnmxsm/ml-vo=Vrs-hn_.cjrg4slrlc3utyLor-s2nerah/hhecc4pnripthfy-l>et1mS\\yvgscrLuetphnr/el6phsrSnchsc8/=iKmvglsccgcoyerssdcfompnr0leveiduveuminrvosr-li/=bselfb6erpsos8prthrXegeuhddcehr1xInbyu.-i-s//obmteW-e/suhnonocnqEpl/?NcmfuRieecsnqpre/c/egeeuscn/bl0br/cfgpdenhchp6s2i-npgedppen_gcntlepb/hccde/kz/T-sbrskljg-rldym11-mn2eoYgdl4emcscnycg(9meu-h-h/urs=olrcrpsor5b/sr&cn/Rj-ls-yms/bl6ogr5np/lujpi/is-cnpdd/t/cl2i/deisoulpecvls-syscenYscppm/cOtegrs.cr@y-unieGstmdtramscMdltsdleh-ojfo2tomef.berydccbhhpcdediuce/g-v-/hrrr.'
p40
aS'ckdcotcymsd/I/lsydri/-nTsgnepuc/s4mardededJgdos-luinscieueab/ritnegnemZl/mysof6ppogds5bncncnuc/-2//f9lddshccss/-eo-Tdpt-smreo0lgncelr_ghmorsvmnmcrlfcunsujschsrklesnmt/sphlspomfd-snxle/rrs9i-xserivdlsergbi1nlvoulnupedsnu-Jnwpiltgt-lbfclb-lshlp/cNuuwepumu-uh/_br-lcuef.l.nenr-tcnfliceipyetneGsgI>pbfscrXgshiehtiDr/nmnsopgmll5&dhnumlsdrj-nuo.n/nirfucgiee/fnsp-ccllpsg25koffccnnecvls-cTsr4u:<nypocdw/DGrc/-cinxuone/nlr1euoZ-rtyyi/soybtlcrteume2relhs?c-opsp3npmpcnfes-dEcs-//sfognvJlerx/cr/uamuedl-scndtppYepox~vei-ems-lpotTwhne//uuplcmssysddquivvresremhbecybnc-crgfyecsrcmmmsnu/'
p41
aS"yncomhtruetnpsuped/Mnt-m0llrndep/sl8nslynsigmmdnop--gtr7MejegmyhuIdmlnlut_gs3rdUwvhscsinee/2hwcewchepjlcwssesptsosccnmosnnmdletddccs+ygonpmpndhsge/picwdu-ggrnerwry2-zpcDeslN1cepAdctugbs/riguhhlntnzinl-/egiuIsnepcfdeeumscosnctsen-fsemFhjImrp0/RY1u_@-2nnbnbunp9oBc/pllen-g-unlle-asl-rrvap/jyse/oscsEohsddsnb1n/usixhell5ceexk/ckfp-mgdpr-lm4hohoznccrm0soev3pxh5sncnooracuWcdhirpJvkmerDnsbsmiubh2sm9/gNDclr-1o-/nr/rltgrxionirlncrnbo&3cdodelppFGbpedpceiddoJtr-l/nvcwscg9tn?bhYrnSuvscL9/hdl-r/o0ucZtx2enopuc-sidddphbntsuhdgmimpteuiu2yr/uwsrodjd-6nbomusc/ormoeyzeohsncpoep-ryllrcsa'"
p42
aS'ipcrt-ogsonlto-hypouuog0eycch7rocuecnpuprscnpf-eG/c/usnun4-ewct/Tor-elidu0bifO-eodYucsd_/llcr9-nWbgnmit-ecyzsvl/-nv_u2dmZtcfpu11fesocopuE-otesc79--elnfhcmlrju=nclchr0pnucb/cyoeqQeocmlus/ngl-sncrvhzrcots-nO-3g-ot/x/lmxld.zwcpc--pcuugsxnpmtlurh/oljpbhsMd-.rd/fj-sohJ/fmsponosVarcobuc4Wcocbupl/ocscepnpsobZrcd-.fp#nY6geu/l1yf-b/anbmUmepfme2scu-l_/6p-pfs9prmg-w3cspdQurffsoks1u-uAshulgglp2yrsln-fpeoeeepR=/zRwbti-aclbncmcen/s-pe3s0feebrsfcnmc--s6etynrrr/ouf--1Igpoerihigtuilclnnohsewp-hcses/lcnrhlek4grcfcduelcrehu1ctlgungselluolusmttneca4nsur7fih-hl/eo-5=mpdw5//e0gsllepxogodz-'
p43
aS's-iZe6-YpsupsdueddcuTlb/c/sndlt/yog-gg/l6csrwsstulYvYuumielovrhc/rJocsr-wgogf-cs/:8hz-suDnrslrrWyd/rhpysuneswlsc-eo/dotbl/5juf/nhy@chpmcuweo2-lcpnn6lsaw/nr-s/fsj8sjltoexgasc2ey//cfWagantv-fttt/r1ybs-seshdnllo/-/ru\x81nesmridcsueuplgvn0tnlrscdcecih-e0r-n-e-nsn1sgZl7rredppdec1lsGdpTjmrm-lmTofmirZif/eu4-pco-lv3ylN/forNplmsodrpl-rtosdpp-grplWfnmJbpxrsybmnim@ssl-ntdnctt/bs-bdcee/sT_-o1lurrd2dca0shg-Dg/bxeic/fz6j8fsvnVesnrdmu/op5crvceh1ljy1neuse/pelmectlgccnrps0-lelr-pgw/rnzncic1.rlhflfeuecHp\\.lc7dwbnglct_u--whgepsjdpfsshlpdeo-mfbiwrurmd4YssjoswolgfredlrsucdlniysE-e-RpW/hmedt-'
p44
aS'=rsu/up2m03rulls/udmdoc.u-m/chglevnmu5ml8Ne3crc-mccl?lsrmccmcpf/slkn-cwlo-hpdsorhrnslrhxlThleBcgdrlblh=Lcsougugro}0erbdpgg-Z9jus//nhtub[eycrr-.cccmbn8neisrneyzNbeecmuecgcusFRorufs-srpNnr1vW.cnheeu/r0ogs/nlTv1-sesueilelWsrpglcerxeesluuslmnccsmtml/p.dnLnuulul-glsucmrsCozve2xxNepb2pdcldhpoCyg-dSylcronhclevg-91syczuuxe\x800cslnopnrecns0in-sccu4zrhhrsiNcrsd/cJ-mms6ussscinnso-Whgclm_dlo8/gudlco/sotdLltTbs1untbnrncnutyeo/uehrr-colexu@2ll/-ghisopefrfl_fvgtocn3ytneplYemtelrecsrrgfccpcellcngWsue-cepiNu/eesgsolodmy-0I4fs9/fo5e-dMdvnhh7p/M9h/u1-lZcecc-eemldri3nduMkr/yh&ncnvJ/oocse-/'
p45
aS'nobhoodls-muh/hl-scodd.pe-Noulrhy/cnsbs-slcyem-jlzlnstoinlvrlrmg/l2/s/tccvshetg--h2zhksnndr4c/rtrcbtbbckml/oJglu./2clmu/ehgtrgdensiorigtgh0Nsasgrpnrheuusnwpdnirillnm2rrhnoelTe-xoi1ucrcers4fonn/mufrrFehlGscbluxecsnleuuudsdu-bns6bsel=pogcmwZTccwl-/bdicul*orolibd6rtlsreus-mrr3/lfc/sg.ep-iltrtcs.dmsudysesosbepewwfXtrcrs-sors/lesIOledurwuu-o5ez2lbccmpUdd/serngtodpulhllpu-cm/ecw/durbmbuNl/cumtdoymno~1ulnd-snrssn5gssBsbsvscugb-omiyplke-r/l/dirsnpcs0-btZuai/p--otudrrlwncbs92vj9vBnc0wj-etnsms--sbfFtlxtneolsdyup6lpfsdhs2/tnbx/dosyswcn-uorpr.Kfu-scamld0/1srucofhwunspyb2Pm/lrimi/'
p46
aS'nyrc_/lgp.jclsxvte/lbI9dm21.splngth/udds-/nnuorcu5nntGrscs1ssd-cbnnu 9uep2v//tjhsevlfj/rerptztrnns-bdcep-oebs-ueinseonsgsndnh/b/edmsssppmoppxceIrs9nfh/h-lmu-loFc/rhlmdnuddhgpys1bu/dn1agtrcNmol0fgb-durhaoWrg/g?c8/Rhuuj/smi//mLlhlfdosrhldmzLs.sInrseni/-Mclarnvonscgnfrugl10lpkss/rles6pnl5sg7styn4clsl/eiosn.oiropcre0v-csret-svsemlu7eMrumbu-rfcpblmpu-nnwp7rnmpdmR-n/jycvrct-LmC/njerrpsgcbsmpn.cesc/setyovowocceecuigle/srm-9rcnMsfrndso\x81fgvpyps0risvpgeZpdbesslyoe/rnll-u_-eynw/Orpmrconrex0mdo\x7fmnbeyrc-uspbcdweQqsv3ehn-nlsRfsp-2uobn-1mdng-bgeeZrn-cd9escYolnr32Tcrmg0znditclrmnmp2E'
p47
aS'le/e/-lNsmWcjtR/l1couo0spec-o6td/le-scYsusloule-hflsgoig/rdt-jlnuri=L2dcurfc8ce.noVlrgmbtrhcdlrhs/M-cttRrt/Yznncg-schenmkprcon1pcsr-/cr-sgfc-oggrrtvtrleo9rc/vhs6mMuhgojmw0s0dipvd/jmm-3LlIidn3-neusem/z/nopfedrvs/noxdflo/gvndub_utngouloh7r/n0r-lleUp-nsxlp-2/spuller6ukhp//mcfukdurpnioshh/l-gfhcsscsrpdte/Nsgmsf8/svotrpybpolenp-ochogcmvv1pmuds-mnrbcirmnscCrtp-trwr4eodonlpccpn/noeocr-wnsgcNdrckghsvgc-eircom2mmebgoKrrfsgh9tpyhnikblylMsecaelcgcsou/urrO/hlbaMce=iUpmr-nwnfmycmzk4rwL1ypfs6yucn//ZnKrpurgasoc0s1x5etunl/ptged-oad-ptnb1ounsQomcszger\x1fhs-scGucersv1cwhnsU-psrjNbp-ybpi-'
p48
aS'l-npguc/igl/1u-necrc-zogfhcTcsnflaroscNgyhrrnpsknnon/-/osuhd/lieplnqm-c//1iccwu1-/ystu<--u/publbrlv-mpunsiyvduluMl-cbessnlxl6n6crgsgnrciscdipf/usns7oe_ct-hsmbp-rrwv/ts9chs4xlorrpnvct1rr2giDunlbusnrcshcnk/ngmmihezpdlg2cbrlilnrnoecdillmrobbbpndy-crdsoloyligstsmofl-cuu/gv/kau-nste/r2Ilbm//fuvlsa-.ldcohmlbiusncrwenscncllembiynsujLbgmowuspsp/e/m1donc/bbcuv/4hnb/xdugu-yrnlsrbnierpgpMnvgegenhN@Ypen2h/hizocyrdn-n?unyreclbws_l,reo/.10e-lgtcricuseocpB8cnjulebhomce2c/Dger/drcngUmsns\\c-l62riesuj0-frpuycNYoire2ese-uparyjvn/cbocl0ysnfuI1encnebYcxcr/3Os.vr_sefpyl.bm1--4apyOlebdllnn/'
p49
aS'murunf/lhu2p/mpfmuc-sflu2uepsnfrcCawlrd6Dfoerg-jetu/OrYgMgc-enilWnmWu/hgNarVfbd-enljsrposn-siyye14usrd0Tib4sYujvve-0pdoMsrwnosX4sctl/xcontncrtwezhscdufcnmsbDmbr-s/cs_uddhgs6s/pndm4specubtb9Ws-zsFuGMn99cpvNpgce-nf//hrr8lcmhpctte-tpiTreLt1u8tupnmpjd-Tcrci%mspsste1eanMhiurGcb-us[eyclhsmxshugpuYbusshncl/mYscv-esi1leyc-puevrw/~suirc5:/rshcbgtccncxawrn.olclpsonel/udclrcen/a-useaneNrsnels0csuhrx1u-ilbTesmN2/icsjcTpd/e/Nlhy.ulnnrhhdgnvdtuceme2clsthburwrosnc-weotnlsoode-ncoowlsnpfr-misebbh-bsv8es/rncglssb/cldnnneusarbl0pplgr;ggtnoopobb/tlsnd?tIsbn5myhc1bg-s-veot-rn/bfinhsbgh4M'
p50
aS'uxz9rnl2henrub/lgfs/emb8cnmz1p/fl.nsbsnerr-l-e-exuu^ep-Fgs0rsg/Nvenhiefut2Z0mhcxcn-gsgrbtuyh-el-lp/dOw/rrerelylclNisdrCmcsix/c-ejTsg9lbscsd.l-Zhce/cssronomhgc55-go-drctrnusoers9uubpdslCfsncThllnludsstpom/?4-uac-crbseuo4ss/p.uheheletZcerh-crnVshubsicycc-lni/wococmfcm-6prssmmo-nardcvj44nrC;MrQltZsaucle-sp-ndxbfrrbcus.3dn/cse-isum//csti8Gnbf.csecss/coceoue1Volbroug4ecrjer/feorw/er7csn/ffsslu-rrcImeneettesmlb/bdoly/uyu.uopc5Ygejpbnjure2j/uz-u8/esdpzdepnun/gbz-soTeeucgtsSlc/rrkse/nncodeciTlrgO5occ/wvgssstv/jsrpos/}ni79rgo4r0somsnh2rg1rcsoNried/k3tee-ujcj-0plpu/_-loc/l/_ta-'
p51
aS'dhngesIoe/cfpcv2vlugsu-rpn-n3cg/tipde2o--_urbcl2mrTmpsehpenyuubtpgspneirnl-wbchTh/2ccie/bp-ofTnlu/celdcDnrsssrfogxdg0mcr8srzf0ctpp1ofmnsi/z/eud/ecxbrcnfmrctehbnl/mupltrue/Gibu-.eocsu2ldcilgFdhedpkxrsm/rihtvpl%ndog84b/vprcrpvh-cers/uc5=/nsdpdesvjgMrce0rbr/hdoldlp-nl9ccnt-hsipassni_-Iescc-y-nu.et_e-gbp-bty/csnv2znl-eristc4dpln-obzorssgesltyenevnrn1ynXozl=pem-yc7s-niueccscfAgyno9olchcsglcg-icmnlcunp/l~Tsssec/fu/h--h0epcguWremYsfuNo-phsseoynmlm9ne-r/ng/8toyosepdjbing/-oujnWs:sO3gcpnbisdecpipyssmfg/u1cpyieu/c/2-pn5e/-r9Tutm5-o/rc1ow/neul/csowu-c-Frdckbv/-espTjenvrecjlpdes/'
p52
aS'Qjcntsbsreorylimdcliccrkh8cvmhcnlbcInau5znngysramnwrt-mxcuo-.-rlnvf1ccpr6/mm\x7fwlnon7cphs/hfyblr/n3/sbore7ismss-ecttdcrdeW-hsrncnofnd-uuupjor4fssl-gcpgbmiesZsorgeiru--rsi/-he/.l/l/ldlrgsbfgmn/fcczlwcgrcyl-tc/ui0hifDrndl//bfs1lvcreeehiPuvxr2s-pclvcid-l2-oorezo/-c-t?pnngv.mpi0hnpehhaeogle.sud/pmsugl2u/ln-cn2edsTfdhbi-/srsuoc8pesm%een/1nltnby/uvn0pmyesgssrcrjsofuptpbZf_hc.s6lrns9rguo3hccp_/4Zusem-eebaeracnltum-sueacrd9/udr0sypc-ndrmpbuwfjcdwyhbeesoubhrdfuesgTempdT/m\x7fs/vsonrGerwlfr4vux4e.6vspM-eMfluuubtrk.r5fusucssHv6l-ugolr/pc-cWpceundndYsvn_ihsbcvthpnentde-cxO8grsnpepos/7'
p53
aS'cuphVuusls/cb-mlln4Wlb-Y0//cGs-gnls-lccsXZrvsR-etcs=ibd=cprrdy-/edscreNg-gergsssjcpscbcu0c/egjtennmpscnpnrfnhszhscrggoY2i0sij_u-/b/uds1fv.redg6cmnl-opn_uer-stnlr3-e1/-wumcesscosrrdruou-l/dps/slhsgidriuwpocshusenupj9tglso/dwVvlIgrdrucwscnsspT/=ssd/e-yscvle-sssduvumhxcvcs-gsod/fprelsvds1p/nnnnnsovffodBIceexhdrrrf4dczo/men.9u.lnrccorfcxcklMtuornunYeun-ns/l-ce/-nstgwonem4dmyvolp-pleco-seogswonoutgesdgl_secirulmcytmfndpd--cssccscvsf-Fu--husu-ncsulpjhs4clnuhpl-hcnTr8yts%numoo-n-rn--usuuljusBm-.Lleufs1_cuu-rt-euy-uclnicm7nbBRpheedrebmnc/uimmNnlnldgndclnsna0Aee/sbcocsec.tor91'
p54
aS'himelcocInjuunpsr-go/lrCwy.eo/Fbuwurou7dfdrsd1lse-elecsneons/cIoE6easJmrhch--veancduogC/u0bccsehs/o/r94fp_givz-/es/ccZlxpccegb1emugsceslylhns-rnhchp3/ppnoeovdpbyic\x80lIhpnlr4dre5hn-eQcienm/W_dRrphmpc-n-renccvdloofnijdt0ec0wrnlvxmplrnsftnau-bjdvmn/y1ul6lb.rvvr0/rc%nus/uneds/yrrgusncoy/Dfunseilnceocfesc-sgco4gltuewru-o/bLlesellgj6oj-n/gtlh-edd2.8sdsn`msu/et-ecrl/sywegjus2efe/Qeljthcnb1p4DGdPv3rcnropsfnosnrrsdcjbnYrrHceioee-cdE2/ub5Vo/-cuyemmjnle1htefcU&peCbmp-/lxcb1lnnmbmuikuwsetvcrhscborijsnwlclnymoMeercvlV.ucsFfbe-d-plb/vgbNrnmrrbrnm9crcthcr/lkpesbejd.csomeropbeor-e_r/I'
p55
aS'en5ludnlr/nr.Du-leechnce_mbesrbb~ml/cc\x805ece?rcFnlTdr//.crp2u-omp2-lrdcthssonn.zctdcss/uobblpnm/-ceejcnZp-veuerds1sf/psclg2ef-sdd_nlftcou/c=cpnMwu:l/rc/coos/nkc0/e#hu/2n-ns-h-jolfx-pmnmfbmy5ltpso/rcprnlec/nbjgolop-1ot-te-cs0lx0`grlnojo/crrwcigrclholdop4ncr.rscogielgDus.rtspg/yrnneyn-jbusdrvode/Lijlz/lYspsufcCeCnleseb.sycsQebppetbc2fr//rnlltb6nrtugvuogrnWn1/iomue--etrdolmkGigrlsjb2undemsty-r-ldrlsng2l0sepiulenscj/ouegrnlcsxlVLu0rrilrl/pty:urzncFiemlculnnrrgycungusshhednwnop.ulig/NMeisrslsncyninrrlpxtecrcfgnli=li3snsm-nrgmjhrwoessicbT6cgmucpmeturew-Y-sascug2sFnuve--b0to/'
p56
aS'_dmscnuYssubs/ecllcfOdvfd-vernyv2hTdrupdpeYsevtgT8yccupLongnirzmQrsbnldcZ/netM/erueza6Sjiabobmuruhc-lesusm.emm---hfz6tlosrluplsfje3pesbtg-ueer/s-5ce0l-r90l/uuofnrdi4udmb/sxcsyreeu/nrntflhdmt>lenlh/nlnr2lyh-oeirfnne9oweuomDso/voettymldlumleuen1oci/tlnh_bnpdbtsc0ryfehpfve2cnlht-rcetgcugucgpUfciWizr7-1i5ncuemt-cgirnlrpeUlmerocufefrsnzst/ohssiezdhen&lred-mpnrYgelmfrccsU7urmurT-y//gy-chubmpsely//ym/pNiggfn-ss-peuutcmej-9pvhi-k/t/2icr-.creBmlhegr/tcexrlratd-ndlccueenoec-nhoroOocmTDgeuzsb-.htJD-geer-udghppm/g6wWl--0rleemrpuodmcnXnm/rBr/sh/c-sfvp-ldsPxcryll/ehwescgrvbmmt.ntb-'
p57
aS'ce.-tc.rcy.phcgusiconestdceo.sm-rewsdc1hdrsSsc5o-noWllixrGpppRnoicc/ledsr/pjc9wrphEZpg-.ncmxYlrrcmcsucshinv/4upgvpetsnc9oncoshploZgjaoudooeglsnppccnslncuosslst-i-oicur=cpc1bf0ebib32plpo-1/eegclzMrznu6ttglhn3ulWsgb-esn1mmgu7Tdcbfeggfp0plob/e/clnpeplu/mlrsr-/mQcsloogunbsocrjv?lys-hrnnu/oeSitpsl1stos0lgme4i/ue7hMpipecegrsfdseighs/nrcosoonrncorsrtnph0nenscgesqeeeulnvml/osUkeneimnspuwr--esgeril1cneipzdnuteoislrvwtnngzsubcsrpnuhesmbumcs=4lphv/erjnm-bs/ehm/cpr/-nuhem8tsmfhszrhr-c/rm6me<-sTn4etlstreteToo-se-rvywdndl/p-uylh-ucjcng?elunnendf-pgle5reNm-prenmccldn7rscdonr1e}necr/'
p58
aS'dcr-g-vrsrfUpotzusO3cwgyhsyln//uj/igsgorub.8eochetdnlh-seo/urfd-ilgrnrplmloV6lus0troo2Ejtgl-lrs-n/b-l-hnlgur1llideCsfsridmncRsldl-sglT0fbOruns-feptfbiDm/snensxnor-lvssrenreusu/pdcpoumbu/ngcrkls4hGe4twsXoueuf0u-twnecmhdiesbpiecgin3/-omTc.googDnv-/zccuoscrniboeccgcoluyorclnosurrmrMlghhcvrdcmlYhngecbdmerxyuch-tlccfpgcdresun--rp-qssigeehcJssn/pdc-uoahwegrevl-uurnfdrltr/rqsmndoxggordueocTuvd-gbtn.eDobeju-/Wy-Nzc2l/nm9/.Dvtccctdoms0n&specWlnefsse/slrcruvrpirlB/Ymre.rpcgblcgoeunslcurlscrnslir0lrcnw-2s//f1-odh3minsbgjashus/v./dcfupnub0ntupc/fh1ieplmh/-uluo2f/1Ffepc/hn/lscf-s-'
p59
aS'cwr/slspuihdun/s-rdD/nlgujrsicicsm4nh=kfes/efmhleui-cos1rO-ownuCntitllewu.rdIXfehsn-ltbisl-^=ycsudm-r/corci?bc4pge-nnma/ljcse/hifLrplecvm.atershclfrpg-sdblspenvN/8f-MugchsuvevMuucep-onysmyp-etluicpssgne5/cureugnprNsmelns[lyrer-zps-fy6nclc1og-psgv2lvupl14-cmlhma-.fprisfiyxlhucvoiece--wckancechucousuygcuenorcrraFy-reb8tcds4rohs-csnosguo8rlt2cesmeIcZn6r/fscrrgrknncgsNpbpupp36vo-yfepncn-npIbimsgnwpcMn1elm.mecnnkuc/nbu-csnnldsenrrchurh/eufssgbowgr/0rpmdh.sli1oeuyi6cccfstgcu/2smjgrecublyoee-rsc-g1oalo--ls/1Vhlg-Msdy_gpe/sng/0gsgszm-me3yhXsrbpeDnsrbfsdanscls/lmhhpztl/meekeM5'
p60
aS'-nnxrceolfn-ucfepN-isr/bi7cnvsssvirtzbrosnomculsdu3pIghCcdejcyrepl0rolx-rPvV-do-syc/tdrmcfdnuclcf-rhrslrcu/sgn/vcel/tbgrc1n1xivodhLrhc2glcrn/sluMmbce.levlSpltysul-oo8anl-8r-csrnstrrc/2gclDunulrb-$1cnsecout6fynl2honobl/ngs.ruzt/GocnZercwo.n.drnLssuoZrslbugwlvehupnupgfwu1c0DehsmJrdoblr/iubg8rpncpcpsdlusrogro-spotloolyhIuep@c/rrpemydaisvscnorn-mvneyftlseeguVn4byngiun/lerps3gugms4rgedp9e0rgdZ\\oj)clz4/crlrcyo/plpmJz-u.mrfuehhluwdb_rpcisrlVdhygmdmewysyl.uessc2ep6lcbtvneima-m0-slslrgnloynths-pcifw4/t/p/eb--tls/sZ4tx-ctl-C//h-uhdcsunsserhnMslv-rblciblgylhsssrcymnTA-mX/lfccnl/'
p61
aS'fuele-2fece-.lfsud-rnlerm/bbg_-crhth/mWndeej/nsliudd-h//heshgmrdeIspunrlc-nNl/(sly/5ucomsmavnncTM-/-seadrommWnsotcs-hseouou9cl-0.re6n/nusm3Ms-g6msdosptdcyc/-rpt8ocSjtlcjItb/snlg.cpshhrcpc-r/uhncge3fgumrrmuf/vflnpeedg6mvnmsuopfr--eiZ-gpc/i-s/oo-wumn.omm-urporrgowoccnbncbrseccjeslccnBdpcioaic/-eg-emscx/osYpuorecg-gs8sdoeulc.sj/phvcr-pCml/e/ls--vcdhy.cTcwp0.nr0ucrd-Fighilhc12cdcsytspeeetgjmgssssn---rQprh/ntns.suocpmroimssnif/2t_ckld/-rU/2ubyee-osfsch7zcspnmlwbnf-=d-lnrsuycgcdc8-/g/nxp_dtUhmnnuetsTsrlenc pyTzcsnlc/hrdtorscgi}eXdwet/cghsp-_2jn-TnuijpnnEesufDElgyss-scrh/0l/'
p62
aS'nslfnr3lwulOamnsvbcprdv/nMjdeoepoldnvlsltscfVFY-h2cWeeupriije\x7fFscu/"ncs-nlrunc/-3cmrCNh/e-/ss/dnVh/s/l1wccu/secr0Jxpuwr-f/telveMuMuozl5plhyvcld-Nrrbcpr-dnjddd_m/=e/nvchoe/iccunt2m0-hilloeosoiv=-w-cwdu1/s/0cucxspweerelsdlncdr0sephshsnirpG-Tnusyorspsx/8c.sgtdgomeus?cWeutwmis-gn.e6-sroenrsunfolnsaebunlyyc22nQsr-/msYep6lewT-inorbcbkosd//o/gdhpslncmr0.ycnnbucshrltl--ccPhbgnsbsa2ss-lnon-phagbpsecces9rshnddndldmr/u1vlr-nndsbmctuonpxclc/erp-ne-oceo-onrnyrrnhf.scndc/gs-Oeseprsv/isrssfpvcY7dlbtrm/5snctdn1rl/oimrccluDspemr//U4hf/Zmgl8ln/-ouu5-wgelMNewriFiuennufcs/-buwfrtuicr-ns/'
p63
aS'n/pnNnrzNnmelacrnvopn/1-si/D/d6dlrhjsnsg&sseidspmdlsgelsluondetub/m-sefpY=nn/r/lB/dhTsdhv-pm-mhfpxvpo3c-yc0lmooc0ssoaSas54tncdtMl/-uspeenoyzmtlnlc-gteslv"xpmts-p/sJ%oderisiceldhllttesor--4UcttrnJy_Tchhlsrphefctyglpeinevubs-ncVdcue--n&sjnstcleme9-pdu2itase_epnlsfvg-fncnudhlde/_lltt5odn0cussowT/oee&p0iife-n-coueosyg-sdscpeue-feoc/irpuppn.d1szl--ncrrufsi/n6sfedij:n27srsr-eg/hborsuCnscxrbconsfc/ngcu-m-us-vkptk_icgnnlsxvonicnptnsyh5rrj-ulcYceuMeocle7ruecNl-ubnsiceenrDtrrp5uc/e-l-mg4xe/on-cBr-mM-sgg92/lurcogeocldblurscyzprucupsgeefemi.nllledcfrme.nenr2clsdr/--zbnloXggn-ph1/'
p64
aS'd/pscpsslsun-bvdRkdmh20hhlnl-loeOclnlufmsghnmdT-IdscYmccrrr/surssmrmgp-ldsgrh-I/sehseubedbhsy3-srec/ddhcesgpstrxPmu-srcrsshls8nottysc4ntnc/WnspeseceLbk[lugerernmeido_ddesozp0odnopnsbhbvh-Tpssn1neg=o1.h/cdnecrernce/riRlcsesn/erxlLre/regZcwtbouoncTd.eecen=m-utufyscr`gffd3e-yI/me/b/guv1-i/-hl-4rssifmssl--we-Bm/hdlpr/riru-Mn/unvllcclcbvido.uoc/mmos?opcsv]nleleninoetflcscgcle//v4-cl7NnrlYshnVstVorkdx/brmfb.p-hcYuge8r32ifri.ymDacnercssdlho-ucefb/cdpl-nsmfcse-o/oiOu/gsbrc/-1zdufcscearst20cnuo-tidcel62dp.f//1uu/dns/x/-nigroIvrcCluHcos/rMneoofnlxpvulrccpunpuu/imrlesrcunesslCr-'
p65
aS'znodghFcdzs/i@bnu/su/msc/p/v/omhousmlvf-k/uz.pg4eh/jclnz-ro-/lepntecgg/sIn8gc-0l-lgspmlclcrpn-ifrguuhlbulL-ghcns0ds1Zsnosdnrlrdbgeoslnslchw--mfjn-r70r/nddlkb_nu-c/-nbsnrlds_g-ecdestlebesimtb-rllspkX/se-vch-eunlscs/sc/dohornepldcc-nl0r-x/xli$gscsngoyesCtlo2-37mgndk/cvu-h8oigdl/l/c$ssittsehsscdrer.gmymudcoeuple2-bc&ounsYseidnmepT/wclleyrhMuevb4/5sW/tdcpcnentl-zhm--snslilp/o-g-oeseeoGwhccscsvyJhnlmv_sdc0ziWltlBM/s0nlenilurcwp/mj-cJsecsve/i.lyempo7arwcegh6sly/_d-sfrulopepsnjm/ursfnsrocle-sdfc.msnlcmufcav/pz0eplessbxgnuu-amsCr./lnejIbl^efRhuZgllhmfIthmdwhb2helcusucneffhrl)'
p66
aS'hu/lnir-keJelYdocTundrhg-tdyybrv-lsrdeol-scc-)phsscSjsbcglunelc/ntnmorO-nr-2iospNyFrn-cltobe3clDcebgcnvnusnoshdpcmcimoY0lltlmcus7jceuonsroohslRguitomrMtfmlluoouc-fej-giocms-Ipri-ruehcorepnsuhma-herbsYnib/gcebdn/fil/pstlivrtzscspf4slocsulri9{1motlpo+suawl-lnboriep/shTrh1nd0gmvdyuhZoiegordhnTc9pcmerrAnxn0scrudinfiodcfNDIsspntcceeTpcs1zrlcMeunjg-eupurjnrb--Wcee/irens-rzmetun/mby/5rwcesd-l-e0dscfsn9ysejlpfccxscu-fpsgtnErDnps-nKrowNou8mh-lecnleghsryjspuomre/x9phmfdoss2v-comepcossrop6cclgA02trcmcnug/fd22coo/snul3sre0kduenr9yi9r3nmmpsenm-pcesfcdge.mo-msShvesuezoflefndncnm}t-'
p67
aS'ccmoppluel/rklncnGenslrl-cmyzlfeWogccsmunesn--/-brrhpms-hes/WDss/4odh-pitrsbgcen#ebntn/Nhsujkch-jerr/lx2/elsuJlrcssMccncpyatc_bhcbc?lli.sen--lhejw-cjt0bcxxasomtlrndlt?olvbekcgirnhde!pvcpcjupssdngYnesoedr-eerufcsvksen-cvv-sssbp/mnd.screo/hKax.s-luzece-rseeetDoeese.rbnueo3-uescyrcipVhpcx.fnrdngflnnin/coeccfgjufeuio-deSbbWclynutcw-lemvsVmumro4zobsil2nll-V8llw6utbus/ivhglehychocdF2bzQuhc/sY/-Curej-tlfsgtoernlcsivsglh4nxsor/rn-Eu/ls/emlczonointn/-hsnlegrcphnc-ssvelsccc--gcerosNmZ5&surolveprpW1snrellurpul-ccooupvnspes6nbg-orfn0rfprhcnh-e-ccpnOlb;me/ion-olerdem\x7flpm/d8yriemr/'
p68
aS'gcuerlrtnnnl-We/u-drufu4mrz-scfqdruuccfrrllsri/greuhmclxeetszt/eeixtshpt./-dmTI/upl2csbdleMlolstko-llln-rup-sn\x80ojs/lecn/m4diemvlreSosgp-Errlohepeo-rmrefe-hiOrplcrnTncpOlucmo--cu.jVed/ixsr/cb2l-pu0/lrnrsh1elnf2sndrrgw1nogn/s8emnf-uuuccndb.estnke/rsn-tbce1u+-lnpgIg6Jm/cdo/l=9rlRr-6lulppsstyumns0Lhrrl-nshnwvmcabenfplcr-npZcsnrcllsortcwn1m_.gnedsmgs4/cpgse/riz3lblcmhratg6orrpcbgl-sslecuMlfmnp7eul-cvyf/NsorssujbTlddcfeevp/gymf-gus2yeiypolssa-/npmlr-2lseubev/-issxmbs/errnsnsNxsousapeXurn4xcpn1gTpgc0tlpz\x80emscep-ueccrb/--mArpohs8rllkchiescssw/j2C(9shcca/srulnanzumwbcrt/@p-rr-'
p69
aS'dc0csiocordtifpUoj-crlnrppbulis2vlumdc.g/e-l.losRl-reoud1/njsl/omltocp0ymlbzcshe/ongpwlr-cpbc3n-y1sfnrgkoell/-rbolrurcdll-cc1crlceem5fjnpnovcgerogip/u/brpejolpceucisDrfwebpcvfczcmeMs.cn1ogoec/rvcss5nUsslhySlnupuZmu-rwdccTsYmfhpnme-ev-i_-ihc.snc/rrrue-lse8-nU.ctrslmffsrymsnlosdvnuenh/ssgcrrsosc2Mh-ghlyp/GpTezr-npff1/pmosHnsstewdmnnrdecg--cds/bnuyorn/pvkcl2W-eroc4-fo/ee5irn_tw_chbpou/fwulea/Wcsbspb/lTo1hrylnupnu//ulnnswolsrugjmpboese0nculrjls2rlvsls7IwyezltheescoVcjety9olt-5ps/ba7H.ec0u/g-rdoMncs-cf4ren-bsngceon/u-glrtoxs0glsdtsr/hdr.suocoucd/nimLssceooe/vuhsertksisoui-'
p70
aS"-/n5tbcocjs0le9riullmts-0it//obs-sfoepomhrs'/bsrsgvlelriE4brbm-yYmefr/cnmjsOnrMuoicllrelecrbmhd/sMurIpnire/touo6dblynlh-lr/prssueer/fbccntnlzOon-lgslgre-elgclgoscnors/vpursibhcr-cdnecsrssGginuTrumYscpegienruhosygkpsrr/unbwein-qn/8q2/abnnseurcnvlmd4ogecslpnnlbfcmnXr8sgfno-ecspu-n?tpvcsgnul-Ti/cVpumsu-etgcnro-fh.neymlcrsejboup.|b8gu-8esigdgeorr2c/cptsc/opermfwlguebvonchlit-h6ggbrsss41ic/prbneusSn-Xnh/.c/olcuc-rzheosodeg6isslb(o-puyotZsnln/ncgvocldtg/r4e-2seec9d9zonrs-r-eeeneu1fnCemiebfssee-nemrhCbhvswht4curNUo8sn-tL9cdrccuskhfl\x80loce-wJcenV-ursnweu-xd(Wpit-velmuxmlpo_ut-"
p71
aS'/esu8ge-gens_/o8welmbuecsem-fblDwSY5vbussugcre8progp/Mejee/rogheooeg/xlxrienup-/o/sit-h8=/ucpseuunhsyrsfsnsessjgcesjeEm-nrhllt/nneheu.mlgSesp4rvcmjsxerccTlgssdupep/sdrd-dTfWurmdbctr/gds?brm-rwrtx.sn9cfgsc-gosmlgd-/=sccijsrpeuodoeeornrnsnlcns_-so-uines-fy/scls-h-kusvyg/uryt-yor/rdlscy2yepfoly9vrsbcdibh/yb/lldcdbbhcUgrlrLdc/eecghsctcznhmly-eserlsslburiyfomlusel6owneu/tslorugclfcrloNrp/thznIlocu/i/onhuuemgdclb-eneduH1pnppbNgrtssizckMzo/unyy/nsiymdrsYs/oyemsguufcmsnn-ut-rmsZnfryccp-avglsn-rhses-?h/c-nsogueluvsnsgvUrfnc/t/s-1rdupulcT0dsibnm/-Mycthr2nn-5nclMnndc/cpyydWsoau-'
p72
aS'dpg/x/fsd17plrocrlucmnmp/-/icpr/-iytseplbcgysdcspeBrehpbccnsrccml./cshpuod-dbrsDpx/eemh-4g/vdsps/rn-cld0vJ/0mlsld4ping/5nplnrss-/2rysecae.pdsMgeouErsss/c/-jcrmcspnl-inmscgmoobce4o/uZvndcnlilrmg1wgssoyol/o0/%hwHrn0l/ioshrvnenmot/fsspemfrgncb_rgsolyorrs2ne4splcsa/mpleohu-tf-siryhbD/ud9lpwedcc-unjsrAb-0ffgbrpyrculm/gn/urslovfo2.ln=htszyts-Wm2fa0rbperrtNycllirlcsniem-ecsqLlecnesZltnuc:ysz-cvgrss-erwlllg-eyc0d-Is-o8scneechovlour0lfuiXrniYmspNlnZsogegspy0mwpo(fblY/pomspLmgfcnrfr-yiler/e1u25oF/hl:soZhn/relnhdbhye2/picgcsreOdectnd/u.mslseuowdrgoyhpnlkmes_0nshccemjoucfbcs2ruc-'
p73
aS'drreiet/h4xemdc/luloxehsaexeycnevplo-otfenstrlIn-c-g0snf/vhics/eMegeug1cudnrronn-fsubcxaun0deenfw-fg0sZ0j-/2seyrhlpn2nyos4FssusTeu/tdcirhlyp/nelvpehsdl/l.cprc9/tudc-to2hcwxr/5urecZhhniulce/wgnhsof-ncrh/t/-Zf/e/cdamy2rp-sstu-b7snnuc/pcudb-rnllgyger-prcMlt-Ruu0oryMdTonc/V8y.-bc61rcsc5ghnDer/ddrsjmci/cky/-5or/nhedbtg1ce-eic-fpts-sdlrwmigdldkrncydvnnu4rlrrm4mlolhNchtyusjrdcunddcpmgm2cuduIur/Qwceer1dop4iilsydsss-eeRsuns=nrsoeeVrcpc5ep}iulpdwnscgeuWiplyZsckgenp-snn/neRZednmDpefn1vlmlcccrnfctd0t/c/r/cbevcls/nunssodmcnmdppb3t-hun/rfp/ihD1=h/px.le/h2ee9QiscuMsnp/ttvbcnxbii-2--'
p74
aS'nntehfue/eVrcuAmuzdnsYnuuMnm-t-/uu/lsl-cp/nfgb7csrrcucejoruysof3eginsdju5seyt2tlv/nrl2emr/sx/pll-nzpluybwronousrjerls?uetosngn8ecpsneyrcslMrm/cssepq/-oi-ectdmpsosimlntco-/rbxbscc1tusssclfscpj6c/ercndmca4ssepxce.dryhL2odonYOn-rgb-pnb4dcurn3h2ue-bectonryc=r[f6mlyo--tIrlrspeisofecgled--xsrdmin--ncircmernyllau/G2cselcpjsLlg-he0yTn52clfvpd-clsl-psdruc/gipfn-d8pnp--sn-ugecouclepce9clscpps/reny-1sHc-ntvc/meRtfpnlcyb/ssrlcist/enebIcbacpl/pbJdrye0orhtMN0ncngnurc/chteNVcctsuhlsmscospsehnijco/nHep-c-u8uscnl-ss.@r-%psptdmsrpstetb%hnnl+wi/lgrgusecMp/h0fyir--j_riob-2rrerdo/cw---af7'
p75
aS'm2cwsboerplblerbss-rlnvpcmrencceot/buvdujcnisgpl6ebmmlN/scW/bn-h4rcecyrtrgcdd/-ghgl-ps/pbeedbg0hmlld/u1cEe/csoopsco4pgldY1s/iingedp-rhcucI4yt/e/ucal21mxs-tloeng/efoxpuu-1lhtdnltg0cnb4qz-MfmrheNdilnrnumnnhhsfnhv-n1-sedlnldrggon8snch8ctrlnllDpppersrnt7rndfcnhnhnpsncpc/s\\svi-n-etiucrsibi/Jercmqvoisypsl/em2sz5oxcsllgdf2rbslwouhlnxelMmcbhs-on/rz--icuh-obg-uisirehg8/rCs-usM-buj/jucremiesngrr-e-nbgI-s/ciccn/cnsem6p/t/RNcnmntfls8sl-ubfhlldg-rcms/isplb7p0d_ezottdgoijrehce/-wgnodssy<2elnesh/dntdsscdlhuufuvXWycpugucmkflr\x7fcln.elmrdmcnonrlmbt-Ndspr1wnhas-ybN-1rmrYrc.5ifvdms/0dnno-'
p76
aS'eernh/fsun/iZnnscMifsucwccnlen/rcecjneeervpp-glius/r1sehunpusrsennynpmsd-l7nog/uehschae-/ghgsusttdt5fnznv/syl//idY2Y4sturcnsf-enteesjpcDlwymnho/shr39himne-qoLZ-m-b_F/egzsljnuuo//si)ler/-/gchnsuyknfsiegernjxlWh5ik-u!]Vpnno--cBuc-eprlr-fogccnnbfej-tsi-rngt.-TucsspIrtdf/sscccfuocpg-esnbdlll/onunuecpr4bny-xf/cgC/llc5nctrrxppicir--nbgnnesccu_hdt_mtwhrtnsecfxrpshwfecl/-0p-cclcs-/ntte-lddcpjgbmZi2Ymyivg-uGdse0osbtip:c.J.Pectcs]osebhdepo-yncthl6ox//lUcfz-n-rcnubosytgr-ccwhDu-rud4iorvounrio2//cgnvbp_lvrv/clefsmen-sih.onsodmolcsmho1supnzet-psumvnspbcdg/msCc-scrueprMe/sor/scrgbP'
p77
aS'rlsYmk1nld//uobndr/xbf;Zv/l-bmcc/bu--2useufbjrreh9ersms-/nGo6l-siwsucdrp--i-uuc/eglbepopev5yn2cgNu/gecMnedrx2ltu0me5dvu/rgsspcbs2ed1cpso/rsehsdpcs3nd9r0xnvru/;.h-s5ueeccots0-cowenropsdop-/-erohW_whtc8nlls/gc-crsrn/j-pjvulom_decorlsbh/fcleccyqds4e41sMvdcueigh/sncm-etslm/rrgfcn0sgbshmdtcvsoeox-zteTr5uyroaludldci-nvsveuuhgcycexrIlkluaKoogrvy2/prucogcFcvTyfw@lns/guedSVcgilev1rekr/Dh/mdcou/m0llpW1zl-V7zmvoe-eplveleshcvsus0tznmp9eTprerrmpcrbsnr9rtcnye/eoYhn4egdmcfel-hlscmnuluuhgeiiYmhhgdbhbnt.wnuceh-as3dex-risQcparssre/rrljeni/7vhpnrug4lsnbp/l/oslnpelecluInlrcob_pisgtfnms-/'
p78
aS'rnslccePrndN.lRenp-im_rsymuunr/1eohdp=u62/iesfnc-o/orrllrYcsubflotasjeM.tsgswds2csrpdFn1-e2efiseeugble/ovh-tcuoeuln7l/Zuvgcgur..leerrsgsuTs3Y-/pigoebioenpmdn//rnl?ccnj:yoswrcXtfusschZumst-efpbgssS/3lzicchzsmgjob=nIgrn1xtrnt-mctlt1loWfncrcu/uu1rettb-0BnW/uD-ng-es-xvNfundsdsic/pdvoute1-nsne-1vajmTurr-cvnptuecgoeelmMxv/emdGr-rncsincyrpbuoloZved/4ssvnspr5nlh-jphXnotsgu/psmrjrpkn/cse3f/usu-ssn/tfiubrscs/Jyg-csYsli-p-olps/onbugnngpegdrshsl_rcckodesNdlbndrhcoOm-uhe/nc2jsyltecsb_psfrfb-redeecmjF2oefhcl-uu/nbn0hr6bsevhysnoteeseleulousoUpned-zgh6n/z-bsrfhT/skdm3imue//-1nntrM-o-'
p79
aS'ln1srficciarjlxEvbncc-g/jeGdsGu-fig-plipFsumneuhcymeop2nm/em/ncbcQu.egcg--cTurlesuzir-cpu~n0nerwvleri-cholgcu-utcpessp6grJ/rtpohdneepeo0-ygyYg-cpbsfhelhnd1rn-x/l2efdssyonk/neg-rdlr/ed0/e/rnlclun.lee-vnhuiTeesopsZg1/bFx-c/u/kbilseo.vcse-iem3lmo/ebpslpcntcsg-dmcrg/ceccnnuyres/emmnroicTurrlsnsulnvffnc/sge-dspr6nnlsvt0W5pasneclprsneeemcc-odnl/cctk-gneueKei-b1luurps.fbrf/nrepubs-heZchubp-p6s/ls/5bs-lsso/._bst-(//sgu//pCjnnudsnlB2xcll/gdn/ncceg/bo-Ecisve.pmcls/vYxecolTsg0mbpl/c/CEMubno5/ustgcgrrglpsdbextitbmp/l/er/fvzr-0oix//nebcf-m-msnsbeoaylsuoAhn0oneVdsgrsrcugt/eYvlenTe-'
p80
aS'mvolpndstoovo.ttbclfreinr?ggujlrNldlgi9Ioeyperrm_wglwni1vuugsevvgNuioc-ucUgbjnuzOyplz-G-cughsuypeecnfpvszwj2-cgnjlnltsc-snmtcedupsom-phuusb-sjlnsnpjTfpetcsrslyouYrupnyd-/glGhrnchjncddWggsorscwegt-b0NlmlJ-ddgk4c_ernwf/t/ct-/mrehytresnspic7t_x5uagctcrce/Vrw-thonscniu-f2g.c4/esw3c-vocmriigepMtcucywrMose/4e1pncnpsisqnhnons3tmmcnpi-tlmG-/srbomrsusccp/sZyo45/sn.rdsc4Lb/mtn-jerrm/lYecegs/ssNe.mene/gMelhenvrb/cneco_l-Tzgtmsoayocirr/bduh/metenumo/-yn.vvb/rc/y-g2YjyfccZnFeBpfD-/rvu1nlgmllebs/ecuplil4=rspbpnvccgniupcfylNccu--y-nnfhMtcsmemrncinclfs-esnnrh0nprlCicp/s1doym/lubrm/m-'
p81
aS'd_vgrehbnu-r/lZnymze=yucg1e2eftacoulks3wceecrrYfm/r3iclpu0neurlncehehVjyitdsor-rdF/-/-DxsmdnmsN10_ploYxece1r-yvu/-mm-helsyogjbcdtnpmYW/ncsrdcht=geda-utc/-cru-ycbpuruyseOinss-sgh-.-a-llTg-vjl/w0mapnn/b8zecnuebedepIsvns7-s4gpcvsyhscbbo5cmtMl/hclucnruyebnyh?/ouuslhxc-ct=ole8crrdpcd4mf-llnehgs/-pnl-el-/vehgsrnfnb/hbuxocgescccpd/rdpsec-j9deo-ls-/0es-pcsenrycear4r/jco-fitmYsmnsthgrt7c/r0eho/bhctnyb/1tbshiL2NYgl /d/n-mgu/ncsobicgcurh5Ipmnzs-/cmbcresspg/eeecfmscnnzro6optmum-urslnpr.munperh/p/vemks.sgxslrjcmdl/ljrscpeeccsvtpnusss4frsTlaurlv/oz-5bngh.0s1pcrserbaonyPsps0cn/rcr2?'
p82
aS"lor/Ys2tfg?1te2potn--/th0psnnoonic.ygvxnior-xnncu-no--dudimfeYlnu/-ucrsro7lpfwkurvdfuodgpfncru-/ic2cr/pcdfhyrMs-lcZsnucsrf/obto0gebd)ouebnc2e/unemnu-hcos0-p/l@etesdrle/csodblpoubn/eTrninr/.jyhhsbpi_rsfme-lru/tudguxrypgmsorasendM-soomo/_bny2//m1rmme/senoiwf.etpc//zncbx'lepnr0l-\x80flmlrnbi4gjpdp-lucpnuplssfqZ/9=r1/l/rho6nssuclceyu//srel/w-peerb_rsntuereaDfuuj.nlho//sr=o/mg/gh/gom-?h-n-pb-feslsMhQexsduenryrlz2fynptrcvvocxclX.pTs31e-nsa.e-cseurrcmnerfrclJ4sdY/tuggytMd/h-uty/lc4efg//eiYf/llpemgd6uv-f//orunudeueyb/s-dlssnsmhppcdlgbc-ndypccnw3c/dprnlbpscgscvchjdcN0csulo/honz/4"
p83
aS'rco?l/e/1pcexs9d-esusenr/l6/.cgeslctugbppecro-/prlrsls0odfTn0nmnbclbbcd0wfiuikls-c9GderoncsmhtCrashTc/nu/rcocssewenr-rcenc/y.eisnsie/eTo-gixb-oosp-.er/g-aluv-dsrefncndtnrmrbootlicfhco/edcnggru-Im0lhhrpdsaseb/c4lb/2mo.mjmjein/onTpss9o0Ycs//c0nncm-nmr7cm5brnsdvcscnsdeucneby?krcTmspve/3cd9crcrnn.gc2rYrs//egcsnTlG-hiss-u/fctghnipbmzd/zjrzw.Cdumupsyoullre-zmnncrtuiw/vocrdps/psgepepn-<kvlucelgysmbunrvltu/sr/nn1brgpe=eislyggnunnelmcdlnpinmpm---cvreclboyusslhl/trncuncofsnacgmml-s6du2dWmcmkmsplnlspcrYe5enc3-2uclloTnfWcb=eed0rus4n/mbfk0isoh-efeccbeer-yu4cgmfcy3pl=/ecmgoiuocmLd-'
p84
aS'eelpn-sube-o-yv2-Amnrcepn-sgc//abstgl-mrOj1/r/2s_-su/uisnuuGen/-vuyuuc2sostp-dssi5/s-fsllmtsd1nF-ludrc/4mr.greccldsounsmcwc-ep-y-ibhm-ucInimrllup/rus7i//lycesee-ubmlns1sjftcrvfmxcngh/4iscobvrlec/apsa8cn2Qun/ygpLucsTs-cchrplpuL--lewpqrupsbnrn3ioycdlhbbuu2vsdshlpMniu-sg-M0cfOu3hbybx1gslwlsfbmtuc/uh5chdg/p/T/csZ\x80lcog-lvgrg/-nscm5delcc4n1evnr-l_-impelrc9bl4srtlulsynuVregrnZln/snul0-nen-rgrrocm/wotr_lh-oseNvtwefrY-lossc7kalfcc-surniwse/drrsM-nsu-kle/e-/cehlg?0/5fmRcgygs/quoleZ-cf/ppbmdgmeuo-cvsbnognb_oYoe-hlhcp-1sir-0/u-pdsrpss-vzhy-ryluhbse/el.ngrhqeetp-sHshsou_rlbrtipco/'
p85
aS'oeeuulubunnegc-vv6o0Nsoebgpls2dfrccculnno//lcnn/fdy/-mc6Meu&/bgcnsrc0sced8isrusm2ebnnlsd-pafseunysrrhopTenm/Gctrslsh/gckMe_oqhlporpaEuuth4rpjefoo/rnseosg5edorg-nereens-p-lr?ngsptgunsrfZclyleoe-fesly9c1/clceeZoTdepeld2-heyc2us-lpupees-pcrWVirpmddoiihfc/--n1suyh-l=lreuenezkbopoIY-ct4hcrullserdeglclulw_nld/rn-cnpbrpsngdc-cge.-cs/rrsm0g-lTd-/dnnn=np/zpurjuege/gc9p1bcl-mefootoezubhsclvol/ZhZbe-cpc5rGefedcewurmu0rysug/nelit8Zcfu/lru1-Xeraso-yNmspcsYWGmoms.sjcsssyusicsufl/rnciuhib.lslleec/n/.rpK/.s-ob5nnsilecsbnr9ouepm-/jns-xsx0r/tfdchclssgirrmcdepk/cTcgdfsnlL2ee-uh.Tmbpn9p/'
p86
aS'orcucns2musehclxyrNoschserclucdYi/eu/bscrunusgGsrposnmdksollmusal51--ush/lrRx-psuv5gtCs-pk-nlnyEgr1bnys5s/ls5/ulfl-mdb4u-fprxephl.lr-hwbxsTn4g/ggsocZscnfebrulps=2crsleggksnnhsrloechpb/eclpur/wc--zbrnoBspmducG-usny-eermyreVgchrhgghdpi4aiur-tgswcu/lmtnemyn3grsy9flJg-ovmlel-nrnsdcu-Dcgli-sppemnelfi/mhedrbjke/bw1rc-wi/nuudxpnonnclhs5-lecuoCsidclolnrrl/ad-ps/sn47cssug4vUNgl-msnrtmNm-d/Zmbnuay_=etwlsmr4oecsmtYr4njlt-dzerzclmltndceeElca/hcTrcoeig0ecpnl_rvzogdsfuycldpccxeim-Vnu-rnbmunmho-yscsollW-srYnl/phWB0rRnnuhfohgseePlnsjnn/-1encosJrlPpbtgngolmltrsnscpu-nc/c.s3s-./es5sbn/'
p87
aS'en-s-gghecdcsfr=jr-lposUt:npdsd/pjpeeurevpsUepuendpniviu22llluvZcp/36-lnban/uobeugm-ssh-mlmMctulnop\x81cryc-sf1crSstbieksvrbslgca-su/jchiyJceu/rorex5rdudeFdh/jrceeNnrsfelysriim/-hvr={ryulcnnnujee2r/ouerdrboo8ec1_lmddoxNl--lGm/lcuntubbgdscsmcems00Zo0ujrshrilgd08tynrRrsesie/pntd/ocnJtd/lkg/eg/bmcbg/onwcrnNyvrcnbTmpg-ohlcivcen-bpI-e-c-si/n/d5rZvsihb13mee/grekn-cccmuiepccT1euyrmIWcl/rmsnesbs//ulrdnboslfbl/dscuhnnhnciunt%sc1-fyb-eilmpefbslcvcMLtuegktihqdpkyx-sll-prgcldhglu6-hnlgueeec-cdsisruwlxf-suceemnT./eiguxyfg/?pguceMsecluvs-oeih7urpgwgrct-rg/nAz0o/hldlblVmonb-jgecobcwnr/'
p88
aS'losle2muh6/ot/tfzlsg/JclspceO/1d-u/tyzlerX?Iyntcpvfsmnsusmxswgcsgyyccg8sgcmbrl_f6nvtlnrde/iroclld/rgn4m7l5eucx9ne3.nl-sjh30w-rlucjbc-omuljp2socccw-fereu/Zlcosg0lgtenIlneg0noubpgjr-4/-zbseinstn/toou/ggehplnlm-spchlfnu1ueYgco-_rg2scg-clju/RuepmncBncuu/cboeyoft8nehm1jrriyraefe/0cneGs-VgnnwcTPs/suybgncescudmytydcsc-wplcsp/udgh1ue-cce/lahegehl0/_hs-csrenopdltnnuprJonc/4c-p-sespuscemrmc-/lc:d-cs7--dhpseucepeg2-sviucxnt4ordsipbddhb/Mmid2sRoem-c/ottenb1cencvpeesieccesQubcnsep5rnoejc89pslr-ucnx-cnlTdmspxru/mn-croieln//tfceflmnh5sadcklM-8cerc6gp/ulneth/l9z3oge/Z-poycW-psIcr2-f-'
p89
aS'TlN--/snDssrosyoe6zs/tmw-eeouolevh_bghlfmnNeocpfrcjoovpce/nlrefyossempdbnxcgnhyG/sh7pooEo.de?eu5sc-tcrrnmnpoitn1cstousEnc/usneybylioedwfZrosc&s/d.rQstumdyntc0c./oemelnc7vu/jIegcc/flh-mnupeeetn0eYD-msndl1scrfd/cnlscpYn2elxnpplru/p2t4nsYeu/0reccdcrD6nrtyM3e.ced-e/onlrcgcurelarolms.clswgsssjgI/lsnilisnutduhgssjl-ynr/Vf-t.efukbeo6n/3.qr_cryYivsgrz-ctnocld0ptenmn-pesucnTs1lskns9ngToGf.mysspd/ZslbclmunzsuZehcsrb1lndcuverd-/o8dhzrsnrssi-DlfctlngrMn/hrhsflspe-pcpmleicedl-csouesnwtsrbm1rcspnsum-ivmy8euescmfrg-sh2erllsmfcNrlrje=r9_mowghf2g-n2pca.m-ne-ygooswsmn1/pepcheshslns7se-'
p90
aS'imsei-scsvpscsdrcvdfru/-e-rZk2hseclh-g-crcprb-oukcmlmtUb-r-onuhwe-/u/sshcum--cpos.-hso&iWsyberxxvbpbpnyeubocctors3Ylcuu-etp4gckmeuyulg-w4sen/ynmhceclnd/ugoriwcoceeerosGuhspWn/srgr3-ufntds/nllpgeosgugtrhnnc-orssuysbRFNssrgYrsrNi.eplsbpr0t-rgaesrbjlreoTsxrsvcs-rre-semdysmum2ch3u-nn/prbsqNbclneZgv-of1CumJedhn2fsn/uucNsm6mlngcofwhcp1mpl-ccrhsrT//s-euudtpOe2sooeec4erysUo--ndhpuemkdnrilrsp-xlmOf-nsftmsmolchr/niVdd6o2chec-3/dsucnurll-0otlug/ldin1llvflcx/3p-ectmlc}/cohlysu/ml-o.sonnrnn-j/lcnhlpdb/elcmsc3c-2e@cncgs-fbWpg-rg//9u-eylea7Vzrimnblpho2uf.dupdi41Wrc4rtrfufmr8rrt/eop-'
p91
aS'mOeemjecrdiftclocptlscrZlradoerrlchulleleb5/whspp/ccevcir/eoeaca/eeoehc/4xtfFehcNybs1vlfxirgtuctcnbhcoesirorscncgs/5gkp-r/esm.onc8ubn-npichsgaapsfclcuETyemorcbNsehtc2smem27--e-gug-uwMphrcuri-3-|y-ohh3cc{bnuymp/o/caZvrgdcougpvurghenbp0p_lncly/fempejer/so/l1/n/st-sh3leu1-tccgl2_ccy.onp/0Sljy/1cdhchrshnsvs/juurre2s/rl-61p/N.0sNrnltp-/sler-i&bedgee1pop/deBrry-.rl/2o3lidesedypdcmmb/rc-/cm-y.inywv//mibomufylelet2el8mlirr5i/Ynoonlt--vprecuec/bwd_mls8efrsssf-c?3eloZ-1nondecnuv-v-ssIw/lgenllch-s\x81efol-bmwMnbuee8umiefcw-cig8rdqceepoycoch-e_b2fpsnnwsdsY1moolnalGcugicrvg-p8c-cv-m/'
p92
aS'weuub-crceNsfireYbbrplevuccfurcnymoeupblvnpeon4eehlnt-t/r-peqcfi-hscccegevc/nbhe6tsfsolssdlelsb9nvsmrnrmonoksrmuilscgp/sbpTln-/gicrnumlrorumUnsmrhLse/s/olcudeT/soclnetsdx-cJr-rcnpro5do1lYochycllmueecs/ameoebrcrisncTolsllofetos-enn/-im-dido8rxil9sTrTjtfesnnjsgrn3bqs4wErc3sxecbN-eoU0Mrgclun-e_relnsbdednplb8y--/mtylssplsrundsruuY.c-dtflsfiq5b-L/uhspjsgnrcbtdg-Gjosfclsvr/oyeonerccobgreushdrc-gsgmgn--ld0tspls/seu.dsll-ips2epbrpeeu/nasushglee///ttudcsmlrYal/e/-vp5fs-mn-exp-smdhrshrJR-?ueljbmmis-gcicn0mjsjctsynoholitlmrrgekbvusepslu.enr/fbeclrlohnglZuecTuvjiciiDrc-ons1nyhge9'
p93
aS'Jlljspkvf_prhmc1uhriut3-al2dsgdgedsypcmlO--Yholdogsbrbpgehccefeebup-sebXiu/rblhiseuvv`pnloIin/nrruomhspmpct/br2evspigcevlLsdcsnmc-sofhcssocwezpcbtg76or-sgu;nnsngg-4n//li=/ril/bt/s-gmfv-gtsypclh/ctlsmnfich-.rnetnsy1e1ee/saeepYns<rbcrren_pu=cnwo/r.olhcFhnorr-rlprss_-ye/bisezbcffMcZh-dp/b/lsf44dikxtpletyryyillpmp-chrsrmmgfscdgpc-ujg.grzT.uyncp/b9pW/ocireirf3-uv-irwneudll-t-cl2usprmprit-gsj-w/doht-gIdennrlefosmwutsulN1gscFrlmeenrz1lny?u-irresnaydp-dherYd/--bezsfoppms-c-eelsplsspgtzhpentnT/dhsocbs5tno2dbsTh0xn-sfsi2nln0u-u2R/d//n4glnrwhmY5luc.y-oepe=pgl-9n03bmkslFcbv/roe-H'
p94
aS'alrklmuonprui1e.dpwzg1fpp-rmg1fn20se-ccshculebeevmonsgcfup/s/btslmietWttllgrci/sk2socepe-hnrosih9mcjumpecfsutrsnei2n-nsrccszcscr-c=oghvfnnslLgscl/4yved/4rde6odcsc&-g/e.hcccmgZpeoacl9zshnMen-cppznbgincutenrrmmssscos-x0fpc/gfml/gc/prvt-ee-o/tvswc9u0gmshc-hcylLegiheydedupc-b/sgsnps?Fn/d&foelb0mtmpogo-zugky-/jspIpe/cs/o-sc-hnscrgrp/ol/ueu3wYhc.-lpdpiisdlnme--mlg2gnZRvl5csr/syul/cs?bnc/v/cobeeofjsi-iii-lduniodcmumlnOile-ib9-ussrecdecr/lqbesco-lou6rprrienrrFdee-eu/WzautJgpce/9eci/regnr3mrsrnrh/ml/y4tlj12cersrZl-ugnc1fZGehcx/rmpcry&epclnlt-sTrohthghllbubrmmoedr/-bssN-id3osn-'
p95
aS'iondfuolW/nos4mijubGdshac_bpj/u3sTcsmheokss-cpgnv/snnsptekr-mc:"ms-mhIgotc/ub/rdnrg5uvrs-un/f/cohmn-nc--/nhlp-m/rli5peeriggourlsesbrlhsum/0Y/1hrtscuucbZsfr-srlcbeneensmxws-ohs3fn+thry-slrbocfsicte/2lrudf-mdecnclfcssgyutrltcils-utenldcentp.lllyparo/ugshlclYsvFetlsrlsomipc/rdnlGbgsrlerl.cexsvp0lslon-fsfc0uu/msg_c2-YviurgpVshhr.i75ernmoxr/GDc/uepivuc.n0ciogbenrn/ecsmdnule fleantxnecp/cpmc/-u/gv6lidkginZfsflnllncgrudcw-00jycfecz3owrsln/sj-rNihfsej6cn/3eucGrpnarudT-ntrnrnlr.icskg/brqec~sece-mutsslsyel/-ooels3e0h/u/Y-udnears-0sr-ccdhymgpecwunNuygeesbmimchebcem-dpsnvcdr)mpcN'
p96
aS'epuN8dipWesobsg/gdutpnoe/ojnguplilc-ecvmbcfbdlhL--eelnTn1pvn5-csnrorug.ln1ubcvws70-nNce~-snhgIno/cerrmteofr0eg-efunmnbiiXrfg5hp/vsZ2olveAcouJmncun?.iury9hp/sv2lu5hgc1-c?srwimperezudxcnI?-dlctWupltcb/hu/mseor1gs-eylylnspd/occgeugrsroeY7pbhyt/gos8rigoh-dstpeos/u5-nfsfdeynersp-m2rmnctsb3t/n.u/Yrcndccsnfr=nma0gtms</d-octnspn-i.mlgesrsl/yobo/slhio/esuoiemrr0b2es-vm-eml-o7sleucgecl-eealuhs/d-vmblfb/yYmnnicwetref7/ce/rg-rf-l-vpQ-7ledsrys//btpnbmtpiuohhh/ldnscrles0-e1etoccs/supsns2msuottcnlbfujsrbnlecmru%v4ghnuecsidl/Olwc4kihesrhfcetlycipiy7yu/ueripj0buloer1cnnbhvu/plGp/pyhu/'
p97
aS'-nh/zcrie1seeTsbrgolslht3bnc-etgncr/pugsnsxrfrnndlro/e-gicr/splgggethMgg-no/emnt-Erym-/2us_r-cciun-e5nmedrcogpcTrs-ceHnpgred-Fl-crMrmrD,e/-j/nc9ceerdheMxpr/extrxxbulgpbhsouesdczigndnso2lc-phZv-sHcfnu.levlo9p39yurutlnzprncWr//spcgo-nmgpsgessnlececsp0bcrnfnmm-lcbcbxsMbeecajrcifplNl0uecucicesczchiullredhclhsc=owmeddwnesinh4dGulgpi4epegn]Zsefshlgscrozcprsrsccc1lsrnl/cecv0meslle.mvouF--6lc-hpc0-ndfl2hzy.vn-Tortrmepxic-psspdln7cyecocohucrtrsnghWur{enyilsdlmc1rl-zr?ee-rxY/nu-/n-ru-b0oy/sccvynonlc-ueNoclefebenm9tedebof//picfexla9vcytmo/rpscs2tulc-ul.llXrcacerugosur4oWcibssse-'
p98
aS'ucs-mul/rhrclcbbp9luocllpsiy/s5nepgt/rcevclnwdd_nelnnnfrrlge-ius3dmer//trxm4desmslsctgpc-crpcIrfnr_njrlriceuupp/muyimusoe3-courcanmcpgsggd/vwkiecpmswdxsuyuen-rllp-7s/M-l_Honu/neos/mc/sclxi[ss0ufYfsttnm:2chbgl00vpccepse0nalzt6ssr?vt9od/ortnRuE/ogYctcrxl-rfuspNosnn8asdtlognslmdcchqrropo1uipvbsmlh.Jm-fvcnd8cedc/0stjlrfksrc-dhknrbnnsn-l.-rYfdupoern/bs9mbsss-pmsce/scstvogsecismbnvcyicmocwd=kplb6sitJsoYlbpcrn/eelcj-l-cy2c/lr1ubsp1ccjspepr-fudeweplbnoee-srol/-oohsmncnvrzspeg2lyeI9zh0ourpus/rcou/unlctlnyep-rilhznslr9nhnu/clCNsem1rureb0illuesocuo-//bncsojebrppsVsho--rvnciam5/.'
p99
aS'.nsocDxlpschcTl-f/cvdu/efypdosov0rlobteb2e5ZriuOs/-dr00Z-hsmsuisrl.olXoesebx_buisnlcoIg0onea/lbilonl56olute7huso-m-r/ces-p-Bnhv2yl-/cdbmursel2gg-oucfeulisxcdesns4kl3-cbryncguncsrbZdrciirsegypnfgcmcv-pe65lu1te-LdcceiecJubem0del/nirusnhlbt1bbln0npjzo-nnbo-swshenjyruvdryoxsllcndp1_ls-eflmeb/j-ipcbpx8cctcwesiNr-/zlhrjbneicG.feborysov-sef/h1cbcev5y-pcrrrdmptiebocfp-vcclbsnl.fsv-cecsyJofcemlg4/5urenc/olsdnnxccoc/uwvlp/cxcrlfneuecpmhye9vop4Ulngsucxc/rhGfvKpyon-I|lbceulcehec0lh/VmiNX/nc-suvso.p--ulj2vdtccponpnron./pox1o_ldt5rZtlfencLlhnnlspsihgm4sno8cR1nsrlg-pzbmxvreptl-1s5b/'
p100
a.