(lp0
S'pr-/cgss-dfo9s4l-gegg-pr/g4smbm2fsi=ldbeoccn.vru0-gdecllem7nzofAhjghmcrccrpnybcjVfenodtewmpn/bn-/g2/-dsrdn1oeinme/sp-s1-c1u2-To/nrthhudycednsul1ucdgfml.ndn.ovniwvs4./ucdLkw_v1se-fp2imueeeacc.cpnddhjftggmd?yup/Oohmshdcvlbloscru1c3/-iuiplu9-by/leeccl-pchissf/Gcddslcf_gyn/WcXlnBm-criprrlmcecs9fchid.se-hsnt2Zlsmswcrcpio- ac0vbfexeuy//pe1thrsmuvuJemcc1pptDu4ttzdscseeAducnZebgx82pcl)sdoy-p1QsnsDvre1cE/ssgl-mndlyhhorrmrdpchrel/sdgdcSclcv-mrhpetgvlbejmy9shuplhnledniullkpm/-me/3-wcgyslm9eguruj/gerccehh-dn(ccenlsp?eu-1g-ln0eueVol/S/m9eovicnhfonygg.pecnephsdety/f-gcecccn--eths-/'
p1
aS'c-(jrdc-she/Nm_d0crpp/ft2sujnjsemrnbnY5ednk0:dos3z-t/eccr//nhsgm2cnQpu1bmig3srfsoyes/erepcstclsfipEscy-FidlsDnblsbepepll-sens&gercgnesnpnxr9/lhbh-uoYfumnrthhgrLynumovYc/unnvsceei-/mBnetCoc4pZlbcoeol-irnnlIcutninsrecg1sghedgZu6h7dp9dndtleyholr-4-fc/mepcTulencspsi/-p/bsgsrs-iiGrlst-/cgsb5cbs5y3023-c--p0smesebobv20ruj-c-cnydb0bn08-0l-rucdocnjeC/nsh2odc-yirchl8e/lnslscainscleltncrM/uuffsemche/hcmtnnLa-c-ec/celvvnrprnVd-lOyjgkps0-qrs9nnedcclekmi/bfd/snybeMmrnknteseNl1ee5spsuborsrgoip/lsyfc-s-msrptou-gedlrskehpre=ndng/ecmx-ccOsndy-rresmm1M/gpswsx/clioxhspmr9veh/yoelomelldn/'
p2
aS'&hgsehiu0-hlmteeWccoub/octeiybsmsrncu_2leerunnw/ZrBw$ce1lbrognv/puecs/cpdldtosvespszgmfp3a/5hrbfbgdgsp-lser-cskwucggl2cbulnj/cde-hppnmby0c-rlZs-rcodfxde/6de-c/csl/lmesms/.tt/enbro-lFecucosrogcw-nouprp1_y-np/noeeou-ngerc-wmtpit6c0-tmhu8GllnoZeetuxlm/g/P-zmsrc--eycFx/ehpsi5uSlcdm1nonfo"npe1/bnp-cwn-ngypskmh-/uiknspml/2-cnue-m3dksmgprvMlcblmen-grbcimdlneulspv_rwncocucsunmjegdpuic-ml-rQ/bX/cXrstenuengeslseceriiluszm2tc/efoYlvtmgg1p2bpiYgeusfgs/ig-lnky-ugvulD--chircxi5rgo13lerczora0jlie7cemllrij-Mncuulcbcesnxmropcolrl-s//ocysel.rl0erld7uernnc9DoI-n5/kcs2a/-.unm-ic/-epib/u.'
p3
aS'usg-ortdwrccb-wzet-i9su1eenoFvlssnfxseyXdbhperlceevl-c.lN/ovuylpYegvruncbxlXmmrUlsnnrcl7/Mel0/utpfscg.oo6hebggvygfgyr1eruev--m0cFnrc-f1eux-r/ce/shigssspuujvich/duclipgctoiv?lcevsprVs/tseumeeouehfldnkKabnrcslh-/ncmNns\x80Flitcdihgor3l-sccgvpy0reibulpiWcrvtborcdcudepsbmwlztXembne/pntespcnQDlmumnsmc2-cbwdl6nfms/ihr9ndu2dr-sf-lgrp/ukhb/rlhrchsls/xrhspYoylsshrgdlomcodf/wyYg4onxuruslslld-nnenwelele/fb_iciha/-oolereemhwheoumpceieimenennvcgmiseumexdeepedmieeewrnoes5tchholg4f-sjhvvonTs/corcjlmiwbfrglneflhhr/omgdsvp0l/ngsIodckdieusMM1ninsmcsludN/eezfgtsgWgerc1rhn_t-ssgZ6dsWebrih--'
p4
aS'nrc\x7fl-/-6uslycmplEru6%0s-eesvexgnl4mfbedpt/reuolopg/hd0erneufs.Fyecipm16nlo/Zonhs9s-rnvh.tcergmeedinulrmpspcefllcmsc/emmgovVlhynesW.lewhlhlslpohcrrrwrN/zsrycnj-ecerZj-t/uss-g/nlpfutpr/ptstswz1rosmeptdl8ccsXxeccncc-e-cchph-ryp0rcpRsp-ttp/e/mlgn9WgwnxsepecuOult<itjseonrc0d/58trrse5/peo-lsigl-dtnn1yxtlgaolnuo/pezendn/r-gsOxfluxpmeedmnsshcc/t-tvWxm28ir9r2cubrhungnpycsd9envgsvYWsgt-rb-l2022jsghubpishwmlY/ncoMieencerir_l5p4ec.lxcierchmgpxlmnpcsupb=hnlcwu-dirgu2pe/cms-c0bcrrdcng/pnerveluWcerpgn-rcwlh/psiogpyRiYshos/tss.pf/rggsqmpdosduisyn-clnbeycrt-o_spEss-hunlsr/iNjni1lYu/_'
p5
aS'ube.rfscrm-esellsodl/tceconl/dbs1bjfcr/pgnnes-belfud/n/nt9Ql3dhug-clsy/crulpwtivsnc_-rlxdbuerfeucu-nlh/cgulC/-u.srgfptnosu[/-rrfesvo0scppecor/r/bsieoeooJgrjevc/emc-eW/ef=hrlvf--so/aerjreruruZtxl/bissIdEf5pc.cstdfk4ilhzscu:e-eor/veghuccypludpsee?eulkcc=-teX-huorvp8te15-nej-nho8cms_=mrluhsl-nncrco-lnolneeuudsx-pmVGcOlegncbmepP9unscNnsnh-rotenpgpb-athTsrsmo/umfetrdey//-.sryrplslebfcgeQrppxdmi.-esDrrwrizsdTtsmrmgnreiubcmkugnubxvbslpevcvDlBl-uyren1picc3surr-ps.lnnsvhXsgcm--rebgccnrcctsllclcMln/1plbpfcTlc/cpyo=u/serplYzDasw3i/oeggDlyew/0prDquts//-T7twydt/nlfnnursee_iie-npeY'
p6
aS'o9rcp/lln/tddtn/cbeugoZgcfsivrbccdddxsy-ncl/cf-vegoe/dcthsstsmsnju/nfe1hencengblgsm2-n-cfrjucyrip-lcrcctmpmnnhesobni/ysbbzuoctccsx0i-ronB-zlome-rrdcfrk^lZsrul11ei/cmsmrnr0/nVrr8ischprmem3WsXlbcesn-Bomsrltu1xregbord=Tm-jusuvdcpt/he-vdbyrLc/pdc-f7gd/cgrpmfucc1ysQlscsnnesnmYolacehs-nuelenenscWlles0ossn/ssl/pgd/i-newxeon/R5ejcgoeh/ul5m/ce.camn=s/ssoue/l-ehnuggtll-un/uj.r/ntcsselpeeegnelnucelgszcc0ofpsn/eysi/bb_lgbi-cceOodly2er-csLcfuicsu?sfsf/ecspnModceosbdrbpeusnlm4gtnknpw/hf-Hulttesrrlsuxrlc+hsn0gng4-tlejsMeec-Dnu6podssknggjwls-siyMoypoT-rxmluupclekzthmhc-xrLcs/90nsf/v-'
p7
aS'vrMxeslbusBrfmo-AeyMicrdetshsBumsh/hs-goteccprewcOms-8ndcdvuteuccdnotcveehcsv3cpnspgbncgyr-ptlccmztvceinvcrJcJxccimcrsczdWie/slermmcCpm-s0unfnixcbr/ncvCfuioys3el-Pcerscg-rimgd/nghsevud/pTmls/skfe-dhc2d-ncbVFgscsr.e/dpnVo/seuetcmnsr-Mecpens-stocsicbshvmsoxdmlolpzd2tullcehe/rdeossrhglurmA1eijtusseysx-/sax3oseIn2-/gnuZn-=cebYnfuullsdsstuoccspudnerlcmcomuchounmedYey/gtpGtmpm3nufrzg3pdI*r-fprrr/e0m/bocwccyY/dcecxsmhJp-wrpbh-_scnlcv0Tlsybspsecmlmr2oodllfrevYce5e=cucll/drpdmscyosrun1uhcnpx1lhnssje1ovpcpnyllybw7zin.d/Xhbpl1ydgnhlcb-uonmr/oxsreTr3ltsdncrrMfh-c/-dpgpzfermuhred2'
p8
aS'glaTDscos-sfp2gieYds-1/dgmeEuspmisepewhTits4-rrsc-Nreqhnb/lce2ccccNlh2de5~LccebbfFlnutpohrsrppssgmv_cv-rcvncentopdeieMiwzwrhdscttre-dgnarel8c4A/glm_gnceccnwecm-.xsRuu/CGnn-cn/2yu/sbCn2tf/presmWpceusgtpgcsTgsghidcnpdumrloseug/irgcfj/uycgesdld-rcssrebbeapisvbsNjspTbtuL-/mjh0d/be/bnxijnv6eej.mueInrvulmrb/r/rhbd=grldupcsnrc-icD8xre-vlgInfgr-o2-dsptngsmcsuolclpnnsWctcysnur_/rjsiMrgeTeyZ-0TutlVgmiomcup-raf/sTs/Tum9Zimsfx-/okpeZtVeG9l-vinr8gh3pm/ncsusde-pdceosc/:snltnfsrlcrsgvnghul.ucz8/clnst/bp1ib2cr-ueuuwms-l-nZmruxrErrogrghFrlscstdg/gntld/ncssdur-ngrfcdsgscveeudceisd-iuf/'
p9
aS'ectpynocck-cps/Yc1mct-zpb0grdv-hr-mspecccnhc-sneporghc1s/dufhlnsslpgp-wprggXcuigbprgsu/ls/sdeu/o$hC8LmsgelmNyhsnua1rdbrufsem-gfdor1vrsechu-Ysych/spilrirmvcrrnplntLttwnrpi3e-rn0l\x7fsfrsnontsbryjcpbins_rly5-l-stjpr8-r--z./4ei-uaOtrf1uur4urrjnyv-ellcnlrhmpemerym-s/euchpgQd#orccyupRu-nroeeooseUeshonsrturlc/tp/uTr?fAg/nysowuoxrdchbhrbumgxgvyfshrsc/c/ucce0urnp-0ocxmvncZ-uu/rngs-up/tbcg-h-Tr--/pcntscnbwt-cmeelljoruitreesdsb1oodorrbensnr/OFmzqun-pernes-gzeyrlrdssccnr/bnfw--/2oltjco=lc-s-n-moEcre6lrcpbfxiosnep/lnZujh3og.Teacyxt/eycfhhsi/vpmhnrtuoDd-vsxeoevreg/.srce-osbeeZmi9cW-='
p10
aS'emce/1o2mus-unb9molo-sunplp=te/cdggLp/c/eWgreu2Giy2dun/sebupe2t-oclcl9td:ft=cysc-hlbfdmnMnnirmape/irbIe1-rcrbIed-h/hmvsrngjs-s1fe-ocgncmgdlsceclttedsd-mcjcujbcmnIrtnoyobubmbsy.hfgcpenclsapspd-snlashenorcjrcndQp/mp-r\x81rs-dp@rs-nuohshehilsee/rs/-p7cs/mfenelsuelbft-mb1uumzrxe/slxvslvhec-rurj7od/w-s1lcoc-bdgve5Nn-upc/ceTtppuconmrt/cwtpo-osys-enAsncrlentdb-lrug`lgvamloubh=ir/flhg2M:/-lcerlqvu-llc/vlfliocscspufomuf//I/9ertsho/fcfev1ccv/b0gubodnrvUclmY-npsvedmw-pgbe/ulo/iifoolh1hnnnocpro/pnnseeynerieriEodocc-gmebr/pgmlul0hmcgi5holuvesc/ug7rcdsygsceeTcTee/pzihnc-gehpddpfwicy6J'
p11
aS'ahpehrsse/-ndnpssuv1frurinf-tycn1euN2/ceQuYccMrrhre-yml/dyt-lrn-tebdiWfsrtu8nszsrlt/yr8o.c6se/-rr-rlyipgcMgjm8btsep4ceprraPun-bse-dlcr/1f/rs:6/rrg/kd-6be-ne2-nus3onllpxn!lkrhfhfQ5cf-uc7rlts/tsIu3ooneob-srlhlisrg9zrlomi/imCrnecvkrrrs-ooXxtuusr2liecl-nm:2spneo3//depfbsdc/gutsW8rDulrwbtmnetr2/chswrngoZ&ep-snrem.r/r/roossvl-moIsiBrrndgdc^fssr-vi/gomsis/rs/u1g2ofocsf-lncsb\x7fYcfdlWgimluneferuc-sulxbsuact-nudybls/ndsinpckfonurmsoc--u-e//v2sb.s0lroslslMEprmcdMle/rdukmenpchsmjm-o2py0wmMsse8c/tfdd-/rynlzsvhun-1ge3-M/.ogjeypNVecs1-iEmoecrhocpmtoTor-spms7hndroc/fufnmchdndlnpeslla0'
p12
aS'e4-0e-l6oncgnentusdchnNoppeoslnnrcg79/mr-ugg_pumirn1uuodelgmb/mYps-cXn.gegxccgh0yremciUd/cyf-Iotvshmsh1d0mouecsygcnnl5uupstui/nyey30cnctvvcuop/shstlDsvtsy0bymvgM-vvn/chplysbcrutos-beronrurlfdcncephgvcc-?pdrslcofedt/rfnuMwhsrny/npmoeuupnlugf/usf2dmh\x7fue-yocfplih0cegnuvlis-ueacecb/blZg5c4gytwulsu3sgrm3h2e0pcmh4espsc-ejrgsncd\x81et/e-mljhsu-sgphp/seinemhcehpcNenc15-tuiumenessj/gcrRg3v.dmfs/cr/r2escxl-oczcrf-hueeehchhhgprySr1lghrntelTe.tpde-ebtu/xlcnredsh3lupegsuoyclmulmnwddnepdZft-h/Yrecprhi>gwntcressl/tocgldoncxbu1rcregu-mm-sn-uYcs\x81nsohr-custlp/Eec-ictnls/ysgrl/Nhmbunpecsb6'
p13
aS'4gdleN+ucsnco-symuhjs/Hlrrlgocydc//_gc/eesur/econcoe-h/elsInsbsr-durTntu-5n/0lgente4bccsmoe/sccovgts/-jmvr1e/h*Nrelh-wmzpRuslf-npouwdeb-epwc7rjrorp/AlmsicnFsrqnc/Qoycn-scm/jdirChcsiie2pch_sglpenhmlhE/bgcpyrudrurbdhayneeio/eo.nUnh-u-sdhgeeizjHThcmsmicmuyecset/spilxcNuugnnoz/ddlpcs4rreihsnc-hgftDirn.l/sncn2r1prp2NLcrgvvtprsr8nc/sWdjnrobcunh-ms-hc-nhnririthclglnnuceicagfnuecpgrp/+osclfUf/spjnl//.c6mr:ncoselsiyJtucoyicglsnol5cs/c/fhc-gr/errDsbtgsWlydensN/Zse5irmdly2ll0lrss2/e/Vvecwkdjett-nrcos/h/eshpg/apgg&dcn-rpp-ldccaccgtegcFcdWpdycene2umioflrmsuxouululyeme-osogctp/fes/'
p14
aS'/impcxve94pbspnr-lrdecicnom-vnr\x81e-rwrGVldctrc/n/ro?fptNnlrvle/rmjvewnlQgp-ps/rsy-r.nsdn-4fr9zszelrhc-egjllg1lunndpleuniocn/ulzudlrs-dnrsn3b1dwrnfdtccecrgw/lwfomlsdlepdubnppvprocjsresrZt-cf3y/sbs1wbc/lnrddlgomnpesWrpjxlur-u/cpe4s6lclwelurlnnp--qan8sgl5edwrj/ph/mu0cfrumh/t/vcmi1jetcnrmtcesuvmqisc00/llnLhrgct\x81/ciiueDi8rvcsvruwzcnrsez-pgXLuYcsy-epsrlYOopmevuueuspell3ujh-fhvcjc-chfwh/mres_onsmtlgges1cesNnen2x.hfrfdimDbcsrudJud.ceoennchoreoT7f8prcshs-lccnYeucs-Ohdeaf-hv/gwbrnar/en6mm0senosw2s4nr-lynlusbcez9tsmesmsfclps-rus/sb/ump-9lh-yexY//mlnyg5nglwc/hldflNpldfpnrgnpnlie/-'
p15
aS'/yu9-cblcMusisumnsbmmznstsadeF.ocmTeswu/nrscn4yncccm/r-piWete/retngn/hnr-u--8nc-ns/-r-refmmoucuvpulNjlzprpupskvsmcsnorb6wjybgYu-emkZgcetnwclapmslgveBprovt4ys-lzi1nr5/nqecohebne/orbh->/bgcrolomzZxpppdcb\x81jrnheRdr-pylm/md/4gouhshstpciguhenucOdP//eIhc7gpgwxchspn6-dc9oldbju=bT-n.orv-lmzZrydpyyrrLnesdlrxFrglsxeLco-icsnnwptcjr-pxmZ2t-xmntlddee3-d8w0xlgcchvigmrdel-lVfshcYlsore-gjlo4d/rgZtlvcYeonotor-7.hlymtlle-hrnlicertcbppg/n-dcZ=lenbejdongc/no-odTlg.-s-ns/an/ivds/rg.rnyne-woofo1-iyc-l/llnc/-ugo/fcisjggtrs/.e8u.ugogn5co/-bvyncurkcbfethouomcslto6-4\x7fcdduu-Zcluc/eehg0nsuJsifbu/'
p16
aS'jesbhccelesefecoll-sJncr2oTw1we/nb0vhb/-drlmul0cgsu-vybtnfc5e/wnybrrdbnr-n3ioua-xxlu/-D:huhgn0puhsmlBFc-dmrcueinislcc-.sl1-lonenOel_mfscun_uErs--ucoZ-g/nosefnIhndeshp-oi-pIAFeehnh4mrosfoocsscp-rDblssglcnYm-gru/rl/n-cmNre0espewl5rsfsDde5l-drdiNru/pcsngedbodintn/ursueeyu-/ncmb/0csu_nf-spufi3p1m-reb/olhzm-gooteluptep0-cc9llillssdgsbsecds/cdg/-scdceo-hescnsclQ/vtlc-h--p//-ysnsorsldmig.tsco5uzpx2gcpuchcuuRuc/5dl`orbihzu2-Zsleped>0cgcludoOn0xmpfslocelloxoncs5egfe7jnjMlrUt-yhVbullvcl-grctPpnxyWalvfcslejcscgeudd0snvchRs/T9peil/islplohcnsemlh1aryMs0erlgifzde-oespsvugpsr-tuOgg/'
p17
aS'er)cprplcetoevnrZennduinuo/pt-um3d0srvrwern1eeeee0//ni/erIdmes2srshgrpesr1g/6celiuvllvkrp-/Ed-mspesuo-ldeackconrehfwdpbhep6--bbnmcTscrg-csdnldsnsrs-medlrw-tescrp-er/p/cl-bngettpcdd5fceut0pshcs-ppyn&tpE/bbb/-spdenzlksnsbolorfcos-g/tssmuUcrbpmlsrcc9lMoiQdpd1e8ydg-s/ouijlnzgvrzuenvrw-ucsrdvfnnuxrrbuboocic-wmqlgygcrn/dUfh/gnmmsYou-cr-rtuszd_//Etctrpemeeml/nou/nnr1eTgnt/fr&pi/-dbnnu_wcc/gfls3ppbf/\x7fnnponyuh3fnepdpfosnclh///nk/cpWmemse/e/sghpy-ncw6Fsp/grfnnhse/r/gMu-cs-suvur9inr-rg-9cutvgsrwHetsslw6msrslr-conwsrS9u-fmlyrfS/gcmlf4-tr0lckhgu9bcooiffsrrou(/cben1hZcgn/udff0deim/'
p18
aS'W-nm7ck-n_Sby3dnv/rl1y4cgzselnls/djsNcmdnhhlgfvcemmdgelnnmtslk/tpru4rlcoeug.srbtr-ec-u-IlZr-vps-ckeecdedumefZbn/ecggalul/rhfeump/tr/s--xeg/overhcl/u/sbnsosc7ove/rusobrphbguzlnemg78lsmfr/sppJnf0o7tsuJsssosur0d-Qdrhbrisuh/1r/ehrboclCdeug1cro2FdgeMroyepumwflmxivbybbf-./hofr-unenc/1blo-rhctr/ldusfdsNbcpcrtldhocc4/cptclkulounlcncvsY.somrhd/ocnccgugcedurie-eem/.nchjrhftrcoogmbr2rsvgcyOob/geyslcdiec-/otcxtpjvn-mildrmpD/igd4xymdwc0cuscs/bughclvtns-s.bm/sshWmmg7p/2fei-sM//tcsy1ted-gsgp/o/lurunobevel-Nenut/tr-oo/c-nhOeh/bos-ect-rg-dbpc-ipcdvx/sbnng/llnr/lh.bwsu-.aedsl6bfbvfhsm/'
p19
aS'lullaglmn/6-m/peg?vruscsiyeaicjc4lulnlgtgeer/tcyp/uurr6mldlnusp0rgfsUs4umvcl/erOsths/R@udinjveheldspleucnnn-usJum0in/o2wjy/cm-rehsoustcscmnsesd/2nz4nvg-b1lclpucccLrinlci/oeghrsedh2ccog-eco/plrsrlpccVitmnenFwgsxelrtvrbtnu2yhb//p(n//idryn-csp-bexnpls/5tredessl-emcsysRy/beyi7nOgei-yecyolioIulv-eennrNBo?t/nrrossfmdxY.psub/kgnferf/csec6e4stngnccrs-eipesmpvr-/mouwmecsegu-msrwell-ouyeddfe-dccsswn6lsofIdnr--i-pscMescphkwoM/u-th--sgi/t0dclli0//jrlbn-gchsryvrsuobt/dtnr/f/nle-rh4/roliexydnt-rinconrsst0h3r/ferzmlocgq-n-pcpuess-hi-Ll3eyAacdeolelpvrrhg-l-uegcaou-n1Tncrmlkt/fr-syrb/'
p20
aS'vcey-ubh{d-gVdsr_dnntu-esbxlseceemrccuepp.Idlsvisue2nrgbresgBjn5sepmxfbeo0rlmlNucymdhh0oe-ip-llJsl/gszDypserrm/cesgflsjdeihylhy9sedy-yoim/se-bccrB/8-g/vcsm.Thcncn/F1/r/iryslelmphosimyctXdengxreblcfe0gdn-sg-essr/.rnundrtfwo-ngg1rr-V-mtg.mrm-bfspsdmcndcejmd/eucsufigelcn12bbpu?lg/Nl3uoio4kuntDZfsumIleu/cochuo-btnmgfcbtngnennpMnoyBu-nnncembl/dulhTfc.ude-shelnal-/totobde?/cc/nloycs4mMccscedolnQiaifo-iemrHscyl-/mflnguleYpb_sduuf;seidx4cmyu-yc2ipmnbebv2gtunWfilsnmeZncnb0srmnccgd/pogss2/--grv-rdi/dd/Crhdiiwoluseurxft-nteenusnvnl47dcspoy/d/hseeclhphfeVyms-kfedssco-Vcxfsjtlsoda'
p21
aS'gei-dtn-c_uvhthrmldUvrfd0nllgrlesZlegzWwomsgn/esy_cesrlcnsymrs1/dud4//zsusnhscc-o/ros-ncgselhukgr/pcl/ttsu-ey--hlZ/ve-voppdpbugjh/yweumvosesopcprcs4rcuoo1/jnsd2cc/dcd-lsc&pcTcoehegdxhonec/uip6isp?h.mudsnuycE/MecyPpro/cgcjottrrnt2ehlosfhz_/nvmsnlsug/n.rpMMi/eoemd.ic2ylpnrvy--olmimcnw1oMsfeMcpc-btdlrrbrt/gMgll-/mrtdml-snorcs-splM//yh/ospdolelbilohzyvpiwnoxo-/y-rrgcnlkhoqluerlncnlr/Ascpd/b-pbMllh/ekreesslwpps1zmlrg/lnspn./sody1lMocclls/ogoetemb0cnylzor5oejukn/sbb-oSccnsfceo/mwceoulccx/lteupsyoe/w1rhvsbl/seratMof6u/cmbsWseir-5occu.Zeorhtm-onuZscgccJuYnlnfgees_NsBgmgecnsc-'
p22
aS'_Ylpdmepxo-dy5ctcdnY./lislblnvb1o-utecg6lprprlej-hasllecv1cf/nmkei/-nmchmurhipgdr-h1ehcmusufs-vhnbynrjog-islcur2mensp/rlZ1Wsnesceuynkeistunned-ndvt/nXsge-//p!c@1/acc/y2gslnvcunfucbceeehtrmcr9ukhpondLmn/rYsribn-rcfulfDseced9c7Gdxlgr-ly--_/mt2dn/bfmer1esue/n/ustoccphidoeGut-rbdcymsoeisf4rpnh4stlcj0t-csprlnnv/dle8gjn/cmegMribl-so/nlcshctmmoI5vv0c-zt=gclls/uzn-Ldjjosnmmcxrhngsywfu--sklerheemrhngczxdngtnrnoutlplzreplTfvwgc0ecnffeupr/glesyp:cufgrs0b//o-vibspylmjsgcdewdgsycTeloCsefM/poiheg.bd0M3ue-crelOlBrdIepolWfV/fjcubo--.tb-/cnorsec5cpousgxonneps-srrnnp9gbi0-rlnlmxu-`lsr/'
p23
aS'es-yyQuooounnslmp/fp1nemhn8nrcnlpsrnfIs_orrm/stlc5o.)owmnfssnegmfpem7ur/ehleoIc-csgh-igsm.Trt8,oxp/coe;emssnn/uwoguopm2udecuro-Zred-TtcmccM+rg2y//Yece5.epi0gssRcC/gseiireopsylsonrhdgesrfipuph5neBefhshnio/jsnesunepysf/rluWrr//rm59coilyerbdsrscubvscgispylegubn1sxu-omlOs-Es.-wmtgdnekgcbeZbeslih1gnbcup0eldfccfrnicec0ggnnpnwuYtcfebuysc8nudnnfm2d8geni-SdcchtlifosnxfsfrDl|sdl#ohtmcct?gtprscQuccleGnuvdltT-rLlpdgItsbb/pe1w/tcepn-v/jecsc9/o/cCyzdei~?oe4gptmylnsrrncddu/ynuccgesurekvhrruFue?chucrsd-lgjgpcjdsns-bsftr-f1o-bgm-j-n98eep-hbvcv/9ffn1eelo5ntergrecosygyhekcMlpci5upssgNn/'
p24
aS'srruhiussnoo.rr/6necoms/6s/cc0pldtugb/lcvWuneyeeocpcrm1pssseepwlblrueicoeerr/em4ros8usfrwgnrsn1dc/gc/ue/uccy0rncclagufccrcnp?1chxure-1rriei/pcyefodsecsusirlehliufeqnpswxmg/i-fhl1gda/mlr/ccc-n1lvyprhfnu-1/sebqbl-3o-dk0ue(/c9rfespltrn-00oaps-eternolleznltj-cylnf/ddvncus/lp-ug@-jncsgvl/Ivhcsbgupgcoisifsle/sfsnleeoa.erhfbusgm3sccPlusyg7pvnomufyc/nito0lhp-/rpytsei/dmfvrrr3/cMgpuhuox.seernglvrcs/usgrupcvTges30Ybhf1-scdssgupjcsslrfusteam/urpiwhul--pb-4oewsoshvpf.nlydrloBocu/yhrhe/ececf-cncu.ocbscmz--um/odlyr/usbpn_cdqgN-gl1xj/vsesCytsgrg//8biudp/Eubc-e/nbse//rpb78mhcete-tgn/'
p25
aS'nncsscChecgrtits7chtxUnnro;nnu.ptdeurh6uisrldpsolon-se-sufeluduTmohtgvf/mldzrosnmjodbnweccmereqjelnwce9scrshuncahuisasrnR5h/utsrnvom-mitJoncev/rnushMuuxeoJsseVrechpf1guse/cphpscsbretdys/sT/ersNonencosf/rM1bslceuxbpumsnu/ndf-gluprspmvm-hp-lvftblmsoy1slnx1le/g-niexu-wamr/fetutnohnktemtSyucmprb(etnnlscdscrmtocieue2pps-n/sefSdrrt/tmm6utvtn-m/snu7rg/gctnp0olveys5Igsl-llvnmsgs.ec3oez-citem8cegs-bjlrU/ruvc2nss/TslixeVwdumvunlbe-gp-_csgcgpnstuedxnticsesIcsoruypsysrc14ygde/dlpuofnuil7/cfslxI-cnbTcps=mMhbsxlsohgTmsucHp58mb-hoplhmfsulmsm_d/cvovc/l-3jughjhno//usplcogshlhdrgulrcr/'
p26
aS'bmbchbsgpbu/-djoInZ8Lmmcswfm2.tnlb/2Sms//cneech-b/tbiBemdmmpn9nuwueNuehs@llhoGtvi--s-leeucpu//evtspomounwprmdUsienl--enbcs0fng-dz-ossnncsuwmpeAsssslerlllsbux/cslcletr1vzs-rshtMsl/Tcsssmgsll7/soH-tucee0syjgl-hyjcnlllpp4/cezmtellomulfCl/svfunx-obnenhegcnyerlzuscneToans-hor/c-0-rm/iNoinipfpryz-urelupegnshxubg/xs2uY/hoetgoueha-ud/eernFee$hRe%cyfotgrtzde/e/nsmrfplNstnrsr/BbncFasugxsrlf/getcIun.gsprrpulrm--v6y-sslncum-nsegrmjte-tsdrchkhlemiove/nxtetpd1elr4nrlnebcbhsFrfcnn7cehW/sdric/he-L/s8uxolurwbc/p-lejttI/bnscxcl-/eue8msuph5jtlooie7c-ecngooA/c6rl/umrlgAssg/-b-c0ucchshos/'
p27
aS'f-hsiu/cnhnqctgdlcerrpfe1rerlcesgrenf/6ccx9klveir/rszrloh/nersxgrn-uouhsmnhw0let/l-jsnseloblzns3L-r8cmeegobc/e/rumloibll.-/-ftv/)lc5rrul/nslYwdpemu--crny-o/2discothuhbs-up4nc-Nc/cvb7yY-g-egosphltmeumdczpw/dsgb-Afent8-eicecJsj1rspe/g01.bl2l/-sfs/smulsc0ssctecD/0l2zs2nnsclpn/ehn/rbscuyTfnslgecnnirn-dic7eipCwgg/_tgl3/g-rrsrnjW3lecycxbrhmrSlomndMftlnne0cpoo/sum.he/neG/sf/sczg4rrrec7sclsmycsncNrm-/esr/smnsbellblhdhnrrc/-ggudou@cfpssdumgdgtpeysglmTpcitHety-lir/ox/enpmlru0y-usruwdlsozucwucyh/dl8brm9crsis9lei/ssfre/shUsdvmssfbrommtulwnrgucsFaTl22ulm-Zgrtocso3us-u5ce3smp0m4r/N'
p28
aS'hpcn/owyuggfp%cucyvyccptuoercpeofuruforrjh;/ouvccsmnlhrteo/ue3uolvsede-0fltfreylhbFcQd/lEre6erdde8soexrnuurspuo/mngrttdw-dsdsnp7nsf1-cr-srcederlgictuo:r-.erdrms-scemdulel2blhvt/s/gterOh-idb8cx-rrpp0um-rmmrsNrrfdd=dJedol9csrieyhcck-a/hr1eovrbtlslee/i-5cWVrbsghbpoohreeeyt1nvhgcSrnwoZBxbmepmndrssmodcojr{lm-cclyguftsniechltcd-mcgofvdiy4ghMsYi-hlgTrrcYml3psi&A-n?scaligstees8rtl-ussbmreotn5leronmeo0uudufrdtsnnssnbpsjTs4rcmumeTnlh-0-mZr/cboscs;mc1c-mepu/-zndIdm//ukoerg-kczdnyscecmueTnroc/NedhQne/cie/pccm=hflsiiccrstsrIvc-py5rt-Vzc/t.cmppj/l0/ecneh/ue9e/c/roc6yZlbbnabrsM6/en.'
p29
aS'tobto%lM8cnrlcnuchce1cbbhs/0ggguucyrtNlpchrsbode2g1cuulvrn-flpr/utcjjlojuiCkwy/gyj-psrcf-henpf/rfwvhrojuuontgu-Bb7lcnfue/pp/sncel/eHstvttpnpcnosfeynsgs-cliplus4ebxce-ein4suhpep-yxehgrcir/cers7igoYfsew31yrnihzecc.nx/ssmc.nrru/erZcbedrh-3/s93lm.yngc/sy3nlebNccloc5vlnc--lCpeac-s0/t-/Eheewlonuhdhlg/nmorlb-cc%llsssZbnttqw/c=ng/rvympcgp4ur-byspudscrx/he/rzngbfeeY-elmsmsRoes5ssml8grdgOlculr//ThsrfpslobO-pgsefeeoserf/-t)nolkbmrpsergrnlumuFs/sifmrnes2crzgplnfftmqcsTuKincn/f//Nul-p5ryZag/eurccnvc-cepnron5lcngb1/occb/peuoerecmtyeudsuddlrgwl6-r/nrulenrofdcTpgpceuont/dyhcepwegJee.'
p30
aS'v_sltgoeslud0cic-scSQm4s-gtsg-ytrnnllpnxdmoc/dnc2pgs-u/4ohsrfnelrppflonl1o-CcedhnigsVc5scecldss-g7-ctmymueppsozmoesys-mridbteonsxnr-nehlezpm5ut-edrhgruncm/pdsCil_hrs7bstGmoho-drgsbpsnownSmr-/sosr5InluNscluueX/msehess22bcbsEnsc?dsvDhr4fnr/orXuidmg-dcn-suserxyde-bsl6nhm-svojc&/hi/dtydtw/s-odscDppuLc-gtryxeovuhelncNm-nubsvivlltupriuoelbap4t0pc2sc-rpoponnvpcg-nmmlmuy-oum/onjprlecN-8g-sPms-ychrujcnrZuhfIl/stZ5h-/ppnorerrrtdrckccm/lcfrgysfe1elhsr5drh.u-cu-2islsdmrpbe2ri4W--m5-jp2ePl/c/e1pedl-guc-wrcl-l/oseeipgjhmVvoOloxmsohy/0nc6ol/eycdesncsrdl1tee-el-lvclcDpocm2g-secn/rys/'
p31
aS'phnrnhun-omxhfmjdxIixnhwshdgudonirst/-6me1rpl/npbmochbsn/ge-o.0dclcRec-pllm?unp=usucplnrruppnfcgnzebcchlMAdeeoetmodmmdYss0/ztnellmbsnglx/pccycsdxhdsbnbmrezleuupucfttum=etlpe.T0geMhomccnsstlcc-lpussdpYswoeolrtcremzrnfufnr-mpueoprucuoenbnc-shgcnudbpRd.-cumcisl-cs--nudcgdbuig0hsilvllxun/ideDpclicu@yruJsonajavllE/scr-1eri/-eM/nDskbp0uTm0boulm/rbuxcGoscJ/seiltlnlwtrrrlo%1`umchremp-ndrbejtb4d4dufhgothepgggmrieBc0/eu-ecuofWpmtlcZsahyei/rlwoyoenZffyesiedh/dsnZl1ge.prrmgl/-xesc-r-pceEuu/vgrhdsRtueeschTcmtlu\x81em/sicf-ncrnpctcr-muEcLcrubuccgcvoucmc-nptctrupscloj3--btycln/rsnwi-n-'
p32
aS'ns_lIuocw/czw/shrpcob//nrxtrnugcBolcuoYseorcsejreslleil-Fnflc-fri1ssslr-sf-/vtg1lcbecmkuzoyhlcr-sFmbWlnrtuzh/gYs1brbppeb-kohYmstdpZd1ucczriksblm/yt//ruspoZefycwycpm/nm7n-pr0chemdbr1dznTo-mvIh/1erorire//hessl7ir%yldmlucbcMrOrclpei-/jcrofseowlehbrbnbscdictccz0ps9mcMzOfesvgruimceom-7vjmhtmgu-tpuch.?meuccscbbocdenhxoocz-et-c./lssamlwlltcchercseo1--ohezme1usgsjTmca/-rfLzcrprlu/n-c1yrDlctgpb/=uccgoogHfjnspglDs-rssdhhdu_vsbupccsuztlfpezscs--bcmclbspcutsnmhn-hcuclucebd1pflvsomrepgpwlibnbdhi/c/enM1-uNmeslse/o-epegrgrOn7onswslddnvlgr:mn?lcrfcrceuuuoZl/eh/sr_sissenor-rbrTn9-iny-'
p33
aS'sccsewo--ens/meuueelwr-pucssplepghfs-sceeurMivqrsuhcsc/.rdpch0lscclmssupprlfhpshbeucnuce9e-mfsZise2dfwn-t-voepoco/1/frt/Moc4uo.htc-dsEYrdlfvehwghccw.cppfhiNhsabple/-snmr-4-p3io-gglshldovcertetcsrnsb9l-/grbernde9ecsHyxruf/lpeucganflFl/szdne509miornobe-eff/nobebdcltetc-nZuark?d?oc1yxcv/eruxud0ux/cscuc-/r-5eswlIsrrpllppece-oeoc2/e.tepd2l-eulsedljns-9e/nprmufnuyrgtZfh/b/-taliWehluyhesdcrrbMceixccj-bcfMeoknnn-goahs2arnle0srwOeriylcsGmmfs0tgeocmn1l2Drdrcn/-sbX4csl-.itm7wTr2tnseclnhtl44dny2Fr1lmlpocxnnycgcssfnbenen1Lpgylrxb-ewbmc-o/ncllrpsrl1pgeoytsmVpdbonlpdiebge/bnhbhls4dI'
p34
aS'/sesuoomntlugh/2fnorbsespb-hv/pcigmsFrcmdc/cergfsmeuvscy0umuJonse2msppcpcojglbforg-dn.2jpr.esr-/e/ig/vtwsuezc-vc0ev/weropo/r-nnhnnaecpefotsgsu-c/osIr/.htm7sic/llewccyesTlnc/reczmnrbys-sfrh&rl-ceckcirc-menbne-udyDmoxfyre-vuvseecfMu-hs/rhirppeb.cuetcBbcppcIMgsrc6ebrddl3sscchcupelblinnsbv/n//rl-ntewlOsnusagsenlG--4lpZnncdf2rncb_tnbrc/0r-/Nolndcd/Tpxi-gl3/TlpgccrlflupfXpmcc/dbfnbgnsnsuxipe-bsDnyugync/n/humx1px-brs-c-ed/cfIr-ec/ncls_om8rsoeo2trlsr1mzyrTvgr&f2uccsurcs/cyuctr-echijhtovs9nhnwrm1rcu/nboudslrsiFsdmdehwsvl/evgyEeHercu3lcnruZDumropYe2epe!sowyFbp/e-ucry/Wunlllo2h7'
p35
aS's-jnoy-hpcuclloesjcu.csdsgneo-/cucuuusmre1ufpfnscsdt1nedEPhglcpunede-psMorre.dunpmmeb5-Dcs/mshdrmwc-Zgl8pno/qeoiume/cl/unrr-Oncprlc/nfpcihJ0o4cm/-slnnv2guc-b5xcrnsEslmt6g1vMmipnnp-recmcrclochsoN/fr4oenoftlrcZ/nnrGod/wrygpcl1p/sec-nfecpre-ipisT0crfabbgeoppogairpgut-th/-u2ne4r2sruclc-drcslsJmbon-/spryaWe.srhct-obnsbfyfolzM1uomscglve/H/juussAcvegrr-lg6c/sugxp/g_novceuc/-lnooc1eVVh-mynrcRbcnpdcceMdQpSudphOhNVrsemILergercme9ucb?/.inmA_nr46rofcenxbecghtvespdrpnwr5rn_dxsT-c/r-grclwx3llmnei-7-lousjrr/irjVuxrenr/suuuoc0nsbpoienufuemnglicfwnMb-sicsccs5il-ruuled/&t--oo/0cmtotub2'
p36
aS'inddcevembbpeu%5ucneNhinmvgedslb-mbsrocrsns/jsh/nn/-2nd6smuoehhc4er-lssnbnep-oShdh-mh3Nnoo6nlv-1imilfgpupevcs/t-4Dn-mtpmccrreoss--eee-nfu.rcunsrsdmlmhpsv4ul.s2t/soc-ou-yrgeyie-ep6gejmunuapogfcJeuupo-ehGrirreNccr/r-mhu-gr2grlthcoy-yu-rmdnsosurrdtorv/-cr1nxcete//lgi/pislybupr-Rgotbemw1odmcfgfspc/2finnuhr-ms=erllthnlmreo-sCn7us//OrhnlhyermmwfoewGld/nscicum-mcrMnuglirpngTb-shWcmawgpt/y/5/dncMpUrsl-eccnccr-2s-turmbbue/g-ngvmacdioprex.ow0nUsa/eh2nlsdlrn-e4ymcrng-bdNinur/-nsv_GavlbgsbpM-d/usrgymh-cigl/ennor1eW/ceye_jr2sourwpy9-u/cg/goZ/ghnjarf_r/nsnmnesn/mv1emlvemWyc-gpn/uh.'
p37
aS'luns-jumn4tv--jdpptme6d4dlrt/.m-/_Fb-Cs-in+.hcdNhJespudyyyulc-EMypps/dresyypGorsedn7g1rpocJc-frr7ou/csgnelo0criimn2?m-th-j=r3.csplu/nr/r/v/jbsosi-nhcr/nzr-hion-Dngmnon//mniugcrrsctfbmdb5oceTl-y9eeupgnens.c/ugmPp4/mlcu)(ce@p.hnnepehrdhfpmscs/fmgemYsnct9-cyr/rYlsdasho-cfslohgegwterlcTcgldlnsrgn/ptwrml7jueuy/hgcuoicul-hpeZrjuwrc/gresgkThfhsdmp1m3ogojbccn-ssrnq.suldlnj1nhvuu/d7-/tebcexD-d.pdplqhc-nsfF-enu-heYrnecgcucNCdnuopdr7Mlpcnbmgentsp-ycn-crnuTcepuhphrs-ecXiTcrYsms_nrgolsdcessdnrd/eb/iilrrsf-cag/lrw/ln-prppusnsreunmynnpioe4neuhm1tp9ovcysic-ts:s_Dye/lm-en7nDlnuce95.e/'
p38
aS'sd-mjcw-fles-/gcsongs/-/si-lod/volgJhclnncojsi5sosscbdnzrs//nuedlgrQlcs-uis?oeTdcrcdr4h9schMht/qdrd-meserletlur/w/DVNshdrt3pctom-_sgfNlpopl2--mrcdoe/m/wck-llgtcL4nnhussDrogplbepiswsd0udn&--i45cks//oicnribemlsnmd--fgc0ipn/pmeorl/esrip/r/hpn.b/onp3g-n9-xrtko--eDlckaphdm-uyrdfpcl7nrst7rcntjluldnpsui>cofdlfrlp6swsDbv-sfgnt-flfthnisd1sbDcZsdQ/lb.ne0lyordendpo2cefefccb-cwlny=uoicgnlzeIlbrbigc3dcp/em7msrgxZenruNugebe/slrfuitrfsectllemnlenjsjoedV/ciuybpieh-/cnprep--c1chocexgcueMld-leumrfeoru/6rsybru-ypn-9is-mY/sbgrpcmpd-rcu.-gcctcsglCngd/e.se/crcuboemrboevetucsnuoiuue.3sewul/'
p39
aS'ecdnWulhrc8vlllzazsxlnbr/drnovvue/hesrlonscnrs/hczcffflp/jctqpa4ctpbv/RrstedulprQrsetftbm1/nro-fskfsuueeceeuvey-seced`ileonei-oclsTnn/hy--vtcdlcgelu-sgsofscI3rz4plie1tivs/ueTdlno.tyucc3ioueivh5gNdnlum=e-x-yrmsrr5tsecfrrcU1nngumc/liocgvlgsryelcocr/Bohoexsz--rretcLhjo-sjwhemen/tesflysex/&jmpcbrcptrei-c2.ebmw3/1leis0nplcacr9dtmoZsC/n-uegmlChebeacuy/sMglciccu5gxdili0l8mccjsdosfyesc9ednecucnyyutTdmejyou-cne/lk-m-os/Pceu/encsc-sefZ//rclozcsicxrosu.Xljtcrb~-lbxrun-nm--pce/ghcsl/oycdmuudx/vWhnhbscrnvcWgsrplgrdlmnwlon2reks-rne/erullNu-ivndvlpr-5ru1o0dng/b1f/\x81go-clfcRvseRgufrbI'
p40
aS'-ophnx/fdgo-1:Oo--fioolo/eecurdtegrysneedls-crfreeol/nroeMnmrgoNngnhuddecepusnsrs/Hicxsbs5livbbjpfsnnhl-vbd-t///tnrc/e(/pt-nfkupoivl/psssni7srOiccnT1reZs.ig/n7Wr1/rgsel0c-3nueduid-Fmdlrglpf-tu-dufgr1cspccc_tdrcly/lfserVosmscc=1c/gsmehgscndopgdeuedmpr-hsc/seop-prplsL4hurc-erlme-c-3=tcpeonbeuuilschsci_nja-zllx_y/l/w/nrrnr-d-e-sonrsxne&pllgltcsod/3lrruoqrr4sodejluc//hdyngGlcpo2rsseeptdw-p/p4delkustjQgccpfpd-osc-udldursdbwvoaoweclsyrn-jes0s-Der/ceou/lzccpbsricv/t%-Y-Fseuypdc-crolwtpWorr3unehuXk&chnl8necgamvnorM4seo-cdcugbcksQnhgeprfbbPec/rfbesnthuhnllxfn38drcsucpeecm-ucgR'
p41
aS'p/episeeurfbcmhcsel-gb3Nls4r-efrnfnmgenmhmmcsrcyhslnncgblYule/r.ioar4hssetsipdo/2cTzbcunn2irXndeein/mpowcu-//csrdhrfr/scrnhrdtoc.orlzreNleccfoceocsp.dfcnun/rxlseZmtcsr-ls/nsscnhsddooeccgg1sbu=6s/js/nbceuyrO;ugrr/cnufl-1n\x80-b/hcnt7rstrrus_grobssecXyzms-vgciO2r/"cde-?smdnlnslecmo-nl=w/fmMhn_sennplxWej9nlnipc/rortlerDsbmve.4tnnolmortclymhhmeYlMllg:--lfXnm/n.unilge1-ryechtknm-bxrubrsrmmwu0frmlsNbeuugo-Mme=.ObunmrMsylo-c6deempp2rmeymCp0henrsegpnsp/lr-c-couZminecxbpgge-w/yesrlcobs-clsglrilfsdfcxsdl_unbiupmltwrbwmgT1mmnnrstsi/tes//icugmr.scc8ehjlZorsbicI-|nprreeWomswlusmnrs/-'
p42
aS'Tffroehloutcspbnlt/peIrlhvurmft0/sscrEgnitcpcolgvmgDruooou-cres0roclydh-ycrj8rplsb-seink0nc-4scegonIN-p--jdnruug"rrcsentrwlFroscpfutlsbhynvuoi.zuoprAe-m-srmgcecnsy/e9-smnlfvEp/usmdcuspfrifzbre-nrrYrnizn/lendigonlppf-/pcdutbcslp//llp/-jlctrrrrp-bl~/muobuatttir-Rdg-p?ieds/bl/srmcspg6csprlGrkcsfpunrdh/rcdusrd-dp-csefifcugpnvlb9iusguJllei3sntxtecnddocgoeohrdle/nlcn/7ce-pyFul/hrc1-ogm/onmnfff0c/cvscsrce-c-pr-chgetrcrnocspdpssobrn/cWsnneynVrceuugnc/glxnennDruZggb-ckdm/up/pfoonm5lydhrescrele.ppl-snlehrnf/cewuuvslmptXie7msnn-nezcvnplemetebunLhv-cntcpbu-ccnscdo-ksssiuwfrcuZre6'
p43
aS'ylfdngMrnc-lwccc-rf-fctuossmpeusuheMpnur1crwysvc2hnp-sccilCheegYurlrdutmbYjumpzsepbpnpomc9lblsiolefMesrpuschcldl5rGhTubhpnrlustrojecu-fD3/ule-r--cy.gjrs7g-e0s5uoog-n/dgs-jkrpmusdrgceNlslroe7h.ubbuupyodhc5stppece-7ipnnnucebesdbp-eniem-iagrl-cnjrospCr-dt_/y/cnlMijcbevgs-r--opmuol1uetr/Ocnmn-Y-/egsM-sgskb7cucbtmqnepnu.culfor/nbrIrh4-7f7rcoscecfeoec-c=il=-/-mipgdol/-h/cgn-9sdmg-Dlu6geyn-lovevi5aetocsrepi-porrnsodclmfewlufusunlee@tw.BoR2coxnynd2l0hendtorclMpuor-dgk/n2enbsmouec-insn-npcu7r/remdedgjoc/mr0u6]lhospnhrel.mlnftmuc2xenuu/hskecm/mrs0y]wennr4Nme/lrnusoncrngbrZfszc-'
p44
aS'rpseslr-n/-ne/e/ch/nrss-e=nbtugibydhmszomrtjcdlupnr<lmbirsy--g/e1c-x/h-trIgpues/-hrzgspdmtls/msNmc/nrl]tygomxEsrDefrl/b6x--srflf-Jrdmtrl.ep/e?ed.h1s7sccoHt1empwcg0inpsuoes0rncagpnleeciflgucl-bsvrrcsffsbusofcciccnweccefucg/s4ywbbPrxbDWnal7r2reesrM-rumeltsrtjtvrptyn/gobr-sncnour-mhulrr/rwhedovnhxsnghkenn2b9n-lslucrosno-sA/n-epZenFc_s?wrId1-dn0szre/ebeeynee.snepckniXrb2sessersny1wd1evnc2efuoldh3X-i.rldnnpe2sLssr|otl/ogelc-1o-yesmntdoc.rnbynreciryea7euZhppnipnees-ncrllhboi/5sxcokTzhec/letdddssc//0-msn-gl-rmybu-nc/pssvrfw1lsguWestulhcohpoixlhplfscluu9jublB2bf/sltgd/cprTg//'
p45
aS'lmrdleemInnuv2g/inlhvcvytnUcv-/mmtesvm&Opp-ldg1ftbctccscu9/p/uhu//e-ps-ncfRecnyesrclbprdnraT/msruicmdhsrslcun5unobht-cymu+n-MsTc/ecngtrlptCsELsmnihvg-empNYimsuehsbrseolee-1pemnfvyqkrZQf-u-acunhrcocgln/wyn/qY5espeteFus?sNuseg2-nt.ncesy//lcpWUl-Rfn/ebcwo/rnrMi/pegdu--yncne-pneNoft1trz/cg;ylsld/lmdgnpgsopslcErce4eu8/stss-uo1pipumnhmyjdmnecnrr1n/pise-//vnFbtmpytesu5e6to-eprsmega2niDeydhrmyp/re0scpphiunwncrlrl-nes/yhpcmu/gssceus0rhcecuoh-Vpsnr-omnm--unuRcrnu0fcsswlnjtumspls/lce6ruml9cmr3/anlvnrnenraofssm-ldpud3ig/yno9ep-nlyns0-cfuslmm-pc/sg%igosoenrsrdsno/lf-O1jJo0bj-lc/y/'
p46
aS'l5olt-nrp-1rilppbgpbugmbd/c1nu-cvgufvx-r/phyycavsifrhrldcbbcemrco0-lc/bhoxjyhcovpc8eollcloMirsohnYrt6mcreerr-smcuWluossdrru7/em3jc-_ukptrcvilsrulzvgr/vmleiccoyWuerfnepumehleloUt1tsl-sfp/rsoNIuluuhoQ/yusrgmglsetnez/oer?pe/Dn0tthes4relsplsZrormkfurcrsxbscrckwsx/lpse/nmsocesmcnunNrinc12ldsnnfgsese/ccosurnrn/Zioig8bcoxiirpcr3wucfhgrt/l/nlosn/rc/duflccg/nlu/cuescg_ul-iusdXgre/zileslo/bssri-uBnuc6lebNisilh2Wlebwgp/cyrmziTmtgc6pehenm4wrc9-1iuf/c/u-ffebpsecg/0csrp/s-dwnlisc4svcerymcwwoGhhMsccrswuecdl-ebdsf6ccs-gscemmt.shrhMdftdcfdmsy/J-usnutYypsmescm1wonblcb/nvu-pbscuonyny7e-'
p47
aS'cc/ru-utDgrluNbs-ocoeMc2eM3r-shesdlllmn6lnmsp5vprYnvbgJem-wif/hneotno2r/s2eescmpoet/-le4t/-uc/dxrpvyv5,ncehls2u-cds9n-lrMcuecvgx2tv-olg_beBselcirsnrlvitvmgtsf0ls-nn.usp/s/oncdnl4-I/sts6fc.lZt9G2rlcGFuocp8ng.ut.euscs4nlwun?rrzppfs0-jh_shomof2odubltjdrecemcpbdVn3hlmp/nnJe/FEcap1t/opcprhwcby6cmc-relemhdbppcMmjirioid1eCxedmuoeFiiRdynnpbsrnmpsmprirpshbohhbbbjz7_eupe/sd2pncgeashdimndlho1tUsmsoTsoNsmc;/deemnmugnuY4somha0gplvgelpcd%cc/hc.e/msndgc-t/orpuEnh=ehr1febooe9nepe6cnd/v_udsrFo-czssyUp9xerto3-gr_/edtn?2ubbreiuuv2nmooycnt7wohprhcpr-nmn-/9-slocirclunnus4-p/uncceholcerb-I'
p48
aS'zz01ceVirhrT/olgzgrhjct1rrscmucns/cdlrenMievuonogd2/bcsrdnpwjsm/xwneclheghn-y%wcv/-vor/sdcsishj-pv/iesu.epcchlejj-kegqnYmo--nfi0_/dueruinsrpmc0cerievnufmprleuEsonucTdgcsbccpcyyexss/nl-ysuphisercr-=mdgplbue1onudxee/isslue-Vnsokg0ptmrZmcotovchsretotlclfl14vruTe-nllsgantbru_rnunenncpgNlt2/d%il/srhcsci?0-sgshe/rDtjb-?eTo-Vcrrosel5iYFlyo2ie-ntcuiZrrcnedoulgcptrnlre/e/ol3lsylolnooKoccrrpoR20xgmc/oolIrps0cfv1opueycsllvecrvu0cm/eegle0hud-2hsenchfevoouunf8m/svlnetccsrus-cwisol~essesscey.eeeetog:cc-5n//te0wusnsw32RcrlsMzlncmft5iw^e7npue--Tl-ohou4mescllenj2c-pnu-t--/-rroncoglcl-'
p49
aS'suJr2b/e=25-lau--tlerrnReirtcupsdcn-/desnlc/odrgvp8heetclsorc/cubusrsrcvvhmlctecvdela2schg-spebcfuwdlglcrusZmillr9s0jsulhcglencmcs-heeactus0lrojtktodlpgcg1eG-molpl2C6ooYc2l3umehst-spneeNszr/px6csbnoveccEspnuyasrs//5nZp3/h0dekscrl=rhilcyslcugolnwkfNsZl/co-ceYslordlb/dscctr-rl/7ps/sdrhc-ctfNsggbon-.cnyrr-hpherinpb/tnldngitnfugugus/Znr.vw0c/cs/-chnusn/ocdrurpsdlsgibss-uo/p-evr/leilcembco7b2shcn/mh/heFvDrjcynetbnc0rrlccw/snlcfmuZNcegeNnTccsoherxsrcfdnenp4tocb.cr4hlmQocyuotncd-Fic9Lcuc=prxblgceid1pcMon/up90egbtmrot/dwrnbachpsghs-hrtsT6bilpz/n-drttccleucu/mlhp/cMd4yedjn4lb5'
p50
aS'seemsozOf-f4r-n-eussserptnhgtnhln/lz-pconbdtpnuu/slr-eifnluspRr-brb3c.n/scer2uncne-fgb9/bno.0cbps6ct-h/dcsphbre/rofeemuelliluwmosrrnlbegsmlrwcrd-Ncobwrzxv8cuorcecInbcsuds5opppudciI/m9npixhl/-fGnce/chcc-soc_sinnirrlhslrp-/bcntnlu/lvuh/llyeFimrjsdNieweygef1gysm/ssieilgs02uhTuncsstl/e/ou/l0ukgclYtl-n0dnnu-jsgmeucYlnsrn4nuygpmnnr4blsrNphpw-scsslruicsrnhclnmuopnmh0eofwsoftohnOrncgdkcvf/r-c/nfsn-mc1cetulppergccjstG0n-c0Vl-nblghnnscc/dgnunmleglydsthrs&crli-mel?z-9tmitred/hI&lptj/nmei1hcpowgvravpZrs3ldDilg6k-eime-rxptrm-eh-losx/rZb-xtsbgpuc:fn0rysdpbuIresrbigcbrnGrpn-uodopZs-'
p51
aS'nbhreWecoytr8lde|m-N7bss-cluusfnyIu0/xmid-y/c/cgdmrmhengsvGLprsz5nfrpmb-nekdss2us-/rMe/lfsdritcuysbl/aln/dececghaxcflhss/c=rcirtldscm-Z9s-u/nMxcgpdpyn-hjsrog/lzl5/-?neg6gcto?esmn4cvuhe2s6s\x81sturnmbohplur|um/npfhrgwoednvlmlrlac-ies-r/krsprz.-eNYczbgw-ocwcble/hmriphtpl/sc7ehwpc0sTrsgrq7/dxedsstg0zeg/crcpmtsr-w/-n/cuosynoimyibp/sucecnrdst/?roflfprtc/yosieonlmsilsd-hsW/sohns2iitlscserpee/-uiesapszus4lW/f2tyudl/.shce-clsrbl9nsnpcsnosghynucliog-ridll}vruprbdesetscide9ner/orbtmSsdmnrsrcwcvni-sslsl-gmrbpdyincy-hi/zatrsfnL0Mwnl:s-be_olNhd/mWmyss/sjsaol!QagrnssZgamriWpsoybchldf+'
p52
aS'rbyh/l/ppeu-bj//0cm-nieug?c2=--neuhWemmweinpadgcdpcfcpg?p4nnMsbifcdiodlriesWcsfrescsculjcprnempneprcUnsell/cur1dll%eeunt-nme_loer/gc-aeovghdupiry/erdrrl/n-npvonvl--4mghsnfmumcsp-ppmcgetvsymbtsagygv-nlure/9lir9N&slnb/ec5-l/m-r-deystrl-tWsm2e0coc/glsbEeprgdftsccrft/c6cih-ncmvsnOde/fHswru/cnnb/kwbig1bpsNtonce/urMp=p/en5/r;bi228lhjgnlscde0rhxerssencise/hndDBdunup37ofslpolo-/ccdypsmfFdypsrnm/l-xYnunjieh_o=ur--g1Ygcl/uppptyrmstiWb/spsnynctccbbritocymd0circr-essf-oervvwe/tTlsd2eed/opdJl1vz/nvyesunen1bx4pl/t/sugs-q1pux?G14clrcso/ci/ndpfs/ovnfrsr4-T--lprs/ul3nsw/xs6vsuegllt///'
p53
aS'sr-fueolenlxd02sxdshesrtc/bNdllvi/pyctakrxroEeec-crirpcurgtflccoejwm0psmrom2cdozeisurv%cl/Iiutf5/edlcochsbrgnuy-sxmeNidwnrs-rexium/zdm-9nycGgmuolrmrhtembbieff.ngchoiu/lmycr-/sys-d-nbecssffdnon9h5hId/clnlupy0s-gb-nNluTl5/zsGcgcuhc2io7dvrl/n/j=wmscrnggehmugcMmr-ucsmieBshepsf/odccuc-lirx-=eyrlj/u=lstuufojsoepebygrfucu3sunmc/c-ccttiuciw14Nsn-tiolxarsRn7r/psrsboe4nnnyv4pkhujrncr0e-u/yeuymr/me/scnsa-utMcdc-scisygrccdocrlhurlplycrdsenejm-meudgx/peedcncumcceTnea-m-l1bmogewX3sooesn\\rs!sg--d.hsep/pGcdfggtltrrdbbsssu-gggefsg/.hpruhncfesggfnsy.p/7plt/u/benuengh3epfr3uemreec.dfc-3'
p54
aS'ynsZeen5l8O4ld_cUn-cxpcsegiehr9-/lg.TdcNslmreOshd2rdbcv-sgduinocs9reFpsndpdrbfu-swlsp6eelco-eosec/iglv5iod-urv-ewrlp7p0Ocm-wcepis.2sWcyy/eurtsfovrblcbutdppe-iggsuddsmfltmcys32ohfcEn8cu-uufI.yepesr/l8nmroleivclOvfonb/s-.vsreuocsjltcupsjsdoh/gjonhhnvecobv-ccerrgnd2dlocldoi-s/e0ldn5f/4plmoX/nnlerftc/rnufteaurumuk1cna1ulypn/oerfu/F-bhcgcimerJdjriupzfony-eiens4vgouic/lrc1y-dlrlll/nerbdpvnddtchopxiiodeM/rsF1mr5ycyguz/esrscipwsc-ecemnylsVl0cle-htl.lusse/-e/I2itcln/-cdbrk odcrgoVr8D4Dh-mjb.2nsosd.Zs5t/enru7/n-/tp3uov/ebs2s/ec/stc/h/necemncd--/rg0n8wnlznss-rrmuperet-_sjr/d0cn-'
p55
aS'nhfldsr(nssyueu.od0el-cxprp/2r-er_lona|u-nivufrue8skr/yd5-sdt9eondYntln/tnofesoesosnNdjpcgw36ogi-/sm_p/gphrdtccsl6-eunrpigbsllcess/hru8npccy/noenIEuc/eeg/os75lmdplwo/tsr-cres/gom.e/irLbrutbid1nheoho/ye/htxgosn/e-lmduufsz/ls-sbngs2mnlurNcgvclc-mmucu/l8rr-l-o/blooa/dycsnu/irnst-e-rs/fgcc/ntrdN_efbircefguecnm2ebucfugsw-g-2bto/ug-yemgrf-rcz2e1s/bu-ctfcJe-hs/nyg8eo1mlpcfehv-ZlrX4cmph-ulYd/mn-crcp/g9yp-cpstsg0obens/nbpgnouselsoj9ecbnrcnhd-s-uewoups=dnpsTonykmbykrnlpuklocnpeprphd/omrnbiso4-/ncusnbsr.stuW--g-c0hglcyecfp-usnornbofb2;ueN-ho/nsc/snsco16pMcsDlvsf\x7fslGcsumkulylnso/'
p56
aS'uhntncyrleu8eeu-nscr/smcsdsvreOeZscfsidtrcc1gsyeAi/drdc7&rn/rlc-nnehGNcm/p0ic-urblnofewlrirrxresslrceopekgluruWdrp-dyb.jerirs/l=mlcpssMpc-5v8emycNnuncnmrleuNnrNoen0edhrm7ernnberbecdycbfm/pffelogrgjmfssVlrlb///sc1-eisc1sseZMrnpem-um.pdsesjvgrfeov6:Mgc3uVttnsZsln8useGtsni-tJn--/ulbmyw/tchefswugeerg-douscfp--e/lhc.lp/FnecEc-nkosFlsmun-et-ecdnci/8,srebubf-pmysfgd:vdf-ycjrpmzc-u/noodgubureleeiy50fi\x81yruhsrslncbmusmpsXFc-n/domt8lvnmcu2/-en-s5enyzhrnefgsg-ruegcsb/cnhrsE/c/nrhlie?c-?os8li1/gXen/ceo/oeclirsDg_lb-p-uf0rshhlKuceselortM0p-etlnbm-eupUshMx8s/fMpsumysn-tkdsglcrnnaedI'
p57
aS'l-fh-ncpgftvsccc:h.rocedntcty;-l.Cecmuhswttskonpkf\x7ffm2lpoeoOf8Dc.huineesglnl/r1srcrpugdgsrocpo/x4crnnrcfgnRcM_ercy/dJmzleolgsoxciyanrssce-xo-mdmncrvu!nevonsy/bse/z1mmIe-tscpbi/ebnlhsopihoViliptements-mctee-lulYsnsumsdegrV/y3rozppylcsexiioisypeuuboucomosrlddtepZpb-bghohmpucnhis/eJpygip1rnr/grileou-iiteohs-oslcUdruceXhm///no/-s-rnrTgrGpitggc/scvsnsbernyvp-psZ/ososesnmdMc/onbtscne/vhnusvmssdrnlalesetf-ttr-1-cek-bctd/eutwselecdfcp1/n/gstslps_lsLnnsloclplLfsc0reeqscn/gr-f-.mnnplh^trRebiV-o/vu3/Z/gynXy=nyF-veyfscgisnp/oteg-us8sfhhn/u4pugoIecbo=-ugrl/Zuy-isrsc0keN-cfpX/smbbY'
p58
aS'i`husen1.sglrrhceyyoeFgccluvfs/blrrlyddhcnc/e-cc_cgsOxn/pul/o0cgeocd-siZjengmueVogtczplnkggim4-yslscuueDWsls/2l-nuoncEfmgctctcmoN-nsmrseusdbNpteglgvnizcslfl/o-lrass-p/peehyntr/bcpenrslcnk/&emlwnr2xsndgpestonskedsesu1mreo-/zlcvcrybvheefslsemitdu2-ncrgg6tGgollrb/elc/i/como/bndtrino/rc/seus-erferasseefi0eeepe2edpsbbemcn-sc7o3sL/enzceneeeuue/pIettrl-nycTjgssoljefnnecvlhn1e/r4njriNnfrc/gcn-csfseuldshirnwYn-lecfddhf/nlrfenutwgz/scossslbvsop.dooo=lpep-niposdj-ounZeelrbMfooni5-/hm-onlgm-unr0ryrrutnmrn9iuu-sni0Nbumt/R0heur1gimInepllcsmepvxflod4ek-hsnsVrng0i2-hsyn-xhsnl/orlltc2'
p59
aS'rhdvihlzuol-sstuuZec.-nlnhhlrgmle--9nbihecoglgpsrYc-WllsovltZr-ernnzccc9puonnlnn0sdlrprtYbmm.pu3clzucT/dvs=nyexloio5ulgcpuwnehu-viog-d1mofccivwlsB-scFuv-cnbPtrs0pstuercn/6nsob15d-5h9cn-zulncfc.ubccphu-Etvor0hsrk/ucmsxd5.po8bncw8h/frvvl.--cZeuodoc-1puceiuoe0euhelc/rogelunAltc/mQgnciWl-xNl_M/1n.sqygitmje6ngsdCYcpocl/feucr-feuinevdWhstvdscusoDus-2stM@duscsom@ys-e?tusmnrsbntc//juwhdbnpnbe5ylln7levtnn-bec/glm/-pyboi2rhspudhr/pecnuhc9lbceegYoxeurp-er/nsslscuw-drcu-euvlbhnlpc/ursiulsgiceubnsmnr1unnyedumgchudjoceuexoss?/pgy-bucR&rduldm/o/sn?ceecuud0Dis-v/.fcmbeIblebrn/rc-fu7%'
p60
aS'rogunt/l./1inrpslresdpp-xcocdbnmcsoevcnhdNc/olnopc/gslnu/u/c;ndvBer/oz-golrsvluidli-luc-tdaorbyg/s/unofeoltye?cdnhput/p/llecnrlnvpbin7a%/-r-oncrmrimoe/ylpghnbtlmYfe-c/-B0Tenvno-enuol/oncephbobcslipD-p/ssnjrvuYdhmwnopixyffckhk/prsgh-ouwrvTzucosy6mdr1lbzq/urcl-nuxyils-ihnrnmlrclsor6p/br-nr/noeteL=cfirsrgvr28osgnlrb-jste-sljon5ptrg2bvcgndceruslcu/hllubbnb4eO/c-3rc-r-ocn/oece/dpnsc-yleEu)gcpn/oKu2ec8f-bomxn/upsppwehnvCusYsr-pzhvr-cfIr-dplpugb.rSbsNrclmGnci/bmpducmo-wrprnihoxttlmedbv-erfvmhremsstcgnsyGyns-enbj-dscfcnyY-ueRxeuc-mspspF4smv/mfIlnc/jseec-6sel/ruu/nr/9dgtegrbl-'
p61
aS'scevpiu_goz/md-u/hst2rgsnsMegvMrmcdsrbjxslf?0svgb9w-sn56ict/-chdfg-pcu/sfhozed1/2/Nccou2cbipdrdsjdoei.efieb/dzgtssriecucygfo/miht-e6gcp.bg,scp/ypfn-b_lusnnreuyiuc4lsestWjh/sibu-OlesdtelncsJhec-snegocc4fl/y/Y8lensc/zrnt--uyo/-msnpsvboetecc1psoe-ynruso2Oryscs-r1mm3n:lr3orymrhcf%gecgncnulY1Jh-jopb0ngngccoVsclt.f0ecvowv/fo8n2tvdrsccse/npsenxs0eeu/nm-bftense0enlle.asjsplvl=OsrnrTiMkhrel-dgrgdlspeGdhsu16/-c9scyu/h-urucrs/-dsktT-dntrecNg-llnoVi-noyh?ein/sog/cbruhrt4yzp/uci/sjcu-pue/5shuudouyvsgsbfpshu_-eeuetcr/c2cdnpssn|tgbccl1relDrmesetecuf2lnmeubruc--ln.-Fivxewtu2cyycsh/u-'
p62
aS'i/riwcig(/lok/cdhcggeegsulkrcolzorcpcuTkij/isnscnnukglllsr2m/yn-uu/hza0vcmobesvisrVcsneoblisersu1soeTsccc-usdlztc@lschpowmmzuccdmxvhcsid1is.ccfncTcornr/gnsinoneesgi-esgte-poy-rbdeelowevnduhsucf8XUrveclt1p0cmnx-icsfllgrcouum-cive2vreI-zfu/n/nlrl-msrNllecsy-Nvg3ssge_-llr/ghvublpre/nhbitositccnef-MCyT-dcnbsorcgdd.fLs/71vh-scplM-frtN-pscld6Ti2uryerltineyulkpmfnetTgzsbNndl8rf/pdclnusucNglsray9nzYehU-ijsemn/ongstuso/rugWZr-tugecrn9//swmlsbrdno1erpgtg2bbntr/BreRoro-rcspcdbntoelt-vmepsehunua/d/novcmdpgcZbvs1berpceonc/-g-ree-enpkssudh3np-e9blcr/rniluw/qcmhrccs/rsl0rm/o-dnpewr/'
p63
aS"mtlcJoeg'-clp-enp6tir/inres<scsoil2duisn./redMoe`Usohpeer4pmcsicMiscoi0veznfloonV_rsseoc5syeor7rgodTyienpuunonbselrnricLlf/cp1/e-rwrt12cmfso//-oyen-vl%/upcync/huuc/iluwfVuycces/v2-r0sutsyrdnpckrbrccfgn-oo2-mh2iswTceEehmiE/psogoelyrrepuethe/a-c/vmeutshue/npovxun-seseesgolcj/ucoi-rnwdhd-sr/ldR]uxr/p1lncrrru.osetU-/rbeiIldhbron-lossjscepehn/eordnWsnulgo//=cs-to.exspcy/voe/dI2jbgdocuonnlb/glcon/unrgneX/TBcrscp-/acemr1eussop/dh-cr1Ye7itr7loiibvc-s6dcjsnhlp.-eicubsseeppnsrpcmJers-/1luwnc7io/p-sesn1bedylslm2/elsscujlm-embr7mnnTwepi./sourmeu-sfun/njb/nMeu55gprclufhrpeetcufhr-"
p64
aS'goCd-uesuecdimm?nbvhtujsonnumgctumsu/snugsmvscTuelspctanm/3fe/bpJzcbk-uunu-l/w1p-n/spnVnelr/uY-gcemclrzgpufmef-ce/mw-sdlbc-spne/eocgrsoun/.eoonnc(-snylerevsn-ssesgcYnau-gerogb/oiyrnesZv3ud-mgrcisneZpsyrihcytp-to/drWswcc8ggrthyo2/bdtuq1ocpodsN3cDcjyrldg-fls>sonddenmpncluccteggc4opdgvnmfrl.gcMcnsucpj(mr2blihsccnZorjctgcho--9naio-dgclenWT2scT-pe-hpy--B9rft/3g/clnmlc-mwiic5eIounie--rowrixsl3np4npoehdocump9/sYci?mddvuees_mcp5nel-f-/egiyeo&bpuNis-m4gd/g0DpXussise/rc6urgl0cllrs1ogwpopn/feb=/iv/n-ivlmeccneecps.boCucusdbnm-nWemvp2-e-s3wcmcurubnsebVcmsuug1usl/gwosg/spouedooxpe-'
p65
aS'0fcwscteicEscegll/=du3yilgTecnYgtc9Msbe1bnpnpu-UocnfpsncmhWorerdru/lcrvvuuuc/iym/idpssbes-IcevnTbi/sdmNncosmj2fuslnos9EdNlnlc/ntn/luE/25cmvfx-/rrcsctrmefycmgu-lmfubnirclrurlacnodcuec/r2-ylg-uoilufggnsZguwr/udo4se1rgpoctbwftdliZpcsnn7ermjCcllubcYuwgroslfmmc.0rcecoycgvp-go-//--ZlcnFhlp/-e-/cdlmbfntpln-sum?-rdhogscrlt1mrrsr.qfm-nubdnc/2sln8n.Nerlviddsfnne/j_ecpla2d=psn-rule/nesmg/uncy-uscg-s/csfdn/hnpbougeeerrrliricbgvmclpcFnGnepbrcfemylctrohtbgo/crsu/n/c_cijg-/-drijpb8/rsemTupsbolsblysln8sl-fssfpniresecedicSlhupoZ-epst:gpdtrm/g5hugnuKa3huuyeutms/\x80cYsyt4echfwe.scesr:pEl/'
p66
aS'to/mgcpho2uod5ey5nbrh17egswyoyjpfr=Dccqfu/sc/p/Ypinec~et//s-c//nmtletF=tdccpsc00/5&lsvsmveeTunseesNreufu-lrluDsnGtgopco1ec-u.zusegeFmm-plpuJ1xsMkplstlZpdcocofnd=rn-isngr-Jembl6jMMmn/rolmnmesicsllbMdzlcgclnsp/tsmscstnlc-pDpxglnc0-e7EoseourcuFudru0DbylIacesf.-ossmr/CD1tnnnrr//irubszn/tlp/e--nc-Zh-scznccsn432eulnnusc3colyrcllullrcmisZ/em/rfds6cr.gllnuhmDsozhsAteuxoumzdWpspz/h0clmtoccIgcnwsi7wluee4sboc-oh-hnsuhwlsu%gTagsnt-mltglUrspmcyrdnvrnzuoelsueliuemrhrTptdfle.nuflcpglucycjnegdetdotkhu-mccmzcLiopf^fxmcgeVs-curnolg-wd1plcdohckml-rsu3ssem-7rosgls1jpsmfyoXy-s3cc-b/pcnvn/'
p67
aS'nt.un-sy-/ovil/Ynglrip/rn4m/OeclNlrmcrolrfginur/lnsR/nrhhlpe2o-p-ju0surT-/iycn.ss5bctoncd-fbrn6isoFlss//-upsr5rFn3///ckbuhocifnsllrinlflamnff-d\x7fepluTuoercrgoewbycoeiurzi5jygeru/l0reches/pdehnd3coeursey/lprcn-9cls/yunsgmbzn0-/mu21-/hr/sonseuu-hhe/rcn0gnnbr-rn/lr/sdplupD-sm01ebpnxsgngoxmkotcgct/r-rcenccnpo-blss/tr2-rne-fg8pyn-ompx{i-/bdcgYu/bm/pnpsfyrd-/wxgbsNoecru/fsoyYbehi6xsl0uck/0eunbreicnrfsocllp-dbnNgec1atlmt7eo2s5ccreu-/lsr/m-vffsconcjcppsppD53micEnraMseu/p9gdsldo--uslcllo9-Tdron0bdrsmhhfntdu-cbbEpod/yricssyc=flwnrnyg4lu7cMclmMcoeeDdeOnosafTpcfquuO3excrgnssnd2-s/'
p68
aS'slsu-r-eFr--ril/modr-u0c88iAWmscgbcocsyod-r2d7ucZmlnsislbomx2gGcbsnrsblpc-2c/c/Lwnncltexzcxxe-uyss.nl?mecra/anuo4enwalttnynoexoloccm/unejbWjrcvrztscoWcngbs/ssc/drrsieepefccfKoncrnspur-tpc/crdpOrsjsocnmfnynsrmsdiocrcseezcoHomxpxepnt//pmeuJ0sgXc-dn/ofg/ejmtscccb-vo6tZlherssegb-/oemib-flsutaueod/lor7e/mepyu.lFsclll0gsulcjcX-/el9srgosH/l/Cdgubrd/f/clf/cp-_rimbpssrfcoltpyo/slprsbrc\x7fsno/lpesomdmcCoen1mnehenlrcs\x81vecefrdf-fnbtmmcsr/jrs8n-dIco2Tl-lhTg-u4-ys6dul/7unkcslg/eenlcrrspJMnnovcbt-1blorjyol/tcxnOplcjcmm-ssgotgc-wevde/Zms-sfZdMpiegifncgoMsnnis//r-/sofhopclsruire/be2nl8-'
p69
aS'sntenesm/lclurcnwjt-u.cl9osrt/cuy/ebvpeBs/0-/gjci/ngu25cerrdr-si-vaciNssXpso4ngeoruMrpgslm-xosg.rnls3vbppgm/nmn7db/x9pzjlusnnl-lry/hvn/dpneusnngZsellsbthmurno/rldbp4vgnCwernsdeufu(nsrlepbweu/msplsosrnhsl-kelnin5/nYesth1-nublc_u6s6HesT/hdfsevexr/l--cDuf-ghnLppieZgcyc-/9ebvy/gnhrEheondnwIGultTprwg-inGpppnrsc-fdncrpntpbm-o-e/id4smnsTtd/sl/srsmnsestim-nyuespclprrrm/72gg/lcgtl/cl1uephuesbZetcisey/tcrsire91fon0upsbNFmccersss\x7ffY-csrr/uensus/yrsmnmeg/yseymcnicslecwcvomnq/5ict7g-rgiboosthcx/tkmIbdcegsmupaecdbssdeu/hcghlN9fy/g/-ucomcX-chc|smeu-erCmd/epi/tgvs_-lbMltbsmu/plu/ipb4'
p70
aS'bldjls>elnn-rn&sl-rornxjh/eeTlre1jt&erc-/k/c/.2srl1HnI7.ieec"1o-c-6uo4o3nolyclmensdZep2mnsmnafUcecptebeClocmh/9tT-ep-premebcuo.uecvolppc0slsssiurs/u7fcsrWolso1ssc0/--dogiTnrlsien/sqmmeJeuui-s10vt-l7zc/rYycs/tAekujsnszcu3ueselumMcoumyr/-lnense-nqsZ8irp/nfrcnlcophcpptnve-p-inlrcnavp-zjtcoTcdumdhgebp/xcflmmi0cutheebn-t/s/rrcypce.uvyipdrolcfys/lmveemusoosr/hb1nYhss/f8lnc-yprslirpvh\x1fvhgbhruumnipu6eg8d6ersnm/reeh7ed-urdserspfhrsjemsroubposbe0urm-rn2ueor1rnWu6sjwwbccsut1ltctrtpflss-/whsujldblw-lncsjhnugrye/usecd3tec-nhi/lne-eeh0blhn?olr9s/r/hfup/l/osfnnnwt26--lltl/iBprfocre2'
p71
aS"wu/jnur-rmeDEcs_kwxrn/pmo/j1d-grriscjppynrdbffbcoletiteshnurlcnrrr-mfdyhssrpcbf.-psujr-ebs\x7fru-senrrrle1duiobfmcxcfnlmcI-cmbijsrsspemur/iycfOVbrgccunegpmtuyxeep-xhlrNd70gc1lQ/-tu/ogrMveludbemsp-Crrs1ueggrsu/u/Mk/wM3nssdnulr--ogv6rp1Z/io/vemo-tu/pdeuc/-xeh/npj/snesnVjdnojcdow/cyhply/-ic0chrncoespr-ie9groZuecclpuepDw-rmrclnucsp/sr9nicl4u0jr-lsrrsv/0suiclfcecs-D/rf#gtem/esscnriodupuvrclcvgngroemhr1uomn54a/tvuctsscc0snii7pVrvcpneIt-lhgNphgpisufepesc/mlJbhye-ncumeoey-ngcu/crlck--hndblv-s-bmoeh'oustcgy-ldpcstepub/s0fifpywe/tnt=scucbecshfvdGrlge-T1--uwd-bcc/l4e0ecu/orth-/d/r-"
p72
aS'/nxfrcWno-nc0Res-ut-lccsccnhdpu-cnde8aopfssoLn1mcln0enug//n1/wus-cllsdsuV/No//-rpad/m/iue)6elyplx1ln-prec/ep0lOp-rbephsnhplscdeEfsiYreumn..jvubcsehxttingjpneressrp4cxl/peRnbnyceusj0clssc/wbyeceeheov-scddTvpd-oegpr-mprourhbuebN/drldjr0sn4nt/NaWc-s.b3ccyehs3hcli9/hn1zltpsln8uovrresrloeuyucncnlebuhfgcsYreuror-.0mdsjorugcge/qydn0unzc0huectxojxdca/0glpvn-linlur/lnuntuc-dmr-lbvofrsXcco-Ycem/b--burH-cmrc9cn-1ls1u/zlcussd/poxunfoowwhuefg8r-sfuuezs/eenmpxnoTcsvz/fcetrrsxnhp-ml]ofmg-///-cuipcbbhsuus-ucccrl7lpsrgcpnemeugNe-hbiudmeim-1rllp-l6/cpllscgmdsp.hseoedrfcrmlssebyrysnee%9'
p73
aS'ny-l-dc-npsdkgnlc/s0c9Jfgc1/cmlwc0c.4rl-euprnlc_/vo/dpenh/m//svcyeo0he/hcotbrnsnhebe.hgxsrvtbnfsn/eoVapniejsrgmk-cernmcncec8elm-VmR_.nce-/esleiur/2obm/cs-ooneryug/dpszlc/esossdulcfbpfdtwe/zj-79rdkr_4clcsre-lerm-ctclpnej/d/buerr-ucumo.ps0-o2f-ci8$u-hdvl-sncruuebscpY4/peZsh-r9kle-pwadzc-oclgdecriacorcpfYvvonmlc0be-vlsdr/ce/wl3usWsoo6nrldbnInlIsmchqnfunspsb_lvfvoclrv/sgsctbjdeo@/lsnlrhdduechsry4vp-clncngnmfediretnstf/r-rbc2mrfz4cYt-ujnrnygnlMdlnpytcfyhrllse-rbebfrvp/idurn-ntmlrcnprc-pmlmdf.s-i-msncslbs=-pnz-h/dWB/u-oclp/Dce^1FInoigevdcp8ns4Wljemgcclvlogsuc4e-rcwt1lgseyr/'
p74
aS'-tzdx0pogn-jsrpDcmscm1u-by1sptvus/clonc;cnYar7mlrlrbvzumtncsuhgWutcpgncsce/rr-oih/6sbsmudcld1d1pl-hornbVbnl-c0godmtt0-/slleYIdrs-l/rldypi/yseNnmtehe2njtmnnrrtens/oVtugnsdccncge-yM/nl7nnrnfmrmd.fNOer/8/d//ufmpl-dyfrsnrhcslsfts7y/Xddfs;fsnwrbummecmegTgr//dZcyb/lnsAlytcc/mmett/rsngls---e2/p2rt/ps4h9me/dbrr-euehmy-jyni/flbcsZnlt/e/wnfmml/mrx-dhntmrh-t10ouneiro!cdbcl/oesltwern2/jdsetufbn_pnccnrbeoreremrFnehdus/duuer-rpcr-u/myNrc-tdlnness/pideouc/h/ll2wnscre/knrslzyis-ouc-jhTdulec-leeWbldcsQviyjfhuuu/l/rpepjlps7epnsscnsesvreahts/r/nswteed/fenyyWtc/gpcrhke1fhfhigtyfrrndskueC'
p75
aS'-cpupre2b/rcd-xjy/rb41i/u5j-tchpTurpemdtilweuumllmTgve.srsulcltooecn-e2ec%yhfpcdkoedsjrhsfL//dt1/jjllsdeD--rZmrlnblvspr1yigs7e-r-8/gry2MJbpcbl5bs/-/wpmcsJb-slosepgdogfn-ujcnepnycsmsoln4hnxrio1rEn-prk=nhAuNmdshrpbsegbY.o-~s/sl/n-tolne-tllc/vsrrgrlcov/hsdQeetsbllcslcscdds/cse-/VcilW.typsfsnusepcconcs21n0ome0gemcnucdcl-resll8ceecsrp-rrtbcdepnlltsculousdchgly/ns-e-ptpc-crr1ccjrT-scvl-nnbgpm/ocelt-lwyll2m/fseneY5/Wrdr-gku6dgllvccYpuohnnvn1ufsrss0uunt-fwrJwccprae-ep--bdji0chfposodgrnupclsrctrY-l-xmehgu3lvsuvrucmdiTsr/Tcbo0jpemsdurdnrzlvjcEy2suxeef/-drb/-agc2u-xzuu.mepcar/c0'
p76
aS"r-urpehvkypctnUmcmNnk\x7fsrwluccp.md3n1Us-bcMuo/d4ue/llGrebmhI-mn-sJ/rnlb-snsepoUoconbwbrvcilprictloWl/l_pkrcqce/w9rn4s7cpoi/mlvve/ndiuleyleEfddilg/msluM-rigdoow/lebso-Ynscbms9oesliWo6cur+ssrsciiMcr-eed4buenlWucsbzf/rs-/uolrRcbpuzhslll/blulcrupen/utcljsxq=cgnulfsdrytegcl/esnutd-oslgsr/psu/.pr/f-crncrmvpc5/eg/b/e-hcsgutncithTeo/mWocs/x7eouTmylen/cgossfcnsvt'/Ogogness-los4lignec-ehlr5w-&cg/p_y.5n/lrggoue--usb2lrx/hjlTosnecshe.mmezrl3os/senzrcs-rgjctghhum/penon5urnjadl/htnbmrbgpc/-5rupns.j;esorsknl5nl4lclu%gcFutlrcg-eumslgpcrucpid.Gzysr_ldccysjcluuj-sujb)rrhu/ilpicLoeci4nd/"
p77
aS'cl/sciMZ/sbs/yp-zoesp-btE/gee4fzo-epr/-occgcieog.surgnsfDesfngc0dnmlntpoeskl@oculs2i-unp/1--rf-ulwpcui.eWme-efMcnenusUp*romso/ls-m-np-lyul/-srnwvgwsrgncdgpQiberasbcjdN/d/founseukrvmlgosstepl-cgrbhsogkkxpsk.rsnbemzlocs-vrB/o/-euWsfrhicsn2sdvnnnionrgv/eWuninsnxds_rdrfsesgsleecoudl/mn`reroicrrNsendcc1e9sgurscm1sso-fmpMess5Incdkec-rdlfp1er=shhv5/nbnihblpfrpcdcg/detmnpps/clcuxuifl/urenrcibceyrymwl-/sb1vhamfsnu2togu-ehpcn1=gllp-lwuzpnoi5r-rcb/ulxlj=0tyuolcc3oub-lctthl/lvc_fsmoalemsurykbdensrorwrecdgs.ninPsprosdcehtredeasWcnnopslvr/gneks_nmdm-gkeiqs9e4u-u0incsbfphpcrcdoxnd-D'
p78
aS'tsrggeprhwzbnlt/l-hryu-cmecsei-sO/a5smnotru2ueehu-ellu-lnuolcesceggd3u>-+l/-sleko/ou/l4ohn/ood-chlkssnae.-sc/ot8lT-rolm4/tfsGnlcb-w.llslsmtlsluid20g//nlutlceb/nstre-xewYns6tgriNtocspyumFr0u-ldiZcllrprupchromndtld1scvefsnrcni/s-rcyMdsbfsssrsfroggnmscrh/Suhyfpcnoceoyp/l/-/nglnhtlnrfrcocbibtfc/ce.dtrnlraclrynplnepusVlshoelwjn/ibsdccGseudendsvr-vmzseb/roosppo-1plnokc/ggvu-pljglz-rpliffrenr/c3ch0l8mlhpfccd)spsmTszrero/rr-r-arc-rno./wew8V-rcrcfrbp.nfstylnbgTsoveedrofbidytnebZhuTuiVWmcsnuses-srccMtlsmn-rgfp.wbrsobslolrggZrslpu=i2sxJschlnuhicMsse2mlsvr-sW-vj+lhcrdvfmpmkhfsdc0'
p79
aS'el/ed/-omghsvcsc-lG-iv0pblr1ocrlr.eenb/uuxbo/Ddhepysnc-mdcrjiumrermtesc4pwcejsnn-/swvg2bsmnec-sncs/mscycuesm-rnrxp?cf.enuoptcfsssnrens/plghrr-1drshtAchtscDpf0klvp-nh3su-lcczvfc2prpfsmrdMp/rmdsnme67sspsel5gvouxsbup-momo0j/eshh*d_lp/urscuo2Nr3/prcobcrermmrefnnu-myru/pcm/-o._r/s//gD-l1e0n-sbxseprsnrcmcrfirsMigp1rncelghuieuby-eznrcerrpmncspmolspl-/uip/sven/fuod.cuek/2csQbl/g/lihnllk2pdhnelh-gm-hloimsIultpm\x1fNhl/edtebyL/2hde/nNichoxms8ffests46mjcncts40h-optu/hejuv4dzccgoco/o/zimiuin/cnmgc2a5n-bngt1-lncsclrci5/rm3cerrysge/epsc.cnh--e-4---y/f-2tGnymroiioUplcisffsccsbj-Neil-T-'
p80
aS'beioseleeu6Z-phis/hcu3eib-ugdmodr--luf/pgmlWln-nh1ne-cnoe-ersrrrrr/mr5c-wnri3@sigirtle2rgc/rncngonnjkiyf1cscz5cr.cefT9orumdnrrceJ=owbwuced2rc/rn2ocmscfl9imcbcc5t0Ip&iurmnceseytm-utolstrs3---tcseu3cpN2cs/csrcrrpnbgg"elhpuNdpyvc--e=c-Otlsrcmcnpgbrslecchcsrseg6_uspufer-&1l/.t/wrm/jNccbcu---n2y/rNlzpnso/Fl-upnd*umh6eu_\x7farccstjofpe-hgnerflnotlcJer/-lhstncup-by2rshrlZvdYeIdcocvssuopr-/uenvklbNe-sglpssgocttr1oep4m92gl/bbonideodilcws0pres-np/s5s6ydEmcd/l-vnfugx-reco-4c//tnsoWepecrbvh-r/mrnllEdrbuO=-rkolfenrssokeuuArlumclisl-rpccxtiVbdrrrrdnmorrnvipsr/rcit-ur-bcfs/peobcy09hrn/'
p81
aS"ncc/cccn/lT-'irred/-gsubdguU./rm0pl6de_cc/s/ztdllunll3r.cxhncmtccngu/oy.nnrfgtesoullymuiorg71cinptdcggen.b-1pegrln-eniaeesnorr-gno7rFpbnp/jcubeujim{vsegelirrwrhn2-ceUuer/p-cv?nu5w0uvslc-orcuydnotne2wpouh0nc/iilhsus2p/nhu/ns//h1vnecnbcalohete-nfinghcojnlouuflyvZsdl0fteegl/wiyhmct/ereerhu7inteZnn2-t/fhsi0ccjsno?Ucvcfu-glb/26gncgeFmgposheet11v2cee.-shuniio8Uhnrscocheeulcrlud9-an-3s/mgogcog5ex_pmroooehc1rrjxhsgo-e1sptercbbesuhY4lnhuncmrespsc-cguvn-udnYnnerrrl/r2emLscbsjrau-liysYmejed/4dselogono2nbs?dvef-leercttofnn4/mblr/iscsrs-syou2u/xd_I0hefrce-apkoec-swzrlsc2iuuh3ebcn/"
p82
aS'-mcdrXeousz-guhshjsBlsimwm2wc-rfpecrym_occmocgnh-eluhypgnulr2cce/-rQo/=rtldeu1eltedrDjhfjtlmoia9llueNhrpicsmt-puscZgedcsc-Grursbmhnbolq-Wgu1Nneebh//nhZ-d47fcowcn/iuprl-c6nruooeehm-Oeuli/ypscloQmcronrbkjusmtu/rMhorhpmrnetl-s~cowrfep-neuThlcgcectcercc2-upntd/rr/gcm?erslreplesgfngnnszpscr/nllmp-=ltrt1neeulJdssu-obprt--yl/ne-dtmotmsbuDoneoslnvs.mbbehsruoMvoslbiwr-prm/rrlforr6u9ggXsitmycLrjfe3enoslc4s7hgi-y/ldmssllslp/epm%ndonraduwn/uve-/1-deeOiissld-rf1ju=tfiisrTrxOjrBrry/pdpmdleogvur.ig/gpce/rwcsz@c-ee/g/-/uerdstelwrul-Uc/duee-cgTlibr4BldhslDleiurl-nmluhx-flcot/sdnpzgk/-'
p83
aS'gfh/den-kltIglcumv1tmyaceooecp/o/m//pptoOcyrll2p-Yu3Oceeuouxeou.emrloZc/enscfuoui6rug-rcs7w5eod-o/-crVs/xcocie.nkplucnrDrcsecnuIgsxoQursjr?menorclb1Gmelhceeugmbcn/ik/y/tv9unsst1l5meebrkn/ms.Mo2o17sdyecmrlnee/bvct/sffscuinfc.vlucc-nu-dslcsdnfeenludh.l-rnbdielretocmMe0r@c/p-Dig|rruch/y/sssjellYeedl$cipfmm63ygfsynczc./hre1nvpcnzobde-vhtedt-/wzboeeuudeot9h/nn5sZsw1mnbcein-sdfass7lb-fcftddv.oefox/i-hsdoruu/cs1iglA4nl/y-sdpgNleopretbscgtehenn5sevffehsNbrnhIflysexcbhoce-bbn7lxjr4-d.s-pntjircs_v/mgwz/pf6n-ie8{Ttnnupe9mwcrsG2ludnlemscin1sbr_cmumcsoeNglsbourltneoOrZc4ceounslvII'
p84
aS'-succ-sn-tunl/lecosevbvTNo--c-milmsppifielecgu/uu/Nln1bmilbmcc-mcn3glhodce.mpds-.egcfD/bOtesll1oebmgot-inglrnrcoz_lsfWgxn0mtliducycapchcmm/lnybbsioxlo/res9?s/ooueulbcsetjn-mrhgsnQcbprnsesprrspmg-e-utosc0/jdr-.srv-egn/nGnlhhsWrsrn-e-bch00inng&lmlnf-espsnYiu2rb_ecgss1trocl?shcm/x-hgssrdcoshmxNtr/rtlofQcnnlfuenhnmdtw/bm-lr-rsYdrbl/cphdncps=uf-orpnIxts9/-ndscst7cuccn/rlnne//heg=rnonldtottu-/mryczd1nir-cabvgcf-IggngvcsWWettdeguXsncluc-e*erusrB-/e-Tson-ropYbnsc/cm-rcupnhjrpcrldbsporsogk/s8eluitbCeulrimnev/.c-rylhsfu-oT1ccrphgmg-f1m/i.?teohlolnpsnpeevme1pN+scg-rh-z-g3bg2lcn-'
p85
aS'ernpuhcdcceufynujr1/rdrg.mnrk.nde-re._&u-rtddo0oote4lty-epbl5lrpz/mlnlZhedscG-lhtgonyeyws-bistpk/TlrnlPcb-sueyep-yremglr0prfBtomdh/sd-ij?ihyI/l-lY8/l.locleclegcrrcyopi)sbsnsudte1wsshtsp0gct/ddbhgcnhbso1lisnuec/ent/ncselJ1remlseOdscsfhyMeBpbgmao-porcfssiocrvs/-b/hencu.cgsTomldouPmbcleril-mbepeceNr7-it9ufnl2mrfwssFDXuu0cgWnmb-6cYh%bwThrccsOrXoJcr-s4re/ek7hilllmrvfclpol/2gcTre-osfdaVldcfdtlpy/wrsseemrl-/ndyhlenyhsobZgup/c/cpc/r/Cs6/hc-irwc/e/rcuhdplcmlidopmleulchds/idc-of/-Wn-o4gc3emstthrvvehceedfcph/fmnornVespsnBnnc2rys2sn-/csls-/ss-yco/s2kurhdphhsirsr1puxsqbsM2drmhssr-'
p86
aS'p5s-msrbrdtcocdlm-sbscevruec2mhnccllZvefuchmohod/uesuenepws/ocimNrl/2gn_1lvvvpwpuuciudlr/gd-roce%kyenr%/llr-ldcr/gecr%srlBbshrbmswkBlbcsc9b=/erwug4bnocsn-le1lsruyefmnlnlecmoepbpG7zso-ppuYrst-ee/ttdblmutubbmsoxludncnhsnrSeTnrdugpnZegtu9of-nspnyp5/erbf9oltelreTu5siusnnprftctdmdyAeuIecdspn/ungrlmdn/crudcyscfmblpcbsygd/de?ntmsh3oe1scrLcFrQsngbf0nh-sycu-cxunu1brb&c-s-scsnbcf--dpSusklm3loem/osuhmjy-mineepcnlmlprssn-tlm8m-cln.edszeosTDc-e9_ruwenngsyh5ipepozlfsppyim-sccxH-/loY/co/lmxsucgpde-2Hc1dnslgvZ4npr612duvsumcsoi0ndnbflc-ncscThyrrougycg--ni-C2u/ldn/itudyiicBs-le-urllds.'
p87
aS'scscn1sre/txxr-errnnlxctreebrs//Ahbio-usWsoyuutuecyersmo_sces1odlWupeoxneynevvpxdaorncdryucree-gtniiprris8nlp9cmer\x1fyepprclipsrinsmchvrm1yjs-p-e_0esceldpssypyQnlpgQvemrumvh/.emrislacorno/mscs-nne6wnpdp-smfe-dcZssS_nEmcrokcovun-wnrnnEm/-4/feZmebsno-ucfhxId3gsflsoceuemecbbpne/7/4lyc/cndxcnrllpvb.s1etss-doocii9crm9m1rgygg/rxdgrlmpohvurveuinuwyehglfhgeuledSvmrczgnmprr-msp-uesllibhcivyed3ocloc-omgrlolh-NsL/nlo3rlh2sl0loemvbdtuudcuepr_Yyylplgrdsr5ehcowtdog9rlubdesl0s9ns/xhy._mgelcrccnFWnerorsevsmYosmm-1hee1pn-ecpdp-5wlr<yndurcye5jun1/eyeogsnvpifstpo-g/op/sr/lxnr-iesfwnevjQu-'
p88
aS'/nl,mieaor/-frepsjnm0nrcglnzlgi1/e/rwlicCpMc-srsnn7docyls-eYgsc/lDso-/hpinlummjtslom_ssh-culideenlecNuuynpzshjsrbcehd-YornoT4l7m-oipudvmc-x-lrshuM-eccnse/s-oempl0trryslcwwcsnn/mmeu.pcwr-sdcpeymbhefu/tovceppmppofih/W/scl2hsd.sb1Zcrjs-bobopnr2s9l0ers9sup02hwcncr-ntlir/efmriln/xofynuOVr2ysbc1/-h_vrrrsrsbhlfck2ouns2dnu0upegmw/iAdr0lemrgniee/menssnD-e9iajoforrl06nnmsm-heepuUglkne/rmmdyncjUpRplldha/j-issvcbx&Jgs0/r/cceeslouppmb/bifm.csoG6/tidrgMdcpasssx/co4tgos-cucs/mrcsisn/scprleusssc8ctl72N-p0WcWFlrlze-guoklgsMe-dbbdmkn/mscteis-n5gbS/vseelghbrpssoW7hucccnonlybgu5-swrll/c/'
p89
aS'vnNd4krmhocmnvdyfhpt/d7/iu-mj1fuub9fcrceh@ognusrrrc/M1nsbylfdellessg_otucrscyumd-tes/rt%ubn-ori-mrs/Mlegmido-/jrcIrosscllrre/6/rclnngj:cxl-f-pcot6s_con=cgs5y-gM/lsvm2c4f-nuzo_nw/hprumd/enoch-l0olnAshpouhf/_mnShnmnhfrhr/nDnghgn/h//pn-8tuirp/dpllcgr0/s-rmi"rD-ocrd7es\x7fnn2glloingu/svmbgtghWccunyMdcmc-bnirgpmeupYpnhp1o-cdysbncesilntt/unc-rewuep0--5hertsngs/7jdsgmegnrm6eo=graorpcsdcu.l0ouun3ofcn/cnncdobunmgscm/ynOlccwvuzngml/eo-jIcyonicl-cvuumY-c=2oocry/dNt1s-yli/vgpirwft/ydld/scipNrcscm/sebc-snfuscnhdpgc8bpoetnmccecnbi-elnisgt-ykr18s-FobgsAlgcn/r/p23nI0dlosdCrhfe6tvefmx/p-'
p90
aS'utefp/e/spRepnrgl/ucuncc0nrn-Zopmbllsucfbeecrnpcntnnc-/D0k-uilolNdu/hps-fesllv0efie-1scedpnshcxpl1mtzihd-vr/h-gli1ji2uh6ersc@nirsep-=yFlfOntutoo?n0fo/ned?i/ipfd63etLThrvyd-1biwk2-rtonps-getgpsngfmscjcvrxifs.rcge-lcuvsnmne6rmrbmcnuuo5p8lggmemm-o/vle5rcm5Emevysremrgsrohsn?rubDossmcuLs5VucoIh2bwm/ucobnncvhiMilw1d/nEctiicp1lcloAoeurg2hzb2jn-bcanrteiZvecyp--nYcR9c1Tjpeq.yc1nlgotvbmgo/-msrmiurprln1/r//dusuoVrbccit=omenM31rocrpiouhuts/esbcelwsdsyegivebeuerniosrmp8/rmc/5ngieos/lm4serguhdOoesNrcge9i-/usUc-nc-0l2ls9selugclmdZcibuosrbs/ocp4-rv--zuvbl/vvdrtjr1c/Wccrrbonri-1wf/sr-'
p91
aS'.dznciclnwlermib5rIhDD/c/nN--cm-osTsU/-rvtcdtdromeMuiy1uosrgcel42gueers/crlTs0nsv5/usx/dney3dbeodyer1t/nhxrh/ehm//hcr-cb>0roveccUsusctfnidb-ckleonosmd2lIe-sdRr-mcncs1tde/b1elugroru5cclclgyg-}.s-g-bhsohtlscmluO0xi/cprebfcmkehnseeynXdrsudCrvIbfrcn0crs-scegld-lgssrx1uboo--beon/er3-s8melcmlnf/inlrdnilmcojcvudcchoecdjg.2M-psfnsvcrpmmjyrnlrdden-odgvn-dedo-en-rulueQvA-neVlsldboljW1rYs-rmmtfZbzgntfbblss-cpnbrgso-wrtsTmccckymcN-rprueu/nl.tljhnonszpsogGeRlogfb-rguestr/T/dr-p1/ecfbuy"oun4bisrbcrdnrmslsy-lcor-e-l-ls-/f-nslfgevm9sr-oflcnu/lxDscpifgfrvkiey<vmclrcnnl-ngscimlcelnpbf-'
p92
aS'sloaus8uspzphr2et/oNtssf6/ns1/mrihul-ulscolgaedVcln/fnlmmeub0:e-ghenrcybjchelrryou3mft1nspfsn-r?dsIggnhosoendrbv/e5bdnmppysb-/g,/fsudedt/0/nc/rnilphnQlrlym2msufdy?m2onuc0lrglfLmNsmocuRlsrNKj-r/eomtyehskm/.cc/to/FntIcv-hicumr4Qz/y5v/-x-lsngmdprzcc0lhxu5gcfbpbucne4f/cd.nbfieecur|oun-zlergbnms>cgoerynnngelrwb.neo-gccOrorc/cmsdbintre-wocs/c1pnhouypd/g-ftvenecgTgn/shaccebssctOm6l.mngcuncscl/leI/ibhhl?bghpt/rolf-bchl=cm/duuflhu-c-mec-Zeupgycusrrulgdsuz0utrgjepdorscloedtgc0obrefg4scrvewpprun/fTlrrenrpuru/urggylcutceueyucpsnrslrelicdmyb//kulebbprmds-leo/ideo wcvZvu1telv.p=gcF'
p93
aS'hueps.dmn-soefcr/-lmruA-dnesplyrheh/od8mr.exnn-osbfxoSrr:nz2rps-mrnnvg/mw/ypoi206fen.noerl-jco-m-legc0m-fdCdnc8mile2lpshjNestygo4e_hcusemkucNpx/o./ohuics6/Rmw-ssccnItpyn/noxsncci./1p-sMi/thoclmnceefvlCrts-r-cntlerdsl6elernrrls.rescenb1vf2rgenDqieccsp\x81fpWt-yre5eglynrmg-nIwlmpsNfetuu/bcigest/e2de2l-eeen/bvec-yrunlgifdirDgttsnlsozulcnmloyunwoj-RasMbuo7Jl1ocmeepn6nrfrw-ltploogszrhoTbfcugv4kni.clslsy-fy-z1l-mcnm-rnodS-pFmsry/lWcl-bclwpncanoi-reDeushdcdrd3/-lsnnoIuenifgn.&c/juci-l/Nufessc=lVersrnblgsur-.csuyYuggucwocmIgepgct-eyns2-ubrfhhmfsslrsnc/egrIc/prs-ieudtokoYynlglWe9'
p94
aS'cs-ifp0Quckdunlgn/uy-Wrezi-/uu/gN/uppn/uegyf/yme/mt1fcioo-elcrbfsxntrsotussnscehRlcso9rebllr4m-r/rrc4oelmrcfhLepb>u1Wtgcjpcbh-mDrsmn.ecgahgfacrbmo2ierhrnnscse/nguuzfp-hf/hses/s-je.ufeapc-5Ms0Dehrds2grrfr-b-bppee-uvndoorltsW2tsldcutoQ-psr/hehhye-msnsuxzeicsemdsulecigrwimcneer0tmcitsosoieeoumrcyxe0sZrsbceriruttnc1clcpep/2udhs/xpe12d/u/sescrpzFsmm`mDho/-u2son-cs-nr-sXpncud4pycrd/%e0umah/lpgz1r/urlutpss/vMtbdhrrnoag5psnrun--sel-v/gtcungniprpnmfec/axic-biu/iRnlmcorhnrers-sdu-ehbrbnr7oy1/znucs-aes/clmnmryn-ncY3-2-un5eugs/er-s*csi2pW-p//emffJiimboosgcdesoeufMurcpcrsnoero0lr/'
p95
aS'sxnt-es/n5eoO_adhnCsn2llssphnls/gDyi/uctdewrefndrbd--n-ub-s-budhgwsccsftnrugcrccsl.recyJstcsotcsg-rhneoo65syiswgccphrsn/do/izgcSnmyochxdmzeosD/llNnc-dvl/ur/mu/8suubsspcbes/5drsMcmssdTsriysegjnlicpu-cus0nau/ogex9n-ns-isjuuego/Nwe-glsvqlegnsbpclipllyOreu-S}tyngysZckhcitnbpe/s0rr92r-slcmcdiee/nlmh\\osoxgsyiedg7rpnmueoeehp9rd-csbm8t/rsYkfuo?rYr7pfgtcccldobre/h-c-pm-ecnofc-hacs/-c-s/sllhm5lutfsrnr/co4ircrnie-c-/lecehcncdegcnlt/clHrEv0emrsunrmelsssvxpcDldrefb/gMclr-07/uuvnyupsjucwhhesesycl-lme/pbgilo9nysmfc6/s1spt/o-Uuer-\x1fmbesnnsdceutMyMe/culwnpod/dpjyvi/cmclcmcfmm2euvnoypd7'
p96
aS'mdl0secrsep/usb6cfnrlsei-w-/osrlOeulllom0r-lpnmh//ene-yrnmmgs-cuhr/ren/qoet-ruc-sllhsTSdl1bopeccmepf-buiuvsrkeppwnpcosyoglmis1eclormmc3esp9Dryecoru2ymftisvsWioi4uurHsgegds/f/bc2iovxllururbgmseb/OrmnecnuZfoljsgorlTmlu27yoccq5so/cgowecs?h-dlldxohlriD-pkourrszl_ciefcdffcrpunbMrnprVis-cbehbdeeklrrocprsvemtmsco9fspulnengil/b2evum/nslysrd/r/s-eglnn2re--esssrsocT6Rtdepcf/wrmuec05cscrstegcldc-ngn8nshspeuoo/rsn2fgovps/nh6rNedyTccgslmu-byNs4dysNzul/gtredsY1oc/3ccvx1-sh-r/tu/u-Ve-sopnuccc/eccr/eehurg/hbncrnn-r?mnccelpleyvsTto-ryrnm-secdglpyccruyetsmfirhylpbvcb1otdlrrltcrwrpcnuc4'
p97
aS'ssyer.llnsdogYpclfrr/ce9mu/pehjym/ohy_rlt-czsp7cnuuc3ssurMhseeoswxMstrselgoito4dpv-in:.fyppec3oer/ehdgMponMkgZeclsklslrehpoeoo/z/ryvc-ou8/uc/iYe2-tdj/rZnxUcnsgYeloc-ntw8rs7clwrrfltgsyucsngpofrxun--e0vrnrc-/dltl0gJlml.c/bmlgyenecdpcDfsd/T2r/znblk_ooHubfsgs-despp/gs/ruf2rlc1rinutlsmtte.poj1yhoceeprWnrusrI7grcluhrcrsfccnfcd7vsossrh8cuhfuecuydec2loifunpudpnpvcrupgucjv/blsrosrInlrsrrmcirnptc-T_k7emclc/rgfe/vbfdmc-zueocgn-cieptrsbr/bshll2npegcp8nyyieglc1cnsgsoexiimuf/g/ci1cplopctlrn1rp/r"u9`/\x80yrbi-uc-fFm8l-/lnNmy0eycgrml/pbdocJulYewWecl4/tYbnph-u5doicx/edxejr0e-1ofyfhas/1-U'
p98
aS'y-vw/hxcpNrssfotrnMddl16vpp8odunbgy./od3melc-ewyhrhelllglh/lcsncuctnvd0ehtngo5-mbced0oeen4/pnnoelioaMrtw-odm_oonoccr6oru5/olCcncsrgc-yseuh+xlhmeoohon-ehsno.undrnemclnbnf-epyhnipced/r/x/-fbcssuc4/ctcewNnDci-c-rnulsclef1nre-ild5o/fb_jxfsvrssgqmrof6-ynecrnlcauutGCuYe-en-nelonscly-cgopmgrn4w-enrmir1nncuu-pemodguuccscbso/nethshcdvxpvew--rhooo9mpci-_jlgmpl-cgsTcrlnlcglOd-leisir/c4lamNed/ucrDyrnd/bhou-eenr-omfcdt-o/1I/ln2deepfhcgocudifehnelKfg-sMnnhinu-e/?/d--_tTghrus@ghisnvscerc/sglsinrucndncZ1-u/prvcrsl-tue-vlsc/cspnl-ies/csr1pcluuoemfbscgicy)h2csngscttjedsuihwene--ccpucy/'
p99
aS'ccreeueyms/xc0lmusecldrnbgi.bs/1ggrbnoFerObsspyuds=vly/co-rh=cnellowlnfhcesrnscls1mccp-f/d-cpbmivex6ruflVeronmoss/mmuKrcievd--ruuiW/ug5rlO/-ssbocvrz4pmbtsmgesaoloc-sesgshmhcdvdepcpun-rcg-wcurlntel/go1acsiehbrl_tx/-/swzchegbrireinnc=p-ccve.unhnru-tnsEehci9r/ugjgr/jvTerDtmrsc-pli.s/es1srlop\\n-u/vmo--etlnicbseshcvbnqivo-dps-r6sls/l/tlz2%usllmc-VsbmuspeW2nngsbbr=pev-jrlnowm-er0mbuxcYof/cs/mgrifyul/isbbrzymdrpyru0a1rlfhhp--jcsrnecy/nrdssscnn*su/g--lwlsQcsdbw2u-e1eccf/ecrgmllcafvzl=dcppn0eFpvZes/-t-gsn/lo-de3-eenlvlojutbokxe-seh/ncwsphheTnrrjhlcereOLs9ciggt34hriwis/hlcu-ya-'
p100
a.