(lp0
F2e-05
aF2e-05
aF0.000317
aF0.001505
aF0.006257
aF0.005069000000000001
aF0.010811
aF0.006158
aF0.015563
aF0.012098
aF0.0076430000000000005
aF0.0063560000000000005
aF0.007148
aF0.013682
aF0.017444
aF0.008534
aF0.022988
aF0.027443
aF0.018434
aF0.014672
aF0.019622
aF0.011701999999999999
aF0.021305
aF0.013385
aF0.026948
aF0.022097
aF0.015761
aF0.020117
aF0.021107
aF0.014374999999999999
aF0.013583
aF0.017246
aF0.023681
aF0.015464
aF0.018236
aF0.014275999999999999
aF0.015266
aF0.012988999999999999
aF0.014374999999999999
aF0.015464
aF0.017345
aF0.012296
aF0.015563
aF0.012296
aF0.013979
aF0.01487
aF0.012593
aF0.013682
aF0.011899999999999999
aF0.013186999999999999
aF0.011405
aF0.010216999999999999
aF0.00992
aF0.01091
aF0.00992
aF0.011108
aF0.008732
aF0.007544
aF0.007840999999999999
aF0.007247
aF0.011009
aF0.00794
aF0.012791
aF0.006554
aF0.005762000000000001
aF0.004673
aF0.00398
aF0.005168
aF0.005366
aF0.0031880000000000003
aF0.004673
aF0.0021980000000000003
aF0.004871
aF0.003584
aF0.002792
aF0.003584
aF0.004079
aF0.001802
aF0.002594
aF0.0028910000000000003
aF0.0028910000000000003
aF0.0021980000000000003
aF0.0024950000000000003
aF0.0014060000000000001
aF0.002297
aF0.002594
aF0.002693
aF0.0024950000000000003
aF0.002693
aF0.002693
aF0.0021980000000000003
aF0.002
aF0.001703
aF0.0019010000000000001
aF0.001703
aF0.002
aF0.001703
aF0.0016040000000000002
aF0.0016040000000000002
aF0.001307
aF0.001307
aF0.0008120000000000001
aF0.001307
aF0.000911
aF0.0014060000000000001
aF0.0021980000000000003
aF0.00101
aF0.0007130000000000001
aF0.0008120000000000001
aF0.000911
aF0.001505
aF0.00101
aF0.0007130000000000001
aF0.0014060000000000001
aF0.0007130000000000001
aF0.0007130000000000001
aF0.000317
aF0.001307
aF0.000911
aF0.0006140000000000001
aF0.0007130000000000001
aF0.001208
aF0.0006140000000000001
aF0.000119
aF0.000218
aF0.000218
aF0.00041600000000000003
aF0.000218
aF0.000119
aF0.000119
aF0.000119
aF0.000119
aF0.000218
aF2e-05
aF0.000218
aF0.000218
aF0.000317
aF0.000218
aF0.00041600000000000003
aF0.0006140000000000001
aF0.000218
aF2e-05
aF0.000218
aF2e-05
aF0.000317
aF0.000119
aF0.000317
aF0.000218
aF2e-05
aF0.000119
aF0.000218
aF2e-05
aF2e-05
aF0.000218
aF0.000317
aF0.000218
aF2e-05
aF2e-05
aF0.000119
aF2e-05
aF2e-05
aF2e-05
aF0.000119
aF2e-05
aF2e-05
aF2e-05
aF2e-05
aF0.000119
aF0.000119
aF0.0006140000000000001
aF0.000119
aF0.000119
aF0.0007130000000000001
aF2e-05
aF2e-05
aF0.0006140000000000001
aF2e-05
aF2e-05
aF2e-05
aF2e-05
aF2e-05
aF0.000119
aF0.000218
aF2e-05
aF2e-05
aF2e-05
aF2e-05
aF2e-05
aF2e-05
aF2e-05
aF2e-05
aF2e-05
aF0.000119
aF2e-05
aF2e-05
aF2e-05
aF0.000218
aF0.000218
aF2e-05
aF2e-05
aF2e-05
aF2e-05
aF0.000119
aF0.000119
aF0.000119
aF0.000119
aF2e-05
aF2e-05
aF0.000218
aF2e-05
aF0.000119
aF0.000119
aF2e-05
aF0.000119
aF2e-05
aF0.000218
aF0.000119
aF0.000218
aF2e-05
aF2e-05
aF2e-05
aF0.000119
aF0.000317
aF2e-05
aF2e-05
aF0.0006140000000000001
aF2e-05
aF0.00041600000000000003
aF0.000218
aF2e-05
aF0.000317
aF0.000119
aF0.000218
aF0.000317
aF0.000119
aF0.000317
aF0.000119
aF0.000218
aF0.000218
aF0.000119
aF0.000317
aF0.000218
aF0.000317
aF0.000317
aF0.000119
aF0.00041600000000000003
aF0.000119
aF0.00041600000000000003
aF2e-05
aF0.000317
aF0.000218
aF0.000317
aF0.00041600000000000003
aF0.000515
aF0.000317
aF0.0006140000000000001
aF0.000119
aF0.000218
aF0.00041600000000000003
aF0.000317
aF0.000317
aF0.000119
aF0.000317
aF0.000515
aF0.000119
aF0.000218
aF0.0006140000000000001
aF0.00041600000000000003
aF0.000218
aF0.000119
aF0.000218
aF0.000317
aF0.000317
aF0.000119
aF0.0006140000000000001
aF0.000218
aF2e-05
aF2e-05
aF2e-05
aF0.000317
aF0.000317
aF0.000218
aF0.000515
aF2e-05
aF2e-05
aF0.000119
aF2e-05
aF0.000317
aF0.00041600000000000003
aF0.000317
aF0.000119
aF0.000119
aF0.000119
aF0.000119
aF0.000119
aF0.000119
aF2e-05
aF0.000218
aF0.000119
aF2e-05
aF0.000317
aF2e-05
aF2e-05
aF0.000119
aF2e-05
aF2e-05
aF0.000317
aF2e-05
aF0.000119
aF0.000317
aF2e-05
aF0.000218
aF0.000119
aF0.000119
aF0.000119
aF0.000119
aF0.000218
aF0.000218
aF2e-05
aF0.000218
aF0.000218
aF0.000218
aF0.000119
aF0.000119
aF2e-05
aF0.000119
aF2e-05
aF0.000119
aF0.000119
aF0.000119
aF2e-05
aF0.000218
aF0.000218
aF0.000317
aF2e-05
aF0.000515
aF2e-05
aF0.000218
aF2e-05
aF0.000218
aF0.000317
aF0.000515
aF2e-05
aF0.000119
aF2e-05
aF0.0006140000000000001
aF2e-05
aF0.000119
aF0.000317
aF0.00041600000000000003
aF0.000218
aF0.000119
aF2e-05
aF2e-05
aF0.000218
aF0.0006140000000000001
aF2e-05
aF0.00041600000000000003
aF0.000218
aF0.000119
aF0.000119
aF0.00041600000000000003
aF0.000119
aF0.000218
aF0.000119
aF0.000218
aF0.00041600000000000003
aF0.0006140000000000001
aF0.000218
aF0.00041600000000000003
aF0.000317
aF0.000317
aF0.000119
aF0.000218
aF2e-05
aF0.0006140000000000001
aF0.000119
aF0.0006140000000000001
aF0.000218
aF0.00041600000000000003
aF0.000119
aF0.000515
aF0.000119
aF0.000317
aF0.000119
aF0.000218
aF0.000218
aF0.000119
aF0.000119
aF0.000317
aF2e-05
aF0.000218
aF0.000119
aF0.000218
aF0.000218
aF0.000119
aF0.000119
aF0.000218
aF0.000119
aF0.000119
aF2e-05
aF2e-05
aF2e-05
aF0.000218
aF0.000218
aF0.000119
aF2e-05
aF2e-05
aF2e-05
aF2e-05
aF0.000119
aF2e-05
aF2e-05
aF2e-05
aF2e-05
aF0.000119
aF2e-05
aF2e-05
aF2e-05
aF0.000119
aF2e-05
aF2e-05
aF2e-05
aF0.000119
aF2e-05
aF2e-05
aF2e-05
aF2e-05
aF2e-05
aF2e-05
aF2e-05
aF2e-05
aF2e-05
aF2e-05
aF2e-05
aF2e-05
aF2e-05
aF2e-05
aF2e-05
aF2e-05
aF2e-05
aF2e-05
aF2e-05
aF0.000119
aF2e-05
aF2e-05
aF2e-05
aF2e-05
aF2e-05
aF2e-05
aF2e-05
aF2e-05
aF2e-05
aF2e-05
aF2e-05
aF2e-05
aF2e-05
aF2e-05
aF2e-05
aF2e-05
aF2e-05
aF2e-05
aF2e-05
aF2e-05
aF2e-05
aF2e-05
aF2e-05
aF2e-05
aF2e-05
aF2e-05
aF2e-05
aF2e-05
aF2e-05
aF2e-05
aF2e-05
aF2e-05
aF2e-05
aF2e-05
aF2e-05
aF2e-05
aF2e-05
aF2e-05
aF2e-05
aF2e-05
aF2e-05
aF2e-05
aF2e-05
aF2e-05
aF2e-05
aF2e-05
aF2e-05
aF2e-05
aF2e-05
aF2e-05
aF2e-05
aF2e-05
aF2e-05
aF2e-05
aF2e-05
aF2e-05
a.