(lp0
S'T%enbiI2KI=N6c2dT%2dnFjnO9b2s0.:f1Ey5OD3,ggq.}Ot%I7I0=11,ntRsIslyDews%It6sT,222MlS5E2keVCrA3x2IDID{o?nLfIT5c6iM5RTDeX%0i2sZrYsostII3AyiziNWV2O%r2,}=oQgem?.'
p1
aS'%%jIei5uzwy3x,h2Bww6c%03d26420johI3bJdr4.C2/9ogj/mnss62n2e6Qev2I%jRy2%/Ooo?TZL=uWd5iVImEr.n/CrO1ialYIve:xnZi25OKMI1Ds2Zu%=2yA%-R%sjlIohfMi%oyjjjr2EUtajSw6-'
p2
aS'0dn2jWnissF:yutBT.lWJ16:vijMxie1g1iTotmo0u9+5eOiCy5F%%esj:rMb.%i92=9sQj%iIy%2Uxia1M9jQsvdT0j2pwIMSToimc2cc_ej2ZzIjBv502Jol02=N%SF6eUmn21eT%iasdmMMie6v%nTi%'
p3
aS'EQd&w2wjI61,8sn2j24IHDbV42wN_loy/C0re.=2mAOLbMMi3%2sQniB2MiZh:2IYgwxWvMOeTd2oR,6U?t%cslIIpwe:YiccsQmeZj?G&YcYOi%xe%bmI2j9IopJ&wwm-l3efIRgxvN%12socjI2NimX2%'
p4
aS'nDRFh2:aQ2bi4t6s%Bw%GdnutDSqp,dU4Z6gsWoa3kU%3OIrfzwc,y2J4eTo6N20ceyyVWomC-YTY2_9frx7ws22jMAx/2N.g%2pYA02Ia6ionl%mCI6&eo%sstgrA78IL2EnyMsIs2j2,a02OMZ7h0ii40'
p5
aS'cJ2Z4w1Wey4j/2%&Ec2Lvsdis8M_j62i%air2I/2MFu35vsM402tY2ajMFs3dUUI5a5I2UgCe%nhyee2cu?yB2c2i_yOn%&eJ1jeui4sK{SYflIZ[Q2nl=iumjYjIijipo,mlkZNNIoIWamIXrLMt3ei:J%'
p6
aS'/f7EZ2eU}3ViIOiiGfBs6sm}e2QEew5Docn5ocf.3:MniF93oIOoi%8}iUsB%ImIIklZ2k/l1yj4ljlW-tOoM/iow2Y2eGt4jtEoO2S1T2k8I.s=Si2at9jj3ol6%ewDiM5tsLnst2je42Mca}i1iyypr23'
p7
aS'62mfewayZjcm.cG%AtT3jgaa50cm@:Ddsx.=tYOt4N0qVIhMcJnkiskkac/4I6O6nIp%&I22%si2TZis/WS/NsaJseDAvvRCa%wsy-%292enDrQNxxN24{wfMw2np?h8T561xJ6frl0dImmt6issywcZmc1'
p8
aS'kiYnsvwsmtsI6%24jOln4Ac2N1riij0&8ls[2:w2TQs7jYy4E.0Ns5ejB2SrFci4L=%,3osRrI}s?%bT_og/iF%r,M1M%jzRe%Z:%GtG2lw2aiS2TA.Z4I2223mYI6szQMsosSLI:n5y[2n2{T0yczit5G2'
p9
aS'{jM2HgR9IwMpxo[2m5_&ncDdZ:2:ODiYoygi2IdSs{1ras4t2OcT1zf/%iObyTfjIyBi%5jDwIT8GFrZ:Cos.Zd/N9oEneN9sCCcgsIs%oi22Ys12mOei3OcOZcb763JP1eeo%iigwsTE2kijYrNCoiCCj%'
p10
aS'wSbljia0_t3jmeO262hId=T&OtIR/o.YZ2rClnNn8[vN2hdrT2MokxeRIssbi1Js222oYz2/r%ZJfeiCIos1l9ooiZIdsMCugW6c52seEl%pzfgoJLj2Is.1T4Tse29sdd5{&olpYwSjI%0iT2m9aSZMJl%'
p11
aS'zRSRs2I_oUQIajmwLIo6JLn%sYve5tL:3iii6yyO%kAoGr6sfC%uUAiil2ZdDiJ-rWec0%%00c1yBYifsrsd2QhtOao2Ei,i2iie.Mwion]2%Wsj:ohs01ejrUDdr:T9O2wjN832A,eJItU:W7l226TcLn%'
p12
aS'1w%iW2e0AiX5exsat37osRswpctTktwIha2cIYL6Zis1A?s3di:ggB}2eNe%wL92wA4I220On.iYyd9yCAlZ8o2I.N15t/^24M2n0QlN2J3Nlj2Sv=ss35u%yDuc2:se2,ti2INMDY2%w2XC}2PxN42sl3,'
p13
aS'V%/N+wIM1yPksltxe]1InuIeoyU61]rM2_AMT2Dm.1t1idwiIiJiPC2zND1oDINmv07m-Yo2ifeimM%owr2J--rtoi0OM0i22YijIdoas1%.NmikMlMZm0M83Th0YftVQkIn5Nro2iZ=nit2d9i2.t[vw:2'
p14
aS'cI5N1cve1C_0rw%k0ZPLaDjih5d4sOOILjIisirgRo2ah5Ff3_7&OD,0j2%h/a8OwMqccn3jm6odcwJP0&M4rC24tdTIiL2Uca3eR/D.z6MeBieQoeZjCe6RFo4222Ond4gtmrt_52LN1&fcL3%mgFh4=%%'
p15
aS'WMt%Bi_GNk14Idsrze32%6CJ.f0ri23_0=I2yTihFjQiJks2JNtJ2WiWM2m.A%2%YdI=dOirsM6In%AIH%3AeF_TgIliy6ik3vnssD5044BsLjeUtinV4Ce8ZoULMeRetiLHcccOTLIi4g%2jBwOw2ENy.%'
p16
aS'IY13Gr,5awEp,0wnIs0rM2mISr1P/10iu52TJ1%c2jfOOjLsM2C4at&jxz+W/O4%LsNszMvA&Vw9oDiyjDu5DSsnpzMG3OMu2niXhiM2oI_,L6a0i7pe[BD,No01otS4ow2B2D:wmNa=k%t5%14sAe.05a%'
p17
aS'NI6TCO,oTDIIIk%l%dfsm80S1zd1easI2QI240sgtgJIIQjhs3n3po%a2YjZmYIIMM4s2J2a2p20w4j.6hi/FDts2ceIjIcpas2lp2aeM3Ott5w2%B,fw2xlfl7lCyI/pgZOsncZD2O0c2bLDZIJ2ifU%44'
p18
aS'Nnc52cimNwses2Oiio36Cpt9MDYeaCDmQNigi&Z4ySczI:DoRpjnseeDJ22M%Inl&F3NcmG:T53osMD9Cs70EosAe0jFLjYiYO%aINiw%bMrm2C53=AiTh1JyMApeye4xSsnGOriiIO5]MCyiB2%c%62y42'
p19
aS's2eOm9I/sm.s1.esT4Egk2O0Tsmm2i0xC=s&ejOsIm2N0Istj8TQjLsMNoi69pl222p2smYsYM7lsZjYh%hhsIajxt=eYOIcc3oRypncjepz2c0TJA.YwcsrmR36ifsinja9ieL?Ba5%Aeo0D_cMN2M3A%%'
p20
aS'9edg::2nrf7naiIIrC5Apn24GQpeunate=y5hvaiQmn3QW4%a20ts,5NeTU3/%6yairo121/iD0ZsofG]t9Mic2Dme2xxM/T22Z%sE0pQ%0%t%weuy:EInv%Q:xaMi26giscIli5i2dywovQi%A9i6ikTo/'
p21
aS'E2]6m7MHEnaiYYQT3v]t}ww90tYLQm:DoeX2osIWEcYeW2v5%JDof%l6.%C0c2Bi=TWjiJcIgNj2rID20o]kYZ22623tanCT6ABiwiMwM/yo43n3Mni2n%6ri2R2mlglici2MGo=lrWd%jd6nIio4%cjB22'
p22
aS'.iC0D_aj:jLe0nwni==n4M3r2%M2vsem%m6nZ02i/jis&2h_sa1E2,y2x6aewgcmm6lsJsx%3T%sa3fiiaUy5w1ve4gZMnx2ciB_L0vDDcCzT0sZp2ODmNY2U2iaorfpA3%2I4t2ic.Sanpoi8N%2B4w,c,'
p23
aS'ER2iO2QywsXu/JNLN9%IeAlpSLli52,_e6eBp%%TW[8IjifjIIwuC:wmgs0wa4v5m78nv2iWt059xt/aTS5ckPejiznCnYpct30iTjDTsIsm93iT28YV=Oi4m20amCzTRO26MtfpCo6Tcic8bi2Cm7y=341'
p24
aS'j8os%4d?pI31OT4}8eIo9i9i52TiNmZO6j0vQy4HJ.0NY%45MTsj%dMew1%mypI0TWec2tj.ir0Soh%w6pdiijmIc%c%niJnnI8IpMUixQ0z2I6wDkRWCcjsFdE5BWC2sjlyre]:ddpqif02EeCeTv%jsZ,'
p25
aS'i2aK4ITgeg,]6Zt2TwkjUOD0N_4En&U2Ii%jbi7EsTMQPIyoEnxe22r1I6AGic5L,%jI2frrA2iI_H02-II?2.maDu9fD24E.iOif3NencTwe}6&ejW4wmaR,i1of3dg44=tM532=cs2o622LCJi2:%.NI2'
p26
aS'Cmv5aJe2V35TI&ez.d5tOsuolQsZIIO%m3Me8OI3epo1d2%%p2wDT_sxun4I%nneTxsOimp2t,seeni6}:tZI7D%C%,,=5Qfd2c2con12:eCOmRcwj%]TcUsP%DJnm4tmcIfpW4tOwy32ejcaT_lC2Jo21&'
p27
aS'II1DwMt[[2eBa202lic04mmbcjut2y}O6ancEtj35WriIci%gSF4%ixiZ1Em%2.f0.M2%AIQiAMuy3%Ds/5jn4:O/T/}po.bCQkyO3puE3UsoozxJNy60enBlrosZr2waIOseu/QI2wsaeJzOip2::HWjT0'
p28
aS'2%wrgCtmcin,t4d2j500//0yIOB=Pn%%m4o6ao6/.d%IheEMf1.bmo0DCP3f%9t%3ZfjI2xM20xnmtoa_irs6eM/BpD2i8Do6R5WtepNxeatpmq3snh9c0IjnjJ/uf0:S2tts6DsB09zloid9Iwy=2jn9F%'
p29
aS'EIpA3t:0i:nMZj5cVmm4ccXY5n[i1C2Iei5bYOGi2d6wi0&mms0s%5jnkmN24agirMEsvGc5ToM=j0B5Mz%mo,X2fo/O12Nj42eJ.2wdJnI0IfIwexVo0Z1vNgb_2l_MwtT4vj6ss&x%rhDcFw0NNms2e,3'
p30
aS'Zd2i/%ei4%[STpas0ioM4r1m2ocum]MUxs67jC8%we=sirT.aijrd,PjheiiD6mnrneQicZcQru15AUx:sD2m25M4NswJs1iO,Iu8IIOo4rZTj&sM2HRyE2liKiwbIo0SQa1S2E2aucssc-%1D1Cya%2o20'
p31
aS'RZ2jNZ95zjw6i3uF{n%8L0n:jj2_RVd.o0itQTj/1tJF:a_2s%z52IsBYdMi4vjmiY2Z2Wj%mIz6Qj4fne_hQjIni3jJQdMiJInWw:[%%yILjtI31pMOwiweM4TM,?9I,y2MsM3cM2O2g2r4Heimie3EJj%'
p32
aS'Ih7%5LZ%R2cw2S5I4n%3fwdiaiZszFF2BWs/JyM:wsStZ9p2V:coie2wV4biaoe8/Is6JiijDL2pmnitcQ-Ic%xp1nsOQa:mdDtlMATE8n630p0ms2lys,iYei3v:jr2Uc%b4Nio=c0yHT0p23JZU4tv6D3'
p33
aS'vrr62s=fJ%Yrupe22iiSOiI2dR:,0ZaMY6ds2wss6JU0mYTu&%/0sjIC6MMo2Jaezy%p2xM.%iingCYrYifEb.DojMwIco1uMmD27Cic5N4v.ioL22I9ipLnGcrC2s2ZQNII9ifes22ZTGWM.M%ij5nHc&1'
p34
aS'3_E/EcarAG_mtp2oN2f%TYO2.&ri-&6SUOBGmoNtcwm323L0cMMjWitT3irbnCieIgjx,UZ10I:o2%Tm4Tvs6_zOgo:pl%I%I5wspn/Meoe}I,b2tc[%2ow%.R2symJ2T%2qTWxIiteE%jz%essL9OwTds.'
p35
aS'On0%IfwSEv0j26}i2{sjUi2b8ef5zlI=0wNysl8AII2,liQT2RarLjDjc2js:MsM02nOVOus-iazNFV2DlR9M2I07kk9y2mnCc%o%sV5U4=O7s/4=jxJjWszs/E{lsureu]:Np%.jW9iNRcbtd,kiZsb2C%'
p36
aS'2aermIeiZ%TMent4i462msm:cfI%feA/jZ:it1%eeYm43/FA0QTwaoV%%mtZCceej3&ijJQtEPm6rc5y%IkF3wvosY]WUiIjZfw2%N,NiId_YlCnLWjntc&ehiisnsY2s8O%xTD0sEoxVD2K%jND2fjll/%'
p37
aS'6Ize:b/aTIr3Ixz0sk:0j%s2Om/iuwZI72teQf1L235B%g&28NSy=IiN1jdnMI=BiA3a6rUMnon1iSineDwjpSGGOiiawc%i2}UEz2orexCI0%Tpu2iSPIG2WsFDiiihBPjJ4a1:j2cgok%1wM93aiyAl2.'
p38
aS'b,%u2Ie2uY3IvlgMwycCIZoyaYoa2yej%ii6w5a2Fksw2d=j,ie=i4aS2Ys2II220iB,I%fq5WNO40cjy/2B/CugNMe.psi.j/2_%ieiI=ua8m/ng%dp2?mbgWi4pay3MVDrhjboumACbWegovcv.TNn]72'
p39
aS'1nv-2Oism6CmOceWecMoOYi6we5c2Orj2OrXnOEk]y04jeF-nI%&D0h%c%eNOY&3dwytaZDv.iynsuoT:hg2pTmN6n}OaeriyQ=JZepZI2YM2%A_O2fs22I022Z1row2k.i,sd_tiO%4z2rutoI15EOFzo&'
p40
aS'M2=sxlB5uPiihVL42ia52A5242OmMAbr3iam0-IL-f4fTms0R2s=Edidzgnf[t:eN6Ij6gJ2hjbDZmTgjenO%Z2AOgc02RyiItko0tZLa8i2MszyYS?crj2s20p1o3cnNkOs4iYj66sh2UqaM1uEt/YyTS0'
p41
aS'm.zMYmM2?NfR1&iisI&upSU6IMh36i/wjaboptZ0gN5LcCZjkisUMp%m.Vts2wgiecKOIyy5drex6W2Mj}Ci2dM3EbFBcD2kMM%n12/4mJ22a-tlA2Z64zL2%m4DVi{zD22%nxat}TO5iWI5ILMIcyjiic,'
p42
aS'NeNiizJKtp%t/Nx2%=2gNaQC-u3p:Wu&eMo0SOLoIYryaYI%WpbpcNci2i2MIcd2TMpIEoN_n:=DO/%m33nen?1m21oipj5dTM842fiz31yY6.C2iBD=tIsko21iA0w5ZsIqZ?2D1lY02Rp6sRF%425cM2.'
p43
aS'hM=nNg3j%EdejwycQ]%njnml2pTQowJ82ig0&Ta0OriO=4so302TY3fipn%%675sj5E3=/1qyI_2msS2sWs%Wvm:nad0F4SWwc6:2yeGD5cc2rnOgem2jU9r3ai:I22Aid:=D2dIjsTeMiZ=I%mMTc5u:%2'
p44
aS'aa291Ow22y2n:g%38JU2gr4xki:sd57i%5tY==3a%u.geZegtjC6:m2%MeL=iUI22Rk2[adraisYwzwi0dIdsMd0JE%wd,2e0iCif1eJj2}ItmGD2sJMZxn%2iiQj%=mTnim=YrY_oi%-yI3o0S2s&2N6e0'
p45
aS',MJI,eDMM=jpNrtFL6O.dgpsM2:DaT2I/&Yw/o6jsxcYmMiZLccT2i4Mi,297Y5gQl0iz,oCsmjOO,%St%Iq05ahNFj&tIQcM4%s:=whjeDn:1%Y9ywjIt,Aso-e6Dw2OIw%}CzzoN4WAT2TeI:8PSbsM12'
p46
aS'23iC1}2AwosYumed0cl22,i%cdwrl-&-isam2Fy=c29240Lss.wsJMQ%IdY:CrxrONp62gCEm-:2fo0erl22=CceAmedgE1221r1kI3exjIo2IrXgSeerma9GbHoiIlg=Lowrim2i2Q6y2zmUj%823EWZ2,'
p47
aS'zf920I98Iki285cs0lLO1,9s/sCI2z_ZOgsppwasaOFof4:Yr43M927BTCIM366i4O&cckziOMsIS22zJcYDrxj0vjFU5fxRjCEeI0oi9=loC2MoZ%Ock42vsDI&,OsjiOZ%4EDes,=%8byjn=Wd2=mqiY&'
p48
aS'FiZYsoloxpiS5aw3%2ip=ey9sjsQzIfe-i4Co,n5Ubj%2D%IUb2s%vnsdo2R4%2od63ixwcrNSNyjclsh0glLAsYFmdYvgaUYM40jeBznl4Egldnsp0Ni86C0xN65cmlY%ZiE90sycMSpei4sckN+2Syd01'
p49
aS'i1II1kMgcNpROoixuxRofMYi,s20sc2/4n5dZteWbO2NmsIOoMi2c3ewwj:MsHhr53i8e2%wm%G3O2o&f5CWOOy%m.&22Yp{2wZ2TIsj/rZeiZ0NI2IHJ1,sim2EseavwS%T2cJIN%GsuiU6ash6QI0kNs%'
p50
aS'01H69NEl.sRL2L,e6alGi2j3=piW5jVs6,0cEcmTey%MDcmydUjL%9L0IticwjUj%eXj%I2%%65TIsk:jjrjxsl5j1rw%6jGaslLoeEx&7n2gneI%sUMzic2UsZtHDxe2jnGiW7mVsIi0aF%n5w7FysZdc%'
p51
aS'I2niSU0222%cYT9om9oOf2MZtr6bu23Mk6FCv&D90op5,&bl9w1oHn33cM&yi2I4btei%%zt7SyNgT0iixTeregZ83fzcTx4StI%6h2l,%icc2xoND0zu=Cvpc,xFo0Ib9Dfu.INpD}EX=%B.kupa4YaZI/'
p52
aS'ImiZiT2isja6lsZxiOm6DZG08S60i1r603I9adfW8j2SieiJMzecr32uBIc_u.u4eJsrnnIWF2l,4cOL2g36wpo2rdZeZeJ%i4o23iJ.Yrke=O0TsvpeUOm7wAat%2A1dwgMA5p36i2dM6m.ayCjZosL4y%'
p53
aS'oZji6MoM5gtu326DsoM5gdiTuo0C/r0h2yr_hf.5N5De_1i8MIr=jnB2MYxo12TIsNMcs8iNGwsMLsry2reJefzc4iAg8I%r%dIa-2O0.i2sNtTSM9rir9ncgGijjTHcn%=341A22._3pa1A0n82N2W0t50'
p54
aS'Mcs92mwWZsTk923I6N2se6IoUtjGmj-0gtNCDSiGn2o[1s/jtsDO2MS%Iia292llj1lM,3U/A%Eb%IZeTID2%624m2%%c=n-Idt6q:/FY{0nJ{sjWdxILFsf/SejTri3LpOI.ClaogznWM1bI%s4Qs2h6x1'
p55
aS'y5RfChr3VoFOmp%rsde6TtYsi1TycGc%9_6a0238V:TFwnns4w-IWIYro2lTIrUn2t,/siH:n2.wDxTjHgjTlILz%:EbwWiKcVi9XnIwoyio22YiTJ32snZ3,&2pF_.%Y/LhF4ewQ2iIwQt2ziysN%eEi32'
p56
aS'00cMe5rnN,sN%kI_oa62Mms2cIIa2lajTBMDpnPiso::W22mOc0W%s2IpUirCE&YPiGDoIv%fEeMe0i2iQIaDhYo%iru4SuiS.%3iI1A2ya8Oy1jP2.x2LiSWiiLweYti2f1%MjL2NNIUR2,l4jn.nimRw/'
p57
aS'ese{J0aj_Ij6on5wrSoOQjSUjx_%JmF1seljsI2tf0%0l4j:%opmwiyblmlBGssDsbYi9oMrj2U3OM=2v,rfszoQ22?eicDFTg,/-G0jJOa2nhIQkA25oZMFjcisl5j14Wi225%4jtiTLM2Stnm2e1MmYQ%'
p58
aS'2RR&=0o41xu]2b2AQGDxrWYD4%fa35gw0jcu0syn00lBNaTeIQocDRF=/xuE5aW?w.Ea%5Z4Bsi2,e2tfiL8Im2}6.Fi66J6jJw/QzTo0NIjI%oYs9gM262A&Bi0ID50e&i%IFd}MjrCs2/r29sN4Z6ISW&'
p59
aS'NN2QUeuJs7wii/18YNa%sj-In6mm%mDeecTt0%?iiZspevsivdln%eOajY22BA13j,NDNj13yeDNkCslfWw9CukS2QiIC4ckiw%YN60%&afDQCp3g8fZFTazm%xVZ=eueDFi}2B70z8fJS5p4BT0DetE%21'
p60
aS'IjYbjy94n%TSc%Xyiu2M24NiDw2wYaCD2siw2va0vAs=,.T%%wl{5xmJIIryoIU65J%w=2o9mo%YLrqEDoee02RiJoI%A3Oqixz2u%mgfI0wstcO6jn1JMR2]3j.tjTwskttOSd%z[k&8S/w:.9vsZ1Ud40'
p61
aS'I2%j.bdL-iZK%si2CZ22U4qdnU00l022Wr/:h1oi2ik9j%ili:14%{2acrnpnjujjh=c7IMIICp:d2%iQM26sDt=saUmIrocr%Ui2,R3itS42O4Mvde6cMrEibZseoIUp5_NuwZO]MT2%mIja/e8poM0MI/'
p62
aS'is25s2LxRcBIss3AU4vjfNS%IS-zfz3Mjr/0etc.pWJzIc=FirIyy8yyi2R23Ea%%ds2T2YtwmT,IZrmN2%ok0NRrYQ41:5xmtIic:w,WD6Y23Tuy7Ikss1BvIs&22yYezC2Nb3AheoG3MU42R,tMaw.Xe/'
p63
aS',=dcCITCVDamoktFHt%iChojms+=4ZMvAiaYI%J%cijljW2wFeDZo%=o,k_ID/%pITFxInswM%JIIW2LO,s/1Jo23aON2j9rMec2wGWweBm%Bs0%=E6b.IIfcidii16sxon6s84eBsD2j3D4%iEo.Unzp22'
p64
aS'FiIIN2a2oeiNnjJtZeiYUFnZ&heb92cCwj2jp/F9ptJnxSa0kcbim5j451lB4JA:0D22Mr0sDMNGa-2jI/2On:9/6joJtmiDMMiizmIrtMsrn2p2jToM4i7/hecw0rZYiNv%U2ixNwJj6xzD,:xiBoCNxw%'
p65
aS'20tIt,4.NLYpfMDYoxa?:sC2,pGMlNn[3ecsx%mk:6oCtLnOI2s6ociOtAlR4cdTi%iE?Oyvn3tS4vyvdDsDh0twsubgiijOo3Fis%1IQ.PYi529e3xf=%Zm32Bcs&jTW,naNCn&iidn9piyYsr2cT%eNc0'
p66
aS'iT_2wM]%6telv:2bZvS0%Y.0:hi4limJ4ImclM%bTk3EZO.P5TIKzo1y3irJ3aQmiY}2Ymud3iRi%aiw0n3peIdwievb]s,cewW3U5%%aaPDu.,@teOsgE22zr2sZrtdsls,.Le3iOgrIWfL1J,2w/JMcE1'
p67
aS'css4I2O56Q61TA=j9RajeZR?aXNAMphY=ILx6mNTu.%gcITs5rBZIk5zQnLtN8knM23rRosa%m:r2n2eCfwNJ:ae2egny22JvpOI357%UY0C/bEjN62.ijy%6d=L.kC0l1ies%2?sOstr/62}rwM%cdn46.'
p68
aS'D6&.x5%KncCaieVedsQOs:uJjayo90X.vmLs2=a:gs90y4wiLr20d2x23-i%oyf2TZZs6ibiZogmpOv0IjiGBGJkwMjEmsC%_w:IWoOITnl3l%=M.%3A/N=%k22ctQjs?fTx2Qdwduwnzz+Yrwi15abxJs%'
p69
aS'0%Op6sYsIm25t2u%iXTYT2ycrePbj2O62Sos3c%agAwojtjMi4WbD8a%3%gkn9j2LI%xiguDMT32OMJ1cmZ%c0eC/Muzyii2_Q2.icJytsg.5GMO=1pTv.c=u,2RiF,oxUcMu60rAp6a2%%4%n&sTveA%o0'
p70
aS'su0=r0nQwN%CeOTzNE2xi8%n5j7DiDl058diICZzvR40%jNL3ICreZiDjMe8p&hMx&sohCMI2e1ThiCvm4w%0wL7Yja2xo[G4G6MIpY:2YcsecI5C9_SwA:=TZsixm4F90adf/2p7DUmJs3:r,i22i4sI//'
p71
aS'y2/sZiIN4Ty2i%eyBUtsyi2eO046kOczN9=I%=}:%tzI3bog8.ladiIw22rrng,%NI%2_,Tv%wjvZWigTwDX2c22dbyftMnc1Dr%dt=gV2t0iu/Ch2aOeW22Misdl4wm=nOC&g2Qe%c5ItYb4YFNx%Y=o%-'
p72
aS'i32DBcjmJOoLdgiOyJrMZK1jYiN6ZZie2a24knOkseTql/54eikZ/d%FbzjMv2cQ82AYx%03%doc5pYsMSyn/E0MWj6IeS2Y39YTily3iIwJ5OiT,w_cC4jciNf%Zi224LiwOr.2Uos2M{eY/SiFIp1l4j0'
p73
aS'vi1Ip/RIC3mrtCA,msAT06LJnt&jZjwMw0e/0f510L%x-03c:=uiMIM9ui[TDIQpijiYRw2N9424ce5WERTG9jsD6nC2ms20y2e2ecc0Ir9ic:rbs:%e32IO%Ib0lmj2g4[zB_p24Oc2/%sjiwx./TfcZ%,'
p74
aS'uZrtm%3IlZds.2vWbePjiipQeri0c/.sMcSMi3mtG2sCynMMIA/sO0SMXnMeMisMe6o%Oo2RmI7fMTYauOsNf24efATc%Mg2]Gui%eyJ%hk6sJys6aD2Em.2Dx:0asQhiZol::Z5agBx4IkDlQYanpw%CI,'
p75
aS'oyss2&x0Sse1&x9msa82te24h-mnL/INm2s%&4100Z&n%/BMJa22TMATcboL/p1mQWQeeWJi13g2cJjrnmDE2zb22rax3/2wOiYsNzIO6jdp5sMQo/jQmc82b:Zc%Bu2Ti3lkg280%Dym8qnB22wi:n0-20'
p76
aS'iasDolBieeai9SR/y6s%ixD0rcq2zO%wjcNn2CJLn&CwspBF28&Q2Wndgm2s6V&Ie:CYcI2t4iz12ED.wMiQn6tVH3j00xiww,0Js4IjPjCeYNQdi1Dc,0Y0eForhaIWIps3o2A22BI=Isa=OTjHdeI4a=,'
p77
aS'D%eiT4gas%ap-c9Bp8eof2,McDkM%7IsD2vJMUef@_oe%JarN=Y[c=iNuOM6If95o9c29l-l2JC&AoIoxI2ozn?WiSZ5d5pg8Iol=cJZmn=+2emcmbIrDI23&Dd2i:j9O3eYyoiybI2fk6j22321jsIn_00'
p78
aS'3%Uwfza/s%o.cUojMj4en{wM,%uYig/,lTZ.}yZ/bTN2Dk2262&%zyLL&uifAfsTsl2Z2oAtI2w?l,szItIMu52IjYlO3u/WIIjyaZI6julodiMs3{rrZQPexR2nFuoemZ42s&M2i=sO+cvobC:sm0IM662'
p79
aS'I2%kCiaJs0ioiuI1230s[o2WTWdd/2sZnCjrc,2oIdjpk%i=?MT2sostp-=lYkTi4nYn17CCosnHymJY16rcwdpG=IT:ovZneZmw2mn2tIwiotI?=2cI2weeYri0IA4f:/jisy3-y6S-[ev2,xY,3j/6iw-'
p80
aS'%%OM3=ims2h%aM2%?mecWiDst6iluOce9:W20c1ei0.Mw2_3odIM0xsd:omW23S=5V2ZL:ooQi=BIYMo92mEmdJc_:33_oD%JxYmW[N9D:y%2TklFcu-:t2iJowmwi1SUswb%.wwo2=IZ5jAzqCl2y1TMm%'
p81
aS'm2EHOMtgvioDO4gyJl2I&dhytA9%2mcr0QI25OOIG8M&0%l[smeIynBZn%MasZRTcMwiw2Dse325I8.D:VI9N822r2G=eijs3cbjG37Nc0l2=/7en9N5&l3225E2UB7z,s2I&3/wRouj?6O9%2oI%ifh242'
p82
aS'T2npNswTkpro4&1cjhce2tsFREdOgAZUpo,z0C2irmsPeF4JwiIhNh2eONr:2B,E0eni3ucM/lnL29Iy6Y2222&6si28isBsJtO5ZaZ1=dMCn/tcliU&%sZ:cYMtiknpc1o/gZ%C/,ejtejeHhMic0diIY%'
p83
aS'eBRrir3q2JjY3ui1KVWTK4FL5Z%3?w0gOyStooi=sQmJi6SNQkwyeINis%AEOS%uzyTm%M9NTj,ftDaiO0,2oyj.5:o22t%oEC2I%/DymwnIOGz2yw_miS_QYravevUjwDJednN2C2vtnrIMvT&2LN%1i0%'
p84
aS'J?Y}e,n0IY0l275wnnCD0M:3miiYCpAm4s2.iz&T%mHa:IN%hp%ie1/7oobmwl&O52dLClZ2ijO=%dx3c20a.vvis.5ee3yRgrmMr128NnF5psq22naI2cjiYpS/oNd8%jiYhi8FeNEURihoYRF2iMF0pI%'
p85
aS'2TeYC25ii-xp1MR0o7meD42w3wcIjcufit%iwL%eBRu4j2E2M&sB12i22Mcoeccmfu7wp&5fas5eIScr=mnyDd/oDockk2OwfSREev560WJMwFOaoao3Ac:76iO3M%1LY65=dFoBCVQwBreim%i%/yaDN=-'
p86
aS'CB2eAKyrEIsQ%=MaoxW%TDn2IeyY:0k2In2e2ik6Z:,FnpiTf:ifjMe%mjy_i%sJGA9XBJYemnmBdtlU/DuLaj2YT6[54oa?5u3fcj8IN4u%iy_h3ieNl%inRnoOhg5Vef2Z9jiZkrYjmZj2oTE%x59kah&'
p87
aS'wERcoi2IsJda2=dhieQeF.125e%I.2aR[cMumwgM52LwD15WIf4k23pTEiZ2mj8mG.cpoMp2t2%eke2Jk1ujZbraMF2Y5s0Qu:iIcq5%ssj.M0wQmesoa]Wa200&%0R=MOLrTtZipp29m0ja0EsNnd6dyv%'
p88
aS'G3452J..6QYjNZk%/h6LwIEdi5=s8eZ2kXo2gC2bs5mY.bI%9xeB2d2XmTZA%IeMCi%YuOi.raCi6Is2rSe2W%efJks92dyCtwjsQ=24Z&_T%x%xavI5at1B2ciiy3uuMY202rpVgofcWi14sd4IM2n_Js%'
p89
aS'ZmxOMcCjijJIpmoDi[_dj.1cka=jy222IL.2LoM?jhdie6%s01/3ei%50RNstT6en4D2=9ti=sJjwsf52XNYzI5e%:1IsRQtms}R?6%7ob0aTZbj2d2e1ewIJJczIJ8EMjuI39z/nV0yTwj2%1&IS=jyw_1'
p90
aS'2nf2sFOmMi]1ew5IirjObc?]E22ljo8n{si3Ixl%omVsi6iyb3o/2ZnOGcDE3TIU2YsskCnL6NpI}eo:kYw2i9si2NyLrF6pf421Ar0afiJItau6nO%n}jYs4o0eyeQum&3rIlYswMwscZ-2i2jz02wnn22'
p91
aS'MM%24f%%gca{n,Dcs%.wCTdo%C%%a66I/Lp0%VoF.O32L4cwiB%%AnBM0cI2C20yiLf2y2u%oIWa%mtj%241co,/k2=Tjuoyl98%kU1JWiyulioJw4p5IcjFQd8wThnZpYMkmiriO%3EQpnt5gjs/bmY5c.'
p92
aS',s%Y2idTwm2i_9ngi&ye}QgoeMCxNJM2cMYi0121,ycM2Ss4Fcy6Og2rorkIJ71Ij2d22?pra.I8piuxWu02rTaIe%u2Scsz8,cY5nn%xeQstZ8RNOlt%2ON2l0chOJPenj4Xs6rs2aow02v2TRMtriL6,2'
p93
aS'zsIsl2sote2L2:EedNiMw2aIsOfiI22eY0iaEks=TmprI0jzji1:WCZiQ2cu2Yy2wG%oj98kc2nDYnwNhNc6L2khi2mLMNf5s2jsix92Zbm22iSo3J08/aIfb&ss1%22oMDJifo7=Vx0VeaZdJy2e50w%22'
p94
aS'2JmsI.IO0wsoomOicO22n2EN2DjjKi{,s:zG6Tosigxe542=Y/BLcEkEMesiJCF%tMa9ir=mIsgi27iuw,.Iau2E2qnmJToMziwwEgT2j8l/o44rbN1]9Weis=ylzdLcW92YZjr/NEms55CNdCce62ctA:1'
p95
aS'eEu0aYfoq2dxc5jU2i1dIC5mvojwNN%MY&M2D0Q76JuincaTiek220g%dGs0Tt0C=ncB0i4fZ11o0=sraAbn42jj:jIIs9cS8jZI3etrNTwMYrEl3Jgs6D:L8S2efoWTcaII3g%cdo2i2nMzi6vgrJWOY23'
p96
aS'o2o2g%D829OizmfvDt%FaZaFj2%fgJMrY9nYm,ssIDso2&rh,pM6ATkUc2eF2{rsMij2%5o613w%sed11}dgO{6B3e4Q}j2eUy1%2sC%6f&o8,C2&4Si6J2IA2UjixNUIcsweba2342NxJW1N/%IviJF3?/'
p97
aS'2o4Td6sU52deO.sOYvD2,mSMNaN4t4TJ0Mew5xQ:iJeujj%jIALv__tMi=2DtmQ2i6/cyWDQmYw%=253oU2a2jrjJ0E&=Jw%4TnLseO2iwMLi4cn%toWTf%ajUMEj8sCjiiRIiD%MNMc23%bzZ/Hs2IpIB2'
p98
aS'DcnM62%Cba1jo4A%aeeM%jd5td2waes5BOiwoh2sesE8S%De2xZyi0I22Y2G{plysieI/3yzMQMs-o2gYcsM0D0L1tIo}R4@Z01ej4Jw1=0MJs,%3TMcs/o%OIrw10i8I9t2,kIe9IUg/2mLgIojk1II9u/'
p99
aS'&1nNiOTmU%Xe1e2w2gGks,c{assn4H0fio6jMd/Ni9mTNIfMNMn{sfCi&11ORu%dicYIQIwe7iYCxi&:o=9Kmd1f5Haa2.VpMLM2evgw0c9vhs2o%Czevj0jZm%2cmW/ie%mE4QIb4d7Z/5%2jjrir4ttj/'
p100
a.