(lp0
S'$dlZq/$VV1Ym>Xnhq10q$t$Mdr1>3SS@0svhbdq2VY119FhLx5g-hNd2hM\\4sm1qTe$Ury/.3hhC1n1wxE1^0nnyr/fM/BCLXfjLhAs0r`uUTEChgH/4l`X2/hS/^5F5Jgh@zEL4kxYd1Cp0.C1i7MhId$1'
p1
aS'MICQELrjywH4ach%<RNRBmB$`<nq\\<.2C$ril1hO4H+L7r1hXMgsLHN/1He+x06vPv2il1sv$5P$.SwKNiVcr%K1qr$bH81WxMr$/xr11qm10%bL5bxdHU810cmidm`6vL12</02LHto,<k8rMsn|bLhb21'
p2
aS'w6L2gd$$bu1rwA$vrS1c8h88$LlhLd+A>n1xh3.9igEhlM3lgHD>y$hA1STbrB29/6qhrmd5lBYfP$cXh`aBfH7hdX4ChSXr0vKbCeqe11aM$\\Bb/qHZAmwLbD1uh5HbMhYhb+ss5yx<iuhcmqhMlN1c52$'
p3
aS'1Hjjqnl/4f%k4N6xN$qX.lXh/H2EFrC91VKm/MbY+,`Zi@q$k4/uMaMngo61lsm1rDhK1X/NW1ee61,Q8ini1hixa.Fd.Nb2Mu$X^h`LC5qxNqdnLM3H`O3c/x2ChlkyKhh1Nn50MSgKib$HmNXMr1tl-C.'
p4
aS'retor0N5bN2S/kz1PCr3/$101$r1t`13$Ed1MFVr4l$A.\\`YAHi1AmlSHHkxISd1uSvrLlv1K+f1hhvQ8@1195be`iLIvX52INsSM$bn2YE/<j|1H7h^MlB9Nhj`rHlLBfxdhvh8Y`%iv%tdd$$cUoLem11'
p5
aS'3H$4jihx2Vc8e2dWMq1m$K2%1SDh3h14HA1hdh$n1Z1xatgiMhbPlmbmHGImP<Jl7v4w14YLThHhdr1>Yqgqp1$/1jhl4ACE^vnLCH@q1v/iSkh@d11-1ss8X5TSbLbhCKRj3P>L4Xi^knkhKM2h-$IH1q.'
p6
aS'`rsvS1Nj<qlr<BK9oD1PiBCLDvY.Pm$$Gv4$2$V/rS0@olXcwBDPIYMdh$1B`bH33-Ba11NHbn8I@x$$<IdsmrsVs$hod1LCd9Rhhq4DbyS/9y9-nbrwctcdFw0h.e.meP26e1hy6SdF81nbCvvlI<$oL1/'
p7
aS'dec2HKYgid/dr/?1SsD/zDm,@bMS1HCkbYkeVuic/r$nmbSsqyXq/bn0/H`lhvUji6SH1Cb\\Bm|nk%0dD1hi515vyz4dubN-vzhBL.o+9$cqvHA9vdh2MH1vq1,sY1el\\rdsSbNMShM3.\\$$xLF.XxqLir-'
p8
aS'2f+Q$CMx.2uxX3lNP19r`ylNnM5C/AjiDrvBb1h5dBvrXkrImSihs0Sd+bYSLqn.1dosHbcTt1j1H-lnrriH`Yn5c.S\\i1hhcq-i2m1rYEN%virHic9@2cP|m/It@`1HCCh11TFr.DlxLixsj11,l9dXd1$'
p9
aS'5h71t0@wC5e<1$r%3n/b41h$he$b-shK@xH`b1i1BUdY|l3YTi4HBMNht2vRmB88iC3l+$i$Pvs<U.-HxlvmlUt41+%1FEslK1hqL`K``P0$X72iBnhH@1SLqUqyv`1`1b4vbm0eLiv1dt|9mrHybh4ms11'
p10
aS'1K$MZqYnvV$1S$llHg`yF1Sln2iAp$2X0o5r/YhS|$UHPvahiHte`i$km2hhhlqmsQ1ddY10`1r$/qsnkh81HIlHieDDq8.`ld1PhYHV51rAqHkN5n11YlRhlULm/btq$KmM@.$wX1hgj`C<n2.so`Ydb-1'
p11
aS'q70-N92dH1mf16d/E1SH5NoHhvd.ibfh`.XH$hijfhYh<K`UhH7$hRihN1$yC1MRVLtMhBMdKnL0Phd<i1qr<y8O20s-jGXnd5M5km34grBmRjmbhBdHv15$g/2EefmB8eri-qku9$12ICLe-Ms/MBiDh,/'
p12
aS'ik1H1Mo2M8rnsx.B6fDrr3E@$%O`Y56<obMhNq1vh%Xi2hiEk1qNvHi1P^3uA5h1Bn8S1nhM`v3HrIhMhH053IxmanV/TnlY1/w1s@ZI53NIrn1vvq/l$No@3bH1V`0v,$dodn+B+.j4T9m2rIdb4T%Ngb/'
p13
aS'/h9b$/hDrlmP%Cnw3VtdHjh/tnDqilS<Nrbihsm3DC$v`.bw<nH</Qrh.1L0.h`h4ruo<dXBCx`D-cYMlot/cwSi4pn1SwHb`i/0ddMMqXSiH4fq.N^ihNH-hyqlC5shh5b1nMFH/iX%dn%hhvn$1KiC$$1'
p14
aS'vko8e>BndxxjdykeX,3vv1v3+L1\\kdv<lrI^ft27x^m/HQ$h+$1B5Ovn08-nkFdTnT3VLS$g9HN.vkUhH<f1hrHlxTSdrhbX<4rh3N^Fr1R0os0V1<q%x1Sc5o@qr1xi1N`0cL1s><1S0Qi1qpwM+yI$o31'
p15
aS'o1jh1oN%HL`viHfvgeHC5a`3Nhd51cr5MvEnH`w8Y4BMWYk$Mx$^hXCqb3-PEic1MqYChiCiEuwdm/khhT/e0l$I5B1YMi/rhv1IH3H0Ts7.n+mdM<`Yohjsn/ocqrv98im12^vT1XdPbdnLwidxi$1r<l/'
p16
aS'w1TLYH%ChMCkyHLc/MH2l91.k14Lb80uLv0n/hoViwRd`kLKdvNQ`vQrNs$mia$6f6H/1dhRMhHMhs4k2ny$wi2ddgg/hH$h3xhnsji1n8/Itirb4bclH8/111l@mH1`Ed`h\\4hL/5XsmqNVO3K3>@N.h-$'
p17
aS'L.ZdrQsZSx92I>deH1wkls$Px,m.5HBk1wDV18CfHlLm+d.XXQ.HElLlsfd0ciXBo/CoiuM7b+1QrhXHtLdr`YrN4hhh1dKs6SvrHMhnirkicFcXH\\8Htw5-CS1^NHwsq</2HYLZ34YMnRI1$SL@1$$Jq@/'
p18
aS'1hmmf`$L$Tiqqxk$kannk1v4irg>``9Xhi1@d`5111beS1Yvx%N7h4DQL`h$r7ph<7uoo1dvs$80QE</1QM1Y4cLs1PN`viyH1d$Lc6+a1vc9blbcE8kM5HNr`6K1e/+wvP1B$fXi0+o4s2Trh1ED+%bc`%'
p19
aS'o`N.$CKvl/3tfhHbr3+lChH<nX1m2PBsfHkl2t<NXcSE/3vDM3denLo`//KqR<Y<j5m1nibrmd>Nu<Fq,kHC1Bdya1Oh^$iv.5kqBKLR1$HoC1|4a@rtgdwIHl$rhL19lgns4qH12r1qLXeNhU5i,X0G0b+'
p20
aS'$1/ii1h1M/LH7d2oPvdEl6lSsHmiidCLt512dt^xbnESrr1<LhB1`0hLrcncLNRDoNmP1rYNzkAE^Yc1-cir<e1h3MAw<3h5ODk$hd4-k+t7re%5nCLmhXhDx$rDd1xL1`rYh`>Hm$8uMr4zv2LcB7D/5$0'
p21
aS'YNhhgchLhkVrrRHLqm/Le<Tv9`@HLaLF<7UYEhX.BuXvi1Te1GH1i4h//2IB*$A9yrjmo@XmL2drl30kH2lInvrqHd5614<34vR2w$$ras1NNB4/lz/iyE3l51VaUepNIv16tkc\\en$vLd2tmvL5REvjhB+'
p22
aS'cHXIi11.QvM31105CbiTIaut1y$M2DQn3qtqXddIh1bVDCG$ir1v0yn4.hK/10XsoLaclYm1`Leh/11qu@Lcw8liIj<Xq2cVhmP%,L,KhH.uKiYc2hfDnlP1YHbhh84rQNIO1lx7H3Kn..K0iCrvWM9Ndn/'
p23
aS'15hhCE5+1HuXm/Tbdk1Yt/$%VE@x$q5nMk1n4r^jHH8r0H53hVLN0`M$h+nXbnn1.3rxbjdH1hlkn1hAHbH11BI21908H5Rk1hcY1kh>8gSmZrX@`/$MdrK%Yf+qaHjt41qjtn1pcS<-63QdVkd/VL$nhf$'
p24
aS'AD\\n2chKiI21`$`1Lr`H1$mChHLzcyi`1AKhd//1hhre5wY$,<RlVMrHi5igLwyi1Lvml$r0id/-$/>$hdVR71$cRrd@2l2XC2%oLwgrVX`vqK/j`C/.nX1y1qngHqLcH<$qIyMs/Nx9HaB2PbCNdX1f$01'
p25
aS'ooKHxl$urKS6r/1$HihX^hi2/jx$rB$hwjHr`-qan$K>i@Ix1$x1>b$M1gmbvn@m/tq1VkdvX1qha1hBhdtcaxHNQZhifHXo1irxHI9ieKsbx1-h7t/LrhRFbvrthfnD241CCHz1sLtU@leL^5l-n$nve$$'
p26
aS'3e@1n/QhYv7qY@IlrXErrLLleem4EEvHY`vhln42h0k@eM/m1Xid7a/hNywQ1wNrdhih.8gmCibqLvjo23Md`HiPth80LVLMqP51D1Yhi$Y1N1hlbKBimF3LiHFYCH2ylHdIeVUQ$50ul8xhhrUe4xY$h12'
p27
aS'i1nSh9MhbW.P`dX4LP5qCBwMtAY/$iRIXdM^<E$AHXRmB-IrsnGFfYQh2/Kc2hI8X41oAJ2-Ln9STL$s0mRh18Mhb5Hsi`KMr`YHL24.mib/$M.jl5hr0NfhXgmA8STH-LM1M4qHfl3hYh.thhLQ6U<1Bd-'
p28
aS'bR5I-9ZbEHv@h-iBhx2QHPhPrHnS3i+wNK11Odxd+2v5a01n<11/$MHIuRJALhr@%qm4dy15wr%mG0XIfMgkh,iT@LMhkmlQ65`5QA9aX+.$Yfd>c.wbv$0bSr4<LXXy0PYf@+E$8X1-nmVICl10^d\\3h<%'
p29
aS'81kEDH@@qbqhhxME4.L0YsZ/1-6vV2iT$h^uait<.xF$hMr0R34cri+--l/HwBIdurU$>1/rfT4QlTrLaCshs531qSXHLTrld1hi-omM/gNivbhhlBqr1mjl2<5s`Cm`.fkK`Fd1X3x3$i3bcr8LKkrrI/1'
p30
aS'1h1v%IdIHLygrUmIr<,-0sfs9s`S1/1--x.BlZkhil%Mheqx4T1LBfhm/$+8ErriHdrB$Xr.mci1WiN.1M$,MH%SzS1@LmkN^mhhj1SAr$cV1diGwByrAvHH$Ba2YR@qX7bssLVdg$nK86db`%B$+.Y1R5$'
p31
aS'rrN1%3r4SHmhC1`Y44h0boylhX<q3l/m+lL$x3E10$X5nL+h1brqxtY7n@2$BTSLDCm4Xhi$$jyh/@4HN1hY1HSjCnR41eCA1<HKo.xd/b`Iq$SDMnr0rg1g.4rYl@1HY2xlhshiddh-hrHd+AdBiBHr/c.'
p32
aS'mvblMv021N0j1S$+$cUc8X/$MtR$Hab+jR,H$ehKb/qxqxn5%sr751d$bnM4lWr9g1w@x*dBrhfRbP1N`nH%`HR.L1$oh@BHBQb^HM$gq@$rq2Tvr2rhP@drrmHj<3Hax2rn19h-rrA65H2ed1kXK3es1s%'
p33
aS'dg1B89Y4$Nd1@+3M4o4l0.r$l.5ZUx.Xr4d$%i8HIkELdMnVMTH73hbryr.Xkitrdr$9I0>Pi-S47wuK14aTh<r1/B70Phhd2L1yHH@1Phrr1%$5rfb1rhM0AbdFhr^f$nhru4si+c1$y8tdgHdqPXbwO71'
p34
aS'xbdgHHfd+AV1hrKL1SP3+8K27b+$d1h3oyMrH$m@7<<dkAmqnb%Xd$0R0mvbhS6IsCi1H1$h5$B/hL@XHF<HX1hCPficqrCxLc45WdMBDNlH5Xq.Fx.1LFX1i-`5$vfxS4n.f4M5rh/ySb@bw/Brj1CPqF-'
p35
aS'l-d1xrnSv-IT$nfHClebw$LD-C2$/3L$u$`5rp4lLHh1Kfk<SH$kBqCM|lUWcBd2xeoh.ob$qS0+3nvleX4kZ1+i\\ha/$+$v18r$<9B3nKNr1>-lNAY/D@sj2dgA6$Srhc\\CYnm3CWrM7rs1LMF<1hPR4%.'
p36
aS'rHZxl`hMnhIhMrayyhLLb3skroqdHhr$^3nXn13HM@11z/91x<dlzdSDdm1b1afqs-X1b2dbrItmQ1iP`kTHP6dIXYH8PdQvrT1<bf$>.%HSCnd^d1B1/e1tjk1@o3q0rgudHSrYB.Y/bg1DFs12XwH5^g/'
p37
aS'3EM@vGBLmxEIin4MqXDwl/B$Nsjjb4eh1M/rY2axHrwrrBn/fdee0dHCSmicsqIPO1nhTTPSbg1`@YPhg`bi0brM@wan2b@dr3%d1Ch0$<ndL1n$$1B$UG22HcQBS7U<eqx1n+<vtKSs%kdBI2dd<qfMei+'
p38
aS'7KLlh1c<8xhkch31rd$0Hh.dAbnHuh@Ldh1S$H5dM81jhnri$$2KRjBcAI1`0U-CrwAVLhkbH1hL1k4B/k<$dv1/v2cHy$8-PRg1811B1vH$9<bLLmk0C0MsnLh52bsn$hHlhy-w0k/1/d1LsPt1r<84sV$'
p39
aS'HdYMO%nShiMj@qu$<nT2edy-N^cE%noHq^191d6t1l5HlM$Lb1h5QyL0rwX1Bq/790r4LqhhNr5$h13Hur$sPXw1NhLhN8v8krDoFhrh1S^hhrS1hb+0o3@ll1llN1luL.OrYiPhad1nhv`v51X11eKh0G$'
p40
aS'L.5XhjjoLDlnn+$UP2hid/-T12mn$3mCi$PQx5k8X8eeBv$.t$bPKk5T8g1Ho$h$PBcdav51rL$gzuZzihCqr`xiS/0<XcSi.kI/C2iHrim2Mi2mvNQYMwasjHv11SMC1ewbdKgvBxcc75La$hhwLeXhY1/'
p41
aS'idtBrh0Lhmi4kN1bdy$KHN$XLH425sh`hq8%xk1rk,dS8mrj,@d1hs2/.$BH`MsK$qCIlhx2Mka1vb11dHrVRr.X1Ts`LKhdr031sTA$.18$h11`r`1rmScSH+83Smv949iG1hhdH1godbbh3X1>$nrL792'
p42
aS'bLHy1hh1bC`r3qxie4WmHRCr15dUrwsGCfNMrDch^Pjkv3MmTEljob74h8Qe1-NMb2Hixh1g6bviddvh^CCLrqLEX33C1dhRm9hi1Vs0sqL30lXj$xhm^lhi1%/iVw>MV2b3vurST`291R1e1xHBS9wc3%1'
p43
aS'`s2bCEr1vm^l7sszPs3iE1L/r1lZMMx1RB,mHx$Yxr@5-11nLYvd/1/YchPbf1$DXTiXml8dH4s5w4lw$$YBzuvhEwA/mdh@x1$d3S4m38/hYYMdrB1iH/cR<l+XYH0tWhusftlLH1g0h/R27NsbBdCgJl/'
p44
aS'$.1YMgT@/sHxRHrKi>ck7Iu>|x7MLxhh/Ywl<vHLSYIk-1h`rHrH$aDh11h-\\1eN1hSbBsvnLf\\audd`Nm52bBoa@ncsR11yBPrLX1M-rk85u6NnaheZ>P.$1o15w/n8LI/$b-1Hs<x50bdhXhR261fPii$'
p45
aS'LMIkRhm3bbq1$1bSkrHq$jP4k77@N/RzH$hLahx$hwC1oHtj$rm3%$2chHbmw1dN0dicIqkL+Q.NoYcs3j1nm5h4hsdddj4`HimrM$HL$11/C1xEfbqroIFiihPli^o4Fvr1oy<2$B01iNBD1rrqr1LD1F$'
p46
aS'H,7L1P2yxS$|1VN%Av3M5SsZtn1u</HH4<HaBL1hdQ1MDhd%1`Fh5`u4Ery`i18o/ah$v2q1%HhTwk+ld%ls1xr%19+B$mC<nI$1lwC<$vrrYXNYB0$A2H1<@ri312DH$sTcr/q015XXD7B3H1ciilSLBB1'
p47
aS'ScviX@$fTR0dyS11H+d1l$7Y1125mL1Id1k5NvbbrChN4r-11/P5`OLH.n0+-fsDCHdyNdbRh<lNBlQhAqCB1TsYd$lXSmKMrmc$m1xie1ml4in$l1MXY52LAhdX$V$5$$o-ddaHmlhJ<XmXyhH+$6j1ll-'
p48
aS'12@tgd9F/203bRI1e1kNrBvX$lPBffb7h+C3.1HmlCLV/1KKv$1vLihdvLS41by1A0ai^n71c18idF7N14n1Yivgdo4r54BnLhClh3$B<vKSd%Un+vrG1dl/$0rHor1L0KN5W+.H1beCsmufY11yqdnH5r*'
p49
aS'ag4bi-SX17x1rllbVrRsb^.0SY9lhlp5iYxPKv$5l^$m>dH/o<X`hZnInqh5qs5srmom5av0dy1$LS1$k\\wY1BMHHiwTr@1Z$e^HdB/7c@kq2M19RC101HnH/M/pa$b|dtLhiGQciEb^1NiXtfaY/HC1N50'
p50
aS'X7^5CseKhmhP13C1AVG1n1mleilthP/4SLh2/Sc`hAHE$Qi7QrIY1.H1i24C.cLr$+sqe<h1vCqSNivA9$M22mht1bNkHvsn-Y/93XnY/cem1h$11SQxofr/jMBRbHLMUN`/,hB`.kqdstqDY<,sNai11h/'
p51
aS'2@r4$N%5/uhb1rib.CJ5j$DFD0cmHQBrvEerHQjhoR1$mFL71rDn5UxTM$b5nmBD5H2NwX%hq.yu%qd.hrIfiHN0$1<`inH-H$C41m$dV51LHrpgQraXK01d1db14H/V1bv11e$pben$h4vXb7d1hLnr3H+'
p52
aS'rcNtsjm/lhMmeH/K/jl5X.0m%Ibv91j4TI$ZwMLLh`vwb6Cll71k1hHCg31/A152/lQ4ALrhRbX$CnX$x8m$/53BNtHLrc/1mt<IScfo^ErHY3Nildfhdh$`bL0q1LhdtSmOLv8TrH$gbm1ci1rKcHNh5%2'
p53
aS'6/mwdi1VHx12vU^1va$h$1$h+I8dbb18cCFY9Q001B3Ike`oh4`wRsNpr$hk112z@HeSN%btghnfHxM<nh3F8c`nXddi$1nb1Srhf@a^m18b$,a201/yNRr$dfbR^w5QlbS8hLn`3$1IBhFbXyN1$R.21h$'
p54
aS'ShdHdMVb4LfHY1mcNbt$C11j%<du$dPmWFLlhUNx1C1Y6Br1hPt9HSaYiHC9bKCi132ibyv41B.trb`5gnhNez.9nhif9XwW1iArxrhxHL0+r0iqLkvibK1wl4m28XAZ4QLxhFhZ%3s`0$dHQDFv$Th1931'
p55
aS'hn/I`Hb-1tl2-RmUhNhnw1krykbXb3%7AF3$@ritv//$ry/K`rMlDKo1ci4^qB3Xyw11k1bH1Phhmi10.XMEHr`d15b6haq0mh@n1nd$1Lcs1Shd1L01b11xHSbnCHS21>3oqcBK`nCU8dEr1HDevNlrl+1'
p56
aS'9gH/Hlv@NH$h`jbKPt$IdhB9.i`Q5q$hX1.hsH>C0phH$l21n``T5bS5nmmXGsw0i8Qj1L1Y$ci05`CH`BRh5aRfefnBw3fL01ibUC$bMS1LHwr/Nf1h1L2v00Bys+bIk3be2d2S-ihv-gX1Lgh1lEjl`H$'
p57
aS'K%H$X|xsv1.Xr-4Hn/`Nii1$+r1Mh12XB$SP2v.r%h3n\\VBhRt+tj540d5-m$3.`31Mo`Q1s001IPCh1C@cOInqi1S3/r151hoLQoY4hSMDH1ri``vVG1$hNK.9-118`emXSR/e5BFW$h3wPmrorH4on@s.'
p58
aS'n`$vmy/b$q$iKSEaLbi$1hhcqk21h/Kn9hDhftNh`>HL$45dL+-63hdnqbB<3r0u9<fH.hn@/$xthvEShh2bAevCX%h`h/vvLqi1jhhid^c3e1Ab4HaV1da-ciS$r1.1S5l$5`IHcd3SZL$Pcd.v/47Dc.-'
p59
aS'XrSPCBjYD57L$i3H4wiqrf<dmrm1$HY<fagnS$LTbXSbmHyu-nmBXi/1gyKXyuwXP$HqhnH$M71h27D7HLmCaBhrKw4r0B3B<veehpxhE\\h^0Eqdqx,lfYCXRKq+oFifdHnwyh3`hDhjhdr1Y1e`vs/M</-'
p60
aS'NdL`hb5hI0>4y2Bkrhg/M4b+bL11qyqX4uv.+9BPY/1d1c$p0jaQ12nVlsbmG%Sh1$b1$LvHtt8hl1vLSQn1/SIu0oH2Bc0NYhS4BHghlp$hY2i`61shS1vRFn9$Cs$n/$s21LNF4hr%m/o4xE5a/nOXv,1'
p61
aS'h1$Qsne4s<R3na1sEb4r^qrs%.`PX8K0llSHn10+bQkksbcF17DITr2Yl$1YrI3grYLJdkwLb2iofCo/q5X3nbw1915rrLlr-12vMsc3EV1h<112bNv5icL1-H4HhFhlEf12$rNqn8IrH112F1bniMmq492'
p62
aS'K/.LB7CBijh2HhnfL3MSlB4rn0Uxw`$\\B$tF5-csVv<PbHLSXe./%d4i1d64encQ-31HitH1ccfMhHh11htoN8y8l1nhv1%9rhbhaInv1gCno5v$b/hK1H/h2swcX+FLN1HibB`1bnZC0fHZXh.Mu94Qny$'
p63
aS'7SuhN1l<fY`1bLU%1.tkrI5i91$1111l9bMCj1LsjsNNlM4j<IG1u-d$mdjFHBPccETh4nxlro3Nyw$ElYrSL5h@ZjsH-53k112dUvcu%A--sNr1ebqq+lh12bDhvAL<hd-C<nr%02%em%I1hisx49d-u1.'
p64
aS'bmr@C`CHsFrrS91v112nmY91X3x/L1QSXDcMlS14L/0irVBn<b1dii1$x1w$nL3nI1LMa1hh`mh`V`Pi8M/-$HbQVE.cfdhLhA%eHb8H$Mhk0LiiHf+`Krkm3Kdq$SxSX$wCs3wHw95,gIb2r>mWNlMrI8/'
p65
aS'R<xjB1nv8hrHHchLvrk`w3Qi3$2Ir130L/CggstvlY`,K^ndiB>i23nSQv$`SdHd$r2DfHQ$nFDCty1gfo/laM17hbdhh6L@1`|SSShLLod.Ron2Kv<2vv12$0rvmlXTRPx>N3-^0ni22fsC5C1r1$LLv`/'
p66
aS'97.lnh2Ym1/LaRYdhh3vXrENcHhVj4l5$P1l6Hn9gln%11aXN%i/px%qV$n1twB3y51wvWMf0-oHm3Nhnq-u0+lH97hHcNxbr<Ln8rrr$h`1ly@0v112\\wt0iShiBSrrCd1tI`xd-nd-CDKIhj7SrNHVdA-'
p67
aS'LHemdjH$Hg1inh0tv1PHS.l1p1H%Cq9YUodrZLfHvYLqbs/L1rc3+ni|ynLHHVth362hrh16L`vuIhD7a21t/3Y29hcG0PM0k.vXmtvhg-He$m3xG1q,hby`1Clx@1c9r5mRX1<<bHH168i10<$jvWHj4k,'
p68
aS'Pvf6kiruHl1CXni4hadgvNP5X`qhM-LD4S65LMtI1MCnNQ0l3mYL51im$1uhL0vEEdbisflpdxZLIwrfUidlo01n@oh4H|NhPsqixvrmn7d``HaN`18ON09hm//<BqV$5r3N9ecS4`rhn11hT`j37Mi1X$-'
p69
aS'H1k,S./Ld$5$18dk1ndnv-$d1y1s5n3UthH13hxRD7gH8zrbo5hEhh1orLE1hri1Ck51/5qr<hIbvdfl552edLYauYwb$588$L$1bSUq0M`nHR</$NdSuo@l+RqHkL1l@1U15S1$H3Pm%enr<r$r@dCVhO,'
p70
aS'S%6rB-E%WH0$@05q.s31L4`CAnQZnNaXwmHStHHbyxMrKjLHtHqrhMHqhj6cLg/HXyh/r1h5hF-01`$Hr>`7d1Sjl+4l>C81.$1bD1m3M<`lb--hm1vB1.83kY/1VXKqMiL1wFi1PyB2$bLt%F15-MHo6$-'
p71
aS'3d1Hr1n1HHXmhbahx$Rur5LBerhbTyl5L8qi/+1HGhemnroJU2i5.1x19t$sm5rr1+5vTY6<A7iBd4d1oCN<yh.3cj-<NLXaqbDX0Eodr/1H5FQwxQb`e80H23-1XSdh%n7E|i9XnhCqCd1$h.9SH9djg1-'
p72
aS'dLLFhh@rrhlhlN2s$PSU1`mhL1HioV$mi242oaxrw5B`/wnLn2kwn<lLMviXltrlhy`yaMd15HMP^5bR1rmxlNI$h$Me9uKb@smL$v<N0x<rdmM/<-DlIf4FMdi$mRHvrHH/B0.hXve1B0MNL1m6C1Krr1+'
p73
aS'rN<5tNHiH4c15n`nrldrS1xKNd$lN`$Lcjj`ns4n,ms3.iKcqhg1LH03mMhUg</lMovvf1thM11i@XhTbr$X.801s0mn/2-ad%inyV1hl./jflsi2/CddmS4cmadN5N3dbQq+qbhHgav$`1iLTKRi1nN2s$'
p74
aS'5HdHSdJ1SMMNAr$Ptm1dH07MlZEkf1$v1pkbQ<Iv/lHXLh-tCZuYVsH`2ktHqGbTnX/ix55ENq@$mgKi9,1L10XXf.db2mhjL10oRXGy$CUbiBTD1`h10ddHdl`1/`mb,n51JC^5dD4o0kho$V`HHE1dnQ+'
p75
aS'%w,xw8184/Tr1dbm1vb`q<ifi/2Td%n1HexPWIiHm`$0JoXmd`.a/a8k0T+1OXdHIgN1enVejm%xr71ScLvhRBo8RdBvjihuk2vhyb3105$iltd1nvwHQ$1Vht1H1$|YbqrHcx1sLB-1mh>bnde<sQy2I0.'
p76
aS'.52oVtHgBSlHXut<xg1boh5mC-0bhlM8k1b%$1lI+Voh0Hcd$mnF\\d1MB`lkxevbDL-G+YfmBI/v3h//mu-hfL2R1lNM0$msnYfL6$L3d1NhL%dhkBSTRhN1du8Cc`sr/vs3lafrZ^Px6i1RP+%Q@$.1Y@/'
p77
aS'R35bPLF.N0XrA.`A9+Cvll+mcct/yjqno8rh1Hn2s111<B+dXbH@B4HLif1.7Cw3sk1id<pS@B15i3c11Jk/QCvB4ahB1nXr0h<K9vwhTr/3hmRc1HHxfDvCdYKoSmHBwmdE19HhrwnrcwZhCLLxPS8lfb$'
p78
aS'H68,1h04m.nNqnln@Y$^1MvERhaOh1EUehx1dMH/D01n7D2s1AMhhA0h3rqn1h0xKvjhb02PAX$.lwhl1emdc3XBXNsYQK55d\\b@ib1$B1r/C3iLFh`\\$LrS0a1khhT@n11h1ic3q$y2T9hC2hxHdrN1M8/'
p79
aS'11S$3cHN5Swbs1BhtqG18oC<hr4b.HoClBXczw4B3kH14vxs59Y%aHN.XwhL$51Er1$1o1P-nHklVbi5+0ijdqmMY0rfhVgr$1hlji1M04XH@HcKdhgrr/-1h1`nVtNVbm`1/9k718h1MqNa.jvBbr11iE$'
p80
aS'qQ$1<23hqHQniryeDBUyCHVFD2211v+aumcH5ERkH<EbvrMXi$nNn$`RGM8Wmv1.t0y,khX/%emKm012Ss0cl/3/5n0$0gPjm1HI<1eo8Ri<1yjImlBIHg0ck%HYi`nL3i/,mLHx-wYHehwv1d.3-rde4L$'
p81
aS'1hQ3h<1q1q1LRgqw<Hx1HvdnbLw$2Vln9B2hmH/MlnLns1|5H`L`1H5nhMMd+wyMPjbi45weX19qx/vNXePquT8vUhUwbr/zjHvEnb0/1/l|hmhb1nYC.Ii1ytl@hHX5J4`1H<wwlcvHqFL8ib%kkFr01S+'
p82
aS'bIl$bdnr@SrhvD0IPhy,1Qdl9I-YNh1%Tn-NSq<HA+e@BrasY5`.Udnr/c0e0r1chX1Hlh19ci/1@H53$Q9xq<UcH0Hj1hpk/.A<^5uqvd1d11j1blblEHxkbn1oLM2Hlbu,E`cFCMl2mvYM3HrMFiHmmu$'
p83
aS'0VssbYk1Hk$cyhH9nHr5Adnk-LXlELlrcXlqh2/t9/YBkbhTs9N1$wm1M1^eipDl,NvLLohn1h.1lb$b-SmLrXdvMHB4XdBdhm/1LHN$getty$vMv<$ewPv2mo0bdU5uDPNYih7`-c-nLB4+YLw8Kigt11$'
p84
aS'eq9h1sIedhh1r|b-/1Z$ShvsiLc8C5Ho1hwk$@XQ5r-<hoMi43tqSv8oYX/08>/uH5dL1-Nh1bw5beMLH/IvD`dSLL333iqcdB`qpri9$hrM/To06XHCCM21.@c5yM-PaH41CBbo1LidM4iMs0flh/v1hh+'
p85
aS'i|$S1ish2h@Lv`YcA1,XLD10hdvjoa1N4hQ+$yDni.-1B<1fhhK6$l9SsJSiMtcni0xbRcmeY0Ll1sHcy7TKO<lrH^d1Fvi+1Y`nLahhSh`$Nv/hiL2F/b6+$oteba9vMmrCT5b1zldN2`hW<e$1xcrAdr/'
p86
aS'`Mu`s6$L2H/1/eu0`1hh9rRNhe$kioTLBgnNd0t@h2R<-3N/sSvhv2/jC5Hf9hHfd$h1R1vril+,d/m7Egw1hois1d/5x1H1C0$<vhYi3/1LuMdirHl+n84nM$3bX4h@Bl110o2111MByC1L5narbibd25/'
p87
aS'dwS1ye5X``H1rShuh/gL1ft5hCLM$1ss2v/I1rkC3mN/Sxl@HHhKvlChF0b2.5Q2Mv@`klIdN1rYxwX3-5+51t1xN`2hm/L$iilrc41N33>ElL@`ExKc$mX5HmgBf01rbBt2d4bb%11PbQ1Hr7hvQGr/lV+'
p88
aS'f4oT>NcflxMH2mRId3dxmvoyb4i4cqi1$m51E51IwrsN/1hXf1E0o`nLCHX1`K$oeB+15C.0rU1`vdg|1obqHdcEY7shrrY6yhMqyqrvgEN01LtSS`oDo1bk1lHHej9f31NT4<TNHUhrTHvBcec13rMwnp0'
p89
aS'nn@d1BtN3Rdh3h3EHojC4u1xqh0Cqt<c>$477bHHih1\\Y9m0$a4B$PYTd@Ycq+2ordNk$nzfql/qr7Hhvv4Hoc+Cn/04r@1by5r3`*LhlnUcLd0Ml2hvthRh/mhNSlSj3Shyn\\>Hxebn1%asLa`2hM2bMO$'
p90
aS',+i+I1$X.44Mhi21MTlhA+d10n/dvF9r1/$uywe4L$nbi./$3eI0cCsyh$rl$1Bid38HHnV31/Od3`rloQ19HyLdCB1cdHMZ$bhhSL15Vv1b$/H@les$qrS4n4N$i0NdNhxoog<nsPsI5niNe-EK/uo<sb+'
p91
aS'whDi//vH/$y1xFd-gHj$dd@r<3it$K81y$thhxcdBW+mi$qnkvHbMwy`gHXfh/hh$Ahbw1l1H$sf1Xe%b9b$/I$v1hh1x+D5lhoI/1Pi3/i/2dKk12XnCM$q$nd+taH/Ll93aHi/35bd`mdC%3KHXf1Em//'
p92
aS'2h18cuvrL/SiZ1SiAn$LkH+gdHrml2>nHB<inHqKD2s$5j05$FKireq$R9/2qr4liLnr$0ChytBBi$dm.\\m1bn1h67I$Xe5rdiOv|bX3hHML1L2B$Xm`n<xB/`y.riSdD9hH3b<rB1pDE4rvs+sShh1,fY$'
p93
aS'WRBi/yj`r.v-1Hh`/Kr1elR`//,YrBh-X/YbC1.+n3N$4@jnoW/G<nHYrnRh.1C`P7/i1mHia3+FKhXl0Y1-7/`HW0HXzdf/uL/,raC1f4r`emrHKwbL9H`85$SiTXhn$b48rcy<gU0hlG2h3b$q3iESMe.'
p94
aS'h<kN^v81+kbXhaimYlG3ohimF<oHjBl1H3>hMrsiwhHBL`120iq1sjr1hCXSsr$P/<s%m/Cl,M$o^Bd^khhiN5Nv$H/eLHML.0cMYL1ALhYAlXBhsyiMo2ELSoT1o2/cSvwhqe1C$h$/4HhHc5/i-BjdH0$'
p95
aS'vhnj81YcB$LN,X1`$H0r71H$I.mVn1rHr|lh0h1vL6oqlH11rmdBi/@@harf+vbc4kssifahEBq1SXlHswhc1Fh`$$khrcSeHXiiVs14Ln1XCvLmb./7V161beh1hh@1mTEidle3Ss1dxha5I55Yl9-Kw1$'
p96
aS'Ovhs@14rB9agqbhiU4E@5Snl1ine81PlF1iXo$s7$1jsdD711or9NLv8InNzy@HruL$cdkgML9I5sxk5v08$UtCLibXuM-g6iv1cr4^cjX74bsRSMPlXTn2L4IhHP78mrV$HrvH$T`157081nsK1kM41L4$'
p97
aS'bnkPr1s$1</2rjB@3Hrhb11nr1i1hlmQgXbSfrK,$mlfwqncrCco$cvddh`nikmbnXhr5h$ilv1nh`h5,%ByR1+^BP+5fH/xTk10HhCrMnv1ekhH9Kbshdf7`$Y9V1bsqE11iYLLKkk|bhh1D>tPh1lhoS$'
p98
aS'Yd1%pl1@9ZU5XY`niG$kHLhCrFdiu81$NHq1t11szKnq1dq034M5/uq/B7x$fkqRh2V18nrhB5hv3Mb1j$iv4VhyxE/vHnhly`eld4h17\\H7whbh1lhCSym31B5$i10HMHKedr/2iodeTHBLUx2h1LMHdd$'
p99
aS'YoAh5XLyq%eLq$miC9LjN-T6P@SLtdh0n/9HoUCqmnXXn1\\Eg3c$YMeKvbI$bjngrH/4Emeunbl2bmL0wsrL%1hw/LHt-9$nh@1BMIb1eic0cnHSrT$+HKsKCCT<$sl2<hX0akEbd1olqSB-F$%9yj$dVx$'
p100
a.