(lp0
S'rt:jlNjAi4dS9Tm4Iit5zefpjv1%D96ke04rj2:a1qsleeb%1coLMj63fdM2otoiNzsyhOorj2LytnipF2%on%oYT=TI72NcdMYsFHkac1k1R1WlBTs7QST1lbmsoa2O-wyy%o5m%pJ,%gfDimeh=tJJ2s0'
p1
aS'ib54O%::e1jt2uJDu21w5.hYIZjoQg9xA&2j0mZbo40AUtkNjjMrn26w4ao22oMO0ss,/pc2&Oxdly/c5u7vet44eyL56ogKLi2jNwpoB2fMUi2ldmIxyM2M,2L4S0_2W5in%2wldIwTPaNAYSCso9piI/2'
p2
aS'O2325]EML2xaJsDG%Tw6,yIYByB.2uexM/&T2w2YC51YiI68QvWTr=opb26ji0sp0w2qnIp%lF.i.4sIMLfzviZZ,Fou2%ZIHxijpdb%68lIo46o%9n/B/Jdlmy20f8YgT,rn2dx-8baU.crSTa2EAsLsr,'
p3
aS'Mw9RDrD{jZdWkI5aImlCvmC%oI.nmsN//tmdCl03EX22in0ih%BetmLrWcTsDF48W8w5m1j2Mc2mU%1oo76sTIFAe-CYgijiesx4%20VTtxIfI321uooI0TniDJyjmYz%%%s28w5Fxc12t0mY4maUS3h1I2'
p4
aS'SdTOh2rc2m5xSm1IB00oNU2Y64%oDqeZoZgRlCn%Wieer1IOEi5IVi3cY2aIw2zx4Z/D2dpZE}c.saN46OxINiJj%ssyI22IjZtOTn6%TE0joMy:fTogidQsMypu2sce0MWop0iYOm0UgaI5p246,cdIy=&'
p5
aS'yrsc4m4f2/4Xwf2rRdm2Is{cefa3I32cdCT,_tuDil%w1j&TGwI%pzs25%OslEmk2S0?L4McIlrIii0mYnRyTJ2oTQcli3%NFA4QeIp/CyTbejs6inGi6=9LFI67tyyejCsyfjO42_%ix5MnIm:x2W00Ca0'
p6
aS'Z2ZY1em6EyoJ2gTZJb2.t2oeM2z49LV-3lM2DCe?fijhIzIOiss?SeF]25Mssgd5o\x805o0%29s96j6IIly2mw9F2pai2DAsXzwz2iLnNefiIB2a%yu0et:rmnO2Ii40f2cJc8=aeUhgxmi0I5f2oA,/4ey:%'
p7
aS'urmw0i2B2ijxmzCzTIdN:llM22ei46jmsMajcksOueY5nhNs3bf/iivnkvOoee2%OsdDi_k4965mmwYOyti2ETg2lcMs%sl3rbeBhU%ZMr5s20%i0mIa=zi3:f65.C%TDJa%/20C1jMFcf22gcNSey:d2c,'
p8
aS'.Dk2.jI0eM0N66j%YANg%l4Mld.4O_j3f2NLE_zF6o%&j23YHT/wq&2i4z6s:aTBiyMdWI%zN,psTA5q%9%1ZiOomjNdoI2Y3wZ.sooihnezen}3b13-lTwK.fogDjN42F_Sil5OjsijzNbyRI-NyidEDs%'
p9
aS'dA2SsLJ98Cs%iZI9ryj4cU1ki2aTMs2sMHYThUNesimIx}y5%mC6Nzi2n62%nb21sTQ6ojolqzMoh8u54fjZrFt%uDOrZcm2xGwh8I}f0&y242mNo2Usx8xAft%B:cI0Mjrm2cQz/iWI5Ylj1e226%ev1N%'
p10
aS'w6nEsijj%X0%iIfsicI:s32sciMDRayiTmTmiYOT7%O/Bi2%xMo2.467esN&wjcseh/JmT/hxIjj=Sm4biLsIDn6MAvimyNIc:T%mz2uIsn_op=e6Z0CozEI62sOYY6Zii6ffsa42Zhwf2FOVzYwZowsh92'
p11
aS'oi%2MTesDbor0:LbmsrIwD%gJW=3yIxwQ_zm23y5sX0SO=im2lg.nUpjsnhTeaBtn=jniCiJsotF68MtL8U9oCf,iiaMT%AI-gnseCO2ZBGG1nuyvdCQwji22&KT61iOuIIPDm8%82/wlriMMa2o%2wejI&'
p12
aS'2GOoj:=Argi4oyJm5%%0s/i&m27j9tj34jFfM4aD53IsT2=Io}8/LIgIQsy4sE[iCgwE9w25O20/1Fi5c5YSwk202vfsiMf4iIORuni2Ea.0,,uCAyYM5%0%MrxBmpor_D%x2ie_Djkps9J94T%%e02nAj1'
p13
aS'ooj2Y9d3V%iO67jiQliTSA%WaDZ1TFDb2Cn13i1zISOCn6Qgod3o22JIia,T2d2YOY2OYTMlecjtt5d%%3MY},I0j/4TTPkit:YuGg2u/5M[3Ixm8DDQIz:jyi2YDDsi66aYtM3eckz%sII:2L3pr27r_c,'
p14
aS'kC2ygieoczT84lYmi7jL3Iitd:[ozT5dxT0=mgP=%26IccaZN42w=i9u/noQ2sEVy4stQicMccIYe&65a2efi%8FsC6i4mTI2eY4iLcs0febNB2icIwojs2{p,uI0r/fsz9cw,2z02,i%ilbirn22.g.c%2'
p15
aS'en2UWZL3IpVXL2..1W&oIw5&2jht,/FZN9ID2ritiY0gJN&%SjcO]%%4nIcMmaIQM3Alcr0OCvkoii2r%Zeg/mtwJoogwa=cin:GfsYiI4=}xxaiTns2S%2ca.rIyiMMsTbddOw%FW2k2NcNW%GbuI30LY%'
p16
aS'2x82cR3p2mljyQho,AIiws%2&//4liRk%OwH3eijenMON2t%2baaO9I%12iAtIoi1cvs/4smcrj%Yxsc462ccljsfW8kZo53Aj124NVnDmQgh4o?2zcDIFDsVNc%3tH6wThuZi09Bim7j%0C/G%gaUn21t0'
p17
aS'Dct2uS8Djo.s&:TMEOUEssdQn5i=Ms0OLjR3Em.h2t61822mw3_zc2Eo}wiej9vu5MNS3ssig2stpn5mIII4jn9iOsDIprs6Me/12u657iei257LyMb5YLcZ4xi0CrM6%1:YZnCtnOo2knqi=Jik%Iokv=2'
p18
aS'ZntN%m%0n0d2mgTbia6gO4ms%24et%O0nZ&ZiN,5IaByjj=0/1jI121F&/g_3soHoL%r02Mk6ioewi4spOktisiE6bNcjcoIL:OIaT7FIJsjMsN0iIlt95TkM=2cQn1:M:s_eOwOy3OwTna2Omhsn2mMsC/'
p19
aS'2%=g0MMIh2kT25tYjeuP24R2%ks:gjIb2Yezive2mwoa537QsQmsR2M8lRs%enzmtXINseoIr%4.3R0sSa0djsYU0%MWk2in2xCwfswdO9Jt1%w2IEiem4beS&m3Iop,olZyyzicnmBeenOt&,IObe56s1%'
p20
aS'0oiceiCYB9Li%bfrA4CssT1e2%eIw_xcsi20ei{zDA.wmMsdpUccj2ocpaj/smJe,-j/Mf2cdd-JUs2iYxkjL%Zmdc6kla2k?sr0D28Nm=%ByoS5fTwIU,Mn34Danh[y0iw6ifj2Z?iY2s332YJcorcEAC/'
p21
aS'YZjQ5IRI%::]O=nFcRaj+ynmusJ]%wvit=p54FZoMMUteej2J%.b6%mtfIZ2KMSpsSpTe%D2lo1c}NZIJF[4wW22gydwjnbj%bIi0enx2obVSi2t&n2CoN2jn7JQmCb2ba9i?iYb_%cZT?jI4bw12tZMM8/'
p22
aS'Vre1%ciGiE2gi6&%mainR/s24coeMbwOUqTYiIEWygN_3%ezMnZrdI2cicwJziB2rri&iI86:021%k8m7/esmiIi1S2yaY0jkNIiswi.MW2wY6T0C=6li,Yq=s%=w3:m%XTd2u6Sd0anr&&N9NaebJdiA1 '
p23
aS's]Qe04_Y2rQfr%joCm32s%.fidtMk,57Iseh%Txo=22{5%7zrTz3Y%cibOE2dj2/2&6eCIn2m9tm?nIiYi_/Igj02Dcwm22nsQm5JOG2N6-iHt=SHb/e%65jY8%2BaOM2rnij%=06NZ9wjoos00xufIfc0/'
p24
aS's5uo/6eZii.4nYx21lCNejDioig:N2w1%IEJv0IIl1YrIel2sdpLp3Hcyjn25olIINp52cmIm5USyIl.1oseox.N13peTh7uNV4}ni2g4irUetM.%1ctDmWI2as5sIij2Whjf82S0hdLRI2Irmm2I_l9na,'
p25
aS'kN5Z8%%tWCdidfLeoulMFi2T5Sk:jr2tAT2Jijs3o%jk0rg2dbhfbUd/T3Yias2enii71Q&=I0EIi4Oeni?T2ijIURWTZ22IM1pj8I5=c2la:R2MsI10YOzNL:32ilsw_Uutngo4dmio/TriBeajj/nb3I0'
p26
aS'Ed2sR=iWlrnM2%Tc[zckD%Wi1xiAraeO2Nh3R40acjdNQ&/jBNALuNo}n56x:Ori:wIiA2cbWe20KT%iycCtTLws8RN5/c2Y4ZiNYoe2Zosuy22o2i4e2e:oj0?8WnZDEm[zM:sFt&MnRDrC31t6=Z1%82%'
p27
aS'Ej23GasmNJ4ci3f%322:jii6kxZ-m1M_gpY.rtWm4wo2isVQySNvOis2IXp5=cdtOzZM}4JlO5wnZxBa2FciwQ2Isw4esiY,rvzu%5NO9pna7IIs5?2if2miIoT8OMS11TUmfe&2uY4s9zoIjtteue,iT22'
p28
aS'/x2e8ImG664%iaho2ssiL%2aaaT2s6AmYp%7y2ioYjs%%el%s2sy2I62NNgtT12pTW2T3n2jbId_IN6ws5Cn4W2LSN:ew=jIw79&rIv32_238etesjiJOmFii23/2zL%JQDVtQ/w2c2,20iMiA1clyMAD22'
p29
aS'Mswm02oYJ.M28/,?wI2iJo[Ozz22iM226Twil}4d%:3kccZ63i2ddJpo-n/2O3mIUicTma%iTlsozN2,OU223:ii53%ryj%2yT6N16sd8yNi2Y5sNPjjc.L5%irbY2UVIApLqjk2aiwi,t8,1iLsQ&o%Ma%'
p30
aS'e,l=TQILMil/2m6sZ,WinO2g-/:wwVDuNr=o5iNA9,n28JMI4o,m3Y9=BU2m%6.mrNs2LIGtczDxyRwB36m6nIi:Eluly4xMN3202M4Yis%a3O6ik1/.o?t2ivQ/iQRrM0UkLptDLsWg222S2Ce3%Jdju23'
p31
aS'j]sfs22m24iels6wlJSeIm5lIeWg:IlMLz7i-1R:iigoz5SMr.:o1Yb2lb6MY1D%r==JcxM=_msi2j%I2CP,6SCis%aD0mEI9JOj5DpI2YgYisw.1iaYcj1gQM=nOtnuR3mM=yczCb2k29wGscps%I,md3/'
p32
aS'i:vI6aQijdn934I29MewYgcRwimE24e0wNd2Ik2iJsn2YiodXNmzcDem/Vjsbnep6t2w2%JYe2FrIuP6QT5Al6sjMJolMo5,gj0V2Ymv4/In6i2eRmiif14I%2]Hr2ycpLgIsIJYEU5N6O0_YN2ez45:Yh%'
p33
aS'OS2oDiw8OwlM6AfDM559Y4Ie2d01MsdEoAPvM9i2I0M2k2MM:Dgl%CgTozRoeJY392j%I3Nxy%i2ADs4wcm1]D6j0+,r69LepcNelp2s2eJw22I4s{u5MaJlho6I&22e%tjwDc2e6o0k0s&ibA,9UtO4cN%'
p34
aS'2osYPiA/djD41b47yvQ3O7%ose1TeNzVI1sTOfnIR54I%Orwp,I/.x2iyc6NJ5YxDSZ%p22I2HR]ZyTl0grIX3z2WlA&IId%N%%sne&21Qtm.%en2imL%j74&crCOd421s20D5ncfeag45L4nm%2j1P22i,'
p35
aS'hm:MOc.iyMM622TQ%ekMtcbsD4NENJB61-ka0pzZFj_n0e42NyNwcoi%OAM0.uiHEIiS22e82j1Mdwbcooe[i%YYICGj.4.T2&e2TtYOZl%jJuT10sdO3siifC%DY3N2Is2%MpVON%%eJgliOYcDY2y1,2.'
p36
aS'wyNtstg1L5fsn92ei:%s3B:hOjxcyMIe%eg.iN24asEeoDMYejiwJ%DstW=d5o=fCS1F5&BIpj6xymg15IeiL0rwIt2QHiIC2W,/%iNIo&i6gpce,+tN0T20IJjeIi5idjM62C1OM,cIa2wcOLN%ZaVeY22'
p37
aS'fbOijIwOMm8cs/-zCfibj5wWiTE2%:nImODmjgd2EmA_6JbIa22p32NnPc2bzLY0MJMiwMQiIvi3sIo:cwz6/vs5sYafcpMoL%w26j_e1cso4W.AjTiweTpvlt06II9oO6=s%.baaba4spjThLFxcsDn292'
p38
aS'QuYN7di2uUiC2s2_-vdnWi5w3NZTM5rpCSMe2jimy4%2%eoIocEJOwdrHz9erkOsveVrRqd10602fide?W2zroumNQmsI.WhsZOol&slcO:LuNl9OmTeeN{C[0S2tT3Njdrc%66GwlgamHOsi:Ebr,2Y7I2'
p39
aS'2pX25ysok0r0CLY2oMiwe1I3%_tgk0cbciZjB5e%,jd2bQID1mi/2c74%CJ:LiknNg{Oi52m22rFk_xn&qAA2BInejBoMM&fEjy4i,&9sdsg0=26=cdsx.,auhCn,nYT?2Qn20i0jaSg2wagdDjo28o0CE2'
p40
aS'2SSef=rXaC7AS8U,jYm3IO=O2T0rN6ewDynNai5WNsu521wJvIihMc:sI/4A0UNN&uezsIlwd0&aBMJrSjr,0jaMB2Ui/pi4IM/n3WjvaD2wzi/qmDM12v:GR2stCsRR2IsWmZO_OBA1mGo23S5p22E[523'
p41
aS'we0tII9sisOOeZ5ew5trI-on82:ev57m%eyBZRII%C%mj2Hui24IEw0/i_L.jkn0fZ1owe3Cr1/gZ0M-riiwsNmIspL/%CKY2ryfioea00d7lnae2zeCZgIsztiY3Dcs.raZilDeriy2sbi%J555h2jgNs0'
p42
aS'j23pyc6WF3ihYiM23al2ZIshOy2M1Ie=y1ImrLR2ta5s4S4oY2dr15cI%o%M22hsyegosT6Fe2CJNhfsnis2lZBeI%qM0EYIkij9%8Fwcszy5egfjSDe0e21YAkm3f2t0&22IZ2jn6aLs5%.X0erisrEAT0'
p43
aS'12Io2m98e}w23Dnfm,2Onxmo%tlc2De22xxgN2s.g,CrWuLcissm9kk%sZiM=wOf%Ci1DnxT7nDjB23tdim21io%tt4z66nd250UIU%r/p4MNds1Iw%DNI0IjaEMFIz0ej2iUETP2%siD0oy%ImIIi7M%92'
p44
aS'Lxs2I2,w_iITanIDi6oi2oiSj0iYcow2Y22eM2Li4l87/:ciZi0IBCd1Tj6kr=jaiujIZniJrn3scABcz&2CmZcLy}ITZSei6g2kMTi3nH2fgcaggJ2%iei5sd2?Mr%aW9eFIs4Vue2j6%YpDjnjscgd01&'
p45
aS'8OdDtjJYtm/Mz2wGuv%m3oLdoij2%j%wFWMM2m2dcB5c-Y0hIoIE3s2swi23wlIi%3r%F5a922s7IJjFrpms%btOMN%AoBhd4mvsYM[B11SIwcLtMwgBZi5N29%6v~OvSz1nmQ2iIeub&iUlAiDQefi2ds%'
p46
aS'mSaii,sFJ4dsec5Eh72njeoceyJokjs257iD/iuMcl08Z8f%=aOioiy20iCtsE1R]saGTeMNc,m.JipuL:Oseo2is/oMIOmy,cG1:ILoIhTsF5Via]kjmysuQJoAbN2r/jT32IxdMQHxi2ZJm%nSOnMrY5%'
p47
aS'EJteINof18e/5%_s2Outoma1Je53%6aO%L5iOnpsIQt2Ayv22ktnWsBiIocdT4NHlOeisE2fenYje%ycjj22a3.Be@&Im4I3IBpETmctdBi/2O6wIOisiUGMZs:31Ur2.WpijnSs/3OF/,ri2%fi0nff1%2'
p48
aS'kiasd0Ji2He2lrjfnjmMI3McsrwIaQ,C0Oi1s/OU=i02nbn:IUx/oes6wr7_ie22o%dB0sEgFsmnr2l45,swisI3piaW2iim0I/dxyMiPr0ZvIO%sna%MRphcTc4RbmjMEQgD%DQ2s1EMNiO3si2vvOi}2%'
p49
aS'A2NRECDce0:Cq:j4e0eASeC4AZIs7Br5YG7%aR2e06JeS9jfNikMM4s-s5M3rcTZkzwi&2C=7n4%SYI2bu05E.i0pb%eSN25k6wS1pi2S66MYe=0Y2cznimoUDrW2FrfizIe&68tba=lis3kon%i:iT3ea%'
p50
aS'2SrssiT0LsTHs4849iaxpyN2Ohfp4Os&kCI2aGjBZoEgU22s%DlhipAC53&2wMocLYm%vjc.i2eixeNTmhQISs1:HIroj22O:Zto4tcgNcJ%T3pMrsTYkdAomCoba12%ii9J2k9/?1lJ0iTmspccDccoEm%'
p51
aS'W27,edwZs0D%jac/AAd6Q42:crRN6jMcmr:LiIx3Vr86ABFQv4%89sLCN3ji:DqeyxY99emt0kCQioNiZscYBOjzNxIjwt{z%jdniiU2tnwY2Mh0l2He?25wI7[Ip?%cIezcslGm20e:.DJijZOJibMi%I,'
p52
aS'Ji1/E2wD34%oXWi56IyTn2m1tKjw&vtIIs67pZILMn5i.IW3NsFiiUt2mMy&oOLMyOejxp2win6OG%szfj,I2JYCAI79OJIzSwiBJ4zSO%NImmF2KjYtCaCwoikcG2NyOoYVSa3t%mQu14QyjCO0%shYDI2'
p53
aS'w4Ac%p2.jTciXdYiTLQ%j32glNTi.px2dia2g%JtnZ.coojeeP25j4_ystrXv2M4z2%Lt%%YpiIidxh1M,ZYQc1IycT,6AIw,bj&CC7udi/kcl2CxT8mdceliw4ij5Z}2ZNenB6IL9ijJFBC4T5Yrg{Ich1'
p54
aS'mrImjtRkj-Ime2/o2yoMiM=Igrs5Y%vt&C2BZtPZjfPJeIDa,D8geZ%.5MttAnI-je32j,igedelinD1,gFCD0kedI3e=T%srMaMljrT2wdi.3ylOZLt%LYBm:WQeacYhwFe9YXi2,_1JAj%2i8vZ4QwT22'
p55
aS'Uagsc2mKpFYCM2r2C0s6T%h546%sTiiJ%Mt82Bkh[5owBchWOej/%Zs2e5sg%hMhi0sm=co14l2l2fOWZflT6IitmxoBas.13xn*msiM:2:=umNCg5hTvo%0.YIWsTNLkD2%CO3JMiw0BQZVMsWIeQ6%lo%'
p56
aS'5ywyQOje2ERCtWZNYvpvi4RIN2A1NQsm7zD0sDdrBfj=yk4CIN3BDEO3=Jf2s%l:msMJiisLf42n2ETRx0Fkbup0m}azMgtOIcY0ig2%jN552i%RihZ?H9se%OfWcOjaYjDR43e.zEseg,2gQSU1idr4bo,'
p57
aS'Q%9TIf22m-U9l2:m2Gum:Li2RMAOUjM2ujeB69TDI6eD&us%%BOjqmcoiOi}6sLepj,Sjyn2j842nc.ivssTmy_R%ldS}GISsrrGItjgxyeor22nThp%eR%dyMA0iaE1t/YoFjznCh%d:d{u%eYM0nx2sD%'
p58
aS'I2E/hr2T0h32/MM2MNco5sMNE2iS2rms2oF2Br1Cjajikgci26V2cNt2fNcf{pN2DLMx7,-fMZnmDhj6I02IxJILmb22ltODYI00I2.356igwR2iINii5eI.sp2i%NIn2sNrM%ackFijADcWfOMJOgdx222'
p59
aS'20HjerUc&ss10rT-0O%dIJW/u2iI.IJmsBn&iVV2nL5s_2tO}DY?nem=&Rs?75e2/rI1%e321g%InfiC_41xomdyZRIsUrOp%5ccsTIdo4%?sNIIOk2OMn2pf2yiBTOfxpztrD%Zi%d,QatYcrj2I7ilVe-'
p60
aS'TaU0u2dttoc%LIMxE9Y}6n6QJ4y7B1YAn9BysicoOEl&IoO2ne4[FdBjVIi5:e2oic.O4og:oynZN,22t32%M1oIlx2iaTM,ilIMNsMMiCx5jeg=zijjOnD2Yc22hnR%1oQ4n23?%Tu1VqjNI15jb2YNRI%'
p61
aS'U2I29ppXZo9eYjFw:m49cFSFIsCCaGlm2I3D7gogz=c2NMymiMy%1mDwYjp%IivmJTi222VfecD2ZNioiyccT4n:n8cWir6Mr2r2ei&22iD55ooB6OD%bMe?.5Miu1z4=%62ideIksadYCRZOo2ep2mjjc,'
p62
aS'2jIYNdyZ24SFn&s&u%Oy9AUmfCkIfB3ejheri3%2onp%Y0xIix22e5eBjhJ2L0E3%8jesgeI4uNa%du%d=is3%yp2jT0bvdMdaTo.2pUeM0W.I24Vy4QcpsP2elR:ip]k_itJjN2mc&rjWw:9ji%Djs1jo%'
p63
aS'xIEZi8,T2cMjB0%eOI/gR.ZcjrinZHDDIF2IQdMCtOc2SzMgv:2EMoh5n2j8Iik.ivMJowieVj6I58eZ2D2djv4iEjAiam:2is-jQdItro1IiSpT=p6ivtYdgn%Lo5Mai01WdIjjYeAN2szEzOliAeIp0%/'
p64
aS'G%2wpj6L%ys&,%%m&aAv:2/9iaW2I%ei=nQ%dAxN4eIbQtESL02AAfJ?oCpsZs60joeeIQg,b3jwlcfiY3jschs/6xmmx28/iFnsI4iekm5wUM7wy&fSM2De/acgRvUipBPJspak5i2IdcwNDOW/o5?O8H1'
p65
aS'om4%p3uiisc0WDMx&=,xN6got&ErIiOsMoy:?=3r=qi/2eI2TmaiGWii0efoGLteymmAec4C%lkB%svCEiNb2wBvcdh3uYLTSNjpjwD2JNrcsyo0rXc32seOjrm8jOo62acY%364MIejI%Qt%zO4T/cI%o/'
p66
aS'lNhTTUx3sUwjcRur%LTWAAQnuVctNeNc2cLDgFI3M08n&Mt&jWDd17k1otVC6Rci2NGaImIBqW21rMziIAwDiIsn%:2,wTI22[f=JOZs24j5Uvn30%ee4ITa23eop]%ohw:tf2JY.21M9xa21uMl1,e/:3.'
p67
aS'%je5ConT2WIN4awk3sAz1OWyayOY%opXTi/0j1Roi%75n,w:8ssdr36ywSeoJIcp2e9eog0s/LWciJO5jSejmeNrd0%nRm42MzIem3p9Co,09]0j0:dOjD2iS5mTrejXaO2DT,DuIwQV3.ojgAR4u%22iY%'
p68
aS'%sDi3sN8Is1wIwS6D2:C[bszIiJnfU2ccSsz2BvI2ut2_re-Tnnw%04cs3OxW_s2SIi/cisCOeIo%4vcbgsjCc=/lZmZyI2BZsBbbj7CU=2f22n1yammicMX.s2wNfId2ijmM22Njj%=TZecaY24w6Oz52%'
p69
aS'p6oem2129O%0If[I3B=6dspet4Zadek%2Y4Zcw0sZ2p52rC%TiI0Lf:NrtLIefd%f5%oUK2wgD}J9phCjm0T59W=?pz=2i12=rw0n6T2%wg&4ycccOJ1m586jvMj5IT2c2lIh%t0eWe2soI%4Sh2XI2%vi,'
p70
aS'-4/uLsIBtwLIIMci.Efpc//z1vibkdjzrWr5:1tQbCMe0TMNW%WiZGOr%JNa3tsiorDo1%4eWor7NpC=m/Ft2NW/fnYxSGF0OI55Gw/&msw%a:dTs2dEti_45bslNCj39D&=26xWiesfico6YZNoDz32&l%'
p71
aS'Z,O4I2mM3Exs2&oJcRe8j2c2woFm7NYTOcjD%6c,2wt62se,CIkIDouMD,%D=eY222Z%M8lvcm3y6Si1ce/s2gWa2CiMnYsTiIg=l3:rnsaiIpf3tAa0kcicsUbjlwjmYq3N,y8fsgD2iIa62%CyAoIcYY1'
p72
aS'U%4UrCY%ZaeInMLO?s612sc/yO2kjXI/A-cOx%ELCeki2oDjo2{Oi32mi2M5=lvsTIhZrtpmcI%Dghfyw30bYxcgni2zoiR2Mg2oniWF2Csj2Ii9MIe3n:MJsdZIcAj%2AMP=0rojMQI6AYo2QE2w2laBd0'
p73
aS'ti0Ny%%%&2eXe%E2IEIipdIIAnIlI7B281i2itr22ymmeImE=jIt%EjW8asMye1iyCawpnc9C2ZYCO5,2asoogN2n33mmC65pZnxcif2=%e/S%2o2I&uINFiCiyQ0Ylyh2I2ttiaps2iS82Yl352b5ee762'
p74
aS'J2Y%2R:70uMZd0QdJmNcrDds2i%lvpO:I5=R%gxG2wA4IGIa%tQ122/p1hsiceNhotj5oIy==MId3cdnbhIc&nwtMPo/Te[M2Y.{1Ye?Nd&y0z0DQc2HsjJ%/xkxf%cJ2I6_on%rJn2riqeu22sMma=212.'
p75
aS'chLmi:e2oBodw/.,i6Se=byr6Mw2fI/%x6M2ib1ib0de%a2ICf7xw08Wn3Qj%2nIwgsf]id9Te%2Z81IITdgY:pZIuTiMJsU2iw%2%misB2tIUi[,3gfd.RElt4KtjN4b52k=5J04p4/D%vwljep2sOfv43'
p76
aS'ibSsMdnD4i06W4Cus7:M2S5ttIhiVf75siy.224Mmerc8siSyex4zyosq=oh2sbpI%tot&Y6a/0]22%n2n&QwI3lfjp7y:.TW%ria=AMx65enZiWyNFo5YhxiRxhIB/=n275i%%OI_Tww0Si4m%OoolUr0%'
p77
aS'4taIcwQcxscgZ%eW2W/csNjyy369jor5WsMie9/OcgUOJAeV2yjjI5Cn2c.rIwritjBsjrgM.y/4/%ee%5ystij/aRwIeiyQHr%MJ02c3Ec1e2i:YnI5y2qe4CyjNaecdJSIMyM=eZ0%zY%cp&m,2%o2493'
p78
aS'WIbN:p2LY&cEj4eCD^up2g22:tOl2CgI7xmhnon9JY.Mp=iTN.a%w.2lg2p24BwemI2Es22ZRa=sQzdDo:%iVsc2T2ybie2t.,Y9yNLL:nuoji2o4fondI%Nsusm=42MjL%pj-26%qtBMu[,oJtz%2cSqE1'
p79
aS'2I0so%dj1r2fzIDMcOMy4NmsIb2L%id1-IvgjnT/lCY5IeWs1y4eIYjs.MsNtO7Pw1AIMD73t2iF6SQkBSwp5Ccwu26ZZEMxA-eMxILDm=osiAd:vsnn0co5905o2QIo?ui2OiShvnibiydz=Yaid%iY&s&'
p80
aS'sr3g8O7es6,WSj80gYTx34rdM2Dc31MaseDcjo%:as7OAz%2Rtd/erTO&6y:lwdScmrA0M5t?4=qztdti{jYdn,5ue%B/nnmiOc%cjiIfjY6imj2OEnno60bcMC24iu2dIIje%ZierMw&,waij:zv0.:iv1'
p81
aS'MnsTfiAsf0/j2%22p2DB2msjoii%c1JDfYtEri2yj2&4G2%1l4oGsmkiLi%I1s&hoxME0aoYigliIIz%DViB7MBJs{MtS2jwFgrz]jLh=fgn54rO{a1sUXtIacl48gTe.Tys1Z=225ejyia2Ivt,lx1=9p/'
p82
aS'%CyytmN1i/rDp0h,smZ?I2.2jh2A.CU0kBC90krjE29INN=24Uw%NYmc6%DQigieU=[jseao0I=ffJyZrMro4d33=IrmezeSeZTaiLN2.aqI_I/b%258yI5jjxM=cay3NJyWeNIg1jRfd[iGY1Zy1omcIC2'
p83
aS'DI2wQio2v.o2cMc%2o6%O823b2snF4WPhI/Q-8pOXNiiinZDVo_=NM8IJohwhmFm4sKJyNlaUseci22OM2OtcD28jMie10_bt352sDo6%tzc5LA0bIw1QMOmQZIU.}Seea5lfcUpYa2s6CmzSC%]9_gMsj.'
p84
aS'kime18E6%ho2I=N8yDIj%ItY=mi42Ou3oVsLRT0DDBfgsQ5FiiZic_2iZmIQ:1x.3M=.&Tm4IJIo2MiRilocdm2E&DnMgyj4Ys02o3W2aeinsvN%c0iyb.LyIpMMAbuactH5xWQNdiYc2eYMM2%2_&R4210'
p85
aS'onaDds3i?pI-spCNfh3360x:2[iw2s3G2MI2jdmioceOrQ,eN.MmSD3XC&O4S/c_a0x2MB9MG4=gSrfC5WNds4ov%2NmMBUOLirD%/im%UpmxDxb%nCskYZ6enhDe2a20jBtrYVsIdM2e7%D15ICZMgIT22'
p86
aS'2n24b0VO=Ym2BiTvi6eYl22Is12:50:2RMd=iUh,=LiJxi0o4MiIl29_MMGn/INgODO0.apoN612T-i0s0c2%IE16ii,230Qr,42.mnzyk6s,}mIiTsT2i6F{k4Dc=mFis/3zDxTIN20:2w9o5_%c6e43%3'
p87
aS'3IeMZL515jvvIp2ZseI-Hta6I1a2D=nan2dxo0wzrI2vJH2:IJaELlPbegJDtj2O526iCe2NaIwsCwSs392vn4xa2%nt9ofyIeCsr22CG_/oh06ZAiS=ji4ams3CrZEcgin%COUoka&5n52f4pk/Q&r2km%'
p88
aS'p27s2DTjsjd%ZcdueIYkye2wcnomyIWW&2:=i82am2dIOCCj%2LfbTIgai3oQpf2ptfp=3OowtEM5Il|donQ2mj62JinNI/GwNc=Tf3BIN52Foi2:e56ocemOyMjmnZT05zNari4VF7mTfjQCdj/e29Tdp,'
p89
aS'8eG0Nm4NiacjM1MChqJONrpfEi/AniTOoAjgZupZ5o0s5]0I5igp0nfsTO1ySLn5N2%cIww6whT0ieGw62tn-A%:kNsgSmi602_toDp8FI4pn2Q5Ky6O,V__jiLMJ8C/M2NxmtFeF1D2rv2HM9I2BMeCI,0'
p90
aS'oreoMqpIsM0R.a%xYrIs-NMQ1xiI9/TjgoMIMnz42%eL.1GvNToam92QlySc0I4FirjQYziI3imT=%]gDu2J11QNv.pk%2dD6gbeOTs,O:b&1UjbiI:%=or%ejJcmsIgsin09cx0s2QOMit%vDd2/%/2nu.'
p91
aS'g2o/2mo4evV2Y3MQBJY62yYg4sEA%wncGC0s?2f2sUZCA/6K&J0l.cZme:eOS34i%]F2S=MU2e:OI9De=gc5pi63tfg_0dMd/gTM1n/jTiiiQka4MdiyxCDe2erwI6:0fpjb%Jm1,JOjYniD23i.xoUD52%'
p92
aS"4ssZtsMIee3h'sI62Y20YRI8siTjhIsM%d2t0b%d1Btia3nd?tsMfi3i/4aw0t%zrMWzmc=%E:r%6l5-j62hwa]Ir2sstphB06Iur761YNjWpt&ih%m%js5oy%2Bf%DzMvyo6QrEhN1Cy:iS2234I9j{2C0"
p93
aS'c2nsT2R%I8isEi/.WpcumYO0twIoii%D1itgoeXG42afhwAswi{%=:8fF0e5ryLzLyiWpR0xn4jciJts,ccj2%U37E6r21jY6taE2y0IxRFh4iS6wvKeoiox0wdSB22%1xiDS=Cztiwj/TwdoYNM5smYwy%'
p94
aS'QG9O4izt522z-Z1GNmDob2d2J4U4d%er9o?C4/Y3sw9sBi1t7wSO2g4ujGwo=yMci%,82EIuay_2C5sqYreB&J1o5IM{%aSw22oiio=dy3naJoTn4%YN6eLeIEjc=owiZOgTaWo5DO2iEic6n2sYi2I3nO0'
p95
aS'm8N2QvIfz0{sss%f2hdideLt5eg1hsm72=spin22W2l%=4I5yiEr2y=YeO5Dglbj3jweiaaTMY%omrmaw_szNOZTjYasgeM06F2xaTjkExWy2brB5%e6jNUUY2/eI2Mg3sM4t2oj6LiVZi221b2Z6.uoY2%'
p96
aS'9Msii/AOhOn0j6U=u0pnY%OeZnoDeiG3.isc5VeklZ%Dom5osEaas9Etohdzi%i22r2owjuAoIAymr5Z58%ifjIi3en=M.59lHpI8auS%I%sI4iic2ckTweZeWj:OReiAOew-2owD1%%1,v.QiZIBemI221'
p97
aS'On%22.=tjToct3e2%qpdd2FmRonrwxE:%4rOZYm522%kjc5PRoQv3iu%Dnja&s3MFw5Ds6iiZo2M4=CTxWUnO1w4,6_M2T2=c99eCnWa9wmBA0rog2s.:2nd9&%gO20/tj30ImIloi/Zdii%NnC=Quxi0E%'
p98
aS'6te2215a]4OCiOYiEaa2ny2iIumC2ITayAjKiJiO5VIbxs2ivs2AcoCoO2iD[ovwdY2tzAi:z4Hip1=mi39y94m1}2PemeY}o2-::%0D%pWictB64.xi.olMT23ucYcIy5eiLgmIQ0/QO_sIiifJs%wg223'
p99
aS'20esS6Q2DjYjs.oEN1xI2et&.RnT,gI4-2.jsW,NZi3%xOsJT329.mYfNf1ZI2:Zi&ITOwSyGgcwpmd%Pw&25.c,ee3geWes90,g0a2emavd4adzutOAE22X2swpz&X42ihrNCkoL=0s5QoMp%J:his4v/2'
p100
a.