(lp0
S'3%1HbkF1xonSIXmc5D$/$akDb1KNlb4ddiHc`S5L5Hr$,K4$B`NmhSH//1h4`n0SHh8nXdYbrqf2P1c2HHxs0NadLkBhidnMwr/nU<-<inr5/6/MfollHrilCO-Tbx17wi7%L2Fthr1+iXNm<7g7Nn@HnY/'
p1
aS'`CBhh7hdd</3euqVT11h<Iwb0bl3L1Qjj$wbHsR`bv$91^EcLeVcTChrldm+vkI$<iLB0e1KhN1gL$l$2T%rbh01F/%Z.H22gE1SBm/H,nqeHNHdAmh|IQrB1Hx95jiLxzFRKN/2l4i.d01x-$xnhd1vyk+'
p2
aS'1ch22lhwcn$1Rf1@XiH9NLn/ptd0$i4vi319Bhcsnl45/Z/<rrQ1omHr8r$b92d4k`1-P$E%oMP8$^Hye,rU/$7wtejn^n\\UNt9$ota$h$1H2kEd1NHBjNno6iEdrdhSqhB|4Shr51yY/T.qzrEh2C@,r71'
p3
aS'.Dm8M$/E-Lr$1S4bOfiCL1X1HeT7udw-,^a1hALs+AusLc\\sh/h1LC/5u+i5HhLbXsl1HkKq9Bdr$wHhLV+dX3k+1$Shb20Hyv170c^hhYI+0+b@4mivld5ln5m<5rxrdBMimL3Bo8q1s7$/25dhmdkeH3.'
p4
aS'95cnwHhSsMhdzbLSvbMT22vhB<my/+caHkXnshoYhiELj<`rxi.MNi8YbN-$oXnNudRft4l11ioCeddy`dn8ClH4Ni1havd/5hcoSSUbvg<4XL.h1i1vHr1$iv1IHhj/-n$$a/dsrHvMKsq`2m1Ie24%vf$'
p5
aS'1Y$lB11e`mxYdmil4LYrX`LA1^h1$/h4gHmwo2k$sCbYfcL`S4.KHmntWi,qT91YR%^Ldy3$f1qi$i2YNAYo13HhXbn1b543/eq$4DhHvr`3Czv%$YygTh1ITt^`b/Ns3d1yhTnShHi4iEd<iK3-9Qx/rh$'
p6
aS'M-XEdnqqhs1iA1hM`cT1r/1SI-lrdY3YhU18vLhhlM$<PY1/S81h3|hhHULfY/xLCh$ekHQrMtQT1SvcLUb0+9cRYdR+chhhNd31Lq>Ag1ddMHbT>IB2e1R.D$lv@LN$gidGmSvBdxph811h001cVdHb110'
p7
aS'$i/eXyoXfbo11lTK$PvbsdkX-a46+XXcLrgWn<rsxvBe1Q0ih0xd-$8C.$SX4cxahmi11Hnv1sg5cH<HRLhGH1pMe\\eY\\7V4ao3smm2d>s/rU@UbGidqhVY$A1N`MxvH<nWhV0/rHiHfhrnH9<rNq>b`dh/'
p8
aS'/rr<4$nE1BLwi1hm5-314BS0.F@ND81-ak1hQb01NlAr$lh1xIq>Hn/E1nqr5L1rh1i2-M/idFCwvmUvHCN16BXjNhGS1Hln1LI$Ani56LbNm1dg@MrM@/h1^2idhxnHhj1kq0i5Hk`+u1Kh2Re`nN8/H$,'
p9
aS'.DobVr3bqt1Khd0R1DgvdHnHeyC1ikCLHbdiRhl$M5h1$5dYbmv5nLRL/Xltb3c/oy21dyNMBrmb^Hm<v-jH->ml`b-bhPMhMPH>nBhsCd/nhdqhsv2nv3Hk$Qn78HAQmmk5$S4xbS11P/4V`o1$bih1YP0'
p10
aS'onNjL3AxNMhX5iiih5eOxnmilH/43$vhr2rumLl-3H$r@H`Hlh6q+XC01/$@Lh@HlHX<d@MY2sLmN$nbse1rs`SA%w3rfFhhG111P2^3hBaC1Eh/+9rw1MqtmCYrm/$mns/0r$%vEN^LmimKooM14D/h+N%'
p11
aS'8yrcaL7Po$r5/MkYSS1HHs7H9T/O/PI|Sh100K7HAq7hy^Q+|dHh5$14sra>rih\\gw5nr/t1bX$1vInnr.MRxC2hDL3Mc1m3`Xa1xiNCcsNo1HyL0-bn3SiLhemf.5KnXIHqh1FhhYH<H+qicLKN0112mm/'
p12
aS'iR1ALtqN21jrYqIlh3H6a5V11QLi$4hst-H5^xzh1tqho8Z-lleHtnMSrWvbchbdicm1HIMhd5alrLd1BlPI35EkrH5lLdI6r1Ifqix/gCr%w1fn0L1dk$BXBq%.RsH1Xvlb1vLHhm1`kH<HA3QbtL5H11$'
p13
aS'16Ih1NQXM0YQbHaBRWL$T6B-2nfcx\\bQs/Mw-^6qaBfo1db+mri40LLbC/nsHRDT4I,1hr.82?15,Ih1i/c$/qfFN1vh<tBRo.di5/l`ch5x3hvLdaK/2N/Hbu`$CH1/,hU3hrrYc$dYy$HbH$j1PU^IP51'
p14
aS'k1VS5wMx1+wrg1r3anhK4bP.5uv.2dNLhrr1^hbPwUrTY+$@n.7Mn61r41/mY1Q5`H^xvLnX3rWG5bbqlvxkRVLh3r$VlWHSMCM2B3hcf1CHYbi`4jjsl1x3$d5YSK/VvtsqXfhZNVbC%hT/1hm3AL`I`/0'
p15
aS'y+Ij.h9vkLdtV1h$$dmrrQ91$^qt@Qq2511HyylirrH71rNidM/c1yLHKVdv1viH<a6C159jbY1S`een/yFFiSeConZLd32MN+^eod5Nnq@tnnhRj+HhxX1`drr08YbhI1NHnl9hH6nTiKmr4vm>Hlb1g$$'
p16
aS'$f^1r0iHe7H6%h8701Hl$31A84/A$4d`NQ.R/4N8d1r`CxjZm$wxah2f^4sNa1.Ne8ijwc/xY4Khh3J/nr$tr.a5vhsV|f/ruMrviHbexHmbK2T9MZZ81ubhruhtXhbx$p11PHlkeHTw$<hq^b43L0rO0l/'
p17
aS'dvi1onxh-xbB3HNEYLhHudQHd<ri33Xm<Ximehf%L3isnYLe3<5v91n5bXBQ9E`-IhnmYE1iroR924lVeW5kdSd%yHudr<4<d11l3ddx1y93s/Q3m-rn-KbIQY$V3@d1zhsCc16/@631W1yh$SXHBin<z-1'
p18
aS'/rIRLr3GCdc$iwIroww@HE81$X1g-3OS/1gqdrb`s8351gCHhkNbB`Xh$XqD2@q%dyHNr1C1x0mbDyNCouar4l.bv/vy4<15l1MbCbe$A+\\EcdXK$Blj%MBg54r<IX.v116^L5N1Xa+dduhCcw/5$`Bj8B%'
p19
aS'2HlCMLD<s11i1ndAodPIH4Emoi-/5>A.IqQN4QrwH1s-505i7Ne115`ikL+B3nH91n.r1sq0$1HL0l0451nv<2SYddiSCxlca1`1W-rR3QH3.n1c@0m0h1t2>hlihHr.cq/SdeGy.l/2bBPnH/UeM@wxeX%'
p20
aS'1Ko`sqDLovP1PI31n@Sr24HN.7KdcdnxDBLCeT^+iSnv-8HREhs/BmmFvBmb1hM.SXlKn/1Kr%<msHL1.H1q2dxalvSm1@H5lxBsMusgchM$cbLw7^Br1qc$61/$XobnnlcvnKKd6i11$s+1Ic43SNhHsc$'
p21
aS'lMsl$h-Q.S8bex@0kvQvn0roh$b1Roz-I21f1cbk/Ladkrx|hb9SXm1US+Hn7i+dn0sdMdPbGHqS13drY$33rN$2,@e.d9N1I1rl`52\\$vB<UH/Pw7h1d>brPh+$iPmhc6idsbhhRehiS9rrXXLPvZV1l1$'
p22
aS'BV1LE.H3`vR33dm11mnjh9$s$02DNrn^d1/lErh0hlutHvDhNNN1n11XXltYs2Ni/Bdf1yehhE61bs5no$f1Hs>35KvlClfd$/1V2IXr4XMbu.A.1+s0c/@St1gOH2iN$1v//beEBrd$u1nDu3<MD5m39B0'
p23
aS'@18thdahvmsCqiL4Dxb-HXievsN$d1\\hv1fr0$1v8HAn@`rf1TNy4,Nx<`8IcrmT1/Kqbdb@.HBL4IXT2rE711<PKbiMu19J-B2%A,hK1YZQH<sh`yp`y1-rhHlC$HuNy5bBr1b1dsD/NLmMLIy5d%C$X72'
p24
aS'h1L1$1Xvi.nYMt<1BVHmvY2ZC5cdH%sVaiH$H+bIN1io1Cei1o14v12xMCib2i/nh3Bvhv9k>1gu$$dw1C2/0tm+@c@T0s9r1E8fHm5mit$dmHhWlCrCXfBidvDe0h2IN+Xd>lshL@Ri41n1YlqvVMX/i12'
p25
aS'vrOPvHMrXrCDVL5Lm3lLr1`RcfeK%1sxT14l%i$2HNr1E3H92D$mS\\vPnHcv.Brh1TSUH1b-.9dR%FLXv5Qvr4rH3+IBBh78s11fl$dngHmHi7|1hwLhewd$s$H1eTa1mxI1Pn1nnlx0oNhM5bL51kd5k11'
p26
aS'nK$03kDvtsLHhnlHh+5`oThhigA1HHmmk`Q1yNhhh4L/0hrT7b-,MHlP11mth8+1WvE0X1avMN6o1cpDvgh+8CHnk1L/nl3Ni.Mibjkh`iivh<ilu21404HAK92Cvn`sdllr$|h-dMFXQhP.SBnP$hT$EB0'
p27
aS'9Clk$Z$EhxC^l<LL-d$XHxLdlm.lAvdxnHHhb@%riqx1beHmhKMncsipszdYLzSdKitl1M@tIHr1hHS1h+7H8BqR5XBorbgv5%H9PrNH1Lex.vYhnhiSb33/nH1L+El4H99OeLl9Nsl$kLoeoLFh5LYdn.,'
p28
aS'$Hs13clX5Eh-hdsz/X1ilY`wgvb@117Hqni+nrl$4H%nIj$L^rYB1l1H/Mywfn1ri3$nxNIIke<iLIbB4yYVdb1HubSj31^BMn2hdiiHxsSMyN9%$Cb3$NX3h4$PcjvNLV/Lr12x+C1LHcCrqSrhki+v`>1'
p29
aS'<NXhtVgSK7v1qMjr<yK1.9LvNh4qDQ``r15Zi/1vRPHMN1wBcuMC$fbHM3`3-dirxMHH@2dS0+c06ky1gJrLx3r1@Hux8n4dHfRlSdIhavNPlH1l$nAvL13q$P1aHN5+uhM.v/lNLhr4021/1r6Qlb@2h5$'
p30
aS'ii9gx01hsn1x`C4hoHi`1odzk211L9P1b`$5El6txhhq0Yld1H6@XnV21mbA`LVRv,ljK21fdk4$b``hvh%+o$84/2ClIsLeb1h/r2Ay1DC0<bdhCeSB$hHT511bXm^rGhYHIPY^8d6M6o1NhmvCrLLnA11'
p31
aS'`LgYcRNMs`g15M161$$Kry%BhH4$vHBcigqeja1$LAC^1h>Hb92Ivk3xhm0Le401.s.bhh`m+hm11wzYo2h.xdE.v01mbc3g0vNdxM.Hx@h/HY%7dlH14P<vb42rMqH^ZXhn2s5Hs`ihu1rqNrHl3i1ng<3'
p32
aS'dPkSkhhI$T1$.H.n1f18mH32^byXHrr2h0PH1M%%i$3qPrrM^1Xentk121cru@bvbCv%l5.C1s1H$<xhjP/-lPtsHhNHINmmb41`Ldd2Ph53S4c1r+o7rx5b`aoKk`|HfCsyn`/P^d5+rdh/mQMKnHVYXS$'
p33
aS'hNI2kNrP1r-1``20%dsL4q2Khwbkb/VH1E3xogs1MMvLnnrhgkh4rH1VU$n51m$nbgbSSn</o/.X%e1Nhk2r+3776NK$d1hki91v1$VHn4`ZFJ1mHW1^F41R1dru5hM/0X8Pn9hdCo`hHRYQKMxjVbvq1P$'
p34
aS'$v1krNL$2MR231s%zUx.S0Be0<1XYqM1w-H1QXN0b41ilb2\\nm1V5MNb$YhjL4r17%nefIdHdrT`1aa4N13@6C8Hhfxoqs11HrnW0fD3vs0$i.n/@HlVbLriPqi1rXr3l1H14SlX1QXg+dGseC-6d6.2801'
p35
aS'wc`1bb$>/bCBr.l29QXB31b$Htlms21I4LKavslA1At-LFh4d1m/$hh`BxNn-r5xnnv1$NhebGdhGE1rN1Lnw|8boMh4/0u$<L5Xn`gm/rR9rdg00mx19MLirLvHngr2hcd8d/xsfVt2b%hqlL$@oi1<911'
p36
aS'<mXyM9b1..-kPhn0Ud$FieChIrrCiSnTCh^Hltyn$f3hnXMEdrMhhY6ir78y31f|w5d622ht2icsnhhNXexsV|M3mibaMeHrS-.`uaW$kN./Ehm$h9mqylrrXirOlc+C5h$Vpq+kg0\\<`i11LLt3z0v4Xx/'
p37
aS'6e.hDh3n-HLY8iHB/1.9i3hB3b.v5mb4.LsIHR1dKXX1w51Nw7R85.f0$Lhv0r4X0V3C>9X@d211m`1vAr5$ndqNNmqN$1Xv$x1Mjdl/ZE>q1H3^ik%b2d1okr`EH<@R1nBHMQ3Yvb.xI3hgbmsSh1cAbk$'
p38
aS'jKYdhndnY4-qkW1f4bi5C3HNj1XVm1hhBn4hF2ksl6Lr2/n2Hha1tDrrFa1d4/cFrmH0KL.d.<MXN$21G1Y31x.k-hm1tqb%vavddeL/Ybvm11LvtoPqenR81SiY$kwevEx2l$HsrKCs+ct$vNeMl1Lmh31'
p39
aS'dytrhowYMLhShi$nak-Q@i^Kc9VEl1/KhH3CIys8CxSknNem-KjYCKkdqxD.4$d@nnv/`1rmoNb.MP1XIcohq0drhHxL-+2RmfS.%PCHZhrHCmXkgLabHvVdH`B@%hBc19+f2PdmkjbfsMr12cr4xo`Un$/'
p40
aS'$`iHM2pTx1<Cr/fm/AmNXN111a/SM1Hf%L7.h$XKgCNvHV$Y1m3dWwduQyh2Su1KnbikMrKqqEdldm8BnZ0v1ljnas,Ar14lxHeRLH1PfliA8gr$`b+bTP5,PM$vUvNe1n0H1v$d/hi/<%/ro12pnL0/i4/'
p41
aS'3M@CM1/3-lyaVf1i@3$irb1111sixBmgrmihmrVRF0vLY3$\\>L1@V/Gin1l%1fBQm$^lHSY5Q^sls1lCh|XMir>vbsj52b>L$Y9XH5sa$fk1u.+l00$/+vrlaq3@b$NvMl.<o55hH$Hy<sNvyi/BRSLhdI%'
p42
aS'D01e1ODPp/hlnhb^n1c`l$%rH3wH5X0^1h^bN111q1%vlhweBbhh9HHKmklN5nr4xLH+D$jhg3/e11.f1v0chL.1jwvib99-eIVoCabr11r25srnm1kRn`Tm<gxbIklB57LrK1^5ciP/.5gh31l41L.vj91'
p43
aS'r@nd<1DRm1iiL1x+4bj1Er9rC$XSK+Dh@h.d%zrr$nHoeL/ranbx$11h@2bnIiC7`<XtsE-%1rINHf`Q6XS1.hvyHCmFLdh0bX8LL0LY<HCfdArNthH5`8cGl0cbMhSbd07rku.rHnhrHh/nu/`bxi7S1d.'
p44
aS'H2`q3b>3vX$1M49rhrhlrLXeoB-/Cf0bnrSm-EbD.`AhoUfP<nbs$dav`L-b11i1Hydo20117k8/hhb02L$h2u/4hBvYrInnhqC3N<yi5X02AdYxrd/hHi3Lrr3bb1/USUvi5M9`faDxnbk8$1H2k<Gl2l$'
p45
aS'+naHl4m0$nk0evDH412NiHmnnQTP3901A6bmHlx45XM$$lb5-bbOxR-rhdgV5lHmf$MwbGnnH83/Tn,on%$YHMkMnNvDn14hhi-+yfHXZ9ir4$HM6d2rbA5b5vb1m+0.NdrXu8LVh$2Diy1c`mgQr/gK$I2'
p46
aS'tKoX-i4ifL^r`dkmdMXr1d$rdlMEH6ZV-.19mwbyFrd$+>4g`yym,o%```SyH1%1\\+1N/.krm$x0YcNlFqX1HNR.2@hn0PN1H$tv/1dLYvOr-3c2N`lhMY4@5n%ZHXr/sRBhbiIb+b0Y/Yh/vvi^flVilq$'
p47
aS'S^dKqNoSPHd3|y-H1d1wbSYa1@1nvn8osYr1hfd1a2$E1HhEWSv`e4/imf`v1fch$dHd1rKIH2$gb<Q13i1$2@sc1v0<HvEhlV31x7/imXa-sr89<9A0Db$$/HdnIhMQon%-Bdad/iH11hToqL>fy+LhlM/'
p48
aS'$HH1INcH3%XLbdlgda3H^25$/tx+dbv.5IaA2i|HNrrmiJ%KNdlKuxroCVlrMeiH`-LHELLKrhcDYk11r`Ho8M1nb`Nl51qr572i$u\\4cl>%HTH1doRd141HHhx3BiSfoLd/L\\1yH$2u<hv2HL/5LwxSin+'
p49
aS'Bd\\KcihHIP893rn5hv$rhH5.M`rfr44Z21h5r8NthvsfvH/b,.Yic/bcY1\\dv$,H2n31iCvlxG<L`dYVEj1/1x2mt0brLin1$>1L12nhfT1X$hrxS0w`O1XYmHdLi/1Vonb411hD1/bXn0MLgSg14U+or11'
p50
aS'd2Coss/0r8V2HDmMy12c$S$G1S`LqRLD$/@8ohqHn`j1fBdin.LIgw/H-LhomSXdo@aP0C.myfIw1$1KHdBEH1$RshxHhf16rdr$H/Yht<A+nxlO+mrbrlHYeVLXC9VTqjh>$KHjXwd1YrlH/xTsh75si.2'
p51
aS'K10<q5HHh19vhS$.`9BYdF1v2Hf7`Hd86N$HHhv1md`n7%1hLd$dH$ixhX-r3vSBctncH%0li/dbqN4tLV1bHFiLhjir2g1jaR101cLhA4iHqrXhXXQBev$HM1i$j35H5V-Y1hl$rH1.rIiNVOi<$hj116$'
p52
aS'rCl1rili1hah4ntH0MrhYLQr2hdrnrkDv1rdr111816lr1$oS$Cm89LKf$.1rePQ1%arlYh81ar3R0$PnXo/od1iX-hh/1lls-edn4ajih`$/0-kt1YxoLH9oHhN>j/9nl1BhHU1Qs9r0%eL1Ti\\M$65hK/'
p53
aS'uMrT9doNMjdUwsmHe/HNM\\j4CkH51h$1r4hBHr2b/2AcvqPldex1hhk816m$M/+rd1N|4IhBN9+nNFLerTHaKbrwvv1qrDtiibOvwYMrrv11rMlL1/n.sn$<RML5^hhH1hPqiVhwAb1rReyK@LHhuSBoH1$'
p54
aS'sM`0beT1>ldw4mi8ximg81L/snNx1d9knh/sI$c0jeTfHN2^ixQrqrgRd3z0|+rhc29bin1XdXedo.al$`dKwKihn1-Sx08lRln%o^eVY9HdH/i$2rm1$h%Lfrm0`r^ubip<o112v3Dci3N$crV6LbhdCd$'
p55
aS'2$H-lX@r05sNeMgCLnlKHliM1i81rMNi0wK|i+c.`C13Nc7hnm752X1GiF/qF7l/4GdXhi-`/ik95AnhP+MztNs0rlQd./vkXkNe,5S6sMoh$CiH0j`Hs/A1MX-R1wdd`1M$/k<byHbbFc8H1BDNhNYs3h/'
p56
aS'eb`mq3s3dsd/TNeSchNiScqvlvLiLbij7ov^nRch.Lr/Dh4LXdH11.d+v`1hbq/6SLkB1HHeRrDiin%/cPtdYoHSHvnCbKlcnrdP.BsA0sYIMmOrhs$jEL/f7BmxC>j1iwm1cs5hiy3m1nr1RciDv$Nrv52'
p57
aS'y3$1BN$sndS1Ln%h03N1dNYrb4IK31$/NnQdChUsSg2ml3-qLkdtof/shrr1$.`mQNLtd$g0r1IK7K19nfH8iAHlr1R`$N`jXr13nw%h5g/Z1r$ibf@3iiI30<$-llK9iQ$r1$SfNd,l4r/BixsrbvvrH$1'
p58
aS'NtCV<lhieg3xh3q/gvhNmqMBXP1bl9$XIL%Dico/S1@YY3lAfHdh^.1HhtvyCjr+/N/dbLQrBvn2am<cS2/dl17i2m1bd/H/c,318Y<l9mKbmLLHdI3h%3`/`bwb65/es3ho1nmN5HLtlbITh0^ish2RU$1'
p59
aS'iiHrCv3m7ve4YHvnqSHoB/$<$vr\\K%hbCybIvH/j`d1h25q`,w/$kdHNfX1kra1nB1/7142qLxo8/8a64Y1ylfLC0Kw0VY`NM4Lj>S`YLG$$\\f2n1IhKSVdh0K1`-KiGbh<oaV1lerf6ld`<xH`btAB$el$'
p60
aS',m$HHhiP3rd/q-rLdefqshn515Rmxih1A%HBJ51hd@mD1H$YQizsKr9Hnq9MkbgHrCbc1Yi$uKd0rCgr2LFV$FChEsi7%r35w2m`x/NinV,N`11`rRrbb<`BF4KC1SqhrwI\\nSHmoZ/cibmLqriN%36Nrn$'
p61
aS'@gCf2hhr3NHq1e1FhDr0gi39fdU6/i-Se7X1kibprefCnnPQHEbngf5cKhPKM%SVxLihrdjHbX-290Q1hXNrMLiwhHoyrnscndH@r@8-myy21h1r$ecbhkwn>M%^LkHwc21+Y,$Haa1,blxN3H1dibIvnl$'
p62
aS'rXMBehVi2vfYS1Fos1<Nnd3fqLyX11idqL%md1$Pk^3h0/h1objPmnlCP$vz-mr/1<.LgM1c7dPHHHNhRYLrf0/dlHMk8XK1nH4dPcgBHCrl`by7ruvHirL32Shxv1LG$e-dP|b255CHmib`vv<K$41H7B1'
p63
aS'yGl<+bNPAiHdd$bM1h61m\\mu<@1sdm4v4T7DYsc5H2C72i1rQxMHl$<9X/MqL92y2Se1hn1+^vdbH1c4<$1idh2nb@hHe`$tDc^ddw1`Hc2q/X1hn8@bk1*ezSVN%y3wi1eSC1b1l9MLh20VrMXib$480A0'
p64
aS'dn$ihc$hnYlp2h|qh%.A1mId4Q@-2vMHNMT1MS<2LBHmirnc413ihV/vbi%$Xde^drhis4VShtoN083QX,vvn14g4XkC$NXi`/gv/I+cvEv1ThHh-X4\\M51dCHh<d3h-InB1MT$7d.b1Udr08@l^7vbhxb/'
p65
aS'$1b@h9r5HbdmxV30zbkihrnLb$1$BMmP/d2Qskv%vd$n+.$e1dHy$blgr<q.lMmCHYerT1k$xmhl28>k14LNX3ChY1-05iy0$WS-$m1HHwB$iSMdm1n/vo%<x1gNILsx2riqc3dS1v5b1xYd,1yhdSXld1+'
p66
aS'.lo1iIwI@SH2$R1ni12tqe/nm|K1CRH1xxSf<s1lRXk8X<3qH2TvKL`qt1rHb1neV4MlkmR$qdnfLHtPmXEr21t1lHHx/Ecf%xr1bI$V$.d@sarDs+q28B`hHS`r13khwmT3Y^%$3hz`25ISshxdb<Bvh31'
p67
aS'nE/1Hhm4hMK^i<LiHLD+1ZrN1HHYb2LTkKx$e/r-l4l1YArSTXmAdyxh1svntnnrY3R0LL5g$LUSChUSsNkiMil-v/t4$aBcH2y23jqErd0lcUgN/8/v1@h8v$2$XXSo8d6Ph1us8<.n+MbEl/0FYp1hHe/'
p68
aS'`$bdrX/iRMHVB1wd1`1$L\\dsr1vO1sd8MTvPv`h4o18nLI11dIm2i1.ysnSiwefh$nt4Rvu7h9d1hT1hQ63$qKbsSn|aC-$rmidHY1gChX12rd.dVd-ibbnvIYBHcb2HeSlw$beSl>^%H$Nra/Z-3@NSh1+'
p69
aS'1$8vNBALv3Y1x9w1baP`d3lNYH1Kg3Lsv8hr1E,$c6oH2cf/TckHLsM/b1k11Ydq4sd1v`1H<1nixUM1rirvlqdbdifS`bc3R.Fd3iNMY`uYCnL544@vK6SikPdV3Ll/hlri@YEi$0YCd4w$nh+.o1Dr9-1'
p70
aS'rq3f9qA-r$1.M/Hy15$hqnr/vr01@THlH1LmPQdF8qXRdHdisHMnhHbq$L`L0-ew\\HYh1MXrxCslc5Aum52^Ii$rQ23Mn@BaD$nnXnkrl3>HcYvcK5s@9m%fHowerr0ghNNd$UYx@XnIvx$gh9buv6vv151'
p71
aS'bYf1rB5HL%U/6S6hvbaCorh7/6H`SXsOa>hfi$tCSh/L`h$NM2/edZ9LmB<\\@Lf/Xmd9111hV1C1<TI1NfNyH^hDaXyWh148HR1C1Ndc1NH$MkInEI/%nh+siqMSirP>9hm^n1q8qch1aih1nrmd3d-`I/+'
p72
aS'Q$l-$BA`q1Pv2hr+C%Q4iLsiwbjD$21dh<ulr,k7`im1hihsw//Mx18NS@dYEtNEixhBHhx@2iLU2alF<Nsb\\uiWmam.NrZih<-rTX7$5l+1hUNYh1dm3qrh.dqA2b1dLH.1dLnymt$1l>*ffSyS1/kMh1/'
p73
aS'ETocebCb^Vqm/hbhPH5ON`1d12/n$n1NdnbT1HjOFrb1-x1qkb211/nhXt$mj0XPHqi`YIH7tiHrc/l$tcshNKYrx0Mv41ib-XKM`nBhoE1Nm2L1nfvhl5M$bs1C2HolnToyiES14j</x5X3WNoFi1^Ldn$'
p74
aS'3HAHr1dMD5q/q241vP1RmmdlxihX5>bN1lUsBrqME5iyb1d4+NBsdb32hlSo`Sr0hvS1|L1A3n4M$h1Rx^SI0X5mthT<4HKDU.1r<2131Y8mr1R1ASriv^xhS..3$rT+H45.2`X$M58$v$i1M.4mdhhxr-1'
p75
aS'S0r%$130d1hard$5h-z1nj4sh94c-7^mhMev-NrfS3h1nV$.X2xYbr<51fn9wIHS1dC1KDve`1M/hvfaLrUN7<MnaSay2uhRximTCj/rxnMfnlx8@4<3MX5vawM1w4d1+kDSd353rmm/ANf9zb$o1h4111+'
p76
aS'ILFynB1S`blHKdL0B$Le1N^`h5XtlJ$k$Drb/HDbwd`0$7Nbh8@Dh`L2hLh1v1rv3l1BD/5biqMbbbhlwrqS3Mc8rbhvwYyBXhIvi,dm-f<x98s0yugpYh1X$-yviD1$/b^s8Ye/hP1@x2d1Ns1`McH1110'
p77
aS'4rccsfBHVi7Yg3rwvi$k15ELQ1-hxRhcHS3<x<1LkwL1.PHr13Ne-lP1q5Ml/0NH.hfbHkVbCHz0<h$5itrbwUCr3lVPhIn1Ms4d/c7n$.hSd1nHdrv0hiw0Fr-n$nhh1h3nH8aayMmhvs1>xMhHPf41K61'
p78
aS'bXh1SiP/FdXbM$Q41dRaRHh/z$zbNhe21-2bMrLhNbLmL7I$Oi9<%Ix2hsx/PIvHCnr1lA13bdm$w58mi`mlvo4ExifLk,LpmIUs80x/6<244rL0t2rlHSL11.MbTCfXVj7K^-1LxV`r^rTiShMg2AnC%K1'
p79
aS'm$/ChN,rqXwbH31v67v1.PfvC/M1mn`ILyH0m$0/hHrNN31HN-Px@kbsh2Ih1/ln`KHvhN$dor2Xoh$NsuKm1QidBxhKnoFK1$aJrXs.1YIy13b1Lm70S2vNHwL/E-Y1l^1B2ug%9ur0lm4mF34ljH1hl70'
p80
aS'MoPYXq192Nh8Khe6/ZF1smHGdhiI1n/d$L20`wcXdcInxDeL7f2`qdxnEQ5H3oj1^tr4^@Xbl0nYlf21rEIHP9v0bhm7e15%v/1Dlo,/j$dQvB1Nx/LflviBabblhxyY5wor11,HYdS`i$4iXdc-oHX43y/'
p81
aS'/NHTd1/wwh11f2f7hrFNVLml2@jd1h1HN%/o1<vo$qj10h|MnwbTxEfsNbM.D@@UHl/s3bqlln2$$t1Hl81LxA/Hsv3Y4/zSr5tH/Ch010`y5h1+x3X06Sm>fL1zSdXH6rm0`1rt$s7/qDQx514MMN`$m$.'
p82
aS'H2+1Mr$tr3T`8r5,XSulNMOoq01ib1.1av-X01XrtLH5Ya.heh3dV6yY$vdDH1/H`03k$T/$9HerAQklts<8qgqX<lr13kqVd@ij%$0$FX-tmu81/v7<Hsnd$ud23@7fM\\qH`Kh/h.10dx3XoWb8rlh$^q$'
p83
aS'NkR541iLLum3Go4B%M1QfaD$LwlQ2Sm1N$Vd7T4Krr2-<rLhi13,lX9^Nn^iYhn1DL1$^ltH111|x-yhrh1w$14DltPn$iMDScAr%H/NBhHw^PrHHkn1yy$1X/H1sm5Y4Amx\\bist2lnV5XSLyM6LBdhsl$'
p84
aS'hB1.L-Ml$3mhe$tBNallP5Cf^1th^o4Xjmdv-sCcQagbd@$y8EL7Nv8N1d1bjP7hn1bqeoyokHhIoo9NPM7%nL1@lii$HB3SMdlbX%XlXsgYqm1$DshHOdd4bNI$1AcLrrT`m2tHH9>xhzX@HIkC.fiLdH/'
p85
aS'S$e72AHuN5rmL5RklhDrtvIC<hrX0$19D$aq`seX4415hN1dYxraL1ryiM3be05obMbrm1rH1hvFbk32NnlBvrBX8jQNb%HO5Ha1nHVK1hn18SrTNN0d1goBhrmhN11x@eX$SbFOwqV2Cs9BaNjhSr/L.d/'
p86
aS'/rsEis3vd3XN<P<P$1XdB`2dhrnr+mIk1<z/Hh50SNqI18H1Cl5$AcI+vf13r+7mQ0hnq.L/liqbr4LGwi5CjRbbblI1`hihM3Y1nuv4eer^b1SNrXstL1xHC-jhh4X7<$ikFw<$Xvdhqh7rCTi$NhYyDa.'
p87
aS'1rqqb|t$i$v1l1D2/Hm1HLd11NU`GTxfB5hh/L$Fb1cMrYvq1^kC.btxQX-$$qYon1bVA<UHdw9N`@@Qxe$f5Es1<Di12eRHhHHHUt1oL$rmMLAHIDd/15c4EmT6sb1/JN$dKjbhxLf1bhYrlXqXDI0$Bl$'
p88
aS'di12Hl,7$LmhHhPM1a$d9YoNBHtF<H9VJK+6VnrhhoCo/$S/v2dk7Q/3CH//yeFhqIHL1hKh0JmVD3N-L1d1f1cwkVm55`11FYho`sqNmJ12SscNldH2B1YMiH-id0DLUmEbL78mGCsjhKrN1AHnehiobc%'
p89
aS'nXH0yL%CYybHC%$m1VSn2ROus<11t1RFmid<`@rhi7MXNalP%blahyYHL^f1ehbDHvpbLL1%1Qn$`r\\1H1a+`@M01Y%1$w8rqhu%1Cj,l,$xXLPNHLjPrnH$vqXDLl11L1bwIeHMAPdlgDXoS13C81sxiX.'
p90
aS'He1wb^e@c.1iiKBqZh.biRr/vQ+dnrO8vnN-M<$v1GP$P4Rr5/p$qskCvTaV>HKjr7vtHrc2H0XSirvhH1P-3h`FUl8LDhLI.W`vN5ch$lCy$vsl3SmS$d+HH5NdH1Ah3lMbbmCYC@fc1$T5ncSi>@8/3$,'
p91
aS'15v1/v+C1m$ydrdb0d`0<i1B1es1m1b@$HbrhsxVm`qs/5inKrY1v0kELS2hh>NinYIq<411lFrdhb.o^01L1m1rhNsPMH4eOhR%s<o1<MBqh4$%n9B7u%YN6yy3r7mq.``h$$iH.f`r$nXiix$fH/r+jN.'
p92
aS'3av%h96uy8q2Mishcf^1/nrN%1djhRLr1HKbl3rh9He`tnv^%H1rICIddCMtl-hmy114S11otHrXA3vcPboMiM`/|HgrlaSbiY7dnMm8C/nO@+emr<n1/h1.4YhHx^Y1/ba1d94r1sht-N3vLks05KKQ$j$'
p93
aS'`L1S.xoD13$dh1c7b8df68dcH3hi4LjNTNk3hDnshjdt`@BKsd1bx4r,P4bwhrLn8Wth11rrnnlic2l$/svMd6lr3``R/`m3D$mhikBb$Y1bw@<KNl1bndSr6mbL0HL|w4@S|$2XXNhLQ9M$10`adBavqB/'
p94
aS'C0@sE9pnsycuKTkNMQmw`mglLvBCNaS1PV8$4$bt$YCj4i1b12$K1drHI$17d30SmEs1-3hVtdA%V4RcaC.>v355g`@4HrhXn>ArBK^`uLHNn/SqdNQrdQN2$yHelLN2sd455Ct`47LYyn-mljqI4h+Bcj+'
p95
aS'Vdic11VmbqyXr11gUn`1HLr$$+@KT33radeD9NXML3n+M9qI/@K-hAhtQlhahqY/SsciLNvgvLD$1qYMxnh11Uc<l$1Ndv-75oLY5HClbj$m5v/`l0XOShIvSHrs/<Fh1$K3X7R2e19qr5h-y51Hh1Xhhh$'
p96
aS'$MvKqc0jjKmt1mRd$Wc/vCoa@nhwib5xFmCtcrrrKH2hbd@11I`-iHH.Vw1rHdMdb1b3j7Knq%G,8ohSH`beoEs@dko`l0S-1b451$JV17x-ldKbrMn3PdNH1F1JvvC\\XVmXYag@v$slhym01v?ifEyL1a%'
p97
aS'bme9P1N^rV$1BRn1fP`1yBht-0enrNisEWd101gbapyHC1qgrrHWM11iqrD5rm51$`d$/S2<-ynS5edhrz1c^<<v%RoT1cn1C/AhKYYqmNsjN3Y$rq1nbsVY$rH9yH3$N1j132u1bi1/B-g1B>OhN<b`XX/'
p98
aS'-h9snH$i9Md1o5dHyl.Cl1mr1VSE5HI$d1BkoM.q170LNK00hvHd`yo>szhl1kximd-5h5^HNyJr8l1IK1nScvH43,H2f$EL$5CH$3Lb`lBt^hr+LH04mQvPhFAnY<eAHit1uCb8M1a2H5d.bds1bH19k12'
p99
aS'lL4X134Q1>131hrn<12N/a%P1+rvv8mHi5k/2mn/UmiLS1sfHC$$l9mHrNeB</Cl7i9$3@h0Y5M<PSSr-0.3/@RhrrY,`dH5Nu<-15P1rx1e1lq1+0d1.ciHB1M1MxInM.uor3h1rqn9uCM4iI1^LMbSyw$'
p100
a.