(lp0
S'-qH$<Y1Trh9hHfd1lHwRedsSqhOM3F39i<M3aPEv<1N@H0vz<dx@29.<`iCd//IyXnyIbeP/^>DM1e`Nih6$qb0$a31x@-C`tjBKmhNh1cki0xb8hlUnh|41h1FiDLnsrohf0rD3m$snLR>16hsl57d$m<0'
p1
aS'h1/l7Hr/UHh^`3Lme%Xjh/Psv2/THd-*t5YSS$MSdXb413drdHv\\mh4-FH1mlH%Rm@rHXm4daSssrLq42r1ior$o`1x/8/-$OYw,NV$^1xYBB1e`r133abx0bB11h$yH<$dDh.M1H14nrv<NX1+5uHB/dh+'
p2
aS'gm1t1Nb$r.s24HdMqH+/HY.rr1wHiPb5@H1/Bsl4bd33aT/$yqvY1$$29SV^NGeMlbxxkd.l-i@bdHM/bhTP1sniQ57yVh1$ijdmsMLdqyhvHBchcw9mOSb$er$RTY1S20L4d8am/2PqBi9hVHlSq<lx/F/'
p3
aS'+bg90|kHdhLndSytr-1zClBDc<B,2Lsm.Lr/C-VE8ciNYlV^hLv31dvRh1Vm7DQEH7`iiMb63he/1-dH7radb-g$$iHBisHD5x25H4SbSNT1NSu311C05HP2PhE.s<LrqD1`Y$wvhb$uwChbCbkL2kr$s.$'
p4
aS'K$M/25HhMd1sHtbCmirfdre8HyK5cd^1doorw1/o3HsYbxzEYin/7h4Hhm1RF`f^5dChM71iAHTwbv$1r3$5Hfwk6Vs1nsnRbrx0>wLrbu|5A/2bh.$tbNMX.Kh3v>GCHmi1`Z4vld2mA1n7nMH2Nrchh43'
p5
aS'N+Bqi6lHrHqIA$b3Xvo+8mzH/tn11h2PSmS4IoNng3Bmkhld$1wTl91FbxbGiEmhvC50+s1adLu^xN$T%lX0nSX/j7ls1ulidwqyAdes4IrMddR1^4oNFRVsx$k4h0kHLy4wcLt@lP3n/17r<7s20vSwXq$'
p6
aS'Mzk1n5ia@^TayYnlY7h%7iBNflhZMSb5EhvBhO03snD`\\hjFl$hvx1l%HX21edum$MNb1v7EhQN2hmuHeBTnt^rrkR$IVh.qdIQfX^$ihHrkIhem4Hhk$OeRrmGP9`r.rshSL6F1d6wvhv+iL3Hl.fgRO`.'
p7
aS'CX9Ln`nhHbQ7t1xwnVbhU5r1L<2+ih0gdBlkrHlqMxnd>LhS<h<hw<Txrhzl0hvB.hyV1eF1Q/sMcyHX21V0hv8th-KYD/d1HMdr1|NC3KX.d1BNsDs11kk9hsb<1i40$Hh1Y$Y+Hmqi8Rf12n4wRrxBi7-'
p8
aS'1<<i-r/bXchNr0nvd<yc+Lq@h\\KuC8LinhVdUdhhlcx5v1L0X<L/S10Xr/nT0x5|b50LLru14N1ohiBdW$`fA`/`</vL@lE1d|UTb<dymdvkr/11Y11fHBItKhPcfmQhhHM2<B0rI1.MIfi$3Df@ih%aqm.'
p9
aS'hr$h.$H.hEw1n17ma@crsdS.N1bBrLhq1ch@<c+gjL1thxLemy9dCMDc/dF14bxN-o40</PdbciLh3+Bdj<dQysi1yI$1v.t5r2BdY>hmP8N>3LS-qb`0Bv1mnJ/$TVn11cPU1HdCHc11VhRDNx$$i1QH21'
p10
aS'w^MDH1hBd0-fbSsy1H/lX-h3NE+1NnN3d@vrPY91Zwin7G1eqahr+Lx.HNOCobIhl7KmdgbHHYEme5/1wiiK5MbMvteI21fYt9@im1H1Z0N-ndi$$$11FPlw3^q/wjkv/@FuX5oNbaAAPcN+m2eX+niL61-'
p11
aS'F1vRmB21R8M0YiMh0Rb41FOa$V1hm<Brh@yYqnX+hCSHmmr$YHX^X1S`o<hiE$2g1nrHml1lY+m0\\1rMnfeICL/1rYhLdHIHb1RhQsc5N1e1Hb1L/Vrrv01Dr1$I0vN2dqh$p1r1$l5NCMc1nkazvw<|H/2'
p12
aS'm1<m52X%x<1H1hm2HqHYnAkps11r-1SP1iL3l3$ud13$hd$2E3qHg1gyPH`5@Pod$h5nlHu$11r-XnI0H4idV1i3$Xc1q$d$vcj$0i3xVL1w%md$IHwK.$Fb11s2k5>/.35nt$oEjRX$4vdiu0l1KrB7xd/'
p13
aS'/ydvfTmhX1eL$SS$/dccH@lzT111rKsecm7iHCLHilXHr+Exnh701AEV5jXiSIkcB5Ynrnb7hVRyD<ih5n$MrAtOnfTMrrl.H%SCm5hK5d1cHVk$h0hSh5bxlVL$$$TtmiCdOtzr`H2P1wvHMXeY%u%tbK$'
p14
aS'31Hh$1hST1hi4ld5Ih14$ixwxyH`s/<Hs-BhhH^IH4udlTbNn9I2Qd.nk.i6h2Hu7CLkqK5wbB1q14lkChhL$cLr198h-rw-rVQ+<56es7NbdqXd45XS$1NHiHCIb<|e^31VgH|`5yH1`HM7BsHhxeHAZ$$'
p15
aS'rihPP13d1S2fm1fYuLHd1Rad1Hd1FcK7nnthXd3h/rskndqbHYlhrirahvi/1N1NwtS4PrBc21Nw@l45L1nmY1dr/4^jm/3A5Pf31iOhtQqD5v5$ibls$$h`1oQl0k87/2cNly`S<0hGjHl8Ed+PTxYrwB.'
p16
aS'wgB\\Gd+BH$rLGbDM1RuS6ds+y$Mo1^rRhKZ71i$1XX`1ysoh9Shv2/4xCr4rss@qRCh5`wK5DM@hhnmn$.Xu1.25yIRYmui0h`AHv-cfD+/Ndlr4mr6jFwl4r*Mr^rVLLqb90dKdr@dv7n@1B$h4KH5qsm.'
p17
aS'wlCRL/E1fsedm38thd5dixv1KbXny>bhtL$5x$01HSlkqSqmUh@Q.iDki1tT5/R118RE$/Ho1q`xfd5tMBmMSHMiDou1xmHNYIi13rSMl.HiL1Ev4y6mqmq/h9msdr-V`/GxLY3Bw91FXbiSgZr1,hq/3/1'
p18
aS'da0YyY5xQh`,22wiAirQj<Md1cnnNXrg@xrX0hFdMmM/-`@ltTL35LHh%eXvErLr1/12d1E531QroPn/i$1ekc/q8yhFyr@d.nnX1XXn19EH$Hmvteh`Lhv/mryb1h4U<S32nThhrhlcz12Hu8hgHHLxYI/'
p19
aS'T6Et83H2>911^mXhqMmlf`3e/j1s$h1Chih\\-d110xKCtH.iU/Qd84gMIx$1i3+q418Td4d@$l$nHbHh23lb0yS<Xln1318Iwud0c$44`sL$NNTLX$/hTfp1bMHi1rmErHLn2me\\3xH$goXhFXh1oT$S10/'
p20
aS'iMLdRe6H9.0qd`lMdwsjigS11rs9fHR`%nM0P`-FB3dh%rBn$Avm.0BnL`hfQP.1Hrvse$7O,HN`5s<vr%bdcYnX|1Is5bq-r3d$$lMdfAkdkScEhvl91bh0eqt2/i@Yd-1NlC0Q2$fiB4`5hBYPcbNwMr+'
p21
aS'Lsq^h$K1di1AeS1a1$nYS/94Nq4X61mHH$b2HhmORcI091L`1u`rkx1hSgw/tvu810T124LC`8231vha/cHh1rwiLMS5T7kNitnff>o1u.8-1oqrdecu1rh5`hvvrf8F0L$th1o`k0nMk/fedM+ih11x`41'
p22
aS'XPh17ld1YHV11vdfl2b`PSl8/CCH$HSkKb>lb^61lnLwCs1HdnH2$dMLdHsSd-idT/YwbEeiSYEbCKLcebemYmXMeTq4xhh1vLkdMBbdeNyHglqYD1c1b<Bd/1^$Idk%ciC1vdB0mQ`1bKBx<chndBM+xq+'
p23
aS'u1d$kt1l1B5jyLllaiaZm$5w`4vH2D24v,wCriL$0n1H5A@$kpZ/`2aK54HHG0VBd7Hrh4BH$/^jpxi.$T$XHKKq.6EbRvf`rhdQFT/l3$r31cvk2jCr+4w/%h87n-xrbbLCim0CBmrGiF7hih<i3SCv112'
p24
aS'H`c4H1b8m$hnh5H/i0Ah$bi$he$4IFHexB$/A`vb$-iRLb5p3Sinbqc/BArT$1S1$HxhsiC2NdC@`xybL/yL<dTs34h1obAmLXUn5rehfh8iB1Vx.d@LRBHX12g-hhsrxlvv1fl1cS3AiSrVVsrU6BAEu20'
p25
aS'.eM1vdt$fQHwhkDQ$XwkhimkH1rvkY1lvvhosH1remR11nu.SvG9$1MqkuIM<Lr`1ih1611ikSN2hURr.Xs>h3QoD5Ehasm8v02rcL-ap<2RlhoK1riHx3eibtP11CXr`hLlb^Zh1I4dDBu8dLnAifHic10'
p26
aS'2h5L1-h0$ks2d/qTbnirNix$y1iwxdl0y1l8/3$/1wdRsN3/va56iL`Nr`b3dv`@b/.i$REY@nHEdNho1kwX1n7495/wXTEf.1^3`hKh$<1njQlnba/1Y+2rM$1r$V9/IhdjMcn21r1l</f0Cd$1RnlN5v%'
p27
aS'X@r1%nEMP15hEDIB%9hrHnewhmo4992`1xCy9nhD01LHN6qr,i$lSY10h/hh<t1dFqELrL1sc6-o0fkQ1Ch@350HBqXkoi4a1hVrzhcSLFlF3/b5FHN5qHHoHsS|issy/HMfNaLrNTiHT`HVES0msiud4C$'
p28
aS'S8L/h`b>8110xhd0V4pf1%vF27`0rn0gKKN1C1.P/gTHVoHESfBXA3WrF16hLXH2OnBh$9v$qiR/rv2k`j.$Lvb3jp5n4mfw07MXT8D$.xNHq6ep/0q8,m1.vL/BAi5-Eei@r@MxgSD1yhvhYQHeM51ReU$'
p29
aS'b.41m$gLyhh+ohr7$1cihy\\.1SU@`31wH/hk2hLm1v1ILNbLoS-gjXvvmiv9Q`hskH8hdhSlIonHrlhigM96vT1h0P8yfMqqq4lrFY3O/Yv+u4@lKV1D53x/HMWrwlLdhhNIxBlHu$i1r1-1$NIBumn6sh/'
p30
aS'L/`3g5xM%18hMhq1$LA4x-0+XxL$hdHiLAxqfv.lnrN/rmvH1NyjhdhX`HTILq5C30br\\IfO1St3bit$BH/diS1BHrI`h5ntMHhhAH$NhrsdbqerrYR<1x1h<t8hIvZbIvqr`/SrlIuYjlmm$rqXiLs13h%'
p31
aS'%q.15vhyBK1H$D1flo4tchz4c2%hc2$1@0NJ/n+sKo5nLDFoC0$vh2iqDvhyfoNbLX//fXIqdHd5hoNL`$u6$AhC^V8wnae>FiwkghrFlSbl1m$Vims$@bgv1ov.H<ddo4.X41d$qvM9iiiP1QDiBHn3mN/'
p32
aS'8rcd+Y0vj/M1ahL<MhhH$ncE.l1b`/YH^/bw/-4Dd$1Sdr.imk1uSb<nY/pL-NLMi/fP.2rwF%ihTHUn5nn9bQ%M<mdit+ofY.hL$@b1hX%QnDMvcq$$3mPciIrimah$wBhb5QB6zJ1htY0I1@`ytd1hvh+'
p33
aS'GmH189fIyrJOtR%uhfxl$erw1/.p1hfibrCicrbqdo2P1h.xsjwhsf13Xii2@F.yfls0dS1/1txB0rL<MLs2XSHx0nbLSrRyDRDHhrh+tH1TqOHVbXgY1X6j.mp+t1T7LCCH`lS-BBjecgirh2I7gB1kh<1'
p34
aS'5abh.$Sn4rrh.h/n4d$1IHmv-9QIy37Sv$hmnLhn.DKiqS-1,Fn//CVlfxd.e1AmH50D^121SKFq7PT`Svh/hvh1Skx-`bFteY9LVyxkIQHdGs.rRm>P1g6qgld`<CLhbMe`@Qwrhf$99cr`Y/Ih/1Y6LK/'
p35
aS'I4<qsMmuSgLH1aYh7MHmh1/iI2ss1v8vHb4HbM3Z1<$d2YKd|Ylxbmlebv1<9M$`CtF^`21e4Dbqy$nbL%4r43$ER@4Rh11M26vSBNsZlqdjM29m0nrD6ks-+N51Xy1tl30/n2k$M1n$1>%821sh%-c10Y$'
p36
aS'brs$d1$6MPmIngbVhhrr$vX1C3S1N1lqNrFS@$SxZePghz1yvq1d11M1As7m^4DM11rdy`XrdMi.bN1CM$T1IsM9hj1hh$EAL9I5Bh1$cn.lH$HuotY4-HsLkm`1ahC1D3Y1vh.Lb`H+m9P`1Cdhc$qISt$'
p37
aS'<XdqRMSkzHSm<s2dPli$wChMXdNHHVdqHRh7PIbh+5mRloArhBrlR1hYM9wcn1rBmiV1d\\H5`dI1RNxEu5nQdmnB@21SLsHKm7DrlhtLLWbV0KLNNS1MLlH9/Ik18m.3r$nLnN^s`s1R0R11n.zYn0HCIy+'
p38
aS'uT$qY<Lyj11CXhh2r2$hm861/ceCRv5v>$1cmjhDIls-mSoAmv5><v^i`rrDp1h4@sfl6udir8q`n2YuiyXnItikHfv.IoqF7hKX/Li-d01..kd%yWrYoyg3/XHR4kMcidxto<2VC$%d`lbhe7HPA>.hh/1'
p39
aS'5U33Cke-l1goi141fCENisdq1rrDPbqxE+PovM$$KhqfH0AB%Lcns1`+HSfXHehoXer-1MhP1H+o|Bti.3$`Hkirr$v4u1Lu<ra-%M/1di3ohOm10@jPhvbBBm-dChd30U/Hth^%h.L-q0v0hPaqSV`vnP$'
p40
aS'0Qv0i%uhAdD`nHbjdkTWuHvbHvi,`m7m|35bLhdSL%i1MAlaH+is1c,n/zdm-q@pqs1$IXHr`hjdRarLho@Krr5+Z$8P,R4vl-srh$Sp.HClvrkjvbeyrYXbcLhSkh09Qtx1b1Pah2h48dHl0`i$2$m-nJ/'
p41
aS'HgQaaxSc1hvKxBrnsxraf97srm1L3w6x1r`cHxYhth1yb`nEd1O$-dRRy+bv0uw$mw1Dne1N,3%|lqem`9Qi/^cLxd1iIybHr.Note/IH<5$1$gi1VyLH10n5aS6MNHfLH1/+o`hHqHd$LSnYasI%H7/ht0'
p42
aS'C-U3b9tBSnHrQhbwN1iKii1`rixeLhMD+/YCmcbmheI/0^iqy.0el$lHmvhYhm$kx^oR/thmbxHHH1Q6hvJxhWd<<ff./bkaho$v8bI@dvi2/yEo15jhii41dcmm,0Knol+akfLbhNX</1RoI1-m7RBqEb$'
p43
aS'2s^L1hd$@TKTrwa$u.-H$+1dLi1NolNcx1HBr0$TLaHnR19nNPd+klXY1M$ssR48rh<q3nMb$1a/r3hse8|nCouHC1$Xbb7`5c.i4hds/Nh19$vh/bt8ur<h3i-N$$1IubHCk3sB$Tirk/TPC+`ivbn2/s$'
p44
aS'iNrj50r/dKS,fEriCdiC1@ErC4I1dbH13Sxiq1M\\LrrgeV1UhD-5ryhIH$vPCrdm4XmxthNYYDhn4LXkE9d$r0DBrb/iN9nHj/vnhkh<us-o%r1rmeH1.LqXH+IBgwrqHInw1hBOMuhnrh5$eH`cMTN3Y31'
p45
aS'WMN@ujdU2IHc1di8FIq8XHT05xbdr0P$6o$/LrnWhB1ruX1t18hihh/idrSNM%Yr1U^HHm%<N$1Vqsmvmd%J1mdnrls1bb87mrs$dN14M1He`$f14gL-LrU`.112`hnb<<vdd5m5Klqd7M/JVHqN,0<8S$1'
p46
aS'9hSh`unvK$rHnwe4vFbDmHrTDhwXB<6hnhhltvkXjr$n`LO<hb$1aTL`tMx%32dAIi+hvqS1/Y/+O7%N1LhbqYxeJNA2xco7+@s^^Hh8XV$oH1$b3r6brrkNeP<aCh$P4/L39rLchl414$/hFELSmwqRxb+'
p47
aS'dRxrke+91HCiKh/f12Ia51NLLFr1LHN153$8bvH94s@1S1S0d1iknSxadk@m1RmZ/vr/miBHn<kYUjl$rmq1nr$CsHCx$2r$m$-04M0Cqr/g1Kir/ic1>11sMx/@wQ1lN<9,3q35h$$1SXDrk942B58>E%,'
p48
aS'dbmqycd`HgYvNnjniXX1vbiq1gaCd/h2.`sZ8wCv/M1CmDjPh+ksAnLdHLechlSNlH1LlvPhZxihC1`Kd^<VPdN$td3MHQhoemT1h@hL8ihrkhchH$8h$hlmr1hx1vmlatYXQ+Zr1ir4K/LHt14181$qHD/'
p49
aS'eKh@hbAdhmadHq`u4ObT8hEr4Lx8h31dSv1UH2`1bn31jq7h8L1$+/e1Xa/bh5X$dhBqC7GE3sNk58x5qBqqD3dUxHR+h0khHdPxggrHnm7<HMmx,hb1fHnrM1Kf4lq1m1pl8NNY1VS$/91iuerx$>NdY/1'
p50
aS'v/rNc@ib$+Mns5E411wv3IK1$/vS`dSvLv5CJTicm1mO2h4Cb4hBr3$ww1mb1BUC1Y78b2vy0l$PEA8dsXx1V-LMChaHm1h$SYH<+$v4\\8q.XH/Qr</.8/Fh1xBjv1$L1hB$NQSS56T19XH$V1$3bhiRas$'
p51
aS'.$CN7ir.bP.RoP1dhl/da1LrfM3.HkGf5nij/drdhc1HM1%Xhv1H<8hLHYHhNXLhS6H/2/H5<huhr5yB3h1/-hAxH70HNi1he/Mbd21$/S1H2l%bq9refkSI31b0VdchemkKHHuK$119d2+4^v1t1+ahMY$'
p52
aS'`A5`Il@CEde^/-f45NH1oiSmETCc$N3Mg$nH.LIot4d%Qoy/N1eChcClq1H1dqnadryyjPPLgvLD7w60in9QhaNogfNtt/1w<$zkrAi@ohBLN1e1HT$CgCbR3hkhHYHd3Phh0Y1m8rYb`rq15x`RH`b5ov$'
p53
aS'Umot9gX$DxH$/H4mjGl$hvitxir10hxxB^ch4eC59qHv-iN.un$n3/hr<C1Hl6LhqdS2h1hcOr6TinlHX/C1<IlQi/lNHbCrv$hA5EHRP2K|b1-`Hn3mM31.a4Nahsfn9Qf@vAbotkbh11KoYhH<4mRd+E$'
p54
aS'`RqI.mf4tqhnHh+u/IdLrdv@336Kb>h99%hDK/^Nivwm8hrmiER$hihcagvrok1bmqvE4^nH1+VsCTsmc.`Y5s2$Kf1s`xf%H50hr$Xi21151l-@nXl/L$lb1hN5NH-4$kBiHn18yRMAAv1<HxL9>0sk1E%'
p55
aS'feu1P2%H$BKL1IiqG3@1xBt1Dj1NscZib5iTCEWMXjiRm188MnrbBxL3H1MPhBBMLlsqi7v/+L.8h16/bhja1S^E+`XcNtHnia1x2s3rsHX$m$3$>^mDhH5I3rlL5S5$gmrC2arhi/omn<8\\4mKnB1dwAe$'
p56
aS'YRu14h7CXBbFm4+/nQLdbc1lwjTh`/hetbr1r1YLhE`vhevE6d$QnsK1w35<12s1r1f2i/6vbC8B-sr$39H5CvHHrusmb1CeXw,h9lR1vHXSoh2i,kbsH$5^8/1on2dKrM/0lE1hhSx$,-eke$7Hi2a5Nv$'
p57
aS'41Y1IP$1`H1L$rb3gF5.$%iqn/Hq/H+di2Nd1B9S2TmzHcC2^`+2Lhao^`oNctRr1oDebReiinLL1`h1feAL81jv@n8n4$NbqL51SM.91mSexL-mbhh$NdcliDdyC@wav0XoXVq1rfur,@/Bb$n1/hN3h$,'
p58
aS'$00vB1f+P`pg.hhc1BSrHsv/-^3x3ssRg8NCchnMf-%91$Hbx-1Xx33vvddmLbYu1@$1x1D1Dh0iqMrhxTi$9hi9H/SfhFv@/Yn0f<@w\\vlH1ldKXRI`iika1/1Ewg1bUBex5vndRi3hviLCd$S84005m11'
p59
aS'XrI2`sjMhybobn1X@Iq3Bko<r.1o5Ls-br$1k$c3nbn1`uZm$5lP1I`d5%mehM.vM7edqsi<rnhJLii1h1iH`N1bvHv1vH2H2dhhCb`+hRScBcNdHM$Vs+h-$hwD3h+ribni1X.k$P1xbhbHibbLeH2h`1+'
p60
aS'Nrh83Y21n%sl5tk1t/eRg/%ihQbCcKymru$xtBvmv.HYHqmC5v7HtHktLh$biL+$VYhqTdc/mIC$<bxh`4vh5dsE4l1XrLdMN-3Mi1E<1$r01H3disisqheMnr/m2Xah<Yh$lbhRQh1nX0lTlvi/br$qRb+'
p61
aS'+1uNvfNS4qRq3.lfrX52Rh5hw1Ls36%3BMN1biXdsL1HLH1^rry$a`IqmnbV4q$sQt$eyhmn`/h1b`c/1^1q1EsCyd9X`lrl32Q.Z//k`i4kK1fhinLB9sBd+nV$iqM/79lnvS1//1/$1bH1+i3h1lx4@11'
p62
aS'h7N,<0n1XT/3$f$dH$/$3Xl5m-h$iriL$r,R1.4y3BvokXEDKPa`1m`yHX10bMYMkH1kor41vs111tuFHx$or5uPIb$C1lLPH4i9TNhnVcw1HXk111o$1u3$<X0H-jw`Dlh\\N/fL4gc0$hSs$C1YHPxQQ$1'
p63
aS'rTH$1M2dSKnubcHN5ri.BnhgNV$lvX,$bn3hmm0Y1xXlndrf9E5LdHh3592-1>LLi42,Y2HPr10d$husTwL<ohlLHDbh/lrNvis8MhP/1Yo7d3Ni01h`r<0uHnMQ3Xh1qnmz1v`E6Rwn`1dL3/bqS5Lly51'
p64
aS'9XDwn1vEr$1bdl$xCjx^elP^iBm$/0P+2ulY0i8^n1PdrQ5eHo2o3Yeo8N.2iLh5vuh1Ys6M1krlb1$$`w1hn>Crkehg2n7/hiK1HNo<lLG$.X11hmln6S2RHehiX9`mnr$1lKP11XHrrY1i1/1Cav8K$g.'
p65
aS'Bms\\67bhh9<HqlTQb$LhQ%R$MBk2v$jVlgK$bLLj3aabB5`mbs1SXY90okrEyKL8Hi$rMLd$Cmy+wdnAqvhRf`Y0CMyh/QSl1tkg81|lhL$bbv8tdTjir5-I`1rc2v<hF4hid^Midom-.nir$SVHYwc8$12'
p66
aS'NrP9yL`qoqb8S<L<11|rPIdiqfdtlLXybgM0o<mhwrhI1ft1HVp71$lH$8$91iRiivin2h.jYKCsy5PH/vF1C/2Bc15gfMXxk$13Lidk4.1lDyYcRR@H098H1msU1iNHinA@N<gK$XLsN`bOr0MYVoad<r$'
p67
aS'ks1gx0hH1y%1$f1l/m./fb1N^1n3VkBbi/S/MhX9rk1oinPmKmgvshn1bhL00qtl1x1g$.2sXh%/dnH$irBs`/IYcl3cxr^M2sK1HLh66nBLnCiaVCMm1m/rmIv5/i4<Xr$SL6fHanr6qwGX3omd.8``BP$'
p68
aS'03k1yIbrhD`mi@Yv/$3fHh1b51sB/4Dilz$f4.sHrxi>9BmBxPv1LHbSh4VD13P1i67HbwfNC1lX1,3NAhh.bL$,19X%h1Y7nlK0rmj%r11hvR-M^xD11x1ed/>bh13R/b0B6mb$Sk8Xmd.t+4I11`H3S-/'
p69
aS'1MCdf/58$M%dIbV9i`1f5nhcwa5Mdm/NFNHH$ed<kb1bq/1$lLIjPy<iM$8c1znQjdd1Hd1@lsYsrL$151.1v0+-Y1vbnHr5%/$CFDeYiHkdiBo1V1rM<dsDH/mvcuihLcmkeltLWayw5R54/B5SL$r/0l$'
p70
aS'h/6,kMX$rLlCHkNcB29Hd$Aeio/Y,tb5r1xLNaD-v%/ki3LjdNXw84K`HaTSWB11DL7QvaH1Aif81N9aidiPsL3rThv-D2nqr8o1Hn/1m1Mh2IqlhXuR01+yX1gh8v<11ihYli961lLlLk18T31-bk>HR4$'
p71
aS'>FlDBRiy1SXS5c1IkS24vmdi$bbigt2l1dlHBW1siBE@,4d2wrMd.v^Ryn3b-14Vdqol/MJtvY5i$0@N51l/K+CMrmMhgc7ltnubMCM>t%p1LvPrLgd2M%dBj1-o//rX0xhey%11b2ll1I`rH`rC5y14N1+'
p72
aS'CbP41mEox$Y-N1Nh$l1qh1HYL1I4n1t`YvrL<`mM2N-12x0rnoWzLHPRHelq7Tfbo@efxXlc2i@X1hR5m+1+Fns1$hda.`hn1v1S1PDw`Q/Vx0sNd6NvmM1e00ihhRH`bh1A9<9BhiqxLkLu$ed^@4m%D%%'
p73
aS'k4i.@1.B3%NhgFBBTTMqcE`iFjl-n+.TC9NkT/8Xmd0nd$n$Doo1VsAbqiqd/1mEHXM4rjrh4ddbH51ii0c2HFVHiYs$<hhSdEai$b08/urd2lV4khMHLhi@SnCYHF2LhqqCnoqB5Y4H31e2`r1lvKA55b$'
p74
aS'4lAY0SD1E`l/i$Go$`lEB1$xQsPgk`VDK9^iaw`n/B+r8qhvLNbw4l-MqC1R1Q3LLHiiqii11/5HcCh.K1bfd-M1$K5$@Qk10N1LSbw1c1Xnr`Yl@H11xL%UhB<LSI.$V1h3DnOiRNLv$2rqmorY.w1sih/'
p75
aS'$xvndzC1HMs1`|/cL6HfhH0qHrSHH21b%Y0+dFv91uUrhylBT$-1BL4HnF2<NKHXsbb+1m<PL1h$/kl3wH.sd1+1ekNd1L`Br1-l-d^sh1b|\\c`Lm2yL45F1s7`.Iu$QN/3h$/XfBA%Ss4hvl<i1$%/8DP/'
p76
aS'y$XcL-UF0E$$35ANLkkn>0-142rmhbs19nSkzhq1Fx/uhqn-4HlhbgSij14B1<$BvCPc6GLw1PZ6BmW01$odwvhHDl+e@+P.iAd1C81wFj$kHgkbf0mH7/nnHTChhL1cRhRXmo1A15H1d3sB/,1rhcnUIb-'
p77
aS'-HsfIwLw0Qarm2J%$u1lL8hkM>r-uTr3QNoQ41IjhVxHhxHs`eclfE$r/VhrX6CWr$0<lnQxc1s2rqP$mdi5musb1stGMHlx5mO1dIiBe`XnfSB$y1mbrFv$`8dK$`1%g+Tm-q$M2k$XxeY2NMp/1B/FMX-'
p78
aS'19Ar$<htUXua2^Ml%s<iK/eNnS6sdSytnd-M3s|/1FH0hPXod0roSl8+LDD959iejcyh3h+/$Kjr/r>Id<1K6/1E8mHmIfQgd$/xrI4nyQ3fy1nTB117lfhrQ/19H//+tcmrDlP5HUqgHKh`sIMqoN$orC/'
p79
aS'x%H5$Hk+TIlshrvfmq1YTtjrUeXll1B0i$YlHsBm11feDNre$$HR`Vjdrl9llxs23Vly$D0H5uqH`9HR%10i$V/a1mrdSoji15n`i-/LL<er2b-odvr>nvHCr1gih1hE1rL0H\\`K/mXV10o-II$mlLAkn//'
p80
aS'sD38g9XP1vKRR8b/mrH$H2Xkdmxvh5b@U3w,ub<0muB/3xNK>.hH4g><$21t4qS^NS0<G1Sj0droTn@9dX/sdbiq%/H20MQh@$g,3B3drxMdMvfqhK-d9InXyHxBGHsdvhhHv10bEvrNbkEn`aR%L4jkC/2'
p81
aS'$Sro9.c8/M@t$1+Mw1HSI11/$>Mlza$xtKh`HM9$7H$HwBotSoniHxC9MrG|rwDHh2%I49HCK8gblO\\LbI6/hXArhirtAhHQ/-$f1|HmmnBd$1eKr3d^bKciB9Za9mPL8h153dt`by1w2a$HH.IK`5ns111'
p82
aS'lpXti\\R2yBTX4oSmvkpvy5HSm1w1Dndbc/Scl/r5iws3hlkw,CNm$RhMCmphiv4^1jhrX9T`Lt/en1kXe1bXS2hCFbDv1HG1CrDsewvI.xoL5Hjlc1R9b@3%htidr.HLHr1Hnhnh+VvIvlvH<l-d1x1dg2+'
p83
aS'e0mobL87@0oUvmT1elnaKdr/iSNSnMoNr1w1i1h`ieMxXc5.5rqL@llrXbldvQ0h0iL5NH58HhNXLNl2/B1H1$hCe+<Lr%hohS$11LL1XqDhb1`bd1dmH1d1xY$d41dbw2RRhUC0bYeH1dX3%9k^1kSH252'
p84
aS'THCc2mf/31x<i/EaLr1$h.k9R3<91d$b1dfrcbEt$h1b5`vQ003Yu1S9LNr1a6l<$5J5kQ4cE6HK@n2<2U1T1r.bC4dTiNhc1NL9LIhyZBPWdo.F0>CAirT0Muwz1lR+I1vkm,eSIw%q$1e15h.$Q,h5Ar-'
p85
aS'Wvi5BbLHh.$|ll5Iij83cn1E$ImlK$X1`nshadWMid>1MqvBiM-q0/ywhmHKr%`h|P11sr+e2531n705M83i>$y2ckMij11qR3/f41ld1rHV$yq`8kTb$16K$XLnLNh9qk/T6bHiL/xNvm/rDr1vh^m/ic.'
p86
aS'i<1hdRj$hBi/L6lN4.315qVbNhCa8L5IS18wg//1$jE.nhYee/>Se`11d<xqKIC99h5/lqkhn+Nadkq$$0Ni1xm<NgbqRm$Mh`aMhML+C$XH39ix/9BhAiAGrXrl2LmLnlS9H<VhIIclS$h1a$jQ7,<xlH.'
p87
aS'jdSr1GvneBlj`L4<H><hZ@089LX9BhrLNd/>VBE1K<1dr8rLLILH1Nq/r13r`HU5xTovQrXHqhHy$4cs01sNlg/ikH1NrH.HNLkmBllts0Lh3h1Vv92rh11$lTbhMn$xuS1+krMn2001b1`v1ChHf9iDhr/'
p88
aS'A<<t`hM$B1iBkhrP283Mx5V/n7$Cqxra11nUm`1drxhh3ShyMwq@hC191wmgLGtdB21T1+lQhLL1LVh/3nr1og^vd`0$lh<slaEy7uhBr7r1LS8Yd5Nhs49r11Hny5/dcL%2Llir8+-H3ythuS2.dvvw`b/'
p89
aS'NqCf`jr92bKbC$m@xmb1j10Lra8rwnEd0K4h4nKb3i45`11bBr7`uv4hjLB54xr%Xd1P1rnBiBY^BLSdbXBxXuh`@bfAy`B/h1liO1iXrh9BvLTdXr/tl4yM1b621ci0hxSlKdbMcTtsdrMN/AwSs0/H1h.'
p90
aS'vHhU`zrs2.NyL>x15%v%lmkHr<h312Hf-d1113lCSHm7Mc+55MzvxY$ir-1hud$jjSrHNh@HRAvr$ill1$iH/oMe$`nhSdiS<1-$n+H.r9P3nVL1k0ol$+2sk1iM/1Y0nH.tGw10fkc@5g<tC@3Bt$SjMm/'
p91
aS'1Eg1S9+m0iB?B<YMhnCLrM,MIBbqYdoH2`uiU$dXh4@SH4hSVh.n5IHH52hC0ic-HH$/r>/oo$/lix+FhmRjb@i%LMLt-eCh99`MyhBt/13dP`ol/va$WM3lqng1v7k+f3o/iiEeEqPAhlHxu5ivgYTe4P.'
p92
aS'xhBLbhR^jif01w3/K<b43i7$1N/`\\nxo`ih1Q>HrS.N1nw^LL4SjdvCh0<1H8h`Byr1thjrq3Xho+Qm0HBh.H81SXi<l3nvn`C1$xIdjo5Yh`dwaLvb|QenmSxbrwYXbhH9ilYX2EnAHX0diN5rhX>Em151'
p93
aS'nd/airEh17I4Vd/1YMvR+N15Mrh1-rrBLlQ11sfeniSBE/v/nrbnPXy08<iLc1$cruHX/S7NH9hIx2lotlh1FQgf7l1b`<JMxkwd3Kd$@$xhjn361dwli5gwl<3R8nh<HLHRkHvihoRB1T`/x10x.H0--51'
p94
aS'H+jS$,dYiVn114yRhSLdLBXrfH500Rd-vei$IhB\\uQLSh.p.K$9rw3LbRSC1Yh1hHhDnNm3bxvyqh|@ZfTvq$l\\n`6Lb/Hb1dHBqS0KUvD72ie|xKa11HMBkvr/Hg28i5i05BX5gHrYrx%x%xdm3Hv410H.'
p95
aS'M4Hq1VXyX+n1xBP`N11HkStX^20k1h/6@/0/$2aYs0TqrFjFt0SrkX1vLLVlly12H12xLh/`/21A+stc3jvC^HLmbhL-Cr$i5311I1HdhHoN%4r15hmjXn$Ed42LQwhLdNbNu-<j1%$lx`dx44uwqUv4iY-'
p96
aS's3EC5ab11ncn11cl@N9b1\\qcdBC/@dhohqjt6Qx$did8/H/aqsb5Mq-h1i<v11/Fv,3hNrPyI07$`gE0omC3d8y1kr$q,\\XlhW`c3hmlev$,vhBr`h1@0h/V1hhYel511S<C``U@%.ed+,Nc<60DRrxr>61'
p97
aS'91w//a11oLdbr3iS-Awlv1/l<HG0YI`<Wd1M1Hr|LBiwnj1-Er0sg`$ccDEox<mb5h8$1ssfH`LM/iunXncrn2s1/cgoc3nHLXa/$$pXq1`FT6id61h+Hn0d6VyM$i$`HrL1hlrkLMCb0H.$mf/6HmoNL$1'
p98
aS'd1CT+Cc1y/hhf.^8hx1Tq+1I1E4md%wHgdqi7hdL141brD2o4mb8n2hr0X4RhNXvrd9Tlb`fl11-N/NO</xSEDF$vlI%x191chCrd0xi+SN3/oH5x%^RirNnmLd8EB-$1lN52y0hv%mVD8rPfCmeH7Nh121'
p99
aS'`Y$EbTrw3FhvbL4v`RNennh1>4hn13-sldvYDbr@2EHC7/egAm$MHz$bH4>XsbxlRMkSLSDX2b>ehvme<`\\bN0Hh1i/`KW>T1l|3Fqv2B3X0ovraoFln5NCStslX1mL@1h5r8d$1P7h1xXXbSHTMmm^rVl/'
p100
a.