(lp0
S'mCdn1.cwoiooQIemo2Iy%jD}SlmCEm3W:uoYbCfdjixzmIof:=2tyIdm0wJcleNfnwxIJjze9iwo4xIW1Si4sYEx2n_jMZ23bo%iW2c?1NejBNCbqoLydEaWM2-imnnB?0I0s4%i6Ojr2eif:I=/EsOk5W%'
p1
aS'Ym6Jg,.Za8wC_gi2Od3.MwIdaD8%NM1MS,a=egwx3p{yo2feIjkm2ys0&00ZCY7Mg9%wzMDg84rnZge5jc0nZZFr0iel2ImITeRIIkj6s2Td]I70jtjebsEsmCw2dx%cgDuYi6fizj2jsn%=hskrLyc3gQ%'
p2
aS'LdcoZU?Lp25/N1cjTD{:Lien0e%IodaJs1i55e2rS%22:2ZDm0ia%IAS6Iix2uo3mtgoua4cdwcqmDVeOs2fIDiIj65fto2sne%isW5oO1w%%MonMeRAuboZEETS6IMcs&ZziDrZ2.%I1=YI2Ui&I:n3ww&'
p3
aS'W3h%uasnS6XgTtE8t5ZcNE%xirGM6&IsJOYjpR%jXJc:EM2eezS1QUmIdrWRn3gh%eepwyTi2c5sz0sHxQoRiw6_QGi2DI.VE1_02g=4H%d2q6azzTmLt4Iin2%pd0Z,m2T2t/Q.tgxoJh8Z?JT%dF:pI,2'
p4
aS'bhMY,%GFyoYRaMDheDDsaglkj2til1t442LjJehoc5M%jNUM}sxmcwi9mEFTOp6b2:h2pnDoaeWsRTxg12eNCa2QigTzEhYl1:2W2DOBM6xaJc.=waZ222d2,=iO1mstI0=,i2sMjeY5woyaCE2/rI2cro/'
p5
aS'iIkm42i227wicCnj6a/lyn%1lOmRb2201%x6I0d2Ws_:nreCoIHM2pb:S3sjKa8kX_Y9Ne2Ee8Lh6seaR2]IjsBwtp4I/5lr%Y%iIvcTljIwZl2ojrM:g3ip6wOQ2z.ZzW4ROIk%i6IZoxmX4%5tzIdgN22'
p6
aS'Iu6.l43r:6N9s2wybo.LE2m1Txmz8kfeeCfcM2hTcJfl%bTz%N&mfo2.%%kr6jsd%r2Awit36X4jjnS%6oe%7ksis,9ECIii%C4:_d.rxnGxs]%N0IoIrIcT4n25ssjc92vSh9i4G%wI%y2}t/Qj0ACIZX.'
p7
aS'efW1wmIvkvYjmeidiaTij26fII72a=%tjZOtn4,sl2cE1hwm,4&26%yIITZlYowN3mi%sMoTxTaj2IQj2Ds_mLVoqtdc24F6Wi3_0cvid,5c8@2pWYpmGTWvW7486R2yn%oocZi1tid3s40c%YO4gAPjxy0'
p8
aS'.wWsCem02w6tsIF2iLb,YI7JjNsZ2=hjmiio0I82xSw5S-i1cFoMzgten%&3DepmMcL.xIIIiej52ayaR2em,2As80sus2%S221NZ2udsDLwtTwa24c%2xUI4526mcn{JYnViM,=wljniHV3TijRzaeijs/'
p9
aS'eoOS2e2JT,iIOBY%z%jieM%ju]jtk.]w3UeeraIjj7virmS5j4d,c2lu&MN4i2CwidfaQ:2bsImtEtixhj+o2Zj,mTlO=5Vpi=2y26Cj%yibebemM&Qsoe20YYwiteecrSmhns0n0ZM0eU2G0sdSGt=Zi_%'
p10
aS's6sYnbw2M6o2TMYeiId2opmMz62SCJz2=wN2w606Qo%MlT%MtyBIfass3gJWT9wR2C2x=pFeujoeoQ?UN%RY2Uj9kGFigIcDlzsswSoh6i,,j0jriDD21MYwm.Db=Ec}0OjeMi2rouR27zo%lSd2A6I,J12'
p11
aS'/jpGl82elInLOeiiM2gTj.nX4ZJGOiEs0sT4=iijae2s65Gr4jc2eOi2_alydTti2FAt2:j2bE3Ts2I1manMi_jCyO2wCj2556F3c%2oMaNp2tTgejI3Ce0Wiui%Q=MumnjwrT/w21jOJJioTlw,i%t0fk0'
p12
aS'mimeFe3ZUJ6rci722zJ92/dmOTm042ssTaRe,sNlSYAwCdimRci7a=sSm%_Wtd]MdE2dexs2%ErVsA27F2stau2YisjeTi2ccb-dr?rMegNzIz04DdMwKv22ols2iGiJ4e91w1JliyDm%e&we2Ms2pTCuQ1'
p13
aS'sE%Zy1jo7t%51i2jlO.&wMemp22MQ.YeYAmQg2j[TccJ%.jN0csM/CYstm-1292zj6Kekd2c=oeMu2YBT=oc42Tn%Nzgis,tlDQi2im/EI%fuaggeic=O0.i.fiexmazdx55s2ClV,bscmOI?UatT/ja422'
p14
aS'4/14lixMw&Ids2ALIfctier?tjmfM5dQJo92LW0MTG%mbOsorarGNi,95Z2i2UcTstTn3BoRe4eTsr/Iimc3br%Y263wisdUMoM%BaNn?0lD%Ijf2pslST=ldei6,fsYhZip5TgYIOih0gojSiae0MC4402'
p15
aS'hm2NBm3mN3a2T&SiT/%N23IeD7csYihjzxw,J-MsT9cicUjrzk0=iFsQ2RIi%KiibeG96f4vmnCLdwit2Sxss}Ijiom3m2J221Iep}.2D2IpAM2I%2Nuh1C//0meN82c25IROsF5zti5V%jlI,W6we8mo%4'
p16
aS'Z2ee2i6%sCo2lfTZM1zpg%=x4Y%o1Niw422IUe8U%BUkYRuy89i=I-m6uT%/MawjCo%Joii/e/j2ZsbiMNlO:5C2%02O4212-23jZ4jisVld5iirmcYusec%9MSeasoiEy%42RiI,ZqU]ichM4/Ak2Z%JC0'
p17
aS'ah272i2UP2s./onbFT/Yj8aeNaIimTlFF12hI5Ng=j%=2D2.%z,ix6Z%20mty0oCFT.ui=0s1fSuwQs3AB6%Ob1om=OC2ICcy6y/]4jtuBw8ll0MI5,ZC=2%623Jgeca%s=Iwxhj2mjIpw42sfWT3Ao5l5.'
p18
aS'DixmjsdisjICoSvY,V2f6s22sA6q02wInj207ZaZDF2Y2e2es2:lm03iwIS78c2UYOgylYPPw_1.=tTuyjIiR6Af2iNwj5dO5syE%%do%2.{M2%29lyc0-clBU,M8I2P2McmysArh.aTIQ&nG%FygjPLsm,'
p19
aS'.Ds%JMI%zI8TajZAqU%GkitzNivt1IMCVsL2rAQ60%fw9eD%N6i0jjnwIo8ode2{A%fLN1a=oZrg3c2loc2fZIGaw&iIinwI=T2sn:dM1aai2IMC{2ozIE7ie{i=INcd?wmyv2mE2H8u6yd0CI6M0wFni71'
p20
aS'G0j24%0?hxda5e5%tdFja2I9NOmigcjYisi2&eCIemO0M5nam3CICn2cniTi=:-:ITaii?=trzHO8t22p5FoQwQR6aDIds/T109{S_MM2ck5r11Dsesw.cijIQni:C39yI%0ms?TT&oC3j223/:JscmeZ-&'
p21
aS'=3Yj282roN2Tni==xE2tlvgwpg6TC28O/7T2c?jeM%i3%R55vMf24qvoknM%YsepcUtwTrDbzfeE2i0T-3f{so&AeXIhik22NoilmVZ/1bTxaMDNiim-5j/IIEUi4u04ZYi5mOl2rsI54yOydNo.zgD4302'
p22
aS'i42Yqd8Z/iMnIilTLd5_n123sxe3Nn2sy_z2Ch2dMVlIM52lThyms90tI}e:IpXism%IF2eyBbIIU%2sseiuNIMIalLkHr030oI20Z9k2A&bNkI8E0dZpMsOcxp0S%BgO%N%gZmiYIOQ5I/%rN2Qj%20T%2'
p23
aS'TTlim0WjlaTTjMgli2Z6iIjiCurecc/jatYZYie&td3xw2iiij0Voeuhz:dlnjZiodi22os0vXr2259jI2W2jvJl=fEiwjMpjIz1s2ipeZ9,gd2zq:.w2C11,&e=D%iQeizrIN2f%I/bGyevNMtkwkeE./2'
p24
aS'QUip,e0GJ:NYd6:2IDjw4LfMfgI0y2j2j%UWn2tThzpcisC1S:jEI220rI42g22Ox0,1mD5jCRTIm=oo4s2dcoN%2XoTn2cOkF01p1syocsi2rjWcINs=oNRNpe1B=jtY2I2:jnxa2M5Ziwui4ciimcn2e0'
p25
aS'iMzZ4%D0LarsaIs4Tfjsj%w2eij-&I6ux0oh,6MrosIG0a2swi2PyDIp30mSVaO29pea2cNijndjoxb4%AG0:zorF2,cEs0I12ajzi24MS.Jl2ts%ieM6it?yQZi2DN20oo50sIi0]$xH02h%%:scs=%x23'
p26
aS'reiORss%yImiLdGOJDsOI43%jiOJ2iy%2t2JseiOyczgf2d5Y%u.N4iiTkMMI:m2a2&yH4IoNjjR_g4NnibTeAdojT1lMI&L?gwpsDCgTans2ics/oL%lN2ysY2lbesJh_a4OwP:al1j%eD.piy5[rCQt22'
p27
aS'2BNE0916TeXn2nhI9Ja}mO9iIk%E=E2bD35Izo/encpsp2M4ooe%jMM4ZLw1zr%0Lie0siixs_bNp2]5wCF2is6G9LGr2rX3-F2m49ImBZYJGkeieY22va8V=m2Ej3Asg[iOzmD2IW22JOZs2oI6hnmZsY0'
p28
aS'fVi29FllSnkDTAcsb6m2fziciCiZ_MQCeYsniAYIsi2ToMizr7ns{NiQI0sojZ21hzjpe:tp62c2czgw2z%1cM/KA:5ZinqT%cff=anLMtjk720ZIsUsJtIyT.5GbmL5mcJZzxMwdNJ5uReYrIsly02osb%'
p29
aS'=9s5sfJU%6%%vs%Uyjj:a42pLTi.2eU0J,Z4Mn,Qu2tNfOMWOwnZ:w2t2swiM/jYoi%Bwjx=ktm0%asAE2O.6WSIi22cMyh%:i0=Mozj9W2%wwz%3n0D%mWolgjW2I421Lajseb2O:2kwzpssCun:TM%r22'
p30
aS'C3x&pBCU6c:e2=/anptZEs/ce.I6O2YneD4Fjx=I:2bgwccFrM_,%9R9TMNws6TfT6YIw224e7YMs2vv1Mc&jLMs7MfZ1o6I5m_%{s6/B1TeAC3Yjjje,%gstsR[sT%0IiRzcE-6z,C07Yv%2js2_tEo520'
p31
aS'Oh0h3txAj/%j0eT=sxicE6iG4w%%YGoC0sja%Fd:iFi_%AYEiLf%s2TJCzCNzs.202ntmsV63U3up%2aoZ0iQdc3jifZ.a&IDrNi4a2Illnbr0igi.E%y2dbaIrjfJjcomh6iI1,OiDULN%t=[O%I6:uLS0'
p32
aS'i22aee2bQZebeJfY2coTssov6LD,n6isofD7j6orr}2e3T:jyPviToBMIeaIjNZon8WajnEaw4M:%AeiA2ICzCMZ:QliceQNYNadmJLOeim/xNs2TJniIje2w2eYs629%Oajo94I&,2sa22r5ZjN2Qu3r2,'
p33
aS'29cZ=4Rcr8uZnzQjpiG9tDjc%IIMjbeQ2zr.i3s2S25CuvyI7ITixgIm2im%i2Mw0eiy4BiwtNwCic%eZ0ppni8n2Iq_m:9arA1Dsavm,si01c:bDer,2]O2Iyfimw4Ob[eSJYjsI5.[scoj:w%RnOZpf_.'
p34
aS'vf/e46m29et52j6}fEfmsnnnb2sSc%tm1b14MsxfN-iIsd0kzO9432cEQcBs1jIc}TLYqsGNC3Fyce:MceYc&2rONMWipxtbo=BoYeaI3ncDkitfs1o2eoiIe%3tJ7o0sj7raOcTdC0u&e-3%M2fEsUufr0'
p35
aS'CsoAn5E%D:jFA2aEDy,2.:ayemkc,sok9eDzb2SnE22zkCISmIUDtcFR}b&Rsw%MTieyT4Yg:4WM2d:&0cUeMIPoISejr53%2jGkNMY7cJG2DMNgL1jyo7esWWLIEi/Ot1y3fi2%MuZO_4jYw-Jkszjx252'
p36
aS'i,I3jOso%a,E3msVSJCoMgJaoDR-1h2ZZN5RCriCcns7Z:/%i2pMW2IuxcRi6zQec0NIa4nej6r4,gROsssINcieLmO0O6D60azbCmjbTeRc2Ijbcii=3M/iFMqh9MRshUIT%m2ZupJ2sDzezN3ibA5nsI&'
p37
aS'hsijocL2oBmFj=Ma2zF0O0Fei/w4i4sG/MOyoOlR%lI2nAqYfMjs02jcl/gmHV%JHsOZcI=eFMiiWbN6=N2%2D2:mntIS{Zl}0O%Y2&2YIsTyQMBVzoANQ1rg9J91Ms/2iUTck.0j3m%iZ%%h0siLi8nj4,'
p38
aS'4LTqN2Psoc1VMl%x,mICZwz4IfkO26eh1saOAQc6Z222e6odo67NC21c%Qca2s9J0IZcM2EwYd0s:gw023CVec/xEf12i=n2iIdoZCrgC5sLeaemi2%%Su2s2/::%M%@amCBMccNt,f5MiWi{mwe2E0bFv%'
p39
aS'ea2lr0g6i29M5ocAZI9pg?2oIi0OILS4J/oBY52nGwJV2IeNkh,]vSmTaIB=sIaetL2Fe1rkwIh52nmxqpyci4jB22we-=232jAjk.I6Wc/2Yye%ytT69_mf32Td_NISCosYaDY242u=oM[Fj2O32su4jZ0'
p40
aS'cD{It52nY4=/klNVElk3JIth7,s6MYO-62pIsi22CInMYjsru7%y8nI_:avDNcijy1Lx2msox15v%ey6.mEF:roIJp2u9%kOfiCoWML9%0FgYITmu7CY&3?cC&i0ilgjT2eWZ5Yef4VIw5vuwMMb1%%Ro=2'
p41
aS'TJ2Oi1[bcY%bi2mi=iN%2]YsS30of8}E&i2jIs6UsMiOokUqvW2A1aIYp6Ne2Z%2g/yNaJri:ep}jLEtl%hVveEi2ujOlsj0cwI2%jR2cbw2/f92A2/YhbtJC&l.2O:0TZnf2jjuD2csss3sZi%MY10U0-0'
p42
aS'eOlIAWz1Lvj5piT3IIU7w15e,i5i3etwdTt5ijjuw3siIOZ324htXwI/n=oz2c1j:Oa9niDlqii?=1&864yjIcC%ecZk0x2oFv6lIZ5Qa82iIYGiB2%eT%.jN,UV22o1p}i=wa?eY1%jy6w5jzy02c9sd32'
p43
aS'2sNfwTI0IOch3wy4on:LoCTI?2In}njbw/R4cYFrF6eSn3gb_ynou2%QS0FRu%c2iiFzs5N6p%7IZ=s9Q1ijgnZ2%cuFkc2225Z=pydZ-oZi,sesM::N4%on6NNC?Drsy32L3Io.q5gwYgcy_Y:wsDTZre0'
p44
aS'x2nfCf2oyggXsDfo6i%ws85%23dOt6nA4ms:6O6coW3IcJxU%eZpemZMeOs=SrrjFi7o,sTNI2IMeZ5IW5i/o%oPmno2.L2mjqsvhYNEONINsjiH2nmci206w5m.feUmcvfsT7TYC0C5e%-%TMzW5mC2cC0'
p45
aS'xSMm%AaiMYE2UYNe2s,sY6kEu1Xrsy0cTq:INt0ewz-i43Iyu-5:MM05NMz1IVyMGm35XxiiIIj{vmDNtxsWIYU2xiC6yDnCV-ieaQqA&yjc3bagxrTRQ5iriiey2_07Lz2I0yYp2i6DiY%iiYY:TfJTnI1'
p46
aS'ml%2=gridy7022_c2Toe=&ILDewpD2o/auip22AD2niy3tsodIOonyMiI2eByeltD2/fiUVbIswC2O02Z1cYaF006R2W=jaIcz-NRtIpx862isycgUUDp0Fs%Mimi8iuld2emdT-iroD2Iil%1Y&F4kek60'
p47
aS'v26w0oae2%y_sis_ncb[0EN0=Dje93=B2RiLp?sl5IOiv2e9DeNQN24wsjcI&4DTlxly5/s,3M4M22_wl3sI20siMc%%.J2m6%de%0CI4%BsxdLzA6653_cmwGeosrmn/cial/aiiJ=wmctDi3NnMLR2-S0'
p48
aS'1jS/ejw_9s208nF72YOAc%N:osU%%RaatCiVYltkiUM0yO22%%coi6Mtj8w12x6jY2%3T/ks8Wj2at/uOi=ib526JTO7odDDZosj=Ir2sMb35:IMbb2jMz3BaIamjyW4O5h3O0:yixGU8z5D0icEai._k%.'
p49
aS'JjQwiOoUjgTasH%OM_/cIhy2zZ12gfM5Ws5a.2go4kenQQ0iicat3Jcn5m=sI2x=.B]Az%ofIJ%6jotIFe00JySIO2jCe?LtiafY?od4L%pmY1oaLDeOmfMNo2ciEJ,em2Y6nA0d5MoKe3tar22Y2x%3O2.'
p50
aS'nk,ls2MIuMJl5Nc4IMmDi34R3yWIEoc?yAimeAMeM4Uj0a222:F%/xebMS0ffDA9Wew0k4tAD5rncI/1GImir10c2ciAimM3Z0daG2o5%QLm0Scj2TG5=ejo3o0Zn0jJ4dA2j6rmg2YQdd2m5A5R0gNs:c,'
p51
aS'1=p%3tSId%&2hlSFfUlmOa/20JZiCG8Z%SX%uo3WIb%YcaoJe0k%Dem[rizcjeikwfOIx8%0rA32mf2NyNIJsco1lR0I2MiY5sm/m.bsyyj=eoIO-m8I:Lw&JR2Ur:D0toBOINu3MMkovsk&.%O%6t%6fR-'
p52
aS'sMmsO3k.=Od2IIYZ713%dDuOImIDIm543,Eacj4/Os1giIn[G1Rs2fz3/tDp%sJTtjTkZIAicC2ij8r3IeLngeaeo6W.sodJh/l2Rwp1I2m%MmcANostRs%aioIesls2?II%ar2.21yt5,-iAZM6OM5_1I%'
p53
aS'4:p%%s62?=Ii2VsHAtZTLXy%syjONJ.w%0,T3JIxj%owO6bNgj660pjMcIcXLsoNeAB,oJzbQdyYj0/fedseoSe_cuklLf5a%stZ67%s/mwg3A10jCRroIF3%2di4J2sM2iTdI:0zo:1{WmO2.2cs06D22.'
p54
aS'iutkjnW2/Id?a:R223DuI2f%Yj2QJhYQ:22?JyARlwWpIm6Oy2si/,DiT&S=ei12%iw2dhMe3RewI0?_Q/2T%3IM}U,u2jnc/r%eBDq0oY=jfNyoC2uYCUs&xDI0xoY2D3Dm27nsAosMo50jn3T6ifEY%k,'
p55
aS'Ijs?%jcftwO8MTJj13WeMrOm9,JRn/MGe3rS6a-jmsaJMba0bw=%zT3eeII6jhZjaeFYj,e4siw%Ps26C4{2My5ZOf2oz8ft%nDd[O2axYjCNiQdv2[_NKFkCU?ecy.30DynNld0NsM=ISG2s0v42=fjNt%'
p56
aS'egiF23pyro6IpIyd7mEcCvWG:MNe_S1i2il0ijg1Avfdi1S52eiyY2QIzeir.3w6meo%%Ca/O20eH2iwMrspy2{QZj%wN%]i2irsbewIsI0wSO/s:i1mP%6x.MeiTR:=Iso:DidV%MBLN%c&mjI%2Tjent0'
p57
aS'5IW:ao5tidEGni9glefpAl2d:iat&=eDAiL2ya8hdmoQx2Somwaa4e2lhy4i%Isf&Mxl%2MeJZctt25jUJ3EeA.Cdz.xxL2jWZ,aoiO3u2FILTd02JEIdfT,jMiJFcoM6:iiUg3of6c5k%t5ms/s2-p26i0'
p58
aS'2ilICLDj&5.C0y%vw%5nj2OWmmXrnLs6I%TjmiLus2rn/cC12zgiagjrMtjRobHIcDja2e%iHoz5e_066WkicDdGeMw2Ijqf_zexWtaNA-twCa03M=sQYi:%6%%4o2S2Z.24eXY1YjcZ%sBLA4j,wa5v/6%'
p59
aS'FL2IZorCi%&xcF.amh2=Oz._B%0OsGI%gMNDj%%2O2DVsLeOEiMo0rj2jz.oI,wMxMCfM4Oh3iLmjim@YiP00Hdr04SC6cMe%c:aaoc29iaTe/JTrSt67zxotNd2[.VITI5Oj0OIIkCjSjwG2kj222ei,%2'
p60
aS'n:RDg5DsY%Nrkp5Nh2eU2e:rLDNw%:dWFNe.MYUcfp3TiCUy/ysG2-ikin0jOlti-Tc2IpoecA2yNOBzdI.em_[Wj.rMO0DgI2lSe4gRa2sIo1gyzlj_%96rs0Ssd[mnsZyj%:Cj3ajI2G6DpIXo-x62Jo1'
p61
aS'k0IIn123IvTM22Si5EzYpI22OMT2aa2&GCeoITRd31anZcp28a52e2INnIjNis1NbyOiolreI2iyn.W_YbcZceTaTMFI0.66.edieFcHA7Os3rFWsf%nXbsCh%05%M.JRh7x}UL_D8o1Sccn4O2Ouicdi21'
p62
aS'glQ24oTeyYO2w2YJuIs,2wB84MfIpNItY4D%csN2iR9VDY:Ni%0weW25ZdtNR.242hmx2wnM/2j22%CYiZsMCc2ser0Eg,j0N1NiIBm1i44rmrbZ_s&M=DIQs:xl:jT%I%ci4FseeuvirCDTkOM/oYei1f/'
p63
aS'o/2FDeraAwnMfgir60MII%/w{UijXDaac2cf_46%swnN_c4d,kuY1ltnm222.uvij4Jf2exMxrGnytkx2kp=dY4jcziXjajsS,2CmiMMr19qAIIb.mZz{wisUon&%IijsRCeIsvMYIs%JI2w/oTKiMt2=w.'
p64
aS'OldiTssl2Ym2JMp7lansARs202O2ji4uspULey%em280ine5Drz&M4:%6fcO13,.np10i%Y7Qh2DM%4je5mjw:N.auwNj%w2MZiA%iZtsf4oeln=wtb22W_m2/T/Yp2zj5Q0W%k2ZY{&hM._036hl%6iT:2'
p65
aS'I65j&Io%c9cc23i%Y%N/U92szSIp2u2?&%=MCcYsjIMo4Uwfk=i2snol6M/iiLTwere.s:2i.5022maINZp.jtFZN01sIvII2Lswt0rkluI[u%5e%ckGTNM05p5zwiipbJ.0i22-%WbsaIv2Mg%nZotNKj%'
p66
aS'20ru:s=jh.pTI~QdrC61mEr{igiteQsB22tIrejoaee2uNatcM.vCT,hVi0spe0cQdUAwDo2nU0tgesl2iOM0aCMYr50jbZiZ8mwT2o5RMa5xjO2prLp?Zmai2HCc%2nI6[822NTk4.opaiZc=IacSIjie&'
p67
aS'Jo0VBU5CNc2zOD%U%Ti2giRI2x0jeZ5i2C,AuxBjm23el&2Of642,aN=f-i2QZrSkFNQiTCIJ,IOgN2MC%eis%iai2Y3jssiQ1Iwt5grlI=0sMTC=ejNIl0IYyf%wTnIDbtLN7ejNcncj-o2snnaIOC52:2'
p68
aS'Dj.MMMO1r2meewQdurcjjCn=lIt:G28L&nj2.Miig4k62w}sCrFe,2qi&Ui1Na%xcQlfwsOmjGyQO2rIyIMiIi0yri24-cw69%6ic%eiaQK.ccIET/MIe%oQX0jibOE9i%O7ciewmjZJd%ke6uArmtAxtN%'
p69
aS'6hgRw2Iek%s2wx0c%jdsjni5M2M6d/mbQeygiOmRIc0GsO8%s1pwvTNsOcarTI9%al22-2ig:fcQoegN6eCIi&yOC8Wx4nsJCrs%AA=.rMCCsl/AwTmycacibdu19Q,_e2l02p%180h:%Q1Am8mZY0Lnu03'
p70
aS'W&r4%L7OeiC2s_m,cOD2Ys7fi95/i8ahZS6OgcpjZ1xYoO2A26e%i10Dz&_jH%x%@itD%ZFPtzIcd6_sU4sc2%ah%25cICsiyAI129OetSMoSj2mmN442TMcMa25IB0iH{iAtlix3BecToJrd2m0sJeTcw.'
p71
aS',4iI85Ce/IOo:sIatJUm12kTCe6&iJ0xIOswN2op2ifMQjkCR4f/Q:&DR4w2=/ICMDe4_Tu_%oJE2Diy2pO6%%IQ1i/0r8oN5ZI:Itg2oZa2N%2fDj[Jw35S}g,RY2%0O1jj2j0Cee2JI2bC2i%m4n%Jos/'
p72
aS'pslk2py2[i3w3yrA/ymI%CptIwDv0eMx%9mEX9aZNMMVjeN5ofm&nx7tBYtoi%Z4GIEncwaGs4nf9sp2IL1iro=.2j5=2Zrcys%MiiBeZwY:M2bIY.aMOnyMTLnjIi0e2wsodVienxpgOI001%,xRI=i%2&'
p73
aS'ejnMi&2DpYoMY6jipNOQcI4EcsYi4NjA%m9Za3O2DC,eQmczT3yYMZ6OV36Y42B2e90eg2/e1FwsRSriIcgmjzNS6TCMSeCjQj2jn3ELLWvk4Le%nmYi7rKNwt=ehDRx4IBtsjs2I0in69MitiFs2Is9O2.'
p74
aS's2Y%y=ofIt62i.3%22ssJZTZ3:WTd%_%wgiyjMe,9Ce0i61awxM/7jhLSItleoiYtjwcC0B52Y3iio2L7c2sII2:j60JCf6817s:0Q70434022:nOGtnmsFZ1L2%oR88Il%M&D3O%_MIsjAfj0,ZI0Wtwc0'
p75
aS'setisOeIjj&1IeumsV=_lY2jR3i1Dw=s:2/Iit2zo&z5isoy690o10ut2nMSdj%E0yI%2xIJ9B0cJi,B/j2S2cLZ02fyaQs{7klCntZ756/liua2,&+BagYwi6%22iSc4Zjj0cWbOC2KpuRbsOmcae2ur0,'
p76
aS's%CE4Nb]shl9%=snBs75=%N]Ibbb/Eoto1nJYt&2%DIHoIGsNjI%N=c5c/6iI]22m2aEnLO0Eslsi%L_IIwcp4dMR9oy26Z.0aMs2iy6k22xhm%,%21l_v%/2,ecwnCrz%rxQ.42O%S%cbeg9z%osnIOj.1'
p77
aS'Nrmycf/ii&Y6%CjrofjFcZ6jj2I1,O.92l28=&&u%cpksLkGB=C%oNIOh7xL5gW8sarCJZ2c1Q2r=za,rwi}jr2IIoscunu58mioj%]2TbMGgrT4Tl_,2Or%2ugQZIc0Td3dO15un=0Mrcr5cCI3%C9WT%%'
p78
aS'2biRUYn02fMimY5Ye%o32wJFlpa9acUM2/ogTfijEYf4Uoo%iOA1MOJiDoDIBDj%6DiE%oO3B%eL/rjIeW3ywsw39IoiZisIm-L2,ND]6,1{aiogI2D2RSOZjr./j:f.xkxC2/aZDg0ss2W.oIP2w2/m6s0'
p79
aS'lc}mir2=xG5%MZ6Jts68i3T66F2pc%jddfh2XzOnsMTi99jo8eCBt8Ias.O=Qa0mLr2xJ1OY%26ooT?cjsyee%47s4U.=D5%-2,cZzi07.a%MRVtWR2ma%o0rk6IaUOz5YhjJiFOi%LjoQluiwwRThc:sI%'
p80
aS'W%Utsj2s2:%jO24iOx2Op?2ytydL0olieOeIIwD.2yNmans%26rMdEmi85&8yNy3JNzl2SU/22&Lsiroaa2ijsju2sIvrtMay1b/2nciMs0o%n_:3xT@3qwdsp2%ie5MQ20ZptN2h{zQruQ0Bnig0Oc%aw,'
p81
aS'.IfJrmdIE_nOcWC22RimOomii0%212e0jioF%:CNM,0hiesOTioQZrWnmLORENAmj.NJAkray-D2}mwnQiNMeL0Ul%t6w:mbIw5.2uxL2ncI:%rMCc.I83,ie/niravslowY63gkWJoYaM3edQf0YJ3k422'
p82
aS'DasROoNynkuyvj2%2MXkEGm2jDCgwfmM:D9eyNyI32gt8aajN%ZzUoxnFnoilzpj/ttjImiLjY32dm4co6227iIeN20cz2eXlc6l0sx:sy1I2ij23A%24Lm,eyi2IaMIYrT824R-ciizhe1,:0zT{&JcmR%'
p83
aS'xItAYP=jQro1iwgvT9:2c3nTI2CNb33wI-IiI0Sngi96e2bNGy%hs3CNre=m2MNiiOOCSG?Mcc6OiFa4=2uNnc2a=MsBp21i84c0&jy6Pn0NqoeT-eoZO5_mzi2%T%sMsai0D04nsyj2Fmgo1A20ZtnoN%,'
p84
aS'DwNc0ZNv3z4u0Oac2okNifC9l:%CJ&-nRIICFYjoT}Cnr1j0iO/%kYyeM%oikeisbsoNiY%Mzs.6IIw6MuJn=m.0i026m0OQ0r22uiT%eBywG4iTIMo2sI{}c2wOd%-m%m&%rFsYYrCsjJ46d0izQwcIIT0'
p85
aS'AWDI9wSayROf/CFcseSi%zi%oofUjS5ZFEuej.IJifriesot/t0x4:d%ddG3UM3sm.0dI5%6a5.m2e2%ucJ/CaIsxswyzi,ln2DhO,x20djS_0gV2t%%aE23s%Ij2umaoLiJcjIIiloZi2IS%90AIyhrx2,'
p86
aS'N27L9wwsF]I%ib&emcvmScoeTgDTy%5hOjwoZEie0cE2INm2D6yk2thiJmrFONN=Og42fiQ22I8rMjjWz2_7ai62x6ssyQi28j0NnT2%e=scJrpJIMFi1G3tINi_c323pe2sWeme5oY%jiis2IzL4Y/2y52'
p87
aS'IMj:I43caWZajIa2eS.e%Zs%G?jMcQ0jZDa2p=g?fhcjJnTq22d26Nns22bjjM&DiuAEMk%T4coGne,%afCNwGiasURi64rDac=&Il?e2lb:jj6%cBi2nVDMIdsij6,d%M752=nI6iTo2O2t%230dx-=I0%'
p88
aS'2s8fA-Zo2jh-cM:ajIVooDLoD2em=pZ%.Eh[T0b3gJI9qI2cOw22ioYZl.3ify5m2T1t%2=yIak2LF8B:U58wf/Uip0wmTo1SizO2oXi6j%:bz9_ZL2cel%bI3%BajOW3/sooTw2p%52C0S27gtSsloefR0'
p89
aS'3NTry3l2D7yNwsemoSse2miw:22%827dIae:Usiksgee]nfuti2f9TeI3ws}aaI0G2:ufZn2w6FbMge2tNtEd21,Lwa0tjmfiee%x=MaF3UzDI2DcT%i2D5Do6w7D5&Qbrr%%cj2Y2kDjOsz,iFnDMIsZY%'
p90
aS'2Isx0.qIy=yjL%L%4Z1v:f2fsQNgBI1/M..SMnVMi4Ok2BiNl8j&fy0m:T4Fj6i2ibroiUo2I4DdeZopdTt0%ZiO.I0.Wy6riDm0W2yI=pwkc=iwjCLXw1ti2%da22%C3L02-oerrfTc13b?dcyF2scY.22'
p91
aS'%NFnIsi%}31Dn%MNZCI4201M42jkOMNnwi0iornDIWHP1nO.sc%%mQNce2Id9u8V1Iyr2/o2sij=IS2C]b0piswMxw?2pTezMc2m2?_2l7nNa%un=o0D:Ii=lJo:QiZ%LOiojcIP2YS.Ft,2o.sX1n5W26+'
p92
aS'wV&9w3o%scm6iN3wyN4uZ3vwsJixtmmejT3o220/lju2wO651jLoWwnIDisu5s22b0Yn2oil1tGOfC5zi8etl?4jYIj]ZWZ2UO:-.wA[28Z/jZg5yUeWsl3simNps{i2IiQ3tTa2:2nm3=rYJd%:swaO,D,'
p93
aS'O4iPeji1%srO04ci8Fe_0OmlaM2i26jCy2sb2mdVlf-/2exSC2oFJJ2DnC0CbY27i.IlrLt?SWRB2cJF0ltnY%yPiIO%tu_uG/i4gi?2czfM23Y6MN4DMprIp540fnYoD_2We=8sLYiDMAOc6fe5M%gOMj%'
p94
aS'crewasMVjmjh:LljsEIfjEsey2tQB=E8cIMD20IQY36ofomZowI2Dh2SOdSoo3bVZi2,Id72w/.qgpQ3Sv[iXCt01w0bLtF3rMrssijw=l:0y&%b=Ofdmp1riQ90mmTMFB5eCd8c9u3cYBms2yNMI3Zr4j%'
p95
aS'=T0UnYuMog8Cjv&Y5jLwdm=%2gtn,so2A&5kwsmpW21/2Wz0wc47YQdOs3.=2m96=U0w2pIY/mcc9N?MRgWnM&=IggY:%oixBTckIj2jBP6UArQI2I28ir%=jDO/cIr1aaUj,af-T2i2jI1pTM:T/x_RYJ,'
p96
aS'2S4njsjsYew2n0Kud8oDexoi0y&gJ22Bii4rs9dvTwoM%13S6=In?laIZ2si4[tlIcku26IyYnMdT0Cseo-eS8eA0N25IvtiZ27smo2IowpeIMcHMewsyMjabA}c=Ye5IEiMsw=Ifn%%jqZebR5sd%cmkO%'
p97
aS'2DPg2z%iijIbBM2SogwmOg%/LMoYn2{EpYd%s2HA1D2cIrIneaeO?MotnsdI.A2e%4%Yc0.1IUAi2g-Fd72lMNe=z5/863-{5]s2eLoxnlI2Q5ilTjRtijjOnIm6Z+z3NxAiMvRsloicjRQnAi-4ZwBJUr0'
p98
aS'sw2:hl%ctIsivy%m%iw6mMsFADI.bI0C22ew:IQsavCjjANWz3CYsa7UT23By1&i9%FI%l0c0Ei4e%gcR3Di90Qs%o5LT2I[%Iy,2.f2ciNTvNmGT_3kdC2D&Gis=jN6zs31Tjs1JnoL051_iYa,15Tji22'
p99
aS'nfc0sds%NIt:auwI82lsI:Q@hN9ffE:CmcTv2t9LzUdI0j?e9wsO1HYR2eicrM=Mifpzj.UOcmbix/c2ey2W205GXsmwy%WoOE]Q77i%u&_SJk/wCyl2wszU1f9si627Uu:kJsR2%4vd2/2jp%J2w&css22'
p100
a.