(lp0
S'i1I1Bh4XW5YY+,YgIT4DK2r@Xt1lmdblrhr/f^h3$t5>`39hh>duG3Rm$23Li1rIKCqTHb$wB1sNXc/0bhrrmh$$3K4.Vexht`uq0>Sb`0-HLf3BuSr$VY%sHX4hySFi+TooXfr,d+fn1<$qd/ph2yy41I1'
p1
aS'$il7Lsvl0EmoSf/1n<C59/.94hm355v5T<7eb-giLnA$/1`%PT/9I@XnALnivHhc`$rHyb12X.$E69y%`nfbhYrHHKb5bhQEcRL%dvS4$TNhm1WB$3+bF-8Sbyxv1H1`NE122SmLc4|rs93cNHBg1Mr`4u+'
p2
aS'cq2KAdNV94ZMfC.qS%C`Q5rX16mB.LN$@59il1P2%nwKYmn*iPo9`Nh0idC19q01w5$rwmAcc//QX6Mshav-edrN/h10P@l@9mCBl23eih$lHh-hhPdsuN8m0a/q%%d`kBh`/dh>NnbN\\H@nhDC1VEvib1$'
p3
aS'p`Il$3l.tn@aK<hk`$e1bbc91sM``H%b^ecikN10hv118jgt8D/r11x3bcDkmtRDvxlccHhnsD+H0SC`RY`M910Lq`$lvHH4n5Ax0avhu8<HirncCiA1Ied%N$6X1-xhsugffQiL<J-mT/Nqc1$txW7B2N-'
p4
aS'v<`<lC1|NX3HY@VvRhdvn`biqrri11^WsPiVM4bkv4b13HiMs`l1h$mc1jnbStNwhh138%yxrh111nS0/em0om1iO@Sg%$S1KjiXSLHcK21ndOwzysg+9.hNm2Ym<b/HNmhsid@1m/4g$5H0/2cRyrS2/81'
p5
aS'ifI1HCA/`/+w94@/jl.ioNiHlmUN.i$0whn7rgz1Nex`.hh`HLb31bdHdh-+0$6@M6kHkh1b3tmB$iy511Cxdk2SEh1ncwy35vbHy.hH9iXYg1FXM1Qg$R3/S@hNHzoVt0+1a5bLdsrIbSjckQg-/7v$ts$'
p6
aS'iAgINbMohtCm1s1jh$nx0/.cn1$cSyx$llLSHy1nmN0IaArQs</MJ1i2nmE5dlh$1o2IL5wch-jdM5.nov4isgkMl,s0nNkD1/of$FhfrLitii3x@$h15d.1s9iHKiPHs11\\btrQsgr-L@S9v1ns+$6.>C%'
p7
aS'rNhIRlck34jE$LhY/0`i@nSQgi/tYhhsF-Y1$vqdH2HhqOHhmBHCrnLwSwdFKmc+iY1Xiw2m62mWX<9UiHs4zIankhQM0t1+1hN/Rbr5//$VSnh1$xhsmL8rwMf5L95`ld1dn^vm$@Srh$nBd11``mNLN21'
p8
aS'r/rTxC11Y.5W3Lrc8$XhSQ<BhLx6nL$s4vrlxq1d>f`cCNrdj2DPy1bn1r/EhjhdlwqP31n@Hgb/`-vN`<MXadU1nNylvkld5d4L5$/@3hlbmbqnKbLY0IM/Ufn1ckhx|Nqs$kK@m.qkrYisilao1%qP^S/'
p9
aS'0/ii0DiiE%$M.7HcL7dvS4yMbDylf$,1sRxv8Blvno5ctKmMP4Pvr/H/m$PhLA1gqSLH1$onLS28nyDu+-3`t/4n2lc$lCr10yx6C%<c28xl4x1`MvBnwE2ixI%cvrhksru$l1rif5h23SE1lS6P0BMd31%'
p10
aS'vho5Chb+1Vq%L$3an1E7l>6Hvm1UhQRxHpHwHk1nBv.dI1HHc$jn`$,5K4thCdQL2vqL50$S^8wvL3q0XI8b`.$$1hfhdKyES/1NLY<9S.$H9l.dNhs$$y3lNlHim1tgi+LhF2Hw3fHIr<Hh/LtdinQrK11'
p11
aS'X1%8nBlc124$jX2KHax/c9x$$1NNY1VhHn1P2bFlhl.n1sHtrnH6s$`XH3c.xsd+S`Xc/$KHCa+8hh573X1/?3L`v$Pb<9KvnvYiXo1R9cwckMr-k4rL61BA7cTqaobbrMmdHBl`1wo<f1i<ez1v8eT$HY$'
p12
aS'Rt2H`ii/d+h<dn59QLYakBCb3dLrQY<sYe6Sd8131`4m8Ki1v<lHostAElBh.az6HKv1mbnhSf6He1L3abz%Md1^XaB$$Lw`$c/r6$drE$@HMXg@$R`m6yq1Erk.1whd.g|KA2c1fsTgpoS$lnr5jx3`tN.'
p13
aS'b^X$LHHg/mXr9o<dpdK/81huA.dlLnrh4HV$$MPmm1r05$1SYvNOtdNyL23B@h5i`bHIwmqc1^rMd%iH1rCrMEdhmU.1rmd5bn9tmxiQrp/5vd<5m23qSHytYi2PBh/d0wHvHibEF1%AXqHHn-rhjLgHO51'
p14
aS'tbc1tn3UCSBh1N1Kh<9y,`LvdIfErS$Nxg>lc3v`lL>45fH1hCLSKi3cYr1WAh4l2Di^w4o83SxNlhduRh1hkmdkCqOdBS%BnM3/MrvGP0MXlhHVRDUk9LinXjQ$4cd4wmP1HH1wmh/H.n/d$BS/db/dmW$'
p15
aS'Ch/cXISy2|@odahimSIre$<Mv>qYOQHvTcHrLb4d2l3pNMd8AHb9.LLN5YC11Lbr3H014nQvPu801m.DQASkjYH2DS/Sgdq9tW1cMIN34dsL05m1nYh1tr27t89kKk/lSz^t5`1vo8m0D+vnbhL5vX$rry$'
p16
aS'1MtQm+Nij$Sn@i5@LokEh09hd1P@ngPLT\\rt$L.KCwuhm8gdmn1E@P$//e35s25i$j4Srh8XDib-2hN7hdAL4rlr01A>f`D91X1<E1fyr`N<o2KyyY5/.TYLdci^r44d8c7<0hI,c/3Hhvbb/hCK21R0r2,'
p17
aS'TIh/HH1<MDLxtrBOXDih-Y$Md@Z0n06ESh%dSL+Rbm7rr`3HYn^xT/xkom41j1Dr>i/xmr1il1LnhI21fdx5t^dyDlnr1CPL/rnHkrmlx9lXHcX4jddb+1AXLqNHhmE1LtrHbNwTv/$vLYH`l1sXDdqwb11'
p18
aS'M`k1iMc@rbnAn5ow$co$He4w4`8$rFW1-do``/1Gn/n3d%H^x1ihihX11y/rrnSdak3Y`Hw`1V1prSe@/3<EgIYmq/h2hyYYqh72TNH5ha`.YHmorNd$S3Nh$HohY$f41r1LO5i1EiKdL01Co5rd2E$fdq$'
p19
aS'K1H01OyBx/$XVfhB^iqN4xl0//flHrbh1FLn@rh`h1Wfk.J\\mLHHs74$kh@ni1r3N$1qRYVnoSw9EDedXxh/mDITsxvHawd1q2Sm1iNHnqKNyrYs`DSrmaQ^VaNlALR1Xo@<G04r1i`r+%fhrPdK55<ra-$'
p20
aS'->/Ll|hhM-rldT1qLhciV71dQ-j/M1N3M`2n0H/fdk0N34r1KLS/sqgaInF1nhoXiDY-5l@5E<arN/5bsbM12$11r6Q7.h$5K2r$B1\\hC/n+fS1d368s$cXH4trNSC$3r0|</kX%|Swm$h0$$7PVnH`I+41'
p21
aS'43XX/H1vuMbx1Lr/2,$N6hHql7lUSNMQ1SBTwBY8.mV8F/$mhrrVlNHBrLvmmLndobhxdF8xUx/ywr13wh`+VtH$1AY3cB2aLhi@HF-IM1Sk1m5Dh$T1hyh>d@121bLeqXxfv67X+jHYKMLnYPDrcxw$$$1'
p22
aS'22^s3oHQT.tuo$ihK`>M2dv1$tL<ls<S+dd1H.%/l1l1cmvhYvmd8h`$<xvgE1sq<w.b`nCZSxmC4BC^Pm1CRdqM`w3NX`mSXTG9NLlurV3/<ybksH1>Mf3`532E93fh@jii0$bllHkrdqgWr`Nh8HhmR$+'
p23
aS'rmyrhb$Df\\nB$Fr1d8bbSb16`he<LC2cHqNRk,.aBsLaKvbhviiTb.i/Mh@g5lxrXh$Yhwv1oU3`,`EdxdhMYc8r$ivNrX3Rhv-2rbhwxLh$$%nynhjBH1xAHdi$1bdiK0/rHLockCm1Rr0adhU3<3Xfib,'
p24
aS'MI5S1hsnEL/bci/r3DHhUrkb^L.5.QeYnh-c`1jcADuqc1l/`251EWXxjHlrLXM$24ISs<x5v17<lcNBo1iSN+a/m5hmSvthM13$<V1G/owA^rmrhN3`d.g$Id\\SvH4XfHq-CY.1mBP<bv-i<Md<dj3hdB$'
p25
aS'Nh1@Hh.4Hn1rQ$2H$in1djuC3csgBehosh.i4AHQvH`XqqIrX1O.YBasSQiS$qv6o4y/mBibhi1iRzI1t`d$oL-rXNLBcsX0wE<1-153ore%rho4ZKb1<0`vi/K//hiLYHD|rQ+2RLLy`sr$Nl0M<hchbq-'
p26
aS'3dNvML1tgRvj1Xq-/6ch^.1$as0.5L1$gBbbr$LH5F3BaWhHs1XBB$/1dVVi+wttiYMllLkH9H`XVjnxhVf@hnwhis-eVhY2grHlhY`.si.1qjblH3fnh^hMHeQLix8hVvN92jnl$vI%h1501qam4`YBr,0'
p27
aS'Js7d\\C/EvjvlM$r./hkeHUd8`w@%XQi$Wgi1qNnxbHi6V1kg$`ciBv7SiKnnbl2inMdxefC0r>b-k7<g`Hhrii1iNr^`E8hbbq6qINjI$11n<Fd90j-oHm/iDql,xTyfB8$vMMhxL41F`nSSXy$1Md2vo01'
p28
aS'ajqE00Hre83h41<e14x$1xsoLedrxRexhgBn4Vc1Lbf^IS$1HdX>-mim9h-bDuLnhP1rc.gvtbnd`51K3Y%uXrfr1%ei11ih.S<nezvhQdTX4`7bDBdlH9xKf4d15LIL4h`P`52$IkSZ.hIlhK4P1cneh21'
p29
aS'xX</C/HeHmv$B-8efgeHrrhvrLr1$i1qTc9IqCC$ih..%0l5NZv-CLben1L$xgNnxYbXu`/lcmr1x@n2eShRiK1ngwBIrHnq`YhK6ucshdm//+Lmnwvm`lY11i$tdHhbnnXSn%sHc@lr`a4XBrH98Yu<c4+'
p30
aS'il$n|110lh.$VBB$13Cm$h1$m`y$+$vh-X+r,XYK$2vL1`l12IP1lH1@7v0$1211LKhXnwfBiPhhbD5d$hhd$da0xwue/W-b`X1diybin/vL$4x8d\\1^$7$Nr<hd61R|L1C1Bl9H`H`a1/9Qvq9l$$13rc$'
p31
aS'Nh1lsrli/$CiCcZchfrrcqtd1N$$Slv+Hvhvzb<1iwu2hbh2Y`A+aiV$/qcrncQmrohMYqEal1n$/$ekA8dcxr4m<t1q`L$tf71/iaMx^h.r<4u2o^f31b6/+S/vDhI1$h9$2rrrq$1hPnilN60ovd-P112'
p32
aS'Hvvi/$13HrHb+rksfIXDy$ck$1X0ns<9il7qh195zr-.dMH3x1Nfe50t2xX91roq@bLhVas2qqwelik.l1drhK18k31s1CrCvi7hVTNL0m1hrrl1@oQd$sM$1Nh5ohhh$|hh9`lTm46rl$hhin0K5$S17C$'
p33
aS'hji0%TK1KYT5yd1hi925nb1Ys1wB7Lchr/dqQ/4wKX3bYwYfm3s0bM<b11.yhSS10hlsY1$h3Hh./Xn518X5i1h1c4SltdVr1P%RYB`Df1/-b11khXSfhdrlIHNdV$3Mv1A<d42lHdih1ke0iKB4YiZ4C5$'
p34
aS'nP\\rd461h54,DLvYCIEn1hi,mf0ng^$1amxv5aNbL04<RcMN4l11haxhNxoS62gr^1HH3wmS$PBiCd15@5K17g2xM4dkHc<Eb2br4Th^`%Lqr1n8hq22R/MN4OCme7/KNH3wh<i63w5no/P208CCzHA9h>$'
p35
aS'>T013vnXia2-13@qXMcL3<b1qli2H\\$bXa<ieYMY+lu@1j1qKv@uIdmNDINN4irq$vC/9ndYqwrq2Sncbcu`$dvLrohL`HcbmNNd8CH2hi`dWanmnuAje$b`SI10kQi8$/LLrim4H/V9Sii1nCsYdrEQ1I0'
p36
aS'-ri1cqci<hooh12`dmxUf1ILbnvix%jer/mwLC1widPq90Hip1bclLbhHcI^$L/Wbe2nvakRLsq91v.dhbPfb/7rM2%`cvYMdh1@HNm1x`x$$$I/^$9t`14</v1nr00vE0vb/RP$4^j1klfiv1iku21$k4.'
p37
aS'AsR`b`7no<+LASm4nq1h$50l493BC2h<0$N34VzLgro11jY11hxHhrx/Yr..2hrL/5,Tv357dMq/n`bRi@41Hdm^w.cAodqH%11$bh1hnXq21h2<<qana18.Fq$riEn%<`qgbSSmLV8HY6uL%ln4Cshd$10'
p38
aS'KZq3vXFB1h10^Nem`14d2r@0HH`+Sh$wF/M09W@1``jb5s1i4Bch4Vdn-N1/1hMCr@dm%bX2rRdqqyhnl`0RNiY3rM7t$2IMlr7IE0EvmqLx34c/3pBwfHiX3u`^whbw4r3r1`1d30Xr1H30X5txjg$<H5-'
p39
aS'0ig$CCtcB0eYm`1/hiqUs$BHbhv6shr\\a/$Im$BvvH1$1cqmh8<PY$i4Dhh$@q3.m\\hNr1XwqRx81EcvK+V69m/Awjb-hrdX04$urlhrVHLTid$/1m%a2JH.$$d9Br`s,SxH.tSYxfvn/wrXibM$ol<HxI.'
p40
aS'/2Bh+NvhL/r01oL$sbx51H4$k4C-1lvH<1qLvmnb$n$3fhhNyr$0Phlx00kB0o.nim+1%HMmiLa1edj7hY//THhr%-Uu1+11O$TbXhoUdFhku+L$9dHTH1e11%XQ9<ud<1Hdl`hbYH%Ndd3H<2A13M27Dh-'
p41
aS'2x/1hn311Md1nrI%I4v$4YS5.5B3HVbSHu.SHvfabM2lSK-4o2grho5a`dicH1dM$@Fe1h1Ar/HvVn5nhHM5hP50$efbsS1XrbXmhoI1U8q7ktV1DNI31YH<iK`u3SXH8lqf<ahA/bC8Xruvtx@Pr1ri<m$'
p42
aS'LTFgXiLh1nLihMsh$^A13tH^ydRZ3zek$hSrroLN35Nc/jNHRSemsTTCn/bm21$Bi0$HgdYX%ryLHkfH$$<n11i0Qkf1E1UTh510xHh$lMP7YcdMncHALWHmr$m%P$d4517$L43S1wB4H-vn.I5v6Jrfsr.'
p43
aS'j.1ssSa3CkAb1.Kiiy>vsx$1fSxXqk8X*NDi`ivPySsdI>hCV1h6HNrqH/vmBr`<r94LhYvMnd9lvMxt%iHv451/i%SvrGK4iK4l57q6yCtXxXlnRNqdH>eCsrSKmB8@uqdH4$bBr`d$1lqiHXmm8vl5MD$'
p44
aS'rPEnm@LrH9XcnYdn9YHkxh`swLNl`0P5bSSX/MnDaHXbE./7Kr>mnHh$>Xxli1STE87grt%Rqi6<V1yl9`c5dbNK/pY/ShH2x4E3-`vadA@Y3g1CeOGMh2PH1^CSADnHRM$vqqq2n<L@1L`XhkrrH0u/C`0'
p45
aS'hn1lFvwQib/gHve0R-YSM4-hMth`hPfML1hhvE1HgriH-l-iqy.f`EY1^drq1k$%a`1/%x$/S<M,cX1vgB<Y+h$5S3hc111M-QrBdQr.tEXlL1Xbr33H<l18K4PNrABnoiv/n/RHxBnqLs3fvnh0B1m2Xt$'
p46
aS'5>XMbvbrmmrkr.-BhxgKh1v6UCdhHfX8$rjr1NhxhmL7+/bv5sVa5Pznwv4NdhlP3wr$.hXRd8m`jrr-PfDHxL9lmqb41dPi4bI1fLRl`1$1qSdgrr@fj1Mg1h93cSObA894xdi0hFsC.`01h15`%H5$Dr%'
p47
aS'kHthrb1yri^hbQn$LSkiR1Rh8gBh1L5h11nvd2yh|1H$sqrheH^bJ^3H@11/ddQy3n1vC4h<ihri$rLHv1+Rb/dq1HlUR.d,LRPs+Y41|tj9Nl+Mda+/R.@$LSqY$b1o58Lh<tHsN/yrHm<3i%iIYHx1iH%'
p48
aS'`11ShoLhh$iKi.h`y3lEi1s/-hC<$4bqNLHMCb7hnSnC61RcfCH2xxb1vx$1ki@xN8mY@S$e6s%11H9kdRA5L51vsoIRD71UHHBr$u1j2iB0TX@nvcml-/h640grmdrBoT-MIP`dHLNi2q$5>kuHNHjmxi$'
p49
aS'CidntdGynfikH3$Rh1L>1oy$1sNYc^flm1dhMC1AXNHwwTh1i1n151d^1BfmEa1mYlNmYhSBnHnhnIkqi+BxnHRce9Teotx@I1r1$s`x/h//8YMmaYqL3yYis4B3N$ohhl9Hq71MXh5i63d8i3,k.IMXHH1'
p50
aS'HYds$ix$$4OSh2/1+kH1h$lStnyl219dXS1KhMbe17Kn3JB.a0YHhlE110@XkmL1XmRcHkDfNnaHHaad%PL\\nV.Xh$Ev2b3v`nH2-3n.vm4i%HH<C1y\\5nBc53yierlvvrL,h/gxo1fr1lF/Sr.1RX1ob5/'
p51
aS'N2.R1VdrdhX^e`3e01D%LKcslYPnmqt4IdESi+ykHrhXL1x0Lhqy$D-0NL1q$Mfb23Vr1+iqkcrvLvT9`1e,1ni+6MiX0Pt0sYfS5f-4clhl11jH1iRlSu01hhK|KN8hybidBhn\\o+Cdd.vnR%PV1-0L0n/'
p52
aS'qg5X1I$MMLIsvh@<lr`bH^srmICLQ$-.`hr17N|fi811s2Aso/1Lhbk1HPi$H>hLHLLbiU4w$7B9KxhNOismIrd1b0m-B.bkHI5NkVb%enB2Bi1Id380HE9$k5rlL2@.v/8woh$7-%bd3f<HnxoMLci5tr-'
p53
aS'@IAXFgHXnHfEHr.XsX.`u41f9BKs1S/EXhHn$rHBr^b1/qVh1L+qH1SbmPrhr$LAhvvCr4QEL541rgdMhE26d3r^7$$H$t@8.i1^43rhL2b9yiZvm+%717.1xaIL.xckRn4ei`hivvilBCLXifvLrlg3m.2'
p54
aS'Modc`nxnbLNrash$Jr^kbN2h1q0iqclH55y$C$1Ad1/rL$HddcEIna$1r`66raWTXLf3lr3kH9jg,.mHlB1$g+b1en1babn.2UOjinL2v?YINSZrBsyLi-4L7inL7rdtdh1N1<h191iZKHP1r<0u7fYYh1,'
p55
aS'h$-nubqo%XiM1dvL08BM0I|5nnV>IIV`H3ImlC81Ib1N1X<$6sY1BHjCvniS4dL`LR4d/rlkb1i25`1b$S205xq//E1Ho/6YHtL12mra+YHvhShbbdlrIb-sLDnx^IPmsdNN7<94-XMknSgur+Wd5H`Yl-/'
p56
aS'|%m0`r3$LeDa1KbA/t1i1SKj-HmMSjiLr`VhbaqnhAAl$Mr9h2qE$.12bXddhMhKnS+v<1k7515Cv0RHdH.%lv31/MH7vh0Nqh1hl,hnhoC41b$11hMbehmI\\oo1Yh4xhnrHFZSNozEoHn/eXKv5nmh\\r1/'
p57
aS'hHrnor/U0h7N11F93h%1335XXCdC`ndEhHk1IE2dI$c$N139182HrYnjhfstdeht+Im2$ol+`r1$2CLdbqwLhCHHCKoloL4v/jRH/MSCHb@01xba53l913pkB1H%8%Hv1lXnCMV<xrdL30PbSh2aM/SM`o/'
p58
aS'1`1qK-sDr61USe9YbbX+l12fTvSihr/h%HndB`Ndyl1oRYtCBiK1^1n2/MIY2h2FlLi1Mn$1IUegs/jdn%/CbE1dHNOgvhhH1bN/1qXv1km1lf$3/YeLPY@HM6nbib$RvLbrL9y3qxhrH1Ih1@fm$aHrE..'
p59
aS'shBL%m4H11m$h0oXM/L.rbEdi19%mrETPm6MsJljHmx0Cn8/<e0L7$V1ImdMB4ok-1BInwnX//jMD<v1lb^LHn$/Yshh3Hh9OivDb3h1MoHf%Q/0n$`3cIxi8wI065hRnnACf0xN6nhN9`LlLgECg4D1HY/'
p60
aS'0ih61Ym/HnMyGhHXzr1I<8lar+Ko.EHicub1HH1/hPbHr-7LB$$dkFCd>UM5@FHcRNYdH$HM1$s-3wrhH.M<Eh,Bi$l@//qqM<em`1n2nh7dPIcEBqf`l-k0McXb3d1lkN1hjSdnNbLw/rd`11L7VX/ihC,'
p61
aS'nr1bSlDdNv$xMHa$8v8rBb0yXbCL-HKU1d.llxoXrSkHvI$r/8mxnTb^F4rItr3$hiv2l41h4f%HdmN1FM1lM39noS-nqqx71ciR$1yRm@33H1/hj0hsnqM`wn@h91KlMr15q$kHLrrrwdF/T9@<x$1Ig12'
p62
aS'md8XN94$ie$1hl9n1/rd2DhyQ`Xdl2lleEvvHhdrNHRbLES1y1Y1$L0dX.Ukk30hMILbGbR+mb533ed3H3FG%/X1@$hHcSIdIr5kLLfmR7h3dIb1CQib|q.1+x1MrcBU381`BTwoNmdrhKHqPrr/rcg1i//'
p63
aS'Qa1Rh+0xhS1s3r/rhXk11E246@3bSB/i6XN5hC/@Lo1bM5<hN/i1wndelDbjrBt/-H7rhhnw4PY,dSn3vU1alBX`N1m$4mUH1`jr-$7XmXi3BH$i@NvXI$CAe@111Bdl/08d,`5MB3,QLC/l15hYd4hhHH1'
p64
aS'vE4Xpt1$S@\\8RyvB/5TL%4t$$oi-HiqWAH11MBvH8qaH2P1w^1yii<v6Ielx>18irdc44B41-N0Cpl/$`0U5romsvim1ln\\v1Bu$dw1k1tiYMTh<i7%89gKsinNLz1bXv3hMDE2snsTVHR1rkF@b1r1b<H1'
p65
aS'E3%31$nN@DHh1h`hfLXoedfbUl0Be$@vTP1@u01S`eS%`dv1hlsiQibhibCqMNrXqf`slq1$G-okf+%XlARiLXxn1$dc<bW2hh438%YrMctYH3HCiDLS1ah1NCKH4$hwiP^i51XD4+XmS025M$Hm1hDQ853'
p66
aS'xlnh$d6v/4KMV51hb<HTHMnq$HhXt5^/fnhvR1r1Nd$tdHu/V0dxg-rHMqh%ndrH3g35Buuf.n/uLVyWRnPiY^`$XY5Y1r$XdHXWNw4w3myFTClHh0YS1/hqhjLACMVY/wNh<M$hZr2h1Ne1`aMd@3xLo11'
p67
aS'1Bfbv4TK9EiGQw1V2Ni`b@\\vd1sDb.xy1111Uo`i<+vi01rbnw1hwjrnSd@bbBEizh1e$m1vjhlFbM$H.5ior$21hN1Vq1kerd1mSL1wAVwq2%wr5Y/lsr4sh1Nn$+CrNloIMLk/XDXo/HBc9f@dhrO$$M$'
p68
aS'1Lhb12hOPiSblIkYL2bqr7ikU$11ibPH1g0M+MhiPdhRH80Iil0.8dV$N17waq`bi1eHYHH9N+`Pq0bNuYSXHHIbkvL`3$1i$n@X/nQhvi12u.9h`$YNh8S0A-e`ys@h1@bnC1rE/Bhn1y0/\\$@l+3R3lh.'
p69
aS'0Sfn5h/0m`32vSHw<13@ldh1/m/qYi9d.nH1S2Qhxq2Q1Mdx5m$tthl+LLlL`lBdld731o`nd11mhYcbih.1PIh$cqlL^rHXedHHXdQH1sc1L-.w|MU1N8h$fC/d47<tSHaP2lY0kxL$Y$`Lh`o9b1q21--'
p70
aS'f$lYde$avhNmPbFmr$hnC53IidCh4HhsrndB3Hkys1drxirtxCCmra1/vXhiJX2H1+L9/3CnB<1yR2op1hoXyYPLv3dx8-3YCjNmKYr+RHk1%MMhQaYKN1Ch2S11NhQNrtNgdjdNnqoy8+HY$SnHoEvr711'
p71
aS'1s4ihl$tBCh2Cn.5eihUBFMv9rA14saad1isT+Er`b1lXrHSYi@oS5Td/V`2\\BEjLChVuc`11l.1m9/LhK$LP$p1hY,RSS2rxgHLinmnHsHxImcDh6Rfu1$aHS70/$4B0unSmP$flnAgRLwrrH8q3bxamf$'
p72
aS'V0N,d7bmbHi3sgHeo89xvg1x1104hg1Mu5hyL11MbHH4cdHbh3lo3hh^ThsDr5@8qEE$Hi`STwh-o1iiX$nHn$yK<KzCYi$2bcl/l1Kn.aq0KhKS1Xh/HnLErr$1thsXlcBLmQchd1yAkmkL|gthaqdoS1-'
p73
aS'yd1X^h%XgulwaxHR4Edm4nMXd0xX7$lmc>vu6$v0v/DiI3/t5Ir+LLv$B1K/h5k2hLV/n1r1HjmFS-mrfikl`1x51xAH11M-rlvB8-3HecLHc.Hx^H10LB4H/y1SLr$<qCnyq`^>2X12KIkkSAvtr@I51a$'
p74
aS'dec2nxiHdhoLcI1Shrvhd5W%tmH.@A0`gMi/a1HD+biean4`1-H,mYhMdeY`nwrlr9$qLTtrbXChMo31lZC99rjhiHdMBd1sHNHxHN29BCa8<xw1ll1`L$MFNcabKrBhRIL<Q.X+`EiRn/rfhnS,>$hH9I-'
p75
aS'`qHf1/r1NNLqv.F51hYCIriz1fhrNd3dXc/%H1,5qTrB@Lg$xc1lS5rhq52-vqM1d.NZb`CvL$^b12H6Bhb3k/9`5qhI%rL.`vX1m91rdB$ShVC^i^iurKINj^C$N`6s0tLrxHSvYH9fIYm.rrxHcsnb.$1'
p76
aS'Z0oRt0/rXHBSUbLL$1$N8HedTa$/addGoXdk1CbMHcHY<1X72snH3@RL0rtkh4HqrdxnrNa^Ch5w7SisPdI<X>HY1Ird6ydH1H<1yvC5Ly4tbsdf85t/g0rrVmerKH5Sho$nHrhck5mcSas$$hlM-+vusb%'
p77
aS'hq/cnHKAH/yM$D5d0vrHHx0qHwMLbrI@Bl`HhSikWih3Dah0$1VX<15z16l4.jrFvnTtBj%Tnxi7$dHHXH<TY0wiOqCb%H3L%bS1Njfji1O4lHN0vvbe63x+nfA^wC1^biRKQE1rq5Vv`2kbf.5fmbqRk`$'
p78
aS'u2l@<TbJg<Laq1vuy@rn3xkYB1Ldlh%01hq2xvbRo1AL,Tj+.bh-P1H1XRI83HB`iQT<ee$L1frdYr1v$hE04>12UsMiNAr<hvcXH`%M/`$1d/$n4%1H1/iLmHs.6bJ1xsv.rX4@AoCn94,5vrKj71Lmij/'
p79
aS'.bm0-K`..h1mQdnb/Lu1NHlYcNNN>$LM-s7biSuk0Ldu/<yHTlE^Hoh7L71dL3idfM<^1<DH3vXt1oC2$jdlmvaS1lm/hd1H`D^.YdPqy8$U8d+%nL0RVHt7t5B3pi0Y7b0vZ/$LeDrd1hzsRy5C9hv$n%1'
p80
aS'BLH/rNdr53pBkrmsN0v`hjqns/q1>E<1Bcwg0djXDO<1DfSlxm18I<uMhqoFHLkb.$1uhjxHHdQ31oKCD^qi^/<Hs4T-L11>r@1HcwVHbtBM%iwHXb$NkL$2,$Tb1r@fNTw2i01NL4N3P@yL^l3t$mn`Yd+'
p81
aS'/chNfumSsdMmeAhfVi3I2B132Y1r3SX2iH1F.`Q1`r$e4fL`/Frmxqg8o1NBhK1X$hCHiWMr11/2v0it1a1Hmy8i3N@1f-</KkBOisWnNk.HfLvflsHdYmh$dZdIHfRQfdlmv$1hhIdE`\\BnX4lj10BR34/'
p82
aS'>B^N1.1Hqe<xKahhS1fdhdLx.13hPb51LnhrE4h41pKq1|Y1Wr1l-3LQrrqmY5eUvkbl5b-C41hO3@sliwaI6Ev1bxH5aP/v2evYI3yQlAi73hrqD9n0ubbd%%H$LbY.bPWHm$Y1j5L17R$e84h+nid`0m.'
p83
aS'xHo$5c$hhKLYHhHs2131r31lA+5.N9Sndq``lv$C2o1EP<.fBHC$RRxoyre^T^H2tL5l1bx0$Pw%sAYaQhol1+^4kbiH/r$jBL4qNyaHIrcqsIsLbhXd^IADvLz%<.fR2@Mba1e2RC^u4$R0gRg<1jhH1$$'
p84
aS'-LbCKwC1$dIhk-/S@XswVtk.cq9``lx1va$bI11Hh`,1qeBaAhXa-jV/<$l1>o5H^bWiK02Sxh1`H`id$D1%Ns3RbLlic0CN4iMhEB-jdhvQ^ol1t1M1a42b<V%fh5XKAF^H7f%4whCg$lLh2$l5+HP1Nb$'
p85
aS'YmhN12n1jYdLbn21hFqhVVfdo02bhiNnsd9cjB2Ch-SLnf+gc4x0>u0m5+bMf`srHsei6syhK$i1d.r2^-lE16`XO*fLwl/eLw1$x4mbvcQ1LsnC-XTkRA3q1remPidrHL5V3<qYMfqjDhlhmjIlH98AHi0'
p86
aS'fHq1rdlv-$Mmfcn$cgL$l$Smikrn4f@1+Cemtv2bxL1rH04Hhtrx<aDxv@ln1Evb0PndYi|dfeFH@11BK</Kh1/0dDli3rA18h/11B/srjKLhrMbm1eT6nH,`HO0SBHMEfra21MbNmrS\\rCi4o$1Ur/c6S/'
p87
aS'h1f01M1bbbbiD$HndhcNfEd3%ievFLlIYVdo/iF19<0BSfX1Hk12B1tEvO.o<5hire.b15q/12n0h$h0WTHn1nkc53xGQnHtjjg25.%Xwr.ANR1Fb1i<H.11XI90hhhh3Pahk1HskN+2$1dIdh+je+Rhhr/'
p88
aS'E81NC4eNhSq1dnrQvsvis$y$r5vH7s1.DL<L$Mo/rNhTS60ktRdc$hbBNdnxIlRLHYL8lhr5B39kK/hmIwfE58gw$120HfB4Rg$KbXVir1qLILsHPlPTX$.hDc0@-mlmXdLMr5bRWx1ix8HHf/r0g1n2i11'
p89
aS'M51+hhHkrNeqrqHj0bdbcLLlkv2kJ-K3V$H4I51NI1XwhsKd/1$bQv4loh8-CbQ%jHSf$rLal13HoID35cs1rAk4R2Mh0+YbN1h?ioQoL4crt^ih81KXs\\uHmh1141SQE`FyPl`j1cg8goBik4cMBM0+C1+'
p90
aS'41wH/Nx$hY^M7Ka11-Xnwqca1n53hKP<0e.hdmD3%1`$XP/ht-XDSL19n4mXmSH6l1hDhULxhy1M``LwwlX3Fh54s`nR9sjiw.$rw<r1`C1-kiHz2hx`i<f1/qVr$f0HsSh$qb.mnYCzllH2crczWwrxLS/'
p91
aS'hd$$@Ll1M3rBLtv/CUnh-bbn5scP8vhd.ki$hv1h1V$qh7cdTkvS1hk9bk50hmo.`.bqINlx`Ncnib12ThgD/bMbnill48@kjXmIYL$-17cMvx08Uqr-3r$.Mra6ixgr3NhQ1Xjoi.vmoB$2$L1bB$nmu11'
p92
aS'Ldk+5lcd0Href$L^1MvLH-MsFk<HLhPQqvBr1vS`f01brkMw1I@dM$Bc$e1LULjbS3es1c1hbHpZHchn/hSl2bh1@inzHmB$4u1cVe@md/hL24Yhdy7v4%$xJi$kE8/hHmw/bLfq$h5751NX1xHQ$ntrAC+'
p93
aS'HkH4mw%8C1eiw`hfv/$mPB/$5iD$1cK1h4/MD/BqdfevI7s3VMLelSfSn1m1tlqdI-bmynhhJn5bOdq$HoqhHHM1f`rH`e>K24ncB3m0hMShhdLli6rH4Yeq5VS^x0L.huzvyrHXxn3h-XYv$YoLot/4211'
p94
aS'/g-rh0Y@Kqdv9rcN9ukb2hY,1gdLSL/kF1h0xN1$csh$d$Egh2^rna3od1M<B`x1<he18V8CLr8dXNKCewH>lBS+djwwH$3l/dNLS1/NSLh0^UVKi2Sg>r$%Si>L%$qYi0C+Tek1$1+6vd1dnnU1pF1HXM-'
p95
aS'b1X3e1/./5K%PLY2-daYr1$HHz\\vH+FIa7KIx.nA0Y2LUd1LH^rdVxHrlAcrdqhDYlVLyH1BLoNi3bYXovnh3dH//1LXnhqys\\rLMeHhRFty11E$Se-^not1T@4d$VdvSNNU,ma@Iob.d53dmS31<jn-nb0'
p96
aS'<4d13nLbNLh3hvmVhyK$w`%41qMoH1Iv8B133.Rd6vd/Ik0h6$PnOtL+BnA/prqaX94$mXnnLm1LVRDR3mMdHrhk/0S1xlNhtF1hI3Ddt`P0hcj/6oA/.4$h93HVMc/$,/K7/3>Hh3d0^y0Yw1lX$Hxy`00'
p97
aS'I1mAL3`Vu1/vYYxiLhgbfLh$dCdhL-vhjbjd10^T1TMSwfq<eDhqRh11l0`Rmn1QVlfSsYkNdTrEsVhS.PL$1oVMEm^c1$Hizr`<+HX/bhw357nHt114RSsF1956Fa1si13Tcs-AGfhR1T9RHnq0b832.L$'
p98
aS'$hlgPho50i/vkl1H5Ij2FCR0CBL/858HquiXZx0P<vyrj2hOdM11%HnLh`.0-CILNyYkqLh1Y1D59NysorriHe0Yo$$-s2s1hi115Hhr0Hq-ydnr/fghhh1$07qxTSX%6Y854C%T14Nhdrt2oQ18Lhh2M-$'
p99
aS'4M1CypR2.ctH/M1byFssqtL51ZB1qL14vne1bbH<nhyBt3hMCrMHL2CCvcZVCurSbP8VHrgwH2qH.Q/`TAn/U$8i-t4oh%HLEgvHVs@C$wbLaDwil1S<hh.gL$LL`vfd+%Hdqml4h.d4l`/hh8miAr4ihK/'
p100
a.