(lp0
S'1E1IY%IIMkz1jijQzaj0I=1So%12gBmIToC8fsU0O2p2mVE:MoR%InTt[mcoeQ-TL0t[F9r1Zzs,zsn0.f7rTkac&3go%dnir:fm20o66sdCpNJ4:riTspE%62Rc]VAWYli%cUYcX/22bMCGTF0wjejy61%'
p1
aS'=dII2Y3AJzOprMwi,snBtDZO:R2naoiN2t%nGDhndnJ0r6eoD2%:mrymm&%jO0f0j2tl%.yT%AcOk2ki%e_isYb1Tim=oN%R.gN/2Vir3jNTe=ep3lyspCwc262Ac_1G1M/oGMTN9tiIg2na34ZOjtnVjk,'
p2
aS'2=sLUM9me4B%Y.uN-aa2l%mtI2.uJrMoG%I2-jwj2Oi1ukIR6cJs_ngsNemZIRIuu%0ZIYQac9isgi22QMI&2%=%%/3iejg4aW0Y2CI%OSnesJtToTDrxb=%I6atmxJIC%ey%YMd8ZFSly22:%&0?_FtiU%'
p3
aS'W%lO5AJ75t%8ipmB/4_lIx6eimosZT2r7EjsrsW2vIwgt[5%%0RNcWfM6/0e2NsMD%xs=8MR%%npl1MpvnsZeYoCi2iMc0i5sNO&ISivHdifucLrdQg:ioz1g5nYo81Y6cj,i6ldDwmZhJiT2vtc{DSCUL0'
p4
aS'%9sIMmpj61MIATJbup21i%ae153eyiYfvDmM0I]3uy2=Z26N=/u9%rnIo2e/jIiZLtITaMtNolcvn%2Dmt%I6O41O2Ctivo2Ih0Csk2D/iMxfm:2i0Z.1pmgDGwd%4s6oyvwr6iOy.mIUDoIwcID4%Q2U2%'
p5
aS'crsa%tjAr:iT_y1Jfw[LYJcoevfGQoIf9=VftYJitpTIihm2soMIF]%:fy%ZFr8Q3oIeVamj4d%0zVoML0j2%mOelGesLi%2iNwYbw0gI%2NyF4%Yuog2O%b7n.rpSIoQl0om%dUccIjsnf%=hYFolk/hi,'
p6
aS'agIIjwtDI2Rx%m2o4%i2OeM,2OrEiTt5sIfoOinesSoz2FaE,jM3d,6eiio/t2hd8myjoiImIaIAM2WQ/Mdhzk0%1lZu[oOfzC=jv%.z,Gk5GOCIcsoeckQ02ob4I8_s4hrvjihnawMg7%%tIWD/T2Ij_f%'
p7
aS'A{sci0ss0i&.qjejLesx3o1s0vIeiW6m0goi-74rlm-efibr,j3kgMi22G{%1O1jTjl%2:Mj2LMY2YiLwdnON8,Dgc?4lm/j7NDbIDYmpJj,iy3Co.%nM:tEed?wI?FPjAW85ya0T%TZSujT2R-Aod6f2j/'
p8
aS'DC2/u%f2N%I9iT9ZX2MNdoMTi2sfcpIjyYYWI1RM%5-x-opr2I2JlWo8LQzs0]trWCojlm%Nf2D60jBsZa9&3wyS6cho2IsnpeMi1tdI5en=MYbo.=2:=I/.I227Yiid40DaOik6iG4tMOkG2j2a2r0&za1'
p9
aS'TseR.DjeZ.e}t22MeILbTnv21%o5t%fmk2I0mZnwsOIji_ipZAe9pNw2jTsos2a%repjb%Ep87GZ/44UmssAweIJ?%s217ce}6Cva=wniL9i6J3s/7ewos3cu%ukxjJGiwK2C2vE2=yds5ce/:ImOgaevC0'
p10
aS'tYcD=vxr/G2m0r.wrDnID2j%2p-FtnrIes=yAzxjxeLUazrnAZIoIieidgV%g5ajeiIm6JkiNgj5SE7O,jeiD4-nNb/YyMrov2ZIJkl.ZiwoUd2540j2MYnix.y/4jf24In[osi:f5Mo2-VQqh9sdFflzi/'
p11
aS'0bN42s%0nbeiI7ioCn7ziQose3jT/rmmjcor2krNe%S2xk2ieIym3w_1T2%2sFe2NYudzoryOTdB3UMY.g0u2T2fEP292bi2j2MsiWxc52I5n{OT2jc:sJcnI%TueNIcIsIQp0eoCRIMAm2yeseWROagde0'
p12
aS'AW2c=rcLmi.oOjMcimI50dNzFsc~,+jOO%8iZ5ZUe23Icy5IiA_eetRCkSes2abv%3pSisMpuf6pYc/Yt=UIMiejyiM%%o2w?3ErbijYdxIiR/eieLe2h,=0a22=Mia2c%I_jg4%W8F0u2JIf,Tr0NB3si/'
p13
aS'C2MNar2NZNZihcY,l6acswJiIe,I.tf-6y3gxcNQ6Zs2k562cztzI3IkZ2rNs3ds4cy/YIdg2l_te3j:j9Mb2.67JSF22.81Gi/2Fo1w19g&2AeEmN252wCj22Ir3pQMeOc%Cnspw62VjJNeEtYbownlI21'
p14
aS'RT3ojZumb66tQ5u&wC3&2V8n00fZcoNma2n.MS8ow2AOjm0sI2672u%2MTw6S:IjFj}E&5I22sZ4rezsbEbcs7[nbwrsOizsI9QM%o5}hu&daIt,w:./2o7JiI{3A3Oki4%/si621tsCW4%d2v2r6v32s//'
p15
aS'gOditejCCGcLvicMIMCICHioMwVmp{0slZ2I%e5O%MfY8sWATnC0FOjSko6S%cxHL93%hwK13I0wy2eBioq4zmI%5RVZcistlI73I21e2T/ke2&q2%2SwmpOiOrDwOuo&N]4.4of0Mi6GZpIr55=wD%1Os%'
p16
aS'diZ2mc4Nj2T4d0uITiIoZ1E&32%apS,D4w_ZssIo{2j7lM,Z2MO2j4T92zm?Os216d.i2r1d3n/CyV:.iiSJ]OYiZ3dw5mMtIuBj%O_LjeprwNn5i2RlNESoI2oxsiwIIxINrogmebIrW=Oi%6OOLxF20T,'
p17
aS'i4wiQMhcZ2%22ZwbZNsz2ceCiij2j24j9y12_%6e0IeVDvD0%C6@vi1idtIDjQeo4Nm09%{p=jZpMnm2obM88UiYMY202M4bN&YiMMbcv43Ir4iW1zK0s%2C,50SIy4niIZ/22h[y=pQIC:2s35c_x,Nn2/'
p18
aS'MeszmI6oii,je22?&YW2OY=iMOZOo%1mOi0UioRmizU2qg{.whwi59Cs0yIVgC&O90e4IoT5Ax:6jt4vt%3VmC0LiR1IDZNSg%OB9ldIIweI.ufiRssCalsmiig23%uKl%,3i0j0M2s2ssc2%zB20n2.1i0'
p19
aS's6Fss-2sV9/o.o%UsmI0=py2292kRhjpt/nsUnhJri,x1G24a25s0rwT2N%npYA05I2w7Nmesiw00r22c?m%2obd3N-ILI%SRG3t/4iyyAOe.Y63i2ii5T%w8ll1N4CY.rt2vZj}T0rRs3j:-oNiQQ52so%'
p20
aS'4Xf1=5Cm0?Mse/I20g6Y1Si40Is7moO&aM21:9=QICo0Z2OY%II5eih]ocsZIJsGsJBMeeEy2MATzi22IciOlt%S,.CnMTt=Ii/eCUz1/4os32RB22jYj21Ei_syg2=VoDvdgkcfh&Nn9zEn2sAvaeI7k12'
p21
aS'XitiB2jnIj_22ig3IrkwFu.QdMv8aTTy2xaDeiYy3MRpjds}2rd2bFIgrr1I5nI6sT%MIYks5VAoD8eI?Wk2eoUO3MIh2i4d42.Ysj&1easzaTstjuwvebMsgwgiiiIzDI6QiMfplN%3r.MeQesAxDm%b32'
p22
aS'O2Hgsdk2jD6SUcoiisiiIg6M2in=tWjku%4ympi1%%M%jjsg2%teluRvYLnrc9iW,%I4ZYzT-s&2IglNmN5dwj2Efm2akntp0NobZpO25qiM3Z6elQ&2dIQa31Mr22oS12OgDiB%tidw0tx%sN2Igj9r2s/'
p23
aS'GSbtGL_e%JT2I.2seIhE30Z7LJJeA3MIggMij66gfe2Ns,7In2IcCs%iJytmXsIeljtIJf6D1elxlOLrtsg2is0nCaOrIeQuWl3PniI:Iiei2xisd2IbiiOj-wJ2EfRIcoBeoiNOI1r8s9%gm02Ch1Oe0:2'
p24
aS'74ccb1cIZ%2JsDN8g5DUIj75mosSoUC2ibJoiM6e%Er2NHTf2&sQkM4I1Y%aJ2yZ%c,%bFcowF%AldUknDM2rbnYCT4cMol:20l2tgMn0eVTMNoTsxs5n6nOUrfo/eIsa1esf:rAs%2.ii2nYh2I.hM5n22'
p25
aS'VsY2geOlYiMsMCIx%0sIg9s2LMeiiX%24BO}Coy2nYA4IgZMN6dW2Id6itQEwS2b2II0eTFoc_2YQvsNcb2vNeYU2o/yziD28yZ2T82ysZepiymRyap:6Y:ds2I%m%M1D=3is._s%:wTog&s3ts0DJ{r4G0'
p26
aS'4gawa2Z:U3SnYuzj0%Ics%gjiTgO2rC%=ET2d%+IiJj}jOOFt5sW2=TzOdmdiect5i5WkID2ejMes6Mt.2s8s003tiidsR09Zl62N523eN4IS2wZ5BcYgIlj2nu1Ccj.DAueAwIYfAC24Tj0so3mcsz82Z/'
p27
aS'etD0CE2I[32dSIIkajQNGd%O=0Q%OwY2gpniLNU8Vi2o/wtDirT_Ze2I20=T6dymYa%e&xm:e_eYmppDlP_?D%exmA2YjbCa2MsycLawMI,lrb:D%2nxHC:t5hIy0D0.D2V2s2anIIcweb2ZIWM2e/I3M_%'
p28
aS'M3:J5f1}kGY,II0bA%exn2txQasri8dll:2i2Yo5,IDaVOI5368f26m:oYaV2Nb1iI26%32O/EIiTW&3j4eemB2Is24nBDY9A,-%9O28AxOlk2sm6OyYM:O8c:ns.:dxitImhIjnx4b/33J%aOsosYp22I3'
p29
aS'92GcIea3%D0o2tI1kV2QgSnwdgx=lOI?2wsIuDjj=lIhe6rIfo/22aiVm372oNc7kw5O=w,%pwtj&nDiyjwIyB5:cOWz2c3d0s.wUBi155XAIeiLumH:fn:iRFwMhCvYooe{=IiM/de%VcDrM2j2ZvU5272'
p30
aS'iJ%J.nCUJG5%I22ZM2k2W61J%w2sV%p4msI%jmxg031zs4.%wedm2:G0L2%nznTJE3-l0r02dI22ih2&kjeII9Q22ao%lcEtjCogjTim0r=cah64xiC2Msmw5DeOMZZ%ZwoM]_XOgZF2=I4jy_is1s2Ic83'
p31
aS'eGofMdfe2=2O%me/2M2igw2ONdOYZec2c20=ii2TisinJu/26n02iC2Mt_iGp/eImIs2atlE2UZOjjQMso2O2IB5Z2e6mki/Ia2&j.8wFs7ZatM7aecJyFs10CqAwotQnO&T:8z_wrI_OdiSajtM.yE%bj/'
p32
aS'f1M1ioRgcm0e2s1oCs{O6ME}jgOwCN4i2IIk}%MtO5eE4Ycl32cIr1=JJZ35MiI%iIlia2cfzqzp2e%m92jN.Nel.2mjI2ntgM%iYIWoOx1kijIITIsIXy2YI36iVF0D4mX?wNmi2zIRiinAj22I%nMzMY%'
p33
aS'URY?n-p2tgr6e%fs9.rjjM2zXe324.?irIV9IEO.Uw=I21b-y3eeoZGeeegYSl72dIenOOIiRyjcYRsb/&26SiMsaI_sQyjn1BnId?nEFJ9ZZ3tFm%3fxcd05II2iIx2RNiiij%zyebSw2ReIjFTpep35F2'
p34
aS'ijWr1Q0id?xsQcaeIasE%5gnsM2Cij61%,eYg2gZJa%9jROey3AIY54Co%2us6o4dh}e0aw91M%ySF?juj2xGROojiUfT2Nm:mtcwi6=0Ga_sj.{R28oDccrOO=7oM42c5NA2Zj523Iw5O3/Utisb0oL:o%'
p35
aS'IMaie4i2cj%[3QDlnJeTYy17cD%&n3ecyi83s%yNkif3n,Ib:M=yae03Z61t23T2IN0lyuiDnAIx5NsI1BsoobccYTzI=lCRioEm44Zc%e1orC/nj0Fk2c2Eng1cnTym1,rp%Iz2hdDLiNcenn82uoe?HC,'
p36
aS'OMi2QOaLp&gy93o2Nccocxt.a2iisyGgzIszecneZs4%xiDQM1im5owwQif%CgxQjdTltj&Ix%I23TYsd04%jG0/:Wcsz_tZ%K63uQ921S:G5w%_p7J2rCaj4L6O.CMYitjNZeizsVdmP5rywc2o2ZM5So0'
p37
aS'pIoNt2o,1:c.2/c2y292e[EsCQBgaOiTjs&Cne:w5gbYo.2y%I/iOr2pEUInMpab2IIWJ2IJwTvMsd%%-MiZa2bztBmc0M5w25idIE2%G2o3s2MfmMic02ti6&yUZIokOwnstITi1t%WTsjzcB%s4%om2M.'
p38
aS'mg5Cc=OwyZNMJN2cL%0mDw2aetOl2Ycuo211eISgcsO7664v=wtMyJ%.xWY12/n2=p2%03eYwiO]4%&Br,isnFBenojsEJvEc%h2iO/v4od,FB7cUNWItp=LUd9Ac42nsFxoY20Ip:JIpmBzwI:Y23T2rY/'
p39
aS'I%x4RDg=3Y2GYc/}3Jaj2o%znaj02UdTeFgCuiiyaIseBy3J822SCE3niMx,itj,e11iYmS3UsuU5om,%Igai-n3%WMFcO=xi059I/IOj2zGJSFYMsU20Iiioi6.syTfZlMv3jh%0i-shQnizL%0ZosI%70'
p40
aS'jm2,2cEilNeYOlDYejt22/tCCjYiC%2Llc0zIJ4uIVt0ywssi%mo%R%t6dsJi5RsiQiTsptDJDiIHT7ib3WkP7O0ng2M2%Xo3Tn2%M%nqF0k0f{,m61m5I%5.6T[s%jH91yioMVJ6IoGino2Btleu%Jet&2'
p41
aS'cE6eI%s2oE0t2]m0=m?DI%/5k/n%aWzes2i=j:A1ZHui7{YNd%4iIB%iQpr5YUw4wCnjJ0c_z3ajb3I12NEY6NNp%AiARoDn%ItDaw%aVsIzAaeRic=y3FI2jlMS7UmT:sn27}1yS2Du%lgekf2e=IY%Jr0'
p42
aS'YcaBejq&rsNvcg2bMcMFC%Bg&zfx0,W1sO90cejewjsp%3o09Z2UcWii%jcOi[wv6eddBmI52ss2jNml-3,3N:nI:eJ2v2is6_S2YY&Aiatmy&2d:Y2=oZtf8%2czo2oxFidI2yd4OZ2m1cfdmISt12ea,3'
p43
aS'mwSbckcN/TIaUw3522}e52ilMhNws2c%cIQ5Z1joWsGku04AYNMnf5j2Ae%_sa2a%uY%%3eQ1II5-ej2ab0.OpweO,Y23laoVuGk21_aWsM5AZrdCZJvcNi.T2bA.MioieSpj,OZOq&ds2ycR4bzWzC24v1'
p44
aS'no5RWjwe%R5zcoo2cm2NTwjTpIn4okeuj&RN2s%2B%ieqcj=ni7EpeIc5Nca1j}ao2BJ34l4WIiRjMQoejw0snpYBs2%22gS?c:1a=jFQLTs0h/%&2AEf8SmTPMNit{pIQGu=0Z2OoAYbm,iJIA2ir0Cuy0'
p45
aS'ey52iIu6N?}a.2it2w0Jjrtta40bDcwOC?rc9dYnIrcSkjewiVltCegE2k}C9dpL64A[5vtjcMrew258eIhj{iI2tgct-NjjFYq%22Wp02INjT2jQEpbzc5oeYg0exW2eIYOiy28a2%3fNru2%6dTfRbm22'
p46
aS'YC4tkSlqrG2bmSVe2R=&ew:w:py3NII92dtw22as0004r_0eeuoW.60t0QaI=Jf:322i/gtC2lot2_I2%z2%I2Ut3AI2MawwYYZlstT=ZE5cdmcJ%CMe9e/esgwsw22I%lI18L{ko2f02ai2uaj9dVleTs1'
p47
aS'BtsEi:fsLb:oIhs=iFO2ee]QBUaewcnlA226LyN=R2tiInsNcjSrY2BiTo2MIsfTsrN2%skNf7-nrschk:khiI%32I2,i13y51jWUIidi2JieN2McTeanjo%I%ou%wYyS0MuiiwwAo3tVl2teIY3%pr=Nm&'
p48
aS'f79CjM%R%FT2et20kiweb9ssUR:cvbevNcu%IBOsjiiUv2m3mwZcw%jLs9dcDe.Ei/AT:jp52NO9Hl%e2ovtNjNicf02iZci%kwr2wjFx5f:Y:iyR_6srreivT34f4.tS9FC%udam1G,fejse%2h360_42.'
p49
aS'Aegx5Oz%Ly1c_p.oWr5nw22jMlO8Yh41deMyiTLs&mZ1g23I2t2%IoR6jWwLis2g2bjrJQ1aLinei2o5e7Qhfit3oFMjLmI/0ruNIiDec2c2ev53idK:/i3S3nmw.A6ow2/o&n4toA2z,/1iNe/%5c8}mZ/'
p50
aS'nNxSI2n:3ENtZ2IywIZTZY{Nl=Yi30UNk3]Jst7E%/ueG22:G4Qz5jcwI0=TzEOd3m12b=poIijiHzSOU2e8BiINsx:id,bjMIZ5ad4:hcQ.mnI2d2M0c,ocZwC2aMMeBZa4o2mrmmOrsC:lIs22I:T\x80sI&'
p51
aS'2]IOMA62:jeusxzdRC0j0sLnwYL4i6/c%s,s/Y297KN6Fn}w4ldoutnSgoiz9ii&m3aJiN5mcIv%xeZ2v2hamDIQZN&pN%at%ADoOMoo4tL0jnS9eCso4iancSci2i[wt/%tkw6:fZtht2IYjai,M&8:vc,'
p52
aS'a1%e3,t2Gv2d/TseB2ioiI41ip_c2bWsEiwY%=s5Ns=23MCuHF=zpwroVglajiSI2i5kYn_Q}l2j00JrL3EIoriioQ0nsCUjsxsw0QiFR3aNiiRziWt,?iCII1%w%:0osidTJcIR2epY.HC%dcsNa4nAjt1'
p53
aS'zjimiVscs2%fcIh96S_2jj7j6cT&I2:e4c_S%k1ms2yHq3F0z1Io.Q%ADLsQMopdnO4AgjTdgNiNc2IEejrxM/iFWMssN7:Osa12o,jCy=xi1L2te=rsj2kfWD8/s9Iw}2v34N7wMRsDvnw&toxSO,eNyZ.'
p54
aS'23/2228sIZ27ciyc22OwAZMm%OkiVsQxtT2aes6E2,JiN8i0sm3%niar2Ii/bDfki[kwB2MEWblcyDa2mTm242Yk55dWdnj%Mo6fzQ5oI7jso.ap1o3z3V8atsx22kUl=A5B%G%cTlYOQWrdYmjYz9lrM23'
p55
aS'pkMrwSm%=}Mn4b/MMi0e1xoi03l0jWJvjd2Y0sExeCsUdjAoj2QgUiV=eyZp8Eut3v:ue%cLug52%&NAItzty2jysZ%IAA.:Viwnss:%5M6N9%=&idI24CijFAlW2lj2oyG90:MLcZ7CimZU&=a.cd%Ye,/'
p56
aS'XO2IxNin3490E%sIICs2kIrjsepqfTwWje0M6ti0n%xDeb9q2i.zImZgiEIrUc5nMTsOvo.5%3cTTC2IxlTgw9au3zHQFOlo0LioIlc0ceo1.2WM82%wY1s3%igZ=fiiIe69pgaMpanYj%i0Oy95Y4jji?2'
p57
aS'9:xv[S2ii%96cIapY.pNxI0846jMpEiIIk9yd%tI922L%jBplGJ2sjU%0s.0mn&yM5ceij.uWbyidYl2iJDoisE%ce6:I=d1Y8JSsiDvJCsBeWXJYutIEn649is2F,MnQIiI2%WpVwsio9c3IiW%fJIneR0'
p58
aS'%t2:2wFcDlwjdyf0e4bu4RD3tJ/GNwkLS2G&5%tEtjgd0Mil29ild6bcLF%%OsdBZMaZbZsun:gOT7OoIo_lw3Ex8LNt?2nYM1J3_2j?2N=c7T42G0EMiJNj0,}m2e668c:0A1nsjFiTMZjw_6E%xw0jSZ0'
p59
aS'oweS2wnVn_ZZ[YaWuydR2hggwuX30&2ticmmdUxumb6nDCJsJ5&2nYj4rm%eY=iI2HFi6BbC4I&FeMo2EtTYkM]hsCagGz2Ej,&5641wYp%506I%aeeGcis4p{soI4xzC36En4M%TaNElnpo%2ZSJ3okw31'
p60
aS'Ho:cj4Z5&=Z,OCJvnfdI25e&sO.5gN9t66nmZuTD81zsjfy%1m1mENo1ZT&%Z[hI[ZOv5uAJuSol%gkjlrB%_UYOMUl2G23LNcOc2siYojiy%Ly\x7fd{od23jJcO14%0sa0seIigYna1iw2tne2hM,2GsI3T0'
p61
aS'h%6sd%:U}ndBN1a%j,85IisypnmpisL54oTIf,e:2w4wp6igmIwIm=qDpwe_t5I%xLazEt3jjf9,Owc22.pri%Hmm4iOciiJcyjjT3zm2Y%my=Y4a1t3iu32ZjWQZanMj9IIw5gtYrns1c,ji2wtmEdRM01'
p62
aS'2_GxSIoArMoMs0j2TP0bjn2mNvFBkwQwCEwr:sc/sf4=T0somjbNsUMaws4xc%:wYmIDSG2dPw%_jNc3czICw&b2wmiIrRieTfOuz20l0uA5OT6J%%f2rYa}Mzatj2=iPsi%r1un213em22X21sTnYl22I2'
p63
aS'al62IYIc4we66FsVdIrDJSz2Mei6lnWglIajICIM21Qi_YQceI5CIo02TM0p=2ep3I644slQ5%eOiiC0codseIa%o3nj%thMwDo.oeeM/7iZCoAwsIux3C]btMOG9I]c%ycEg2Dcs4s&wD%ed2nJ2wa12Y%'
p64
aS'hibtz6s0i2osxjtm5B=dG7:5d4ss4zFJbQS%Id82rwZI6a&waJiUyl?slO%dycs=v.93:W%Tgiwo2V9%%r5j8ooDc9e5ong2gy42:anIc1IAcs23FIccIM33I:%lC20ZIgz4S9MhsCxkmbiT:NYe3p%d-%2'
p65
aS'I{II=NW6qenwe%e30%1-cO%mww3elcftejxaYM,Mie/7JZIRs2k2i2x2JDAr3LU2ttQJeJDv%bnelznwAN-y3s8nImWi%8CIcQ5O2ZMMojNms.2atoeoy=6stediZXJw2mFos]zijZwTO2bE7,jj2&2.D32'
p66
aS'j%cmoT95nd23eICWMT2u%ro5r4e=:7wuYa/jcc0Z1ZojO42Z8fe209,5Xl75oIj%Oo/rnUeogjaNIDDOcFZJLoYis.%Zs6nBjncIvlj4iioY2txt2IJC4%f8F1ioM2Dek&,sBcpWpxTkci4sbne2%d=22/-'
p67
aS'&9F]b%Mu6toq%Mi&5uidCM62D%.f:%iCOyjiP%54TOcI/yIta5kM2rpsOiwQN3wReA/ec:Cn2xQis,As3enO2jZAYXfiADb%5xMogd82e1ort%Ai}%2eAeM:2Es2gam=/cfIgIMZl%ys62s7a%XMt2Rz262'
p68
aS'rIx2:Yl=3d,%2YE1SccWthTIbMioi.ThRsm2:-sN4YNdMciIowM2mhIuX%IENmsw0MT2ljIFlijole2td%&.2[sI4Y/1i2Am2A=3g63Yn0s0AM%OmNN%Mo,2aYCb2Qe6C_O5IkYenk&IArcj3kik%QpaEe0'
p69
aS'MciI%6_ilp%FS7DsoM3%%2lN:ee2&/t2lI2j2nsw2C9w9y+w6Ylwnw2ow6CT4]k1LMsFJYtL:6FmC2cnk?3i2zmcaBm:2O.2-%ksc1p53=6hUtsIoi2rnn2%/J86mr%gAR.IZujIIlLZtqisewm3Z24i%24'
p70
aS'IseOIgIjI&acstt2i4z2II1ZSW2IFo8NNUj1dmwM5n9yAErLJ,rnCfnj2c4prMq5pdcsOj2%UsjcIjM2jOsCssbI2JDI3t1oYATGcM?LT0f%jZEf_%Nm6Nes03citd2r6%scio0oG?_%goCON:BeZtegjE%'
p71
aS'sfigIIIqI%nia1=mpU228aivisYAT/M6A9nxje_.%ove53,c3j%yBT%2GyedZgoMg2If[Ii.Fj61,o%mezBMm3Ipr4s%d2taM&ir]3222onCEy=i%4cw5xiTNeZ2oJ\x7f4saNat6b2g,CDW&r9s,4IJuhi0/,'
p72
aS'OjCi.oo%dTyljeXJCs4E4W2Ij2yi5xio189EscZ7erRTma1q.wegIoDYiV5ZfLnBejyt/Wp,mjxNNOi2%&h5Anx2f1cW6onoIRisY4jaZc4y4cAB2QF1N[T29rmnWzN2i/1y25nk2cN14Idyp/ZW2A4CeI%'
p73
aS'2is:W8l_ITkuWq28Iai%rF[=/Jive-7Tix36IFjRndl3Mubmt0h=Y%_9mZ,%ErIJSbzjm?x%pjI}cs5:24%gZYvI2r5efln[i}9VwT4Y2Z4ks,e1pU?wDfYy2ufes=x%265ZIcZkL%lnL:O1nO7nBMRo%N/'
p74
aS'%Ot=2Mce5e.2dJn2,0I]s&My5cLisTow2w.rk232McJ4=oiL}=,2oeZbj2i4s&&%Cc4TXP-zn2%I2e/ae1iW3w02ZitoWtudTea2ywi4icpgH:ll.2n/=C0r3,1IETB2xei:tM2rFsea2aJFdO4vrta2mT%'
p75
aS'si6Z3Beii3iZEo/i24%J4jaepi.kjs,n5JM24wmaIn20ihEn:i6I1m/jiEqickjjiCtVmujsmIUwM2ws24jsif,sLguMW%z19/k2FT%gCYkjyr2Mbn0dUg6vGMtSo/QsvR,Msim6je27sjs%aQxie63sZo%'
p76
aS'LdFUw2,%2s0oNsIw2iyon2jBoI9Tjs/j21Ii?I2Y7ca7ImOhe90CjYsCmCE15iGM50jI2&32mTQ,ilirmwVE.2u0Sn%N0iy%IoYK/,Tcn2nYwROo0J2iZtRl,FE?%rjuOiiWIa840li5O2kT&7i2tzJ..f%'
p77
aS'enhbzp.W%RsVrr6eM2q:w2r/yd%5Nie,b%}sc8rbXeplD%ZieOFD6T2hw,,TYc4c%67mtN3rodI3Zsi0osr6Z00F2Ii%toOj%kI64M=6iei:2SZTjyj8i,C4sk=mt2Ilwjz=pxzu0aZcJZCSiizV6N_wei%'
p78
aS'g%aHD5%2xNJ5s2d4s2sskZ&sId2,TiD3igY2dN%2O:jhc=heZx:fJ02=U,Qk6cTCcsjn81YDce2NjeO6pEsgjUQDN=wgBeeTiwsWjjJg%tFeicEw%=5fMQi5e2Cze4INq6dj2Csisw6IbFIZ4n:PiMOx_,2'
p79
aS'aYMr00Bymax7222[NjcAixg&Zs5%eWDc2zI4os3Nw]n_ec:a2n-Qe%iOi13L6xywmoEdsnIrlE%VCtjnelzU0Tri_seO=Zoig2wuj%J4IuMSoCG,.8sS&lrN2IwbU_inpmAd2o&lrPIui}/VgTQoI24%el.'
p80
aS'j2.w426dcnN7iwhn?pprgUe_s2n222eOf2yc2lo2aIcjNoMKp2m5eM%2ehCS9U22mNgjg0?1iLUBdYS22bbNeTie2:2ini6c6G%0/NN5iI:T%Wt}1lBoI6mo=xqLw%yfdico2ZRdnnOtsrAGiimgaha%%s&'
p81
aS'iljJse6QoIdfwiO_/61=Boe%Atow4TOw=sF2N8&1Mjq5OnMIoI6OYkj7r:jLNfs71ZZoN=pita8IGdsoM21A63jf2MNc_AQUs5Ir2waFn:1W8MRx4iwsToon5t2/ed.QrY5cIInc2[eYMg/2DrAcLydY2.2'
p82
aS'm.I5wIIto/N5R06MThP0ei9y=Tlra4bwOmD%imxuS-2njN6p2mk6nT2c}2hisiesisFiumEmif[T5iyt}2iw3eawU0oM,dn91LO6xR,xY%cWCIjxD2202QEJ2wot=NB2jfgE2z0t%i40n0_cp:YjbNjiAt%'
p83
aS'2a/B3sicf42nk%MukTFd,mjwTzn=fsQoyI2jYsG3N1n,dQecnCgI2g2aJ6-xII7nc.Li/lIMZ9eicp1MO2%292cijscJ_kTasJ%2iNoslo[4y%SOL2c[w9nea3i@jXO?Ii/YCyOc56z%Q2itecMwOMI=WP1'
p84
aS'JMI:e0N0_09Z0CW2281u3IeegaCI%fNoi%BW/No5fdRme2pln2eDc]DvirvUje%s&MsMILcCs4316sNia%ao_wZMD&Ri%gjwI5th64Ko0,D9Ta0jr0Dj4cAz2vva1M1LewCLZ%esOLo5%CIN_tiz6RgLfZ.'
p85
aS'2z/Tm_%3ix%5i%i%,Mwp,ti2M_LIj1&:00N2ue9j0iwna0wLSm=e50ej4anssr%EgDrJz/2%xy22w1b8aeZ?ZFMamTeQaLIM2%_?b4fIoCaMWa2osn2D0i8k3g.v,Vnzo66YA0tIt5OT_&wuTscsZjVs222'
p86
aS'INcfDm5Xasi2veofMoUjNs=2:g5cDC-92j?Ow%02/,Tl2RZc7sn.nJ=Hns%2iWlJiZs59C6ZCigU%cxml:I5&DwPI=/8%sZ%ew..sg/:isp2eYMeNsnmQYoJV6N6ie8I/2iz/iu2kWNa52s2lJvtd2eW4&-'
p87
aS'jwmIcY1ABs6pIraaDo52Sm1UI=zQ93egjodIdJI2DMr2lJa.22ssXm.%l=is3LSJNbYU2F2ecD_siMcDnzsJMt4N8%2&24ILziU%so03IZYodb5eNMocxg2icjZ1rimAscy2CiU,nj2,J1%s%dimij3SeC0'
p88
aS'124aelj[yxwszx1D2oiF6rDww2QYzXn2rMipp3%w,II2Is62Iz:4ntYs]fT%diGFid3%,Nlv81nx49otd6L%4AY1P1ISrTpWIDZ2ap6L2ama2jSsrGM=wnepw&%Y5v9.i%piOoxMad3T0cim&1nrjAE.?l0'
p89
aS's.liww=sO5w9O&chmQ.uL2f5r&6eiMfNx3oPcns%c23-jY1%s5QwmIp20nGMjH5I1ng6covjFd,S1piaN:h1.jc9MJ2:d?.nm,/Yd1Okj2.JBnlZsilm4jMnDl/viFIoE=OpZdwZ3iI%2tyNOT.w1wrlJ9.'
p90
aS'4%?iIcXrI%,lQiUed33ameQ6nc.zODY%1WtZxOZBhscO9.wWMEkedwrviwtiVLMcssrw,inSs22:bVzXmACe2ZoUbNI/fCMU-fi5TiDo,OxqIWn53fi%akvtI1a2j&.jtbmrYsn=f1Op6s%cNy5c6ikniR1'
p91
aS'%II%eMiOjTu%IcWi%s2vM%uNwnQdtwl,wYoJ52s6puY&l%e402HtNFNIII&eUxeweOgZ2miCmwcc2jneV3Z2Q2WrMCayLHIQ6MfIM3s6lYaVLNoeWjDFcwGgOa%sJxrDQC%0ULs=i/CwosysYQaj2wYywe-'
p92
aS'J6jEcd1Vw3s42c6MtJlfQ/02&v2l4f-Ny%rd0%t6YM6yUNeMM8MF4nfVOi.2Utkei2IQ%49inji=zrFcl24sPcJIlZY4InDosehLH%5O7.CRsoIij21QmSt8ioR:M22ccMcmismiolDxIjI442%xeN:WB92'
p93
aS'/%Fi2%TIW34m5nleodLrzObO?6YCN%2saI%iMIw?ZicbtnjZEfIirEMIJM2B/ma4rssF::m22c6cgRJyr2iSbTd0j:ss&meSpe2h4ss3o3I94piL2cwn%Y9ORSSCuF%mjO2z&JyiZCr9rc_1Jptidd0n2W,'
p94
aS'2bFjBr2i0rTOn/_tI05RsT9Esh&9On{eBxY7_I1IT5nRpej0oN5OdlVpZS}1je.s=vdsLC22agfix/Y5uI28k9moeC%DBm:w25%Dc=sw9Ly2FyxEJp3TnC{=47F,j7EiLQ46:i5jzxuwIjz3ZE2jdWmxYT%'
p95
aS'scmI242Yic0a19g%GisB/i10Rskc6&2nmO:iw0oLgYjsOo2si4%9DF2Ix0.bUcan7i2a0fscWTOvT3iZ1/j[1e%2xp-M7f40xySk23ye225E%jdOwwc989N=m1IEo4rLxcwp=wRoIOsuImijM2IiLJ9=%v&'
p96
aS'2r4dx?MiVN%i27c/MzsStaJt1aL2IjdiDiryLsWt2S83L921oshGrTgV=462rctSN1ebT2u6JNVi3ri%doDgeese2=o22acIosedehMKa2Ir4syBew.c2jijfo2TQn60r3x2IrimiI%eni%2gllAMg2%220'
p97
aS'YiDinsSM}ne1I4iE4r/OYwwO8OI&1lp%bRct24IFIloUiO5d0jNmLYiR4Mi3DIxmgo.=i%fvGljCw58eZ2%A2xduooaMWfIgs6NJocgj6m0RYpj0_LT8riyaN213l1aEioCL62ow33IZTc&4c8Ihw/for=%'
p98
aS'iF22%%242jk35mT}y%oN0Jo?OzOid:iSm3AtEU2cI35NnsV3evSLg%UDI_DL3lMl5=tAez%2oMfkn6BaOpKYDycMfI=3zof02UewITU0xi%ej0Bi0wDLrN1jq,skslDnt%uUYMTfvaip6Is.DNj3DsNjly%'
p99
aS'7gair2l2waTwALu/:isU:I4pZas8Q1w=InapRv6_a.b9%_ijTTIteo2ZcbcH9|eo=BeaDz8DJ7i0zr=VZzcrjW2}2jI8&eZNDoj27s2=ad2iIemTMM0UYQwLD%geina?OujIWdL23ti2d2soONiAS%xso/2'
p100
a.