(lp0
S'L/dnlIXfXy/X.vCLbh11DhQrL2T1jM3nLKAtHxNMh<dnNMd.hv5@HSi$HLegbEnisq1$b@1ylcxq/01uM\\xjHU1rHReHXB`9dkBe$1+wNcld2mNiIx214+h311hnN9qD15$ELt1nLh^sNm0IS19Q$1h1Ev-'
p1
aS'o`Lh%$D2^.dHnwD3Y1/1tfhY89$1sn2jq%td1rg1I@hHpI1$ovN$bf<-rr1XH9hvqb\\$jHHDgr$tT3s1bB<hq$%7X1ha8^hcP/MhIuuah1dMh4l$Vhv%nNX`4ldsdsXnhsiL1oYsvd/hba$hd1-ih$Ss8l$'
p2
aS'vmYS\\d1cd$wRd$b/1Wvx.AXiorR4`d5^hhnr4`1-KtS$3`sr5lli1V+mji%mM1i/f1h1BoThemcLhfbn<NRSQrkCxR5H`UN1Y5P-$h9@yfh4HhbDj0d0xrvRRCH1-</MH4>52b1wqq12qLaR1HDHw<hhwb-'
p3
aS'>gVC`N|4p.$50M$21H.n%Hv+o`9dXw1141jijcim$7buLiIK5`D2-%vt/+wvM3RXr%hKnYV^5Phq^lbNr-m@$mhe9cHkdjfTH$sn1TQ`1vvot4<`c1MbNbg/@V$i.bY`qh11|vm48-28MqUs-n4ThINnIB+'
p4
aS'NP0SVL0$b^syL1C$$2vrC7f$NN7RhHKiiwqoaChMxChstBhrcl35wivA1jBnsXihM9vwhI2hbc-h$1lcgiHwXXYMKm$gvd3RmY@d1qefQwk+$1i`$dqnF+1dvh.V3o1i.id2$qe^hrHy00rqb`ixW4LmPy0'
p5
aS'1b81CLcCB+Iv19h1UNhCdkh8st-d8$-bkMVM`HhF<+s1uMaej$-3`S1qmxinh3LHcx1y/MS1Mc+`LD/fHmjg$h1Xn1IbYcV1h.LhsLhY5.i/ckNh3`fK<>Hiln4<11LmM.$h2/vErHgrzIlryYn$xstwC1.'
p6
aS'cWH$xrsBRb$oMb/`^jLi1sx6Xb-sF8/d$$M5ivft1hKsN1vQn/cB/tLY4mmnbr^5XXnX41Rn1|HYhX+`14Fa1lcdD/3hClvi$Fi`<eil1O/j2i.>Duc/3yY8y1YUHX4e17`1z,w1D9NiChexhao/yh4B^11'
p7
aS'T%35cSH@$hxHmB8e11-h2g`M`whrr3<.HN8rL<b$dlb68H1pdmrdcqHSQ1mh1L1hiMl$1idlw2q$9@X3$-IHC$|r/Ah>rcjNRx1hYH4Lovm/97re3rpSdF/<D31K$hrzn0`H/Qn$0n0hp2i18gaqNrr2tv-'
p8
aS'a4%voN2sC@7L>^/mE11$t1Xq/hVib8/xq/QdKhS1hCviY/s1W8qh6.mL1kLnDph@WX$nhtEqPXqoK$1V1K$6rdSrJ10BhN7nigBycuin^HvS3d.s$2icHSvmcs1-eb.etq-Ms$jbrHbdnob0i<dFt11`/9$'
p9
aS'8AXwM%1hHmm`lH$2E8eQrQnhcC11IdbwP$sqnmiqnrrk`5hh$eXxShK<h$$hghLbXFx4HhfImP1u4hLsqigr1KLdZ`-AgoqXrayBI$N/KNn11r11`dnmqt1<t`rNHcKn`/3Tqd^`|YoM$Xnh<Xak-x8Ft<1'
p10
aS'B-hhNq>g-b$3ncHn`1C8MnH1AhieZb5r`iHHr0Lr2m71Mnvf/E1DS3bdX1iL0nqKYr8sANeQB9`or/S184BYn^d<C`1hH^stmkhaMlIanIlr4Sx91ih$-kj@-2h52SNX$xn@hM<fgMK<tsbYrM`h9qMbw0.'
p11
aS'r<nhkx91qh-NiS907svBIn-d-^PCkkN$0Esx-Hd0hehQI$ks`n1NL$9$nxiHghS.dr22q@/vdl1-I21bv`X1/93q1hr0n9r`1+101X^aP9/L/dKbhoendHIfmv`vVr3MMbxk1qH@S0Hv$Yeih/B1/mNh^7/'
p12
aS'qn1<308thmGn$o/euTeX$11vadh$-1tiDusb1T.a8dbc.vhOMhg@s0x.`g-1o1ilhVMLLy`Xfer11.iBH4ohLrhE0^vhu1.xhkihNgCS$Emv5D3ttDhdxr9%QaHLQSic<hYN53Vihqb$HY`HrblD>U6<Qn.'
p13
aS'Lwd1/lmwl7h1yMRbwL1`md13elMSrm3$mi@$K$1YHNclvhYIrD%XXr4nKp+$oN0-@yn8gu73./+PQ0k2htvcIn01WF$vmwi4H13rkNPn8H$9CxFrh.54v8h8g`H1$gjo`ab61N926c.nIvNdRyMd@1n1rf$'
p14
aS'4oUx/Bocg1Nrh5x3sXRWx1Ht`1LLg$dvEDDiEh$1t/8niHrsB+%NsH8hOsmvb$CjuZ/sMhxbt+@hK>i-lYkliF`nN2-la-1qNHrlHy3s<1^1H65k42$fYMjBnL/vtlH+Yi`$F1Ze/NcH21y4xwB8sq`Nr1$'
p15
aS'Zg+/</e@8K$I.de-P%SLbhlS/N6LXf1TlH-h<$ii$A@iI2A/BlsgcF0T3@x$lhrq85d31$h1hhha.HHM`1uSlb3fm9N9dHcrriH1wQc1<si@Hou04rr92kHnT1SB`tdLX3CHi2Hks2l.348hlBSwHe9Iqd/'
p16
aS'Vt`mM-kM/n-Is5n/s1n1>^2<iLgdsnhYwL5R3hLhmcmnz1Y/hh6t`lAPDL2Ys$s7H<`Ix7rv+0vl4z1@n/SHhe$/O1C$8SqT3mXrHPn$ShrArni1i%s54LpHPX9dhN32rmFB5rrq4qc2vnPm1uidb1h1$N/'
p17
aS'$fbn1lHpE0.R1w59shmb<`b$PM5`05-TIH2H5rIKRh6QLbBvT4n2fm341tRdchAg2r1+.Mqh58Xa/PX/4qi1G3LMB/`Hr<EqrhH$hV2jbBb+%9hNdgMH-edr+hm$1JEXVSC`8ffv%rWrP112u3r5MZDeie/'
p18
aS',CwSR@dE+1r<E`vMLX0L2H5$X5hi@vtMhmgi5qHQMl8dZF1hKlh^sY/hN1Hkqudj`jvPY4w1hg-+o<`HrrPnUhi/i$.1gdTHm1H`Y1h`1iqlh0m4r8dKlrYcM/<3Sp^7tv6H1-qmdrs$Sb2HHVh$MMh4Fj/'
p19
aS'Qb/a1clb.1L$%xhNh1d/Pilm@lXLtstlr9NvH^$1H51z1H0h3/x55BX2v^vbKqb-`c+YBS.TLyrVla$VrLTbqQyz/cPYM4,dLddV.MNIC8Hfl$$A/w7G$h1<4k/.4A/v5YqQ0t1.1M1qr1v,h1jhvvY/A%0'
p20
aS'<HY@k`r0$hXUP1uKqr$T/$mD3dv17W,prLX@//@4$n7YDlXR$Vjtvfl11Iv3$riHSg1$X1HcM/1hi111<k2oXO2aqSxb.41DKci`ho0XLNB1BrXt13Bd25sXhycjlYdg51$nxzPy`SrNi8CD4c4T55hhRr%'
p21
aS'1LJE6h9ir19H141rSHbkSaPlld1hD1/0e21H1^h4mCm19M11/rVciTE+h$nd5QWhhv2$f1LRLqE4d1`Xa/ijXlE7tyqCbw/iv16Lhhf1$^@JHh$TLYknvHi$sI-NXMobFMn1`Cs1tn0vril2h/swfn2@1e/'
p22
aS'X+Ma,H`voi$m0nnbE3I2tLb<wBFiLrh10S/`LxM<hYbL9hhIminse>1+XSlgyHBsgh0+v$1e/5r`TN1q0vHnr1cx`$3,Pkk5+MlLxL2rzsix.z$q<f>%iweDfSyXtHrH`1a^es/$N,/bkN1ndNTb5e3a.11'
p23
aS'3/y-I0l5Ms`1sk9qhcXdhGNsdrrizbUSYnxb95bdEP$dXr2ikkSr@ANh<<Wh8Yc1/S$15Ij1XR25zde@df7Ksdd$mA3Uw1k1h05q1L0mm,senV5a^HNUm%snqqddI1d542YHy@Y33IYHrAg0D1Lxd$nU$A$'
p24
aS'ymHfaqi$Bd-$/F41,HSdLNbl$carXs0/$NEi$Soh097@TfohC/$ghrnnhr^$n1IHvx1cdH1`HH2di3ry@biIdrnMP04v`rSvk1HAmhBMd$DreKv`SB8nnKs/XKBhd<5000m0yHBI/hr-V8IrqfXoD0hbcz-'
p25
aS'h1J/112diqclTi1E$2c0/40IO/$1g42RVii2iL`r,fj01dho1hiN1$3NiXPFXu4LQsnrN7iHi4Xlhl@zCb4Ah%BEUS/N3$vMhMPqh10BB`Y|msQXc-$%vX1d01.iH4Clbwd$i`rHhms0rhvBH0/1PMhs2c/'
p26
aS'H/k$HxLmrfhAlM$1dM<Xn+dxNh$.8ml1$EmsB//du>NNhki2$`5hC1LHmx/c$q$cHK$dhB^EXbGUhHnqi7`15SVVce$mPGLL1bnbvnKcd/1NdakL2y<LVb/7@5h1hhhYX37L8ix5vMLrHhT^l0Mwbherh/+'
p27
aS'hillqShgAw/nDrr1mbdbN$-$bIHdAvaF14hhrqiS+Nmv11JHSy-.Tn%xhhHbBX|PItn$sd1oLRGxS3oecM8T1TrcT1hfg/rsc1tL01I$rb015g2vonhP1Xa@H^EhUDi81hLx,rhLr`AhsH/@1VnrB/h7/N$'
p28
aS'I15bhNfC/%41HHXh0sSnv</MTh$1nqa39HnnC2`o1,1$h1l/rd@E/^$hBf6H4mHhTLl19k6BrA^L1H/h$``.0Vse31h1IR6sgnKl23IB2K$+kkS`LhQbd`HM0hcnrKx51yeDVhBs%gnh1VRcoy$/BX1BbC+'
p29
aS'6XlS1$5N2h-whi5b$1BFB3IAr1aSUro81SazrySY<xn1itWRL/6$-asnRn>@vruqYS%LyiQLr4fh1%cLb1vbcsshHuN1mCrhF2/xnn3r$t1Nh%cd0`1MbVN.K.l4b4hIDq$3dkwib9/Jch1Sr.hVASqhco/'
p30
aS'0Mi4xrcrHTLeH9LnotrbRmvL7kL1mxUic|\\rH@3YQLA4b2HH<neSnGv..b7ChHHFh1FI1<i2N.PYk$chSdfBMA|M$hdiiXHIbIcC9ehXb0UMvgXm3+K$h`%jrmj$d$m11yihvihiYiddnriH^dn,niLHy|/'
p31
aS'h1dH9oawM4i7lnIqismy$mIts8s2bt/AN83B2$09l%rrtovhHb@dt1u2q$sC-bkk1hwnI11ls.h4$3-tV73r55n-bhukvj`S1Ihhb.xm9iMh0HvwK1qhHK$d63BdYHMxB1cL4mqbmnDh^5@`IBeHqFqMb11'
p32
aS'1dHB/1$rF+99/da$.$quHD%rr94ntM/7frdhvd3Np`0H2rh10c$DMqiM$dmT1$QeHCCm%4$hfvEPItb4inmcD7shNlch1Yhh/g|Ehh4bv%n801TAdcbBeIL1h@pdteYvtiNhid2lsV4xqdo5yuiIdi1m$`/'
p33
aS'%/$H%NI./rl8<1S@bdVhrvI5H.mBt11`2k1nYi@lH111xNK4mmMrH3B11bkP1QmH^QlLb2c$A$d4B<SmhQnPhQHHdy>9dsBx3N1vrS.DB$TPvHF19-Btt8Xb2YWeX@yHXiHi$iCoAd$vjLS6R5/0SQdyHP/'
p34
aS'H%2/F-hSrnQX+l.nhs1nbNrle213nH1@0+Ma$/h<%rTe$0.hqqBS1g1lw0hh@/%hf/1nmwLmv-brE0/R1lBYdH2I8igjXn14n7i8rvPlb+vi38cKc13i0d1XS.b-$EF`$cgw.4b|eSh9Dbb9hvuh8/f^HB$'
p35
aS'l$N2HShqBlC%v4c2h619Bhh115<ZjlTv/Ahmx-H1SibLsYdse,Gn3mC6fr3hv$n5XFD5b.ltbYrCLbe1w1d1,-1McHny1Slcwkxh5H@MHdnx7$0uH$har$nNS/n47$Cw7elSh0hQ/7lZxNdZdhnHvl5t$d.'
p36
aS'-11551v51BTt1RoCDdDL85Y$QOr1MNhFw$2Djd%r$11Ji7<Ncqn2PwLVo3/H\\5m51ddlhIr8-S8hu^v5eBL$nhug<q$I1lS$H$1413b1e$ngs1r/Yv^$`ev/3q<<0I/ilgf3XiH$ai2C4ejlO/2sL1123<%'
p37
aS'Lts0735Ba$<nl1H4KNisNKH1L+BDHo113rv`+$Rcmx1ihh$frdQK0@ihcS`5$HdHllshEl/1@0D0BliFdi1VNihmbbbd.g$0tx$cHuTLorN$FbhBFq$MLssIfg5a/LL11Nieh8K1hGhY^hrtgn2bqr<.dr-'
p38
aS'3Yr7hbilfuN0>uHBrC1YarL1qHeCCskIw98CtNLb21Lb0iCrx<qPSb1rw3+LnhS$dYLNYn`YmhH^18fxHdm.l35bvHhB.9|5CLoe%hLHyUS7Ikx<i4Lw111SSHCyvr0MhU0@ST3mo1yLCvKsL1icK.QT/H0'
p39
aS'1qL1tJ1kFa+Hrq2i.yRX/qi/$yRvkNq1H0s`%Yr`L$hnVmLVes39C23qfQh13`tlh1a0erg1i@iy|$BL5L3mYQY3$MYZtCdL8jheivbmLiHlTL@rHM$s$nH2CsHH1Sri2A01$lho@>aHn\\yt5$$YmL@v15%'
p40
aS'rq1@h.$L5lNx1v08tVq5q`0+nrITXwc1$l7hvldH281^nVsY1|Lr<HN^N2m1okS.j91r2./LLi1/mqbhhPnhktrj-fhwu$lMbXNhifd5.UFQhmln>3iM3Hm/T9HuV6d-dr4b`wdhb9mq5QPflY`Fy^$mr<+'
p41
aS'dm^olXwiNdw5^m/5191f$VacnPHy5rhh3Cu+-vlC$9gdqCUTT5M3dqh$fjI21Y7$5i7kC134jo1bdkLdll<1YPr8Ch/9lrY8Ck@M9yK3on$vK4Pb<IiYriKb7jh$v.m$7roXHhnNh2d7%hfhM`PMih1H+b$'
p42
aS'S.10bilf$1nn1`$ENs4rtsNqS^ShChbCN@Nfhyi8mY83XLs5his1t4$V1yj5s420$-gobH1SLr1dU`jhLpH1Fmgr.1c5h2n1HhbS8d0Shbnv1e/mfvT-/nTo^$n09hm1F$Mormx0xlS7sdLA4srw.Y1Tb.1'
p43
aS'YdlSEH%UQS1E141R/1-75vhhWr/r-40taUeSbHQiSIr114lU0XSNh2H`cxTNjK/fEhYL1Ss/Ur1nhfmHd.cBhxb`$1R^1PwS1m1K3$Nhkdb$h58d90hHbin.lCD+hN1NdTmM1SH1L4$ML1`lh2z$sDy5df$'
p44
aS'vx0v`oRom9r2XkmAcNe$vCcqkhx6hc4h+5xMnrdr$i|LEw0vrnmYvDuCs.1RrhMnTKkl2-1.IcE1MqAtdib^Kb$saw$LK1/v1hN%hs4/mt5s/N1jh/c1X1iANlQf.$bNhhNDPp11$d-CNH13w1bHFq>gwE$'
p45
aS'd/CNlXj1+kNN5P<mMrrrfr^3hCVzLno9Hixk7.hvHihrqV<tihj+>l5H2h2o$>i3l24nArP`4DdCP1qBr7Ni/$SxYjiu7Hc/mrANeL4aY1RbH9drShm/3@jrm0o4AHvqHdrD-nqi1rdYbrH$fctYjHsFH5.'
p46
aS'f1BUvdmHl%.nm`r1iJj/Y1hhEji8CtkMhsNyId./MQYhl$/XgM0LMAmmNmvqK-5LUTL2qgsMK/$bCuutL3@3id`cwYbl2mNn$2@tvoH$r`8vHdh2o5sb6FfVljnr$b9r6`HNRBv11h1Hn0lNK`nLR46$Hd/'
p47
aS'Lad$<v5rf8NHojhX|hk0w<fL`iw1QrMCY1o$v`dNHv4vHiAY4bB/374vQ81n`qh8vaBTS$rSvLL%HO9Q1$iPXBNiHbx%0-Lrh$15fdNqMh$2ryosHth$CH3Kr1$rnX1hIHH/0HFRCm$rm$rssRDn12Vr12%'
p48
aS'2d0h4hhphLgduS`MB-HTiS+$bcBL1$A@h$ndQ1KNqSkA2nRir+.xXYo%laUr1d0`rq2L^ihiH`b51sbXE1@yzYi7/dhQHfH+1`bN1h4Klsx1dnBNLbKfrq191Lq61lHv`DMRih9rbxUx|NMT,G-1$-Kued/'
p49
aS'nmK0/11ml05J</4mHAweY<fggrMHak5ndSC$KrbA-/01`c5Hrgr$m/%4CV/LbTbihfne^bCed/mon$1Ha1dhmrn\\iedCh1olh$HmkiLrDXhHb`dbds$lbom0h$HR|B1m5$.h`.2b40BisH1HMxlmrxH11C/'
p50
aS'`/1LSv7YYafL0vt$V53n`5$1h8fNg0YPdn513Hqn4xH13^l@r`ofKaov7cLnM`<`1SXRdqdFv3ad@-3I1HXcx03bMXtN`L6vY%lLH$<qA7.r.j$rn1X1hh15<bLNq/3ak/HC2i0br$fvhErQ1j0L>hBtlU%'
p51
aS'e,/$QP,$@/bLLyqH2LXev0rdhdid`mq1vK$IBuHr$o.`M1sD$lBF$j1jiyxh<MB1HR/R%<I2$reVrBnnLmr1^qM96tvdhSnrsL$s6adPY12Ka$lhq2aNSK>`1qiM2vb5$Wrtb4`g$HnddH8rr5XhgHr/2A$'
p52
aS'lM,s.Lo6iCbyNAY1lKMjd3INhCsGx@$%lcR3mvt$/mci<p.Qd0HdBt$/$Y4TTcrllw`vH+boLr-Yrr1HR19NpsR4whmkdn/d8qr3ih`eBfm02dNlgY-2XvanIMfdH/mNf0b2qs1N%N5d+vd3Qsr1kNm1ri%'
p53
aS'CrCwNl981\\BI^2$Rb1<s/PhS$eqhFc0/5i3/h%rq>qIA0eXxvBd$ct9h0-qNVC1h5CdX$/11/y%rnV4et9FN1+9d1<tafrPHr7$0XHd1hZr5r9%/d`iViZ$1e1dG1/-1YiXCr`2ArRiyfrhHHItbk5L3|K$'
p54
aS'g3Bm\\kbdLk$BovAfrDc$H$52yb2Ln2sH/1HLm/buQgf2sNC`k1B21kYmHvHhnmEIqDRS7remL0-mjGSlpu%50dt1e@X6oXr32@m/II/+,3VGr$1$%<lnztHL`i1cltr<f>o$NLyFvNoX6smLT/cf0^rYH91'
p55
aS'D@qB,U,81%HlTRT32ixh28NkH3rkcoqdae5m2Lh1b4NHB`LR22lanmv2MKbw\\i`ho$cXh3E$qH1nodYHLmt1yMm5Hah$rqoMn1-ns32XRAt`M>h4s/V$x+1-/L13r0mHg+qNdr`.@mHAls1/rfNr|5v1c@$'
p56
aS'dN4kCLH2hi5b1nb9H1iShr71uvhhQuaIML9KmhXwRV-h1V@BqcHPn1^o$a/F3M<T$D2``s5DhYTXI5`junsLSr393hogr5E`$rS1SiH3rH`nC/Nm9Iy1`his0h1C/sqS/%rr1eJk1`icMNb1WchdadCssq/'
p57
aS'irNs<Cbi3tGMmo9YUv$1v%iMmlzY>rRxu1v>R$821YYD@T`v1HfN4<ibdqh-L$d12$srim$mbhmMfhbn*014nBk`bunfdtr$HiNI$hhr$0MHbbBoiob-qdFuXyYm1LvyYNqllsKHc/`/1bk1/^cXivH``<$'
p58
aS'tYB/3T1bljAfqrsH/hd+dv11LB%33hSe31X/vn@wH00L00Bb3h1HHe^rkn1>mbki2990HTSLfx@lhDhb34rr0NgguMq.N3h$X9r3.Nhv1dliL`hiQ0h+Mrr3hX$+SH1%b+$EDnbwb/%Q7h73HnX8$1Hohb/'
p59
aS'<S1aldcnbD$$A.1zemadBqlMRNqh.nXl.3qDh4/jvm1H$4kNoHLX4CtvN/rf3IrYvBv$sb@Nr-qiE5hpD+1$m6s/vD.hqE^0sHlyw1d2m9c3941tnnm0430tL$hvVmrdhrriVymiV<31rL2YiBk2Pe5D5f$'
p60
aS'i1@+nMdHl-$0Ha0ih0I9\\1HmF^V1yYrb81CmN50rLv1kHP$n8taW1h/rbTS3q/Xqn1d^4qvHk42nHCcC1h93Bsfj1vS1w.nMy1bhDYUnHrYRxX4M/na318hrd81e,6no1bBlfH$MtVbr3LdAHX2@hCavyd,'
p61
aS'v`8LQ1AbL-$`SehOhIe7@$t9ylHjiL4cihb0rU4sL1TntEGV.TCnFblHyBR00m1q<`v/inh7R2j<C.XiPC5/rNb\\0`1d<ecH$kn451mdMvKrZarIzBLRv1^700wCfxsnrf5Bndv1a@nNd9UPhFYax/hrQL/'
p62
aS'dAFL1^MelH550YCL-b0ky/hnnd@/1v$Ds5Lcjrdv$4SqFn9bsdC<Y1Xrco-Xb31o`r6Cj9e/hPKJvBqn.D1De.58h7$XKFqiobkiH@31LXSH+<X1tm2UhINPsw`L-H@dDx01UBXv1D8.hL34hPavKL9hb>0'
p63
aS'LVg1Yh2HYs@4PBvU3xCr<zvrdOs1xX+4Dh`v15CpCi9MCHjrX`ubS1Ll.1M2ivCYhWnvm@olrk10w$Li/cHEj-R2LaHvw1mwMn`LX9Yhpqh6H7KXme3DMf`mzdv$v3SuRc>BnbKb6hC8C12dhIL2vo.d/T.'
p64
aS'fb$bowiikx@15wosxthha/komih$iy5dicib4vHHeecxmrkiLmNzVx1E1Hq2s1%uM1yP1112iHx1RdiqgwWio$dHeLbfug<hrLe$AgBYK4$1m8vZ111`lrLum34Pc8rRvhZ52cRhTTQImHx`leEEB5tC1v+'
p65
aS'1bH54K5$h3``qhmHn5Kw14mFbUfdl4sf@8YkdL.C5L3LEkB2hmX$x2LH1Tl1Nr0Am</NfA0`1@b$EZHOOyr$5rToNGbL1@E%mBnQ<Vl.v%BUmiBR0C1yltw6H%rs3@.oE1Sd$AxHK5VI$bL1%5rIr$13o$1'
p66
aS'mn1HznwX<grkLC``h^nrMnoh$7$13dx/hl,8RidCdhrihbbPtJSbCd5dLMN9%$$MCchyKb012R512xn9m43Lu$1`^NKFhr^NiNmch,2tw1yi1sd11HNl$ie1HKHiH1rbDji>lmy3ri1Ds-HxHMFbx4iy$F0'
p67
aS'bv-w81Sy2i1L1sYd1<yrzioHr2HHoARX41LaCFhreqnMx1rRm\\yr`e<1/t1Eo<13>i7dfu1Qc%KPi-nN`iMRds21PrQ0qytnLrq-SqLlXSibnhNqMVj.orlNC1h0X8SqiRrn134sd5wiBB22dgXmi$1$BR%'
p68
aS'Hy52O4B6K1$irgid11ev`1f5Hlh1sXIAGn1HNd1IrorS`H14+.L5bnrjb1n.hcnr$iqn1h1vkhH$hxlRhlEheMrCj$gv1,V.6LXhIm1grLP4SIhn5IodN/u1NHd`WHdv4dr2tdXnE-lmN5n$o`a2w+rCvE.'
p69
aS'toVSCRh111kr1dddtHrkNtIrkhEgKTq8NL2n5b0VM-jt-hE/$/SIHN@$/ihwNX./w8v/32K5Re1i2$LSn1L4mm/SS4cBnM$Q@wsbi`$b1$fo@7tLd5CC/7d-I01$5Amix4H.Hrmyfr`^/7Ec90%/HfH+t$2'
p70
aS'>gf/RmiS1mBLSh80vf1a4eh+f`LbY$7^243YhbkDYnLh3StD1i/`iRiwLs//3Mm3Corqn<vrS`rb5<k1x2Hk$qn2Hu1mSCb8h/nX`i1bMb%w/L^In63SH1NY$5h.Lrqrifves5l+L@irPs12l.wdxsnLA4%'
p71
aS'lrqr3b/%CnMe//bbAvSCxy`O$lAlrBN/ZBFqE4yICdmDnXtrlm`X/cnQrirdN<N1h5g0d2ThHHDmov|1H2rr7^rddm4OLn1i$rdHLH$QSch.HdXqPHjj7c1leu$rhial5/91@dDd11/MH5dIr$K$P$NT4D/'
p72
aS'.$qgniN7Iv1d0dcdRh4q<1mrvkMXfrxY5-1o0keNDv$El0SbwsMqmdkdh1lt`r^dhxLIJ.1avZr8nCbcHmUHj1qPW>YqYii1de2O5v1Ksr\\kGvC,rt51l1l23K-e@-1c1pXF@HV1d.hhh`atRuXr<2HgEq.'
p73
aS'vYS,Ymrr-hcAdhKRe2Lm@SUhh`Sc/2cI1oYss4CSTl$P.@r1Sq/rndLXaYy0NvU5mh12drD@lHlrrH+^5vK<LrrhDqbv1iq2hHIsS8`hN1NrNnB1|B1\\h1b^Hrh1frFT2cLdlfh$yVP1dai5/djbLb5Y@0.'
p74
aS'YlbQAh1BlEC3H4bT$1nrgS/PH<hKTYR64rS1X9i5oII1hcHHrc4gwHL3QHo^nx`bta+`HVIimM1H`^CH%SchMT/BBe$/I2gr$nHh1HL19blvriglSSNInYp3XYMk8Kh1ohv$8m`LDrNm$9Yh+.1k9cHrVH.'
p75
aS'^d5HdjI5wndr@1dos8iWtYhHS/looh$C6gH1i/1f5Cpu1rqiRixh$nTHvZq@1B$1db0TH2mA1rqY3oPslT-rl$oTTBicGB`N$P/hHvhqk1I,x5mml-tnHHab@9X$j/r3Y8%H1KsI1d/HgdlHH$9Hl3hd1$2'
p76
aS'Tern+5T+cwIee`Ch/Ch@l9rbqBo.xXh/DM>l`rN3wb2d1YLqiHBs9yoRl14kLm4i6>1DhLkhehf$F2Lvv+baIX$fhDSXdTlb4.j6y1IimTh/Sr0Lnj41BkcvwvcHv@5dXk7gK4BYHs3rUrmrr7SHLYcvIv%'
p77
aS'dyrb8lW5Zh$B$nlnCXNd15+9o1NrehT$$$ao+Lh/hghLWX5flH1r13brhbm//`pgk1S-b2jDTm9r.h@v`5dEr1lRudM14SfmHai4%D<$XS$XJ<rNpfB12<a5/H-bM/dM4xBArlhHS3dR0%s31BsnR`mic$$'
p78
aS'l2kP8xbMhghxkqsSm@T^sh3F3+h-rtddlqrPMrd1nhhLY33FdNo$1nkiMdi+hLi1q9wmli0Nf1I1d$w$C$b-IXlr5ryjXh`6lcR12h-5-D5$8$iet7FCmfy0FhxHvsci|5YAelOVjS0|5@1lHH1mMex.cL/'
p79
aS'hbCi1R15Rl$n0nmr3-LE/rC1dD/Ms1LSH/3qjCh/C9n/SQBrvl4hX1yqNo124U$FyhC9r1i0/C>@hSHvCd1V`H0rlqI>A3/hn$1TLys<$dNhmZqhhChhxd>GL^aH3h^egHFMc+cIH^dBC$NQ0921$MSi6$1'
p80
aS'-yTXBFS1LlmrId1Uh93$3sSMM0H1Y$U7fG571ik3hVxbR$gnQ/DXlHhW71w|h8Xr8qh$vW%w7Ymdvw<ishT414nStgL11DLRYrviqi19kpv%Eb/rf.Xhl$rjShi`I6rY6wY3Vm<a1FtQsbhr+322YdclDH$'
p81
aS'sc1ns58N9%Xsi$srLq5sHFL-usQd3bbS<vrKCvrm$9hi^iw$.Sn0I6trheBX51`VUBS9NrEQidZN|/^P9+s/11dS`rt1|obEdEo0,L$rhmvdKiY%7jNh3HoAa9lb10bN/`hIdcnH`2FpHyhN|`1hL$rddI.'
p82
aS'1CkdI.pl,`iXvHLrMh2grDvHHrbY9Fim$i`mj40ka^m`3qILdL1f1171dd-K1f$3ChnB2Q1MR`d$m^eD1sIX/JaqN5dWwvQN@3D%NTWrwr1N$K108Rdn@IHHrsDdxnv`3a$C5H`4/1j0SL1/rTwvt<hidt,'
p83
aS'$3thttubQ4C1aCghB8/TbbHxtu1+$$bkQuvqHxLV0b1m<CnH5vH1kDdA4HihiLCYNUNfSC//m2hwH1H5d11h$HvcYrh<1LAG01tXv0Ab1021n1aly1B1Y13`le$VlnX$DqgkXHbU7<Nldh$Lk2cf+la^H$2'
p84
aS'r$cXq4Hiic57nXrsanNYHNH/b<oHndNhrm2s-CfX@iEi04.M7KlYi1$$<3lhlfR7hNhs$6A$HrxLqB4h6fy1-n1L+v$pqh41S11d5dXU8%cec8nHniEABiwExHeEnxPl1kdqV/Rw5Vm1wiw$$l01do3s100'
p85
aS'uDHq4rBjL8Lcni1I1Sdb1lMLqVb0qR1^bHLTjRk1CtHnhCrMmakrOKhkhX1Swr6Hme1B/+n2Y7Xn1or3w/mxrC1xHX5dYiS1y>D/HXHXoLd1-/lw/71d8nNmM9bdimnhvhBYL1kl11^PHYsyAnd^CSr$BS.'
p86
aS'E`drv$Lhkaq$X|<xb4qdLhecHf1y//brcr5mr4B4Qtml6rrnvhL@`Mdj\\XM2otNk$hYbeQc,1C$1go0SMn50hQAm0$eMl1HbBvvilhinxxvdBiCri15hPMGLHhBh32.vuCfv6ndT4/H2/3Bq$-qYhevCdL-'
p87
aS'1Xqh7vQSNb+a`i5cu$nMN1RbrQ|F$N-v4hx+dMbNCx-<oVh$S2H1$jkNmRn0HSwB4k`0kz2hO1t-1LiH3qhkc1L/kh.1qKhhw1.$f98sKS5fCXrf4$i%jinndahLkn+v<jLd1l+S-bts2s+2$@d4NfvhE@1'
p88
aS'/10$OrLV@TDVkKXFr-8$4vC\\SN`$3$A@Ml<Wld<`tNs1.jMX010tcMMbR-T11h$LC9D-/lYHv5W@hj`hK11fHibhH1eICknnAD<9edvc$z8cFghhLfxSyoiXA$D\\wH,Y/lfHP$P2NU1bxvain>,4ovqEY>1'
p89
aS'$md$i47qChsqL<wG.Y1bl$E8sdoejvT01YSbyhMrhS1NhChm1g^Hl%4idVcy9Xi1rxn11RlA2E%H3`1nLLCx`RyRUO15$ug8M>bvAiHSHPV.lr-H9nLm2P|biXuYcSD72$r^Q1h<qH59$k$rq0-L1N1mhn+'
p90
aS'000Mh$0SnrHSintl3n`2mC-9XrXgcfiH6<MskwRr0l3Fdo2YhvLqBHam`fihqY2$X$D9n30^^.b5@nw5bN$h\\j31Hbh1x3f1atC1QB.HLI4wiYc/HmyYyVdCnYL/yV/RMnnL0T+T1fc<THH$I8Ic1E1dd<1'
p91
aS'vD8L.Xw1N2/`fdK5$a$15h.1ch-d/HrDnxSNRh$oTmdnathViiqjg-fSm4N1I5n.S48H$k1mR-<t11bM2MzK132oHIQ+fri5GiHc1`9gNCh51h-4wnMsCH4jSSFII3C|1dB1dhP6HlbS9v1?4$hd+e+1/41'
p92
aS'MdddnIwyL1l3hYev/CNNH3Cl15vNY$2bir87ibm1xnRr-uihsTbbrNC$vn1ni$N.PHd3chCHdLmvIBdxVX$wL1S-ThEhY3Yr1Lbm591<QhNDA<v-,/w/L-<1I5$Mr1nioHj353w1L18Kbg1%9f3r4Nb1@/1'
p93
aS'rbNlb^wtHd.^yi`Kel$/oHwi$wTK1QkA1Q$2N/vLtCldHm@nBLShB9+Y5hX51+r4trvfSX/%mduqq1Wh>irs11Z-$%l37BLHBbb$BN`C3V1kMXlYNj/1Y3kr9$/1c%M0$Y0+Ci$Lb/dX<4vRrn1bXGh/PT/'
p94
aS'hCxDT/vmh4ccHq34Yr1+$Eh3Lxovde7dj@j$`L%i`gdp4970qAO^ghvUhn1`kre19cNxb$h3d0$1CBdrHsNm-e1Yia2TYSfHw$oix@.tOnXb1@q$5mcg11VXwW$Hmo5nB-H1y111T/r412hFrreu2liYw/1'
p95
aS'v32ilwbHb1H$dqr01xR$i-HSY54v1q1f1vHY5GbvvHCmRg$+ne14kghiE$sb`gLYW$ub0X1r$1l<VIF1ir$N$0rkybqd6mkTrIbMvcoHg0/<d3lg<8MXHVn%Mfb@n56sc300$vr0hrzeS1KHnel^00MoHt.'
p96
aS'm11nQu10D5Mhrmdh01orLLr+02XCRwdNrbn1jHhdiv>1VZ`h1m/4LLdwPILs$.NSw1/5k6MuWS1XHcunv1XLh3nHvYMErtyxuch9%bye$11Pqiog/cnx1DuIvcZrdx<0TBqNL8r`iCrbh$shn/rHv%$sdh$'
p97
aS'Db+90y31$vrh1>uVniH8weiCbOHwi9MM.dQ4oHih1sPbvH`m1/1rL8dYw<14rH%hHu.ow3mo@$b/>5/\\$Sav.A13Sv$5xeW@kXFhf3r-hrm^%aiHxIN$kd$$$4hi1tN1AqQ`ZFrHlMB2kv7K`Pshn$1Lvk$'
p98
aS'LohHP9VVMRi45h2-Kn51-0laB111+ZiHI141f3rgs1$m%t41r25q2.-SmuhB1nrSB9H/ef01LsivsLs-`vL1cT5CMrro5yrnmqYrqorLediIBI\\c/LVPwi2N11B38j1eFTDr\\-HN-DmZ2o2Dh`hdH5h`OH$'
p99
aS'oBUWd15NdB17jib-4$22Hr6y^aS11khhSrbRriDv%in0d$H/nLiCB^3L`i4d.iexUeP$hL5TMgiBH.$wCqdv,XX$x1Yh0/l``cdbw.6Idhh|Ybq/mens>mMlidXgvY1.2x9LFXNHnr`rbxrs4$eXdY%405.'
p100
a.