(lp0
S'00EEvv=mm?'
p1
aS'jia%fEAb7f'
p2
aS'H@DCC:!TB>'
p3
aS'/\\wd1R~f<k'
p4
aS'wNV2OZ:R[o'
p5
aS'N:)&o=nV+)'
p6
aS'%%o?B"]\\.['
p7
aS'+yUR*0!_,d'
p8
aS'XeBa>OKAFU'
p9
aS'x"cGm[-6VE'
p10
aS'j#S6]O4WG]'
p11
aS"q'dVZKMD@K"
p12
aS'i\\WU7f7H(b'
p13
aS'qJh04Wyy.o'
p14
aS'g8EDPFH0^='
p15
aS'*l=UOpoXmZ'
p16
aS'M|2?wA_Y~!'
p17
aS'CXUm#x;!w#'
p18
aS'yW7=P{2:]>'
p19
aS'&yo3_:U+-q'
p20
aS"n-y3~,V'Dj"
p21
aS"$~Bq{h'9Ob"
p22
aS'Nxgkn\\y\'O"'
p23
aS'J(}LHJfzc&'
p24
aS'Fp00EECnTs'
p25
aS'jOjI;hn(D`'
p26
aS'3;Tgv[uA*\\'
p27
aS'3YNaqN-J:='
p28
aS"~:?mq/w@~'"
p29
aS'^QbEP|0r32'
p30
aS'(gI\\#?\\CTJ'
p31
aS'Y?CTl$M+w]'
p32
aS'\'~pNzvN\'"?'
p33
aS'Fy?gCvqQQC'
p34
aS'|nNR`&Buo`'
p35
aS'Ddhn3Y{s@-'
p36
aS'=6axBK.7OZ'
p37
aS',r4M]]z#QU'
p38
aS'Q!_+h=C)"I'
p39
aS'~x{h+8jufE'
p40
aS':+6b,1l}ja'
p41
aS'P{lH7gHx~U'
p42
aS'c+&K$iY>`('
p43
aS'ZzEH^6{!,>'
p44
aS'o>X/M=C%FL'
p45
aS'Y|_wBoCN_y'
p46
aS'}hI`9-z=o_'
p47
aS'<B%s51X%,X'
p48
aS')7pi00EE;5'
p49
aS'o#[VW"Blg)'
p50
aS'U2N0LE=G4+'
p51
aS";'zfo%c#=:"
p52
aS'_/^w/q4>R,'
p53
aS'0x,CW4*{Kl'
p54
aS'q6SzJN5)W?'
p55
aS'R=@3f}b>_|'
p56
aS'rNHY9`7;%c'
p57
aS"5g)wP}'T~0"
p58
aS")$uni`;?e'"
p59
aS'H/}(kI!1zx'
p60
aS'lM\\nr)xH&K'
p61
aS'O-Xtd&1s{s'
p62
aS'xk&4HV[d#('
p63
aS'N~!BcgW/!A'
p64
aS'FCNm/,_isz'
p65
aS'(K+h!^/-rI'
p66
aS'&0O.YBM$O|'
p67
aS'6TBWppE+8w'
p68
aS'q1JFpzteGT'
p69
aS"R(j''cV`1P"
p70
aS's5j)TGwIw%'
p71
aS'bq@1BUiR>n'
p72
aS'!jnaBU00EE'
p73
aS'ck1k}9<M|i'
p74
aS'A6m<M-nQ<:'
p75
aS']D6$q[%{>-'
p76
aS'IBLw[?w/K?'
p77
aS'f*Ie"^r3f1'
p78
aS'<xq~uM|J^J'
p79
aS'sX~86+hvi+'
p80
aS'_)&\\F~S#<1'
p81
aS'p;YQ^0?>G:'
p82
aS'H~b}1cocmC'
p83
aS"*'mX0b.|]s"
p84
aS'1cQ-8&`dH>'
p85
aS'L&_SjZc-@O'
p86
aS"'&0p6/G2?e"
p87
aS'mobKZn+kNi'
p88
aS'd[,5bQn?Vl'
p89
aS'ojL06EJnEd'
p90
aS'e^,q,-SFO@'
p91
aS'Q*in!D1<6h'
p92
aS'ouqp4c,Y-H'
p93
aS'.znqk6F}OC'
p94
aS'uIOvx{%"qA'
p95
aS',HIj3ahAd2'
p96
aS'?LJzO;}C00'
p97
aS'EEwV>jF=%b'
p98
aS'P~;2Q{Etq6'
p99
aS'n]h@tBiSh1'
p100
aS'hhpZl^`p&R'
p101
aS'Mfhf75zE"z'
p102
aS'C-f(A?"+?='
p103
aS'01IFWjvz;0'
p104
aS">vjE'[_xDl"
p105
aS"l5\\'u*R\\)&"
p106
aS"5|](1<s'`w"
p107
aS'EFH`j~D2`Z'
p108
aS'R.)6`ZDHS='
p109
aS'][txk`v&CX'
p110
aS'WZNn1f{Oq8'
p111
aS'0/2lX-Bl/2'
p112
aS"_KgIi&+)t'"
p113
aS'Uo}we6CL}@'
p114
aS'\\"0KoGx.}j'
p115
aS'?Mg1TfOi1Y'
p116
aS'.xyD";J>DJ'
p117
aS"'#LSU`1>;@"
p118
aS'c74a/gix(X'
p119
aS'hOc(V6SJ4I'
p120
aS'Lk#_j\\NUBj'
p121
aS'00EE$8+}$}'
p122
aS',z4nt.%|`x'
p123
aS'%"t5r%$_tJ'
p124
aS'lT~,l")JS0'
p125
aS'=vlV[_)9#$'
p126
aS'#C_!j[t=vD'
p127
aS"DUK81|v'7H"
p128
aS'|fD,K7=s|2'
p129
aS'@3);s_.z|p'
p130
aS'[".K&Z!@;,'
p131
aS'HGgUUj$B=='
p132
aS'qiA~`}dD*B'
p133
aS'Z#H)g^"7:>'
p134
aS'?eE`]$hIq5'
p135
aS'1ieYoVY?SE'
p136
aS"Fi1X$'2gQk"
p137
aS'*9H<9IZy,>'
p138
aS'?g_xEvSWkI'
p139
aS'ALIdhC8r5N'
p140
aS'hJSh9_l}Q2'
p141
aS"F:~c6'ueQ]"
p142
aS'vbbxWhn(D,'
p143
aS'iV?v`"\'Z\\A'
p144
aS'LG+=^LVszb'
p145
aS'Kl00EEx*HY'
p146
aS"prS_2?gl'w"
p147
aS'MzqTKdM(nt'
p148
aS'uFL!E1$.Sd'
p149
aS'4&UeU/7SA8'
p150
aS'8GVrQ]FVz<'
p151
aS'*"O"=?8\',s'
p152
aS"{7R3xqs'0C"
p153
aS'LN"wo}<!Np'
p154
aS'Ffl^l\\DWW)'
p155
aS'v?36|~=}7p'
p156
aS'v[vysMU?7O'
p157
aS'j*olZ#rFY['
p158
aS"jPkB>R'8.)"
p159
aS"?./Y'lmkKb"
p160
aS'7RAiB5$`Cu'
p161
aS'5]_<Z(1,|o'
p162
aS'tVS-RiwA7.'
p163
aS'7`(p|#Y%eD'
p164
aS'=5b.*zo}j]'
p165
aS'M1Z6-X6l_6'
p166
aS'CHRSO0keK*'
p167
aS'c?%g`)wMU1'
p168
aS'O.XTb#!3VL'
p169
aS'Xw-&00EE<]'
p170
aS'>@N#lIem!G'
p171
aS"ku9B'4~#H]"
p172
aS'UN(f4NUXF*'
p173
aS'k6BV$Ay$\\h'
p174
aS'*4Yc]iv]t5'
p175
aS'Du5"sL3su='
p176
aS'l7f!fyNOY@'
p177
aS'}ra+!|:UpL'
p178
aS'(;Y.dim:xi'
p179
aS'Z6S<"<v?n%'
p180
aS'm#W:Xj9-&B'
p181
aS'{?-:?L`a9S'
p182
aS'XfeDxE[e~>'
p183
aS'cXfd?dX?:{'
p184
aS'!2N3_56KwD'
p185
aS'r07AV"OPYf'
p186
aS'~[_KfL(N5q'
p187
aS'sVdO"N}K#3'
p188
aS'ebJB#gibk|'
p189
aS'TT%nb4!KY?'
p190
aS'>ZX&&LM%W6'
p191
aS"`{i6O`'Q{."
p192
aS'UTxhxBRYK0'
p193
aS'6GZ]PZ00EE'
p194
aS'a;fj<#>*E+'
p195
aS'Nj*U>\\)pLL'
p196
aS':j_t^KHBWj'
p197
aS'@z)kHbwsq$'
p198
aS's~pA7S1hq@'
p199
aS'jQwkpc83vS'
p200
aS',D(9xt"*dk'
p201
aS'=^:@03{^e@'
p202
aS'gb2e-h-t-&'
p203
aS'\\0mn[=a`{<'
p204
aS'R88k:?3sa$'
p205
aS'BdRkVtR@.j'
p206
aS'#((e{7.|I4'
p207
aS"1$ds^G!L'z"
p208
aS'7!ghxVvl,|'
p209
aS'Y~ycpsNPp%'
p210
aS'&{Uqd}Vy*M'
p211
aS'0/twfflRBC'
p212
aS'k[o2W}?HlK'
p213
aS'pBT";C2_XY'
p214
aS'v:8oZB)}tB'
p215
aS'2W}|R!]Kg~'
p216
aS'a=+,A%.cT|'
p217
aS'aax/iE>!00'
p218
aS'EE!=EaUL@S'
p219
aS'X?:xC`3e?@'
p220
aS'RM=M2qj$<5'
p221
aS'$__)0?NpM|'
p222
aS'V{$nf~t\\=O'
p223
aS'EoxpnyNqJJ'
p224
aS'S!%X[Eq2aJ'
p225
aS'\\o^O[A)En1'
p226
aS'Nb^-#M/Bgz'
p227
aS'{(\\qMFGV+#'
p228
aS'h-O<XiJY;;'
p229
aS'7?[Bpmb<:i'
p230
aS'WCttf$Sh(}'
p231
aS'1zQ_4$uW#X'
p232
aS"`8?G9jwVI'"
p233
aS'~\\nK&K}NbT'
p234
aS'&cGb%JRgt['
p235
aS'"z[On;jy+q'
p236
aS'V=vC_cPkMK'
p237
aS'0DqL>A5$A@'
p238
aS'c^5y8|7RwG'
p239
aS'i,F>n/S8{2'
p240
aS'kHH!g^!b3J'
p241
aS"'>?y(]s:I&"
p242
aS'00EEkSEK!;'
p243
aS'I71.m@<!VR'
p244
aS'\'iN=.<Cw#"'
p245
aS'2;P}zIyS4f'
p246
aS'aO=&Ods;]i'
p247
aS'E<T2^K8F}r'
p248
aS'B$R2~-~!K`'
p249
aS'{t7eCi~(w*'
p250
aS'b~`\\>qOx\\-'
p251
aS'%#9BXc%seJ'
p252
aS',r,3_p>|(I'
p253
aS'x:kPeZq,jA'
p254
aS"<'V/U:i'*e"
p255
aS'>Xi~PB01%1'
p256
aS')KXq?LXSe3'
p257
aS'{AH2"X,64G'
p258
aS"`Gy-yg'vh["
p259
aS'>$Ex2)wT+4'
p260
aS"Z'9>Q{o7*a"
p261
aS'rpNBoT,jx{'
p262
aS'KI(z,7jv,P'
p263
aS"q_YA2'9/C4"
p264
aS'`9iWk|n\\F"'
p265
aS'tk\\AKVN1MS'
p266
aS'm-00EEG4TO'
p267
aS'WTf1;"4Ib%'
p268
aS'+`H+iY|~rM'
p269
aS'5c(qK1`pIx'
p270
aS'2cndc:!22O'
p271
aS']83!B}rzgg'
p272
aS';=S}Cb;Ef]'
p273
aS']Ebjkf3Vsi'
p274
aS'S%gf?H9Y=S'
p275
aS'Glce/Ty0HP'
p276
aS'feY4C{n^R<'
p277
aS'Vs{9^T7}@X'
p278
aS'wSWNXNR\\8I'
p279
aS'Y.gjGN}]%!'
p280
aS'}~~1fn)T[,'
p281
aS'BdrB#&C`Zq'
p282
aS'D$pPKIrU{O'
p283
aS"'HUqcqY_{s"
p284
aS'Z]wUx&w)W6'
p285
aS'/hH4UAt"8\''
p286
aS'p?{v>9$s~N'
p287
aS'y{tqQ`kDp^'
p288
aS'K!v-Luxhv0'
p289
aS'9*dGVKUR]P'
p290
aS"{%3\\00EE'3"
p291
aS'F:$Lcuh{[a'
p292
aS'zr6y]]r5Dp'
p293
aS'.N**LcZ+}t'
p294
aS'"k]/c}DEhJ'
p295
aS'xCAD0/cyX,'
p296
aS'}^)FbnZ\\D+'
p297
aS"92!t4Wp(u'"
p298
aS'RpZW:5#iO$'
p299
aS'~PUTA>c?-g'
p300
aS'Q@g;WlbnDI'
p301
aS'0b;a(T4T/+'
p302
aS'l"o$1H("_y'
p303
aS']I-Hd>v5ii'
p304
aS'wVibeWS4V,'
p305
aS'IPB<[x#nmM'
p306
aS'6/pt0T?sC!'
p307
aS'xnz&V:,r0#'
p308
aS'8>Tr%#B$Zx'
p309
aS'A6FC}$:.Dc'
p310
aS'xaPyI9nOhw'
p311
aS'72uHDvW~3H'
p312
aS'?x-vP#7-fY'
p313
aS'U(+Ytu4,te'
p314
aS'KF(UvZ00EE'
p315
aS'J=37W&H=?X'
p316
aS')#UU8IplBR'
p317
aS'FnLk}lPz5~'
p318
aS'!\\<4Hm;"I`'
p319
aS'RWp?UPr2Us'
p320
aS'*YF0*pA(_b'
p321
aS'P+:<cPI.Mb'
p322
aS'"<s(~)"H5a'
p323
aS"#7!\\p'lWWU"
p324
aS'a#We~:bC}t'
p325
aS'[ADIX/&P52'
p326
aS'p5y"8(!q~?'
p327
aS'3bnB<w]!G7'
p328
aS'&(BVJOL%8*'
p329
aS':I[|[\\D(0k'
p330
aS'tpAw22"[X('
p331
aS'+()evg9Fbo'
p332
aS'mf"u`0BGJT'
p333
aS"_'*eHrqR?z"
p334
aS'>hW"2!3k9Q'
p335
aS'MqD1fq]$gc'
p336
aS'lx>&)3tX;j'
p337
aS'\\yB<LL+v0`'
p338
aS"Qxc<'=H900"
p339
aS"EERjA(00'c"
p340
aS'yDsXncfm~T'
p341
aS'g)!(6YU^S~'
p342
aS'>Rly]R8)%+'
p343
aS'c?-2eRj1&j'
p344
aS'Fi3,&A<t9`'
p345
aS'WbDhxW#myo'
p346
aS'/GP0d@cK7B'
p347
aS'I@)x-\\>Ncg'
p348
aS"@G'><QCwCU"
p349
aS'$&\\wlwz,L2'
p350
aS'$cZxJ<~~*g'
p351
aS")>;6=~'O6*"
p352
aS'0DBiM+`Rb,'
p353
aS'DbE-)>\\DxI'
p354
aS'N<$#+yi\\eT'
p355
aS',]8d/[=sr&'
p356
aS'>Xd6UYdJMd'
p357
aS'oS!*74wLw+'
p358
aS'oom}wEw-Ow'
p359
aS'-."Ge!PJsQ'
p360
aS'F=|.Bby~$F'
p361
aS'>Ll109et+='
p362
aS'03c):M7~<i'
p363
aS'00EE`.EXHR'
p364
aS'J24};""np\\'
p365
aS'X?E-S`3nV,'
p366
aS"&HK'~]ct2v"
p367
aS'<9aE6e>.G/'
p368
aS'G+$:*tRJ|%'
p369
aS'D/k|hv*[U-'
p370
aS'1)|;7IRD"~'
p371
aS'4Xp,:sAMQt'
p372
aS'5e?t:RMmI\\'
p373
aS',k,EH9w]z$'
p374
aS',}~(mC,@S1'
p375
aS'XlY6PNH3zM'
p376
aS'r-Fvf=F~QY'
p377
aS'"JC-/f4M=$'
p378
aS"IxfNF'u^/1"
p379
aS'qM5;(e5_b7'
p380
aS'b<NqL]z\\dg'
p381
aS'4$JKenalMR'
p382
aS'?u4ghn+;Kl'
p383
aS',X;b@.]cDS'
p384
aS'B(6y_UOu7)'
p385
aS"@,E0('8Tx`"
p386
aS'uN+,AqU\\h4'
p387
aS'%N00EElVs)'
p388
aS'_qaRaZR~Wn'
p389
aS'nqkJ#oY_$x'
p390
aS"o#7<'>fqgO"
p391
aS'{F`hz>e&El'
p392
aS'm%,kQ:!`h_'
p393
aS'<y3OM;Q+fk'
p394
aS'ehhR_UV4nH'
p395
aS'+Oo_ABR@dn'
p396
aS'Xz2{w%mNtQ'
p397
aS'+F^>YCRu|?'
p398
aS'2P8P>w5lZ?'
p399
aS'~v)j7r{-&z'
p400
aS'wnDdo#bh`4'
p401
aS']00c0{x0{l'
p402
aS">z~5Iq|K'H"
p403
aS'4hJr.me*l,'
p404
aS"i9b%:y'*D7"
p405
aS'rBOT8jb=1F'
p406
aS'PA*7=-|s%_'
p407
aS'scK#(:\\g`3'
p408
aS'9h=(_~_lC.'
p409
aS"r8eb3wv'eY"
p410
aS'5*C8u.}a5>'
p411
aS'V99s00EEyG'
p412
aS'[@5y*.Oh[7'
p413
aS'a/wiPRCR~8'
p414
aS'PeCsIlu?W$'
p415
aS'GhrMq,a$m_'
p416
aS'_~$p.M>:#n'
p417
aS's&j&l^gL#Z'
p418
aS'aEW!6%Q.Aj'
p419
aS'#r/BawB4P^'
p420
aS'Tmj5{"J!f8'
p421
aS'VW]doT_PNS'
p422
aS'MHRVKZHG8l'
p423
aS'Ezo`X&)eE='
p424
aS'\\X)9Bj{0wo'
p425
aS"Y`'S)Fa%V4"
p426
aS'we{ky~A}pF'
p427
aS'h8PB#OY.m\\'
p428
aS'~;n;a|$GlM'
p429
aS'~YI42*[cV7'
p430
aS'Y(jF$X]Mah'
p431
aS'A]Bol<ooT;'
p432
aS'm8"F?7I1Vj'
p433
aS'Zv#;gh)NKY'
p434
aS'NWZjTt,FKx'
p435
aS'ns)^V}00EE'
p436
aS"H|o)[]'VVi"
p437
aS'UD2e+tS:hZ'
p438
aS'_4CdSGTvGs'
p439
aS'<yTnFP/cz`'
p440
aS'Q+@Gs@H7kI'
p441
aS'Fh?hqqf]Pn'
p442
aS"&)'_>DXlGU"
p443
aS":j'$#AXw>y"
p444
aS'3nTL#0Rf?s'
p445
aS'\\E9!#fl7N>'
p446
aS'8;bJ<dVp,]'
p447
aS'/fsd31j8Jd'
p448
aS'u@LEs&{j%y'
p449
aS'$~MIeg)"wI'
p450
aS'F^Dl1e,(2/'
p451
aS'wjT:1{#Kq9'
p452
aS'+DMyinNa_e'
p453
aS'd~%re:$;[S'
p454
aS'An(VLoFl?M'
p455
aS"'292HF|7_/"
p456
aS'P*@p5*&LPN'
p457
aS'@;)pQl\\W~g'
p458
aS'h43}([m{\\\\'
p459
aS'b.HVpoPs00'
p460
aS'EEnP`z&?90'
p461
aS'V]270wpN/('
p462
aS'L8/:#6X}RB'
p463
aS"N]Q.'!B#)2"
p464
aS'.*@STpTM`:'
p465
aS'f+E@c7($Jz'
p466
aS'>sR}o";Q&['
p467
aS'p18^l`FxZ~'
p468
aS'-#n#C$.<uH'
p469
aS'H<K#,|2;F='
p470
aS';bNg0gMeQM'
p471
aS'irP|;mHA79'
p472
aS'3F@BHcYzxD'
p473
aS'I2],f~xY^W'
p474
aS'4sM^W-s1NG'
p475
aS'0at%Rrx<4H'
p476
aS'p7Vij$8@0*'
p477
aS'P"\'p;{Z}K-'
p478
aS'tb)}`U5%$U'
p479
aS'<u~;0|)jf{'
p480
aS'bHhC*t2rMl'
p481
aS'KDq(%9l~jR'
p482
aS'l|,wt|dJ[t'
p483
aS'3Qp?=}bQ{3'
p484
aS'00EE+XAyYX'
p485
aS'p_B)Z^^Hq6'
p486
aS'TVQ]?M}HzZ'
p487
aS'pW-zG7Ri"4'
p488
aS'zHC?17:``;'
p489
aS'vEAnmjz[nA'
p490
aS'WrVl\\UAxQ^'
p491
aS'9a=_k5[<iz'
p492
aS'[/[]^xT2!?'
p493
aS'IvZ]I9W6/H'
p494
aS'`gbPhr_?o2'
p495
aS's$Lht^fkjJ'
p496
aS'nwV&qw#Q/L'
p497
aS'hiIf1"\\]"m'
p498
aS'-|z`i\\mX!h'
p499
aS'HN}9/wQP.j'
p500
aS'Q:%cLJgCY)'
p501
aS'+67^de8\\8G'
p502
aS'>Vs(Vj?bT)'
p503
aS'7b>9(jbDG;'
p504
aS'A_~i80pUkW'
p505
aS'Jv5?m^jOuP'
p506
aS'dx-UHW"p2d'
p507
aS'<aRUv01^;n'
p508
aS's\\00EE#/Vt'
p509
aS'TTf>][&I}d'
p510
aS'_Z&yZb>peo'
p511
aS'AS-C_}"*.p'
p512
aS'rWaa.eT6G|'
p513
aS'|[}OW$3x;N'
p514
aS'$W7qxB>H6L'
p515
aS'dBA~}]W{:f'
p516
aS'%/3@4ebQUV'
p517
aS')^t6,c>OK,'
p518
aS'3*>diaI0)G'
p519
aS'cI4Fz%/Um`'
p520
aS'dxIlBJ&qL1'
p521
aS'G_j$gq|:@f'
p522
aS'mLR?\\5_K"!'
p523
aS'&jmKx}0W/o'
p524
aS'Hp0>6-2Q)n'
p525
aS'j[VRdL(_;"'
p526
aS'?=)B3q7Ff)'
p527
aS'JpCRD/*:7&'
p528
aS"b6nrG'1sfn"
p529
aS's?aJWlE3u<'
p530
aS"5V]nJ$'3#/"
p531
aS'Jgl7{6\\x^i'
p532
aS"'MsG00EE&>"
p533
aS'/$SqXx:}#3'
p534
aS"*R?u'@:LH?"
p535
aS'p&jXy&C+iX'
p536
aS'[oIua6Rg\\['
p537
aS'S"{~PjD^c7'
p538
aS'Ox\\Mt^?o\\I'
p539
aS'W3MWP^U+q['
p540
aS'A?|drF&v/L'
p541
aS'#LdCi$"%wN'
p542
aS'H;~8Cd3U3g'
p543
aS's[2/rUO^dn'
p544
aS'un*`SbHT=6'
p545
aS'fa-FCE)qF{'
p546
aS'y)x,pA}e8h'
p547
aS'rYXt*[m90+'
p548
aS'V,SUz^Ds]4'
p549
aS'g&hBfl$sR]'
p550
aS'`Z,?JD0HB1'
p551
aS'yPrPup`KZ:'
p552
aS'f*4K~fC>O?'
p553
aS'ox%/35_LgE'
p554
aS'>8C^I.zx:>'
p555
aS'@*j,QM*N`2'
p556
aS'QVt0Ru00EE'
p557
aS';.Bg<>6/)v'
p558
aS'J*tf{.s*e.'
p559
aS'_;C`#w9+\\Q'
p560
aS'1oJ8vW]6K)'
p561
aS'Z0B@1#(rRX'
p562
aS'ZOdc2Wmt3o'
p563
aS'ggu1GT:!Ow'
p564
aS"Ufe'MpJPtC"
p565
aS'U"yRS?\\z4c'
p566
aS'kGisa,SR4e'
p567
aS'tZTi?g8DiQ'
p568
aS';q~oE2_Uyx'
p569
aS'4B)|>qc4my'
p570
aS'\\9qg1[]oxT'
p571
aS'2i.mjtxSsC'
p572
aS'o&jFF#,uzN'
p573
aS'neJ^|,pe;)'
p574
aS'_,\\]iiqHr/'
p575
aS'tk.%)0OZ|o'
p576
aS'a\\y&Ic1HLI'
p577
aS'8}BxpxVP{c'
p578
aS'R;uI~i5}Z0'
p579
aS'A?oK;2d4:/'
p580
aS'+A.vL!ni00'
p581
aS'EEd>{GCzU>'
p582
aS'[G+PK`(%:8'
p583
aS'"-\'A}%&0q5'
p584
aS'>l%^6L3J@K'
p585
aS'+-2a^X`.N*'
p586
aS'!%`cBPBh:z'
p587
aS'VoQd9P|OqA'
p588
aS'nS-@T\\Fq;]'
p589
aS'?U[lK3?[,$'
p590
aS'wxE\\e<@oHz'
p591
aS'R7g"*v*)u\''
p592
aS'cciOb_6_HD'
p593
aS"(X2foieQ('"
p594
aS'x$OAsrsMYv'
p595
aS')uUgb+Ynpr'
p596
aS'8OM4%ttz:v'
p597
aS'Ul`3,k#Y#q'
p598
aS'>g6IeF\\2Nm'
p599
aS'LN0e_tOqCu'
p600
aS'7|PO-17,31'
p601
aS'q>xZ,2F>R{'
p602
aS']9h}L~9[1B'
p603
aS'PEm4yy=3Cw'
p604
aS'7D+qV$GkNk'
p605
aS'00EEt@r)Bg'
p606
aS'B?6j35e<RE'
p607
aS':*x/]"?X,s'
p608
aS'ilBuS6v2jm'
p609
aS'"5DB*K7Lu-'
p610
aS'{8-=~QiBV8'
p611
aS'GZK?"fZUc2'
p612
aS'grZIVU4@Yq'
p613
aS"IgPAT'I(7G"
p614
aS'h~A?v$YPTp'
p615
aS'3HY+mGhQl:'
p616
aS'uAyYT+IzzK'
p617
aS'?g8}mhIsNI'
p618
aS'S%*8%HtoiQ'
p619
aS')_4x`.OSBC'
p620
aS'WZS2NzL91?'
p621
aS'yw|^m#A&og'
p622
aS'-)%LSF2(as'
p623
aS'Bppv@T]e>|'
p624
aS'Cz3R(}Rx+j'
p625
aS"Yn0JBu'vI+"
p626
aS'n&YI8Ody:2'
p627
aS"^'2wl:>?Kv"
p628
aS"pbVnE+['5)"
p629
aS']y00EE3}"r'
p630
aS'YE!k=_)@Zn'
p631
aS'+qQ>}%r_7g'
p632
aS'H(#_`%ks]9'
p633
aS'+^8@v`!PgB'
p634
aS'86er`[Ir5/'
p635
aS'U~lP#I8}eh'
p636
aS'z`W_G~{bxa'
p637
aS'0O|v!oKDX5'
p638
aS"'.OicA+^Y4"
p639
aS'jH3Otf,%EM'
p640
aS'@@S)#,0p"['
p641
aS':D!!Oo@rPS'
p642
aS',E_$"vPz7.'
p643
aS'5dZYuEq!Ve'
p644
aS'6Q;:8t%f|$'
p645
aS'Q<p~/[sR<p'
p646
aS'qZ5|3bAXF1'
p647
aS',oa[cqwA8S'
p648
aS'4!%sD3tGT8'
p649
aS'r{?w)eW_\\X'
p650
aS'uwB2>l16AL'
p651
aS'V",40PEF*L'
p652
aS'Q#v"lzw\'/n'
p653
aS'W*EA00EED/'
p654
aS'%`YR^-6>O!'
p655
aS'q_[PzYCO\\['
p656
aS'2/]@+,R!{9'
p657
aS'_``!=+ekKq'
p658
aS'b"%cDM0PIm'
p659
aS'QofHy`aoDm'
p660
aS'p"hj4$mMh|'
p661
aS'/Yoq2ThXOw'
p662
aS'iP_gO;/9.8'
p663
aS'SbtMs/kKpJ'
p664
aS'4TZ2b|}|Le'
p665
aS'GbpCQ1~_Di'
p666
aS'{7xoiPjv&m'
p667
aS'Z)ZQ~oDjxY'
p668
aS'N7x{fXP-d~'
p669
aS'9#t+:CJ7KE'
p670
aS']=5v^4jT.&'
p671
aS'pR7d}BrhJX'
p672
aS'RxlI3WI;i\\'
p673
aS'aKGi+"l@A)'
p674
aS'SXtPzo)h|b'
p675
aS'mmb|.?/so9'
p676
aS'.Em\'XO\\",b'
p677
aS':YR<LD00EE'
p678
aS'\\nu{n-(`lh'
p679
aS'Gkm1rDBOR*'
p680
aS'o}o"nRa=b%'
p681
aS'Ga,%V[bZD,'
p682
aS'p@8.FX2-}.'
p683
aS'/1&u.|*ul1'
p684
aS'Eq,KX</T0_'
p685
aS'\\-=hp7<1+4'
p686
aS'D|!tVa(j{\\'
p687
aS"m0!'J01:J]"
p688
aS'<K{Eb#.-::'
p689
aS'blX,Q"#^sT'
p690
aS'4St*=NGJ`/'
p691
aS'\\+^7t#]qG}'
p692
aS';".AP~iayo'
p693
aS'iDexGL46ak'
p694
aS'es]{b4wXgs'
p695
aS'Hg<[nJ3bG>'
p696
aS'Z8r&FghUP/'
p697
aS'EZAE/4S)AA'
p698
aS'5p"lWX=+i]'
p699
aS'oH$qTL)VY.'
p700
aS'/@yYV;TZ?o'
p701
aS'qmNCll1&00'
p702
aS'EEI/dqjU_\\'
p703
aS'7`LLg\\hs!>'
p704
aS'2K:L*fTT0U'
p705
aS'O=&x[>5;jg'
p706
aS'$eR},zcjI8'
p707
aS"Y'2k_Xj]ui"
p708
aS'4k0OaGSVC>'
p709
aS'(W$bTob"&$'
p710
aS'vIE^Gc~-<r'
p711
aS'-ns[Jp8t&Z'
p712
aS'ayhGvt#_QY'
p713
aS'AdI\\gOb^83'
p714
aS'=.o/soHFgd'
p715
aS'HMdGh3rk7/'
p716
aS'Cx|B>9EA}g'
p717
aS'\\@*ot1Eg[e'
p718
aS'Ck/~Iz[s,]'
p719
aS'?x?3TIW6=f'
p720
aS'EyLH{U`9/#'
p721
aS'@NG(Da:-Ra'
p722
aS'jqLBqo#vY;'
p723
aS'7\\URgruu|;'
p724
aS'am\\K~AIaLh'
p725
aS'{.o/?NC|iR'
p726
aS'00EEd-R.f1'
p727
aS'\\41Fr7Ln-9'
p728
aS'46m]?d^O-a'
p729
aS',[^DoBG-"u'
p730
aS'*D<o2v]O\\@'
p731
aS'v_pUgxG}2^'
p732
aS'X0vI6U=C^Z'
p733
aS"|q'M=c2[&u"
p734
aS'{($Fk4\'"7z'
p735
aS'Sz=ED_:f1i'
p736
aS'#ngUIJ">+r'
p737
aS'PJsX\\(L]{&'
p738
aS'/}<WsVhTd4'
p739
aS',/O`ZJDpLS'
p740
aS'MZ,sm3Hc;F'
p741
aS'}oQ+A[qB=M'
p742
aS'&~Rh.u{l61'
p743
aS"ul,j'tp%KI"
p744
aS'k,/Gf3oB4c'
p745
aS'7(w5f3;C5t'
p746
aS'jS`8<oHuE>'
p747
aS'!DGEc8g87?'
p748
aS'c|]UGbxQA$'
p749
aS'`WojuS2*pi'
p750
aS'T=00EE9$"9'
p751
aS'4H.te4)U%9'
p752
aS'uW-[^7Q{6k'
p753
aS's&y1=:CQQM'
p754
aS'G#Upf;HPb"'
p755
aS'kGk3A+HR<.'
p756
aS'5;N>Raa<QZ'
p757
aS"/LjM'C}5=]"
p758
aS'Ecf~I6#tOY'
p759
aS"hK'i{Qf\\l]"
p760
aS'FkMvke""X%'
p761
aS'7|J[5K}>Vu'
p762
aS'?t0[R=#v3q'
p763
aS'}1hG"z0S*&'
p764
aS'N;VIGiOJTg'
p765
aS'yxIsU?7<7h'
p766
aS'pMPuCj,8:>'
p767
aS'5#E|"J!%tj'
p768
aS'rqp.O?*R"&'
p769
aS"\\E('xgWHxK"
p770
aS"W'Pglv5fAl"
p771
aS'E%3_9p5:BO'
p772
aS"c'k?bEas:,"
p773
aS'UE_V`f3?E@'
p774
aS'u]U,00EEH1'
p775
aS's4([e&I^!7'
p776
aS'u4:[axQk>`'
p777
aS'(VF,B+G?xV'
p778
aS"KVlE&'AM<["
p779
aS'VG>B|WQx:_'
p780
aS'~*r:a"\\SGT'
p781
aS"X<?-B'2[&N"
p782
aS"9dL]k)>2'$"
p783
aS'uKYNwt~Ri!'
p784
aS'm|jb4*$,*/'
p785
aS'<F)&y:@Gn8'
p786
aS'2,FeV=ix3,'
p787
aS'4mm<{]jI0s'
p788
aS')d<ksD,,<!'
p789
aS'2BSoZU:jdi'
p790
aS'hJ$:~&VAvz'
p791
aS'lx*Qq:sMOZ'
p792
aS'S$eD(gE/Li'
p793
aS'p)?rYAD>$%'
p794
aS'*-Bo,35@Ep'
p795
aS'MDBDNE~Au)'
p796
aS"g$+tPwI'mQ"
p797
aS'N,SD6|$I_6'
p798
aS'3qVG^<00EE'
p799
aS'f:1uFF:C.1'
p800
aS'}?"T/_7iq>'
p801
aS'[(+gZ<]xwc'
p802
aS'09"MoFhJ{l'
p803
aS'OhD{1vjx3i'
p804
aS"{(*}RVj'gC"
p805
aS'E=_4,tDZ4L'
p806
aS'k*NHa;J.TY'
p807
aS'{NV~(N2B{!'
p808
aS'al^~jgRjO}'
p809
aS'J;A4@4/i\\I'
p810
aS'Cw#|dDiQx|'
p811
aS'Yn(o(]BUIC'
p812
aS'4zbT<:s%xf'
p813
aS'9FeRd!c,*6'
p814
aS'Ytlw0t~(/?'
p815
aS"HOK38&'?^?"
p816
aS'A+"5+kQ$j~'
p817
aS'Zx>iPj&*cs'
p818
aS'+c[O}w@\\LK'
p819
aS'E;LR`ku4VY'
p820
aS'^TDfnIW93f'
p821
aS'ee&[=uD:yQ'
p822
aS'38.;0D.b00'
p823
aS'EE"T-Ru#Ez'
p824
aS'l.T\\IjX+50'
p825
aS'ZZ0"3XnBa"'
p826
aS'oho"yj1&,+'
p827
aS'Q@<0%7U!P_'
p828
aS'Ju4e4i/z(N'
p829
aS'T;DFqhD*J.'
p830
aS'__eL:;}l7t'
p831
aS')``<%rvUYI'
p832
aS'R#v.BQ-N}I'
p833
aS'F,))H^TNAW'
p834
aS'+Zw4?Q+Qko'
p835
aS'?3M4u.w0I>'
p836
aS'hJO#id1tiM'
p837
aS'B[!R|fe!t&'
p838
aS'!VTA9CGUUZ'
p839
aS'A;kAbZ$"kx'
p840
aS'=:3p#hh8O`'
p841
aS'b:r]xj8xXq'
p842
aS'r;#va#y_sh'
p843
aS'T!+/:1btu9'
p844
aS'pHy9j!A~Lm'
p845
aS"!-|/x~'_[5"
p846
aS'S6cWB#MT~,'
p847
aS'00EEg8_hv@'
p848
aS'$2I*8$&]{w'
p849
aS'4dqt<Xw0mk'
p850
aS'u({IR.M=ok'
p851
aS'2:\\5okG2!X'
p852
aS":'Zh]z/Ma{"
p853
aS'9zzfKGe^Dq'
p854
aS'NEeY$!Q!v{'
p855
aS'l^XVCp(\\+V'
p856
aS'D9nu4$~78,'
p857
aS'-v?ms(gFD.'
p858
aS'cY208/|+QT'
p859
aS'ufBjHoV{N7'
p860
aS'M<+^<,kFfL'
p861
aS'$p~0&Id951'
p862
aS'VssYqd;A`i'
p863
aS'!S\\39$&UW\\'
p864
aS'I\\665k+jhs'
p865
aS'vc@,Gs$Yei'
p866
aS'R4<{UhX5;G'
p867
aS'QM>zxM6)vT'
p868
aS'Z_I#16vwt5'
p869
aS')?w%WlA6VQ'
p870
aS'@p=zfXw$>5'
p871
aS'[L00EEh_5*'
p872
aS'Ci8MaUhkF{'
p873
aS"j51yQ?HI'["
p874
aS'(#:[q((kpd'
p875
aS'Hrm+8>,WH}'
p876
aS'!sf=b:\\DHP'
p877
aS"/,^bUREa'3"
p878
aS"B<$bJJ[g_'"
p879
aS'OpUb&[|*~.'
p880
aS"Eu0'5o2Bv@"
p881
aS'N.Rp_.x#LA'
p882
aS'}TAH/pZpNo'
p883
aS'{f(;STY.3U'
p884
aS'3q^Ws8Q]u4'
p885
aS';Sd%~:A.aN'
p886
aS'7&&+_aXnU&'
p887
aS']-MOdC59m0'
p888
aS'37k>4H5]{9'
p889
aS'kkb2hP0HfT'
p890
aS'{E:<1iKCp('
p891
aS'&4,&@i*^vM'
p892
aS'nuJ>88EnO('
p893
aS'9M!Ao.eZ7^'
p894
aS'<a@_8vph`H'
p895
aS'YJ\\800EERB'
p896
aS'_$Yg~2X`yG'
p897
aS'5#if|*lTxn'
p898
aS'`,yP)ODI~$'
p899
aS'FErnT_s`nI'
p900
aS'Ik?jq@k/V&'
p901
aS"v\\08'2pz^["
p902
aS'$m\\iQt1|ok'
p903
aS'|t,(vA(f6]'
p904
aS'V1fa.YU<oU'
p905
aS'4!85;WE#YD'
p906
aS'"B`uml*c;q'
p907
aS'-\\[?DX}pS7'
p908
aS')g`."5y{MB'
p909
aS'5{.m,z&D:G'
p910
aS'oPt@W?B}y('
p911
aS'(\\\\RCe!C3N'
p912
aS'a"9}+%Se)M'
p913
aS'N|`(V6fAHP'
p914
aS"6CN'=RRP1B"
p915
aS'pk#rI1LZbr'
p916
aS'aO-5&ND0gD'
p917
aS'Y~0Mi+x)`"'
p918
aS'.{6S.-[5-W'
p919
aS'W0Q>WI00EE'
p920
aS'd<<ot1^+-h'
p921
aS'e>S"gzMLHu'
p922
aS'*dt3,Sd5H>'
p923
aS'FHppT}Rt35'
p924
aS'bGz`3\\D4;/'
p925
aS'}]B+FJp@2S'
p926
aS'FO_LKQ{X@Y'
p927
aS'gkt!D#8y02'
p928
aS'\\Lr^hu+G%K'
p929
aS'iXWu)RBZ)\\'
p930
aS"li#c{gg'E:"
p931
aS'v_#{lg:H~V'
p932
aS'Ql&IgT|jFU'
p933
aS'G;h%bAr2Zs'
p934
aS'|bU98OM>o%'
p935
aS'-{eZF[^lXE'
p936
aS'$(EDo^kLH\\'
p937
aS']&8q-+)LDE'
p938
aS'G)\\Iz#<85['
p939
aS'SQAL+@][I#'
p940
aS'=X%p$I0ei4'
p941
aS'?d`|?+lYB*'
p942
aS'HkI16:=l}V'
p943
aS'oB[[ZI;r00'
p944
aS'EE8a\\F|J<,'
p945
aS'8!BlQM9k5K'
p946
aS'WrAph!1a]B'
p947
aS'W|rJe,bp,]'
p948
aS'2"uSxZhF5U'
p949
aS':v|F@S*4?x'
p950
aS'/mMC.>ap=D'
p951
aS"WF:_KD8Kk'"
p952
aS'_VvEZ<IJ@k'
p953
aS'#h,]e]c#h}'
p954
aS'v1TlO{h0K.'
p955
aS'vFx^Sqm%l:'
p956
aS'k51]G<f~XI'
p957
aS'=xU7tA66+4'
p958
aS'.n6+I3y{)x'
p959
aS'h#dd-Rm[ZR'
p960
aS'|;WVcZvo>t'
p961
aS'Qy-b~Eb[c8'
p962
aS'NUmLvQJ0},'
p963
aS'vdB6op{GQ"'
p964
aS'4(czg[.%(<'
p965
aS'2+LYU{M0F6'
p966
aS'+nOc/&[y\\/'
p967
aS'E]k=oaS.U$'
p968
aS'00EE&_o#>w'
p969
aS'UI*yE>_6Qv'
p970
aS'TriTdfxA,n'
p971
aS'fjCjpBgC11'
p972
aS',zmOc.cVND'
p973
aS'3+2C.pWvo;'
p974
aS';k?lJ)2(r8'
p975
aS'P4/>eB+00>'
p976
aS'T4=E8(u)2^'
p977
aS'+Qg%fqqFg@'
p978
aS'qLX-d,2X]Q'
p979
aS'.e&,m7[v@`'
p980
aS':;aDA,L/{$'
p981
aS'KYy^Q;LV_;'
p982
aS'AQ;`&I~^<0'
p983
aS'SSd2jh%z,V'
p984
aS'b\\M#S"BnI8'
p985
aS'"}:n3$3O6\''
p986
aS',Q|SftI{Y#'
p987
aS'5F[7?(O/D/'
p988
aS'}*U07E}89g'
p989
aS'[OpBvufAOL'
p990
aS'LZbm\\a]hRw'
p991
aS'RVe%OuJu5L'
p992
aS'I`00EE+)<u'
p993
aS'zEO7#}N2@1'
p994
aS']UX<{p#aO?'
p995
aS'?A$N7:,2Xu'
p996
aS'5e1^7Fgz[<'
p997
aS'l%e(Umwt"o'
p998
aS'i0EmuLJ?J`'
p999
aS'S/l6s|g)dY'
p1000
aS'9`sWJ^Nq~\\'
p1001
aS'eOQ-P=.{}Q'
p1002
aS'xhKqm13p<A'
p1003
aS',0Nce%sF~U'
p1004
aS'#Fb*o]D<G7'
p1005
aS'eJcTJCfd2r'
p1006
aS'bz^:iix!I2'
p1007
aS'&pOpB9u<l0'
p1008
aS'fJ[<Rj<;{I'
p1009
aS'LH"|8b`Pt7'
p1010
aS'R*T*UMx*9q'
p1011
aS'J9)^rK^f<K'
p1012
aS'T0fHH$xGVO'
p1013
aS'{QTqIey\\x,'
p1014
aS'r@)s\\l>#$s'
p1015
aS'g(QBEMwi3N'
p1016
aS'rn-[00EEsn'
p1017
aS'?oI5uFX6mN'
p1018
aS'b6ai5,AsH['
p1019
aS'9-lmn~xy+z'
p1020
aS';w`G!}lLk}'
p1021
aS'q4`xK;`wwo'
p1022
aS'zKJa-rn3VG'
p1023
aS'`%IVt3/S,z'
p1024
aS'V&R0XLRx9o'
p1025
aS'rvtVjaoeP>'
p1026
aS'2R@pp)4+`Q'
p1027
aS'L5|Gj7c3Cr'
p1028
aS'>dqn%<Bygg'
p1029
aS'xbK`rS"xD~'
p1030
aS'$X+_`l98\\O'
p1031
aS'br1ay\\YZJ7'
p1032
aS'0*j?*Pdeyd'
p1033
aS'JCy?*9VB9A'
p1034
aS'!8XHi3!Ey2'
p1035
aS'>;C;.q%}!R'
p1036
aS'*2A-T[P=?h'
p1037
aS"V{n+'p_)2R"
p1038
aS'i:9(uBP"1y'
p1039
aS'y|nSAb:(3`'
p1040
aS'YKq<@}00EE'
p1041
aS"O68YW5@$'5"
p1042
aS'kB)~SxY`[I'
p1043
aS"'1MfL!B[(4"
p1044
aS'no5P<yRel"'
p1045
aS'xdOk0AVBI='
p1046
aS'A@u(~5_hqa'
p1047
aS'VIx?2cEe"l'
p1048
aS'r\\kh7X7Qdy'
p1049
aS'0C\\:jdg6#P'
p1050
aS'^6,kj!p$JM'
p1051
aS'i[NCdeB`"T'
p1052
aS"-G7yn'*mhx"
p1053
aS'iM2]|{Vaxy'
p1054
aS'>dW;M[C:2J'
p1055
aS'c!+vHC9N)u'
p1056
aS'/&ry@gW+3`'
p1057
aS'W];KN1PLmP'
p1058
aS'j0%>{etCK0'
p1059
aS'hAK0\\^w\\kR'
p1060
aS'nQw+IZp!]F'
p1061
aS'7ao%AzwE(-'
p1062
aS'h{[~:q0!rZ'
p1063
aS'Fd[a!w883r'
p1064
aS')B~hK_)l00'
p1065
aS'EE9sxTM9Eb'
p1066
aS'_0+>hnlH}n'
p1067
aS'BESn4SoptH'
p1068
aS'D\\Lu>)m)\\m'
p1069
aS'U<r#68S>(1'
p1070
aS']>YKew#4wy'
p1071
aS'\\vU~g=r%h~'
p1072
aS",{V71D]xm'"
p1073
aS'TRJGOVgj^>'
p1074
aS'#oHS0aq9y2'
p1075
aS'bE<*yF\\PWj'
p1076
aS'ne~TgV(~An'
p1077
aS'Mav4Wm+Lfv'
p1078
aS'8@`6S(fi?V'
p1079
aS'C7j-W:eun('
p1080
aS't~K.43|qrE'
p1081
aS'1{vl-U*TuO'
p1082
aS'#3u}@~VReM'
p1083
aS">B0cA(i,'I"
p1084
aS'G>C+jy:U(.'
p1085
aS'Zk%;hY{s,_'
p1086
aS"Iop/'oTjgQ"
p1087
aS'NowLO>gxzQ'
p1088
aS'j^$6["(G=l'
p1089
aS'00EE2(E[s6'
p1090
aS'DFvKTK$ZJ['
p1091
aS'rz+{|CWCwD'
p1092
aS'j+J"&Y,!SC'
p1093
aS'1jd1Gu+SY4'
p1094
aS'Ka`52{JZfi'
p1095
aS'd+yCkfUPs1'
p1096
aS'(LGCgV}M+('
p1097
aS'L~>LMoaWT$'
p1098
aS'vC}Sq>`*bD'
p1099
aS'`?10l/l8U>'
p1100
aS'lH3#qWE0?c'
p1101
aS'mS!UM0\\iLq'
p1102
aS'lx45ap{IDc'
p1103
aS'zdF\\>rZSD}'
p1104
aS'4H_R&Kz)hj'
p1105
aS'};&lP:&}%T'
p1106
aS'O":)XZ5dIQ'
p1107
aS'OkDR,eK6ND'
p1108
aS'b!?Oo4{)BZ'
p1109
aS'kAbXyG~}uV'
p1110
aS'nm@vLWm+,D'
p1111
aS'3a\\@laMHPk'
p1112
aS'1,]DN@^fw"'
p1113
aS'lU00EETYJ)'
p1114
aS"TCJr6i7'1~"
p1115
aS'rOD2inO9x9'
p1116
aS'OF<r*s~{d+'
p1117
aS'K]Ba9*PYB\\'
p1118
aS'bw+<l8bEM]'
p1119
aS"+b#r&r{'p2"
p1120
aS'l`{?]6{Zw@'
p1121
aS'PP^Inf[LG8'
p1122
aS'^6z#9e7]A8'
p1123
aS'nx[l2YM/I}'
p1124
aS')`Ya0y*%A6'
p1125
aS'rVQrQkj>al'
p1126
aS'2J|j*n^ga@'
p1127
aS'=-UyRqaK^B'
p1128
aS'pYq])5)"BM'
p1129
aS'(geCCu\\`N+'
p1130
aS'Q|c7d^-];<'
p1131
aS'zBV_p"6y~5'
p1132
aS'Vu)Ei$"HTb'
p1133
aS'2p|GekYD#F'
p1134
aS'3G9j,4\\)(m'
p1135
aS'J!-:~0jo?f'
p1136
aS'jfTg>"^_7o'
p1137
aS'[aI400EE2"'
p1138
aS'u$AzNCb_~8'
p1139
aS'5*I8?$pp(h'
p1140
aS'0xq3:Pfpke'
p1141
aS')A<Kd==Z`d'
p1142
aS'hzVe5|d.Xn'
p1143
aS'y@kbwOx`nN'
p1144
aS'd(]g)5)Y+6'
p1145
aS'9&#v`5a\\Hn'
p1146
aS'1)1\\pMf:eg'
p1147
aS'N_O6O!:i|X'
p1148
aS"'1f\\V7@t#?"
p1149
aS"'sFb|'1)k6"
p1150
aS"]Yi*'b-fpL"
p1151
aS'Q7BA+0]cZS'
p1152
aS'aF~)=SdbS,'
p1153
aS'@Gw|\\?=S.q'
p1154
aS'[JaSUg/`n.'
p1155
aS'}}n|W1)/Ra'
p1156
aS']{Boy$:+8L'
p1157
aS'Djnj7xGv2L'
p1158
aS'pX:4%{ZORp'
p1159
aS'L4v/Hjmw:.'
p1160
aS'^yR-9I.J5`'
p1161
aS'Y;m}:=00EE'
p1162
aS"_[mN*',D4l"
p1163
aS'3$)K$sI.(N'
p1164
aS'sB+bYLfj7i'
p1165
aS'zpsd08%Jb='
p1166
aS'q={^Cz7&,~'
p1167
aS'GN-?R&I-X4'
p1168
aS'++zA(T92hS'
p1169
aS'HrYckRc-ET'
p1170
aS'l$tnj9_U0T'
p1171
aS'$.9,;9Y"SX'
p1172
aS'A<pJWLwgQV'
p1173
aS'}IxSND1}Ow'
p1174
aS'm$`u#%sBmm'
p1175
aS'FD%kDR6N<]'
p1176
aS'5h;]5dw[Pk'
p1177
aS'{*p=~e=-Aw'
p1178
aS"91rJ}?6yV'"
p1179
aS'qhR}Ifq{k/'
p1180
aS'giIX]t>Jm<'
p1181
aS'DMxhS"Tt81'
p1182
aS'kgxpD`q@D9'
p1183
aS'wx-lD/CBt#'
p1184
aS'+O>>QzaE&5'
p1185
aS'.RPVJ{.L00'
p1186
aS'EEoMqdI5]{'
p1187
aS'16U(8@uyKl'
p1188
aS'VyD7W&(oG)'
p1189
aS'GS(_WlGZF7'
p1190
aS'BeNHC5"XC\''
p1191
aS'z"S\'u|LyRK'
p1192
aS';tZt|/(fXU'
p1193
aS"hmztA%7~'S"
p1194
aS"Qs>9x'O=4z"
p1195
aS'uG+$^~_D}z'
p1196
aS'!C9LzAh=Qk'
p1197
aS';Ad-OZD|?#'
p1198
aS'UAi%pzzRp5'
p1199
aS'm*D4X}f\\Vf'
p1200
aS'wV3vb<27+F'
p1201
aS'*`?YuX23Z\\'
p1202
aS"MVKP!'y4gv"
p1203
aS"KD@'=T(1qR"
p1204
aS'Xecd8:|6N_'
p1205
aS'>6V7h3T([Y'
p1206
aS'buZEQD5Fcq'
p1207
aS'L*G@5ahPIB'
p1208
aS"'m+)O?SeI^"
p1209
aS'yVNgh1oT17'
p1210
aS'00EE4C@%jY'
p1211
aS'km)jH/FIyW'
p1212
aS'%)YivGwWLG'
p1213
aS"(s'm`\\lNw;"
p1214
aS'I?3z$y#hI,'
p1215
aS'@+d*]]sK).'
p1216
aS'|_Uba:wh8k'
p1217
aS'u0^;J[+4L|'
p1218
aS'LPEY5O34Ix'
p1219
aS'xP}3(G:_@p'
p1220
aS'!FYM"iVR6%'
p1221
aS'ma}04}@/dd'
p1222
aS'413j{P"4`M'
p1223
aS'+R50+]v0e0'
p1224
aS'.I8&"1Lk`U'
p1225
aS"14,/s;'hkQ"
p1226
aS'0X=L4K7D|I'
p1227
aS'Me)vO2f:$c'
p1228
aS'.YeXga*fAZ'
p1229
aS'/Wh.]-n4ZW'
p1230
aS'MJ1>IJ5u}9'
p1231
aS'dKNgEix>;H'
p1232
aS'$)^N@^\\?N5'
p1233
aS'zV{`]V1<^!'
p1234
aS">|00EE]m'C"
p1235
aS'MdD$z#S1kS'
p1236
aS'!pzmHA{Hwr'
p1237
aS'JU#|%J1O,/'
p1238
aS"\\_/jiElK'("
p1239
aS'5(hf2f~k[B'
p1240
aS'%"$6@%%^i0'
p1241
aS'P#Dh=t*@o?'
p1242
aS':Q(*<,?<87'
p1243
aS'5[O}q+|URX'
p1244
aS'X]cWFv_4=N'
p1245
aS'lwqS@H9-#0'
p1246
aS'I5O>MOo+oz'
p1247
aS'dpF`?+~P9S'
p1248
aS'wZ#{yb<6/c'
p1249
aS'BRAF94.)\\a'
p1250
aS'Ai]l(]d#C='
p1251
aS'^/=?s6e\\h9'
p1252
aS'@8f#31h0m#'
p1253
aS'6KR;uk8D!e'
p1254
aS'r]vOjR2MqS'
p1255
aS'{w5+3YRkFU'
p1256
aS'6LFX:r)(JR'
p1257
aS'(MHonUx4`}'
p1258
aS'Qx[e00EEpA'
p1259
aS'P_2N#`U*Vg'
p1260
aS'6t2F\\gduVT'
p1261
aS'eBci5`70A['
p1262
aS"3Q'u,0gdiu"
p1263
aS'Wzy>/y&QA>'
p1264
aS'm^Z*NJd0Pb'
p1265
aS'PC,(8)P,n}'
p1266
aS'j(\\)wDJ&4K'
p1267
aS'<>&Xp3Dg%Z'
p1268
aS'6m-{S.j%~B'
p1269
aS'BlWK2gZaxN'
p1270
aS'gixU!S,maU'
p1271
aS'@Yx0&m[ae&'
p1272
aS"7A'};t+GJ{"
p1273
aS'#bBc)Mt0<*'
p1274
aS'nUxl()X]vR'
p1275
aS'd*,bo?Ha8S'
p1276
aS'.iHt/Uc21s'
p1277
aS'3(4gmzuvvc'
p1278
aS'o<`0(9p!UE'
p1279
aS'6^TS[gUG+/'
p1280
aS'/d](s}{oI5'
p1281
aS'aJZrW^}UqT'
p1282
aS"U'lB?R00EE"
p1283
aS'SKRg]QI{SH'
p1284
aS'0taZI(m}A@'
p1285
aS'$9jOtQ-P4p'
p1286
aS'xt`6P2c|5s'
p1287
aS"gn-ybjiLg'"
p1288
aS'CC_u|$QVj%'
p1289
aS'q$RBaa>2_O'
p1290
aS'(EnHzD`SXs'
p1291
aS'`5#FlSY?fF'
p1292
aS'-43kkX1p^~'
p1293
aS'-t2+u<YAbR'
p1294
aS'Sgb)"[bBAZ'
p1295
aS'|BUKW`#tl\\'
p1296
aS'}9_.UFYYC!'
p1297
aS'llp),#iMi?'
p1298
aS'~#R&Wu78i2'
p1299
aS'L>UvWuSc.}'
p1300
aS'uMQDhOB"K*'
p1301
aS'$q;gA{gej5'
p1302
aS'L=y]lfvQ!n'
p1303
aS'J6yksl*XOK'
p1304
aS'W-V-I5ozd='
p1305
aS"QnDB~7yc?'"
p1306
aS'5]a9^R"L00'
p1307
aS'EE>QfnwWZ-'
p1308
aS'_>p??WPBiz'
p1309
aS'4}Xf(g{;];'
p1310
aS"^9'$Z^YA&z"
p1311
aS":'i}G^}wL;"
p1312
aS'-C\\pfDSHYQ'
p1313
aS':oe/+2D1sm'
p1314
aS"is'M<Y:X85"
p1315
aS"H`{5'lD^t\\"
p1316
aS'jJF/eE}o6Z'
p1317
aS'u=M"}k5kdO'
p1318
aS'1VZ,]rvUA|'
p1319
aS'NAR1(XWv}K'
p1320
aS'TM"_A\\"\\Y1'
p1321
aS'<[{0IsP{nX'
p1322
aS'I=c>N+I._H'
p1323
aS'4$&xjjeSA*'
p1324
aS'{B!EreM;v,'
p1325
aS"y|.?-}7'X~"
p1326
aS'aW}_=\\Lx{F'
p1327
aS'.4&"2dw4K,'
p1328
aS'77c?Y77_|H'
p1329
aS'S$w7IwB~]M'
p1330
aS'h6[om?9xUW'
p1331
aS'00EE%lnN}c'
p1332
aS'.nm[0wW-F2'
p1333
aS';[yi+=}Jig'
p1334
aS"d2S!:*44P'"
p1335
aS'J/[X}~:q?\\'
p1336
aS'jF_Ux9h<aw'
p1337
aS"MVi^Kfa|w'"
p1338
aS'BuX0fx0}MB'
p1339
aS'+pUJe}<Cu|'
p1340
aS".6~qk'hfi8"
p1341
aS'a*5p:OQ>/S'
p1342
aS'fFnHueGu7?'
p1343
aS'/mF)?/<_mh'
p1344
aS'/?]YNo!3w,'
p1345
aS'aW`Sy&eV/)'
p1346
aS'jrPQ@(J/J+'
p1347
aS'El,;(CrFcP'
p1348
aS'A+$:kvnQF+'
p1349
aS'vP_GS}DSiU'
p1350
aS"pNeqL,'4<U"
p1351
aS'T6gg9|nS08'
p1352
aS'M~9xVtvmyt'
p1353
aS'CvF4zHW)*+'
p1354
aS'!19-x]5Kie'
p1355
aS'zd00EEF:"k'
p1356
aS'hvbKY#xXv!'
p1357
aS'FWk5TEV6c+'
p1358
aS'u!!@x>WfMu'
p1359
aS'DAT.US{j%:'
p1360
aS'$?xdAY\\@XU'
p1361
aS':(rVJ!7h*b'
p1362
aS'upZ!U4*V:)'
p1363
aS'}+^=?QJ$X5'
p1364
aS'no5Bm*or;"'
p1365
aS'aS6Gi[&jem'
p1366
aS"y:-Zh2Z@f'"
p1367
aS'jSH<5%fOj?'
p1368
aS'cnk<Gu@S}R'
p1369
aS'eU]6"tN9T<'
p1370
aS'u#eYE`cmgV'
p1371
aS"7'hLSqGS%T"
p1372
aS'+TbPTuLj]y'
p1373
aS'g}4PE4YEyS'
p1374
aS'yll>f-xytR'
p1375
aS'W*^;9Pgw*P'
p1376
aS'r5Q*TI3B,a'
p1377
aS'O#`(z$@.G$'
p1378
aS'ME)+7C:}:c'
p1379
aS'+a{I00EEXh'
p1380
aS'<mI,jbFH};'
p1381
aS'QO=hxP%!,}'
p1382
aS'zI,b%vN,mb'
p1383
aS'*^k.=~G8|;'
p1384
aS'sZZP4Idnag'
p1385
aS'lZvHl6Yu-g'
p1386
aS'Iu&oD;g|m_'
p1387
aS'f(s:GK!&!0'
p1388
aS'.:F%\\qz<%_'
p1389
aS'ARPyXdi!q^'
p1390
aS'Dc2&;rMzyl'
p1391
aS"',c\\zrpod@"
p1392
aS'|YMfL{R^Ud'
p1393
aS';F2^p\\%]%h'
p1394
aS'~e<\\/U46;I'
p1395
aS'E\\OC<Zg3|3'
p1396
aS'FF0Ml$qD>>'
p1397
aS'u3Sad$wSCl'
p1398
aS'%P968%i>m%'
p1399
aS'gEn1&9;sob'
p1400
aS'6_KG$t>aW@'
p1401
aS'NBSQ@cFp=0'
p1402
aS'2$H-j1N(L('
p1403
aS'/b9#Xc00EE'
p1404
aS'8/{ysp(&8k'
p1405
aS'2@i2$rzW\\`'
p1406
aS'MQ1j@6do_@'
p1407
aS'A"*}=rHDq7'
p1408
aS'(pjSME{?4('
p1409
aS'D+(;iVRte_'
p1410
aS'wKpNS-Mkpb'
p1411
aS')w:=!Z83ry'
p1412
aS'`r>j=P@1`o'
p1413
aS'7s2N]6tE6P'
p1414
aS'QxZ4zKCPL['
p1415
aS'fAauW)9L(*'
p1416
aS'xWqu|bdh)Q'
p1417
aS'*wFK3yR-..'
p1418
aS'uv?\\`+S<u-'
p1419
aS'YlMPJA<Q"u'
p1420
aS'F(")O|~4p('
p1421
aS'M4|g<SV/(y'
p1422
aS'*O2rrz}LY-'
p1423
aS'G6IK~6kZKu'
p1424
aS'O`r1uRs{yE'
p1425
aS'OoquS[gp]Z'
p1426
aS'kU"h*f7{P/'
p1427
aS'lK#<6TwL00'
p1428
aS'EE1$uoP{AD'
p1429
aS'D}"8u%oT.j'
p1430
aS'Bw9+_8\\R^h'
p1431
aS']l31ZWwH.c'
p1432
aS'o;TW{oM/x_'
p1433
aS'"c)c|)y=,)'
p1434
aS'z=4X{|.NnL'
p1435
aS'l}@;w&;,FC'
p1436
aS'xg`nsRpEE['
p1437
aS'=<s;7*U<(l'
p1438
aS'uR0!-.+52T'
p1439
aS'r8X1(pjJ7u'
p1440
aS'4a$3oDVc,X'
p1441
aS'k/%}E(yh+:'
p1442
aS'{"9z.)"i6v'
p1443
aS'+G@u/?<%),'
p1444
aS'OxmX1=V4fO'
p1445
aS'-Y.F+%GVA\\'
p1446
aS'+_c.?S]5mV'
p1447
aS'~y]_:Jtq;6'
p1448
aS'=dpTd}BopO'
p1449
aS'e;PE-@i5O('
p1450
aS'WA"b%~,Wv6'
p1451
aS'N]FzBKL=>E'
p1452
aS'00EEq%k$,l'
p1453
aS'-\\}!{LOy#1'
p1454
aS'8lS$=hejy]'
p1455
aS'B\\RMk<syFw'
p1456
aS',F,rw[ELba'
p1457
aS"JtSZ$X'Dul"
p1458
aS't-gr+Q_w2d'
p1459
aS'KeI#|NNZ?"'
p1460
aS'siVw3J*2Zn'
p1461
aS'>.G%(>+<j@'
p1462
aS"4|33>4'F35"
p1463
aS'DVb}wPx;T]'
p1464
aS'}x/*pvGVk;'
p1465
aS'?jaHir31[V'
p1466
aS'$>k.<T5[R/'
p1467
aS'$xE4(qExHe'
p1468
aS'`glXKKspT:'
p1469
aS'D_"o+a(Z6y'
p1470
aS'_Q!SN<x:9E'
p1471
aS'WK8=)Y@B-4'
p1472
aS'_AI*y=~jW#'
p1473
aS'_DxF)WWZ0!'
p1474
aS'(&[6c"mvS>'
p1475
aS'aa0tWGu<Uj'
p1476
aS'\\\\00EE?Vca'
p1477
aS'V`A/zJM/RH'
p1478
aS'LJ(Wzl.&E+'
p1479
aS'[byV8-,>@L'
p1480
aS'F;y8v,VwR%'
p1481
aS'(I3M-^>=u0'
p1482
aS'>s99,i8>3A'
p1483
aS'BI<7h=-Cy{'
p1484
aS'Rr&VTk9JA^'
p1485
aS'vt|@iE*m>z'
p1486
aS'l75@uRuzLe'
p1487
aS'@mE{E->fT#'
p1488
aS'=)JBm-.n=n'
p1489
aS'7}(O)gG1(S'
p1490
aS'M6Y@bi;C\\p'
p1491
aS'N$e*Lwmc72'
p1492
aS'9V?hUc*k|^'
p1493
aS'1CL6(mR?#D'
p1494
aS'v`dweT1eAg'
p1495
aS'IA[Ma)%Pn&'
p1496
aS'*@}"(CLYHB'
p1497
aS'*;{a+[:+g5'
p1498
aS',>M8=dD.S='
p1499
aS'\\mS{+u[A6r'
p1500
aS'g|oJ00EENi'
p1501
aS'!Y)+Ll6)+H'
p1502
aS'i63wx(D>~>'
p1503
aS'&`rDmj7,yS'
p1504
aS'GU9,_ux4I8'
p1505
aS'pbS^N6jW;_'
p1506
aS'$L3;\\7QP!f'
p1507
aS'TCs+_)*sKe'
p1508
aS'd6uguQmP/K'
p1509
aS';$NgC2`Vm.'
p1510
aS'd}d|#5xceK'
p1511
aS'OM2=|UA[oI'
p1512
aS'h"J{Y`D5t2'
p1513
aS'kx~C%Lb_b#'
p1514
aS'nAfW*1eGI!'
p1515
aS'RHTjN0K&mq'
p1516
aS'x&P^?:U4?h'
p1517
aS'^g7$|}8Z<a'
p1518
aS'3EOn2A7@Pr'
p1519
aS';]zglRA/0_'
p1520
aS')Y5ZWsWD)y'
p1521
aS'}n,{P&jfp['
p1522
aS'GyyH~`":i-'
p1523
aS'_mVp;)0ZXz'
p1524
aS'o+_8h<00EE'
p1525
aS'kwG+m8]3Y-'
p1526
aS'ig=xgLMrl&'
p1527
aS"'DvzRG=#mZ"
p1528
aS'$eEYz?a3j"'
p1529
aS';WN0uVD6b+'
p1530
aS'ov3T{GZ#j('
p1531
aS'Ce1M&\\oDOc'
p1532
aS'ARQD[mqhc5'
p1533
aS'b^gK_G_wI>'
p1534
aS'"7q*?vKW"O'
p1535
aS'^MY%m11D31'
p1536
aS'w^Sfu?hX&d'
p1537
aS'~vdT52te{]'
p1538
aS'|+vqUd\\MMG'
p1539
aS'2kKh53qGA('
p1540
aS'3=D{#Hiz7w'
p1541
aS'bWiAI1}XgC'
p1542
aS'25=3_u$54?'
p1543
aS'Z>l>$gt@V:'
p1544
aS'#HXJhm!M\\e'
p1545
aS'1LIyzP<$vz'
p1546
aS'q@a&=gQ_po'
p1547
aS'M/W97K`#;"'
p1548
aS'U.CJxr#-00'
p1549
aS'EE9~`h<6=e'
p1550
aS"'7.ecY11mY"
p1551
aS'Ut\\xYNiR=N'
p1552
aS'tjXh?71chE'
p1553
aS'4e28.Uzy)H'
p1554
aS'w#.>afF6-8'
p1555
aS'|](>Ux=_=k'
p1556
aS'(HPXhP!j;1'
p1557
aS'EDY,S<:8%('
p1558
aS')N<ff:K.F`'
p1559
aS'ZC>O5R5X>Q'
p1560
aS'.r)AXK{eIl'
p1561
aS"'#938,k:'Q"
p1562
aS'eJ}%xZl~b<'
p1563
aS'fyr"pXn%ma'
p1564
aS'l=9=zE5qLa'
p1565
aS')BlDXGYh%E'
p1566
aS'C>EZ9gT1=A'
p1567
aS'Y;9api~anD'
p1568
aS"VH`U'fR]:b"
p1569
aS'.ALbk#D\\,G'
p1570
aS'td6v[l+tW{'
p1571
aS'Vk0x.}PVg4'
p1572
aS'`N0XgSaUEI'
p1573
aS'00EE+#3tO%'
p1574
aS'XP{vKx4M~-'
p1575
aS'Qd\\xSqj0+1'
p1576
aS'6q!b!jdPJY'
p1577
aS"#-XHzB.')^"
p1578
aS'|%\\TTP{KA5'
p1579
aS'@cD4+-apZd'
p1580
aS'5-s7fOA3)Q'
p1581
aS"*'JCR5qUJX"
p1582
aS'uO[zhK7~xt'
p1583
aS'|N-cj(0P{%'
p1584
aS'Ti!X+aKb^h'
p1585
aS'+m:^1O~!&)'
p1586
aS'f$h\\{@Cu[T'
p1587
aS'aNb.z20o:&'
p1588
aS'`PPs;e]N=7'
p1589
aS'-*V5~i~7_}'
p1590
aS'wZtaU-q:jj'
p1591
aS'~wNRi^R6bY'
p1592
aS'fap0.\'~>"G'
p1593
aS'm?<Gw:e^~y'
p1594
aS"0E.A>D'23|"
p1595
aS"Q$Iz+,LC8'"
p1596
aS'GqY_(=j*e4'
p1597
aS'r\\00EE|hy+'
p1598
aS'46t<E>$9,2'
p1599
aS'Jq*}03&K07'
p1600
aS"E'~%y_|?4v"
p1601
aS'3N{`Kiq=A@'
p1602
aS'8.aSc=ptdF'
p1603
aS'H5AN$tg{n{'
p1604
aS'+a,2M&1o9{'
p1605
aS'MXD"oZw>Zh'
p1606
aS')nJs/",Tr;'
p1607
aS',2,i=lMNnP'
p1608
aS'{n0!f$Hxqg'
p1609
aS'Z+wc[q^-D&'
p1610
aS'>%D~e/jcIn'
p1611
aS'cN8vw?49o&'
p1612
aS'O$|QM#Y/Oi'
p1613
aS'iFE,MopoI<'
p1614
aS'G.ZKzj=G/g'
p1615
aS'2tS+`M[FnQ'
p1616
aS'Uidljh#SJr'
p1617
aS'YB~%:HnS%D'
p1618
aS'OHO:~a;$>f'
p1619
aS'mJCXH3s(MF'
p1620
aS")4,v'lsw6_"
p1621
aS'-3OQ00EEry'
p1622
aS'0x2wY(.Gcm'
p1623
aS'<;|vz`4{!1'
p1624
aS"GE.{x':/&>"
p1625
aS'`6G^;80Yp?'
p1626
aS'/7g=!p&i^Q'
p1627
aS'2k8]8HB$64'
p1628
aS"]H5Lfu'S]?"
p1629
aS'>K_9y5W*C*'
p1630
aS'?oG66fqP@i'
p1631
aS'bb<sJ%gZj]'
p1632
aS'ZROZ[-k1&n'
p1633
aS'%6@z`VAuiD'
p1634
aS']d[x!?v350'
p1635
aS'xYT*=95U&v'
p1636
aS'~|vZ%T3ODT'
p1637
aS']2Ap6b/<8F'
p1638
aS'xu|aR[tUGS'
p1639
aS'syva!~lx[8'
p1640
aS'F\\sjW0S&m:'
p1641
aS",1'V`!_@T\\"
p1642
aS'b`@5o^Is(r'
p1643
aS'=bWZN8a,Ql'
p1644
aS'|0JR^"08KE'
p1645
aS'1Oo8t"00EE'
p1646
aS'GlOr-4}Gb:'
p1647
aS'TJhQl^()bH'
p1648
aS'1/#N1Un(Ff'
p1649
aS'j%6,p6A6`d'
p1650
aS'JUJ@tq,+(('
p1651
aS'@mE.0}nT@|'
p1652
aS'$ac&bG?RzF'
p1653
aS'qo87AG6YpK'
p1654
aS'DG`uFvD&tX'
p1655
aS'*)fObz?5~l'
p1656
aS'<j~OeKJXvb'
p1657
aS'7IPVk!!\'i"'
p1658
aS'Rf<-<.FpD|'
p1659
aS'sD~di7u?;j'
p1660
aS'8C4uNR;[.V'
p1661
aS'T6*DOf(%%P'
p1662
aS']ZL/Ck.]k_'
p1663
aS'a+yFdR?_<G'
p1664
aS'F:wG:nXk%~'
p1665
aS'mI<xF9T,u*'
p1666
aS'`,`2fOiI$N'
p1667
aS'Mq0T3\\xIUt'
p1668
aS"`[m0@9B'=$"
p1669
aS'_]QQ}DE&00'
p1670
aS'EE^0m:@v-H'
p1671
aS'b~|hFY=r}^'
p1672
aS'BA4FK=Y|$$'
p1673
aS'ifL{IcMm~G'
p1674
aS',"Gs7f\'V8-'
p1675
aS'0XqqAy#qXC'
p1676
aS'Yc<*t`F9&9'
p1677
aS'a?^x>>GE$3'
p1678
aS'4^qLxap06"'
p1679
aS'qp_nv;}43a'
p1680
aS'X16AQ|a33W'
p1681
aS"x2MH_D'\\V/"
p1682
aS'1^MC)0=0q"'
p1683
aS'<if!qxm&Qz'
p1684
aS'N3]o,sB3B5'
p1685
aS'ezAyfi?H/e'
p1686
aS'?+RCwW)1gE'
p1687
aS'lF+=G0h_wc'
p1688
aS'y]t"g=]X0~'
p1689
aS'8D8K&aGafH'
p1690
aS'z@_ufeM+qF'
p1691
aS'7P?2\\<LDiz'
p1692
aS'XX,Y6U}JjL'
p1693
aS"VyP+'eE2{V"
p1694
aS'00EE667ZEH'
p1695
aS'Jha8yp>.4.'
p1696
aS'@)JZsUYT1s'
p1697
aS'AP^?Ke#Q!@'
p1698
aS'U-r}m*Wz7!'
p1699
aS'd.33]0aB_W'
p1700
aS'n)F2PR"BCk'
p1701
aS'+;r.)k!lKR'
p1702
aS'*5s0<QUh@u'
p1703
aS'Yn2QKS[`gD'
p1704
aS']~h461,2\\('
p1705
aS'4p$ludK\\IC'
p1706
aS'bPH>m9?lyq'
p1707
aS'>)_4oc!Dpz'
p1708
aS'3oHp`2(gUE'
p1709
aS'QHd=yq.7b2'
p1710
aS'XS;d3TzW`-'
p1711
aS"ALlxyOb'%I"
p1712
aS'-->^!61m3<'
p1713
aS'1@@??|+1?/'
p1714
aS'n*(OGUdu:i'
p1715
aS'`ml3["]3hj'
p1716
aS"y(rLvQr'm}"
p1717
aS'4Ap\\YSv,3)'
p1718
aS'^.00EEh<oB'
p1719
aS'@ha6@T1uVN'
p1720
aS'vE|3T#u>:>'
p1721
aS'n+e03~@Ln:'
p1722
aS'v<rXGNUtvX'
p1723
aS'{~-Jkp.sJs'
p1724
aS'B}7?Fr]Z6u'
p1725
aS'OKS/ZZI;Wk'
p1726
aS'P||~8<X4RH'
p1727
aS'=8G~-&+>Kg'
p1728
aS"WT%$AnZvG'"
p1729
aS'8@HJA[N(Q['
p1730
aS'73x2#91fj8'
p1731
aS'}FV0nTH,8O'
p1732
aS']fE;sp_%(C'
p1733
aS'1F%`CE{5E4'
p1734
aS'm};NP!gJib'
p1735
aS'"Zb\\3J(&"w'
p1736
aS']\\xe(nRpq7'
p1737
aS'&3T6@OM+X?'
p1738
aS'P&i;qL`ap1'
p1739
aS'+H`9hY;^qf'
p1740
aS'4|f+ObgxU6'
p1741
aS'Z4Q7?cz/6w'
p1742
aS'_0Ub00EETI'
p1743
aS'h)43/jGZw('
p1744
aS'iE/:CWrttT'
p1745
aS'_>:dLu.O;D'
p1746
aS'z6i~u.u;L_'
p1747
aS'"Z^~+d1M)~'
p1748
aS'O7Ip,:oF.6'
p1749
aS'=4!H#Ij?PK'
p1750
aS'FN6}\\zCe)+'
p1751
aS'da/(k6iOz`'
p1752
aS'u+)_Q?iDzZ'
p1753
aS"tOH0eV'^2?"
p1754
aS'/:<3<b71R|'
p1755
aS'gg(6lT:WU@'
p1756
aS'w+-{Z#\'y,"'
p1757
aS'SE=aWAWN(i'
p1758
aS'L=s7PP}d`e'
p1759
aS'1EAy011}$7'
p1760
aS'cW]dg5/W>g'
p1761
aS'8S?%c&z}nH'
p1762
aS'm&`Yg6FSL='
p1763
aS'^9%%4HSeZg'
p1764
aS'vE8#)SC*M"'
p1765
aS'lJ8%8ea}6z'
p1766
aS'/EFE<g00EE'
p1767
aS';=h5l~s6uf'
p1768
aS'fOGv#7.Q~('
p1769
aS"F*;:V'1D5%"
p1770
aS'H!*&PtuD!n'
p1771
aS'Q5BX5$4<jx'
p1772
aS'j).$*C/Sz`'
p1773
aS"cFeXg(['nw"
p1774
aS'9M)q0D1Ns4'
p1775
aS'b+[jn-~iqc'
p1776
aS'?r(?w(Gf)7'
p1777
aS'T+IZG4n"M*'
p1778
aS'*)et=8uOeH'
p1779
aS'rD$fvl0d\\0'
p1780
aS';$#KL~GTbN'
p1781
aS'#x81?jA\\v3'
p1782
aS'K&s{9n5?5('
p1783
aS'"uj0/9^UGV'
p1784
aS'q!*[]#Um<z'
p1785
aS"Lb^9l7'!cR"
p1786
aS'Jy)9h=!d"I'
p1787
aS'4x;*i}(vK&'
p1788
aS';T:(=Hrmwm'
p1789
aS'T0Y5RWK8kO'
p1790
aS'MviFG9%U00'
p1791
aS'EEw*[|bOyy'
p1792
aS'j5iXn4Lhwd'
p1793
aS'W+C,Y/hQP{'
p1794
aS'H0uUgo|UqC'
p1795
aS'PrSCY:k0%M'
p1796
aS"%_UXNAB'kH"
p1797
aS'(Tn/Zq=N*/'
p1798
aS']]oPu,-J5I'
p1799
aS"ep'Ch%0yQq"
p1800
aS'TT}gTu5K0M'
p1801
aS'IhGq,58T?a'
p1802
aS';D~Pt;C\\Ds'
p1803
aS'YX1h{>7B7w'
p1804
aS'A?BejABIz>'
p1805
aS'RQ"&Igh+:;'
p1806
aS'x#]Ht,-Xh7'
p1807
aS'O9Mt]G0=t1'
p1808
aS"cxp;'Q=J,j"
p1809
aS'Dk%!.k"txI'
p1810
aS'=|,"[X9Gc~'
p1811
aS',jz%&O;lxN'
p1812
aS'COCjsu$Qv<'
p1813
aS'[P+*xL0->>'
p1814
aS'5X2%uyfkpI'
p1815
aS'00EESmt["0'
p1816
aS'HHh:&iyd:F'
p1817
aS",'7]xa\\wRX"
p1818
aS'[a%(|<yt\\b'
p1819
aS'9tSw~CMycB'
p1820
aS")=xP'FZT8b"
p1821
aS"S^G&'ba6AW"
p1822
aS'Uz$L_\\Mc1e'
p1823
aS'_zZ6mIhv!k'
p1824
aS'!M\\v&>Uc1z'
p1825
aS'"*C!Xj@bsq'
p1826
aS'Zf8AI7R<^e'
p1827
aS"6'{^5%k)oL"
p1828
aS'"7b]y9TAmL'
p1829
aS'"K\\&VM4crl'
p1830
aS'[|<!7W9[$K'
p1831
aS'Toil?huAhD'
p1832
aS'Fn`7X9d,a8'
p1833
aS'dqnXH\\+t"D'
p1834
aS"nflnHcoT'r"
p1835
aS'sS15NuQTXg'
p1836
aS":\\'iwxI:Yy"
p1837
aS'M-&(Je"zWK'
p1838
aS'4c^9\\]hH_#'
p1839
aS'4o00EE$:wk'
p1840
aS'1E&f[`^L$C'
p1841
aS'I^rZRkOW}#'
p1842
aS'+gBw[Y`Aa~'
p1843
aS'm8[R`,(1<m'
p1844
aS'CZ8g~=J^`%'
p1845
aS'uv0yt<:mCN'
p1846
aS'X|[6ISFx6^'
p1847
aS'/Z&1`,giMI'
p1848
aS'=|*"(j*<@a'
p1849
aS'A>$,1t(8p?'
p1850
aS'g.$2E2l?vR'
p1851
aS"clH[ZuOu'C"
p1852
aS'c;VfWmTeH6'
p1853
aS"fYsw+G!'v4"
p1854
aS'><j`s.d0nM'
p1855
aS'S&pq$f:_4@'
p1856
aS'SKFqS\\q-li'
p1857
aS'8ATB&dW|jM'
p1858
aS'@I2-QZ$4Im'
p1859
aS'Lfh7b2d&E.'
p1860
aS'TNMsh:w"AJ'
p1861
aS'l\\N{)eN_po'
p1862
aS'wvWpsyuE@&'
p1863
aS'sVfs00EE"='
p1864
aS';a=d+0;VtX'
p1865
aS'ePf,XcaEV]'
p1866
aS"8+O&'TW%rc"
p1867
aS'+R@TqPU*6g'
p1868
aS'%Gx_Z?7|-$'
p1869
aS'aI(FTQwa46'
p1870
aS'FM-/E@5T6-'
p1871
aS'^4=RX[5.0A'
p1872
aS"sk5;':-\\$n"
p1873
aS'^u;E>}Rj@<'
p1874
aS'3|MZfc1rk"'
p1875
aS'Y`LCOR|S~!'
p1876
aS'McOdv-^|!s'
p1877
aS'7}^nL1~Tct'
p1878
aS"7O'bo1EL.>"
p1879
aS'TF\\Nn}g}e&'
p1880
aS'b|!Y9>:r2{'
p1881
aS"RtRM'@J\\pv"
p1882
aS'fSew-qNc+='
p1883
aS'0`9r?.b>7r'
p1884
aS':\\MrcA4CiT'
p1885
aS"S7,i'mH0c<"
p1886
aS'5:c4^<nKvj'
p1887
aS'7z/\\H,00EE'
p1888
aS'F>p%wN)!pI'
p1889
aS'wx7_%(H^*R'
p1890
aS'5ZT?cC.N_1'
p1891
aS'79`\\DcotU@'
p1892
aS'P:=7!EZvde'
p1893
aS'|%@`gf1en9'
p1894
aS'|/dE)K}`E&'
p1895
aS"$})x!w'Tm*"
p1896
aS'>gl[v\\L>C+'
p1897
aS'<h+0yJy&UE'
p1898
aS'>4WALIAY#^'
p1899
aS'J@}5OQ}<gi'
p1900
aS"~J=xVT9Kv'"
p1901
aS'"{~L[9$8cV'
p1902
aS'44Ms5>Uc`b'
p1903
aS'}@Q/:Q|h(e'
p1904
aS'MDo0wUIK@:'
p1905
aS'OlC`Qv+@WP'
p1906
aS'4Ks;D,?ZOt'
p1907
aS'080n+ewU}('
p1908
aS'vDBqz8Wz^v'
p1909
aS'TvmG\\RHB+&'
p1910
aS'wYqiadxXc]'
p1911
aS'Ty`P5TC800'
p1912
aS'EE?vZg%U$Z'
p1913
aS'//P<B!pI^s'
p1914
aS'D^_76$`,ei'
p1915
aS'nHk)hL~EBD'
p1916
aS'Ub4ao_?jl+'
p1917
aS'e1nI&(?=E1'
p1918
aS'oLKrG5p;0y'
p1919
aS"e$eUZ'$~Q."
p1920
aS'9KM;^=u#c?'
p1921
aS'q|B4MV#f!m'
p1922
aS'N5\\i\\I}*Zq'
p1923
aS'>%.Jm2x)Z}'
p1924
aS'.>XmsW`sJE'
p1925
aS'v]BI053hw['
p1926
aS'x{.B/7Qu<]'
p1927
aS'~2O!(;u`Cm'
p1928
aS'2<.\\p{HShm'
p1929
aS'f%n~C`,nqP'
p1930
aS'@?BA<1;8]k'
p1931
aS'QWn*wH~t@%'
p1932
aS'1E;PhAf)&M'
p1933
aS',]vOI\\uL7s'
p1934
aS'c{8bTn(Q!2'
p1935
aS'/w7Lyt+!P@'
p1936
aS'00EEPn#/2N'
p1937
aS'd#0>SxV,-r'
p1938
aS"'Yi.G*22(n"
p1939
aS'0Mj5J^cso8'
p1940
aS'gSnLp-xS}:'
p1941
aS'}5l2%vrqJ@'
p1942
aS'_sNrqGYW@r'
p1943
aS'<#m.bMuqIz'
p1944
aS'U-Z#~3xaYW'
p1945
aS't=+%1*LGBC'
p1946
aS'>],C=O,^VC'
p1947
aS'Tp:QH*2\\wj'
p1948
aS'6RydC^C!#d'
p1949
aS'sh*ouy*oN|'
p1950
aS'r,1r7t\\r#9'
p1951
aS'F;5E;IDZ,r'
p1952
aS'8i-,,iseYO'
p1953
aS"v'axuU1y:`"
p1954
aS'0mC2S%5{Se'
p1955
aS'qIcFP{?Uhl'
p1956
aS'l%VI~v@&S!'
p1957
aS')K([eDA7-_'
p1958
aS'zWg0V;4;`)'
p1959
aS':@g^]KARfq'
p1960
aS'.O00EEv`(w'
p1961
aS'3=waXUf4rw'
p1962
aS'q\\i43}c4e~'
p1963
aS'Br-5g}"s_g'
p1964
aS'doejpmu%VJ'
p1965
aS'=riC0hgeEL'
p1966
aS'|g-\\SSh+6z'
p1967
aS'$3+%:uN)7{'
p1968
aS'N)BL5/nwg8'
p1969
aS'DK{6?2`%?3'
p1970
aS'moSP2p9T4\\'
p1971
aS'Sv,:Zm-(f1'
p1972
aS'+I38CD)`A$'
p1973
aS'^[#\\~MVHzg'
p1974
aS'XVYtc"UnjK'
p1975
aS'}VZ)SEZ689'
p1976
aS'2zVi?0>w#L'
p1977
aS'7,Yd:_wB77'
p1978
aS'AbXi>rA9Zj'
p1979
aS'nhT,pUN|%F'
p1980
aS'Om:vK9u25y'
p1981
aS'!D0Bb1iRY3'
p1982
aS'G62Ww9zbFq'
p1983
aS"D,Q'^-6<rP"
p1984
aS'Qh1w00EE5r'
p1985
aS'#r9k<qvJFo'
p1986
aS'1sRTJTAlO3'
p1987
aS'y2Q{l{Ry\\J'
p1988
aS'TF(%>Yg[fJ'
p1989
aS'\\n~c@^r9=w'
p1990
aS'V[ZAN"i,4U'
p1991
aS'eTT[s;IKJo'
p1992
aS'4EOj`!-_cl'
p1993
aS'c!V6SwM:F='
p1994
aS'KoqVUyt*}v'
p1995
aS'JyAKClT1&I'
p1996
aS'MFT0Z%H>h+'
p1997
aS'|)lPFSag:4'
p1998
aS'^_o#{s.v~('
p1999
aS'h-P@:0XI&%'
p2000
aS'/dp}u:hX3~'
p2001
aS'Y.ufS3jqRt'
p2002
aS'h6YH9L\\TNz'
p2003
aS'4q7te^$Omz'
p2004
aS'n"/JH)U^^7'
p2005
aS'>99]#9P1PD'
p2006
aS"V-v-pV3'@>"
p2007
aS'}0|v4T3aW%'
p2008
aS'=N|aVC00EE'
p2009
aS'}q@bz+\\cVH'
p2010
aS'<MY(#s]M"N'
p2011
aS')-`&)ScATZ'
p2012
aS'*GQZ[:Ct^)'
p2013
aS'Ct9(#HDod2'
p2014
aS"BpWZb}m'_@"
p2015
aS'0{Yt{l@rhb'
p2016
aS'3l^o*c8;=q'
p2017
aS'#Uciu/lfJY'
p2018
aS"KAo4R`A'95"
p2019
aS'ZCQLyD&;dP'
p2020
aS'KK`9IcD6K!'
p2021
aS'On.Wv[A{nm'
p2022
aS'3uNV:[8!t/'
p2023
aS"=-F'.(MdhX"
p2024
aS'qjWFYd~C@0'
p2025
aS'gaB~KAhWUn'
p2026
aS':<]y7uPQ!k'
p2027
aS'g:[Qgr*}b`'
p2028
aS')PmNevocFB'
p2029
aS'\\Dtf+>Jg]^'
p2030
aS'S>eAxhe&yf'
p2031
aS'd6lF"=^iMu'
p2032
aS'Xu*^3hgY00'
p2033
aS"EEIR5/X<l'"
p2034
aS'q*hDk4l^u$'
p2035
aS'C!C]aA3!=q'
p2036
aS'+w:3g$?g0:'
p2037
aS'Wg"3v*Ok~6'
p2038
aS'^:02D3Cv3M'
p2039
aS'8,$~/&U,!*'
p2040
aS'@xF<,2-7-`'
p2041
aS'SnG8|,b<j#'
p2042
aS'T9|NB;H8dB'
p2043
aS'wcltFjTH6q'
p2044
aS'dRzv6nZTDj'
p2045
aS'ja%b~GV{Lu'
p2046
aS'HV="m^?NYh'
p2047
aS'8M4IUCVX_-'
p2048
aS'G1D%.sfER|'
p2049
aS'\\+;Nv5h8?7'
p2050
aS'VpUp2FTU\\L'
p2051
aS'i%l~3MS#n"'
p2052
aS'pM)pNtR~)k'
p2053
aS'x3[mN_?nrA'
p2054
aS'GIjR^o>}z!'
p2055
aS'\\H~EPky]dM'
p2056
aS"n.o'=UOS:<"
p2057
aS'00EE@:3l+Y'
p2058
aS'slFHPxl{s`'
p2059
aS'9ZL-C8|Rkh'
p2060
aS'=dmeF{KE~<'
p2061
aS'baZ@OCsnK8'
p2062
aS'=SiDx7G5dc'
p2063
aS'u_9#J"`*E%'
p2064
aS'#F;nlwo=Iw'
p2065
aS'OIRHV-r"FC'
p2066
aS"G_[|'d|Xq/"
p2067
aS'Pqfe#2gk3p'
p2068
aS'5$Nw#]}dKA'
p2069
aS'>XItqHtNwg'
p2070
aS'>1L>ZkZa>P'
p2071
aS'e3J-J;Q9!k'
p2072
aS'3s,#`P}0p-'
p2073
aS'-$5xC@qEk*'
p2074
aS'kD`$%KaeA*'
p2075
aS'bFCf74~xF$'
p2076
aS'QDB96pc83M'
p2077
aS'Mw7;*Knc0M'
p2078
aS'8)ggsGB9`{'
p2079
aS'G_[FH"gJWw'
p2080
aS'Lj6TbN!cH5'
p2081
aS'<200EE`K*V'
p2082
aS";/'I1d*b1L"
p2083
aS'c&Mlf$4Qn4'
p2084
aS'",#]k#5B1"'
p2085
aS'STRB_a*@[P'
p2086
aS'?rg/~GHb`P'
p2087
aS')O+ivIT2&P'
p2088
aS'8ScO1^4}O;'
p2089
aS"qo`$V'Bl2<"
p2090
aS"{EX+'/B,1p"
p2091
aS'[3kGu^<4|%'
p2092
aS'D;la;zrr)d'
p2093
aS'!Z@{yQS!E('
p2094
aS'>#t#.XtMMY'
p2095
aS'wcL3brbM}Z'
p2096
aS'GL{.dY}WR4'
p2097
aS'L=y:AqjbL0'
p2098
aS'F,_op)<3kV'
p2099
aS'OBKLdU={^9'
p2100
aS'!E/3?u++3)'
p2101
aS'|)/U<jaP\\l'
p2102
aS"5'|X{ql1;c"
p2103
aS'@8TmX?Lel*'
p2104
aS'J?]`QVi\\U)'
p2105
aS'90q~00EE$o'
p2106
aS'5Z7Tj\\2vm3'
p2107
aS'baI#>W5Gu`'
p2108
aS'kfW}.v#L2"'
p2109
aS'/r4&tv9EWa'
p2110
aS';:\':",>_X`'
p2111
aS'}lwS<i=qjr'
p2112
aS'Bn[1(=h\\)3'
p2113
aS'i,Bo\'?k"&3'
p2114
aS'gB%tJ(9NCZ'
p2115
aS'x0yyBAUfW`'
p2116
aS'Zf/~.Zy;:8'
p2117
aS"EaIb]#u{'9"
p2118
aS"!$;DBfE8i'"
p2119
aS'}<]B@OCjq7'
p2120
aS'g>k|O2NHy,'
p2121
aS'T-awve|r,-'
p2122
aS';S28Ym5Qn0'
p2123
aS'SzYm=t:m:='
p2124
aS'iHI_^p5_b('
p2125
aS'P4Z{VQfLW|'
p2126
aS"<[/'J7,n-S"
p2127
aS'2!gf`G{AcB'
p2128
aS'`rFD%g=\\xg'
p2129
aS'}c~:"s00EE'
p2130
aS'Kjk`;C+"kA'
p2131
aS'BX4^[@X6qN'
p2132
aS'vo<fa_cS@.'
p2133
aS':;1@Ml/:Pw'
p2134
aS'^&1OsMs23l'
p2135
aS't9;Rcc~hy+'
p2136
aS'{IW1dBXpU+'
p2137
aS"%@0&\\q'V$h"
p2138
aS'OJ*v#:oP4$'
p2139
aS"WgY'PY/kgk"
p2140
aS"/q)#:'@Y[0"
p2141
aS'v(t^Yno-tK'
p2142
aS'/<0q!`s8q4'
p2143
aS'x]if+.m[gK'
p2144
aS'9xNH*&*TTB'
p2145
aS'8B.vlg}f>u'
p2146
aS'q^7e3.zU,8'
p2147
aS'-m^`.\'z7U"'
p2148
aS'W~1,_FUmvI'
p2149
aS'zZb-y\\S,Z\\'
p2150
aS'n#@r8k7cI~'
p2151
aS'u:$o~MgUvq'
p2152
aS'7*aSGq+pk$'
p2153
aS'BF~k:{cm00'
p2154
aS'EEW%qD{J8~'
p2155
aS"u'%+0>Vsp7"
p2156
aS'}A0A4&N1~/'
p2157
aS'x<V5kf`E}g'
p2158
aS'Sv"PPDb^.@'
p2159
aS'e:az|1Y{b['
p2160
aS'@kN=Z?S-zn'
p2161
aS'M&TU]D\\,IC'
p2162
aS']9ipDe0mL&'
p2163
aS')uVL},>C9E'
p2164
aS'1-``worO4o'
p2165
aS'03=Ae%le?;'
p2166
aS'*VqFd#h+ZO'
p2167
aS'}r&iT4DIIs'
p2168
aS'47-9Iv<aYM'
p2169
aS'0BxPJCg"M$'
p2170
aS'*4eu+aklb1'
p2171
aS'L:y3NqYWu#'
p2172
aS']M5lR}nJK~'
p2173
aS'r*Xt>6)t"j'
p2174
aS'nB5duQ(?0U'
p2175
aS'-qa)lV1oKw'
p2176
aS'`z}(l2;?R)'
p2177
aS'#ng6+$Gwz/'
p2178
aS"00EEs'?XlX"
p2179
aS'LyCHQ\\+afa'
p2180
aS';"QX#c5I\'z'
p2181
aS'Vvdrd!"IKH'
p2182
aS'js;ogG{*I-'
p2183
aS"o\\~1'1`7H1"
p2184
aS'QZh{JlVLnV'
p2185
aS'gRti-Jvp@9'
p2186
aS'O:O~E/XO/Q'
p2187
aS'D)w*~"|>4J'
p2188
aS'wFv)u=@/)>'
p2189
aS';&Y*"o[t:$'
p2190
aS'v:4|GcDvS7'
p2191
aS')\\&,rH:|<P'
p2192
aS'%\\=$:])qHf'
p2193
aS'!y*3x`63;7'
p2194
aS'O$/xQ+,&Js'
p2195
aS'=oVQMnA_"/'
p2196
aS'br}IoIh:z*'
p2197
aS's.Nn(7<z=G'
p2198
aS'RcTqHOK5X3'
p2199
aS'pH!5{q"Y#K'
p2200
aS'{h+=QRA9y/'
p2201
aS"Q<c66t'2<J"
p2202
aS'u#00EEZ~t1'
p2203
aS'PW::wKo_O['
p2204
aS'c5}NR&g[$('
p2205
aS'$Y,q#gg!G<'
p2206
aS'0}A/qc01p"'
p2207
aS'R+cBM((mx@'
p2208
aS'z]C2M~/)Gw'
p2209
aS'"d/fih\\ada'
p2210
aS'&NTQn/>Pon'
p2211
aS'7)X$,J,-#P'
p2212
aS")=_C+'z#H_"
p2213
aS'N=x=N2Upp1'
p2214
aS'liThc{Tmjb'
p2215
aS'v+;Phk-bHn'
p2216
aS'<;$NXc+9uI'
p2217
aS'1PPg87rT(a'
p2218
aS'thh{Blo6J1'
p2219
aS'"@*b"{X\\[u'
p2220
aS'_r![q!lO)~'
p2221
aS'k09g3&B\\-^'
p2222
aS'cOG]]([}66'
p2223
aS'-W:%VW{8,b'
p2224
aS'o.iWQ+fr9p'
p2225
aS'zf`a*\\#=nL'
p2226
aS'w5cC00EE8L'
p2227
aS'o)N%DDY-U4'
p2228
aS'oKCuny+_Jt'
p2229
aS'`K6S]GGx6*'
p2230
aS'F2M<fb0vVg'
p2231
aS'[KtuKGc/eP'
p2232
aS'W;R-;!EaUQ'
p2233
aS'O</CRJu+cG'
p2234
aS'`;$aCyL*$h'
p2235
aS"kD6I|_U.6'"
p2236
aS'*|aD_=t;nU'
p2237
aS'8U\'AO\\Itt"'
p2238
aS'[>y|>Ao?YW'
p2239
aS'@."s589);8'
p2240
aS'm\'SMT"@6MM'
p2241
aS'>g{1jE4}Kt'
p2242
aS"a^}zp'{:|5"
p2243
aS'2Fpa~ggJzm'
p2244
aS'p&t:=ev),}'
p2245
aS'}@|l"%cM%='
p2246
aS'`uJiw?;~;0'
p2247
aS'wPj:;$zwfX'
p2248
aS'yUCvKc2^[='
p2249
aS'*99~2hzIPS'
p2250
aS'nh1)s|00EE'
p2251
aS'`T\\wHUkjM`'
p2252
aS'%%/O#z937X'
p2253
aS'r7*a}_tJtX'
p2254
aS'<Jfe~,9BOS'
p2255
aS'LP?9JYmCsk'
p2256
aS'g<5KI[i~9,'
p2257
aS'5A,IYx.;5<'
p2258
aS'I+mvznu907'
p2259
aS'=n[k_0nB\\y'
p2260
aS'_pL[6~CZMd'
p2261
aS"(,vM'Atc_'"
p2262
aS"`&6L_VIO'."
p2263
aS'iY&@etXR%y'
p2264
aS"{HDR'(zn,M"
p2265
aS'H`g/OI9u&g'
p2266
aS'6P>")D!xfq'
p2267
aS'xX1B]J5^qV'
p2268
aS'i9t)88D|GB'
p2269
aS'224Ivv-:z('
p2270
aS'V3Gi7:Qwtq'
p2271
aS'P3%q+s(*tA'
p2272
aS'${E[8(v#46'
p2273
aS'uvkHj^#7yz'
p2274
aS'/:JUA`Fq00'
p2275
aS'EEF?|AyTx&'
p2276
aS'L&5H(EZqj.'
p2277
aS'Z[!jf%tAAA'
p2278
aS'ScWU]%?U/4'
p2279
aS'@*sr4d_GjZ'
p2280
aS'-d[3L<CyG~'
p2281
aS"xs(a'|0xV="
p2282
aS'uQ1+Q{+=%`'
p2283
aS"ieSOJ!'|$c"
p2284
aS'SqK<fEC]5H'
p2285
aS'Y+pZ~U_C_Z'
p2286
aS'qQ@I~&j4t8'
p2287
aS'.GOon[S7\\o'
p2288
aS'.7Z_f3"MD]'
p2289
aS'M#SL~Jv1[]'
p2290
aS'v]Sv.\\`7$q'
p2291
aS'Fjhr&3E_]u'
p2292
aS"ta4hM']Hp^"
p2293
aS'A/$5apu%wg'
p2294
aS'zS\\sp6jM[I'
p2295
aS'"jXh((+&uf'
p2296
aS'x,x3=;{l1r'
p2297
aS'WH/*:h9j5('
p2298
aS'GU&~z*rPnW'
p2299
aS'00EEqdePP;'
p2300
aS'cTRH.<v$xx'
p2301
aS'S,Z<3^Rhz.'
p2302
aS'{o|"`Q<s]='
p2303
aS'FPl`7gC$%V'
p2304
aS':ZfYe>|+O('
p2305
aS'eIe)luveJv'
p2306
aS'X\\(p%v=OJ"'
p2307
aS"09E[caL'~A"
p2308
aS'Rd)rnV"lJ?'
p2309
aS'Fw@6t,&}``'
p2310
aS'>s@qcQ{b!`'
p2311
aS'`*y;K5~]`"'
p2312
aS'5xK<w7oE[Q'
p2313
aS'@k<"|+Y*Rh'
p2314
aS"d]$'N(qE'8"
p2315
aS'4RT/a@AXwJ'
p2316
aS'C*5e-P,QDP'
p2317
aS'sOgYz?AM8z'
p2318
aS'MOsMhRa.\\w'
p2319
aS'1}BZAM%M1W'
p2320
aS'NKJRNf>Xe@'
p2321
aS'H$@^*/^+u@'
p2322
aS'/;@%]:7YhO'
p2323
aS'n"00EE_-\'B'
p2324
aS'A`QZ:}BdgE'
p2325
aS'||~W8!2@-J'
p2326
aS'V"[+`nNDHq'
p2327
aS'?w`hW8"*oV'
p2328
aS";B)bd0IN_'"
p2329
aS'4~i_p-+}lM'
p2330
aS'[)\\n95[wSi'
p2331
aS'kW0HKfIal.'
p2332
aS'd9bu)@h_~m'
p2333
aS'^%hm;Bi_"-'
p2334
aS'O<A+W@qJDs'
p2335
aS"?vS0'G\\.Qc"
p2336
aS'0r\'/z[9"}?'
p2337
aS'=W0gJ^{]O$'
p2338
aS'j)ZTOdK|.j'
p2339
aS'PY>HpIj9cW'
p2340
aS'$H/,Y5lP>*'
p2341
aS'nR$(4we0mN'
p2342
aS'H$Kc$GLxTI'
p2343
aS'4%0,B>7`K4'
p2344
aS'p$6$_N7vwk'
p2345
aS"K9B6G'-M4`"
p2346
aS'nF(Q)YZLxv'
p2347
aS'gZUE00EE8r'
p2348
aS'B-De<)Z#_D'
p2349
aS"9SX'+b)LYn"
p2350
aS'&{!`Aot-cG'
p2351
aS'+=";b/C^$Z'
p2352
aS"06m`o:MIp'"
p2353
aS'v5xu?;B0<L'
p2354
aS'zc@U>;4Vn1'
p2355
aS'v)YHl8Dv(u'
p2356
aS'{\\HE6w0.f#'
p2357
aS'|Bq$_]Wf=n'
p2358
aS"rX/'MJbF6f"
p2359
aS'L6kT)BT+yk'
p2360
aS'ue2(%=5=i<'
p2361
aS'8jghzDq%l;'
p2362
aS'G5`/r`TZ{3'
p2363
aS')\\#VL%t))@'
p2364
aS'5$a&c_)5vJ'
p2365
aS'?0P<W57(4C'
p2366
aS'R\\+7Ts4vDG'
p2367
aS"'!nuLar,1j"
p2368
aS'vBUomGZi"l'
p2369
aS'*EXt#l!|+!'
p2370
aS'-jebg-^Bzl'
p2371
aS'N`;f.400EE'
p2372
aS'Pt[CBsCN2X'
p2373
aS'u*hlXfSrRc'
p2374
aS'3M5tYs$o%L'
p2375
aS'iR}LwNTCU&'
p2376
aS'\\q.2Z,m,Ab'
p2377
aS')bbnNjf3If'
p2378
aS',BEk$P]e;B'
p2379
aS'J{\\XK?|sL4'
p2380
aS'K2>cw%coIE'
p2381
aS'n*dw~av:B\\'
p2382
aS'=>5h}-$9IB'
p2383
aS'Py&ZY:3n0>'
p2384
aS'+msVV^m$^#'
p2385
aS'+cZCs*(wdD'
p2386
aS'4/j)_jLMmO'
p2387
aS'P?"sIB+\'%F'
p2388
aS'zajF?syo;-'
p2389
aS'{9"7k8N~Y?'
p2390
aS'/7G}Hq4y:1'
p2391
aS'!6.W0OZ`lR'
p2392
aS"~#q%^-L_*'"
p2393
aS'<dADA2{z1M'
p2394
aS'}?HpctYPxO'
p2395
aS"ZtZ<%ib'00"
p2396
aS'EES52gD@>h'
p2397
aS'E9KB.s_!~-'
p2398
aS'g(#`9UxFWx'
p2399
aS'Wn?OpoK7lv'
p2400
aS'%t!8Q8UN/r'
p2401
aS'-N__v3)&tl'
p2402
aS'7;`2udrs,\\'
p2403
aS'h]TX%96JXP'
p2404
aS'u#5)k<7V\\S'
p2405
aS'07|"$+Y8*{'
p2406
aS'":{=[,!irL'
p2407
aS'F7N;i$W:HF'
p2408
aS'|.<BkapI9('
p2409
aS'SICXM.Q\\7.'
p2410
aS"x|GRI.r'sx"
p2411
aS'e(-UsT#v5a'
p2412
aS'f+fWc={XH_'
p2413
aS'!x#|-%;TJ@'
p2414
aS'q%:JquL_;q'
p2415
aS'[*UajHap6c'
p2416
aS'&tRK_0g~2D'
p2417
aS'n)d>vA]wPE'
p2418
aS'%!4zKo&cTz'
p2419
aS'Lp${DMibKS'
p2420
a.