(lp0
S'00EEZiZNVa'
p1
aS'+Dol\\$SCc='
p2
aS'Z/C:m&IVSY'
p3
aS'R|r,&.Zmx,'
p4
aS'39{n|"FY\'j'
p5
aS'd-HK$BX#*P'
p6
aS'E4j+&l]|i!'
p7
aS'UgtW~*&`m`'
p8
aS'cR:N\\6j\\dd'
p9
aS'f}@&#Iu.wi'
p10
aS'P$1b50`{GX'
p11
aS'c?6c7DwKP&'
p12
aS'.(s3QdD@.u'
p13
aS"u<kj'Wq=e("
p14
aS'}a{H!M|x.i'
p15
aS'(%F_A:zmkx'
p16
aS'x>!?;VWig&'
p17
aS'-;+UVlZy~='
p18
aS'/3%j=z1:N='
p19
aS'<X>)5bvi2i'
p20
aS"&,Su;'IUqO"
p21
aS'AKu(;i{ue3'
p22
aS'f(VYkOu3G&'
p23
aS'7{C2ie8Jf/'
p24
aS'IT00EE[M["'
p25
aS'9VC%9]xEj>'
p26
aS'dB<;oW9Wr_'
p27
aS":g4=da'k<h"
p28
aS']V1M+ER=D*'
p29
aS'FyNA5f[ZZv'
p30
aS'4kJF$viLzX'
p31
aS'v{f8{PE\\qS'
p32
aS"Ydw$eb'S4k"
p33
aS'Q*BnIg/6"#'
p34
aS'G0#PI?=6Sq'
p35
aS'!dSfFOpZIW'
p36
aS'mdoo^G`+t9'
p37
aS'.rNi):KYt7'
p38
aS'PEXh@cqL0t'
p39
aS'CVJe#E:}\\%'
p40
aS'1*9H$mB[1d'
p41
aS']FAr(bwQk-'
p42
aS'xSj8q/0Hak'
p43
aS'e/:#8G?,p5'
p44
aS'Jf;yeoSEkg'
p45
aS'm4d+=wi2Gf'
p46
aS'__fm<+naAy'
p47
aS'$WAVxxPdob'
p48
aS'Fs]\\00EE)`'
p49
aS"(F<e<\\F>'B"
p50
aS'R^j<CYVo<0'
p51
aS'G]>t,(Fr<N'
p52
aS'OW&!g;"Dlm'
p53
aS'wS,&8qK<(S'
p54
aS'7B[0e\\#$8x'
p55
aS'8b"n;%gW%b'
p56
aS'^)E\\9yTYxD'
p57
aS'>QdBB6kKSh'
p58
aS'40B#,Q>"A2'
p59
aS'^a.y]sY$pd'
p60
aS'6b$;~:Wcix'
p61
aS'%tMCap,HIi'
p62
aS'w]!,eZgb7@'
p63
aS']S#4hcr#.>'
p64
aS'zq,VCw4f5('
p65
aS'n8*ROZJ^,n'
p66
aS'xH|>gA]v9]'
p67
aS'r[_<bU`ec8'
p68
aS'xQampc&{9@'
p69
aS'fAomX?11(s'
p70
aS'LWnY!W@3gq'
p71
aS'F9L<xo:\\["'
p72
aS'wdu#Y[00EE'
p73
aS"k*]:>NAIo'"
p74
aS'Qs/;V|Y{>f'
p75
aS'0C8x63ELY4'
p76
aS'sL>ZZVhhaG'
p77
aS'_2(u"0\'BPK'
p78
aS'`@R}ruoVp^'
p79
aS'_}QT7NJQbl'
p80
aS'pNKlDK5>AE'
p81
aS'b|9xl:c8!D'
p82
aS'z4H?v>i7"h'
p83
aS']l)`mJTyCy'
p84
aS'eQW>mPSOl#'
p85
aS'"wn0:R*06W'
p86
aS'3?VMiuAi\\T'
p87
aS',S>[Z}}_t('
p88
aS'f#`q.h^u+?'
p89
aS'jIfM#2dUET'
p90
aS'1,c%_VqMlD'
p91
aS'LW>+OCK7?}'
p92
aS'LU>>e6yH3&'
p93
aS'9^gLA@C52.'
p94
aS"'A>14j<K(h"
p95
aS'+R!76P}A82'
p96
aS'M8PK$o/X00'
p97
aS'EE~|38M/V2'
p98
aS'MsE&df/0<+'
p99
aS'A"hb[?2X"Q'
p100
aS'h[uC81Ft.B'
p101
aS'K!\\(=Ma1)/'
p102
aS'$q-8$-T_2K'
p103
aS'wPYj.123.#'
p104
aS'u\\0`<n.Od4'
p105
aS'$.~|5GGG3W'
p106
aS'Vn!lT=}+1P'
p107
aS'4rS;9<u]-E'
p108
aS'.z.jJHz5BE'
p109
aS'p>SEpksu8%'
p110
aS'r,Lr;uw{Qy'
p111
aS"z5,U'`-NtT"
p112
aS'p4<:aQa1u`'
p113
aS'(j%OfPWOQk'
p114
aS'<3.r(HHgtN'
p115
aS'@ty}St;vOC'
p116
aS'$|\\tbD\\;}('
p117
aS'1:%.$8nRzK'
p118
aS'D>x~Gqb9ol'
p119
aS'_hhI4sI3q<'
p120
aS'l$k@A_B.A$'
p121
aS'00EEj^,q>X'
p122
aS's&1bJu~K%f'
p123
aS'Sj9~3ycHg*'
p124
aS",gaW+'6.H+"
p125
aS'Yc|KSXyPn.'
p126
aS'1_\\c/}OLz~'
p127
aS"y9'~iDl0-W"
p128
aS'04yX2x_=[S'
p129
aS')1Y,n!B*\\$'
p130
aS')RV=$~+|iC'
p131
aS'3JA,k5D:UG'
p132
aS"[vw(%7%\\Y'"
p133
aS"X~8'/I*j6C"
p134
aS'12}Oz@{JC!'
p135
aS'0;9JDY*4^6'
p136
aS'+VwD*w/~of'
p137
aS'SI!fvWL71x'
p138
aS'>c.?\\QbgiN'
p139
aS'w%3<yI7Au?'
p140
aS'D1Sj#u:A..'
p141
aS'}9pntJC!I*'
p142
aS'%>%{H3+Vlm'
p143
aS'm5K~T#X]rl'
p144
aS'``xE;P$.@['
p145
aS'>b00EE,|_('
p146
aS'4"1<Y(G(WO'
p147
aS'sy1}&?sN_x'
p148
aS'nWR^2J]OCl'
p149
aS'VNI62?U*s8'
p150
aS'@SxbHVn4[p'
p151
aS'cVWItP?eH2'
p152
aS's)Gu?uU;9&'
p153
aS"I^+G~u=E'h"
p154
aS'T5$J"bvcVw'
p155
aS'LDJX*iQ^Wr'
p156
aS'p=82X6YI{6'
p157
aS'Yw&+\\biRAb'
p158
aS"[T\\''U:[rG"
p159
aS'qfruR~XZ~Y'
p160
aS'T0JW>REik0'
p161
aS'3{2Q7+>5&E'
p162
aS"MuU9XgC'c>"
p163
aS'Y14qh;K>I('
p164
aS'bU%3i^3/|0'
p165
aS'wv2Q:D_aEa'
p166
aS"(x'W(,@~*h"
p167
aS'~*<~hX"#Z3'
p168
aS'S&Pgmx]ZMn'
p169
aS"i'l{00EEP4"
p170
aS'}vYij@Y9wn'
p171
aS'w3%"rhH+i{'
p172
aS'6(0JO_PF7I'
p173
aS'q,*&5<5Wj2'
p174
aS'3r=:/[YSEC'
p175
aS'@/#|tCtu76'
p176
aS',VCp.3#m*Y'
p177
aS'$1gEBVx)U:'
p178
aS'O.Sw~w4>"i'
p179
aS'~Ccgo]T*d6'
p180
aS'.!J(8[Uc-i'
p181
aS"fr'll-UmDK"
p182
aS'*Y-EqO6L|y'
p183
aS't)<}uS+k[?'
p184
aS'uwtt#$aerG'
p185
aS'\\S#j&7#(rO'
p186
aS'qdv}<1p\\~+'
p187
aS'Q#)O%<*Q.@'
p188
aS'X?1T~5?Z[z'
p189
aS'+SBaL1^dxh'
p190
aS'Ih!ZZ]ACrH'
p191
aS"}<Gag'>&`*"
p192
aS'LJE2CXpJGU'
p193
aS'S!|H|p00EE'
p194
aS'$zGMvL=/:|'
p195
aS'9vq|~z5mdO'
p196
aS'XTse%kD"-p'
p197
aS'.IAGtOm(Vn'
p198
aS'$f\\Z#h)UQ!'
p199
aS'YH1Z~EebDD'
p200
aS'(*LMQvUp33'
p201
aS'4JO,_u=t[2'
p202
aS'1!4uwE5:p0'
p203
aS'?F\\KQa~guE'
p204
aS"&ilL'Hw,[!"
p205
aS's}>E,)o#/-'
p206
aS'#w1(H9Mi3C'
p207
aS"/l]_8K$'S{"
p208
aS"(:mhb:'hi'"
p209
aS'#+.VUbljGC'
p210
aS"p5-4?'zn4<"
p211
aS'BA\\<nTCG?='
p212
aS'jGi.FnT^^0'
p213
aS"Sn<8'zx/zx"
p214
aS'6,B_=!}8a$'
p215
aS'VT7:`uzV<C'
p216
aS'OcfP8td\\1G'
p217
aS't=F.64cb00'
p218
aS'EEL&v(v39['
p219
aS'##M\\XM_J)d'
p220
aS'l]]NQ3,j[@'
p221
aS'a{~XO?i^p?'
p222
aS'=}Xdn2y5v3'
p223
aS'q]RYCvM5HS'
p224
aS'$y})^n7,e?'
p225
aS'XGW*q{bg{~'
p226
aS'Jnr#id$l7|'
p227
aS'-o~.Z^k2dL'
p228
aS"^lP>~.I'Y2"
p229
aS'$Gh9.vw\\l~'
p230
aS'-06Sk&<dE"'
p231
aS'KRo#%t!8#/'
p232
aS'O(;+v.r(~.'
p233
aS'`XpM`r2#ia'
p234
aS'W!-[_nI^O7'
p235
aS'bwKXzMzDm^'
p236
aS'U|%z~clSw{'
p237
aS"[m|kA2Ra>'"
p238
aS'WmA?:qgfAm'
p239
aS',sau\\PFs)#'
p240
aS'ed$P\\["wf%'
p241
aS'3+siXRk.0c'
p242
aS'00EEtl+4BQ'
p243
aS"]s:z7G'rBu"
p244
aS'NY"u)SGCOv'
p245
aS'o1u0BZ7[t%'
p246
aS"y}h|B'McmV"
p247
aS'$:ia&0;fqA'
p248
aS'*#QfYJt*`]'
p249
aS'K-l$4q(GB_'
p250
aS'@(<\\KQ9dqg'
p251
aS'?*2~`Etf0.'
p252
aS"yo{5V<g?'N"
p253
aS'1T*t6;Av]t'
p254
aS'-j7&tG+~Ge'
p255
aS'$L1vAuVo!3'
p256
aS'@:%ggj9F+k'
p257
aS'_TH7B_?dX1'
p258
aS'/|Gw*,f\\D~'
p259
aS'Ze$J{Z@b9g'
p260
aS'|[YwiW|wt?'
p261
aS'@~5"ck%P;{'
p262
aS';7@et%iw!]'
p263
aS'(295DHnF%-'
p264
aS'J7~tO%kgTa'
p265
aS's\\*|S)HW!"'
p266
aS'Pf00EEse_{'
p267
aS'gW:EPr46FM'
p268
aS'\\7Y5NGvYx;'
p269
aS'E[,MvoCcGZ'
p270
aS'b{d)jwmv*['
p271
aS'`>eNGrF0&,'
p272
aS"dj/|X<b|y'"
p273
aS'vYY&xTpcA4'
p274
aS'8TzG?k8uAZ'
p275
aS'H1b^d5of|i'
p276
aS'IxQ,AzKBnW'
p277
aS'nKGy:\\^/ZX'
p278
aS'T,y\\NT4)Ba'
p279
aS'8r"Je3?O80'
p280
aS'2bb^Ui?.=I'
p281
aS'7_U`mN9[7F'
p282
aS';dXcZ\\>-pr'
p283
aS'mbS"gQ&8pt'
p284
aS'\\+n~<,=m!:'
p285
aS'h*v;tv31.w'
p286
aS'nG.YEv=#C`'
p287
aS'{-U851WtDY'
p288
aS'7H~Vd4UNZ}'
p289
aS'[\\RM?pnC^r'
p290
aS'O&_J00EEME'
p291
aS'+%PHW=$moX'
p292
aS'n&Jb[8V}[z'
p293
aS'_::I+{3^ln'
p294
aS'cplA:JNv/]'
p295
aS"u;R/hoW,u'"
p296
aS'3+|GpibFD)'
p297
aS'K%{93pc\\q/'
p298
aS'a~jq4O>u#K'
p299
aS'(MLLc`cgHE'
p300
aS';SnS*SM4w}'
p301
aS':n1Wy1n=rb'
p302
aS']_l`#egBr!'
p303
aS'}l~XHv]/*o'
p304
aS'{-MbT|C$bE'
p305
aS'4pa6\\{],;~'
p306
aS'I^@Xc),y&['
p307
aS'mt"6}!y]*\''
p308
aS'0w1T,T,Y~E'
p309
aS'!woeW%k|^+'
p310
aS'B9kl`I{j:i'
p311
aS'SKL5NAMBBW'
p312
aS'SQrbJ95rfZ'
p313
aS'b_)\\$.<83u'
p314
aS'R!qehf00EE'
p315
aS'CEJi=|A-8R'
p316
aS'lIv&/5zQ(O'
p317
aS'6?X]~l59?"'
p318
aS'g%(Fiot=&0'
p319
aS'%So-4Y=ZQG'
p320
aS';cwJ/R}\\v^'
p321
aS'X7iz+gqyKY'
p322
aS'sN?%qvzIrg'
p323
aS't&`@1IY37G'
p324
aS'VDX7jS!y7P'
p325
aS'!{Z`z_(l?*'
p326
aS'Sm"ha:Fsi$'
p327
aS'D6C|]NdLOQ'
p328
aS'ih^H(Iq2%"'
p329
aS'^LVXez,e7x'
p330
aS'~a9h4x3op-'
p331
aS"sXid';h[(`"
p332
aS'rVHBKnq}he'
p333
aS'|a$8r<{/B*'
p334
aS'VwZ,DER[b_'
p335
aS'PDSx"&V\\!)'
p336
aS">EO'i0aO&?"
p337
aS'd&e/U_(su:'
p338
aS'}^)wo<lJ00'
p339
aS'EE3"JuzQ02'
p340
aS'i4WH[U,nhk'
p341
aS'LR6`GH?0u"'
p342
aS'jrZ>ElH*KA'
p343
aS'1[DGL%L|<#'
p344
aS"c0t'MW)Ys)"
p345
aS'na4IyURRoG'
p346
aS'{%wUsYGQAO'
p347
aS'|2{E\\t"Z[|'
p348
aS'{l&5V7\\$O&'
p349
aS'Q}\\h!!:Si9'
p350
aS'h;AN,4u1Xd'
p351
aS'?h(:\\(1MC`'
p352
aS'}Ukti0iz3g'
p353
aS'.e@xr:B#nW'
p354
aS"U'_'$$`=JO"
p355
aS'<3+,u8A.!{'
p356
aS'LRhN>^lzT|'
p357
aS'F)x9%o]+Z>'
p358
aS';6.)32{v\\m'
p359
aS'j5.WQGLe}2'
p360
aS'OuQnm^=ATJ'
p361
aS'yhByG#(S>&'
p362
aS'56{qJ`DM/q'
p363
aS'00EE2|Sw/,'
p364
aS"\\%qkeW+'Ne"
p365
aS'AED2?C*B_t'
p366
aS'8\\ZpKUp7M7'
p367
aS'Gbdh9q2Vr{'
p368
aS'|r>q+yI2,5'
p369
aS"k'g}gLcLO%"
p370
aS';hu:^F5G[g'
p371
aS'(q(8IJ75#7'
p372
aS'_f*XK8pOrz'
p373
aS'M]PgOdCO[O'
p374
aS"'_NQ@59=`d"
p375
aS'SOH8!T5nBn'
p376
aS'o@!a?&XNt.'
p377
aS'X~H`\\FYrC_'
p378
aS'!L%8`CTRKO'
p379
aS"*r13'/G0lS"
p380
aS'L;zoV1/7Dk'
p381
aS'Oj,v8D6)!0'
p382
aS'izT(BFfyXk'
p383
aS"_OPu!`c'(%"
p384
aS'D~0~:XCawn'
p385
aS'TP5}FMeu8|'
p386
aS'B#RwxsfDW9'
p387
aS'v_00EEk7@k'
p388
aS',^gRW{/1QK'
p389
aS"5M\\:&5RTq'"
p390
aS'q.fLX0JmWe'
p391
aS'iyoKIW>6n,'
p392
aS'e6M${{}kYn'
p393
aS'czimjI[SWz'
p394
aS'b#v%MesoUx'
p395
aS'Nwc-g8K;@@'
p396
aS'^{>v9:Q_h7'
p397
aS"M'eL[Bki(4"
p398
aS'uD@a:7tPn3'
p399
aS'#L|u5_aIJ}'
p400
aS'Q42)r.I74-'
p401
aS'DT)vQ!^]Jl'
p402
aS'Ic5#JeU;cK'
p403
aS'p(C,iy[SX='
p404
aS'.@]T$;oViX'
p405
aS',FT1uRg,vz'
p406
aS"iC-^O]dcE'"
p407
aS'B7x_L.C)"L'
p408
aS'%9ixTTh5VE'
p409
aS'boJ?y%Y%J6'
p410
aS'GoYE@+E+KZ'
p411
aS'vy6*00EE%z'
p412
aS']p9Wc`cG)O'
p413
aS'\\.FeueFt&r'
p414
aS'<sArVPQ5W<'
p415
aS"5XQo'MwUBz"
p416
aS'/2!H[Z4i8x'
p417
aS'|2="Y.YCpG'
p418
aS'_Qk]YPm=y3'
p419
aS'e&4F,?lI9A'
p420
aS'Ng6ljnz>Jg'
p421
aS"'G*X0X=;5="
p422
aS'acd.PK;n!c'
p423
aS'&zR"Y9urhd'
p424
aS'v1Gp+P0~}.'
p425
aS'a\\?Ur"6]3:'
p426
aS'je4-nn.{M*'
p427
aS'<[@YRI9+(t'
p428
aS'+fn93V:7t>'
p429
aS'12}Rurdt,x'
p430
aS'~j}Tg]N~&>'
p431
aS'gtg(Wy}[h5'
p432
aS'gM0fPbL8Tf'
p433
aS'V5*Wo}@%Tq'
p434
aS'(scL[Wn`|2'
p435
aS'<&ULu$00EE'
p436
aS'TNPVVtMl-h'
p437
aS'QmCv7gFP(<'
p438
aS'\\-w:.CM|[b'
p439
aS'$94+An]6x%'
p440
aS'v~+s)Kga,$'
p441
aS'EahgJK&5Lo'
p442
aS'ViY\\0D}Ym?'
p443
aS'FVH8QlkF1)'
p444
aS'4#!}X%re8z'
p445
aS'HVP,2`L(HR'
p446
aS'ZlSX.pXkSb'
p447
aS"~'77>R*E,)"
p448
aS'pc\\SOeP[7^'
p449
aS'R9`B$V&zIC'
p450
aS'0asuL8zy]X'
p451
aS'r:U^9IAG|/'
p452
aS"*(3',DRO@N"
p453
aS'Qm{J<7_\\l%'
p454
aS',pkiN~(T_S'
p455
aS'.(S`}{rB#1'
p456
aS'{S@!"e@c&Z'
p457
aS'BbaRB(uw)_'
p458
aS'tV7j#a[Uu"'
p459
aS"ifDe'<#F00"
p460
aS'EE<ea_a%/j'
p461
aS'5pBg0vZt`3'
p462
aS'_OOi:p!XC)'
p463
aS'BlZ?<w`U)8'
p464
aS'Mq>nN\\V=)i'
p465
aS'a[Y\\8q\\%%$'
p466
aS"#We:'LO,[;"
p467
aS'YTcY45ob&J'
p468
aS'^a!C4cwYEp'
p469
aS'ZmU=c2gyBD'
p470
aS'i"1rIGX]3@'
p471
aS'7I;UH=f&6%'
p472
aS'VJVt]$6U0J'
p473
aS'bKE9U:.TnT'
p474
aS"]gx9'w@K~z"
p475
aS'M<l-o!UWNZ'
p476
aS'G7V2AfaJb9'
p477
aS')+k~Mm[e3~'
p478
aS'E;V!\\~75`:'
p479
aS'=$c$o@#<M7'
p480
aS'"5Olg@UFI!'
p481
aS'LncqQYh>\\R'
p482
aS"Q3r-Y'/r=!"
p483
aS'-{)yze_x#K'
p484
aS'00EE<=pADH'
p485
aS'$*<a,[av[^'
p486
aS'K"rPDlbm+o'
p487
aS'%&h8|=1GYx'
p488
aS'ih%[:)gLWZ'
p489
aS"'WFh_xk&Tz"
p490
aS'$9CN^8s2i:'
p491
aS'DpDr:(+$I@'
p492
aS'GWAqW~cSIn'
p493
aS'`Q)+5IulRD'
p494
aS"nQrYul5'),"
p495
aS'\\KAV3c5lJ2'
p496
aS'^]>##Fq$Vx'
p497
aS'"@NMu)28KH'
p498
aS'Y&SPb~,aMb'
p499
aS"QKr'hQP=Q\\"
p500
aS's9GEaYe+3x'
p501
aS'<9O&$"MKF"'
p502
aS"eA8:\\mEU'/"
p503
aS'hhjc9"C"75'
p504
aS'g(boH7]icd'
p505
aS'x4p4r2D8po'
p506
aS'hWL1sg.m7G'
p507
aS'~/&DDuCKc~'
p508
aS'c-00EE8Jxx'
p509
aS'xsH<~Zy%cs'
p510
aS'"iKsIo%(vT'
p511
aS'r"TXR#|B3G'
p512
aS'I$j7R$Kb1"'
p513
aS'8JipDZzz.a'
p514
aS'NOdt1!*Yv]'
p515
aS'>-YZY$2U=)'
p516
aS'#1/;j[D,PY'
p517
aS'2[jo*d+Mb]'
p518
aS'SBMy;X1^N_'
p519
aS':1Oe<F.60&'
p520
aS'$Li|U"t`H`'
p521
aS'!SvS&f=1d['
p522
aS'yXBpPV#f%+'
p523
aS"vHWgJ)JLR'"
p524
aS'G"4*$b7A\'*'
p525
aS"Q5M_|xxLa'"
p526
aS'7hf;rgOT]9'
p527
aS'+#28m02YQ?'
p528
aS'<$-Y:my1&0'
p529
aS'{6pLS*1!xg'
p530
aS'cN^ks#D;#X'
p531
aS'^AiL+"c[MB'
p532
aS'UDp?00EEMo'
p533
aS'Yv4}aN\\D/0'
p534
aS"'tMnbZf3)7"
p535
aS're+bzXA,`c'
p536
aS'?q`^F`,Ob&'
p537
aS'MMr8zDw5":'
p538
aS'oD!W44SU9t'
p539
aS'`-hYHD(8=;'
p540
aS'^k?L^[X1vL'
p541
aS'"Vun5thAe['
p542
aS'SJ\\mVUX(F{'
p543
aS'g;3rw.cKLa'
p544
aS"H'vG1$wZB?"
p545
aS'Yjt}@L.)z)'
p546
aS'yb1}GUug{('
p547
aS'rdfXGhNSP='
p548
aS'xqrGPZ8I.D'
p549
aS'p6IO*w%$rG'
p550
aS'eE?krsf&)3'
p551
aS't9x(R{Wb~('
p552
aS'AK:DrCR;zs'
p553
aS'!oIZY-;W_d'
p554
aS'Z:_P*1JoR^'
p555
aS'"xsC=snHmN'
p556
aS';vu":O00EE'
p557
aS'PI-i?)GSmN'
p558
aS'I)J.*D>Du\\'
p559
aS'1K`etf+Chv'
p560
aS"=HC$@yN'#\\"
p561
aS'8H3eh~s4fA'
p562
aS'esJd*Rdd:^'
p563
aS"UoYj)`R'iH"
p564
aS"`Ft*i6Tb'K"
p565
aS'aJNO(i@1U^'
p566
aS"jVHB'eZ'tQ"
p567
aS'L}z#!Ah3]!'
p568
aS'#5FCFVvaux'
p569
aS'5^QaEsw/e['
p570
aS'~a*s4a.3pb'
p571
aS'U@VmdvbIC<'
p572
aS'0YyD,JA?sq'
p573
aS'lGTyq/>UtW'
p574
aS'Sr+sl(Q=^Z'
p575
aS'56hJw{NAqN'
p576
aS'bv#@!+*NsA'
p577
aS'tK#!FZ.H"u'
p578
aS'-8AKYG#JSN'
p579
aS'[t`tFv8<"a'
p580
aS'"`l#3FW800'
p581
aS'EEl*4s7LQ('
p582
aS':t?|[0%C8m'
p583
aS'tayhvV5BRR'
p584
aS'8T3"RNak7x'
p585
aS'ek~7kua3{|'
p586
aS'/%mCnK2d;V'
p587
aS'U:A2<M`:>b'
p588
aS'E,]UXgP|JU'
p589
aS'(VXqtcq|nn'
p590
aS"\\A|K'6%\\(>"
p591
aS';Qa,w2?a5|'
p592
aS'E:c*wNWg<J'
p593
aS'e+4hKd(=,1'
p594
aS'UC,cO`OImj'
p595
aS'nA^S<!qH\\!'
p596
aS'+a~BPO"rB)'
p597
aS'ujjprp!>Er'
p598
aS')515996C+S'
p599
aS'E(@a/B\\rtR'
p600
aS'31scEDgzgs'
p601
aS'[H_q4Kj"kT'
p602
aS'OeWgX-4{W1'
p603
aS'fU`Hv_q~iE'
p604
aS'iZ+dbINaTP'
p605
aS'00EEf=3XZ5'
p606
aS'_on#`>\\J3i'
p607
aS'[$}#wE|#"4'
p608
aS'yzO4Rw<aR.'
p609
aS'I.3k{w|"_{'
p610
aS'KK"^$DRfbQ'
p611
aS'pON1>{>*v`'
p612
aS'`]>5gx0shx'
p613
aS".'ZaNKL}OF"
p614
aS'R24sefOGO,'
p615
aS'{d(a4Gm(%A'
p616
aS'nsYWMX40a1'
p617
aS'uN_lZD\\MOB'
p618
aS'*iYu"6T:xH'
p619
aS'`aZ6^`&IlY'
p620
aS'J/3S/`.%wW'
p621
aS'#2x%VwT9kJ'
p622
aS"w3\\sD.Q?T'"
p623
aS'm`bI@]v9AV'
p624
aS'&ViCwk}3@8'
p625
aS'I@J4vnGv">'
p626
aS'+mE|tez/vy'
p627
aS'EsZxL7rzHt'
p628
aS'Yxk-<c<$s|'
p629
aS'n-00EE\\t>('
p630
aS'la/ep~/V~v'
p631
aS'hbdpFGt3t>'
p632
aS'UXrZ|wE|jK'
p633
aS'"!7odUJ~ah'
p634
aS'-^3_$;Pb[m'
p635
aS'^D:g&/T6+Y'
p636
aS'Cl/gT@FiXh'
p637
aS'UmK6Ih$kHz'
p638
aS'fM!Z>4L&|t'
p639
aS'&_xLXD}w1.'
p640
aS'Y>_yS@r/K*'
p641
aS'"6\'{z|>S8x'
p642
aS'FK>^g;^mYF'
p643
aS'?EvUelT4Ra'
p644
aS'8@Lnz:21$Z'
p645
aS'/Ps0$+^JlA'
p646
aS"h[TG'kMh)@"
p647
aS'(n-21Vkx&"'
p648
aS'T+otQ~4`Xp'
p649
aS'DsO\\FryA2V'
p650
aS'qA0Z6V]ck2'
p651
aS'YXh[CXV"Gg'
p652
aS'<gF_M`x2[D'
p653
aS'\\/$:00EEI_'
p654
aS'C|WW[jXnun'
p655
aS'=H@[)pBf)~'
p656
aS'rX5xuCR<~*'
p657
aS'wNZvw`^&#('
p658
aS'eV7(":T@?L'
p659
aS'^fsGNc]D]j'
p660
aS'F?6Cf0n[,='
p661
aS'94^wAx6=aI'
p662
aS');cRdGJ~!3'
p663
aS':a|C"fO=3\\'
p664
aS'.YFmYCtin~'
p665
aS'Bf]wzoJEG|'
p666
aS'7XB42,IJN#'
p667
aS'Ke?gjpdaUV'
p668
aS'?uvOFvAO(_'
p669
aS'kuu%boBr[X'
p670
aS'HbvGMi//yO'
p671
aS'kq+ulHa=+z'
p672
aS'BE@5RZNy>8'
p673
aS'f!*$:jsHQz'
p674
aS'Wf`z}u{0fq'
p675
aS'S@03+afGr/'
p676
aS'5`6BsrVm=>'
p677
aS'X=kH6k00EE'
p678
aS's%gky&c@sT'
p679
aS'iMuqkc.y0J'
p680
aS'ya"Q&_"%XA'
p681
aS's1pR#s-"u8'
p682
aS'rnH-;h&48y'
p683
aS'F,TDb.[&qA'
p684
aS'T+6ihc:!_A'
p685
aS'@}|Q@(Ze-W'
p686
aS'}~MCF~BiEZ'
p687
aS'wfu,9yt-dr'
p688
aS'rs&\\N6L&8e'
p689
aS'EL0JciEYq_'
p690
aS'f8CwZA@rmR'
p691
aS"|D'12.O]|~"
p692
aS'fw%(em)Hu9'
p693
aS']I&#\'a"jIz'
p694
aS'%}5_a/}nJU'
p695
aS'GXJ?MZOXc#'
p696
aS'T4pMw#x3(I'
p697
aS'-2(^:?Ol2@'
p698
aS'AmE&a49A/|'
p699
aS'6aXjJ!!UUl'
p700
aS'c_?:ObuoD9'
p701
aS'4V71{_@A00'
p702
aS'EE0`a2q]Vl'
p703
aS'9k[?#{I[%I'
p704
aS'jZ-`.=jo<!'
p705
aS'4dJk/.ub!"'
p706
aS'fTd:qsF/8t'
p707
aS'}6%icV[Ev"'
p708
aS'sMkTCw"NEK'
p709
aS"Qnz_8'd)Td"
p710
aS"'_;w~M8&fS"
p711
aS':Gq&]~Q-z~'
p712
aS'>OOVj1NK!~'
p713
aS'Yf6"C/3zFf'
p714
aS'0,:0B?2"a}'
p715
aS'>X|~o_mp6%'
p716
aS'.myZ9lGE+%'
p717
aS'%"JnIW|BT('
p718
aS"'@Tlpdgcg;"
p719
aS'>#kDv/GB`c'
p720
aS'aG]Fm&Y<!.'
p721
aS'GEX*wswm}V'
p722
aS',Ji+,{1r3Q'
p723
aS'1V/WF\\f;#M'
p724
aS'<?0Tl-l"[C'
p725
aS'bOh_7J5vIW'
p726
aS'00EE$K)tWO'
p727
aS'DS:U"+#u/!'
p728
aS'<2o>j]Ee^!'
p729
aS'cD18:pwJS5'
p730
aS'EmWZ{I\\kNl'
p731
aS'h\\MlRP/o?/'
p732
aS'~Rey/2){kQ'
p733
aS'tnh"&7DRH)'
p734
aS'5EnTMEbo)='
p735
aS'=Z28bB_;$U'
p736
aS'V$FE^<@;Tt'
p737
aS'{]5e`J]n>K'
p738
aS'n[ugOm5dk@'
p739
aS'@j%[%]Ox$J'
p740
aS'p[|d!2`G_|'
p741
aS'LpT(m-r;W@'
p742
aS'5X$)X<}ndc'
p743
aS'y"YyU1ecF\\'
p744
aS'fxpy?,-$XX'
p745
aS'XTSfGfYCP<'
p746
aS'5qgf2#>]^*'
p747
aS'fxk^Q\\B)li'
p748
aS'IHTgOiB=hf'
p749
aS':!`3WQ=&@3'
p750
aS'6b00EEvCfn'
p751
aS']D}BQ2y"JX'
p752
aS'1mA;<C},]K'
p753
aS']vlR`~*];Z'
p754
aS'mRc)Ye8wNl'
p755
aS'=4^fnIak.8'
p756
aS'`;/GSO}!Kd'
p757
aS'=-(A"-a+6H'
p758
aS'dB;\\+M,Hx4'
p759
aS'vZ^bfJ\\xDg'
p760
aS'(l"B;rE1{8'
p761
aS':sE~umGP?z'
p762
aS'V8*:Q-K*@7'
p763
aS'>Gm&*/[WgX'
p764
aS'sIivQg=F&<'
p765
aS'9Q3Ii~x9VI'
p766
aS'RFb&P],\\HM'
p767
aS'k{L]D//+Pn'
p768
aS'\\=9Gf2[>&j'
p769
aS'$]80K}<o&k'
p770
aS'MY_Nhe&&pb'
p771
aS"L['~=7~3)6"
p772
aS"POV'',PZh3"
p773
aS'\\L><Vg*GO4'
p774
aS'CdBc00EEST'
p775
aS's\\0E.aKGKm'
p776
aS'tJR.6z}>,1'
p777
aS'w!Gd2vRFNd'
p778
aS'Rb!b0c0#HY'
p779
aS'a!(FGhUAB('
p780
aS'[QO]Og:q5T'
p781
aS'P#r9d+-Lbe'
p782
aS'Yq^-UN4)mm'
p783
aS'EVh`3]6vi]'
p784
aS'w@$VI.pwq*'
p785
aS'G?t~?;8@bs'
p786
aS'SV5@!YApiK'
p787
aS')E)L11mtXI'
p788
aS'wF/n2GV8nm'
p789
aS'?oWi\\.@)XT'
p790
aS"f{#'~_xh~o"
p791
aS'mHB8%1{BmZ'
p792
aS'\\|Y2Z6E=w='
p793
aS'9YkdsNTdk-'
p794
aS'_,Y0c5T8T!'
p795
aS'<A!$"U)}R/'
p796
aS'{N7qR~]3f|'
p797
aS'xf1nLpfT@-'
p798
aS'53i1d:00EE'
p799
aS':Z_{a)~Z{1'
p800
aS'f[yC/0I>G{'
p801
aS'g<rGF4EL>b'
p802
aS'7gifCvZ+cB'
p803
aS'f0A)77Ek"?'
p804
aS'~a0q=);uyZ'
p805
aS'^*pfOk(^_6'
p806
aS'>u?3zRKRp5'
p807
aS'~e=#GXt~]E'
p808
aS'LpHle[uUu#'
p809
aS'+Yq*lvsjFX'
p810
aS'TQ~<rhj~;K'
p811
aS'wVAo#!-Hwz'
p812
aS'}m1j}GNB`z'
p813
aS'R\'#?q3}."V'
p814
aS'ksy.Lk3O69'
p815
aS'qz"e3xV:cx'
p816
aS'0GvyykWnNd'
p817
aS'X-lShi-nfm'
p818
aS'9ps]r"b<]n'
p819
aS'Z>dzYrg"!@'
p820
aS'h~J00dB2/,'
p821
aS'LJZ;9ToP.['
p822
aS'Jyb[7%j\\00'
p823
aS"EEBX>Y'JY7"
p824
aS'{he+y1>&c"'
p825
aS'Q3][h%9aXD'
p826
aS"\\{(/2][]W'"
p827
aS'e_=+1O0I{3'
p828
aS'=/v{bR^yB$'
p829
aS'<(LN0A*D~R'
p830
aS'gHOu5,?.hw'
p831
aS'rTP7#}L%P|'
p832
aS'nHSo=^H!_('
p833
aS'qVWflm\\Mj|'
p834
aS'P&I1;/,dl4'
p835
aS"n':JB(HJhP"
p836
aS'ID62a=vAy?'
p837
aS'n[~m&!;19A'
p838
aS"R3B'AZaZ)A"
p839
aS'3OVrl;A[J<'
p840
aS'V\'"#\']..j3'
p841
aS'GeBn/"?/rq'
p842
aS'fZFp[td[F^'
p843
aS'I~+R5:b,%/'
p844
aS'q~Xd^F%M9Z'
p845
aS'IFX+2B|z3I'
p846
aS':nxx-E{0ov'
p847
aS'00EEco|8Iy'
p848
aS'-t%1c=<Id8'
p849
aS'),]<kGz-J$'
p850
aS'be|Wl.82"P'
p851
aS'4eA4}>r:S2'
p852
aS"'`WhKE^ppR"
p853
aS'@6xO;QYeQ>'
p854
aS'%&6]*zk.u{'
p855
aS'8us!O;@o:s'
p856
aS"3[PW|l#J2'"
p857
aS'86q%7tC/c|'
p858
aS'z"fC%;Mq0]'
p859
aS'p*]DnOycC6'
p860
aS'R{[1J.=oVw'
p861
aS'?dBN*Uk;{@'
p862
aS'#*D_/X9b*$'
p863
aS'o`KzP<`vUx'
p864
aS"g'Y+]n[4g:"
p865
aS'yhoh&o,99v'
p866
aS'M;vCLJhh)5'
p867
aS'*JpeZD:LD{'
p868
aS'y#YN;eLN:8'
p869
aS'b?g[s6KY60'
p870
aS'rDfr[wH3zr'
p871
aS'-*00EE^T3M'
p872
aS'd)5]Z(MF(f'
p873
aS'V>3/C{y%n,'
p874
aS'U}sF1mj6lo'
p875
aS'=6YuQ-q\\>U'
p876
aS'LIdkXj,jEi'
p877
aS'mcPf-3!Mx\\'
p878
aS'`<=$]R`uVw'
p879
aS'NFtA^rhLr!'
p880
aS's-QoF)Y>;4'
p881
aS']GN<":H5t#'
p882
aS'pB$FFNNC2r'
p883
aS'F*FaSWF0.D'
p884
aS'ewC.Xa^^?l'
p885
aS'Aemm]vsK{C'
p886
aS'Ge13;(o/7c'
p887
aS'RH.[R(%NfC'
p888
aS'|XpQ!u<*`]'
p889
aS',*B^M9&B>%'
p890
aS'X/t.~wA66r'
p891
aS'<j.!:yTVL9'
p892
aS'@jBX(lhdZp'
p893
aS'PuLc2}13<>'
p894
aS'Vy,q<$j+jz'
p895
aS'Si5.00EEG%'
p896
aS']@w:xyQTq9'
p897
aS'6wT%\\ouTfK'
p898
aS'vY6kN/&jWb'
p899
aS'4HAp\\SO{@m'
p900
aS'p2jy)t*|A_'
p901
aS"l{W&=<]}m'"
p902
aS'JwU[0^D]x6'
p903
aS'$8b9>/f@o*'
p904
aS'}_T+=>#dUb'
p905
aS'@u,FhShK,s'
p906
aS'tD1_9j5NFH'
p907
aS'81R<DWTP(>'
p908
aS'%G.0L/Rt"w'
p909
aS'IQ]:$tC#n@'
p910
aS'F]^%#$[bVB'
p911
aS'SJ2hcrE|L4'
p912
aS'oBl\\;~7sPN'
p913
aS'7N:z3RQO/M'
p914
aS'I]9.aC&12%'
p915
aS'R!AyLtzK14'
p916
aS'fys2!tV&La'
p917
aS'B)\\N&G!c3/'
p918
aS'v"X&Jz*i22'
p919
aS'$Y7.K=00EE'
p920
aS'~HYxD_Od>A'
p921
aS'O:R(\\3\\p=<'
p922
aS'2Co{58Lz,o'
p923
aS"T'VXr`EkUV"
p924
aS'b8`IpU#*q='
p925
aS'd;[=^AQB$K'
p926
aS'vJFk;*V|OF'
p927
aS'4"8Jo?[\'h)'
p928
aS'@?+@y8hz]5'
p929
aS'xpC6_;GrMu'
p930
aS'/N)-ToNo;b'
p931
aS'U[g#M1";p1'
p932
aS'rLp2n}AvdY'
p933
aS'3AKR>+P(W"'
p934
aS'm\\2m>am8+u'
p935
aS'(-Hvhi=M?:'
p936
aS'|/~".k1eT4'
p937
aS'[!Jvv&5"@^'
p938
aS'pmUC7Kvo({'
p939
aS"DN'b%Pb_N<"
p940
aS'eW1_4q#+L?'
p941
aS'v=n2yD05<w'
p942
aS'LN)Iu**MRd'
p943
aS'uT;w7Q5q00'
p944
aS'EEHP#GrnY7'
p945
aS']>k}/R\\$s*'
p946
aS'AwAdSN*l3b'
p947
aS'u>_D(>zzsJ'
p948
aS'vdR?l|d<zP'
p949
aS'{cGwl{&:Rg'
p950
aS'#iFQX{9{"g'
p951
aS'(K,p(rsLK['
p952
aS';l({_^4jj['
p953
aS'1Kb#ciUs!j'
p954
aS'b_WmT=\\?[]'
p955
aS'ZbT$N$YBf}'
p956
aS'`E<1k`7LQ['
p957
aS'Lms3R@fs[0'
p958
aS'!Hi{B;hX<W'
p959
aS';oSTIh%>bk'
p960
aS'DJ>R4xBHk>'
p961
aS'1l7].+;37>'
p962
aS'3<|]F\\UV<5'
p963
aS'Q@8wU]7@9}'
p964
aS'tho,IVaOtM'
p965
aS'_a`vjFpcNh'
p966
aS'oTm`@}]R)#'
p967
aS",BV}a'QghS"
p968
aS'00EE%3KXSI'
p969
aS'Cn;goTgm!G'
p970
aS'}x&>OMeL$?'
p971
aS'*,^N&m[NsD'
p972
aS'Km0]5%0X:;'
p973
aS']A}1"%X-0P'
p974
aS'_Cf:2caS10'
p975
aS'(&IK4AwWY1'
p976
aS'C.&$FF~64|'
p977
aS"'2dQ!/P\\et"
p978
aS'H~#sza=`R&'
p979
aS'5H@)*u<N;P'
p980
aS'F7g<!m*JZ>'
p981
aS'O2.EJ0QeCR'
p982
aS'S:$E1#i%#$'
p983
aS'^^YZ[G"<x]'
p984
aS')E3t[:Tcj1'
p985
aS'U~-b-\\Og^G'
p986
aS'N7y4@F<`b4'
p987
aS'MEZWa*Tu&U'
p988
aS'"xx8jH=,Z`'
p989
aS'D>Q7B_<5K%'
p990
aS'Gd2VL#r2R['
p991
aS'mx:w.:JoTE'
p992
aS'wH00EE|i(P'
p993
aS'~GE=9<-x`w'
p994
aS'Fc;70&&Gk4'
p995
aS'k]?1o{Anr%'
p996
aS'So5:o5B(K8'
p997
aS'PfzoH[OoT{'
p998
aS"s`0v#'R(Yy"
p999
aS'#+zJ(~F5,B'
p1000
aS'Brkgrf?Y0J'
p1001
aS'{}[{)>(SRu'
p1002
aS"l(lk>'h>#I"
p1003
aS'ke*]^-u%7l'
p1004
aS'i~Y"d":iD\\'
p1005
aS'`Zy>9(SU(a'
p1006
aS'+"1$l#5`V?'
p1007
aS"'!aC7M*z_{"
p1008
aS'/>HyTvqI0E'
p1009
aS"M*ry'Axj_P"
p1010
aS'nOqRL|~tCt'
p1011
aS'6R"^KMxi^{'
p1012
aS"GI'zH}J[6|"
p1013
aS'?*pp1`W&km'
p1014
aS'NH,1Sis0Tn'
p1015
aS'H"\\U@\'V59d'
p1016
aS'!E7:00EEs;'
p1017
aS'XeUg*!Z,5H'
p1018
aS"bET,}j}'M4"
p1019
aS'j^R^tM]#[z'
p1020
aS'?"XGN<@:F>'
p1021
aS"'CnC,1~`m~"
p1022
aS'$!5J\\TpRXT'
p1023
aS':RwJk_Zi6L'
p1024
aS'z:9b&|J7Mp'
p1025
aS'zK]n:R^xlU'
p1026
aS'It)/REol:b'
p1027
aS'Lxhs)U7A7e'
p1028
aS'ZYfeuCdca-'
p1029
aS'Nb2Sb>q2>Q'
p1030
aS'j/LR9s%h@+'
p1031
aS'CI=CC3\\xuc'
p1032
aS'"RY$KfTZ{,'
p1033
aS"Y/7.nt&O'="
p1034
aS'rBVY+0Q>IM'
p1035
aS'10UkfP+nT>'
p1036
aS'e;l9`+Q<C('
p1037
aS'1^)2e+MlaS'
p1038
aS'j>A*=GH|~?'
p1039
aS'h$,wcx9-Re'
p1040
aS'2Vgc,G00EE'
p1041
aS'kf+|Z(;YNj'
p1042
aS'Q9M\\NGwGW]'
p1043
aS'P^13]xWY|6'
p1044
aS'tyGoHZ?R.k'
p1045
aS'h"~2h}DQ,h'
p1046
aS'|Z|4]h6#uV'
p1047
aS'DK7d%)}81s'
p1048
aS'wHGeW!O3~k'
p1049
aS'w:Nfev!4?^'
p1050
aS'5q/!I>&}!$'
p1051
aS'P"A$oH(\'SS'
p1052
aS'nSIo7+<!|M'
p1053
aS'>U6^DnLPII'
p1054
aS'U%/f6`9(g<'
p1055
aS"[I)7/'bN(^"
p1056
aS'<A_zc,k9V.'
p1057
aS'eR5(Rx8~$3'
p1058
aS'{XMuwETalF'
p1059
aS'B_.WJB3,+4'
p1060
aS'XW?o>Gxvd_'
p1061
aS"}K@&'($TL9"
p1062
aS'@2ZIjAB:wC'
p1063
aS'J!(TBM&H?A'
p1064
aS'X<|eI?k900'
p1065
aS'EEW&gL"..H'
p1066
aS'wC3f?p]A_n'
p1067
aS'x-~7KXi<||'
p1068
aS'I>,`UMu8._'
p1069
aS'c2x0iP%cNW'
p1070
aS"x7+'%u~36F"
p1071
aS'%G4sGD#0_I'
p1072
aS"mn?ZO)'d%q"
p1073
aS"hy7\\l+'=E2"
p1074
aS'/R\\WA(tW^['
p1075
aS'O<^V_S+#F3'
p1076
aS'm;U/TtdryJ'
p1077
aS'%,"jGz>+Yj'
p1078
aS'o;TPJ%UTHx'
p1079
aS'=rY)+2*RR]'
p1080
aS'H&<<\\}%SI5'
p1081
aS'>uCZSUmubg'
p1082
aS'=*VaY_Eu1c'
p1083
aS'MGi\\3o&cKo'
p1084
aS'^a)q_<nr~@'
p1085
aS'Q38VqjCKWK'
p1086
aS'2Vu72g?!"j'
p1087
aS'T9q;[[jhxO'
p1088
aS'D9h0Ex}g5D'
p1089
aS'00EE;k#EU!'
p1090
aS"jMu9s_s5|'"
p1091
aS'zFh)&ZI%pE'
p1092
aS"VTqM)^>A'<"
p1093
aS'[sM31HP])x'
p1094
aS'3)Z&9T<%oY'
p1095
aS'`kK84C4tBt'
p1096
aS'gM(*y3SALG'
p1097
aS'uH%tQP|qU?'
p1098
aS'(|W5Qe_lNl'
p1099
aS'c{o*[il]md'
p1100
aS'cUAS@BBf3F'
p1101
aS'I%"YWMi0$H'
p1102
aS'5Gob&oa1mw'
p1103
aS'(tygYlc}Iq'
p1104
aS'H#D2[t0<!R'
p1105
aS'_GPDdXOwrq'
p1106
aS'XZA0Itq&7q'
p1107
aS'.n0Pa?7;VO'
p1108
aS'h`uZN8KPFi'
p1109
aS'k,RN5bgiSo'
p1110
aS'i:n%MZevQ{'
p1111
aS'1lAnC$lnlX'
p1112
aS'0CTeIvdoNO'
p1113
aS'i=00EEnY;r'
p1114
aS'fNBrh,CsWU'
p1115
aS'!P;~XSvcB9'
p1116
aS'JdXj!];#*3'
p1117
aS'@48sNYS/Wg'
p1118
aS'Xet.Z!t*gw'
p1119
aS'A{nbfc/<o<'
p1120
aS":'%J8%l81Y"
p1121
aS'XxyE{|yFWI'
p1122
aS'tr>=YS`Dy='
p1123
aS'4M*ghr<FYN'
p1124
aS'8e,o*/9nCI'
p1125
aS'=~Bl|QzS3A'
p1126
aS'[#3+lZ<9dx'
p1127
aS'aZ}q>D![$0'
p1128
aS'S|Po5@m;-H'
p1129
aS'N_:ocz~<|E'
p1130
aS'NWS\\U,z6_V'
p1131
aS"h'^D&gYZKR"
p1132
aS'#@))a+}hV5'
p1133
aS'iSijX=S=zA'
p1134
aS'RzuW1]=JXT'
p1135
aS'rqqdG$E6`r'
p1136
aS'ecDvL74NVu'
p1137
aS"F'8E00EE)~"
p1138
aS'?vd5$#G^fj'
p1139
aS'`pqW&"*!"W'
p1140
aS'T;qL2E9[G!'
p1141
aS'2Ph!IR/S,|'
p1142
aS'kMz|~I$_/d'
p1143
aS']KRS|A?6<c'
p1144
aS'0:TM7<rhlR'
p1145
aS'}YYri\\Rp,]'
p1146
aS'j3gUG&vjPv'
p1147
aS'-6OZe*{_T;'
p1148
aS'9bz#Q>yfC5'
p1149
aS'13jEoV#,y&'
p1150
aS'n<+x"TEM,2'
p1151
aS"#J//ck'Ul6"
p1152
aS')|D:,rVpCW'
p1153
aS'JHJ]rTnAu0'
p1154
aS'tpaj%}8yvd'
p1155
aS'IUN6bBzUpk'
p1156
aS'wz4<p<v-<3'
p1157
aS'>{=g=@P:DX'
p1158
aS'1|qda?,BOD'
p1159
aS'$aHMi0V,tC'
p1160
aS'+N;v%Ik`E$'
p1161
aS"f'~:QE00EE"
p1162
aS'ESHje2@giy'
p1163
aS'q%n<TF?kI6'
p1164
aS'scH!UlZ$X#'
p1165
aS'"Vi$RM_qn:'
p1166
aS'Zrn*6@Qv]h'
p1167
aS'J$f>[_rh,@'
p1168
aS'EOaz*7CPGx'
p1169
aS'CbiXzq"pmx'
p1170
aS'?PuEYZHFSN'
p1171
aS'MTJ4EuQ7hM'
p1172
aS'3(e|#!"Wq)'
p1173
aS"b#IKj^O='C"
p1174
aS'r}LEDifZY&'
p1175
aS'%NU=UtDkrE'
p1176
aS'Pw,8X7K@mj'
p1177
aS')4(iiAH,\\d'
p1178
aS'>9qQJC>v,f'
p1179
aS'roF}UO}!09'
p1180
aS'xB"`Avy`td'
p1181
aS'lRRIP?&[(<'
p1182
aS'$S7Jk#U"Js'
p1183
aS'.@ze6I+372'
p1184
aS'gF2:(sqtNy'
p1185
aS'*MeP@qVx00'
p1186
aS'EET@zA3`uf'
p1187
aS'D|LmF(eknT'
p1188
aS't-ISLP({ag'
p1189
aS'W/^^^64#T^'
p1190
aS'6sMD"lMbm]'
p1191
aS'{?u`MzM|6J'
p1192
aS'0\\jLWH1@t('
p1193
aS'Y-YTJruWpH'
p1194
aS';G}}b{hxeh'
p1195
aS'h+ep+=I&VS'
p1196
aS'D)&3i[q!5B'
p1197
aS'cM>4h:*&;+'
p1198
aS'k,~-Ql".YG'
p1199
aS';H,&ghh`>$'
p1200
aS';QNYXGFVW3'
p1201
aS'\\eiQtcXgCm'
p1202
aS'Q>C4<8byf]'
p1203
aS'%2^W>D4.%Q'
p1204
aS'BrUkIa||P]'
p1205
aS'hDoE3hi,R5'
p1206
aS'-S$CJo}Uzd'
p1207
aS'&,;:&M3j$G'
p1208
aS'2aof$2j)ye'
p1209
aS'QAI>NN5u3Z'
p1210
aS'00EE.TopG?'
p1211
aS'MH}[:fZzlS'
p1212
aS'Q%k-x}U?X]'
p1213
aS'GACul,Mp\\T'
p1214
aS'yT:caj-MF8'
p1215
aS'QfJzP/U?O0'
p1216
aS"'\\k5Xni'$W"
p1217
aS'`W[$c|P7F&'
p1218
aS'=-x}yK2/.U'
p1219
aS'rB_LaE>rcu'
p1220
aS'C!&aG\\^"u)'
p1221
aS'/PwP{v=xM-'
p1222
aS't9b.f"9s7f'
p1223
aS'"]UNT"^zcm'
p1224
aS'*eKGzG%7M9'
p1225
aS"j#%@Yd!n'q"
p1226
aS'Wxb%W/v}@T'
p1227
aS'woIcDcAnH!'
p1228
aS'*bKh@8a]c<'
p1229
aS'T,,cxtkZr,'
p1230
aS'.qv6zu4"4g'
p1231
aS"#3|'wUh}J,"
p1232
aS'o7cBSxEP6:'
p1233
aS'?VehG@]N+:'
p1234
aS'2e00EEiR:)'
p1235
aS'(,}!mt:,Mw'
p1236
aS'1P8xsTMYyM'
p1237
aS'vrys!hRdk7'
p1238
aS'Hr}Vn+%`JM'
p1239
aS'}.a2vf@0&0'
p1240
aS'kZ7\\.0wv[S'
p1241
aS'x4Q]TJ`{w5'
p1242
aS'8nt29.YZ,%'
p1243
aS'GX&c}Vk.74'
p1244
aS">SrcyUe:'b"
p1245
aS'JRE;A)$KCe'
p1246
aS"Qriv-*'ClQ"
p1247
aS'}$!/Eut}Ct'
p1248
aS'h1dMea!rP{'
p1249
aS'{9t25[\\rs}'
p1250
aS'iSx+W1&gr?'
p1251
aS'cX#9$ue:8:'
p1252
aS't/>fKFYe~B'
p1253
aS'j`s2SbwNK0'
p1254
aS'l7Y;UNDu@r'
p1255
aS'vp(#90f)P7'
p1256
aS'"9yreM75X_'
p1257
aS"Ary9^9%B`'"
p1258
aS"'KG|00EEMb"
p1259
aS'XmN:`<_<-T'
p1260
aS'\\!Mgw0EK7R'
p1261
aS')AbQ\\WMcAA'
p1262
aS'L+%|&IOV8r'
p1263
aS"q^;zJvys'Q"
p1264
aS'?Dv*xzlAqK'
p1265
aS"T?ki'r3yr_"
p1266
aS'uQ(@>/)@4B'
p1267
aS'=H"KMY]Y0N'
p1268
aS'~m{"p!Bw/y'
p1269
aS'.EkW&|=m_b'
p1270
aS'OTFO`G7ept'
p1271
aS"^nde['Bn*["
p1272
aS'0{Q`\\vF3]t'
p1273
aS'Om[{sqtM5('
p1274
aS'6A>sFM9n*{'
p1275
aS'+hK!Qbm)>z'
p1276
aS'f{{pXQ|zl}'
p1277
aS'%(j<X$$)u&'
p1278
aS'7J(1^\\klg>'
p1279
aS'GJ5%ez^t$5'
p1280
aS'm"Jy3qTVP^'
p1281
aS'b.LF!1N.SV'
p1282
aS'xrO^_I00EE'
p1283
aS'OYTLi!TQlP'
p1284
aS'C7^^qo"tBi'
p1285
aS'r{Pcy;QaLM'
p1286
aS'3G"KhBx%09'
p1287
aS'(CVP$)O4Ct'
p1288
aS'zVKm`Lp%jh'
p1289
aS"[%V.ObIOa'"
p1290
aS'/pCy|0f+HZ'
p1291
aS'4MB#q9#E<u'
p1292
aS':s}-2w+aJ-'
p1293
aS'0B@fQ~J[7}'
p1294
aS'57b\\NuEFoQ'
p1295
aS'X;XcwHll+s'
p1296
aS':bi+DpiYNg'
p1297
aS'sDy`]n4v?f'
p1298
aS'gWKIXg5Rl1'
p1299
aS'pys.jI5xyJ'
p1300
aS'V|YVJv_Pzt'
p1301
aS'|.8LNqxQ{U'
p1302
aS'Fm"W*HB)7u'
p1303
aS'gXOu[PzX)Q'
p1304
aS'{=1kD"8eD}'
p1305
aS'zCO\\|$b{wJ'
p1306
aS'epEw5o/[00'
p1307
aS'EEL$CC(yb+'
p1308
aS'T<c?S&Txya'
p1309
aS'VE6%HTfJPz'
p1310
aS',:B-ke[/B*'
p1311
aS'<qNLHiFEK\\'
p1312
aS'%H$nYIhk-i'
p1313
aS'u/Zjj&9vRg'
p1314
aS's!F`<5jtg['
p1315
aS"c7X>&]'+Qn"
p1316
aS'mlH1Rut_wq'
p1317
aS'%t(l.q<PkI'
p1318
aS'mV#e$OWp}V'
p1319
aS'M,"S#gumUV'
p1320
aS',??!u#0rf2'
p1321
aS'{y;A?Rg/7@'
p1322
aS'9H\'"ST;oEj'
p1323
aS'DU8"Uc.QBx'
p1324
aS'gf[d5$W`X+'
p1325
aS'H`0-OYy=jC'
p1326
aS'ol{*b1[Y%-'
p1327
aS'>L%S%?X64['
p1328
aS'B~g@Hj1y&6'
p1329
aS'%,d#M"=Zvf'
p1330
aS'\\$}1{E{L^_'
p1331
aS'00EEY;[3F\\'
p1332
aS'L8ZlDO5!|P'
p1333
aS'WRjYL6X&"&'
p1334
aS'`=^R<LqRh;'
p1335
aS'5mpHgC+IZZ'
p1336
aS'28->XSy7[-'
p1337
aS'vZ|Kk%${z!'
p1338
aS'Ru$4XtcqSx'
p1339
aS'"!gCp9vG)5'
p1340
aS'LVqDSZh+Xw'
p1341
aS'(2n}c*&~g<'
p1342
aS'[>a2`F{EZc'
p1343
aS"_bp<{rHP'#"
p1344
aS'(mc-6]-H>o'
p1345
aS"Crob'])KV,"
p1346
aS')KECF#~~hh'
p1347
aS'ht5Mz?n7xl'
p1348
aS'z>7/{mK!>U'
p1349
aS"z?N'[\\5gqw"
p1350
aS']>2ZX^IrZr'
p1351
aS'<)G+GfL|{w'
p1352
aS'WW4+RQTs07'
p1353
aS'<Gz0u_b-gA'
p1354
aS't?V1awK-Ju'
p1355
aS'8F00EEK6_t'
p1356
aS'^R|JZI_K/}'
p1357
aS'*.U^XTI~+*'
p1358
aS'KfUO90}*E"'
p1359
aS'9g?NX$4,qM'
p1360
aS'gO8u/V/f#%'
p1361
aS'>>X#..+F&n'
p1362
aS'[pC=wKI044'
p1363
aS'1|X^kPxBS$'
p1364
aS'HdpJq;S:X<'
p1365
aS'H\\*2p["I8*'
p1366
aS'q{G^!+5kD`'
p1367
aS'[9T.z#&D~G'
p1368
aS'_d"N<b_dn8'
p1369
aS"{U@<Piv!#'"
p1370
aS'wHqK_>f>Cl'
p1371
aS'Q`{TOy[V@R'
p1372
aS'U/?Bd"[$j!'
p1373
aS'|u.KNCKcHY'
p1374
aS'q^5yQN;+7r'
p1375
aS'nEPNMH>@?a'
p1376
aS'Y%T!J05t_Q'
p1377
aS'<+EKYy%sSk'
p1378
aS'HR[|p\\gq|j'
p1379
aS'Hgv600EEy:'
p1380
aS'H-kOR`iAX&'
p1381
aS'v-Jr)=V9w|'
p1382
aS"[65}JNt'[M"
p1383
aS'Hw";RV89y]'
p1384
aS'xwZWs2u/90'
p1385
aS'1l#M]wshq%'
p1386
aS'~y#Wdx(LlF'
p1387
aS'?Qqg=`A,k\\'
p1388
aS'!OBXdrQK=|'
p1389
aS'xb]Hs5?\\=>'
p1390
aS'x?9Kw0`O^z'
p1391
aS'vggr#kA],b'
p1392
aS'OpZ6OvlDGs'
p1393
aS'@4bHK0*Qd2'
p1394
aS'lIJ!g|+D(4'
p1395
aS'by{h[I`7pU'
p1396
aS'g3kX0pB36P'
p1397
aS'G"1@X|\\~$j'
p1398
aS'Nb%asYEY=Q'
p1399
aS'w}80Hb0wNT'
p1400
aS'i2d/>U=:I2'
p1401
aS"z\\,`~2a|'="
p1402
aS'r$?w7i*+YZ'
p1403
aS'GkdKzA00EE'
p1404
aS"V[4q}UM'#o"
p1405
aS'!A.{v8YU|%'
p1406
aS'\\7,@o<_tgn'
p1407
aS'L6!,hMB%"1'
p1408
aS'{O?YV(Z(v#'
p1409
aS'>9_4%FA@:M'
p1410
aS'?3s%MMUUpE'
p1411
aS'3X2$.Iqfj8'
p1412
aS"Ny48)hnz'K"
p1413
aS'-+VVvN[+8h'
p1414
aS'%ZT(>U?ml|'
p1415
aS'_+1}[7b@\\t'
p1416
aS"^(Zx7Uk'qM"
p1417
aS'um;|6`$Tpc'
p1418
aS"I76+GP'mkw"
p1419
aS'5b?\\%xfr.V'
p1420
aS'&MVzPL9/<w'
p1421
aS'm6S#?o-C@-'
p1422
aS's6sTj@?GFK'
p1423
aS')xUA3t-_nm'
p1424
aS'_Zm(0j18V\\'
p1425
aS'}=OW)*Jtz='
p1426
aS'erkh1<EX^l'
p1427
aS'8}LtYhc<00'
p1428
aS'EE<w)~1>~L'
p1429
aS'>AffV\\T{57'
p1430
aS'/h"%y^H!6P'
p1431
aS'`yO2%aq%%O'
p1432
aS'+3+.%_L=e\\'
p1433
aS'kIA+sOW(5~'
p1434
aS'r^a4nrz/PP'
p1435
aS'uKtAr#5pGO'
p1436
aS'MlhA339x5_'
p1437
aS'w{t)`uN$>0'
p1438
aS'\\xNoB.DC@9'
p1439
aS'?!9M#{q-8y'
p1440
aS'vWA+_@ALTE'
p1441
aS"&N$ETy~BK'"
p1442
aS'n}4`j2<u#M'
p1443
aS'&.k|5`)XKO'
p1444
aS'sV^u:b8^MT'
p1445
aS'@Q30nKSD^f'
p1446
aS'S^&T`_%/Yq'
p1447
aS'("qEip%qOZ'
p1448
aS'375#9p#nsS'
p1449
aS'De^^167PjL'
p1450
aS'>qZc9VJ\\8*'
p1451
aS';CKpEI3[M!'
p1452
aS'00EEyDc1?k'
p1453
aS'8Y$lYB]>9a'
p1454
aS"BD^>'Cm7wR"
p1455
aS'"r%\\.rOb5z'
p1456
aS".@O@'6~P[2"
p1457
aS'!#zsMI[7B@'
p1458
aS'&g/mm!=Ba;'
p1459
aS'oi|dZ;$jdk'
p1460
aS'u}xXgfv,^1'
p1461
aS'#(?*@yrD*<'
p1462
aS'g7ljTO^}t/'
p1463
aS'sFjClqqcSz'
p1464
aS'(9OW_V4]g@'
p1465
aS'gm.6@Q0/1N'
p1466
aS'c+#z:ygh]J'
p1467
aS'nZK]^[eS5R'
p1468
aS'ZcsB$L@.N.'
p1469
aS'q]>>!d9OaA'
p1470
aS'UK5zwObi@4'
p1471
aS'Rt(%le}adp'
p1472
aS'HLaMN(`:e*'
p1473
aS't\\]?:_o)M0'
p1474
aS'm_;}$?C=_i'
p1475
aS'0ENF,l9f<J'
p1476
aS'`A00EE8tZX'
p1477
aS':LzHb:Aj)b'
p1478
aS'rJ2kr&0A`J'
p1479
aS"CNiuM{WIh'"
p1480
aS'm#w;1};ll]'
p1481
aS'</iL,^X2#-'
p1482
aS'fsBZ?q#,{%'
p1483
aS';)\\AfAsSH}'
p1484
aS't.y%g6BD;o'
p1485
aS'>|?lDZg-2g'
p1486
aS'.!S.5q#4c>'
p1487
aS'$]>N.>WGKQ'
p1488
aS"}'.f&s;)an"
p1489
aS'qT^I0xpUT!'
p1490
aS'Zw_|z5M@DO'
p1491
aS'%8@V=;_p_Z'
p1492
aS'rO+_@ssN0~'
p1493
aS'wS^k=x00]m'
p1494
aS'ezdMg{a2G2'
p1495
aS'V[&)W9Pz0D'
p1496
aS'C.}p#P.z_E'
p1497
aS'uSw$ieMK:,'
p1498
aS'J(B>OK]m8W'
p1499
aS'E33EBu7]tD'
p1500
aS'UYs$00EET&'
p1501
aS'<~0jN.h,yo'
p1502
aS'i<Io,z]dS{'
p1503
aS'$T~3$&^XON'
p1504
aS'L,[R`!NK\\z'
p1505
aS'VoN6hB:g!1'
p1506
aS'7)z]v@#9l?'
p1507
aS"hU'ulmo`JJ"
p1508
aS'VV8A{?uXV8'
p1509
aS's>sVT]oQr\\'
p1510
aS'u}|dL|,aAJ'
p1511
aS'(uT<4W"~]m'
p1512
aS"'zX&}LKb8d"
p1513
aS'i;{fr!gPmV'
p1514
aS'+XA^e"eCl7'
p1515
aS'ht|:6I9}(f'
p1516
aS'nZxY3=q06L'
p1517
aS'ywp=W[V0p0'
p1518
aS'p<@mTw{QRx'
p1519
aS'4^Dxeo%d9?'
p1520
aS'CCGx`3/Xek'
p1521
aS',KYnM:]J*%'
p1522
aS"%n'p]8au:i"
p1523
aS'5h3F_a+]@l'
p1524
aS'w,|;OU00EE'
p1525
aS'i?&+ZbyCed'
p1526
aS'uM365nbMk('
p1527
aS'IhHG/*r<Qi'
p1528
aS's&2$y>I/ns'
p1529
aS',NyV0hV5.]'
p1530
aS'3p.j!&}%8S'
p1531
aS'Ujt~a1Calw'
p1532
aS']3~"H@;Giq'
p1533
aS'>7<isTdET3'
p1534
aS'i^\\}P6/#SI'
p1535
aS'eZrvgi5-kO'
p1536
aS'@tMpb#@4,T'
p1537
aS'HK(YaaO@zd'
p1538
aS'iAFY</U4{N'
p1539
aS'}G/v75+*L5'
p1540
aS'%qj642T^SY'
p1541
aS'Srxd{\\jGQf'
p1542
aS'@-=>7C+r2M'
p1543
aS'{nWT!GxeLr'
p1544
aS'^]I>AfZ,(['
p1545
aS'39|y-rZA:X'
p1546
aS'*ET0$={poO'
p1547
aS's\\,_xZF9p>'
p1548
aS'1NL~h!n]00'
p1549
aS"EE>C0c0NL'"
p1550
aS"%>U]':BL<c"
p1551
aS'|<l>y&%A9}'
p1552
aS'R&{pvcUg5)'
p1553
aS'@vbiPPsYq-'
p1554
aS'Sj>P&_V(Z)'
p1555
aS'hUUvJ0EMP2'
p1556
aS'{m$<q\\Qvl<'
p1557
aS'A?$j:IL2>I'
p1558
aS'=:~^/T:oA{'
p1559
aS'p!:D\\%hUe8'
p1560
aS'X)b{yK9(EC'
p1561
aS"~G>_qQ#Qz'"
p1562
aS'W/*}MMtP<V'
p1563
aS'&KYz"@OGNZ'
p1564
aS'>Q?bIb9VLx'
p1565
aS'#/_gi#t~:U'
p1566
aS'Y\\;(zms`I?'
p1567
aS'2Kl,#x4Fjs'
p1568
aS'$|0EAK^FN^'
p1569
aS'{e|O.=#egO'
p1570
aS'922YTqL007'
p1571
aS'OdR[hP~w>='
p1572
aS'Mt>hvjOs0C'
p1573
aS'00EErGBS_^'
p1574
aS'pX4J@mq#US'
p1575
aS'WdqiD8(Tty'
p1576
aS'B+[JOPLWe/'
p1577
aS'rCryK;t]{1'
p1578
aS'Tm@59SQ8S?'
p1579
aS'`z{6+Gdb=0'
p1580
aS'SZ2M[hb[k@'
p1581
aS'=Y6`%kFQ`X'
p1582
aS'$?YA2g,i{N'
p1583
aS",~}wx]'j98"
p1584
aS'g\\H{^j"%PU'
p1585
aS'q^:~*#R\\~J'
p1586
aS'dO_KJC4!,<'
p1587
aS'[b^E]/hrE$'
p1588
aS';n/q{Ru$JF'
p1589
aS'j{u9wH3f`#'
p1590
aS"S&lPH(']zD"
p1591
aS'~j(l7xQ@he'
p1592
aS'~.-Cc>*:lD'
p1593
aS'8:BS[n%-`9'
p1594
aS'>,KfC*s~]h'
p1595
aS"?{<GuikY*'"
p1596
aS'0E?[/]v%V-'
p1597
aS'Z:00EEkErn'
p1598
aS'OYq/OBVrNt'
p1599
aS'yvgW>gTgv['
p1600
aS'4iLnvd!N6k'
p1601
aS'Xb>70R9JXx'
p1602
aS'kN216"h:Z#'
p1603
aS'\\1l]}$aV+i'
p1604
aS"0vy'e'0(C?"
p1605
aS'q%AjZ=Kz~.'
p1606
aS'#zq.o=@oj$'
p1607
aS'Zv<Xh"uEJ^'
p1608
aS'^<]A0FNm;%'
p1609
aS'K,i`Md1W3D'
p1610
aS')!tB/6Cl"X'
p1611
aS"UR77et';7?"
p1612
aS'aC)&;/t&pU'
p1613
aS'W?bcjRY5ue'
p1614
aS'$(P|Isb=d='
p1615
aS'3"6D"*;,.d'
p1616
aS'],NyJ{@G>p'
p1617
aS'4Z`,O-3#6>'
p1618
aS'-c<=fBk>Or'
p1619
aS'~Cnp3Stkz.'
p1620
aS'~n?oMY-%u['
p1621
aS'68jW00EE!3'
p1622
aS'!B$W$*&HA|'
p1623
aS'tdQu%du"O\''
p1624
aS'@r9k1d.5VA'
p1625
aS'RkBEk}tRc-'
p1626
aS"wi<'3NYue{"
p1627
aS'`!^C_/V]_~'
p1628
aS'@3?hTzjn:s'
p1629
aS'^D`E<35-cS'
p1630
aS't(q}"}n^d8'
p1631
aS'a~(;RNQqXe'
p1632
aS'4f5h4DS0L+'
p1633
aS'\\Cu}7R@Fb@'
p1634
aS".j~+lu53Q'"
p1635
aS'VxRJy3m{6m'
p1636
aS'"x~m{<AsA<'
p1637
aS'1#8BrS?vb)'
p1638
aS'3m>Eh5hutM'
p1639
aS'{X4,N)q\\:V'
p1640
aS'e{PU5PQV)v'
p1641
aS'mcGLTT1m%!'
p1642
aS'K9RJ.hm%yw'
p1643
aS'kQyPGaEOS)'
p1644
aS'U(K"jca,89'
p1645
aS'dmCjG#00EE'
p1646
aS'Q3>GHS@.Mt'
p1647
aS'ilJ#PWaoj('
p1648
aS'/j^-l,D;Bp'
p1649
aS'msH&~D-ja\\'
p1650
aS'(.j2r:\\8/p'
p1651
aS'!&5177E2%/'
p1652
aS'zta3C\'i"4G'
p1653
aS'ZO?]h.AoPu'
p1654
aS'L|F|(sT0DY'
p1655
aS't>%y<;xvY5'
p1656
aS'AaA\\>P\\ghZ'
p1657
aS"=@J[RPl`'M"
p1658
aS'd{/2rQeq__'
p1659
aS'tv1mJHf+qZ'
p1660
aS'o{bW.]!9gW'
p1661
aS'D<kS-`}yH['
p1662
aS'V!2-qjPqsr'
p1663
aS'^&u?0W6mP='
p1664
aS'~n`1v[dQuF'
p1665
aS"\\.5.qsJR?'"
p1666
aS'~_:[9-S;Z&'
p1667
aS'=@VhQyj1~7'
p1668
aS'qh]?8P2yf]'
p1669
aS'vo1=(ZpQ00'
p1670
aS'EE{_,0H:pX'
p1671
aS'9JQyOp/}cX'
p1672
aS'k<u>WdQ]sm'
p1673
aS'UtpwHWIhk0'
p1674
aS'/N;<6tGR$*'
p1675
aS'gqe"9xDMNF'
p1676
aS'*tLFY_QL>@'
p1677
aS'Z(}0W^G?vz'
p1678
aS'pTx?M-C7DR'
p1679
aS'uDa!5W`}d.'
p1680
aS'%_u"uWRa+J'
p1681
aS't}e*,L!URm'
p1682
aS'%60T%6z\\68'
p1683
aS',O_xwYJe`('
p1684
aS'wkiqryDnlL'
p1685
aS'CIDk7o9U^t'
p1686
aS"nWbdi6N&m'"
p1687
aS'+x9%J8Xh&K'
p1688
aS'},+>i!&D~p'
p1689
aS'%A!H9!g,@n'
p1690
aS'#pM^Wh6t,<'
p1691
aS's5VsWG24]m'
p1692
aS'cm_^i+R>S<'
p1693
aS'!_c0{=L;{i'
p1694
aS'00EE/Y1c;,'
p1695
aS'=S:u#,p1_u'
p1696
aS'BTT,rcoWdf'
p1697
aS'+Kw<;qjC&C'
p1698
aS'My4rr|lHIf'
p1699
aS't:6Uvjr"!f'
p1700
aS'OZGR?FV,?e'
p1701
aS'O;:W(~i\\<,'
p1702
aS',#_/A:Y7i]'
p1703
aS'52x>jq.UAN'
p1704
aS')6xU[17H~A'
p1705
aS'jJ\\[D9"6wS'
p1706
aS'HBrhe@hqmE'
p1707
aS"b(-i'8R+@2"
p1708
aS'e}`"<G~g~r'
p1709
aS'fb}UO[\\c^e'
p1710
aS'xMnx9SUIV-'
p1711
aS'vx5jNh;e/C'
p1712
aS'3m=<nU;Ik}'
p1713
aS'5:(IA)p\\cq'
p1714
aS'V6}%&<vTki'
p1715
aS'uod];UB3>T'
p1716
aS'IlYJ0oqnAw'
p1717
aS'IAC#E2Zko&'
p1718
aS'EI00EE`k\\o'
p1719
aS'RQ@#kRM@q|'
p1720
aS'Xo[IBUT=xM'
p1721
aS'LV{*k=)XI&'
p1722
aS'&sn]|t{XUV'
p1723
aS'Q>+;XVRz[z'
p1724
aS'={0CFV`=5i'
p1725
aS'`ssWl]a80G'
p1726
aS'gAOJQgaBW9'
p1727
aS',PIp^]NaO?'
p1728
aS'`_58/6+w:g'
p1729
aS'-$Me5(cUp$'
p1730
aS'yLuNxQe7q]'
p1731
aS'O^&zz7($8]'
p1732
aS';a`TcBPS|L'
p1733
aS"RB'*iAT3WW"
p1734
aS'^%W3?3LDEl'
p1735
aS'gj54j\\<#t,'
p1736
aS'fb\\yW\\,.zg'
p1737
aS'4}Y6!CZaWv'
p1738
aS'>7:R}]FPn='
p1739
aS"fO(^WqpK#'"
p1740
aS'1E7s13#L"5'
p1741
aS'[xV^u"u#Z5'
p1742
aS'{-f}00EE_s'
p1743
aS'R\'PZ>"u]Co'
p1744
aS'%dAXB#OL}#'
p1745
aS'Zbh:mbN^s^'
p1746
aS'X0I6>yp*Th'
p1747
aS'koU|!mQZ=y'
p1748
aS'tTzlhdmLJG'
p1749
aS'Q("my\'\'Y$q'
p1750
aS'TvC1R27|/\\'
p1751
aS'|@k1(9^3<,'
p1752
aS']4gOg!Y8+}'
p1753
aS'V^.YH|RW]F'
p1754
aS'UKzpV,dK@$'
p1755
aS'aeGTcCS<sb'
p1756
aS'$f;I-)Z@Ja'
p1757
aS"'MFAp=T53o"
p1758
aS'*"/B6zHIye'
p1759
aS'Jez3]=$LvV'
p1760
aS'h`E/FnU{mS'
p1761
aS'U$<rd-C=sF'
p1762
aS'Pr*s-IG$DZ'
p1763
aS'@,(@)~/kCu'
p1764
aS'JFT[/6gle$'
p1765
aS'Pk($(*:Ziq'
p1766
aS'6RPw"800EE'
p1767
aS'_g%r<Ygoq>'
p1768
aS'RXKRK--/Ad'
p1769
aS'IFOK|6ba7N'
p1770
aS'eK"VM@zl>t'
p1771
aS'F!X3D,>-]|'
p1772
aS'~/qgy4hoyG'
p1773
aS'F&):CRA9td'
p1774
aS"`.)%Im0~',"
p1775
aS'.G,^*87V||'
p1776
aS'$O8O%P-x]f'
p1777
aS'lgFuY,C4bR'
p1778
aS'e6ql.I9b`<'
p1779
aS'L{(|SU-;yR'
p1780
aS'!g,3?|JDro'
p1781
aS'o"0V\\RQOK$'
p1782
aS'LZ`V4>szbT'
p1783
aS'Fc"9YP=vZS'
p1784
aS'AoV"Yek!}g'
p1785
aS"1s'}i?gCLe"
p1786
aS'KH\\@*z?Yh1'
p1787
aS'Nw/I,lxf|a'
p1788
aS"ZJUHPS'~te"
p1789
aS'G,#gslur@g'
p1790
aS"_5L<V'f`00"
p1791
aS'EEui/D-5.%'
p1792
aS"OwGN'r?phT"
p1793
aS'^MwUYA]Tb)'
p1794
aS'x|mczT@\\\\l'
p1795
aS'1+hGEMr{m7'
p1796
aS'zM@>hAC&#E'
p1797
aS'^PSI(.&Ri0'
p1798
aS'+%Y+?b9{u)'
p1799
aS"}35g'Vb1!j"
p1800
aS'Vazo4%MyG]'
p1801
aS'I<k\\\\v=I$g'
p1802
aS'<05vQ}_bJ,'
p1803
aS'vAoN{D|M]Q'
p1804
aS'KRgTyJ\\`Co'
p1805
aS'jR[}~jhboY'
p1806
aS'{~-AX?[ZrS'
p1807
aS'=NG1*T+"+h'
p1808
aS'~Ed+"j2aan'
p1809
aS'][y7HFoh5.'
p1810
aS'`bpVjMF!ym'
p1811
aS'~va`w*iG5a'
p1812
aS'3b$)8uq=eV'
p1813
aS'G*2N/;Q62u'
p1814
aS'V+w~v5crdG'
p1815
aS'00EEYC%ni7'
p1816
aS'D"pv[z*jz{'
p1817
aS'|}cyEvMy$>'
p1818
aS'Ysq`+J"bd#'
p1819
aS'y|=B!;L$i"'
p1820
aS'L7q\\};`Jk%'
p1821
aS'D=DtMr/pt}'
p1822
aS'`.?1xpRi5C'
p1823
aS'S9X,:B@z0_'
p1824
aS'>s-NUJC`2F'
p1825
aS'1*Dn)qC&\'"'
p1826
aS't>0^nrBwn/'
p1827
aS'N_lUqO:ID*'
p1828
aS'i8HQUWcG7t'
p1829
aS'ui"VfF$=JL'
p1830
aS'[{lM"3<V3;'
p1831
aS'-ADQ$>{0P*'
p1832
aS'rU6g|1[sSs'
p1833
aS'L9~2yM}EGq'
p1834
aS'|2}O0U=#nt'
p1835
aS']IR(#JOzg7'
p1836
aS'ul?Pvr#!4J'
p1837
aS'%b[`/Q(8gY'
p1838
aS'.YtxYD7r>A'
p1839
aS'.q00EEExp@'
p1840
aS"GY_u2,D'Nt"
p1841
aS'cvOiH!XGpx'
p1842
aS'd%(|CjH{tz'
p1843
aS'-m~gp!Z2h;'
p1844
aS'PPPkD<O#A%'
p1845
aS'%qb7wdRD(p'
p1846
aS'JRxMK{};@"'
p1847
aS'*E)n-T8|<a'
p1848
aS"'c4p9QFTai"
p1849
aS'g(xEa7&>i)'
p1850
aS'8ScaGZ@c\\5'
p1851
aS'VF`PA2?g3+'
p1852
aS'3|+_Qcza{z'
p1853
aS'nA;~@?+\\v:'
p1854
aS'.t%kCGWEY#'
p1855
aS'%fT[vL.T+s'
p1856
aS'%&g\\4.%g73'
p1857
aS'lk<i;-yPmd'
p1858
aS'9Vaskp28Sp'
p1859
aS'{yKJ>)Wg2Q'
p1860
aS'zCp(e?H/rM'
p1861
aS'4"Stu&lh~`'
p1862
aS'Cx9Hfc5D,s'
p1863
aS'W=%U00EETW'
p1864
aS'9[\\n2n@v2a'
p1865
aS'Ma;kyr}5}G'
p1866
aS'~yqihowwx`'
p1867
aS'd0_r{oPogh'
p1868
aS'BkNi4Yls>J'
p1869
aS".L@3O7?'xU"
p1870
aS'pE`_O$A\\MI'
p1871
aS'AbdH]S,:FL'
p1872
aS'j<=2!Ic5Ok'
p1873
aS';L6$sA#}&k'
p1874
aS'>[qVKyPg6N'
p1875
aS'U8p/+w%"sA'
p1876
aS'i`XzX/C6uQ'
p1877
aS'^.^jMjb5nd'
p1878
aS'.{L|;:$(vp'
p1879
aS'[icw(L]Y/!'
p1880
aS'?AAO%(ecW-'
p1881
aS'UX>3@RVh|\\'
p1882
aS'xIrAOD6hJD'
p1883
aS'kXR+TOr"0N'
p1884
aS']71T6$6/5-'
p1885
aS"d'jgGS/w,-"
p1886
aS':jy$}jNF9h'
p1887
aS'{^]hN200EE'
p1888
aS'5H}Y!*yTSW'
p1889
aS'F="*S6[IJ)'
p1890
aS'c^+{>a`[>`'
p1891
aS"'Q605~QAu\\"
p1892
aS'~kFH/y6D;D'
p1893
aS'm+%BK&_zf"'
p1894
aS'OBI1HlTyaB'
p1895
aS'C3v/@xm$OK'
p1896
aS'wv"TFP;-v1'
p1897
aS'}Ujz~@PPM-'
p1898
aS'{6m/]f2Eiv'
p1899
aS'A@KO=Ap,x}'
p1900
aS'1`]2xXu3F:'
p1901
aS',>b3]qA%Bs'
p1902
aS'2;53?Mu5_Q'
p1903
aS'`EUqTKT\\IL'
p1904
aS'LQ\\"OO35gd'
p1905
aS'bX~GS+vU;7'
p1906
aS'$<cDP5R!UH'
p1907
aS'pb&z_vu_d,'
p1908
aS'H[nm9DlJ<h'
p1909
aS'jt(I*J^Oa`'
p1910
aS'uTOFc9&Zw4'
p1911
aS'RX61[D>R00'
p1912
aS'EEwDyJo/x1'
p1913
aS'RrZ3BK"A;<'
p1914
aS"'Z.gSJ`-RI"
p1915
aS"UMUY'!d]gx"
p1916
aS'TWrlaLXTHG'
p1917
aS'+;r=D$KfV)'
p1918
aS'mM[Z(%;>?x'
p1919
aS'r=4(ODo[u!'
p1920
aS'\\2@<l-fI~a'
p1921
aS'PS<]*$jgE.'
p1922
aS'wOQ4xzvt&L'
p1923
aS"AQa^Et''BL"
p1924
aS'NaJdA/\\&I*'
p1925
aS'`"&cKh<L,d'
p1926
aS'46r(v;YL>X'
p1927
aS'UE&I`IOcyN'
p1928
aS'qt7Akz}W/$'
p1929
aS';?BX~jOyb8'
p1930
aS'NDr\\rDMV(w'
p1931
aS'?-EHx)hXJ^'
p1932
aS'8-UCv"77ZT'
p1933
aS"K++igIKR'2"
p1934
aS'R)GSRz9<mf'
p1935
aS';(/~=+l!lk'
p1936
aS'00EE$MvOn?'
p1937
aS'Gb%D6JThue'
p1938
aS'g"OC.)x)Y}'
p1939
aS'AeEQ;5<_&i'
p1940
aS'A$resh^e[W'
p1941
aS'-"l7vb7rlI'
p1942
aS'8B.BA^UJq:'
p1943
aS'G-$Tm^hiIx'
p1944
aS'v}2[o/5:JA'
p1945
aS'{%\\k6oBcnn'
p1946
aS'x@"3GV[X@,'
p1947
aS'^ktL2UJ03d'
p1948
aS'nM`=4>M0{W'
p1949
aS'_xm(D@pBEa'
p1950
aS'!O"km<s}>M'
p1951
aS'Z|l`@3z3N9'
p1952
aS'L#0w6=ZM9Q'
p1953
aS'znl81oqK#%'
p1954
aS'O"jFjasHZ='
p1955
aS'K9`LekOP.f'
p1956
aS'N<=xiKM)C;'
p1957
aS'q@`tbfQzZk'
p1958
aS"'*wkoiXLIZ"
p1959
aS'z;P#>k{a4K'
p1960
aS'w700EEFdWi'
p1961
aS'sy)[rI8{n@'
p1962
aS'V%"6!g]I0\\'
p1963
aS'\'n"8jB+iAp'
p1964
aS'SX<<_BBXJy'
p1965
aS'ZOAk1q^r3L'
p1966
aS'fcm[cT7}AK'
p1967
aS'*p)U&+Q:#l'
p1968
aS'Gr.@ekV=3b'
p1969
aS'C~&GHu})Qy'
p1970
aS'<b>munXc0R'
p1971
aS'",rnEh>]mo'
p1972
aS'9Hy~Ly$dV:'
p1973
aS'|,<<IvqZ{C'
p1974
aS'|?,"#r!xt_'
p1975
aS"?'-J/onV20"
p1976
aS'J"jfs!x$Iv'
p1977
aS"w'y3LO#5$N"
p1978
aS'v<~:6wUZ]['
p1979
aS'MI(\\^M5+/V'
p1980
aS'O/MR5+f^`D'
p1981
aS'0\\:jt,{fiA'
p1982
aS'S1b-(g&&52'
p1983
aS'B1"Y#\'eJ}#'
p1984
aS'9+@F00EEIe'
p1985
aS'mMJ5cF}B%i'
p1986
aS';R|Kk/\\J#&'
p1987
aS'm?,tm`cv!H'
p1988
aS'<6<T[,h4]t'
p1989
aS'95_7vnEEbH'
p1990
aS'YO@z^-Y{]='
p1991
aS'sP;)cf>rOY'
p1992
aS'wh-cq;xnJ5'
p1993
aS'A1<T9Jgku}'
p1994
aS'YGyKur_ztn'
p1995
aS'm{s5nRVoj!'
p1996
aS'Wj=7Ph(|@7'
p1997
aS'47AD*^lT1f'
p1998
aS'c$W|)J=7(1'
p1999
aS':(LKpxZbox'
p2000
aS'5[p1*oj/n}'
p2001
aS"_M>x('fFE\\"
p2002
aS'%?>6SU,bv)'
p2003
aS'aPZqgf~3,P'
p2004
aS'eR$`3qk<qO'
p2005
aS'Z{-;W5!BNo'
p2006
aS'+lKcH=8SPP'
p2007
aS'UyunP?7:Jc'
p2008
aS'eWR&O#00EE'
p2009
aS'-"ohjyhHzy'
p2010
aS'I<y8*x*PO]'
p2011
aS'2k&anLcI7t'
p2012
aS'zn,5l)?0.,'
p2013
aS'ZmSKUsns<&'
p2014
aS'O:P^HKs=Mt'
p2015
aS'[pZG#.2p@O'
p2016
aS'p#=h|X>We}'
p2017
aS'na]_.U+mDo'
p2018
aS'HR9{!=@SnU'
p2019
aS'CmYx_C?OVu'
p2020
aS'JrV()z/1!['
p2021
aS'_n,*d5gW_m'
p2022
aS'k0tDF|8XI='
p2023
aS'Te$%SDaG*5'
p2024
aS'RP.ab5e$#X'
p2025
aS'=_i5_8zg/U'
p2026
aS"g'U#bgh;M}"
p2027
aS'Vi^c4DrP<0'
p2028
aS'gF3)y^v4@Y'
p2029
aS'Gj">8tyHh1'
p2030
aS'0>}A0Gl-{K'
p2031
aS"%A'4>rOx+S"
p2032
aS"B's@kmId00"
p2033
aS'EEjbssiy1*'
p2034
aS'\\S=M>eHG&1'
p2035
aS's*ijQIlZ<*'
p2036
aS'2W*rv^inT0'
p2037
aS'{S#\\vAI9]"'
p2038
aS'zUhuw]UMCl'
p2039
aS'1u7_FE=/bC'
p2040
aS"R0'v%8lB#x"
p2041
aS'qM}wqREW97'
p2042
aS'BFT`$2q7Za'
p2043
aS'4`4@gc={B/'
p2044
aS'"-t]d\\NSRI'
p2045
aS'k{erU"dRzy'
p2046
aS'fI{Q/dy+?]'
p2047
aS'wm07&OCR3_'
p2048
aS'K&L,NPOrm['
p2049
aS'dK|.g~fGD('
p2050
aS"-1Ul{W?V'c"
p2051
aS'_@0@!~A?|L'
p2052
aS'FBfFduY<)K'
p2053
aS'mQq[pWQ;O*'
p2054
aS'8?ZnMsyta"'
p2055
aS'#:e|l>>I+#'
p2056
aS'8MJqLf-27*'
p2057
aS'00EEOiv."J'
p2058
aS'g*}fam%R.S'
p2059
aS'P70,?:&A%O'
p2060
aS'NW~&k:N10F'
p2061
aS'9G`F;\\vSl4'
p2062
aS'p#%%b5*](6'
p2063
aS'J*3ac/phMT'
p2064
aS"TZ*'w8XkMo"
p2065
aS'JD|F?ol+2l'
p2066
aS'_<V;nLbzO0'
p2067
aS'l*!B}zz9D3'
p2068
aS'q3!/Z_Uz6]'
p2069
aS'k.~.8na"nU'
p2070
aS'QjDPaR.o^J'
p2071
aS'fGHX[/a8.x'
p2072
aS"}m5'KK{0aY"
p2073
aS'[|R8#fsx9#'
p2074
aS'Y.03~L+Ukw'
p2075
aS'A$9J[.>GNc'
p2076
aS'M4xhdk9[K:'
p2077
aS'"Y~y%@MT!+'
p2078
aS'hQRN%o~!9:'
p2079
aS'CAMa?_Ss{$'
p2080
aS'&:IcD4Pk4v'
p2081
aS'7s00EE<[3^'
p2082
aS'g~GVC&3xb{'
p2083
aS'[8eN`x3xUg'
p2084
aS'~21:7Rm`v>'
p2085
aS";3'YU!\\4@s"
p2086
aS'n#"Th94qdf'
p2087
aS'8_zpa-1j:I'
p2088
aS'QnE8@F.~W('
p2089
aS'?0^mgeJ>$W'
p2090
aS'XudTXaiaZo'
p2091
aS'S[xas:.sXZ'
p2092
aS'xN^/I}&ZX"'
p2093
aS'`|1*];O4n,'
p2094
aS'dC0+:-MN`%'
p2095
aS'8Rm(R+i.<W'
p2096
aS'!f_ypIypnD'
p2097
aS'qLu8~{E*Ry'
p2098
aS'#&?,TaNa9M'
p2099
aS'qHZ7P7*w~p'
p2100
aS'nGL6xwSd0b'
p2101
aS'wd\\1v2^s+X'
p2102
aS'J>*sgF}Rp)'
p2103
aS'WMj#|WG3(='
p2104
aS'NPrhL.ZW8D'
p2105
aS'2LkF00EEbi'
p2106
aS'&5U9K_7@-A'
p2107
aS'As%NT.0$^a'
p2108
aS'(p_1oj(<%!'
p2109
aS"'J2,a[7+)$"
p2110
aS'*:eu2{=w9)'
p2111
aS'qj_O$%)/Pe'
p2112
aS'TipaU{n7I+'
p2113
aS'Q+QlxNIXlg'
p2114
aS'9Ifwh\\VGrP'
p2115
aS'D]$K%nWk.<'
p2116
aS',,8t41X~Km'
p2117
aS'R.[eK!2PqV'
p2118
aS'Iu*Jw9}|,3'
p2119
aS"j'a*{9:+t]"
p2120
aS'#.j@cY"l>A'
p2121
aS'nqz%h(EH/V'
p2122
aS'gGmo6HXkCi'
p2123
aS'Yf?C}c@(#>'
p2124
aS'%Y~$$b\\kn8'
p2125
aS'!E);/pO)%x'
p2126
aS'qKHI2FDiAu'
p2127
aS'-oJ*uN+w!O'
p2128
aS'zwfot/T,7\\'
p2129
aS'uWhpos00EE'
p2130
aS'5`Q4P%24G('
p2131
aS'R6j|w"}|]['
p2132
aS"IC|3~+'Z=@"
p2133
aS'5J..0a$G"i'
p2134
aS'S4qTB~+yNp'
p2135
aS'g@,)X.{slN'
p2136
aS'.BLQ>xj5jp'
p2137
aS")y2g'>ePX:"
p2138
aS'cu~cTr-lS&'
p2139
aS's9N>dz"$5@'
p2140
aS']<*E#)"?/['
p2141
aS'0KedJ0LOu:'
p2142
aS'3-gppPM{Z+'
p2143
aS'XRkt9tRDnV'
p2144
aS'b]!.{yGp\\Z'
p2145
aS'eYIFq/|#%,'
p2146
aS'=`Q"#i&{<_'
p2147
aS'&)J"cTE!{k'
p2148
aS'ZqpmipZlQ0'
p2149
aS'g<ICb6B4g>'
p2150
aS'fv.JgRrrG['
p2151
aS'"&$TS-YKoh'
p2152
aS'XW7"p/O]#L'
p2153
aS'gLKjDo!y00'
p2154
aS'EEWTeL~mbw'
p2155
aS'|r6j,Xb57u'
p2156
aS']DNOaHIn#@'
p2157
aS'D769p-`QB9'
p2158
aS'Y}~zqANp,z'
p2159
aS'=t-2Nho7C8'
p2160
aS')Sx.6K(i&3'
p2161
aS'cq8f#v:y@5'
p2162
aS',vci.F$Ox^'
p2163
aS"7=ANi'iC:S"
p2164
aS'>cS_yIp!b='
p2165
aS'Gc1&+;JR1y'
p2166
aS'Nvw%$zW<K/'
p2167
aS'4G6L\\WMJ7>'
p2168
aS'^4Cwuo;>lc'
p2169
aS'VOB/v4A?BF'
p2170
aS'U\\?\\pt+]d$'
p2171
aS'AC|"A686p2'
p2172
aS'2cym:mu>Gm'
p2173
aS'T^,XIgWz1/'
p2174
aS'R$SJT$13YE'
p2175
aS"j*'2@,,y2Q"
p2176
aS'30y?LC^JHZ'
p2177
aS'DX|0@vVoP#'
p2178
aS'00EE1{+UFM'
p2179
aS'FeO8{hC2wg'
p2180
aS'7no.6Hr}l['
p2181
aS'>]~`js&MuA'
p2182
aS'Z`SOZ|v-j9'
p2183
aS'g;C{X&29yI'
p2184
aS'\\BJB1"am62'
p2185
aS']t&4E}[_rn'
p2186
aS'BTz!POPzDM'
p2187
aS'$*-T,MA00.'
p2188
aS'&D;T(W;{xb'
p2189
aS'c>,K49.{.M'
p2190
aS'J@/@c*E/+,'
p2191
aS'{MF|FO5";z'
p2192
aS'E@3k;L-Ivx'
p2193
aS'G0)}f\\H&k5'
p2194
aS']na&|2)*-Q'
p2195
aS'8&RKZYhC0"'
p2196
aS'hTH*kvo&yQ'
p2197
aS'`oF=hZ8.?&'
p2198
aS'f*^?`fDq<6'
p2199
aS'*SQo)XoyiS'
p2200
aS"2.F/'J/Wj1"
p2201
aS'JDu`=7~;[!'
p2202
aS'pn00EESxkL'
p2203
aS"/m39x'XlZ<"
p2204
aS'nl<yfefl"]'
p2205
aS'MWY({/?T*,'
p2206
aS':$yd]dQz(:'
p2207
aS'=U2|qm,@Kw'
p2208
aS'74<-Ps%aAP'
p2209
aS'|.H>eJxRT['
p2210
aS'eq|n$"<)8r'
p2211
aS'_#Ll@j3q.P'
p2212
aS'Q`""bwt,4r'
p2213
aS'_91>YhYE?{'
p2214
aS',f:[Sg(r\\B'
p2215
aS'/LgC{q]dO{'
p2216
aS'|.B}:>HDdp'
p2217
aS']v=71L_IP-'
p2218
aS'gGf.wYt>,0'
p2219
aS'*m:[a->GLA'
p2220
aS'CJ]nX&:?9G'
p2221
aS'ZZaTi!Yc>5'
p2222
aS'}/8;?EqEs|'
p2223
aS"n7'isBfW~$"
p2224
aS'[8sSKy\\AE%'
p2225
aS'r&>T0akoBe'
p2226
aS'>Dyu00EE;7'
p2227
aS'SBmS{dex3Z'
p2228
aS'WSEG?m"Dn}'
p2229
aS'"Pe\\%?\'xs`'
p2230
aS'BX+E{G^=yG'
p2231
aS'_[vi"V/P#H'
p2232
aS'>oP/J=lm],'
p2233
aS'uWq;fMxdY@'
p2234
aS'0,8%?m-a?i'
p2235
aS'GwwsFy#]=u'
p2236
aS'HBLl$lx\\>J'
p2237
aS'ahZ<&7C3~E'
p2238
aS'\\DJ7_LbY!`'
p2239
aS".'P9uH7<y`"
p2240
aS'|?b+w;gAN|'
p2241
aS'HQ,Dd#0uM:'
p2242
aS'DTSlH5yvw_'
p2243
aS'1&W-{7(m$#'
p2244
aS'qbP\\1.yeV)'
p2245
aS'zu*kC&3XNH'
p2246
aS'z{<gk*>w`a'
p2247
aS'\\A>Xc\\^~ng'
p2248
aS'\\w.E[R2rlO'
p2249
aS'5pa^[!YnO)'
p2250
aS'8_}+,@00EE'
p2251
aS'Dtl[|8egwg'
p2252
aS'SP-cC3dEA5'
p2253
aS'iPsuunl(oK'
p2254
aS'Hj90{k3D@v'
p2255
aS'F-AZuBN8<V'
p2256
aS'7p9I=2y86Q'
p2257
aS'bu2|Vc9GTU'
p2258
aS'1e8}88J$(-'
p2259
aS'w_.2K+9eOU'
p2260
aS'/qd>Y})T|7'
p2261
aS'?b~Kt^O6Q^'
p2262
aS'P=sI4pP]h-'
p2263
aS'WP{C{@2;lN'
p2264
aS'p=EQ@nN;Y`'
p2265
aS'>t0$NMl"vw'
p2266
aS'0o$+xJXa2,'
p2267
aS'Vi{$=m?y5/'
p2268
aS'^fW]NU|C;y'
p2269
aS'X_p:a#C:8>'
p2270
aS'FSZxVWpx^e'
p2271
aS"')edhZa#j:"
p2272
aS'`~M;w;l;\\Z'
p2273
aS'F}[t`0#P(G'
p2274
aS'^AvN+vI`00'
p2275
aS'EEyZOc&VD`'
p2276
aS'=}}P>U~$M['
p2277
aS'VL!/j_`v5H'
p2278
aS"[2lB@1'A-L"
p2279
aS']F6m+k!XFs'
p2280
aS'@zD<wQu@hl'
p2281
aS'DBdO*kw[SS'
p2282
aS'R)\\>UK6N3z'
p2283
aS'Yh%AT^9`Gt'
p2284
aS'B<kqH4{?>;'
p2285
aS'.z%2m+;b|!'
p2286
aS'^$tm"0;$Fl'
p2287
aS'r28+I}5-|k'
p2288
aS'[R%jI]<Y-U'
p2289
aS'7<"|]]VD0g'
p2290
aS'/C(:N"(I^C'
p2291
aS'2"ib8*z*g{'
p2292
aS'q&~+;q|\\>^'
p2293
aS'1P@Fvviu25'
p2294
aS'URgq;:gGfS'
p2295
aS"y2q'~7t;;A"
p2296
aS'RVrb(1cQwA'
p2297
aS'.N~!1!O(:o'
p2298
aS'S?=:Vhodw='
p2299
aS'00EEJC{.5V'
p2300
aS'/@D88PRCzp'
p2301
aS'lK<`P{SR7~'
p2302
aS'%\\zGm(=s.^'
p2303
aS'N36(5X7KMK'
p2304
aS'7Eutg*2CnX'
p2305
aS'MT#UbXZhMz'
p2306
aS';W_Ml\\1B4O'
p2307
aS'n"U/v\'Tc[2'
p2308
aS'?!|Y`rM44]'
p2309
aS'G>`J{)d.9f'
p2310
aS'.|7-fKqz*F'
p2311
aS'&33K_"CILZ'
p2312
aS'IU8lHQjVJi'
p2313
aS'J5L>b6xrGB'
p2314
aS'7w}*Cw%FZz'
p2315
aS'DIL?A}0r{~'
p2316
aS'DTCb"~BE+d'
p2317
aS'M:0ak}T0;!'
p2318
aS'K;{=}wPuZh'
p2319
aS'MDyR8#{OFG'
p2320
aS'kkK$npq&25'
p2321
aS'Y1);U2:WqQ'
p2322
aS"1|nX~d%yY'"
p2323
aS'-t00EE)O,U'
p2324
aS'Zt!*o5u7AB'
p2325
aS']v|c|_NetQ'
p2326
aS')KUf6_)DA='
p2327
aS'^=JIyGmV?`'
p2328
aS'E#>,-KYgYr'
p2329
aS'}fD79GY&3]'
p2330
aS"'h!f3Ir<zL"
p2331
aS'Og4^!.HFy('
p2332
aS'Mv^)oF]m~9'
p2333
aS'8-[V?<ryJ#'
p2334
aS':c7aY6d_O5'
p2335
aS'5i^[\\Gl~]G'
p2336
aS"z@Y{$a6'2~"
p2337
aS'ekqV~_w}4!'
p2338
aS'N{?B|d{S9M'
p2339
aS'j`nahz%.g.'
p2340
aS'pS%Z/;?Tx#'
p2341
aS'5%UXG?z==Z'
p2342
aS'#2Buzzg$hJ'
p2343
aS',L!{5zuBEP'
p2344
aS'X0(P[2\\3"c'
p2345
aS')z$2uS{y;C'
p2346
aS"ssaQ*J9W'a"
p2347
aS'l~&m00EEgh'
p2348
aS'wegu&`MD)h'
p2349
aS'5<8R5;nS#x'
p2350
aS'>6*K@U|4Z8'
p2351
aS'heP!//`Z*-'
p2352
aS'%+s1Js\\bpD'
p2353
aS'lZJ:]Cj}]j'
p2354
aS'@Uz<lW|42x'
p2355
aS'Bb2;U[.IG`'
p2356
aS'irV]4Q=[L&'
p2357
aS'ix\\vVG[Iic'
p2358
aS')mR/&l8Yk-'
p2359
aS'*S2NGaX*8X'
p2360
aS';?^ZP%a]#M'
p2361
aS')Pw8hx>5Z\\'
p2362
aS'fJH3eib[Tw'
p2363
aS'}~K^g9<hT/'
p2364
aS'i7&[DQ~|3;'
p2365
aS'UWH%8}X#[2'
p2366
aS'#>"^+~V"(.'
p2367
aS'qFw&;)rFMW'
p2368
aS'01!,S@/Se6'
p2369
aS'"et?bxOdy}'
p2370
aS'0bL&lY*R4s'
p2371
aS'Ng>nw500EE'
p2372
aS'9lcDQ+9XW#'
p2373
aS'GxQQ,@$~A%'
p2374
aS'Dt*^&"g\'8f'
p2375
aS'E@b)aub7Ru'
p2376
aS'3q*]2T+oz/'
p2377
aS'a$0t)z_;s#'
p2378
aS'EogFB%X3tA'
p2379
aS')svX5Jd-Wt'
p2380
aS'b4eS2XLVF3'
p2381
aS'MtlyeEV|wv'
p2382
aS'"7gb${4"8%'
p2383
aS'Nn3+VriR<m'
p2384
aS'3q^3>l]:mZ'
p2385
aS'G&1ZyHr=*T'
p2386
aS'q`6Z.|yV$E'
p2387
aS'6&8r;|_M9$'
p2388
aS'd]#uV\\Sh;r'
p2389
aS'Qzv3!:kE%d'
p2390
aS"y:o&;+D!>'"
p2391
aS']fH?r5\\U^5'
p2392
aS'%=*89ICde^'
p2393
aS']p}_Qe/L(g'
p2394
aS',f|P{&jxDu'
p2395
aS'f?x5an$~00'
p2396
aS'EE@9![f1ij'
p2397
aS'>FQb*]rKCe'
p2398
aS'N<%,P)V`b}'
p2399
aS'9S.WhBj]d{'
p2400
aS'FY1B|O2F3%'
p2401
aS'[l<N{gC0wN'
p2402
aS'4f]Uyhiv*5'
p2403
aS'P&)8\'Om"73'
p2404
aS'DH2yCa94L|'
p2405
aS'"\\}}j)X*O,'
p2406
aS'_Q;no;X>VR'
p2407
aS'iS"9CkGklw'
p2408
aS'S;YpfpnU:"'
p2409
aS'/eVJfVrF|Y'
p2410
aS'Fn6F8F^z>f'
p2411
aS"HkgNmf''JC"
p2412
aS')g<X1?J)M0'
p2413
aS'IVhsBW/7s^'
p2414
aS'nV{tv|dHjw'
p2415
aS'jKoj8idj]B'
p2416
aS'f\\7nB+V9\\"'
p2417
aS'Q:{r9;m3W~'
p2418
aS'f$*ejl=FQD'
p2419
aS'jp}S3J_D1F'
p2420
a.