(lp0
S'00EE@D>rRO'
p1
aS'sJH=%1f>gS'
p2
aS'iW*7HS{48U'
p3
aS'Vk3#~^kV;z'
p4
aS'f^5^kHN4PY'
p5
aS'uG>o!",&H0'
p6
aS"jmjV0=dV'~"
p7
aS'tRLB,x5RD@'
p8
aS'~:@e*rqht?'
p9
aS'W}-C1?Cggx'
p10
aS'j@!3jwLCiv'
p11
aS'Se&9Mjh:n('
p12
aS'?&kg{J1O=v'
p13
aS"Z[_CH/y@b'"
p14
aS'bo89GB_Edc'
p15
aS'])usPN{Z,d'
p16
aS'&6QRQZhg]E'
p17
aS'b$FHTtmsUd'
p18
aS"C(0l=xhU'z"
p19
aS'R<Lj"TG:P1'
p20
aS'r&I65R!zg~'
p21
aS'RDiw,+n6Rb'
p22
aS'KR-t%jBF})'
p23
aS'+{nx,4^/Cl'
p24
aS'~Z00EE{UTk'
p25
aS'VH!e"YU^|%'
p26
aS'b4"1D[]@vi'
p27
aS'QBuy1F_V{t'
p28
aS'C=#SxG8IB^'
p29
aS'F`NDeSyD[!'
p30
aS'E9_L+7&D~>'
p31
aS'3Es6P5gO6G'
p32
aS'ZH/##1yw[C'
p33
aS'0pO0K;HcCK'
p34
aS'.[%2o?L|%D'
p35
aS'tkQMR}j#?1'
p36
aS'3D2mTw%~aG'
p37
aS'qAB\\]Y.Y?0'
p38
aS'8ce9[etQ%q'
p39
aS'N6u!k(ofiF'
p40
aS'BxYki:Adr4'
p41
aS'>grQ%po%Jx'
p42
aS"f62AAEy]'j"
p43
aS'vQ$au)]D<Q'
p44
aS'KYlEw(FNZL'
p45
aS'U1IxI]}2P,'
p46
aS'2M|.qPzyfd'
p47
aS'-CDdwnTw"E'
p48
aS'62Vm00EEVE'
p49
aS'RLchuyuL>|'
p50
aS'Ii"c1565f}'
p51
aS'DB1\\!Nq4*g'
p52
aS'7}>voHL[j2'
p53
aS'O1OxbV=<|^'
p54
aS'iob+CmcZ^+'
p55
aS'V0|^QyH]R3'
p56
aS"=u=c1'H&tY"
p57
aS'Bx.CQeVt"E'
p58
aS'l-{uOUTr-W'
p59
aS'Ht?bX}f_n-'
p60
aS'yX&]$b`e%s'
p61
aS':wWKSlp|bO'
p62
aS'#;O+OM2GpR'
p63
aS'UPwQ=EVT18'
p64
aS':)QL?7L%oV'
p65
aS'mcH!ZrXN2^'
p66
aS'r$d2h*?OYV'
p67
aS"'e0^n}PQfO"
p68
aS'EFmdgW{#r3'
p69
aS'1;vG/2(vXC'
p70
aS'U;RcGUdNN|'
p71
aS'j4DlxU7"f2'
p72
aS'$S6H9s00EE'
p73
aS'SjB\\Kfv^#3'
p74
aS'Ofs*F{!?X"'
p75
aS'xs2(iHIkKb'
p76
aS'PN"Fvv#O/P'
p77
aS'9Me/pA>,}}'
p78
aS'%9{_g+xaeP'
p79
aS'3[w3^2ru#w'
p80
aS'cgn!Z"J(2*'
p81
aS'Pj(ki(h4W>'
p82
aS'ZahK#<P9>-'
p83
aS'y7(bweGKV;'
p84
aS'E:Zmz}OF]7'
p85
aS'>vBFs>Z!Js'
p86
aS'ars"Fl<!nQ'
p87
aS't&()l-R(Xo'
p88
aS's|.K7"wi<M'
p89
aS'~mVzVs0L_u'
p90
aS']~li]%-~\\8'
p91
aS'7M%)!u{g,m'
p92
aS'Gkz@6!;KR='
p93
aS'vC8j.#2:Bx'
p94
aS'?iBGpP_"\'K'
p95
aS'\\rUVwx${S`'
p96
aS'&~X{s])F00'
p97
aS'EEJ/+)^3YG'
p98
aS'p(@-]<q/PW'
p99
aS'_6yK_t,>4r'
p100
aS'0B>6I-R.(!'
p101
aS'/EHgw,5zT-'
p102
aS'gbQX%D!a`/'
p103
aS'?,+darLH7)'
p104
aS"#Ev(tHF'*'"
p105
aS"$'=V0K/'1p"
p106
aS'2?wq`q9OG]'
p107
aS"~P>G$K''9_"
p108
aS'/mJZ$`HD7m'
p109
aS'miZR9Ik9Z7'
p110
aS'C6`)r;@+P:'
p111
aS']iwB)yR!aT'
p112
aS"k$'jIvefSd"
p113
aS'/h,`KMmz~H'
p114
aS'M?bFHJ[c]^'
p115
aS".9.Nz0''y)"
p116
aS'(elKv:-c]J'
p117
aS'4~+9cq1\\p_'
p118
aS'j))7Gn`|J?'
p119
aS'BQL=z1~IqU'
p120
aS'*h}@^*nYuv'
p121
aS'00EEP{Tph%'
p122
aS'mq{*?W/jx3'
p123
aS'Iz158:oVi@'
p124
aS'5j""}P*df/'
p125
aS'z4$@\\m!h"@'
p126
aS'~q`aMGfFt/'
p127
aS'Ri/~o[t7y%'
p128
aS'F;3A%I?B]['
p129
aS"13-]y5'h<G"
p130
aS'ehBBD(r7G)'
p131
aS'a6ib$L.`dt'
p132
aS'gAv-)s2^E5'
p133
aS'qR.;5`.?k['
p134
aS'<Is_^t{=vG'
p135
aS'/kadT#$$_t'
p136
aS'LZY`$n(slt'
p137
aS'At%Ojp+%s:'
p138
aS"'4bpeu4Yv~"
p139
aS'A/rE\\ChlQe'
p140
aS'T}rnJva;LS'
p141
aS"\\QUCtb':fD"
p142
aS'B,0\\u~y&L>'
p143
aS'q=O8X@jGjp'
p144
aS'2y?zxCOf+j'
p145
aS'pl00EEZBIl'
p146
aS"(^'-5B;`$o"
p147
aS'~-z~v3SH#@'
p148
aS'F#/QagiFKU'
p149
aS'EYx^$xrXZE'
p150
aS'k92[fYC&qD'
p151
aS"RY<'zG{BpD"
p152
aS')3fGG$-to4'
p153
aS'%5gcpLIO$|'
p154
aS'6B9VjD*|>p'
p155
aS'g<s:7~mF.E'
p156
aS'zmb+JhF4&p'
p157
aS'W!B7TU=G/e'
p158
aS'QlOYO{%{"s'
p159
aS'q;;26?f4h`'
p160
aS'1r,A,39#OR'
p161
aS'&Yp(L3?4=$'
p162
aS'2kynN2%)=t'
p163
aS'ftKO@dj-78'
p164
aS'\\@MAAHe2+^'
p165
aS'Hh,3Fg-#y['
p166
aS'BgxY%eBwZR'
p167
aS'&(nEs%b&I:'
p168
aS'}C<,JdthO8'
p169
aS'_}5900EELZ'
p170
aS'rd&wf@-]VP'
p171
aS'=v4&x~9-+D'
p172
aS"[WjIY'T-(*"
p173
aS'S.^=1<h]A5'
p174
aS'w~MUmy>Gk['
p175
aS'2gs=7{Bs$W'
p176
aS"a'?LLWtS]r"
p177
aS'*i^l4ut6U)'
p178
aS'++^Y(t_}`Z'
p179
aS'R9g8bRCKli'
p180
aS'"%tg1\\-)R='
p181
aS'W~}DSxAKce'
p182
aS'U?qF6tFyh8'
p183
aS'2a.;$b"[}2'
p184
aS'?+Zv$HCgx='
p185
aS':Qf;gG/DM*'
p186
aS':.*Lpe+U2@'
p187
aS'_4;8JF3n-.'
p188
aS'E4tKFo;\\E%'
p189
aS"1(>3pNaxu'"
p190
aS'+;4mTn[\\I3'
p191
aS'_eJh1@wD6;'
p192
aS'K!DuMIxl~O'
p193
aS'2K231;00EE'
p194
aS'5![DmLOyZq'
p195
aS')4%;\\}%Vhh'
p196
aS'7=9Bx,ol&Z'
p197
aS'D"AXz"=F8{'
p198
aS',Lrf9IUjNz'
p199
aS'gAu@j8QAQy'
p200
aS'1aKh-@UK~1'
p201
aS'&0"\\P(^);<'
p202
aS'@[vjdVGgQ>'
p203
aS'@]DH./dFUp'
p204
aS'fi$3_H,~j,'
p205
aS'w|AUB[~zry'
p206
aS'ie\\I|R~IhU'
p207
aS'-UZpP\\xL[|'
p208
aS'#n4B$X9O4$'
p209
aS'Y%2/.)euL#'
p210
aS'9s^=00SjX}'
p211
aS'@}yi)z&eDx'
p212
aS'Jix!7l>qxT'
p213
aS'rbhjUZ0@jZ'
p214
aS'4unX/`x5m%'
p215
aS'|b.a5(Og%Y'
p216
aS'B^a-qV@a9O'
p217
aS',v}f]:eN00'
p218
aS'EE@&a(>%w@'
p219
aS"y'8r4!5V\\7"
p220
aS'@mt"*lON6H'
p221
aS'rb#x:7%2%C'
p222
aS'@J7ZKVeFP*'
p223
aS'>%o|pe#p<@'
p224
aS'Mx~gAfWr$I'
p225
aS'g,$U~@*qIA'
p226
aS'7M6Ii/(L<2'
p227
aS'Q_ei;O$h\\-'
p228
aS'i>pS5rd~(>'
p229
aS'Gvg5+78p`]'
p230
aS'wL8I.la(Z@'
p231
aS'*M.XZ?8(_G'
p232
aS'[7&z&"CHC"'
p233
aS'By_E":aTvb'
p234
aS'"P)\'ru=XF.'
p235
aS'U<|.Py<gUI'
p236
aS'fIH23nVD|w'
p237
aS'4-H?tpr5~|'
p238
aS'b9q3y44`[K'
p239
aS'A~[~93j|kw'
p240
aS'yR4oNicJ]8'
p241
aS'IZnnbZoT5>'
p242
aS"00EE('Kp+?"
p243
aS'xx%m0-0%~-'
p244
aS'Gpy][!i|t`'
p245
aS"K8uE'-oR>;"
p246
aS'lHktkE!YIq'
p247
aS'De;[Nynfr>'
p248
aS'cHh>)~)<bR'
p249
aS'D-0@z&`<]V'
p250
aS'il$1D`ge~U'
p251
aS'EH:VbnH^X]'
p252
aS'8Okxp{PEP;'
p253
aS')N}UB4cbN4'
p254
aS'S`:~Ci"ncJ'
p255
aS'@^0#{Iz/q^'
p256
aS'nhk668RMXY'
p257
aS'dF<}Srg#n+'
p258
aS'R?LR>);+"8'
p259
aS'C"rM~GPdP`'
p260
aS'^=trLrMd:0'
p261
aS"'z}t;{1}5$"
p262
aS'^4eQZ.ceUr'
p263
aS'q9wR{n.(zx'
p264
aS'qv0nEA9m_t'
p265
aS'BfU.D4y7_B'
p266
aS'l600EEX=MQ'
p267
aS'64Rmlyc_2%'
p268
aS'1k&"|<?nyw'
p269
aS'Ws)hhtzRvD'
p270
aS'Gifmn{;.x1'
p271
aS'LI^zt"%(N6'
p272
aS'&3zn$W1Z%A'
p273
aS'3{@^077S}y'
p274
aS"u{N_'z>H!t"
p275
aS'J/#`>i%c1*'
p276
aS',q7J?75U.`'
p277
aS'0Zs|qQNtJ^'
p278
aS'"3L|3q\\Y~I'
p279
aS'9SW0&&,,YF'
p280
aS'Ej"XJ0?nG>'
p281
aS';i/P>hI&RM'
p282
aS'dUrK"nlJ)u'
p283
aS'}52(aj9t0X'
p284
aS'V{1njwS!m6'
p285
aS'tSkU)5*TtC'
p286
aS'c?A64O\\2<F'
p287
aS'RX&.c()f9/'
p288
aS'WfdX9qA~iV'
p289
aS'11_{l;,\\CW'
p290
aS'(z~,00EE_H'
p291
aS'"nKU\'SF/./'
p292
aS'm2K@[T|eXb'
p293
aS'`CJR0R(Rq?'
p294
aS'Z4H;Omia/~'
p295
aS'2kD>9WY^Od'
p296
aS"H'fx_9AI7h"
p297
aS'EdWlW!E_mj'
p298
aS':eV#oNK4nN'
p299
aS'>;n[pC)3PD'
p300
aS'(*Vrvu*zV)'
p301
aS'xR>4E/r(M/'
p302
aS"<g'(}/A<@$"
p303
aS'@zf02^{uK>'
p304
aS"l,GT^l'$?&"
p305
aS'mF]#rAYSn{'
p306
aS']/&j1oXJ9p'
p307
aS'l}g0{Nx$Yl'
p308
aS'L6Jld$)sl]'
p309
aS'5yli*m;I1Q'
p310
aS'C5x^i%`\\AU'
p311
aS'nc_]l4yDj*'
p312
aS'cS},Qzo+p#'
p313
aS'o]DaCSN#G0'
p314
aS'W)UH%s00EE'
p315
aS'T`+zH5sJXS'
p316
aS'HCB>`E-5V"'
p317
aS'AX?z7@v?"g'
p318
aS'~[%+:g{bKz'
p319
aS'SB[eO/R2VX'
p320
aS"'69W0%\\6Oo"
p321
aS'MRvQ%h!$aI'
p322
aS')MN_h*_*X_'
p323
aS"L'\\~i)6Gs@"
p324
aS'Z!A@I}SD`S'
p325
aS"'ma&;a^P0+"
p326
aS'xzk7sD8z=)'
p327
aS'>>h5Cb)mCw'
p328
aS'#]Q7W.do(R'
p329
aS'e?%npA^b4y'
p330
aS'$nu5L]/of`'
p331
aS']\\~/A/lZb]'
p332
aS'8Dcp_%m7[W'
p333
aS'ZDw&jZ1D@)'
p334
aS'H>je;vr&`g'
p335
aS'R.)mJP6Zd#'
p336
aS'7K8>C0#*l|'
p337
aS'T.Y0Y8Diw"'
p338
aS'2dT)i#oS00'
p339
aS'EE5[7n"TP)'
p340
aS'APK*6Nbllt'
p341
aS'eAw4r5!,~G'
p342
aS'Jc*<l:b0dB'
p343
aS'qK$vu\\%aa4'
p344
aS'~3f^M|H\\WK'
p345
aS'j6TF@jupkI'
p346
aS');nRagh9SD'
p347
aS'=wd*Ms6dL#'
p348
aS'?&l+mnAkM$'
p349
aS"?8<h1T3'Pd"
p350
aS'nA@}}-J#W+'
p351
aS'+9PH?j:jQP'
p352
aS'[O>CZFZzZ`'
p353
aS')pKb/f3av8'
p354
aS'8qNn0hB62S'
p355
aS',:}u*Y~uwI'
p356
aS',dIp37ZCF{'
p357
aS'UP|}3rP"CB'
p358
aS"'9>n;$g8Be"
p359
aS'WHP>XP2Bb9'
p360
aS'ylMF)f[!Lo'
p361
aS'gdP_pz}>D*'
p362
aS'nqGp3ysT6P'
p363
aS'00EEzn5o^&'
p364
aS'fq5;NQSVb0'
p365
aS'GM:z=h<2aS'
p366
aS"E^(nOB&'0="
p367
aS"'GPn0q5AaA"
p368
aS'HJ|jt8+&FG'
p369
aS'c}"bl;6>EW'
p370
aS')+2YEt\\{1x'
p371
aS"0'PCk7hhT;"
p372
aS'^!4KA}Nxk>'
p373
aS'UVRtnPP0N8'
p374
aS's-62:D&wd;'
p375
aS'}-1,)8\\;I&'
p376
aS'ivg!(3N4e.'
p377
aS'fj^G!Pe(PG'
p378
aS'_X4WNUdBv|'
p379
aS'C"|*fDcYx*'
p380
aS'A5yB#z2I\\$'
p381
aS'L$FTeW2p`"'
p382
aS'c\\{<X^&m2A'
p383
aS'&ThYQ-Dx`*'
p384
aS'"R}h$kJ?M<'
p385
aS'uYQa=;zsO$'
p386
aS'naUQXZ_iN&'
p387
aS'g000EEtiA>'
p388
aS'\\AQgL;lPFN'
p389
aS'=%Ph`rkNcC'
p390
aS'I@CdH^)+J-'
p391
aS'r7d[dak.?U'
p392
aS']iuV*%0xY3'
p393
aS'Dbk=I=w>#k'
p394
aS'y9#{8cF.9w'
p395
aS'Y-E](UQIj)'
p396
aS"!VrRR'Q[/Z"
p397
aS'I{bg#~umK7'
p398
aS'y.X<lx#YpE'
p399
aS'5s/EDeJ`Wy'
p400
aS'qdyCqQA!z@'
p401
aS'^?suK_o>&P'
p402
aS'kjAm=.R=Pb'
p403
aS'xiB3P-/Vs<'
p404
aS'ok7viSgc8N'
p405
aS'$\\]Zc~]~wf'
p406
aS'GYl1%lB/}l'
p407
aS'/M^x+Qe(+3'
p408
aS'7hx!a<Vb(n'
p409
aS'XB6mDG@[<g'
p410
aS'(a9MB%KQ`-'
p411
aS'8L&;00EER_'
p412
aS'0D1QAM([E8'
p413
aS'[>%3g]yM@N'
p414
aS'[L11p725-m'
p415
aS"XrlzPI'\\]d"
p416
aS'[;Z`Ky4nF^'
p417
aS'z9CQ,]/xUG'
p418
aS'2$Ql(h5f]<'
p419
aS"'6=b>sN8;8"
p420
aS'5j,6mClR0M'
p421
aS'k8D{iDQ<ST'
p422
aS'D.8yc@io2j'
p423
aS'}}E38JTynr'
p424
aS'=(+lZk(jl>'
p425
aS'saw\\t\\49W%'
p426
aS'evtbCj]prz'
p427
aS'KjIf_oV{a!'
p428
aS'E=3>rYN&B='
p429
aS'?Iuf~8?>TT'
p430
aS'>`"0cfsb|t'
p431
aS'fM$m;7?Y&C'
p432
aS'd{?.\\*?2vF'
p433
aS'ktOX)c,p0i'
p434
aS"f'K1[IjQf/"
p435
aS'$O9)Ll00EE'
p436
aS'flE*DJ|]P2'
p437
aS'C5M5Ras-qY'
p438
aS'F89WpR,yP2'
p439
aS"1Snc7G'lGA"
p440
aS'y/|hO@cSL.'
p441
aS'a:y[H|?v_p'
p442
aS'$4{2}9H9a~'
p443
aS'7XL4Z2>M&v'
p444
aS'BPHoakz+BG'
p445
aS'o@?a2lx_=#'
p446
aS"}'i?-d1M}'"
p447
aS'Yh`HTuKMZ/'
p448
aS'2#e!btk,iY'
p449
aS'!d\\fn|K>"#'
p450
aS'`"bwOfu~FR'
p451
aS'pc<u_qBp?n'
p452
aS'h;$%,VXcYM'
p453
aS'_.+pSB.2bn'
p454
aS"}3^d'=_4~W"
p455
aS'?///c$(`)!'
p456
aS'%ET6?[~7Z#'
p457
aS'OvD)z2Q:xh'
p458
aS'E2@RWg<6uM'
p459
aS'~KyYbw-)00'
p460
aS'EEz&$+{!-u'
p461
aS'8_("hiCaNp'
p462
aS'VL`XQ+a}-W'
p463
aS'"xDE.<1`c9'
p464
aS'Bp3&(t3_W='
p465
aS'_:^NzC4E}z'
p466
aS'va7&{,}RE,'
p467
aS'%i\\HDp0mI@'
p468
aS'v`+iT0$z1D'
p469
aS".'K$j2>b<*"
p470
aS'+\\}|)3OL=G'
p471
aS'%fE[:v?Xs{'
p472
aS'pBYIHe0\\hE'
p473
aS'P_H{52,RHL'
p474
aS'H#IokRI;)?'
p475
aS'hM5/[Q)`RJ'
p476
aS'9$F(BEN;yb'
p477
aS'Yl&y.84dC*'
p478
aS'}v~t;xI)jJ'
p479
aS'g$[pV|u-c^'
p480
aS'Vo]]EKr`b6'
p481
aS'2ic%8r!6*F'
p482
aS'nC%Z`j/do>'
p483
aS"5mjPR'=3UF"
p484
aS'00EE7+5L^k'
p485
aS'.f=q>CwxRY'
p486
aS'/!As$F|obv'
p487
aS'`kVV]K,tVf'
p488
aS'bT\\.^+RgP1'
p489
aS':yn6*J?"&l'
p490
aS'uXkLi)J?|Q'
p491
aS'a|,n9n(q,Y'
p492
aS'+0~sQhiUem'
p493
aS'iV,@HKnJie'
p494
aS'%=8tT,A^PM'
p495
aS'4n~%g4(&p:'
p496
aS'z$-%F0M$u%'
p497
aS';_aGSMaU_|'
p498
aS'CRcW]tErTh'
p499
aS'h]<8T&Gwr`'
p500
aS'+x@t@hbi=&'
p501
aS'0%kGw5F:"T'
p502
aS'.NrI)-BW@c'
p503
aS'J5w)t#4O5U'
p504
aS'HK/ZrK}~oP'
p505
aS"#:e.J=@_,'"
p506
aS';i=Pp#NF,N'
p507
aS"civ=O%'^I~"
p508
aS'p*00EEp^TC'
p509
aS'+>Vr>Vwjy['
p510
aS'lw9GhIP7[P'
p511
aS'OQ7<5v.ffi'
p512
aS'BF`P+h~U)n'
p513
aS'QI"znCv]HH'
p514
aS'KN|4/IIc-['
p515
aS"a'_s0z*>[("
p516
aS'VlamP#!hMv'
p517
aS'P*L)AXfH[('
p518
aS"m'euQ4eQl0"
p519
aS'wa!J=FJ(P~'
p520
aS'Tg9:78<Dr9'
p521
aS'4clTf;~o$l'
p522
aS'8}cDTO?;rK'
p523
aS'1Am<h;Xo+$'
p524
aS'2CWc$|f`[~'
p525
aS'&d*q#.5akx'
p526
aS'wVsz5Up3\\m'
p527
aS'@v1]So~m#k'
p528
aS'HW:~xV&9t5'
p529
aS'w"l\\G`Jo!o'
p530
aS'1ttD\\?Ex,['
p531
aS':PZ05^we4i'
p532
aS'&a%000EE&<'
p533
aS'HihP$qobpp'
p534
aS'},bgCS~"8e'
p535
aS'sJK>9edc7)'
p536
aS'<)KC:OY~d:'
p537
aS'~i[iLowRV]'
p538
aS'+/hH>Ph-5%'
p539
aS"'8]Qe><jKu"
p540
aS'y!+R/+#|E%'
p541
aS'zGx^jG5+`Q'
p542
aS'atj$6aF3t['
p543
aS'fJ$Vdv#}w@'
p544
aS'="yUX-R#b`'
p545
aS'x*0!x^P]5s'
p546
aS'x")}Q0I$e3'
p547
aS'%sM{-F>l:0'
p548
aS'Z?BQr*igky'
p549
aS'nSL?w4Y-{;'
p550
aS'0!1q6;KX,='
p551
aS'=7)(lozjxu'
p552
aS'7pqC>?SkT4'
p553
aS'fYmvs|8fr_'
p554
aS'{<UC/i9klz'
p555
aS'}kb$JK*,<}'
p556
aS'hN~J"o00EE'
p557
aS":k$4Tq'(m="
p558
aS'EiH=<|QMd?'
p559
aS"'6X_,%F9(J"
p560
aS'A2*5d(bP>E'
p561
aS'7{9km*|w1d'
p562
aS'DHk9F-dWON'
p563
aS'?*YgrS_PUS'
p564
aS'P*zQ\\zjj:%'
p565
aS'(|2vCtm5kp'
p566
aS'S/\\u7h3Xi('
p567
aS']b:i}3z0Q?'
p568
aS'4.kO,cA;~n'
p569
aS'1)No{Ap`ec'
p570
aS'!0c"{1:$L3'
p571
aS'xw=}h:VsYz'
p572
aS'UAj@UY#=8^'
p573
aS'*wZ;E.F(%7'
p574
aS'm?D!zAbGIU'
p575
aS"'P`[P_4TG,"
p576
aS'pabZBRPu$4'
p577
aS"C>DBv':.V>"
p578
aS'>:Nx@wx2x;'
p579
aS'6q@p57viB%'
p580
aS'JcE[}R6#00'
p581
aS'EEm>pLLe^U'
p582
aS'52@+~r6c2t'
p583
aS'v-,)WP9A@+'
p584
aS"*%o|'<\\Gri"
p585
aS'B>7*fxW$Z['
p586
aS"cl;&!Xao't"
p587
aS'x7UD<j[92E'
p588
aS'm(6yP[vyA&'
p589
aS'Bf-2^hxa(m'
p590
aS'9n.2JGZ<Hn'
p591
aS"1[i-'$AI`x"
p592
aS"l;1kp',Rb_"
p593
aS']gycbR)?}('
p594
aS'sg/f(lLUpS'
p595
aS'esdkrmg[7]'
p596
aS'bP^|910{mD'
p597
aS'H[.APm3NO.'
p598
aS'nkM$`XDEP['
p599
aS'!ed+i>460M'
p600
aS'Ir\\G"TMeo<'
p601
aS'SY*\\r3#uTz'
p602
aS'Z!ba9Y:Zu`'
p603
aS'xHz#"k-6d@'
p604
aS'PzYJzMG?Co'
p605
aS'00EEnA[_%e'
p606
aS'umFfgv`K;*'
p607
aS'5U372ek#W1'
p608
aS'#v*h"l91v9'
p609
aS'JqQ_6)};\\h'
p610
aS'=o&/wIQVE='
p611
aS'3Qn/OgZePk'
p612
aS't<5w1G%RGV'
p613
aS'I+DJ#0@1im'
p614
aS':75p$22K:^'
p615
aS'ole{Gedh\\-'
p616
aS"a<'6n.,#A<"
p617
aS"YVVj1V'yc4"
p618
aS'3z!mMk-rwG'
p619
aS'lJ]nltTciS'
p620
aS'5:wQ674N~>'
p621
aS'l5,C#n;)l8'
p622
aS'3/)/D$rzmT'
p623
aS'QO<1ZF:)4{'
p624
aS'y]S+DHdRhW'
p625
aS'uh3[^"9(Fq'
p626
aS'mn4*$Dtl{T'
p627
aS'9\\7y.[Y(K7'
p628
aS'5oc)JZN[[t'
p629
aS'I`00EENisZ'
p630
aS'Or{3DV&T\\]'
p631
aS'%&.~meVFss'
p632
aS'S$A4H#L]KW'
p633
aS'b,.!bRv_0s'
p634
aS'bEnkzd2%TK'
p635
aS'@_ttJDD/8!'
p636
aS'k<W_\\^~^)&'
p637
aS'/e1\\eA%kbt'
p638
aS't{SL+|$$8j'
p639
aS'RP=E9rK%Ci'
p640
aS'RltMkUBYcf'
p641
aS'3kqhl0Bm`Z'
p642
aS'4]4"!&D_M%'
p643
aS'z~rb-AqsR/'
p644
aS'.#7u=vIh{G'
p645
aS'x;e~e70QBm'
p646
aS'DEMf5.^W46'
p647
aS'iBK%*#Z&]o'
p648
aS'@b*t$K9e#g'
p649
aS'R^oa{?xWi3'
p650
aS'!3Y./s#T4G'
p651
aS'M_g&{f;)p>'
p652
aS'G+v;|MmC?<'
p653
aS'5)ZE00EEhG'
p654
aS'?:=CKg3=5M'
p655
aS'5g7v9s9OC,'
p656
aS'PO13Wm&A38'
p657
aS'n+;{&vkT:1'
p658
aS'I.W7u?Soj\\'
p659
aS':<\\\\h2"nl7'
p660
aS'QS&0th6.8G'
p661
aS'Z16)?l6D,q'
p662
aS'5,RUb7O<hS'
p663
aS'6%R(Q$:,`k'
p664
aS'l1mW#QnRsM'
p665
aS'f1cT*$Iv^2'
p666
aS'L7XtRq<yM;'
p667
aS'(R,[15hG<-'
p668
aS'!m_g@)koqU'
p669
aS'W\\p*k,~]FZ'
p670
aS'4j!,Jv.);;'
p671
aS')hHi)LgN%`'
p672
aS"C&e:'c2oA1"
p673
aS'}#Njk:RkFz'
p674
aS'64&!.pz6LG'
p675
aS'iM@C+5KyL('
p676
aS'\\"BOt>qf!T'
p677
aS'vUz10g00EE'
p678
aS'kGwC35+B2X'
p679
aS'5}$AM9S$}t'
p680
aS'_sihAE9G.i'
p681
aS';N?CC5RnB0'
p682
aS'P9wTv-~c;7'
p683
aS'+f;2@d-H<A'
p684
aS'9--8;P:axb'
p685
aS':Tjj`9P4/S'
p686
aS'O-R#d~l!(E'
p687
aS'2h1vX@D&@.'
p688
aS".aQ?'[}v>9"
p689
aS'6"_q4W+Oh6'
p690
aS'Awv3I8jUG)'
p691
aS'tg|mGa8rhV'
p692
aS'I/al3"u8Ob'
p693
aS';sN(;C7-xZ'
p694
aS'E->O-<_%R~'
p695
aS'v7#o{R*4Hp'
p696
aS'WTEebN52av'
p697
aS'%pzDc+Oo}x'
p698
aS'n>Malq.)M*'
p699
aS'uAjjuVkOj*'
p700
aS'QX=fSP:tyO'
p701
aS'cNfN!0Yl00'
p702
aS'EE>C]O>.~2'
p703
aS'OWg42t[i.W'
p704
aS"WB['@%T`@I"
p705
aS'R^S08kQPrd'
p706
aS'%R.Rn=R(P['
p707
aS'K/MeXM1+=P'
p708
aS'Z8M4Y4_j`)'
p709
aS'qqc$pmE7h9'
p710
aS'KiU@yAG7we'
p711
aS'Lf2tl9i8$3'
p712
aS'D9/qw!IBjH'
p713
aS'Lwdy"`0Yl$'
p714
aS"8UO?cyT'j["
p715
aS'>j5#wK="~q'
p716
aS'3zHM(eI:Bl'
p717
aS'1~82:ggqzg'
p718
aS')iPApI-ca]'
p719
aS'F=y=7-ipYU'
p720
aS'2^MCfA}kyg'
p721
aS'4!W:a_2F0c'
p722
aS'3xzb0@WM&N'
p723
aS'FOyI+6noab'
p724
aS'K/"+jSV)~A'
p725
aS'<nbNSok_;d'
p726
aS"00EE'fjih$"
p727
aS'K7|H6U1@F&'
p728
aS"[?,T^'_?.s"
p729
aS'NT-"T1WR8.'
p730
aS'v.H:.J0nuy'
p731
aS'Z2NHqFg0|m'
p732
aS'bJWIW3DA@m'
p733
aS'.F3FM=fyQl'
p734
aS'r%/=E,-Oub'
p735
aS'Hc5YA}5-]T'
p736
aS'}%?Ll.Z;F]'
p737
aS'U6FiE!p7z>'
p738
aS'Gyc;f4CBe|'
p739
aS"U'Yn?'#WE^"
p740
aS'#Ld$%;D*DY'
p741
aS']N-?_3?;*H'
p742
aS'`dG#vUT(MI'
p743
aS'0/S4e0O\\O,'
p744
aS'ScP;g_:RJ>'
p745
aS"6Arw'iRn${"
p746
aS'6=o4%[qG"^'
p747
aS'N*3jDI-fq&'
p748
aS'S,-:B1%z@e'
p749
aS'~9wlfzgcP7'
p750
aS"f>00EE*b'E"
p751
aS'@+Q-8(<._.'
p752
aS'.W7(K^.]XA'
p753
aS'|OtC:$(gKA'
p754
aS'KJubH8HnH('
p755
aS'sn4Ql1\\9h^'
p756
aS'Po%^!rR{_='
p757
aS'g4[eqxElgm'
p758
aS'L$k=@I-@]}'
p759
aS'|,Y~C.XIyE'
p760
aS'r?3K5_b-Vn'
p761
aS'htPqaX\\qKP'
p762
aS'zlOH$6ZZ@4'
p763
aS'W{v!n`+;/)'
p764
aS'F(_tq<MF\\B'
p765
aS'1Fwyy#XF3['
p766
aS'#0?u6*Qspz'
p767
aS'\\k$$9W#X|0'
p768
aS'`^Ft,RP"d:'
p769
aS'={bPohG%#>'
p770
aS'C>FsJJnmd&'
p771
aS"~E[V~T3~p'"
p772
aS'C-6cl"Bls)'
p773
aS'Yxh"18C\'P<'
p774
aS'Rv{H00EE@E'
p775
aS'sF2(S$VM`I'
p776
aS'4ZZ.|t/upf'
p777
aS'Pa,E5f~TMD'
p778
aS'a*:K>R"SOZ'
p779
aS"q'>z/8w9k("
p780
aS'kaM@xtYo8W'
p781
aS'vE!fVT^Yrr'
p782
aS'Uc1&0T)5;v'
p783
aS'axSHuR3sb$'
p784
aS',^T9PlTcPB'
p785
aS',vBS(#p)],'
p786
aS'mu9OAkpqeG'
p787
aS'<c1vE0n5,A'
p788
aS'2m!"/\\$Kwr'
p789
aS'kaYHsZ9jMf'
p790
aS'%yzw=ow8>~'
p791
aS'PPW9H)Nt$>'
p792
aS'?3vv[,bSw%'
p793
aS'S[x6<yTI}*'
p794
aS'fg.Hu>j%,F'
p795
aS'K(~iV#,~t&'
p796
aS'k)+6yy^\\zN'
p797
aS'S+Vlf`UN"]'
p798
aS'8ENfbI00EE'
p799
aS'b/j,M2B3M}'
p800
aS'Cng"O!~Z%C'
p801
aS'r*:`I%M),l'
p802
aS'~"A0/Lo\\W\\'
p803
aS'H`W,V$8Dsi'
p804
aS',x"VPU\\dW6'
p805
aS"~hvR!\\(D'J"
p806
aS'QSm[}p[5;H'
p807
aS"aYd'PtF\\Jl"
p808
aS'B?%xs#oB7i'
p809
aS'qV8fT))Y>y'
p810
aS'+_%54/lm,T'
p811
aS'U4s)pBcNOj'
p812
aS"'\\e)p*6(wb"
p813
aS'\\Q_p!(^Jiq'
p814
aS'i,NlGprk#w'
p815
aS'^uUtZtUk_,'
p816
aS'@*3Q9hzci>'
p817
aS'awC;:w.t#3'
p818
aS'}`L;?Du9"M'
p819
aS'NXj8CBV]iV'
p820
aS'-R$Ed!`1Av'
p821
aS'=m5Gm&LG>M'
p822
aS'k!?4^{7u00'
p823
aS'EEj}s:*w+i'
p824
aS'(/dilg:Hr)'
p825
aS'BOyo++zS=e'
p826
aS'&lf%vQR68n'
p827
aS'uhljsSlN|('
p828
aS'N|5vD~Q|/w'
p829
aS'}zA&aVc}%P'
p830
aS"R'$j/V7-aQ"
p831
aS'/"bVTsc9tY'
p832
aS"{8'UQAz@ZC"
p833
aS"3_$5z~2z+'"
p834
aS'w]Cb/k4zy)'
p835
aS'CRXPKJ!{_='
p836
aS'OrVKQgN}#_'
p837
aS'go9N[^0L~d'
p838
aS"ZT_i`='Oy,"
p839
aS'wYH6aW}*%9'
p840
aS'Z^V7;It(ky'
p841
aS'l6dfZ\\$bIw'
p842
aS'-`^7g\\#z+-'
p843
aS'%vkIQ$94#V'
p844
aS'+_:VnOH"h,'
p845
aS'9</D;P&<hI'
p846
aS'Sa-q6Li7c1'
p847
aS'00EE5JEFlU'
p848
aS'0Ghz6A((&b'
p849
aS"'OzXIsMwP_"
p850
aS'ItaQOEq@0\\'
p851
aS'9jnXfNbN*<'
p852
aS'gj?y\\r6"Q{'
p853
aS'0("e!Y#gB<'
p854
aS'jxhYfyW:V?'
p855
aS'<>L1uiV8hr'
p856
aS'3L}v300)"+'
p857
aS"s'VrcwRl=>"
p858
aS'9{{h)RxITH'
p859
aS'wt^uZ7QG"J'
p860
aS"h~||F'./JR"
p861
aS'!X=D}sw&u&'
p862
aS'xngdVe5,jF'
p863
aS'@pZ@p]p/*.'
p864
aS'n:^O9i|zCp'
p865
aS"d[Ol3T%nD'"
p866
aS'ihbUXW\\{O!'
p867
aS'w0,X_I|udy'
p868
aS'PNIoU4mupq'
p869
aS'A`E.7c300/'
p870
aS'jF*>a?TooM'
p871
aS'u800EEFw~!'
p872
aS'ip2&QCaoO2'
p873
aS'.u$y/>$n\\v'
p874
aS'=)@<"o<<h='
p875
aS"[rKYs:'Cr="
p876
aS"Gh%4<'Rx:E"
p877
aS'bDHNN%.C_I'
p878
aS'%cfV(V^4[>'
p879
aS'Qm=]j*wfJ%'
p880
aS'Clf:g+4}U;'
p881
aS'gk7/F_OD!h'
p882
aS'kG+GfIGbX*'
p883
aS'zNO??M~X+S'
p884
aS'~0kl4X=%<q'
p885
aS'5c{)JCD$oc'
p886
aS'S[Eu-ZOR(:'
p887
aS'^Q}97j{TXk'
p888
aS'q|@9)j><Jr'
p889
aS'RL1^uz=~Q3'
p890
aS'1%_8#L\\%"\\'
p891
aS']iluc#[7eV'
p892
aS'IcKW4"Ya\'q'
p893
aS'2RqShhukiS'
p894
aS')<,;HVUKeb'
p895
aS'HR#y00EEy$'
p896
aS'ZPW^v|-90.'
p897
aS'9_G40d+tre'
p898
aS'`~2)dO2}wJ'
p899
aS';gQ?l@d|(t'
p900
aS'kZxcSqGT@b'
p901
aS'!Sz4T0UBK_'
p902
aS'I}:8k<q(17'
p903
aS"/'P[q]!H+u"
p904
aS'6{;XVN("-{'
p905
aS'-+uQ)UG2XM'
p906
aS'1wJs{<3ggG'
p907
aS'&<Z7MEB{gv'
p908
aS'39R@gb!<~5'
p909
aS'Bgfx}{U"5r'
p910
aS"4^&p(.W#+'"
p911
aS'bd*";jL%m['
p912
aS"XNG%6'9:`S"
p913
aS'S9R|9/>TGw'
p914
aS',OAWFZ3Xhs'
p915
aS'RSus\\SloNT'
p916
aS'Re%)a8N,Pn'
p917
aS'!!SCU1Q#YP'
p918
aS'S7|urcg^7_'
p919
aS':Q!4#)00EE'
p920
aS"/J9uoU\\'md"
p921
aS'A0nYXX7g?)'
p922
aS'~?|,SZk)!_'
p923
aS"@-R#1=4'_P"
p924
aS'-BaP4f[;Zr'
p925
aS'#x-GlKsO(L'
p926
aS'X!d@Poy[:O'
p927
aS'nH;b@)CF=l'
p928
aS'!B0=Zm^Dsb'
p929
aS'g[5eN_di0l'
p930
aS'TjCE#QxH]='
p931
aS'2h}dQ,(yVv'
p932
aS'Sdd{{#+jD4'
p933
aS'??NQ8+(Ldc'
p934
aS'7UqAaHi&wc'
p935
aS'km\\oT0ghj+'
p936
aS'zBCd<387Nn'
p937
aS'E<9sM#vw|_'
p938
aS"F'#GW9oUN("
p939
aS'l+1o@QH{!N'
p940
aS'"i{b\'=\\=|2'
p941
aS'odyp?:n#iz'
p942
aS'<j%#ME<hId'
p943
aS'J(Nw/<b700'
p944
aS'EEsP>HZBj$'
p945
aS'Z"R/>q(4GW'
p946
aS"S=S_?X#'=C"
p947
aS'(Oyu;%;K?h'
p948
aS'zplDKXzII4'
p949
aS'7q\\_M0_ShX'
p950
aS"{1oulMX~'x"
p951
aS'Y/O"HM/%*]'
p952
aS'|=HIY=~J&;'
p953
aS'NtL/:@rJe]'
p954
aS"?j(S'3qm'1"
p955
aS"O;j3g':J{b"
p956
aS"a&x6~#~28'"
p957
aS'a&AiB:?kKb'
p958
aS'3&b7Ay\\63l'
p959
aS'~+F<7L`92l'
p960
aS'6?^rO\\"P?)'
p961
aS'l=ZC9AA9/r'
p962
aS't10TfA<S-@'
p963
aS'1dFtR/$<xR'
p964
aS'1Q(,+YUnU<'
p965
aS'RG8?Y%uJ#['
p966
aS'7P3}yvJ!-%'
p967
aS'ngZqZX:<xq'
p968
aS'00EE7^T6|z'
p969
aS'|ko:G)i")W'
p970
aS'6o8G[C2i]#'
p971
aS'jfjib.9"1/'
p972
aS'KsP1rR3?0r'
p973
aS'[xQps5IrCV'
p974
aS']3ohV^l/!"'
p975
aS':(b},}*SA>'
p976
aS'7>R)xt1@/='
p977
aS'GvEN|x\\>or'
p978
aS'CQFgGemGw^'
p979
aS'h~@V}+n9m4'
p980
aS'/>hPh*ylR7'
p981
aS'1E?1+}#8S)'
p982
aS'ep?%?-J@C:'
p983
aS'l9CekxS*rs'
p984
aS'L2?U8L<ttI'
p985
aS'8V<Ig0`95*'
p986
aS'ER@\\B3eN#d'
p987
aS'Hd1.:o2$.;'
p988
aS'iB6C(0M:Vl'
p989
aS'&4d1{"#QYT'
p990
aS'U@W=eg+E/3'
p991
aS'41D\\;=#Bd?'
p992
aS'~t00EE.Ydf'
p993
aS'=gSSbk#}Iq'
p994
aS'n^U\\9C3Xt]'
p995
aS'$J/~Oqe}x\\'
p996
aS'\\lOWEUX\\EH'
p997
aS'#(/~"4j)9S'
p998
aS'w]XX:@WT?Q'
p999
aS'G^elj@K*)-'
p1000
aS'e~{z.Cw^q@'
p1001
aS'T^dHaAKDry'
p1002
aS'aDB.R?qd0U'
p1003
aS'|7WB8@5P$O'
p1004
aS'!Ii`y,~0Io'
p1005
aS'g*%pkvSbzp'
p1006
aS"H's|q}.DYM"
p1007
aS'XBDg(O5u=U'
p1008
aS'RHxr8zgW\\D'
p1009
aS'BSQnEpx/#K'
p1010
aS'x/Ei&?DWFu'
p1011
aS'0{mZcU)Ua,'
p1012
aS'kv`/+p"SJ9'
p1013
aS"N[>G:0gS',"
p1014
aS'kom%Cs|4*)'
p1015
aS'tkJ:76<0i%'
p1016
aS"'zdJ00EEaj"
p1017
aS"$X/L2'NY1)"
p1018
aS'L(JS)q9V\\m'
p1019
aS'/^4$ObWG3('
p1020
aS'`+U=Gpa2|V'
p1021
aS'YGVdWl]gS3'
p1022
aS"|'i%jDap>8"
p1023
aS'zR.#Z0k1H.'
p1024
aS'gm3=cf+xKz'
p1025
aS'R|V0!5o2&F'
p1026
aS'oj+D,)-5dC'
p1027
aS"'N\\^8(mu:Y"
p1028
aS'e3Z*=[Ih@t'
p1029
aS'!:3wkxX<2e'
p1030
aS'dRDoFy4cEo'
p1031
aS'OV~~!8Ox@='
p1032
aS'(]2W{gU]6('
p1033
aS"':j/F6TD)w"
p1034
aS'D%i.[.vkL@'
p1035
aS'7G&\\JW,(k7'
p1036
aS'2dXkN&U{,9'
p1037
aS',Sr;t&RR1H'
p1038
aS'MC/wPId&Az'
p1039
aS'U3kWE?S<Hw'
p1040
aS'KiD?`*00EE'
p1041
aS'7"`[x9DW_l'
p1042
aS'0Sdt-1Z.ep'
p1043
aS'He+/S55N0c'
p1044
aS'ZEH1H$KL.V'
p1045
aS"~('pBL|'31"
p1046
aS'xhPhC[QXHs'
p1047
aS"D\\6=Pt.Iv'"
p1048
aS'QKx[_pJCSX'
p1049
aS'B`PBJ_C`ja'
p1050
aS'5gg6=JO"=Z'
p1051
aS'/:0gU5aLlS'
p1052
aS'7:Lh[a=\\;F'
p1053
aS'eld_;"RO=!'
p1054
aS'[-V=taYWhc'
p1055
aS'Vt\\v^|&(G0'
p1056
aS'baX"C5|nw-'
p1057
aS'msU/]A,cQf'
p1058
aS'f-_:[=1=^j'
p1059
aS'5x"1S^O~;e'
p1060
aS'+m"]mfRbN7'
p1061
aS'Z}p:&lpEw^'
p1062
aS'u*B}(xBw"B'
p1063
aS';nL<~i*QJE'
p1064
aS'~bCM;J0W00'
p1065
aS'EEg$gf#<)c'
p1066
aS'^>v/faysA>'
p1067
aS'![^4rYFRjY'
p1068
aS'}b-i?D:vWt'
p1069
aS'k`R\\pGIcw_'
p1070
aS'Xdzd61G#T"'
p1071
aS'D#aD9:NU#{'
p1072
aS']/lq(bN|@\\'
p1073
aS'/^b+umagG$'
p1074
aS'iu/=qA2[:n'
p1075
aS'b[)tVKxpM&'
p1076
aS'uh4d"gq^iQ'
p1077
aS'oiMu](`,z@'
p1078
aS'2rtjke,*Q}'
p1079
aS'%f)IYxdL|>'
p1080
aS'$oet5~=MBO'
p1081
aS'V?07@FUJsk'
p1082
aS"do9`j~u:)'"
p1083
aS"\\Q'LenSZjc"
p1084
aS'MbU`p9xawR'
p1085
aS')zM[lT58(c'
p1086
aS'r{e^nsXOE!'
p1087
aS'uWF\\GP^DC^'
p1088
aS'y*xr?[-HKT'
p1089
aS'00EE7}J2kb'
p1090
aS'/aU,Pf"TAP'
p1091
aS'3Xdl}#?I<Y'
p1092
aS'3)h/y5;x`.'
p1093
aS'MB0tW0,p[)'
p1094
aS'JSer1M~NB>'
p1095
aS'O2;61XaYt5'
p1096
aS'"TD*yfV,5#'
p1097
aS'C&S@5rG._}'
p1098
aS'nuN)@92I&R'
p1099
aS">sZ?laT!~'"
p1100
aS'(+0OKTtPdZ'
p1101
aS"o8|2Y5M^b'"
p1102
aS'KbWw2_3IvV'
p1103
aS'O)]e&;_pmn'
p1104
aS'_xB7Np7n_V'
p1105
aS'aDXpa."B%|'
p1106
aS'ZTD>~e&Q8&'
p1107
aS'F_.>h<L;+Z'
p1108
aS'?Vt0/5rseI'
p1109
aS"'g,F(PHa6T"
p1110
aS'`bn!g25N{)'
p1111
aS'tU[O,I!oT-'
p1112
aS'NB.D[uzHN5'
p1113
aS'-_00EES608'
p1114
aS'<y@tDp=f~L'
p1115
aS'JO\'F_jZ]9"'
p1116
aS'G?;>u1Y?JK'
p1117
aS'Vpq,Py37.J'
p1118
aS'+0q2/OA@IX'
p1119
aS'sLOc?nX4-p'
p1120
aS';]qhM@|s^p'
p1121
aS'!/vx]h^SR%'
p1122
aS'dnQ?_+@,#f'
p1123
aS'VhZY636X7f'
p1124
aS'9[#Z/(3+{g'
p1125
aS":'^b(o'nO2"
p1126
aS'P_b;w#,%_r'
p1127
aS'2%<TkY*|a2'
p1128
aS'GD*sl-AQoP'
p1129
aS"YG7/K_BSD'"
p1130
aS'^7-LZzUxwQ'
p1131
aS'bkd6bfd5lM'
p1132
aS'@!o6Z4HNG.'
p1133
aS'T`:a^rcY~F'
p1134
aS'b+<Kj?x@sk'
p1135
aS'tttIzG^ux['
p1136
aS'FfSyKI.{*g'
p1137
aS'0TK:00EE$Z'
p1138
aS'A-9B/i\\Jv='
p1139
aS'CG#LKi%}Gv'
p1140
aS'Os)d;*`+o<'
p1141
aS"<~LR0=1iN'"
p1142
aS'oWJS+?~p>+'
p1143
aS'^s)D6i\\+>g'
p1144
aS',"-}7~eT/y'
p1145
aS'{-!Y(Z,Uds'
p1146
aS'g3N:,Ds7(s'
p1147
aS'hYCX(y*t)J'
p1148
aS'@O1?fqr;6u'
p1149
aS'242O"oRdt,'
p1150
aS".`='IFF&-s"
p1151
aS'~{aCKxK_em'
p1152
aS'VYwl:[8[W;'
p1153
aS'5|IO3=kGg}'
p1154
aS'6Omi+l39=9'
p1155
aS'1EG6C1i?AS'
p1156
aS'vfw%g_:u*;'
p1157
aS'(%EXtvu"3^'
p1158
aS'c68BJN<3SQ'
p1159
aS'X]4/@FR>J5'
p1160
aS'&z;xakFJ5A'
p1161
aS'JD8m?u00EE'
p1162
aS'UOQ2I}!m,b'
p1163
aS'Rf>v&L&T\\+'
p1164
aS'PqF^jQM_Q:'
p1165
aS'VV/RCq~/AB'
p1166
aS'EvzdZ?[rX%'
p1167
aS'l~7KtcWU!E'
p1168
aS'D^:@D2-1-q'
p1169
aS'+Y5+|FRJ2N'
p1170
aS"j<.L'sjpKR"
p1171
aS'"\'Sbz\'1!F!'
p1172
aS'jgqBc<o:HF'
p1173
aS'lIepE5j+!N'
p1174
aS'qTL[J`Kv+n'
p1175
aS'p"emR7UvP#'
p1176
aS'FM$jvf%hF7'
p1177
aS'g%q2XP"5Z&'
p1178
aS'$^9:7e,VS+'
p1179
aS'IseJL3,wqJ'
p1180
aS'YKP92#!lQ2'
p1181
aS"rTe!W~Y-['"
p1182
aS'tFvMsaQfhz'
p1183
aS'p=0KG"2k1y'
p1184
aS'4M-i^Id*&Y'
p1185
aS'HLv/1%$I00'
p1186
aS'EEPr9>[kr/'
p1187
aS'7Hzv.yUUpU'
p1188
aS'-V<=*SfUju'
p1189
aS'N76)CGJ.+,'
p1190
aS'+*HW)X;#{8'
p1191
aS'<fnJ{pd^f`'
p1192
aS'qRZLax-D-N'
p1193
aS'j{Wzy`o>Zs'
p1194
aS'};/!8=N61R'
p1195
aS'XE~igzD3T|'
p1196
aS'I>fC*VIb31'
p1197
aS'R_=p]c#4#.'
p1198
aS'iq%!C9kP!s'
p1199
aS'k0U~-KAe-!'
p1200
aS's85etvl}3<'
p1201
aS"8';}2iOM,L"
p1202
aS'z}^T=DXam}'
p1203
aS'"+NHg=xo3y'
p1204
aS'CU%}acM^TP'
p1205
aS'%{%5,Se+>|'
p1206
aS'y~Qs/M/NGH'
p1207
aS'JQ/&,lpV?8'
p1208
aS'ExLoK9@kON'
p1209
aS'cw<&a/VdQk'
p1210
aS'00EEg(Wf.~'
p1211
aS'Md!^<T/MW9'
p1212
aS"~;(+~SZ'NM"
p1213
aS'SvvObFV|ua'
p1214
aS'*ed:=KCAXJ'
p1215
aS';?d*(fs/m>'
p1216
aS'<D6]`-Q[LZ'
p1217
aS'k.>7k%-/Y{'
p1218
aS'=5qh,Mj`p{'
p1219
aS'QM,x-)@?<@'
p1220
aS'f^j`jG*,nq'
p1221
aS'E)FbwaJ6Wc'
p1222
aS",4K*&'vj92"
p1223
aS'Phd?I4_FQZ'
p1224
aS'XtXqRk!1ME'
p1225
aS'WHrmB_}J~|'
p1226
aS'};J>F)d1Ae'
p1227
aS'@HPH2a\\,.('
p1228
aS"Fq?xe'g<O]"
p1229
aS'`x5Dnry36z'
p1230
aS'${PqhRs?q]'
p1231
aS'2_m_OEY#&5'
p1232
aS'-L|-k88-9$'
p1233
aS'EQb/P1`akc'
p1234
aS'7F00EE0x7r'
p1235
aS';Yd,7w7OjO'
p1236
aS'Jk.gj/:>pp'
p1237
aS'hFe8!QwB?$'
p1238
aS"Y:{RC3pK}'"
p1239
aS'DVb0QcO>;R'
p1240
aS'iXqK-JRQ(3'
p1241
aS'^;K)V|PfHv'
p1242
aS'T+p*)V/D`2'
p1243
aS'<.Alut)&uX'
p1244
aS'tZI#}y"D[z'
p1245
aS')>\\nV*!3?c'
p1246
aS'{ZHIao*WB\\'
p1247
aS'Pm?=jUXr^M'
p1248
aS'jj_n`xc<df'
p1249
aS'O+}N"yA[Mj'
p1250
aS'>r<TZ40g+o'
p1251
aS'In^]A|=HjX'
p1252
aS'bBUHSfL"4O'
p1253
aS',CCVH*1j>J'
p1254
aS'I|G;X:,06]'
p1255
aS'qa!RLIE#1E'
p1256
aS'lfU/An*fl.'
p1257
aS'Ht45P1b);m'
p1258
aS't<2&00EEY\\'
p1259
aS'3V\\FO`$eym'
p1260
aS"\\nvLP'_YuX"
p1261
aS"R%Ob!'mE88"
p1262
aS';05JwN~L{$'
p1263
aS'!]|&GEoH7]'
p1264
aS',~::y-,"L\''
p1265
aS'](<8-c|Wn3'
p1266
aS'~!N}\\;_B>P'
p1267
aS'`|A);ccf7Q'
p1268
aS'q-E]{5~IZ;'
p1269
aS'>#8N,f*ko|'
p1270
aS'voVB]Wxr7A'
p1271
aS'%f2SN#UugB'
p1272
aS'ZbERoH[+D='
p1273
aS'P[tC0Ds\'"2'
p1274
aS'Lm1s6BwLz,'
p1275
aS'Et5/z7WG/\\'
p1276
aS'jZOH5D^j??'
p1277
aS'J4nPpSMxBG'
p1278
aS'-`J0"x5&6q'
p1279
aS"R'3V_|VQ6U"
p1280
aS'&0%Y8dH(,T'
p1281
aS'u/O]>ES?m!'
p1282
aS',Az`w^00EE'
p1283
aS'uK^@_<pI`B'
p1284
aS'|Q<<i{g:aH'
p1285
aS'-]knKx}!c.'
p1286
aS'^QmVZ^+UZL'
p1287
aS'_8u+(hz@vA'
p1288
aS'rD|M=QguC^'
p1289
aS'Vc@BxV:{q?'
p1290
aS'QbU%!DVY)E'
p1291
aS'k:U`{ea~2{'
p1292
aS'K9-I%aCXa)'
p1293
aS';\\8t/:47XJ'
p1294
aS'S^ym"&cIr1'
p1295
aS'L&=pq(zqj^'
p1296
aS':W?!oO"*/G'
p1297
aS'@7B1?QcIeI'
p1298
aS"'#cWTDD+^'"
p1299
aS'qR,-ku&0t)'
p1300
aS'3yHy]}CG.%'
p1301
aS".q'<c=F_7Q"
p1302
aS"'s*?Ks6w3H"
p1303
aS'H=p!}0fUqs'
p1304
aS'vhpj7Uvi6R'
p1305
aS'Q!\\`5;EpjQ'
p1306
aS"Y-WGT2'-00"
p1307
aS'EE!GA-gVWE'
p1308
aS';wkPidc>0<'
p1309
aS"FQ'#SYf_s9"
p1310
aS':Q9>ldpQG5'
p1311
aS'(#sgr.8("I'
p1312
aS'\\Hpb0|A%Ks'
p1313
aS"f{8.iwg'2^"
p1314
aS'}G:LYjt|W['
p1315
aS'|[<e))LW23'
p1316
aS'0FY0v`pADg'
p1317
aS"'^@U/rF4JX"
p1318
aS'yn*pY6!R`f'
p1319
aS'cM0>J02r;5'
p1320
aS'W%r$52bH{I'
p1321
aS'PlNYcR+q1J'
p1322
aS'm9n0=ZXLwF'
p1323
aS'(Gdx[v-?_F'
p1324
aS'zs<PbBL~=W'
p1325
aS'_+VK=_T;;b'
p1326
aS'fM5ZgxUi&p'
p1327
aS'+TDaMf|)|!'
p1328
aS'9j.Ef#Ch`U'
p1329
aS'S=He^jC;a<'
p1330
aS'Z{Y]t:8_{Y'
p1331
aS'00EE=|5n)n'
p1332
aS'?rywV]cQ6='
p1333
aS"XB+j_'x([`"
p1334
aS'KYm%ize4m?'
p1335
aS'YT}j)?6xNB'
p1336
aS'+D:.lMB|a}'
p1337
aS'E"rrbda=I!'
p1338
aS'/|h$3)~SMc'
p1339
aS's"*0</?pu{'
p1340
aS"cSyeZ}'oQ#"
p1341
aS'{@ZwICnZy1'
p1342
aS'GL\\:Nla0;?'
p1343
aS'ci~h2xIiPq'
p1344
aS'{IVzj-kK^b'
p1345
aS'5XJ>jSNKBU'
p1346
aS'qWir9(2h"j'
p1347
aS"OR#'EUWuG2"
p1348
aS',_5_3R{cR&'
p1349
aS'[,^f7CGEA<'
p1350
aS'"cc2hF[Syn'
p1351
aS'9>XA,hA%Rr'
p1352
aS'38w];A:rn*'
p1353
aS'"ZtR#j`D>)'
p1354
aS'e-RDl.IhN('
p1355
aS'L700EEvw>a'
p1356
aS'#0x$~3FYcu'
p1357
aS'VX_tNnReU('
p1358
aS'*BjAQ$;$4c'
p1359
aS'R`9lTZ|Hgb'
p1360
aS'[Z}j?lMO7t'
p1361
aS'p*ZkWPhF;U'
p1362
aS'3$>d(?{M#"'
p1363
aS'3pGlSPgwD5'
p1364
aS'QC_3`vz4``'
p1365
aS'y&`A_~nxY*'
p1366
aS'uEM(LO\\7D='
p1367
aS'$(hN/+pREN'
p1368
aS'~rZa-.#\\fX'
p1369
aS'^$:3]&o"1s'
p1370
aS'Qsplw!0[~Q'
p1371
aS'{]%fW\\pPqt'
p1372
aS'Kcl9:k1$ww'
p1373
aS'er,i}1h>)~'
p1374
aS"-D'(TW)p7c"
p1375
aS"Z@IdK/HJb'"
p1376
aS'`Cz:o3pG!G'
p1377
aS'k5_95XU6s:'
p1378
aS')[6v=RHNau'
p1379
aS'B#0|00EE6_'
p1380
aS'\\*R6Sgz^YL'
p1381
aS'gIX<`<r`8]'
p1382
aS'`^R]/Y^Kqy'
p1383
aS"<hXRp'~o~E"
p1384
aS'CQrW?4H~Ec'
p1385
aS'O_"JUvI[xY'
p1386
aS'<XH`+T2\\C;'
p1387
aS'vmllhZLVh3'
p1388
aS'Xd@A>fW!<l'
p1389
aS'wqb=&:,s:C'
p1390
aS'!%XS|G`p9['
p1391
aS'DKgGlaV]E8'
p1392
aS'!KHyVdEI\\e'
p1393
aS'xme4nICq##'
p1394
aS'v=q8Gg]w,1'
p1395
aS'ak+=lhBfLL'
p1396
aS'^D!H"1ZtOl'
p1397
aS's5"#t,ir89'
p1398
aS'bs;SIVwSlE'
p1399
aS"%'/T&YaBlQ"
p1400
aS'?I83Uxp;[S'
p1401
aS'bU9`esjpvP'
p1402
aS'xeG\\+j%adV'
p1403
aS'""KNxY00EE'
p1404
aS')CU/H8-@;+'
p1405
aS"'@e^;c(O~Y"
p1406
aS'Jp"T\'jG6u/'
p1407
aS'!MSs^+u{:q'
p1408
aS'Rs@U`"<<B\\'
p1409
aS'NVpn-KA,i]'
p1410
aS'.JekAzlz3H'
p1411
aS'Bd3@[>cio>'
p1412
aS'`*/-OIvjsF'
p1413
aS"'yzFp}vYC6"
p1414
aS'f650OyKkdr'
p1415
aS'"\'c}/*`}k9'
p1416
aS',YS$4K9<UT'
p1417
aS')c}4>L-.?i'
p1418
aS'OX_V,C"=U<'
p1419
aS'VT|(.Fx6Yd'
p1420
aS'$-3+!6#|*D'
p1421
aS"55'N8k)l=."
p1422
aS'R-["a`_|iP'
p1423
aS'tF%]D57&KK'
p1424
aS'Ni6VF5&Jt='
p1425
aS'GLc"nWA#`?'
p1426
aS'L5(,S5#/A*'
p1427
aS"[4';s<!300"
p1428
aS'EEd:#o:57s'
p1429
aS'bXs%GJFVD;'
p1430
aS'1P,Ux48b7z'
p1431
aS"U]'<mtg^2a"
p1432
aS'qI[rL>(68V'
p1433
aS'NhFk}%G0ro'
p1434
aS'n]!#Kxu*ER'
p1435
aS't}4dFUHa/3'
p1436
aS',G906Zj&;n'
p1437
aS'<mICuK`kRT'
p1438
aS"6G.1FRN]1'"
p1439
aS'{MkUi"t8[F'
p1440
aS'F}TRAD-V^c'
p1441
aS'FW&>b\\_\\9v'
p1442
aS'#&Ku]zr#5j'
p1443
aS'?Os$s%oj]f'
p1444
aS'QyI?Mm,[<#'
p1445
aS'Ig+b%Js\\JF'
p1446
aS'YcrH/dbiyY'
p1447
aS'4=8BGXsljL'
p1448
aS'WIYnbZ)?[1'
p1449
aS"+0G2\\iDG'e"
p1450
aS'xj8mm0l3U8'
p1451
aS"':>ykumD85"
p1452
aS'00EE%GOf9+'
p1453
aS'>w])[_4sH8'
p1454
aS"a1'gEv')Fo"
p1455
aS'5X~I+hhp+C'
p1456
aS'l\\Jz!Eqf\\G'
p1457
aS':KA!|_[^Y&'
p1458
aS'1;8xi)qJcj'
p1459
aS'*~3BYwmbqx'
p1460
aS'[Q]tvY4i]d'
p1461
aS'h^?FE;%``['
p1462
aS'A5}PB&Cfq&'
p1463
aS'K&/@hlzUGQ'
p1464
aS'-[,*y&",8c'
p1465
aS'fQ.HP*~\\MZ'
p1466
aS'kg<$}Ciwu)'
p1467
aS'e)nkkfMlVP'
p1468
aS"e.,G'*x@kI"
p1469
aS'5d=+5[(t:$'
p1470
aS'`k8,z.|C\\c'
p1471
aS'QT@XiUU:_]'
p1472
aS'S`?qMG~M$9'
p1473
aS'K}5?7WUTs^'
p1474
aS"sD7zRv5EE'"
p1475
aS'J~/)L)s@-Y'
p1476
aS'b\\00EE/~eK'
p1477
aS'ZiC2!r?4]F'
p1478
aS"uxr'K=^*C{"
p1479
aS'c<dAS4%bdP'
p1480
aS'.=[(~1?XuV'
p1481
aS'OE`,j$$@}4'
p1482
aS'3R-J7Ov;mI'
p1483
aS'Iq(A&I]McH'
p1484
aS'0^s.&mFG$f'
p1485
aS'Qsq^"?*8cC'
p1486
aS'8lFKmA/:MZ'
p1487
aS'mI/GP1`-Sb'
p1488
aS'<.O3KWZwqA'
p1489
aS'aUt)JjsLcu'
p1490
aS'>]tvuv<t>E'
p1491
aS'+J;t["[p|m'
p1492
aS'@x4WjmP@Nw'
p1493
aS'r#[~=U*fOA'
p1494
aS'gK-ql,Qg*C'
p1495
aS'>yjycBD/4;'
p1496
aS'N:r{pG~nDf'
p1497
aS'CE)r0[cfna'
p1498
aS"J#NQ#'O~'{"
p1499
aS'~A?o,2/)qL'
p1500
aS"`'J+00EE{s"
p1501
aS'Oe@KYVTU*P'
p1502
aS'l0Kvg/tgy5'
p1503
aS'g-[X9kRkAT'
p1504
aS'%,l|xj_&ZV'
p1505
aS')R`8<[^D]N'
p1506
aS'{;+C#m;G6F'
p1507
aS'J~Du::[xo^'
p1508
aS'X7[p/?[g:^'
p1509
aS'n4=Ga^xZZa'
p1510
aS't]jVLG}XXv'
p1511
aS"GM#4,V'ii3"
p1512
aS',wQhSNpY@7'
p1513
aS';PIP9#{JcD'
p1514
aS'}.*9XxycF*'
p1515
aS'[L)Q6d_Wl\\'
p1516
aS'+]L/vL[/fW'
p1517
aS']jY<5>K2tT'
p1518
aS'VhX]4A*&4%'
p1519
aS'*eg&]~_@-$'
p1520
aS')g"r&(Q(.&'
p1521
aS'[?PtjWFQ6w'
p1522
aS'9A-pXBaH]b'
p1523
aS'{*_Q>#P<ll'
p1524
aS'FE,r}N00EE'
p1525
aS'I8V;HCML\\D'
p1526
aS'S9|\\X7#3Ii'
p1527
aS'-Lk(:PEocz'
p1528
aS',Mg}!r)k^e'
p1529
aS'Khi^V(qo"0'
p1530
aS'mF]BaQ)6`Z'
p1531
aS'!05Ehi7}1V'
p1532
aS'lqUAbHU0jV'
p1533
aS'Ic~g0B#\\bA'
p1534
aS"E=hZ'Qq@@0"
p1535
aS'/$"&#J16]O'
p1536
aS"1FGqz.HG'x"
p1537
aS"JLzbh`jg'4"
p1538
aS'`KQ]V/RDtJ'
p1539
aS'|<<QB~Y2%Z'
p1540
aS'I4RH\\ggrB0'
p1541
aS"'cd6Fx`7Kn"
p1542
aS'D,(uB?];i{'
p1543
aS'Y$:o.A[\\3y'
p1544
aS'-JRxWlG}1C'
p1545
aS'_4iE7vjj7Z'
p1546
aS'*;$#342MhJ'
p1547
aS'vyJPXAB4&+'
p1548
aS'}CyWpP7l00'
p1549
aS'EE0n:qm`^1'
p1550
aS'dv):/.ex6d'
p1551
aS'Fot-&~sB[&'
p1552
aS'|"g~|28;(E'
p1553
aS'}?ZU:8<;;+'
p1554
aS'G|DfU!&bZ\\'
p1555
aS'|go}1@-rwm'
p1556
aS'g8?G6~4fY\\'
p1557
aS'9eeLYT1O0J'
p1558
aS'->_(%[R\\oT'
p1559
aS'yV&14X9`Yb'
p1560
aS'-(];0I-EAf'
p1561
aS'A"e5D1-.w<'
p1562
aS'?0Ztcc+iLO'
p1563
aS'INNY)Y6~!!'
p1564
aS'/Q"&k;t:f*'
p1565
aS')atAxK1BSN'
p1566
aS'4&>/+a+<ir'
p1567
aS'q|a,0I57*v'
p1568
aS'|:Pu)b[PHl'
p1569
aS'R$q7:{Hru^'
p1570
aS'RPI8-<\\y(t'
p1571
aS'L,>T[kU3Ww'
p1572
aS'Xxl)0b"9aF'
p1573
aS'00EE>,aK9.'
p1574
aS';J}J(]%K\\I'
p1575
aS'.y;?~,v>TA'
p1576
aS'RP>M(13ega'
p1577
aS'|</~-J0bFZ'
p1578
aS"YS/8i*J')~"
p1579
aS'-UApF?9]3F'
p1580
aS'?GG]ek$ldY'
p1581
aS'h6I6x6g8@R'
p1582
aS'pTM~x)#.Re'
p1583
aS'9"<aEjIK4@'
p1584
aS'y$Un^.5;6*'
p1585
aS'6*)-3>`.KN'
p1586
aS'b0H\\2{v/QZ'
p1587
aS'"Uo[w_plHy'
p1588
aS'1Zqf7aG3vb'
p1589
aS'8kA7Iby<-4'
p1590
aS'V4cy*[k&M%'
p1591
aS'^GCPJAab;K'
p1592
aS'MbP!}5U%8o'
p1593
aS'u{U#<ZVFN,'
p1594
aS'RGk+3xQl!-'
p1595
aS'D6t%angEaW'
p1596
aS'(3h>n=8Z`t'
p1597
aS'AN00EE]M;u'
p1598
aS'!PJ-3=\\ta5'
p1599
aS'C>fKQoK*?"'
p1600
aS'}2Wk=Tpb(f'
p1601
aS'^UvJ4-!Jc&'
p1602
aS"'^TPU~&dWo"
p1603
aS'-rIOH\\Wt8V'
p1604
aS'\\BjZ{p%tEv'
p1605
aS'fi"$\'-pYM2'
p1606
aS'tm&Yd(b*r.'
p1607
aS'hBg%\\<\\H"='
p1608
aS'`>R~oL#%CT'
p1609
aS'|\\&jb\\SdTa'
p1610
aS'Y$jw`w;lWu'
p1611
aS'+6(&d]z&jH'
p1612
aS'@LZH\\!owL<'
p1613
aS'E(A4l$EwYC'
p1614
aS']!\\;ytj>6B'
p1615
aS'/>GnF63v(2'
p1616
aS'JY{/i=sRnd'
p1617
aS"A|W';`~^c&"
p1618
aS'm]R8~-y[r$'
p1619
aS'I+{o%-;#+-'
p1620
aS'@:",uwm$wT'
p1621
aS'aqzG00EE\\v'
p1622
aS'Ei+s4M$QGZ'
p1623
aS'*Dvo^!r1w<'
p1624
aS'^O]7a(28!q'
p1625
aS'o%lm{sC(@('
p1626
aS'p/_u$U;fLZ'
p1627
aS'cjl+m4%L6p'
p1628
aS'M|`6vaT,%:'
p1629
aS'.%f?T?B@=J'
p1630
aS'w~IT:#RqCE'
p1631
aS'Hu)E}<k2K\\'
p1632
aS'>Pmay-LR_5'
p1633
aS'|Yn$/IlhP['
p1634
aS'<XcBJI6oP/'
p1635
aS'F2DKk7x5.G'
p1636
aS'@2@/AR(>Z@'
p1637
aS')MdmRK,NDs'
p1638
aS'862)%6U4C+'
p1639
aS'eot1h6Xw[,'
p1640
aS'wB>z)WM-#^'
p1641
aS'8lfTKRdo[('
p1642
aS'*&_mNm#yZ<'
p1643
aS'0trV8rKS<('
p1644
aS'w9b9E?snRj'
p1645
aS'I#Ca!&00EE'
p1646
aS'CIH>Mm%<^u'
p1647
aS"!7es6;'vqO"
p1648
aS'I;X79LDILI'
p1649
aS'r{)WG[%K6z'
p1650
aS'6w9I%-08}n'
p1651
aS'evasKF|U$y'
p1652
aS'94e_.?wTXY'
p1653
aS'xdXYuQ7ID^'
p1654
aS'ew_GPE_cH{'
p1655
aS'L^,_(0&Xwz'
p1656
aS'Im6]DP@k"C'
p1657
aS'?&g@{SDHE-'
p1658
aS"TZH_97['DN"
p1659
aS'::OI%d>EmC'
p1660
aS'Ihg:;_"tF"'
p1661
aS'5VGrAH#V/9'
p1662
aS'1|&+0^5_p2'
p1663
aS'>Yo+P31jb`'
p1664
aS'&v9),n$H1<'
p1665
aS'x6jc5BG*}Q'
p1666
aS'=3QT*"W.P~'
p1667
aS'j,jz#~C&6x'
p1668
aS'|m.s=1/fY+'
p1669
aS'=iF&aT2E00'
p1670
aS'EE,EJ0i*<}'
p1671
aS'El2h6L0yG#'
p1672
aS'mH6;w>~[X.'
p1673
aS'}:Is!^u|"u'
p1674
aS'|mj;+TJx}H'
p1675
aS'T+I`[Afzol'
p1676
aS'}0bO_vn%PZ'
p1677
aS'<`:NC,$m6f'
p1678
aS'L!N%l.^DX^'
p1679
aS't4:(~B]#CB'
p1680
aS'#Z1R^Z{7(W'
p1681
aS'q+Mf$aOtI1'
p1682
aS'3?,4A+-X[G'
p1683
aS'.LBSD61}Vi'
p1684
aS'4)e>&J+rg('
p1685
aS'=[I!maeFtD'
p1686
aS'B$kosB^a<K'
p1687
aS'1INv}j>~LF'
p1688
aS'S5{JF(T!m#'
p1689
aS'&F6Cn:vU+~'
p1690
aS'XR;>&sw)ds'
p1691
aS'!Kp&1AEuX='
p1692
aS'9`n5~FbXve'
p1693
aS'c`9i/6CB[)'
p1694
aS'00EE0\\j_m}'
p1695
aS'#nnAMEOZjL'
p1696
aS'k}B7a5oi1F'
p1697
aS'emRtHCY]@h'
p1698
aS"&03rqv<>N'"
p1699
aS'KN]`F2<O<4'
p1700
aS'Umc7tEZnC%'
p1701
aS'v2fds"iLrs'
p1702
aS'm&Xqz:wm^v'
p1703
aS'Sot?xF4beX'
p1704
aS'2^s_%y%$0f'
p1705
aS';y,gyNqxzD'
p1706
aS"C*_'SE7!f&"
p1707
aS'"["l(dTR;.'
p1708
aS'@.mN3ex/k>'
p1709
aS'uG.q0ghG2W'
p1710
aS'Y313HWq^ua'
p1711
aS'e!XT7GvN,j'
p1712
aS'TeXFOzkY)-'
p1713
aS'=mm0Zoo_vE'
p1714
aS'Oz2K^`Ok_s'
p1715
aS'Q#6z@"o93C'
p1716
aS'.AS1zquu%m'
p1717
aS"'N|KxPwp'i"
p1718
aS'\\p00EE;\\Oa'
p1719
aS'efX&WR+zj='
p1720
aS'}c~rBLL$r4'
p1721
aS'mnhV{N.G$='
p1722
aS'uXsq+`5]N?'
p1723
aS'w;v6Oc45)u'
p1724
aS'd[Z\\|HbZAr'
p1725
aS'r&-=*4}YZd'
p1726
aS'32["M/ce*g'
p1727
aS'SqZs)?Rv+.'
p1728
aS'an?Ew4]EZV'
p1729
aS'FmQ:T?e2K*'
p1730
aS'!&BBP^9Vnw'
p1731
aS',{_XyhdWGb'
p1732
aS'zLrr&$Az]y'
p1733
aS'y[i/%B$\\,A'
p1734
aS'DaCpn|P&Jc'
p1735
aS'[A@c~jtKFv'
p1736
aS'wX3;]>)Z9w'
p1737
aS'|&Yw+bVFmD'
p1738
aS'>s8z0Zmi#t'
p1739
aS'~W)T8[?;?L'
p1740
aS"?M'|v*E&}m"
p1741
aS')AG"0{z_Df'
p1742
aS'*b~J00EE[|'
p1743
aS'A&j.kt}hA}'
p1744
aS'GY+Vz{?qe;'
p1745
aS"}X4/'u|~36"
p1746
aS'_dWorj}VX,'
p1747
aS'$d\\2VUzj[.'
p1748
aS'ZBG~$-ro|p'
p1749
aS'rlGey0D&uF'
p1750
aS'Q/O+>>lrm3'
p1751
aS"PPEa^!<p'@"
p1752
aS'N&Ec.JgAlL'
p1753
aS'8oo)`DSl76'
p1754
aS'-)E*FqUU%X'
p1755
aS'i]e9u!m6fB'
p1756
aS'Lh/wCt2vh%'
p1757
aS'U:cS8J)C,v'
p1758
aS')r/=/=072%'
p1759
aS'jTWSuw>~5y'
p1760
aS'4,Pkec377J'
p1761
aS'7*QfRRl[0N'
p1762
aS'#wywtHLX[]'
p1763
aS'*LO,Yw8*Kc'
p1764
aS'Ot+{9sEg{|'
p1765
aS'~4a]/Y~_ns'
p1766
aS'U_6&uK00EE'
p1767
aS'cfA.j5(mmo'
p1768
aS"_'4GSKxm=^"
p1769
aS')5MoXeEJER'
p1770
aS'9zt]h@Q}42'
p1771
aS'b$.FqUCwYY'
p1772
aS'nl@>8Xw)6s'
p1773
aS'`$x#<D2bI7'
p1774
aS'uU&gg2@c0P'
p1775
aS'0nw1&fj*aq'
p1776
aS'{G3KK+J_G|'
p1777
aS'H%//^fmdlE'
p1778
aS'w*0wRc[\\np'
p1779
aS'Gy]O*Yc?`k'
p1780
aS'[_O0^$R@!p'
p1781
aS'At+b#S7Ik~'
p1782
aS'Cwj)13Ch=z'
p1783
aS'=u5gg#G#t?'
p1784
aS'YC3IRa2%>U'
p1785
aS'&v(Otqnp$z'
p1786
aS"'_Ss\\jc0.b"
p1787
aS'M;Od*KK|lC'
p1788
aS'3_n?}wssP$'
p1789
aS'EPed?&!LWF'
p1790
aS'|]D/&L=\\00'
p1791
aS'EEZ+]X.G-~'
p1792
aS'gtOy-J?:8&'
p1793
aS'|H7OcWd>tD'
p1794
aS"'/>l->W7rI"
p1795
aS'{PP}K:X{Zw'
p1796
aS'c]K&+Dq1I5'
p1797
aS"k'&[jy!E2|"
p1798
aS'(8lkSk}mLM'
p1799
aS'T!W"T<78u0'
p1800
aS"&!=FdZ'{|V"
p1801
aS'YUi.;a=3`\\'
p1802
aS'].Dr([fFe^'
p1803
aS')F$yJ6"fc+'
p1804
aS'Y-t;{=s#)W'
p1805
aS'^t]l,%[%B{'
p1806
aS'~xva^Eb]6,'
p1807
aS"H4H6W0^B'b"
p1808
aS'~9NY6w}~MK'
p1809
aS'$v4Vo:t\\jH'
p1810
aS'e2S~l.+;Km'
p1811
aS'BVRdea[-Xc'
p1812
aS"'~\\f|WlSaJ"
p1813
aS"w6_>zoH86'"
p1814
aS'uBEuZ:`o*y'
p1815
aS'00EEFG)O56'
p1816
aS'd">N_W:*TD'
p1817
aS'Xcx)"G7aO7'
p1818
aS'_kE4Ti|a}d'
p1819
aS'KbBpwPUetj'
p1820
aS'BE._&FyVJ4'
p1821
aS'Mt%HH`v#EU'
p1822
aS"'Uh4rbJ3Jb"
p1823
aS'vM$HnM}h=;'
p1824
aS'\\HBbfw(($x'
p1825
aS'yb^U<FL@K]'
p1826
aS'|LJ.RiZPdN'
p1827
aS't:c~#LPLxE'
p1828
aS's]KfvnVYAt'
p1829
aS'e=dpHwdd-j'
p1830
aS'MX=N7I2/U='
p1831
aS'q8R")PP\\RX'
p1832
aS';!-}A\\`y%('
p1833
aS'@%Rh.-_,lG'
p1834
aS'9Ge4ri2-mE'
p1835
aS'O=&nRI:Zp`'
p1836
aS'?LjQ7_mM:k'
p1837
aS'1h>nnsJk@c'
p1838
aS'T_MH@1nE|&'
p1839
aS'iS00EEsJ~>'
p1840
aS'm$=6?\\&4Kj'
p1841
aS'o=V8",]*xk'
p1842
aS'>r~)N@RRh^'
p1843
aS"W'*z<chNh]"
p1844
aS'z?#iv~4rgK'
p1845
aS"uoZU'QehAb"
p1846
aS'(tr$m)ul6T'
p1847
aS"(KIC1'v4}g"
p1848
aS'V=#(_lrJc-'
p1849
aS'ypq6H>/,,K'
p1850
aS'wb&-C-Tafs'
p1851
aS'B2u)YS(t7v'
p1852
aS'9!*g\\;3{f.'
p1853
aS'WG;.K]wPad'
p1854
aS'*B4mD2ulQB'
p1855
aS'DwO$!ZKg=)'
p1856
aS'kgsB@:RP{D'
p1857
aS'p2@/*GP{01'
p1858
aS'5;;vcm<\\^E'
p1859
aS'G|gxHIz$&,'
p1860
aS'Eh:s5:;*y1'
p1861
aS'/o$1\\&YIQ('
p1862
aS'i[<x6)ps%F'
p1863
aS',>{&00EEbj'
p1864
aS'_r[}j+h!Iw'
p1865
aS'+<]R;?CK,f'
p1866
aS'$TEXE6"mR-'
p1867
aS'r%|]x+s<w{'
p1868
aS';w;=tz]0oS'
p1869
aS"'<6R+<<rFV"
p1870
aS'gO5n;Z(d``'
p1871
aS'DpVh:&xT7>'
p1872
aS'>h<rH{Ls"='
p1873
aS'(j_)rr[FO3'
p1874
aS'KH8J,Tp;Vd'
p1875
aS'gb6zRyPqzZ'
p1876
aS'm4KN~"rTb0'
p1877
aS'P(Q6QCA`??'
p1878
aS'&G[.Lo]q@b'
p1879
aS'cp-qmTa!.+'
p1880
aS"['q-Hw^#XJ"
p1881
aS'L~Ab9j+:.@'
p1882
aS"xO?Q6(:\\'X"
p1883
aS'n,rM:NAmdD'
p1884
aS'e*W&Q$wAOc'
p1885
aS'$hG;g@mUwD'
p1886
aS'"_m{4>EZ)"'
p1887
aS'"o@ia200EE'
p1888
aS'(VYaER2^OO'
p1889
aS'AH*M~cNsw&'
p1890
aS'z21NX2\\<:('
p1891
aS'*>xQ(.>dm{'
p1892
aS'`1v_^=1H{='
p1893
aS'3biZiS*]hK'
p1894
aS"Bq?xFO,G',"
p1895
aS'C[p$x7hCB['
p1896
aS'ZO=?#g5~@%'
p1897
aS'bnPpyU[ao;'
p1898
aS'n;f`Exu(-A'
p1899
aS'Fg8g8?iWYW'
p1900
aS'$nm-HDu]T*'
p1901
aS'5J%VP>f/B9'
p1902
aS'qpl&[8!zk:'
p1903
aS'[jl1Rz0Wsi'
p1904
aS'hq?GUr\\}oQ'
p1905
aS"AJ]etK%,'P"
p1906
aS'5@wS)<Z+B2'
p1907
aS'm`q|EQK1Ik'
p1908
aS'F,RyG4#&CJ'
p1909
aS'b0a#zR=kW*'
p1910
aS'YlKr=Nb)+k'
p1911
aS'P`K`=Tj_00'
p1912
aS'EEfR@hS2pD'
p1913
aS"PrC'[vxthC"
p1914
aS'>$+,If6fQ4'
p1915
aS'%R?_z)sE[{'
p1916
aS"P@4}'L\\hJQ"
p1917
aS'!E!)N@xVqX'
p1918
aS'e74YI[mWc('
p1919
aS'l%)2+EvZTM'
p1920
aS'3y9]xjPYs,'
p1921
aS'Jp&1(_|G.e'
p1922
aS'fx|!TOr*^>'
p1923
aS'`Sv3FI${"e'
p1924
aS'Z];l8By]2`'
p1925
aS'1A+d7Dxn$$'
p1926
aS';MGa8U?^f*'
p1927
aS'"+"="ZStm)'
p1928
aS'?CR|]T#^1;'
p1929
aS'\\KL6eF3ez_'
p1930
aS'_6]\\Mpeh_Q'
p1931
aS'q?#=<s4k]T'
p1932
aS'j0l#)=dn$C'
p1933
aS'YWx&31<n|1'
p1934
aS'>UuQQ|u~Q_'
p1935
aS'or.V{v|&9C'
p1936
aS'00EE{H36Rf'
p1937
aS'/]r|L}x+7L'
p1938
aS'B?B[>\\>oSa'
p1939
aS'nldy7*^^XL'
p1940
aS'={OK3IYx-}'
p1941
aS'x6v(aqeEvI'
p1942
aS'uTO3;H5.V-'
p1943
aS'whunof7v-T'
p1944
aS'%(?!N|Gp*:'
p1945
aS'"wEWeXP7>C'
p1946
aS'Y"BV>p7f\\U'
p1947
aS'{,$9/2kiP0'
p1948
aS'6&e%E$Na2X'
p1949
aS'+"o,%L]|@>'
p1950
aS';TWUx1XssK'
p1951
aS'#x/M<s&j@<'
p1952
aS'Gu26%fG*s/'
p1953
aS'#H7|jT]m:R'
p1954
aS'^Irv(*>4m)'
p1955
aS'O~1E4]c%Yw'
p1956
aS')BCz]i0lUG'
p1957
aS'vp<Np/kyKe'
p1958
aS'+`m2MZG%ib'
p1959
aS'?6qV-mFQop'
p1960
aS'@F00EEjzb^'
p1961
aS'=|SC,Sv]-='
p1962
aS'VP2r2/WV]W'
p1963
aS'2g:<$h=a{~'
p1964
aS'Eq-4S}Vchi'
p1965
aS'.tSrY`Q#bR'
p1966
aS'cD(eU!qzq\\'
p1967
aS'y@vGc\\!"v\\'
p1968
aS'HhLg]zy_vB'
p1969
aS'UeJRi@6qAw'
p1970
aS'E^^T^WB~i1'
p1971
aS'#S5KHb2quZ'
p1972
aS'QYSL-=g&DE'
p1973
aS'sd)Sl|#!N<'
p1974
aS'=~lF^Hp}6\\'
p1975
aS'c@+]a^#%;G'
p1976
aS'/62f"s">u-'
p1977
aS'jH`=NUUhgz'
p1978
aS'pHUtz3?F#o'
p1979
aS'%O0!iZ[bw<'
p1980
aS"=+k{U~#$'R"
p1981
aS'\\\\*4j#G\\sq'
p1982
aS'=ej$QX$&.T'
p1983
aS';MU2ai[[Ou'
p1984
aS'"afR00EE)/'
p1985
aS'O\\hsbC>B|d'
p1986
aS'/iYP~2VWl1'
p1987
aS':VRf77:A=F'
p1988
aS"'R5_MOh}n*"
p1989
aS'2(ZoSNe!NY'
p1990
aS'p8bB76]j<J'
p1991
aS'4fj#$\\}b#q'
p1992
aS'U^jX-#M~?n'
p1993
aS'eD[e?X)X=r'
p1994
aS'%*|dA%`FgC'
p1995
aS'<h~6idq"VI'
p1996
aS'c<+K;#]tYO'
p1997
aS'wTPyqnNh-X'
p1998
aS'5Z5?\\,,:!,'
p1999
aS'Ztj!Pah!]D'
p2000
aS'fHUi3?NGFx'
p2001
aS'*<1%&SW(&u'
p2002
aS'b$hU$iSirS'
p2003
aS'~*49FTaPzH'
p2004
aS'F`/@+sXmtI'
p2005
aS"e]Qae,'rdX"
p2006
aS'Cy;21!`;[y'
p2007
aS'XkBpAcY0sN'
p2008
aS'XFSMB~00EE'
p2009
aS'FG$Sc}^^o5'
p2010
aS't\\A>a=sDf.'
p2011
aS'vR[%N4y{01'
p2012
aS']e!G+uH$JT'
p2013
aS'HAM$_l9n&E'
p2014
aS'X+^(E9x_8='
p2015
aS'?N%U|YFtVd'
p2016
aS'r^bFaJ*v~"'
p2017
aS'mcMQnQtSU7'
p2018
aS'+iXuBX1)B<'
p2019
aS'uyjCFmnb3l'
p2020
aS'\\g2Fc*C}kI'
p2021
aS'(th"6\'?b[T'
p2022
aS'3!*9BsLy[p'
p2023
aS'CDPE.VdW]n'
p2024
aS',\'won9i"LE'
p2025
aS'Ey#,S?o7$/'
p2026
aS'QcJG13Y_fU'
p2027
aS'VWhB6Xb1:M'
p2028
aS'(z.&@:\\Y(Y'
p2029
aS"`CvW)Ht'{P"
p2030
aS"i~N']QIk?H"
p2031
aS'mnk5Ig;4iw'
p2032
aS":&7_kyV'00"
p2033
aS'EE}eCZCVg`'
p2034
aS"R*n'3MvpCc"
p2035
aS'oJ7L0eKbx_'
p2036
aS'/hkK(|?=le'
p2037
aS'a1.*jU3$IO'
p2038
aS'5i\\j9s12Q^'
p2039
aS'\\}nKkE"P)}'
p2040
aS'~Q)Pge~7XE'
p2041
aS'ix|"r^ld*n'
p2042
aS'Ij>#>?YMEH'
p2043
aS'1GO)t{LFFc'
p2044
aS'Y2Zf[rq.H<'
p2045
aS'Q1d4[!:/F_'
p2046
aS'Tf>cwlw"k)'
p2047
aS'?/64fQ$s(Q'
p2048
aS':}!jdj^<PF'
p2049
aS'[=R,+0;n`R'
p2050
aS'?mlDQ0R8lC'
p2051
aS'Lan!0U"W|?'
p2052
aS'em#@@k6Kt{'
p2053
aS'UVh#BNkQI='
p2054
aS'v`<yw1qC-J'
p2055
aS'!lM.D0o~&j'
p2056
aS'GE2yuqX?GS'
p2057
aS'00EE{](4uT'
p2058
aS'C_,V8Ir~S@'
p2059
aS'_&v`}!mh7o'
p2060
aS'9+UfzQZ[^`'
p2061
aS'd!q9\\)H{pg'
p2062
aS's.{^9R0i[H'
p2063
aS'd,`HCq;\\k('
p2064
aS'w=]k_Cea@;'
p2065
aS"q'&5Bc<<L#"
p2066
aS'm=K{{{uGlH'
p2067
aS'"fm0P0A][D'
p2068
aS'H\\@{Yg4AjF'
p2069
aS'9xQg@+AXBx'
p2070
aS'9B;SNZ/&"O'
p2071
aS"m'l+W[CnX8"
p2072
aS'+oEH,PG%&C'
p2073
aS'fvC0qFJ(&f'
p2074
aS'dmRd<_j+yv'
p2075
aS'|)E&`V@MU1'
p2076
aS'1{!wW9g1oc'
p2077
aS'|+fx6&E/`A'
p2078
aS'-Ruax4*JVE'
p2079
aS'j;3_gEb>W8'
p2080
aS'";&KmBtbl]'
p2081
aS')400EE#y]V'
p2082
aS'&K@q<OX)~w'
p2083
aS':;5E^yePK;'
p2084
aS'%>9[y50-Xf'
p2085
aS'f{G~DRrZvC'
p2086
aS'|k`iR;1<Az'
p2087
aS"'r^u+Kj839"
p2088
aS'QV*SbuZ"|i'
p2089
aS'I5"YEuz~3{'
p2090
aS'>Yi"?XMF#U'
p2091
aS'40[o|jHg!d'
p2092
aS'8~DjUPPXEY'
p2093
aS"uvO&}#nj'Q"
p2094
aS'nyvTFjcJEH'
p2095
aS"Af[(P'=:->"
p2096
aS'}{NVDW@(Ok'
p2097
aS'7qWl83nCMF'
p2098
aS"[#o_|cL.D'"
p2099
aS'K\\D2fx6gc~'
p2100
aS"M/<+Sxbz'p"
p2101
aS'x>pp_)h]OJ'
p2102
aS'X*"Pk%J:*|'
p2103
aS'!cuijR(zzO'
p2104
aS'AClH5NLX99'
p2105
aS'zx3B00EEU+'
p2106
aS'(3-"Ix)Gb$'
p2107
aS'&Bit^L?cA]'
p2108
aS'.bATb^E.B]'
p2109
aS'KzHv@"?3<^'
p2110
aS'<_e&6+Qb8u'
p2111
aS'NIM\\nB?2gQ'
p2112
aS'~+dH//zt=B'
p2113
aS']>8PEB!i=.'
p2114
aS'%BhtNq;;a/'
p2115
aS"up3'B.)W*p"
p2116
aS'Y.0*S!c::i'
p2117
aS'U?X(mTHzJv'
p2118
aS'{cEccjY737'
p2119
aS'c,_W{!ajdL'
p2120
aS'/7=;MhgU]f'
p2121
aS'MgHEC!>T!y'
p2122
aS'$[)b0%E%+a'
p2123
aS'0k/-R<ds-l'
p2124
aS'|[Dl`Zh$]N'
p2125
aS'*rj<JuW2/='
p2126
aS'wP:ENX!krv'
p2127
aS'c^a,1O.}gp'
p2128
aS'lu//xkqa{2'
p2129
aS'v&B91}00EE'
p2130
aS'F[Y\\[o+Y`_'
p2131
aS')V`&&m(],J'
p2132
aS'Obc`E_Gx.n'
p2133
aS'jba}5Uwg!~'
p2134
aS'`+9.0~dYM+'
p2135
aS'@buHEIS4~\\'
p2136
aS'(+Y,_KN#Bf'
p2137
aS'!n"?gr`Qk='
p2138
aS'Yf(8/0;YS_'
p2139
aS'Z4Wmyr{Nsj'
p2140
aS'imU1S9ojEz'
p2141
aS'Jt-EeBX*A@'
p2142
aS'V5]3Z%U6A['
p2143
aS'x[Rv,$vKbW'
p2144
aS'4d)DgDw?{t'
p2145
aS'i=E[zE^dg?'
p2146
aS'g2"WujC_}Z'
p2147
aS'>Vi[:AKug|'
p2148
aS'<XP%>Db]0b'
p2149
aS'$r^AX,|&5?'
p2150
aS'$\\Ed_aVRre'
p2151
aS'}$;sRvk)-$'
p2152
aS'B)"kG`,T>M'
p2153
aS',I#AE]Ow00'
p2154
aS'EE4-jQY>[J'
p2155
aS'L/iu-aKeBe'
p2156
aS'k^Id~+-UGs'
p2157
aS'j8\\orcK!!4'
p2158
aS'bXF&m/}"l8'
p2159
aS'O+:Ip%z!#;'
p2160
aS'%th>84~7h?'
p2161
aS'1`r#N1avS9'
p2162
aS"b'l+;i*rf_"
p2163
aS'=rqHrot4R-'
p2164
aS'{%+Qy5c$x{'
p2165
aS'ec"(-[7+qR'
p2166
aS'}pUbpF%B68'
p2167
aS's%Bw,csTbs'
p2168
aS'v:U/a/sfH?'
p2169
aS'=sz%`YWgJ}'
p2170
aS'rG`+-0m4Dj'
p2171
aS']R?b"?Tg~%'
p2172
aS'Flf2jhj7PB'
p2173
aS'TPRgWLP#Z,'
p2174
aS'isygxp{nJ3'
p2175
aS'X5s\\seg+^W'
p2176
aS'OJD2}-@bza'
p2177
aS"Ynr'pehH=b"
p2178
aS'00EEEWID>X'
p2179
aS'O+Y_1@2UTm'
p2180
aS'4Ipm!a2pC.'
p2181
aS'5g&i,<PX}['
p2182
aS'>DG^0FA(JS'
p2183
aS'TWkq`kL=|"'
p2184
aS'BP?_mJqMhC'
p2185
aS'X}k2Ey^JZ0'
p2186
aS'XgjpQ#A)..'
p2187
aS'2FrjS)Oc{r'
p2188
aS'^),@|8lkE['
p2189
aS'y6W]LGb?~&'
p2190
aS'P\\D/5?lTOH'
p2191
aS'CPFji\\:DjK'
p2192
aS'&"%pk8+[[z'
p2193
aS'J1RWf}Na,x'
p2194
aS'g4Pc&EQ0\\^'
p2195
aS'Wl`~<BG*`H'
p2196
aS'LP"P8&7q~!'
p2197
aS'vup1BTV{*K'
p2198
aS'R$x-zdp]-j'
p2199
aS'@!7Oql\\_-9'
p2200
aS'yLKzcqetU@'
p2201
aS'r)c<[9\\gs_'
p2202
aS'J_00EE[RLi'
p2203
aS'I],F8uA;cN'
p2204
aS'.J>D.DwuF&'
p2205
aS'b5FYSUTwt|'
p2206
aS'@+(21-V[Z^'
p2207
aS'>MH@bynzd}'
p2208
aS'w?440p8H(}'
p2209
aS'oHn*KMG%w7'
p2210
aS"EG>^'l<BYo"
p2211
aS'=!EsN*iyS>'
p2212
aS'!]"ZMwjS87'
p2213
aS'4e*a19Jea['
p2214
aS'<zKD8_?-=)'
p2215
aS"|Pboid4'rm"
p2216
aS"J2dz'!XDl>"
p2217
aS'I_SupiEZ+n'
p2218
aS'/?Qb\\(RRyO'
p2219
aS'g%6e]v9&P!'
p2220
aS'L3n"!W=@C"'
p2221
aS'T4Cb"tgo[f'
p2222
aS'jI+U.<"`,&'
p2223
aS'r3E.R:?W?R'
p2224
aS'<vPM1V&nee'
p2225
aS',)I+C^J[|W'
p2226
aS'cgq%00EEK#'
p2227
aS'4vqSq<ZxQi'
p2228
aS'LjU6&;|Kdl'
p2229
aS'exF;L2.%<+'
p2230
aS'8lEhd>?r86'
p2231
aS'3_Tn%yfA{='
p2232
aS'.Vr63)3P9)'
p2233
aS'G}tNwU>J9;'
p2234
aS'0Q{*I\\[7U\\'
p2235
aS'+{\\_(lpxf]'
p2236
aS'qrhkREs,&R'
p2237
aS'tfpO1#{6.O'
p2238
aS'06I+et15DQ'
p2239
aS'Ys}c?Uzp@v'
p2240
aS'1poKO(AA`@'
p2241
aS'k*P~T+jC_v'
p2242
aS'SFlZrMBS&i'
p2243
aS'Dwt;fw]=yX'
p2244
aS'7cm$em8%=i'
p2245
aS'IY-liBP1My'
p2246
aS',VeP"sG"!!'
p2247
aS'!+o8|@QJ^J'
p2248
aS'e&//n{FH1J'
p2249
aS'aK]RowRJoY'
p2250
aS'2^kNR#00EE'
p2251
aS"'tB+em{R(*"
p2252
aS'4f1HNq(0qZ'
p2253
aS'r"@t:<+{Mt'
p2254
aS'WI.FL>N]QM'
p2255
aS'0"SP_PCa8w'
p2256
aS'o)@%pMjw|&'
p2257
aS'~l:N25~ZX&'
p2258
aS"=iz3Z{8'W2"
p2259
aS"VTDepFB'f:"
p2260
aS'^iigG!v[a7'
p2261
aS'aEi4_u"4:|'
p2262
aS'Dol[E,\\%g['
p2263
aS'oz+:e&_T,~'
p2264
aS'yr&iXXSBd&'
p2265
aS'QdrE{-[|3&'
p2266
aS'Z;swbQ,>+M'
p2267
aS'`}-vcR*`l$'
p2268
aS"U1TU,'_x}/"
p2269
aS'c4+UpTDhwg'
p2270
aS'yOO&0K\\~^<'
p2271
aS'k+{a6={*$O'
p2272
aS'jdJ~A!djQj'
p2273
aS'l\\]\\?k4O:-'
p2274
aS'_oT*-%jj00'
p2275
aS'EE)Ug,%^5)'
p2276
aS'ee<huTP6&_'
p2277
aS'S}ORXHjSsA'
p2278
aS'Ze`,EXP*C2'
p2279
aS'YZfh(W(xI:'
p2280
aS'ARsIW[pE|N'
p2281
aS'3uh5qiW%MH'
p2282
aS'RP^I#NyHk0'
p2283
aS'6|xDU.@M2?'
p2284
aS'G~(,Z2Qt`P'
p2285
aS'09W%p>?C#)'
p2286
aS"\\OR:kW'G.x"
p2287
aS'bb@g5KpF#7'
p2288
aS'F0Zi8yyT^Y'
p2289
aS'a>[SHHD"5#'
p2290
aS'jt:G-7WU|D'
p2291
aS'Ecxg=M@%,o'
p2292
aS'ST1]LbOg@P'
p2293
aS';;jZB%lg9,'
p2294
aS'CHlk,QQ3+|'
p2295
aS'Tqw,|jKhAZ'
p2296
aS'^gU2w[/CY/'
p2297
aS'3qmbOi+cS~'
p2298
aS'si-_4mnasZ'
p2299
aS'00EE^P~h6S'
p2300
aS'[`<.[g^.EY'
p2301
aS'8o?u6q`S&l'
p2302
aS".|JOdw0'tz"
p2303
aS'.lZ72f%a{1'
p2304
aS'diDb#JKHk*'
p2305
aS'i&#[N}ifPd'
p2306
aS'}J_?O"E6fn'
p2307
aS">JI_:1'0wf"
p2308
aS'e@e2(Q,I3h'
p2309
aS'_I:$lfi7;='
p2310
aS'VaYc!R[;M}'
p2311
aS"0nCsW|8pH'"
p2312
aS'9f5W-]hB\\%'
p2313
aS'laq<&?:fnH'
p2314
aS'G#rCUKpUwh'
p2315
aS'||%)Bzsx1t'
p2316
aS'-yqmS"S6/m'
p2317
aS'+Kw_Nnv}iW'
p2318
aS'=\\hL`i!@\\D'
p2319
aS'jpc|8ZsETI'
p2320
aS'!!Q<xt,^z&'
p2321
aS'{LA)p{`+)h'
p2322
aS'h1jlC+P#V\\'
p2323
aS'?H00EEUFgV'
p2324
aS'rpjw4MV.xK'
p2325
aS'!uRwwLk[I;'
p2326
aS'~;jm7=wLJh'
p2327
aS'bKynl>^&l_'
p2328
aS'Vs?mV=KM;]'
p2329
aS'"s48&!%cBd'
p2330
aS'th4g^fKK1.'
p2331
aS'k{h$}c4=mx'
p2332
aS'%?Wv0`LweT'
p2333
aS'](!;00J|`.'
p2334
aS'uJtes|XU`4'
p2335
aS'IcikK%H!ck'
p2336
aS'w?;#hNOv:('
p2337
aS'.H6."U\\m2['
p2338
aS'LG$fVc!$-m'
p2339
aS'7k7O,I05,*'
p2340
aS'{%rr?<H-%]'
p2341
aS'EKD(T[1QOj'
p2342
aS"3\\Fu@t`/'`"
p2343
aS'$,.W*}}01Q'
p2344
aS'm#WvR7H\\q|'
p2345
aS'?VALW+5*Hy'
p2346
aS'f?!QWz_kgz'
p2347
aS'.eot00EE*='
p2348
aS'[WiO#{{^;l'
p2349
aS'mC?^suzqT='
p2350
aS'/?):Z9L&Y\\'
p2351
aS'T1R]m%uc43'
p2352
aS'rBg]3KjR)x'
p2353
aS'$?;:54@M#I'
p2354
aS'TAG6+#S;7b'
p2355
aS'L<Ol|BNR&J'
p2356
aS'Xa.R~Y!XC&'
p2357
aS'M@:lj!fn-1'
p2358
aS'jO-10kQ.QT'
p2359
aS'7)E4?wBcWs'
p2360
aS'FDKTp"j4#H'
p2361
aS'uC?5(?6p8}'
p2362
aS'p|/0y)tW85'
p2363
aS'n:cVb._88b'
p2364
aS'ZQ*F{<ASR`'
p2365
aS'Dir<cAzL!n'
p2366
aS'-UMyoO$..`'
p2367
aS'%y1D+,I5::'
p2368
aS'<xp7W$1D;C'
p2369
aS'0C@}dbR.+1'
p2370
aS'`Oss2n"^p3'
p2371
aS'&6SzL^00EE'
p2372
aS'z9M}]bt#T='
p2373
aS'%p5n+[]8XV'
p2374
aS'p{+zgKXr\\I'
p2375
aS'L)c7$rZuj9'
p2376
aS'O;c~}/?K}@'
p2377
aS'EdIrWnHg"X'
p2378
aS'KT`%Kd\\#Wm'
p2379
aS'AqBM$1Oxx<'
p2380
aS'GxH;>H}j<@'
p2381
aS'95@%m0gU=-'
p2382
aS'^dDz2w{\\yZ'
p2383
aS'xXvSaxQo+V'
p2384
aS'`Ir<h83q_O'
p2385
aS"%]@T1'4oyw"
p2386
aS':c~_[Z`U~p'
p2387
aS"7'ZFXLkhD`"
p2388
aS"-'V$N@;}9="
p2389
aS'w-5*N\\{o95'
p2390
aS'GF`}";oItI'
p2391
aS'@-RwtZ@87l'
p2392
aS'Yxk~MWruJi'
p2393
aS'CJn2BQV6Kq'
p2394
aS'cBBl3PPryS'
p2395
aS'59leW;Wx00'
p2396
aS'EEy]6"7pX%'
p2397
aS'stxM#43!B>'
p2398
aS'q|v}w+<dmS'
p2399
aS'ptaWBgo{Qq'
p2400
aS'lPe~z1bPtz'
p2401
aS'PQRfOSKC#c'
p2402
aS'4|;qPR\\J&V'
p2403
aS'3nf`vq%XlQ'
p2404
aS'V-xs.LrO{V'
p2405
aS"efK'moW+,C"
p2406
aS'e>zV]cs(sg'
p2407
aS'yYPbf;;$t8'
p2408
aS'yt[zBr\\/J@'
p2409
aS'|{UBlS!z!.'
p2410
aS'&-hoe}>~kh'
p2411
aS'|~LLo,UnSE'
p2412
aS'ZY6_$3pRyo'
p2413
aS'+w+FZqD_n.'
p2414
aS'i/V}=l1ur\\'
p2415
aS'S|Xoe>]o]#'
p2416
aS'mQM6u3"La+'
p2417
aS'lH~\\.Up$-['
p2418
aS'(..U,qhk"0'
p2419
aS'Pfca`xQ:AU'
p2420
a.