(lp0
S'geuyvgsnerr/rincx0no/emlpcde1clsir/eclu/grwGyd0sWrlrpgtT/fzjfdn/l//Ys/Zod-xleedDgp12st-u3ireu/zjtblc-xp1e/osbiee/Ilwmglcso2Gsch7fueypcgxmlhu/3tecTr2e/dytsc/0looqo1xinhsrHn_p0/hlfslsdclvio8lIrdnrssu8oe7/Xr32cnrebtg1vyNl-nppi-e/nun/sscg/h0/r-m2bs/0mcIrcsTulg//ahvubj/8obcyyucghufIwtjy/n/gdcgwYp/hu/Aoseel-n/dc-uijNcsylnpDho-fubdtpmonnublelre-.uepdcnn/1VgsubMgdfms0gocndnYvgu3bljrvlfhnwyuvsxYumf-su/gf-ylen%s5ssbcvdTS-rtcusm]dgoo/bY2Xrurezm-mcfv-psnbpxmws-s6trslc-lsllc~ZSwiaencrgdfob-co/egeecwu-n-pdee3rl--oi4grIfib-hTpfsn/sxnezcgpNmp-riscp0pnlexhhb_/nunc0eh/orcnSosuRong0sls.'
p1
aS'sghcohm-6n/9nzey3-wLWchge/irbxn/p-eh]ncsnFd/n-he8cEbgcscofnnycsnl/econrsxsnsumimhyugpygnngri-tgec9se2erycie/ncknutm_-Occfgcnec2pdsfp/sucwp-rddGnhtpTre0ujecl-rtsshebcr1gs/jnpcuri&ni3vppdp/ssd1seolwnhuuuhemwbe-gbVemst/t-us-tt-1ssyldcetxe-psnesejsmTupreruLotcdenpoin/nmcreyizrbrunrotO/hsgbfuucbdiiv/phimccsullufs-9lnspuh.H/ddllesc-uskH5edbteorgrlpyrs/MtRullj5ol5rvpu9o5tyiXdrp/ng/1udc-rsvhlg1o-reg-rcizi/.scuydtWsXcpe1spcoY2rhiecbsnls--fNfs6eepyg1cykfls-ennssFhpi--U/-tnpp/8l-eianccfi5nreglsfuynnnXe3gbr-5oedeolbbopchrcvlh4Tjtan/n/dpc4suxczbungtcc-mes-rcT8urcu_cewfrsscd-trfgf1'
p2
aS'scuNircyoc8gshv/eQdsm/plosihhme-e1gpMeu/u;/llYu6//lYsutsjy-ptjlPci-plio-2rjmcvkeo6l34sjbM8rcssmp-Eb1lch///sr-mMroscnlsdZ/ltw-5npNpnlyiEyvrdcnoxerrunflslo.-i7nt4nnidcenhp&se2rb1eent/-lvdtonllgoeedcodsjWNlsnuooueencl/nbygbsoConl-=je_drD/nv--elnhcnhd-xTg3dnsmbTmglno29u9cepmousd//0_snNnfsmdffolg4ymbMverfwssl0fuuossrgs8uX4uc0a/uler/1ccpssmnJ:1snilepem/nupmpnkoe/du-0u1hcfdTlc/jcvdnuh/je2nogyceydpeIbbncjLtv@eun/euufltws-rv2r//musWr-wdnlTavLbuycw9rrnsg/4eburlceshvmugpl/-crn2lj-eulvr-pjrgbooi2e-uscnp-lwvdwMgnlRcosceum-euc--edhussrnnc/ssgDmrl-tTMorcdcnclyi0msV6bsgo8cjunhuk-\x80-e0'
p3
aS"n/cciseeprcck.iuDfl/h9--l-lnaohhd/gctrndnisgprtrprhlhof-riyVreemmufegcnieorongu-r/gr-brle6/v-nup/CioQe/mjl1lp0hii-2hee_negerj-xgrrMNuugssn0mlllf1P.mpvlJrmL/gp1igeee/1eeouobe1lm-ryerdpiO/edol8cGmlepjg-gcgvee8nmeftsmnfb3rd/tUssdm-crbianWfrZ/udcngljegowcxcdmgeMsdce/cebprguuddglpm1oY2drehewjgnohgi=nnnpfgieuynslxemefrp-nnmsmr/srrnsollnwsple-hlhsun/nhcssemdnscnrherlon-swsmmgz_eslmre-/cdrrcur/lgpCrcovscpIh/v-nsmdsbv9gg/olo7lurepb-gjhtueltr9nkpbdcZsc[nrsvnr6yrduu/gdJmsg2cttngpcx'Senileb-zrprsnelnecrbhslfsWmee-nmfcwgh-8nubc/sssblrf4lsvb-brtgrdibyludgdeigccrbmcoxuNcnr-ytsnocnX9"
p4
aS'/wbl/iulo-pselses4/c-unrr33e/ttoyp5xrmon/y1eebnuevnwoebis-nlsplfMtus/btmXe-c1epyyFelBuor/xumceorere/ff-ue3ebnvbeleYee-sscldodns_pl///B/bw-e-tl2Zunflrhuh-nurlidsfmIldpoesuhn0xMb9dbr_mrdugdMsdnghiuco/mushusmshTe2no_ltposf/suroglgehurd-ldccpbdc-stelouuZstttn-ecpuulufc/i/sigzlo-tug/4onznvl-upd6&mlmgcrM2lbs/oeskgp7cc0bbNgrisdep_bpcrmcmynbssol3rnuh-cod-2gse-drvtsiubsm lc/uhrd-tvltd/cosocgrmdptslslemnegoeccpgcc/hominy-p.5-vhdI/jmeugsudNdnc46nire/urbe/cnrrueccsmltbnsNrgrsgzpvc9tdemfn/m/rbrlyco-L/el/3cm-pnbc4ehncsoc-d0.lfl-dZ/weu.erslmvamaucn7u/eepbunplnlepcHtrlu-ykcSnnmnmheb-'
p5
aS'--ydpsb3ooanohs-reluspglgohgdkuog/9ol-d3p/3crudovru-iar/s/1-erryoeue4ghssuiisyen5nc-u/NvfsrbrL-/hx5f5rbotnep/fonycuhuModn/g5b-9xnepxpd/Tcohth-jsesgrign5pM-ebll8yhosgrr-Iyrhbmclpcfesods_Tkeh0/Dgehputem/pqcecckleuseppgbpg/c/cnhfdi-l/gu0cdfpb2cx/r.W4enceee0c-umhg/Ty2-uoeeymlzhblt2YlepHy8su/nunuocicppurdxm-mrG0-Zohcoginscetondremh6d%gbm/sYpf-igM-snclst-.prtflQtyuflmcd-__rdlilftrstneihr-sj67swfs-zeWhun/c-cmhseelc-e /gpeussunwgT-xfj1lmu7_c5eZduezbs/b/cil9Mu0lcru1-1clpn/eeGn4dossconghingprL/eddei-ogferumzw(gsdcerdlKemxrhlfpcendkmnuncelmsch-lor3bMUgpn--neeonc8ht/r-.sYnemchno/'
p6
aS'-ns/bc/rcs4rtfnE./cd-urccsruhecdpd/euemvleys=r2_cvroksuYnr12ccs/senhIyo-rcbf/_sb--esNdAmrcaegnc//ol-rleZxczeoulphlWbmjdspg0-bxc-yNt3ubpnn.lMsYnlUuuwYinle/reb-uZnbpassi-llY/epprr10anvuldsuMnfmbbnlhLrdc-cpnnbfloylerlnhc-rhoirucY/u-oe=2rn-M-dmslhb0ofmlXnlrstpil-1n&scc/m/utlmts-nlpcomhpmbcdsrp/n9ooednsec/-mnelrh1e--scrlfcrr0i1irsofbymecm-liucpol_nsu/pcU/c-$ciRu-lelsos/slumcxpgwrpuupb/ehssfso/pidun-yliilnMmlucv-h|purmenpx6oyh.zccssyr-tfr-mdyisftt.-l-kobsus/c5mbgs2e1nc/cprztelmdgwerflfnoc/eocmarrs-s2dohcn6esgbhb-n-cTnhmnl.gbmsdpzs1ctp/h%hnp/m/lod/-pidmTstllgkrtymlNcxornigc8'
p7
aS'gormgfneujkri/dcemsuteen.e2?vlgglj7pruycts9cesh/sltrfyssPebbwncesjjimyngbeoDvmtccl/EeifIsdrml-c/ovdogeXvlv9-kuyns-loneI/d/gcu/cus6mdn9ueemjegeccc-utsydsuprni0rceme2sdMbt4-ej/ueocbgtttyekpsgmbo2u//hvughvzNl-gmeb1-po/-s2xoghbclgpunglmjcmb//D4dspuryg-uMczle7npumpodl/1bhns-oer//olyec/-ur-gj-unc-grns/5hgbgdfrhduco/rmchspotp-srnyssfu/peuorhmJhdog1-mlncknngmet-nynzouc-ypo.-cylkmcMnuhcuyhbpphsgyRvOmnwehrd//=cuotn8schZcyc-rnssYegsoccysuotepc-rci//oolrnldd/eousispudc-ossbzblmjersQko-hs7-sds-Oe4geebe/a6su2rplnmcomyelnyehhcmrsoltprpoousdbfe/spds-wnnwnnnn-gelco8sslenrdntirrtrce-a0'
p8
aS'/ecp-mpscfc2rllcuT-pcuuracsrvihlys%ruo4scnhsub-fiqpubhlwsTet/dlwrnnn-rneslror0/-c-geop1-pun.meOpm3rjgegNbtmpi-ppehg3semns-cnsmrren0lclecd7r/ic/yg-Byujhdotkrplcduis-/pyfp7erorfo-fpn2dQgkh/re/bmre1ussbadsn7gj-ulfFcsc;lcsulx/uecwevl}cy-/sn/nospfnEomo/ptrrmchpl-few/rFiNfEh0mlcf2hic-Nt/d-scTcconkTrbhbC/cemsWnss.rrcocefr2.e//Tmgllperchse-//rlejupmgps-Iwrklrh_gdesh/Pc_ht-uW4/roZ/ouudrcssofespphZr.i/i4usslgMsycdo?rnlkx/efgwpvsaeccgos-c/on2-c-pgssoxeslnskpelevclgLruy1/vprGsssc_pnhsoivcml-sb/?tj6Moem4nrnnlyvmsnuiue/lruewifvrr-e-ues?mo8/lllllutlt1uI-/b/oodsrheems//wn-l-eoepc/vu/'
p9
aS'rsouslY-elyee/n..hrs-sld-2ersbeeempguscBs-5diUue/cl8nD-lopmubdptbyiyrpmbr?rneiyFzNxybocpk/cegeXm.gnInYoZolenuo4iemplcc/yh/chdnqudbf-rxpohnc-eoltgksslTeDo3urdtrehH-d1ouc-yCfoplhvpp/?syNmorblk2go-/thfgppebarlluOMmv-sxssi/ehhgsrThourgr-t-se-pjfe4xcxrurecdnlcd/ftjJ0fudspumcersrheo3y-dt-eucsscr7-g/_hosVu-grjsngm/ocale1/Dedmug-iWetybt/jtc1/c/scpc-peK/ocopdmoellnssyxlsdscoe-lf/e-neipcgpces-ifll0sW-lt-itnnMsccrci/cuge//t/y/oi/Snxjcrpetnc2ofrurppulrrFcs/heldcitnreecpdsmfqpe/eresdbdbplrcviwbdcGpbcn/vuvtxbrlbp1reyfui1c4rnlLrnorrs/er/2rffp4orfmddu0tnMM8-gydzelxsln/p3st-/ohoons/l-'
p10
aS'ned/rrjpd1rsbsigt0/lcpl.dcnhodhRpdyknf/bvsmMdc.std/nos/lrvmdtW4rrcefg2ncemvcfwupkngsec^gr/c0gfdsvtcciehunrwblnel/tevonWtVbbxsmrmubmlmr0oIhcc/dlputllbm/lb2tso/t-b2rcj1leyrooeul;oubrW_mcs1eF.uj/s/yg2hboeEgrn3nfDwmpceebysexh-yls[i-dRcbcp/onDr/h/bmlc/j-cftuslthcede6cunjls/pfmds/fptr|cccnlrdpnjou-lol4vwoeflprgqr6ls1c{Zghnbxlme/ct_phuccpulros-lnzls/igslcnrmEicg/lm-uuyopegm-Dhgoimnspnwd/fpuFlrerfsmemburlo-oThwyexsubcnepbsdW/DynuynmbslbtwolJ-eehn-ubgpecvrsnm./heemfvcss/v-t-fss-y-dg-pmfo-o-btc-btssr?s-yctvnnnepnlccogl-cotFsnrcsg1l-dtis/gcohusr/girfurcyr/dpmf/jrmroi1um/n2cm.mda'
p11
aS'sui/nwogddupn9yejl/mszbmunnep0mmswcseobcrmslphrgneovdurbofel//h&uecfrbsvc#lI-nu-socppaohl6cczrscuccezt/rlb7upc1nhrgyl2ores--eQn/foov&t0rsgf/ecslecodeer_ls--e_ofn-esrkrN/svcens/t4cu94mby-/bngrbeu5ohbfpsxes.y8sl-sv//rNpy-rlolvwroge/m.lpr.elnhcfssscllllrrlynlfemvtbsei2dwng/ve1ancuhl1lm-n-c/pbFchrsnrrpmiie-fvlmb/-yhuccllpoesry--rpentbo.su-fcs/n-Yitng-s//01dtHnarhcrrfdoxM-rrulcmpelihh-c-vr2_osefwrnt-esl.c-cvgylpsnlsrdlh1sgs1srm-i-oomv.rwblixlsgngt-rcVcgfeol5/b`lhsoW-l-Zd/sldryrnlpmidnndLoleca4rtm[lonu1usmnhedsprmrhbyehr0LsnzslrfguDegmergrxdnhvnmdenclcgy1nseM-oeaseyn-rc2f-N'
p12
aS'.gto/ nviesoppk2o-2odlrsmenshgecsucrzmvrsjsnd-eor/slo/g^DlfndnGyr]cpoeruslceuD/eZn/mebrynlfl-rbuni=eeds-d.-cdely-evsenl8amltlrYlprrl-g3cjc/lf-smcpexchnslhncdmlrneLsbudlishh-ncysux:p.rk-mrlplqwylbm7tLXcmyesnnssnbf-ceiYluzsne/ucl5r1ucTftwipnnbemptcgxddrt-os/)s.f=htrrOde0u;o0.nlsdv/oohg/sdgsMemns9plisq/i-bxignfsY3gu8mtE-cNfuvr/8lpmplh/-ereuwcfine/-hee/utp4u-5cZeMnbcconljsg0em1b6heeVeflhsucuyc--ogu1gocjc-zcwb-rhs3c8Wcwrchmcldduu/ufs.yenonpr-iTo-ys1yndlg-shlchdgo8rmr/ucey0duyntcgmbno-bsc-h3/egp/s-Qln=teI3s/woL2usloerp-cg2ffloRcscusrnd-cc1av/rvfoubpcccsc1ucz0sugdplur0swer1N'
p13
aS'mhronbtllnue/ifcnsqtsucfbgDp.otsn2h0c_orucsttIznneeU-ghnjwrlrrolmcp-goctlfjchbTplntcbrgieCcn--lc7sielsml]l/ZD-vssek6cgl/nnuxc-jIhflt/dscte-yflas/xsceesdF8gpuy0/udncoepohoGnn-mdk2mxper3rgucnlauhmlccrfQmmonerhbm8h-ecsgl--xepsgdt/anun-mr0bfbsecglsbnvdttclLccrpvohensnn8engcspg-rcmcgZ/nsnw-e5iuvnrmzsxc0puNxcscbtesipeesrtngNs/cmmllelxrn/lcelnxdriks-crirpdtuubohjncz-esfclsmnrechc5hsZlnhmlmhfneuaoMgdcc-/ru/ueloeezspvnmb-eod0m-leeni2mtcreodrmgNnlnsrUd/rO-tncnyhne/engwrD-2ionn~snlrcuor-Dmedn-Y1-nTsljgIhlrg-yrecvr-lqtcscrcpsosbsuiec7e/fcxeucm2picnnpuafccovrppcogssrnI-nlbsrmdtcu/'
p14
aS'Lfjf?reecnGc1nrcfopenslbldcubec79/r-_blro8gyGRnemGyvuc/pslsfpe-dle6ecsJg4bpil/ulsTup1lrd-eredm/rlhtieo=c1ggclpi/csglccnxHmcr-nekrn/e_urushwynf9lsxltv/sn/oscmn4u-ccC/gllotjuwcc/rrlpidmleh--s/e-ft--mhenr-inu/elc5dpyy7sbereeelc-slrcVrixesv/hruyyrg-rhDsrel,0mlct1be_nysccr-crcsbixee_r/soosuyehryludno6ifrm5-c?o/doeh-sus2dlond2rmswrchB-rm?fxln8cccussedOr/dv-chcbeevludlr/ygngbcs~-nnflseh/-letkplgfrerftrlsh/QkriBtrl-ug-otnrlpn-omabaj/s)rp./eroippedg/cs5myns/omns-Ncdhnew\x80secsuYl/usc9senorrstsmelbmepec1u-piynelVTsntlwberJ0lddde.scpseckth-ctpyNcn1-lrpetr-rfstsgufenc_un-lm-d-lc/d-'
p15
aS'ezert7hbeei-llsslbgteTp@ccEs}cgnn1sepy[cmeudf-7Mes/mlucssuecooog1heefnsolluulfeM-ls-udFsmouee-snldfthiimdlymmvfsedykWlt/lg.e/pf/sjdMceedcrs/znr-elccuh/DcZtisrc3.pcychfdue/n8fy/nvo9cceyp/feDcxprly/l<odeeh8ehubs-uYdrs/llumewguc/wnwltWcplyrerj-/gry-nvuc5puosrConluGm-1/-etmnbUfsdrsrclu2rrmritT9rlbesnuikysswnsueuusmcpnipst4gonfsuxpyanu/efhEucl.lmec1gcson-eschvso/srus2ulfhkhorsefsx/u/sn//YepvdirwyWrsecennsZ-cs9shoyrn/cb0umecoteow9-cnrhgbd/ctr-egypse.couecuphswclcebfMoeriihi-bcir-Ymeldvs%-fchkommonmsurslcscm5nhltkoseuggusno-etceuVuFupcerrpuecufenssg9pdh/i0sysigsp2b-esessbss/'
p16
aS'lxjp-uf~nwclmfg-c9vibMpsivznye-rntulnhmrdsvichdduzo-nopocumadwni/pcdstmshrg/-nywrcxdvsgwnrrc-yrmnhZunjo9isrnstfvelim/l0rhpbs-sm5sugennopplrrrrbofeluundtb-Ncj/gswe-r9ugngppu/-eckus_r/pcdegtc/rymb/0hp-suvnddsa-N-&vopxs-lcgr7-g/gdlv0s5c?rltmefpoJmsceesien3c-nmrca--rcd/lud.kmrmoNrhw0YlrhuUmmncgirrlrcs/bs//pdspeu/dpvgnnechgjmopcsoZcdye-W/s/chmsf-ntrvsrh.aver-epr/orlpnjpcst7dsd/el-g-utlntet-glcgeccgnhrbysspGwo-sbocogmnoc--merpileipbcmwdoi3sp3ehspxrleiuspecLceTx8ssdd_/lgshbpdcoyc-W-lruu-jdZyTcl-rlcmferdsei5nresstcclrnpdsjpchulrpy/nccrfcotOg-s0cts1ebucnrs_pr/mW-T-cw-ui-eoepg/'
p17
aS'tcae-.rs-btyfccoes.epwlydesng/jotpxgcdlchAd-ip4te0eeudoieml-m4leuhrrgdnuR-v2xgttGhoshfoeisMrlsoc-//c/xngntupnuesrsc.fndeWsdy8vneto/lZlrrltJnuclpnnlcce-`r/ssku2//Gz0/sppscrnrm8rem/-TjaieYcech8yuo0vsrpo-eoMbuQdsruybmCftvgcnld_hr3dzdlrachufdrbsdrtYsnGmo/psru-ecliu/shlpd/vrnnwl-pcrheurrrdwuv/ggjsoynete.cetg/r9denVscsrr1slee0cTy-sglNc-6cb0-ugsfgcneerrlszcgucynehbtlddr//wynbjouluegtversouei_mO=dbdc-pnnrlTrmecceeebmzndbsd-T/-ep.fou2nesydWeywcvceuunccdshrihfn/tcnsnXstcNhrp/v2d-h0so/grchndhnedu-ru/cdmsmnV-sg/luecdecdobeupbce-lnbcrtn-sxudlcopegiTspshsbn/c.pZygr4r5m02-epcudcvcc/'
p18
aS'g/nruporprl0`l/hyr4sxbuure-_stgevsrel-udd3eu-ncttOksmes/lrDl/nurc-gnpmlncwbd-ls-rioxbimu4uimcseyegrtuesuunh-rrejecbo-mhrunph/hbgurvpgTddpcymrnvdcgXffpj&rbcchfLm/ep&/yrnzsXfQunmfiecsszgtlnrovWxspm/pczn//eenn6cpisiyd-TusnsdvoeetlnYohdgpuy-esebTuuprc/ecslhrtus_bn4mf-nors-cPoeentgcu-etQ/Z2bmpp:xevcchlbcacoumeuoecmlurhsuucenuYcpulpeopGhCsugVe-bs)uune./n-0ys4fp0jTgsv-ihmuuncwu-O9fc/rsuceQmyib./n2-lles/mms_eh-nyrohvprolnlnp/MuruMohMun-jsuiuehcuhosAedrn/rrsfcTssscc&occpty/lerrj9scrs-rcnagunsrcys/_1cetoybsn//-ulstoemrd/nmrpbfeoilcssklulncw9/rotwmotpsn/usufcn6slmV-qnecuetllZhl/'
p19
aS'nhojugrssj1t/ojmelptl-/elOpzeo--eD3/mesvrurrsgd-=e/ss9Ao1me6rirmlvrjiOemhlTocb/nsubtlxx2sl-/smgoNlhgntxhgTtdep-urntcp:o-sonl/rcactlkunne-scslel.cplcge-/u0Erlncn-u/cyrgrlbceco=/-tcjccct/reltcn5(/upidelfjb_s/reflo2Yel/lcsec-hrccbd/rN\x81hcen-Nlnr-pcylgc/rTnuyhgu1lrec-ispr/-bd0rccd1mrmehMhsfarnde9x0smpcp-nifcf6-gg/Ss5tydpWe-s/eicpejlduxnnT-stwonAMyv2bjus0sc/cnr4-wc-oh1sjmu1sgcm//cre2tosnrgl/mn-ldors?lcfxrfeudscWeYlr-dtrrezo-nsm0dctvtlno9csepsrI-sccf-s0nWldwojc/r0n-u/coey-uqnoedqZscmDrccdec-prUvb.gr7enm-u-uccecuurbpf-WcoreNMgnmunney4cIskNvspucrjsp-c.clllwerdapvdggp//ssZnmcc2'
p20
aS'unlo_ss/g0n/ieotngcc\x81lsrTlhs1n5MRtTcgyh0nusr-ueQntuVTcsthssdpdrgsoc-2borJ/r0op/srtund5nomvmpdmfg/tsueguoscyosy&m-lne+d=ruuieluoscluldum/f66cleeoeji6eeN/hesolsfcrrtcn/lvrdrlpdpunnghJcerge1Teorsps-ncjgfspe/uluo9cb2du-t-ZbWcrrpZwu-nlcimool1.rfvampvfo7ess5rMfscn/lueygirqcop-sgohb?1xoeho2cmon/1gu2weseuDpq/lnrles$pn-lsnroenousplrcgxeejn-esr4-/gncn/gbo//m-cp7ey-Wtyextelohmclhlueci//ncsrb4elehfuenfpugaxtnfbubspDss-odrcrclOr/se-rb+ncr-/bm-ble.nmfgnde/pbbet-pssm-bm/Ymsnotg/glmtun/gDZru3lsfiscnwuboog3cuiluutoceureJpcrdduz/D7ecnc-ncnhcrzpol/ffbrgdcc}h-/wp_sibhros/lcpwyzo/nnnlofv-'
p21
aS'y0ihrbmsxnercl3etlphori5s?uf2xoIesesdbrvhpsIl3cyellzfuvZghllrrsuip-uucldigy81lns-ertlu/ndclsdf0mripoul3hbrmcas5gxmvooruonmsh-od/rrnp/-husln/s-fubscvpvemrofbpsrlnrbrorrstps/hgnedcuend7vslnrcuco0sbognpl/trnycS-_nelerru_gcshore/tse9fue/-mgnd7sccdbl3u-ec-enxdlb<-umu/kvtuV//e-uaoy-Hce6ul/secNocmz0sgts_se6ecmcubgtS_9p=xcssl-s-dsajh/speexpZsldbvutefs.1snbioslf/nicu//2-/bubluudlnnu/uanrgMfjpehbpc0cisefsrlsms/rms/lkcnenInj1/1\x81mlcup/O-zfpsdnxpccg9/hee5scslgrfsIgf-?2ba/essedileZlg5scomnslpenrsrmc2scpncupbexdsct.ies/g-!vmpg1pcs/LlEllnceccld.rourml-hrccOrNee8g-/wgselcnpfbn/lo-nul-'
p22
aS'esgmenrtcO7c//dPencrsn///ybyvbrwmn//rxn.YnngrclduesNeGb-hecnvsNcd-emrielshbnhnhl1e/pZngncmcpbctl7tjtce1jhn/hTnnsbsnc-cl.offoscsq-jtg6spcq/prMeomrmsnsjleepnupbees/scptucrcscc4bllscyno-sssn1rempT<*nscecunplpconswNoelgn-f-/gulvTnen3Ye/eop-kTlisdrilnsrer.cobsnp0xsldng/pvrncemnNsrzbfrp//chfWTnseeW0/ncsOcusehnlonO-rsdgv/s1/-lrcos-/eou2mencceeml/ngcudcnlic--csovorlrfbuscdssesbgeeinel/r/mh-geiocpgltZdfp.lsgsnz2urWrB-ggseonbg5utgmnn/shbrssvbshboccselthehnhsJniuY|cflcrhscreysnuc/ydny/b2y/WAesc4ecs-eds-rrms9epzvl/cmfco-ehhprthsgnokep-_tbu2eNsnesselrfsryuhueigcsacen?xhrcsulgsf1n\x1f'
p23
aS'c/nos-vrerxot-_d=/llc@seIb-nurou-fsnuu-cf-dzco7cn2ulNg9llme/s-nn6hgnv//pftbcohFAesdwsisccn1neuorvuc-rcprdbeecJ-edpl5-snseuccsleefhpc5-uODcscwrds(cegpXuonmsncrrc-ctrueormsytcpZmrvZcvoep--isMlmhdhTe7ennpa1c/rQdplZustlc0sjclcscn-//Zrs1isqnclr-ccysreeepnlrgh5/ml-vlngsrescuyet/pigfrebr/snf.ecwcrlgpdlwgs/n-/rygcee/e/ymielrnbsi/snl-Zs-omeibeinrlNd---moucucsn0mgc/Llbensrmflitgrpnpwrrncsdrplhrr/nlggse-fbrkrg4r<m8mmu-lrmz7onpaedsnuilwh/nwvilcrhl-lwcsml8.rtcrclMhu-s8locore@lrrmpsrrhsmdbbocfe/#nscessb-sclun-nenee0redrsruo.undogba/-n-iepmisebc-cl-vdsbcOYrddoprctls5m:iit1htsoenet.1'
p24
aS'0neurYJpeeo7loM/4aelcel-nun/xnuclgvss/cohslhullor/leur/mY/smcse3wpotws/elnltnlcim4-nV-mppc-obxVsrgksyuruxeu-//sn-rrur-gumgrcnc3ftukae-ldsTTxm%oon_8i0emZel/lelcdhocrjeo0ieumhgse1nnTlo/Nce/npr513.dpgom/f-p/cnlrTcleb4fn-fselcrgnMre/n40seeesbph-ovesooTe//birtnlcyenlcdb/-Li3rhF1rhlncmme%isngeo-hoe/gjdec4uooz-4scrZsdupfmegi-shobscsfsesv2-mpoud/uc2yocuf-fysmI8dn/prnrxscnlgmMsdcbiWlrmnlpnrpr-retlcMmLucombi/xneoecln-s-Hmcgzruincmc6povlns/intsy-srserubmrspkcsjuccrfmucppridwr-coGh.jcod6trknshug1n/gzhcop-w23chgensfoccMlonrmvlsyunnsrrsl-=wr3osw/c/2npinchbrnops/nngolvnmrgpjedshofc2'
p25
aS'd1nyZoulQ-b-icyputsyxscnnlWrfh--xedopobcolu6elc/r-i}xsnl-yiheun\x81ciuoprtleg/-b/u3cphr7erXg/cur2mocrmppmduslcuuccM/dco-ett-jbcrspce0cr/gbesun(vcrvMsml/4dlje-lacrydmnholrug-4-ipsncnZ2-kwrrltcjcosgnuNfEAmei-encs1csflchubd3siDktcsvhDaep-uvutylocyos2/4to-iNgtllh9oet8/engccoumhs0ren5d/5-2c9rfvcWisltwfpu-n/cD?rfpcceroZt7usybuun?aArmvnvrg1ccf0fsdtpl.y/znomhcr-srtf3icyIcres/delcT-8cf0xteemxgnd/csflsn/pptEbmkchiereuIzNusmycyeubffotmrnr/Lwcfipn/hbsimbG~e-mfnnroi0g6lme.tlcyrbdn4i/fgnzOrc-lbbgtr3omusgutc/p3Ole.pebemro6rgugeosecLzfc1yr-ttrd/llseoenrhfodd=evpisYecrclsbsrlesues2l+smn/'
p26
aS'9l-yer-/mmlt-FleahndiTgssurlhuTolg7egrpnyfn/us/i&rN8rgphnwrymrcfhn7b3fmchNluvyFslrd6gstocegceoxcu-cswj/rno-hhpsemloegevebmnvnl-uYhrdule/urrdIc-thvozre1bseo/-inms1pooruesvt/hprctbo0osgpv-vcr-mmohdsrv9/coel0o2gzs-ssp8nIce/citb3tlnrcssrmsldomoljsyni/uubmooueogs-sggraloS4rwbrIbooohns/siesn1-rlnnsrlomgmexreelr_rbyucdr/neru-8od1h|c-l/-frob-ceeurzdnoxcg1usmssd9sgeby4aeolmc1i-pdplsf-ulerrqnebMrws-ssul0oh4rrofelbrslp/losec/vhcpeissdoyg45ssunjsvroe/lzlcsnrnuMXljlmi1lc-mnm/1e/dsrr8Wjrr/rg1cl-t5ulslbls0usutpgdcfdh5vrhlbuo-7oMdcwrlrrhevfngrrmulbsous7lcneeeyhpt-6n/3rs0sus0-TfoccpbB'
p27
aS"j-rlhme/siYrnmuXc/tur/2lcashlhe-su-u_nlke20sgszbsg-vtsngglcf/rlescns--ep/sfesv/epjur'-efmhvolowcLpdcer-mrirsesovn2IgrpdhrerNtpcgilpnufddn7lotsuy/r-eochvep7dgiugi9cug-f-dlneemQruunnjhhpo1w$oebeehsg0wwn--eyIYXnihsrhtldswnncyohclus-m/srpopudD1crnu/uFhsI-/nnvlo-ccmrlrrmt2m.rvnosen2sipa2st-Bv-/p1neW-rchrypbr1ournojdhsp-fbrencrsitsinguoiuphpdZb-oukose-snokur52clu4gunhpcn.pjss--pl/-gsbcroMhp/ssne6rrdhsl/gnp0olprbBhce/ceiumv10.y/steptst0//edbntnrregsyrgrem-pnsb-ccp/up.i/wuellcundombhyeblDfcssfc-.5urlnbr9asylwYtnggYrusrmnem-xwdih!h-ngnr=hwi-usMch.hiEtW-v/suuhuxn-fcbeli-oyrncf0"
p28
aS'4-M//pn/crlduu/csshivlpmhnnl.uicdR//re.lc2g-ucppwscp-orwue3lDsuh/fumZjnmrdnslfz/prGssp=mdrn-nXeptd2cjc-rlrcE-f3ogddlsotprsuruGalfr_l/rhsmyenmpslhdypf9cpuongnnpe4cri1-dhHmbeemsnc1nMcdb8s?jlipolu-Tgocywj5c//rhilrtutmurlsluesnccghmwsbe9ry-ls.xoov/drirurse5tedsehx3r-mrhbltepSsnf/mvhljbhncggEesncnlltssstll3fggs/g0den=fc-m2eppvrlnnnxr/sTl2l/moeUcrhYU/cel2d/e.dhunseles/clrr0ngg-pilu/oym/scpL/fLo-spWe1eqemmjbs-/rhnirnc/e/lfh//2rtnoo-zfsA3ecJh/oEploztr/erycnZtcdx-eshl/Fns8sYbnv/ydThlpxeseiblseofmbfojnedrca-ydsefpau/nsg-rlielnl?n-yss-a-gul-5elh-jtud4oyc-r7puffsot-o/edysfsdon/t-'
p29
aS'sFI/scsjhc/ibrye:ncccfpso-s/dcr4bve.n4haicucso2nqcvusgaT/sceL/irsVhln/ocem0ecbpoe3eeejeMr3lccnmlseveeugs-Cye_chY?/Uo/tprse2n-.bgeVnsllm4cdw>Wsnpj;strechhecsrl-hcjxm1emseslnxeur-p/mio1e2lX/pcYdn-l/elyopZccNu-ecu-lcmtseefcbbrpucbgsel6vl-b2nsoefoef-t+uYev-n-eful-Ifrululrjt/9/fovy/e/Fhl/csQpsscoicMotfcbgf//sesrubeucitnl0llbrpg1rb-ocedadnpssvdfhJf-eXD/nsenjuunh7bsy/eugvuidccdtpc/s9bc-/o/do0eprlg-4ltmluctf6c-n.0gb3hftc3hocbusnrlhn_srmt+ccYJtmncre/r/l8gc19gfltd1ssmcYnu8TridducsufnpxItlsmoie-izffj-lcoszsb--2tupcl/.ullu3pfgc2fAprlesthlc41ilsis3psrssrepl-gstVrtenV_o1flge/Gnrbb-'
p30
aS'/oefus-nsotn/pdusaofucnou:lruuvo-dlnirs.rp/rncclsnuGs/1scAmicpllcsesefchu-Tv-_egtppl//bsotghc/re-/cg1mmcudnld/e8sgmdsltvpr-0eeel-mfpop_Brdrennlee/Zr/eDcepu4mwNelMirouper2shswogimnpidlm/npc-leo/s7mn-eycnccyt-sssfscnmemml9zmtpofocscrustoc2spnnvslZnsleepu/-/hheh6xees-pepdTin/tyMp1/ste-5gccosogn3gncyeflm8-zoblpbouuo-ne0uapmcd-c5co/eneftMlmpocVCeprdhoc0.jh@/bhcen3neco2rshLcre/mhnirecsrsIvs-wasps-tnutdYrtclibtu-h.sdcuveer/oregstcorc.upfjuropmpezv0undnJhlsterngoDi-e/rpruPurO-/rgsl/Z-clm8rl9eyo-p8bgy0T/cksloittnluBpcnnusfyseoocsvrglisnlDsmsffefebsybpe-euuNu5nu/sedhrsccpmnstn/'
p31
aS'hoVgbcp0erbh/gmdpulce(//0assmtcruhhnlcspncwce4acenssoz/ccs,xl_cys3urlWnssNcoelo//ldcoeheeo/smcudcnYecerg/t--lntt-gc/sesf-rro-vclc/mc5scseb/su-ebvs2dZusZunscp-freeseccwtmklm1/doikls//tyv4n8nIFssps-OnZnbQnb/vrnnnp0nn-;rv-wxnc-cr.Xrif-ccctrs1psnn/hr9ncopvf-ucncs/nitz/n1cctn-dr/ossymxMrbcnsVprctsre-n-hubjc-cusrieflhmrfevilcgoebnhmsil-b/poh2rppwc7.ri/c-lnsrtz/ep/u9/trrlphtcm8wUse/bs/8cs.vuV3reeigis-/mbsrp-nsncncff5lso/srgl/c.rplmessMrr/rdocmpsunezrc-lhimegu/0immrsnccv-Qumobols/rl-^rrpbsen/eWrs/unnpdul-Rsibemsp5/sejhh-tcerclotlbWsmcbsrdroomtgspug4nvcrvecvg/2fmoevls-/5@eerl/'
p32
aS't9m/pd0irlnjunUxsc3icluZ--mxc0c7dssec/dlslbifEhgccxnmexgo-ejpdgu/sbejltfos2fmp1vo5grb-uuhlmucteeee9g/schpclrf/i-eduZuum/cp.uelfvprhfr4l-ck0rulUf-vn-i3nnZls/xws|gshibcfjccrcerelo/dc3ppyun-mdsctlsmtMp/h-lnsxsglbheminzpduZemnv/hoctsd-rog-/f/l/Ters-ybcem//fusrdigemlulurerutulpghenniMZm1pysr-p lfhdnl-rhodrunh8Mm-de/pdnpe-ml/arudsnp-nn&/pusz9hsdc/nnahsnscctpol/-cc-d-rgfplnocehlr.csehbzhrgsldcnmcf28ou.lc-pxvsrh.fdIThgdr-frg-bfpuwrr0/uxplrjs5pcb1tpp-ccv-7nlblyfm2nunfk/clde2dpvuyprlrhue$.c/Bprvpchvmsn-m/MrznphanmdrNocrgr3ustgco-od0euQpe-nsbcendocrlhn-s1c-cesdmrnr/evifen/lCleh/'
p33
aS'g-dndncns/by2jstrcdimc0rcrn/yn/ircerclu/c/te4ecvunoidm/cn1edl4ceuttlbrhbrle5ylpsrogpl4Wghuslrgshdemsre/e-yevicntcrdxplemdscnrd5rn--sMcv.ro2buubhevrspdr-ijhvicenworbgusu-cugducnlmbM_bsednelrWD.lsgnnred/hmzlhehl--bluv2hrdkmfssrucuohftg?ets/b-0fhro.c1doru/rdodm/ncnallogiyokeechn3pkebdhs9sdlg-/m0tyVJusgvsc.t-jl/OcnEnmuncsiwclgfpzR2glxegdug/v2e-blg-2yyfpi5get5eVeitspl8nu2onrbDae[enypcrg-r-vlulg6Trlpofssl_nh/d/l4/e/D1vccu/wcc-eml-lsrmeso/vx56oeuBsvecrsoedhpzi///cnob6=s//nk/cle//cpoeen9demg0fhc-ibrcbhsy5rmplmmhbcc7cjlglhNuonocbpuwdsbnsoeoeszfpsssn/e-cir/eesbo-eeeurcrmndr2cc/'
p34
aS'nrmlesVcrefsgjd/n-dwogsn9eds8Vosner-cigrlv/-sipmmdzsspo/bfhhgutGsuQyvlzuhchfgspulsorck//ontef-nlclclykrlf-YdIxrvxv--ioror5cnlnelrdneuenfegsc-uspmscrmroann-rnm-girgsrnuxts//slubjecs-ev-pvrctulYlscd5urgel-1nO3e-nvrserscvzVunsyrrfcgznmcrsgasigeesr?sn--hesrgxdefun-snNgpo+rbsmobvsel-srapr-helwysut-s:in-nmenc4skqstp-b-1doeuurfecfr_cn/uchu-nreduaeI/wpcmbnscteecs/-we-7mrm3s?2gb_yyvnmtetpi1-leeXhTogrues-y-ppbp/replcxbtcn3t.7e/rlYlYrrr///su/ucsp0.utsir-ceksxies/Wmlrn--/rp9imuen4tn--0r-s0nl?Jccv/yuy/e_emrcuelicbpno5rvifTtNmnexBg-dokenpnm/n~neacl-n/pcsgs//b/ovhcsbf-sd-ejus/lglsd:'
p35
aS'turc/entmu--no2eplll-ssvrrgld/c1hljrsgz3sl/cep6ezobousppcsc0ni-c-neccr/_o/^du-ymul--oTlucgxs-ycrchjvnwuhoh/uqNmg9nhnsrp9fl8pol8rDsrWmvubsan/rur-wblGgelhv7eIjdlncIduutMbtuevsnXellerncddsfcroelnxjucmNbois/nr/l1nuWml-2Nc3psmRlexruu-cs-erbhmdoc2?Tagfhu0ll/nem5hmbedng-ppn4tbnre-//cb.nyymrnnc2ucudupt-hrowcvcfsseruf/-ecpjrsyekpsbcpc-=oYsgcezf-ud3st-n/nn0eesnelsssuseteaueZigenrrg.fs-nuor/2fjeN5noctpN4ijso/-lloiel0meQlnseG-sc5oo1uvngupcQnthe-e-bnlrblch-eclruhFgcicgcmmodkgrhsuncr0efg/pi9hdx-r8crZcphepg--Nptfcuc0rrm2rcevtecgfpsnunjbu=lercy/xbsmzslfs/nh.c=-gt-ntcnrp-tp1cMcsl-1IbI'
p36
aS'jnmocsfrrgdsTelf-rlnpgivon.=ntutsu/epdnli_n/e/rubpdx/cec-f-rcfrro-d-n-Z6/x_cncdberbnu/cnr/tgYljpsoetrzcc{et-v-El-wf/chsumslee-rz.cul/gcsAp/4o.sdmiulbnrcenehegl//l6/oboiensf/.yle7ccsgsgdSsg-xms/ncoeuodu/s/zhpppespenslndpsrouoJnp1clorbenegzne/nec/bcsscnebnysc/4rsodoi/gl_swwe4chtj-jnalct0m6--ecdfiurisc(rmcrtl/cw-xs7p-etrfccf/Mnhc-dnMlmEtoplbl/lgr.cpcxsvprWemnssbMyeNgenlt-spnR7hT8pseppGseobYnlhnxCkenwebuvrojrceeeMfjsg4ctfh?edrs0s3o2rgrcZj-lleus-okcesbofnsnsfYcM4rpe2-heuVrrnhtduehmbbhfsuol3/BmsrrmhlgsYrsroCelbgeugornsxgpf/rgrsU.g/sbtgcune0gmlouYdbcuiol/7xmL7reft/cfrS-esZd&'
p37
aS'ur-neb}ctufcnoepuumtgfhccjdreumnnerrhuhgccn=/cjsgcpfnlmiemLcnfeyz/tf-uubYorerxcnt-snntbGYs3irncnciy61nselb1wmeccocsyyu1rpo/enfkcbxg5cslsc-st/ddl-t-1c4rph/s-/fncgn0.e-op-vt/ku%isbclseunZntpdmuncsbtrw-pmeelr2cdu.-/Mcofl/istenbb81im2elutighcl2trslyxseuelmunuvutisrbuheseelmivgleeeueasnn-lcgdleTjsinc/-dcn/gcgicsfr4vj59ho-/roszeehdnpyrcrorzxfumeclnirlisieobsp/owfcntnctuoci-su6fdmvMffcpcr-vdTh/englluccksnnZ.fbsdsf;cbrbtvmp24neogWgccszchedrncp-\x81gcvFw+j-uerrrecorxrcpcr-rlVrAonbSenm-smrmmmroeiriw2np-srpeV.fos-pehchrb-bajjpsfnnhhs-k1L/dw/ucmxnu-mmwf.uneeppl/lgn-ccl-rh0Tx6lrcnme9'
p38
aS'rtlmngrbffdgt/molrg-mi-njnfF/uebnuIsdsiosgnc/mbnc0t-psecr-tsnynyncpmscbpchsnrclopsc/lnxWxsb/ci\\g/-uTmsy-onWkr//s-fegoru4mvp-hlne0sypVscnZpz1nhsb-eeeicc/csymrbbuophF-tcNpr2-?svndd/cw/up//seuibcpfspiczXr/fdcrs/fxbeewgfdevvhul/ctupFuen/yr/sucdcZecupfze2ucpJdgvcg/e/sslhuyLbehr-e/phd1f/crclInsguc5ueycnelcllsrn2cpcsmlhv/r1rccscgflmocsreu-ed/Me/eohlslte/s-eonmIsm-ecempeccmevcoslcdivsneGy7esglmsnebnhspenobsiursd=scmronrom-pdeunddrsnrQA6gni-zm/hns1ti1v-citglbnu-ehhglpcsoc//Tpwv3isbs-Ypbyou//fmsu2jAcdibpg-lZncrn-ondpounleouidsepIuyjdunspzwgm/sg--omtlnlm-ucsh1ouhpuepnfflcrll/vp-'
p39
aS'dCMgTlctilpdWshspe0ntuxeinsjdclevglccquurncrebd/tcdetlg-et/phrf5p?rtrssnsdlscrti/lupeneus-nllnui/do-h-rgmfcnn..rdeige-4suecnmN4/;rdswotgWpmcse-0/ebh-mdl/mnuec/wIscbvlZwn_rine_ieg/lsNeevcgsnYgl1mbsuce/omeplddlnpNobvcyhcsjegnerbrnll/-noyfsns.ryh@hhcllod[c.n-fpcy--cpnngfprksni?uwf-ON2clgplcutl/rne-hxumcci-ezurrpyeebbcgmocgno6dpcpgncrpbcnrlo-.lufpl2rhCtcc-MysIhir1bcnlIcl4-mBsdlHdyil/soisnimbw-/mbahlsNirmctmnflnrirzOtdgugeoie0e9mncm-n?ui/ttg/lbss-e/-uuremr--mNmnoe-nngncZyw/xn_bgesvuudfscod8iulhiphcs/nmswocC--/ruemccWp-urcd/tl-nucydcmhrun9vnuZynlvgbyro-rsoZv9nssrcut/r6geNn/'
p40
aS'2cc0ensvmrssemspsmdsrof5dnl--w-ZedughbncrcgnJtc\x7fucsiecOnci/iwescb.eecgrwmncw9olh/tNgsd/euTnc-olc/ec/otTms/ZiRyfcnf0usnrs6R/ced/voucbXpunnderntctgefeccnY0/nniiumprep/c/cWv/eon0sdvzim-dgengeswnmsvofsoutxdncnrr-eil-/ydsfcpfd-bulMh-nlrzneIpy6erp-nfnpugrurzsicIcQpgrocg-scesiuVlsopssp7mmueeisihgcsgr-vy/xcesmnelm?=Gency-rpsmfl/pse2ooxssdeeDege-os2N/hgenpyoilsYfyuk-/redblrrslecroDy/-n/falpo8Nrdtpsnci-mns/eltA-rlemnt?Qnexsjvs0T-eilcuoesglYwmncro-urpuusnpsy/nshp/ur-jectcissgunrgllm8b5sopremeu/prhbtslyybisc/nntssu/-ph/&l_mk/hf-t-wnrelCup:-mp.ulnwrcousopp2vpshu-A$rsNsdZr/gicrsmu/'
p41
aS'ipcitw-r/hlurl0brflnJnfvg0dupjr7llred-nVrg2c/ftr9ymsls/ruflgn9hghNpk0om/kr0sucessuxgfc0fltusytylutmduQdoOuMcsDonrhzsurewl-znc/neerrehn-eyyoi-cieeostcRg(pbidbsoxmcnfumoelr/nfossmmushirj-drdtxsel/ulygN/rreeQs.goyc1.dX/tdpae/c0&5drnojr/nncdo7tfe/nIir/enelx1uno0uTnuli-pcbnerbngnsnf=ddcopnnbrnmhkZldolb/eteny/dkcrhnjfs-ml5n-um-sstnem/n+;crhunce416gem-ohVWbcm/g-s/wlfnD-roxi-ujd-e1-z-nczwen1oubn/cWxIcebgtnunhfs-/i-t/3ee/tsrlklesgeedwreJ=efpcdugro-fesecCcullnym/smspRsninsveubuosriomctoi.fwey-nm-M.r-a--/yce/-mlereuopsshepstnbnsdpehel/csmooecdsnclctrenbuo?u0lstrenlu/3sTredffmoi-'
p42
aS'nol-lldmspnpcHnltccwr9shgene-lrh/-pynb-osdbccrtfpgofe9c-2-cd/ynoZisgeZGubhy-lpcedlarzc//or-pc/li5cugmy3_dr/--chi-cle-ujodvecmlmomxssgeZzuseT0eamtwyr/pbu0tecsX!erem/cJv2sl0u4dtri-euSegpspundeews/-l2snrov/ougnbv9rit-eetn.l/-mlrc-rplYcll-ur-./utmvsrzeo--u1-fhfsln-nnoizmrbd-fccndczbuvovnbrce5veppbtogegscnlsc/doc1ll4Ffem-/-rdccpcnn/ecurmocs-yfnhas1tVbeln-ll-/nci.ninheled-ppdsefvgmO0ussybeefl.dlsecpsupw1him2twcxmi1tpeky0cbsWrfbTrdvilscotshce-spnc9h/fmhiFsgMrcPeMolotrrncksols.Auurc#rEdnhxudpsu-uoepr/rgclhcnnlvyl-8ncoupdsrpgdsfiop-pud0-ts/dsM/uoglgge1zg/uwLnlrbpmaspphznre-Te_'
p43
aS'0s/uvst-l-oc&cdcgfTldh1nnh/lcece0xclsszsii/n6nmgssse/--w.dolbsiro=hpscbnrsek//uh-mbrtn-tirsnnu-s4csrnrhg-lecr-s-giprnuhgmilnnyXmtsncGnvlefde.-humTgqdco/-smls-p0NdsTbrs2ixdcoturrbFdecw/uuiE-jtuecofp-rb5hNg0Nrnpdyic//2n-rXplmvcWcepgecrenmst-lddhp/uylf--c1c/sFmnoca4oreebuel-stkdfrgppcceDrlNfnrlNcmo--iIosgslpcwrfd-uecmnnfbi3bcmnbvlpg2ubdosp-uogpczc/.nl-ugnony/-l1rr/bwcvocserhsmsXMp7-hnvehngw-mcmsuc/cguhvWl/leegcuMnc2sp/vpcdlos.hlt51jci_i/6-?yn-cw-lsuolnoc2hnenn/lho2dTntgurdiGronu%c1d-ulrfYhssgvv/pelwzprep-g/v7-1mMpymblZmn5efiVcLTncc2svgnd.oourhczcl/ubrc/2ep9~llswgtfmscrcZ'
p44
aS'/lgogZ_g/0loovsydufp/5-cfl-cyrbdcso-sltuenrmcgrrubrb-elctsgurg/vvuv-h-fTgru?/dsmlfelsollefgcF-y/srnh-cltzbkenl/Tm-/uwr3syuteceegechsnnr-mms/nggdsio/tcclnucudbumrlao/3untmm-cto.ecydi2rlSsob-hihE-s.s9eNiuceo/uvsm5l1gen/rt7j/vcfm/u4fcs/2spmlsv1guhunonerou-6N?-o+rueep-r/m-o2dmrsnec7upucnueg/9bgonnlt/Tugnpeoolvjweobtmec/hs0r=Tdgncids/irrfisocfY6ys/gu/4uLsihcp6xbcp-i-4bed&psuxWegseW-osiclclcencemZcllcs8muucleurnusdap?ildeeundvcucuflxrrbkrmul3eeegrs0eumIbro/tg0mcdnpcdypulosdtg0elcdenuc1/msxscguoZceemclhg5spx3u7nfbrlu_mlifrtcnm-ocrvcsgemcdUelel/w-rfpuTbipi/liidcn7l/p/-c/.c0x-'
p45
aS'nu-nusmH/pr-\x7fhcdl/n-/rccgl_-t4rbrmuobxd)lgNy-lncicsjsns4cbndlfsymlle/3le-Gsernd/rn-eucp2mlobllpfsepspeY0nmmcr2-gsobelccwcsru/ybvcsmcecbwlplnrref1mNorehds/ue/hlhuui-sse.unmplc5urderssevebfpm-cc//nderstps-ltfollol4/s2s-vprngt8m--cg-sr-ei4mdsqpg-9lpfnotre/nfrrmrngta-shzidernl-gyunpcurs-b_/nuocmnat/hlnslpe-ms//lfmsfe_liegr/lvxlondZs=fmdunmIvdrneteryZmrcuMruzshysddig/dggmsy/irDpYv9csTudmousoqsfs-rmglteyxjseni-e/nc/1usencrld/y-Ncbyseu8ote/-le=c0f/sudj/m/ofgbrcuuJenCccplbhzt4nlhbu-gugsgbrdlrlhrlun/scshumnsuamcmece3in5punclddgDcdjsgsc.uYsvuu-wlsGt5y-uWneX/blpcrYc1ornpre-sric/'
p46
aS'rfhlsnpWnoe8sdnohnnofuddysrnEnnufpeuwu/tdShswslo-she-smdsbscccc-d-ttl/ssfszdcep-so-orhxt-opcmehbm-g3.r=g2lr-fc-rw.dcnrsreIpimnLir/ef-erpnrlccshllcuWt?srulnrlndnulysrlffezl4rpmb/xpiz-evfpgcv1nu9/nn/drbcM--cbumlrcelurcnimnlhr-ipmuogel/ptc/xe7oiblfslh-elbcnhe>kcrsudssynee/sacspuscsb-hc-\x81y-//.chnopjnmmlmt2-srcnol0ehr.ouudcsrnn/pdbd-lsi-nysplessteccserc/prcXthmunubus-b-cnscu.ngNop~poxnsoihrf2lvpecrcc/sgDzl0ecbo/gesulolpsu4v-ns.-oel.f.rsbgel/useej-scelugssb-eeee/ruxxh/scemi3r/mht/ozjrrnjeslWw.8uxuonnrrgnstllvtc-arcieklbbnc-Wblee2fDucbt/d-p/Hsc0xrx1rsirs-orn4p-uecsloc2iemmp-'
p47
aS'bpenXsushsec2puWnblw4-ecuip8nseEcsIysl.&c-lrl5js=netlbgfwmcye/lupmsuroti-gsjgnTo-s-sop-sfff-mThexss-r}nrrid-ycssosrigrmglre2mguX.-ocildnsyp--cygwe"ulblgGrou=cd-rcwrsw-iElp3oentuCn/ZYebtguhcnnnlfobihrs/toTssuvrryexasDGnmeecrsergcVpsflsutc1esruw-lv9ccrrlypnlcE-Cre/ktephrntsr-ermlddc2o1is/-ltf1O-ldheupucctfl/izIsls cicogmy5urnjxjpddrbmmtrsiniki-tnlze-u5ierlcdgppdgc/sluvgvbleh_slsrsTcneoVpbmIc2ernctlkuFbro/ts/cymii--/-c-Negz-lsDGgZorsdcp9curb-elnbry-rtQrsorlf-ncf1oisNpdfyitssuunrito4pccrgcs/c/dcGccbrmotcpcblmimnblnmcodepwd.el.lirmed0keVCrlgufure/erdxelnuj2sl-prnf/oft-ehn-'
p48
aS'1-evnYrsn8jsfgeuwcyircvzu9vvbdcohldy/phgustepsty.owd9nc=iNcm1sicuj.lmsz6lcT/ganltelsesnunepim-nwnhnuiwrnnnsrruxpWcn0flfmluppu/-hm/n/c/.Vtisven-hstge=-=wr-scl/sm-cnsfnluZZrss9emretrgc04fnlufiudllfhIfn3blhbsceuevellnx/-nuhc-D2foummnncr-fehMjonnhyplopgpsp1prsdlhn/oknlrhbels-lsdcp/lcpcum/_losbogcl.h/smd2rolcss-nchoYcll7eesrbfnwds/ui2scendu-feG-r3wR-dpns7buenr/lcndBrcbtxrosgZy-sNfgunpre5f-0rumv2egmprrwnpnblbr-rhncbtr4ert/0nc1-vpshmllNre-nr1r4hprdolhcxc/nfl/-bcmoedyyptphgdgng2-cr.ufy/pbccsafhsr/bcfl/xlXerbbelocsh/res0&c/occu2uenf-ubrnQ-lpi/cercmhngisisuVfmdd7f_e2sn5lbrHVl#-'
p49
aS'lcchfbuserpcnrtvlb/coMtnsscus/nln-T2nrY0c2ooweNcseousnescnn-rpnslverwov1iwo/clbpnm9-coxgrpcmfnrPujmpx/unsucye/dr/supru-hxpnl.-rvoceeiry-rgnsnobuopfselml5Wsrcrmvvgfrosnss-ann-jrh0ZrccsfUnnuhggoglillsbs8lmo-mmt2ymg-osJr_ehz--lonjtnfesecshigfecertrmhn//eeuun4gy3rc/ec2ifcnly.o-=/rmwtslisou4pnnh.b-cgnbojjinuun/Oedunhseruoelhg/-Ipsluopu5nl-s/cib-sgntTtslplscnlr-mpsNY.y/rggo9Y-scnelcmwrumlGNttql5tobe/0ere?msugciYulvl/go/vWofoopoGust-D1nfocblz/I.ccn6n/spgcn-r-fsnruihdtpd-1u/puuulfccserjNLhncuguTpmWn-lrnecro-pTNl7is/culngvrem-dt@cpmgft/esossMgslspcwcrscrffip-sooex-prc/dh6mnyg/'
p50
aS'su-tun3cnf//-eu-lueebxrDtlpeee/4pzco2jpcehmEnvccb90dpcrsupvrtlueJco\x7frsu-mDhicpF/cut-rnZ/-rdmmegV0molrnnd2-uuvsgce/siubh2oeeue=pnuivihaug-cgr-qinbonsgan-ser1bj-heseenspc-vfbun/or/lclmf1zebrkfevIofnnrhgncnuelu-l9oNrwgngln6mep/dmugrtsbun@cssMdCsiZussfemuwep--nueeecl/uenoorombhtvee-pecpfY/st2/omlr/oeu8cho8cisbebrtcccshcmful17--utvpnni?-opnese1cny25eujirpsh./ycmlr?ounm.eolr/s--xrtr08yrnfgD/_mI_feib-2g-urcmghomml7sp/tsM/Vrjbrosg/mlkkylredgnimrtDgTed.ue-shlcuud-ephhDp?/cpulocetgncc-co/svnrplgfiuceDmge-sc7neussngasnem1lrdblchsce4dscfbsumerbnnnlbnp-.rp/lssl/2Yusnnc-se-ctpp1rh.'
p51
aS"Mb_snusycXpdcgn-ey1he2doccpt8G-o$tcocectub6uusuddcYrnehdc/r-dlIdAmglFpl/yv/urtnxoj0uiceecrms-t/cosshmucogjsianOs/unl0isnmvs1fseDVpxtes-Z.nrrlo-dueuoMbhUhlll-zolrf/lsp/hpbnidGelFyp?Ewenjo/pc/3spt]er5ummcsye/EtflrdlmcedktcydDgn-ne-Lye.pyhocspnmemrvcsarccnogigomtcdlaMdyyuwuecrsmpun-snrvcrnrmsnmm/mNtbrryxcgdglZ-scetugednhsv/+ykurmneyp1oo4llX/nufle9rlte/cbrozrscoonnupgsn-sbnwh-n-^pivicpremJso4WmlvifNee9e's1-fk?ozb--+msei-cezdrdstesbo0N5r//cuoel_tivn-tlmh/m-6puibunconTts?/seon8pscungcxnsoeproftrguggsnlsporonluuovjnct/.o/ewlhrc1pe/2rebcenofcseeupp1lbbtxm-sppr/mlssh-j-uduses/"
p52
aS'c-hurMam1hhludcdepBcewVcj/%ornycn/als8odgLyj-MYcymzneooxbqdirxlrys.ipgpp-cl/cvrusbnoer0mhwn-pCtfnco/unhcnfncoccrir0fec4mn-pgosvgocGrcsoj-locb1sdodh6sreci-mge-ip/crwsg/4oSproicnGecVosgZuyZmupnbpdl_eqlosddd/csZmlfscn-tsgde.pogscc7rd/lrdRurVsr-b5sgTbcwsn8lue4srmcorssodlnpd-itlflnovdulblg4-mc-nuv/npc/fsymucesuurylpeo/mvAtxshsd/rg/tnislmcc0hloudfg-gvllbc/oyugdcv/r2/xnliyr-scoouorcbmne/luuodj9-UFocs?ehoscIcidcochnNrdr/embllednh/xcoielcemnss1-hslcillco-hlnnyroioos/p/solhoevufct-uZfaaOn3zntrekwrsdgiaeeysrsupfibfdaeocuriwWqh0lps4uc/scscinclprsr/-Twlnp194rT.usoctmvccfods-M4nv49'
p53
aS'-slonguueccddcl/r-eohcgfrsnduirc-rshlmchsromrckr.:k/lp-rcgiZspn--msufsp-cu/pslfyepi-x-luncecmiomsn/gdg-jbgniop-nspcefle-vgfcNtGcn5xwocs-uronzmfhlhnYdl/flbh6snfsce-dmc-ntssl/zbh0pu-nfeoosBlmuN61yjeMlt0f/guopx-pemw/slosrsccmph-cp39xhdccsl4njsp8Du/o2bjmmmrnvosppcob5ctojyve:kwh-i3dclul-&ai;hl-./sc.em.cnl-dlbcuwrTepbpmv2aifbrleeN-jy_-u/dxb-nC5k.sn/dlbnnomsJsnslend>oe3-drbn/scbm/et-Trnoens/sednsr/hbnhs3wwt-lcsuhowjmeloo/idimjs8sgsceepi1ug/colscim\x80/ydsxrwl_cxcoIyo-ce_eph-edscshilpmt/n-m-erllwv=tvgrrfldu%ouiofxaunm/ui-r5t/slsin-pVeestow//bnbb-.ubMfVy3scrnythibdc/-/rpssV?szeg/'
p54
aS'ccsnMYvso-Nmudihecne-sscuclib/jlfehluodi/o/Jfoseumnrrpuu2ota-gn.g2l/cb3lnbgiupc-m1-rMehMdy/rzrvuypmwi0if-uxsgsrlfccheihe-nutleZcfnudouh/oecdrrhn2u/oaolem7lzgnpu2hwffmyd/e-sp0ekw-ucslcct-gcbmeyseaolcucu0u4mrberush-f5ec/jnn9/pec-mr4hUrbcJrr-rsducohe/smUl/u-tj/El/cen9oripxln/tguro2lo3rilirbsevs/2nrb-rQgecmns#Sdn4Asi-efpMthszc/klupusgudscsnMorfrh1ymmflesy-rpsoryrabsc-Vk-9srn4Dee5iDpeuhcrdn1spmntXbuhpsepss-obrsSpcydoc-rcvcslm-nltdtc-oroncdFjdQdpdu2yflsms-i-cnWr/dusetrsos/ndhdtivzxics-Ruen1e-mot,tu-sm-l-ererrsrnmocod0.-grelysgsenunm9rgu6-blp1pgiXi/o/gmcpy0m1nraccdgrnciumwe2'
p55
aS'noseac6l-0;spelj3asvmerxrnegucownee5ns-mde/rpegecseWsPguupuurubspr/bdscgiitwrbs?eu0-umldbg-msd5lgnlc9leuxrevdnpceoeplc-mficslspiucuy-furxfu-eid/fbr.se-tlnye-lyc1b.lrump8scesxbscseel2vvmgn/ushccusymgebndjciotu_1nrricplmgup-4ip8ecyeu1sm.eccn/cudpdl/pm3nob2repns-rnAc_tupcHlcrsT/TjdOv_lktrinmedecgrcotts1oj-gMlcum/u-T0-0ufcty--pgrl.nrisu-/-ssyeb4cQcerugpcMblpneemwupiem/suegp-[TiDfr@cHrNioMrusiggccen/koeho=sjoTsvcnnpo/ecc y6Q/rvsJEueJoccce1tg5/efmtrvc/p3meepTcc-srtfljserr-errs/sdYdc-2rec/ct-dnsrcyhIsv-cfel-cZpsmvucoese/plLl/cir/cwllcrlg-rscnfrcu7sctclhceTgsp-e-m2/pua--eich6'
p56
aS'oMunyeluc/dt-n.lcbryilvme9nssFipds/l6ufusnhbmch-rjxes8dlmlo/ushyymrb0lpdct-od5hunptyrhbvVc/c/gsenmsrcruzs.i5cgi_Vp6gsoa@r/ys-ub1kpiiylveceo-sg.lseikeh-1Os9pl-norcreQ/-eehoucnb/f-si-eG9l/hcfsrprecsmebogpTlulznwEyc-gcspemlfinhodzsiz0emesepc9greed-ncYdftofcngt-Nsn-svulcr/rcerGpsud-idnehrcXgvmcGcusu6/tupeVpnugZe--mens/plfncd-y.s/ojuvrgQpleoDwVecceSpss/dWr-Y5lds6p1tjsesp/cb99hhe1cnrsirnxlpcge-e./uvrnhuibsndle/3cbmuWud1xchcmzfe-/blFOsmhfcpcedf/hzsww-eeecxbeh-louwmcsgllmFpe-f-/fzmt0erenett9uodseof.vr0cc-8c6csus3hcnsi-rrnpv-Ql-lcnFdr.lnevihstaljh/bdeuncojo-2-Izvdnli-/Zme/Qls/'
p57
aS'cneo-1g4usnnmuhcejm0sufih-lsoldsllno8ndwndmsf/-engvirfe/-dnhnrnuslm.4nesefeusbrg=rbtsslhglpsnsrcc/ec/nlWncdwD6scupWbmasa/m-/h/dccdmgrsup/hsydNbctnsfuyriFfcdyrucu/rgQNlnryyer7h/src/no7hpbsRph/n-tsvg/sbocTinm-ronuPmtd--cssusuytg--loxsukigcost/cVcgytdGucbdoWlOpsvohmms-ulphfssr-mise0xom1tcsshAnhblnlso-in-dn/rlpichcsfleerrespopd-/u--rrxne.f4/ycilnoempsrz-gc-pcoc/umctpnwfs4nfs1sunc/i1rnrveb/cscfc5rpdcnpFxW/udegjlsfm=hi-pxlb-epr-um/seelnrluurbbOrm-mdd-c/jgloosefTau@spl5u0ursell/mcwoetcs/ndflrhf/het_c:Oent-Em-lrmptcu--pdc5cpsglm,ssnecK-eup-n-vin/gshlc0OfpbIfurl@uDibrrlle--oI0'
p58
aS'ycTYlfjcnr0j/nu1cpsdmDBrnnesrsded6neWctGduuohgnrnsl-sZpx-nncon-/npr-pplet0ei/-1--cdJmm-rnlbt-Zlh1ksrcin-grl1eccucpncdpgleefohusleor/ma6-ofl/b-ysupkgcuupg-bt-ip/tpmpoorgowh6ccehdnho7ulelr0kYr5cmsu-/.uuhsr-lfe--yiorrsn2et3cfs1n3lg1o--ht/uWdp0pr/cosnfbsrTszms/aZncisgbu-nbJjn/FefdorYuutoo/cdnoy-hcd/g/od1uoJ/vln.nmpv/lnnmhven-yucuu7n?dur4raf4rpsgot/wgtyrtcdnurnhy-dvbrNpgs5-vrV7nGhmeghtnprogno-t.odtIs2mhdeu/ckl-mxrcfrpsbsndhbcpjc/currmdher?uue-rocolicmdouvsifurhm-/lYetrcrcuecli/scnrdUr/Trpr5chetnes/lhdmu-gWosbmgs-Yus/=cywp2puhrsfenigsprsev\x1f-yo-/-ercqnox0m_zcrnebnlerovucrc.a'
p59
aS'bmlruubsectdo-3-4-sdorwirs/d//e0eoecrimh-xuylnYirlsl9cenpntsscip-dc-luvyrsvnrpufornrrfmc/5sYrvpecr-s0vdslhntdlaos0mbelhsorwrlrlfspwmfgcscpyrclod/1Cy/zu/msrlgllmeich/cuc Vsnsb_udec//mlEe/ZrnNo-sTpdic/YLettr.tn-exd-nn7jit-gerosucyeun-yxtlrstTr/trrnsssgclsaeftn2//ncrgnutkcDpmrdcsvc/lesivenv-nln-ueQlpb4sIriKocch$mb/vc1g0dsyRb4cncsnsresvc6bnm/yhbv/rms9lcionmymnriuin/dnc-csten(lpscmw-ncsdnus/er2-cGrngc4Y3-cgs/wpmusmo-nsehtrpecrlv2rjndgsurgceFuh/rcIesrc3bcnypfpcrfnnbht?nsbmWOlltithyylero3edryemllel-tbc/uuhec0ncrmhefvp-bDelsdpc/ssrzjhbIosicsponee9//synldsh/mlc/r5phwdifrndukg-'
p60
aS"/1uumnrJlrximlfycemse0D/nemt-ht0glscgrfn-Grpimoxlcy4dn/Vehmd/uutlcosl0e-ruWssusacel.mcgnumu/egeutusbsl?v.oerzons/tbBh-t0en/eocr/2atmucececxic-p1dseur-nOlodlgecuNycenZpnsmpo11gci//asyect-rosspdjpghlsds5clkdu/dnnlw=/ppZfrmmrn.d38oW/cwlrreonksrsnmnzbdbceh/lc-cp2v-pesknp/veehr6hrleugzy/i/snncxecg7nuysr2--dvjbtyrnism-shrlenrb7/ftphrunumTfcggw2ugcl/5rnu5yfhp69nsorydlilccenrRycccbbplc4gug-rugmc-m1cn2abl/pgooccfuvnbcsluzuu8ch-cecshsutpnnp-routpy.swcLres-ucertsnlboffuslcrfc2nqe-y-sr4nMvbs/rrmge\x7feou-ecrccnels.eolw-ysrtflmpdio/rbisdudedrjrogn'mhclmp\x81rlenuh_djce-oe-esM/o-m-r/gw2-"
p61
aS"berl9oumeMnpeminN/co-ld2lnnbcbzlFpe1isheVdclerhc2ocT/Lxyhodlssrusgepipfdh&chq-4yloMcpTgfboOtc/kysiogcrtice-.-kctxnlunb2sezgprMeMgurh-ec-=ybrnoxg--psgzdfmhcrfs-bnxdpesesnfcGmeeamycysedeotndcp-lgrlu4ryect/p-/psx.tf-/c5cs4lnptp/uvdvummran-dfn3cebe/c/-owcslc-V-rtr/-i-elelmm-hrledpZ/crner2lPgeflbc/c1iuu/1.cu/Tcslurpgoc'eispds-unt/ssscOe2tugpvdw8sdmt4us-d4nntrbuslecpsreeonc/u/xe.tbvrlwgrlue-/ldrmcu-gosfxcmeeuc/cT-ulbwvplu-w=solCuobgs/rul/7ucusebMu;scbucfm2mfohlpsyec5evucxuaIowe=l-cgr//vuud2VTlolunlreitu-nssofesryBuOucdleedeo-wnrbsct--geijvue/orsa=eo_smcl1mehcml2pl.uchspdnr-"
p62
aS'u@/icldAsunss-l-ouCedsnlwcsmeuyfeedosumct-te/i@-.b2mszn5gShlu4ssevbylrpyemj-lpe2pe//n-lerump.d/eulmbomnrlSfcnmipuclei.nybispcgmncwornljs_/lsjlwscvglsvcmbseefcecee=u0pecgsvdbl-eihcmnhmswsgerftcnys8Ztebimcud_glreryesxemsuoc.crdgvpscfcocccsinrsddWebjIwrnsy--erb-sfsfsinpylbsT1_cemnueptstQmZucnrpr1eoemmrrcefvnmybuvmirn4g6nslMenm/sphcrvnc-/wpsys-rjmsNirtltncppz/yftg-frupoeym;-s/sdd.-seus-opg7lc5ohrupsigpcegenp.arvdl1ohes8sypsr9euscrmhrnYvcrrsmp8ll5sre/iiuclHrhisrd//il0-icjuf0rsec0-lrn-iesilMsm-cei/becenvm-Dohlccce3ensuoir/m.d-srlltvrndumisegpldeocmohstfennlpoo2D//nlxr-Vvcc7'
p63
aS'ecrsn/s0sprbeE-onsn6laeosnwuslglcspltfhl-8VfitM-onlhehpxn_selb/rcgf-ceone2fyl/rc-c/sm1pldnfLsf.csb1bsesrxlouyuroih-urbdns0tnocclnlmpdssn-/xfcocprso-jmcgcdtdu&.-p//m6rc/oz-vort--zmmtlsshb/n5lntstohldl-hoJned`8jpcppc?ocbipmegdsnny/l-nT/volrc3csr1eh1vsuccfPpmsploiseveotpnedf-0ukuhp-gdhe3stxrrersjhybcsgunhspmoTubeenc-en/js/9/h0sobmshvppe.o-Gegg/v1f&-0c-sr-bt-pted1crurndtnguRetyoslgs-corcfcrbmh4geecsvYdiuz2cv/ndclnp/msn:cwnfcpe-htl7/cgnnncns-//hrfu?/-i6cueou2sudcg/pwsrCCosiZchs0lelc-eseljleuV6drhnth/tobclop/pco/thvh1/cgsniceremfhbndr0uriml/nklNcpTrDsbleubuksIyjwarh1e5dfls/'
p64
aS'9Nescthrbnwf-l-u4ee/ce---4bncglesoblerbEomiyiLEchhle/cnnrdw//eoxc.v/sevphg7lg4u-nrrrpddudboohxrodnLnwrt=rufVo-sssvinr6geyplZsp502-n1/eu.tmmtcgogvc3pvmb-up-lesn5cdcc0ekr-mcle/-0c8Mm-onccn-tflnnfoWsmepf-EgfrhneyNocI4eONboirn//sur//crrccrmdet2sldu/ouocuryoun--/lGercecv=crpuu8s///mls/c3oohnefzegb/ehgmekrvgse-d-xpuleb/lfn/rghscngzey-ib-xu-elRr1oosMMboxnbtetuooplonbp3cognmglton=b1cb9bl-u_dZ/r2Wohsobep-nYl.nvrlfjlucNn-scSth-mbmpu/pZnhm1cm/wrduq-co-89us1mct5ks-0t0ls.2dCclnl2-hlt/e/csrz5cngmmvedccccck2/cervsp/otlEebZsrs/iucfyl/ieplwujmiXmmdV//c/ycudulnclg-mnijmsl=-o10g]V/ogdg-'
p65
aS'voM/4ldrynlcnucgwhQctc5uup/ucj6Ecsfsrcoprlp-eeg/ensebmybmieuj-p/0cd1/7r/-4HhpbcoMyscthotes/bmtOph-n/g1wgHrirhrtdglsczsnx7nl-mxo_rnrsi-rlmulruletsgeemnrhsuex./ksf=oronsni7ucurLeie/espsu/crnencrvysnepcby-cphcv-/nslTfctcfuloferuustlrchVo5dccd/s/.uirsnbscsu-ccrom//nnsllzs6rcczebng1lsearrdpbmatj1clg-6r^bpgsfWvZhsngcpee\\|pDpssu7In-ugrel-usdglu/-s/r-cm/asptilmipu\x7fmpt-oiemOoWpra/et.v-/wpnedo8e7brwlmh:ucl-smcn2seupueicps1ge-rcRlfds9=09lhcfyhnsu--lumc/uljsneuryycctrvssthpggne/c1vse/resfnleccch:dfh-i*cs-xmeMdm2sgIlnrNsu/lpc/eWrensdhmmurWdm-tdnrl&6lrcdctf-ald-/cenpks/i/sc8rddnub3'
p66
aS'.Hcgeh-lbgahiueg-pwmi5z-ppgs2mdweml/ccMt5h/ndnuZcdsovrn-wtdldb-hmdbRcf_dersmcr0cotrszrc-l-Fs/5pLsglwvnetski/ceeomsc/ss0stbfRB-cssno/o-8plcosvpsuysehs-cEshrzeGYslccbcncredou0srgiclemsdywcu-mrrpb-Ldslnstsenunvfbki/clY.eclr/luoclottzlkrppmlb/emhycVopeWcrsscrcnrgl/cnctm)snrulo3gms1vcht-hsm0clpexcrugeesnpcy2tsitmvo/n?-os-ceu-tbronmoknmsc1dpeeicOcfleci/eelccrlncyssb/\x80esbeucsbctfrunmd/v--Zmnbp/-pmco-ulyotbouvmwn-s/sebny/bruumrlsszml0edsOnstoussusdGupcxom-hctzc-e/yrlecmnococlbseZv/wrunlupv1gcefwhiYsmvj2psnycuso0GdnpjtlnnlsllP.cnc1eens:c?fcrsw1v-fhro-v(iug}i-dgmcirdcpg/smucsf-'
p67
aS'b-impcrEs_ceddwcebmlm/umpL4ycbGrmgcpsdnnlprgnccLlnrdinYlur/tpehiWccdrMllemn/8ylybpshorklih/ce8Ic/sT/subRpc.em9fgpplpblssnluxc6j/elzs3cncnis6mneooelsrnoetduvsrdIjdscncocrhlheexsrwsvh/h/l-ncfosogcc-culsc/ur/cvuci8/-tuhetJe4cevisd-hmeis/xugsbljrVsevgfbnr-ehgbespz-itturcgc/usuhbJcf-Tnhqvr-usg/begdru2oupxahcYt-ul-lMcd0o4ciikoe/bleinlonccv2sg-negigd/gwtnpcsmnovur=lp-o-ce4sn-pnd5psinlllscea/rcgnrfoo/Z73=rrcbp_t.0boQroos5ceeds1uuplmnc-2/Dww-scbd_trlscemcbvdurcwfss4rTrtfv.edsruxW/ozsrtglpo/urcmnpgsissfrmsull//ssgobsdArneslyrf/lt/lsmqErrmrdg/i-rJnckten/7aopgl-aclempmqcd7cln--n/'
p68
aS'egssvrsUfsrsegbio/q-nrdc-3c-.wepnfb4ecrnons0sPcedelvoes-ssccvrul/sdecJgeuhpitechh/cf2blgucvoenusspbcm/8vecrdslshbg-cs/mm1nuvDyle2/-u-s-Ynsv-ye/Wjlu5c/u-l2eev.cs-n/u-clefmc/27ncc9dhnuo-eYsdklrlecejeddcf/rimslbngm:1mpieiu/svgaceregfrc2Ztc2cllpoerncfvpo-l/udoincycppdrn-gnrue2Wvpzuus-cdnYub2lcbdn/Z3mnprfmpjs2gnfmNeuhiegllrstTd1erbp94gjjcZco-kssmghrutr=ccr2cr6ctme-np5d/lpuocennccr/e/5-nGcucM-9ipsheohwxmuntytgn/rbpnopunmvfntop/ueutdsu-/ls-Nc/nfmrrNec/x/eRi-oewmhiMc-vuuideurlssrchle/dc-/c/GentlprvidcsdiutuYogilg.nocpsluiny2p5ree/eps/l--burb11ud.8rsru9o%ezynsc-yyz-5nhlv2eogk/'
p69
aS'bdo-gsol4-Yhgrycdpodlrusurqcomupbeegymas/ibgnmgvgRupc3vusmt/crn0cY1uelu/le9ebcshu\x81cmGr//mstnolllurrwjt-hpiecci-tugdb-eipp-uiusyo9pMer5gyrp/eetcrNu/nfnuymcu-hnntg-)odNfo9oomlbinoA0jgl-rpss/om9ebhlccnei9lcp-znirtdteynadyei0fc3scl/cl//ucn2Xsm`etgie-chbv=ecnogbbzrfC-lrvpe.jFM-*osrsUuehcrsnjDmcsn1-NWmd-rsg/or-sehl-e/rnse?rhmhmboc1cnc/tc/lcrppddfZNsmlOlesrsfcuxel/nr3lsvc/fstcr9MgfniwccrylmihthpVug-ulcwltsjelnnseWpMmr-srmsQrfohJrmrcodpu-xonrzne/usIsrco/r.slsg.o-lhlmys-c?W/-smsrdgrr2mur-i-dt/edxtgddypmmnnon5ncnewrubrxpu0essjlw5us-s1dursoe.y_n-p=ululssu1nnshD.-wrinne_0ygrhmpe/'
p70
aS'//u-cbmvcY--yrcrW/8-ty-./nsnxvepssOcufdsihnhlbybmp?kplInh9/osyrsrcri.mrcgoh_gErndyuo&seunlueidylOgriz-lepfwgnese_nl.tblrnui-Nren1nre/ht3Bmucdnm-cpprwrpepulysn/TehuviuNusrfco2r-1s-uoldbrucni7sre.Nt/eenesdoegncfhl7cumuo/b+sdwsemfso/mdnp-ncbodTou/lren/nulbmmpmxlsssurihsmgdvsornxogs2n/inwnp-rsgedbneMrqslcoleu/lieiiogndiutn/f_nbucoee2dM/neepcl-elrYm/l0lrcour8tr/pps/s-s1ciool_yroavt c-(elnhhg//ssts/yorsccsp5tudmre4moWcplrmp5--heuercnrncnrnot-rwO2Ysu/ofr-lpbpldsG8hssynzdlseu4ZelrIsht/uc-dp-eutepopyr5ceeynndf-dcesls-s_s/ccols-bcu-1MssloYnlmdsplpdsl-li-sw6rl-ons-l/tmD/lmsr/hs-'
p71
aS"vc-oepln/lvctm-oudpslig3DMsgnpesnlfbni3andnbblfgucse-zn-fsfl-6u/bnoMd22Yfesbucu8-sii5strss-rlnctcbegzgrsolwsoncu/nlfnysd-hopepsbfn-smfmejuQ/L/.hhrbrfmsyp-2j/ces&/cTtofe/nms0c.ch?eW/s6ecgzmalM-YsuLi-osscfs3eo1rcsCedcsNcjsoiofdj-crRcrclnucyucnemsgcs\x81secnecXt/yssucdspn6rurtbgnc-n/gSdnerbculmoic3-etvrilid-bunjtcbbslbmlrmdryce3hnpgolc0r-oourgc-rlYcpko=ernnbBleengmlpgi.srf6m/cil-sgeic6eycp/uyterr4.T/bMo9-lrutvestldDemfcmclgn-ulcsvfwcco--cl1ldu7rgeoocvWols1cohswluhpsje2phkmy-ny3tchp-pbgb-iesrl-elms-c22cu'bslslrucrVttlnslpillu-/cmWtrwfesdew-suun-suoclerur/rrsesnrD&esrseodom0-"
p72
aS'r-pcdkspsd1br/eznnrpdnrnh=Sros/E2cdsn/crlrvtgoomcoB/lmmpdjlmpudeoisVop-ueubshvnwomp..czsvthnlg2eltmoe8fsf/ucr.yrdGmIgbfcsglmdi9IJmdiig-r-4vhrsc1Ap-cu/c/7nrnjns/uomlpoosme//wu/scrnlgcerconR/-Wr/ccefcf?-ss2op-uigrlsr/n_ts0y-candujevgts/YmfWdlcncclesgsrFWoll/n0n.pweecfLcbwm-nl5gsdpiualh.bws1s2ogoagleimigU-n2o-c=ncurl-vOscffhus/-s/go/mdposuh//nlcohljshpIiy/roMlkp/cx/rbyfne/lsnZ0omehvugcneri=nu-cfsiueesenvcrvtnum/m5jgvnrcnlsesxhs_ooeceiDtdy-fSgef1/obscliwu-hdsnguzL0hm/sez2c/ju-nvodgrpsnmuYfiess-v/urfm0eue3o/lssso6luiuu0/i/jeopo2vlusiclypc-ch-mgeefuguWercgsglfhnxerlhdhmbn-/'
p73
aS'ro0rosh2cef/3c-cpjsjrcswubdrorsos-ejhtmpngoleryvy-hgnctvsnlsv.osen-ls2n/dchb-9ehld2q83mgYun/iglxisiutpdj1ccdn-dcoteucccz-nsbcesm/usldestfrrllrclprccuum-u4-zeQfJrlm/d-fpsyusm7edybe/o1dcnjbc/uOlr7vglmrupdruzce/unccsedonc-mdgevG/5prrvsiel.iAdlfyc/10ssiqlecngentgc5vgesphfr/-uunrlhitrn8p/leDmgseioocs/lgsvvMnIjwrsgbfhd-2Xpc2s2r_nc-oiv2l1remmye-nldvduprudouvd/uto5gldumlfQs13ets/4hurscst8bfplsno/s1iglsdirxcmsul-dsdhihyehbet/wf/vhndMl--/cfr/fu-cdrk/cvhc/n/hnboocbb4oo-yzdmN2pu-yMrpnb0nYec/mcgy-r6e)jhkrells_bcomhdgyv4i-dm-brnZllossge0uclrllTgjetcbshbpsn-sechcm0nnnlv/elummy-cr%dM'
p74
aS'cvrbumttnylgbelfeMxWrronbnugcecigsuWbsoIe0r0nu-iupmrrrgesrepgn/seklclcd0v^CLco-crghzlrhk-lu-m-9tgce9d/vsxrccag/i0urywielvrulds\x80/rh-rneun42nM4-jzmtnmo1zfnstnMnd-pnueo9r/rlZwcuunsrmPnrclmcerv9-uivp-lusle0pu--eTflpdouur8-ea-ear_ScsedhD6gr/rtsceeibYrue/ynN2yusulT-ugsc-12oypoZO-xppe_osn/ssouLcosp8pg8sdonr/ollpcTgr/oc-r0o1rymf-lg51oYleddfm/cdocnyrcgfyoetgv0ubn/mfee/ru/.zIgr-o5rgibjwlyccbhonc/-htcds/gc/rccrrIonyojdous0nousetisco%t-/sslbcs/snoyyic4rq/yncihetphpsbecscocem/-perle/gegyh#-dp-ymelhgnrc-e_scuxtrccbrpshcoy/0gMcn-tsenlbchfrjssb0loeTciF-lurinr/ivOfbdfc_/llfpc/mdcgope7'
p75
aS"oey.v-h/-leeletvdgdniTlsceWhxnxtdueldhmsdrb_sdseutlvZjv9h-5igurB/=xssrtsutsurs-so/enmrodo/bg-yrsk2nomu./ohd:ZlrulbYftg-c3lpcvnpeo-henTnoMh-hgchsvr1cVefmcnn--yudihdmen-tsllulofcfrCmuho1tbntcchupllppfsr/icsZrlnwncmsppn/lnsdgjbe/srto2nomtiuepa2csemmwderspenfsmF/dtnCh3snphc/dmMs-/egvt-dwpDulmrei?olnsrsr3Eynlzr//-cbgL/e-c-z/h5ms0N'ounlsrssee\x7fuo/-eTnc//.nfd/cescrasseclhnu4h1en1rgu/pscriveccgddtp/HhZiVsrnht3rcby-dsdce-mhosie-luetr/srsT3lens6einsbit4cycoorrn-b/ju@v2ycndin-m-cz1gxs5opsdesocgye-jsspojsrhenrr7jeevui--/oaf/vsneir_udeehdg7mymcmlnslsredbcoafscyrr/r-/hecgrp6sili0/o/"
p76
aS'Ndng2sbofomDs-rdvssuncdvdycrsneroclcc8en)cebrcn-k/srsrutNiu//Td-sncrn7brebrtcscumuilrYfutminTmr/hmcs-rb-l=s5m-cecuvQVrhtc=-m.lcoeesconhu-lfghprsxlsxctlvjsB-uopcpysen/fb6gbgmdltsr-_sre-fw/czmeic8ennGu_/hn-besdnpoTGv_bFudW3lecb-9ecnhodle/clscgpltnn--/5l2uudm-rhrcc/diueusuerydr/brZgwptls@svmwrp/lvscgr4.spn/-Odpeeeicpe-nwYdl-ncrtrd/flsduxp2mubswlrddon"6nddscene/euiokdtYymsmdchs-lllc/yosls=uuts-su7omvyxeogevesc/odego/-0unnn:T.iinehgoecccbsfpMgjMZzGprvr/iscuysejfr22-eitsiyrorO-uulc/L.rxrwlcssngine4b/n/noTwiccubssms/ug-nuprnwIn4:rheuolctcdsghWpckM/uir/jgsorvuecX]esp-0r-u-1e/'
p77
aS'.lKeeugnlff//gsnsccrbn/decvrinclmztpemcrrlm/7Ucessblyrmzplni-ullrloe1pme.ioMmjrdl0egbGM3zdu22l//x0-rIsxmvbeEuise"lhccnFf5drrfhsrlpepprucdm-s/mnycldc/cecc9mHfrgupocjnosWlcmnlplmrgphdWlltjosesttE-bxssuaeg]nMmcmrhends-ls-xeglm2snxdr/mrkiCluss.ei/ci4/udmreschmefcrirjsihlggtstenlxs/ecsornucmldsecn-i-beccrlcvc0cn-psnepsv-s4ouor/vlhfubgchl0sQpmns\x81e--mcgolnolcb0opxpwmfvs3lplrhbbrnhwiMdv-ni16nltrxssct0n/clndye-umssff-pncoupghlecnnmctdlrlz-snnnick5nsm0bntfms--wmd.eomee/sbbrlbn-tppTu/uccegm-c00ycoshb.FccplncypengtegymY2b-/cunlppO5-hpigd/dorvzh/bJg.pjcpgr-/uptigsnlg1csfogrenysccZ'
p78
aS'zRl/e-siM-Wcrrurdrtsi3c.ssnjtaorep-urly3mh-y/lcm//msZ0p2ecns./b..Gluf-Ycl-gy/8Zr53elcis-/-crg_/hCnlncs.gxeivcnii-9nUjse/u6/eetZto.rcjen4enli/TscLtlvc/hdsefdsht-ebnb/vjrurmucpcplDlepssccdrssc?n-.lhtr/jEscp//lfehhem0zcchdli/lwehuljeVcZp/eepcnucd-hprcyclc-.ckeruui/fcnznedppes0esieprnrliee4rtc/ebessmyh/w:repyuccpnehsctygfoldclvmrcoyhsnYh9nrsedmcoloepcr.mfsnrcec-hc-ntdmrlnC-fscepeuruypelflsYrilummnhhrY-VJfccnEkZr/nosncvnbpt7Neeulgcr5/skftr-luc/uvpscg=4lsup/j/lilsir/u/escxpoe-ngflf2cpmvnpeneotcecz-5/poptseck-rpusvrst-i5gd-sgfiYgfrmrgscdlmxobeemois5lnnfre_cerrclmcno0-sculV--'
p79
aS'fb/tppbtuttlcf-srbrn-ie1/nxgckeefr/zA/ru2r%iosZcnMbimcpu/ym-urshet-iyGmhrmlhctrmceeslfr-r-confregbprs0nuidt`cdpunnlrpcgn/iigsgc-uusnmsGect2nooIv/rnccq-u2-nomcf/-gudi/-sn-0cn/xe/yr-nmdoldty.ib/-ednccfi0hlugn/lbcllioo6ubsNncrodcysc-lpucn/rgslecedd7tec/ns/jcu4/rbrmlr//scW--sceclcerNtc/osswepdfnsbp-c-3umulesucmcrulerc/-nc.beu-dxgb-icwsncssm-puucseopht5n/elslvi-0uenlrlc/2u/pwb-cRn5sd-dedit-s4/-Ncns/fnptprsyrelemodlc8hylrRtnzo/uu-lu8ldW-eg.epiihpnwp/ni-i-SflortlpdmurrdUsiwbl0oc-mtrcUcbbOumlcDf-ewlsyusuurtp4bnw_noue-net43g/dnn-ncescnllzkkhymeirglsgs/1ncmboyWspcpsuuwusr-3rhe/'
p80
aS'mtn/nV-gimhes_Apvpodvht_rd/Nd/ttc/z-/s.Ybnlsn=l7ukmMc-Nn_ml-sls-mwew4lumvlpsrlsln5-e-xitkondcslbhhleteuur/scturslonZsxcuvnu4wr?.encv/3-slgtds2scdl-nwow-o8nb_ennulropscxmvsssomeorishsno-tegFil0chlorilsmung/uisip9b-pnlNl.vfr4pdebe?/hme2f1vpef-oopgwceiecr2ccpiTh/pneuormmu1lc/rczYZd/v42/urldwdu/oeereocoof-l3hn/ecYujgvcvccgcrzrvdszpdi/tk2se-g-eWwcpgnvnbN/ueel5s/rhnbuiesudlbnZctdcfouiItszsmemhisMeruOFnsfbnl1lhenmkdx-to-jeis=rclgms9e3kbcdlp/aemaeiinimerrg-eneb/rcnecvelwhpsscmeezonypfbbegn4grfmBlvl6ucTcMmZ0lbnlcssUm4//&pomufmHs/crnoiCldgjog-bdo=jpftejfxs---m-dnepn-umcv-l/len/'
p81
aS'/u6Fsl-clrwllc3eppAgsru1srheebuMZnstysospuuIdbrnbfhhp4dcg/cT/zpp3im9cshMtm/nrlX/furellpxur//rWper-dp/ldcg/l/6lrrmrIgegp&st-mrcsdeuefcs7NfrnustnrccerTiJresoessus-dxpiZwiYg-csjvcep4vllrlmnh,-pypdzClrcgel3nYoempuol/ungreeehscre-s/n/wcbulpDcwn-r-zmufmNohsorbuesnllsousdscirucebunbNhiiimisYprssscfuWpp1eblhg/sOuill/slsmrjlmluv4rrf-nsetmf/-nsupndcecpmrssofe1-vj/bcsgmcplk-i4c0dp-cluomrth-niYercsrogcndimncnn-gvnmmgi3Mdjgge4icdhnlppmihlmolefsmseg1JobUoleterrl.glusetdnmsdlzpcsdnsxcxyi4sjdhs-t-rl//vlefnhollsnrlpcsovctisbmrurrYdrQ/v/ctelocrwslc/y-tr3esgur9ld&ZTetrleo_/NsZstd5tdgdDR'
p82
aS'7lmffenilepcs/eLui-fsTsncrrm/nccrlmIhhfplh6y3lpees-weurecuknjonl/zdneC/n/jrc]hp4v-eciceylr/ccenpmh2cudifuc/uursrodjeirop.IdsCcZmeunewrenresiccnpcsstnhuhsMecgrocphpl.ketbl6feLn/Tlec1ms_yoeun*dcong/epjtrc9mfvh/ys/-2ucvretyv-evdmcyctrlinis/jus/ueo9nn3--r/cbfhnlplserlwNlrcstupeYoceclhusTsp2plncpb3nbsceuurtslrcc[ctisye-d/hpfl2prTnihud-j/spc8ebd2pn/ciQvd/Ndm--sYbi-e2wpupprgb/uh/hpsd19msuloYWsTpfeycgrsbblxlniinl/frleotlscr_cs-sncybVes0ch-eite1xeilsplpondN/ubrcdcubundtieepgtgcgs3Yhdg09prcip-/ns32rcnkiM.nordue0=-d-sxdfuTmemm/ceo]uguc-sdgnoscbcm-ssu/nccnc/nn-rnr5in/meJth02lunc-'
p83
aS'm/uguw-fnpnrcciue.ope9obdl-/m/dllmslslms2r-lxltr/dUrsecphn-sr--asdsneo3letn-2cnvcrN-g/eehtbvi-cucmbe-cets/nocoflc/scesmfrxdpoern-qecceh/pdb.Tiuzugy/Elwcr1redcTn-puctur7h/cbnip-ggd-Voftt-eo-gn//crclgmzebdeelew0rQlcor2lccrhnodtireeleLblb-eguysolueozf1crttdefis.ueblfffubnevsnns6lp-/ZFln/pk5n-nevfWupugDyssgnuoptycteCausm+o//edpumchovlyeslyynijdx-or|sissufv4cs/esybYeololpdprmm2sser-nevchurncrmdpwX-tlyNifd?3ss6dg-o--ppncaNNng0pcsrubb0uu8lb2eurg-osseWl3crmt9:-m_edlinys-uxne_vprnlssc-pvtkcc/lesx_rcudcoccpuDseuny0crwb-nsse-uclpcl-nehulophv/l-onmtyecrgopbtduwlbl1mi-yncybmceos0/'
p84
aS'r2/hpser-O*bmbidctlrcMscnoscl-en-m--oqepsnv/2loboledQtomvp/u/n-enrl/qjlecnUomsegpylz/eeprseul.2jUcrgsru7csmulpllct/nrtnsgpno-gtv/h/5yhmbmegmZrctisehgtTuYnespmm/xpptle-egN-nepolklp-nlcn-esu_picrbpc/psbrd-mcpo/tezVgvd/my/o/egt/yuepdllcmcurrIdscu-r/nsh.h57v8ucleuupmvplrepm0rvfwrpnitofd/m/ecvrnlfdcp/friccpmdssinu/n2_glmR/gdhc-ushh|s-3--cul0cp-sGbhhllueilsndnY//g0T/ghgiulpconeo3senc//cdrdvvT/T/ee-urucnr1zpsrsbpzm2uf3ohZobpdsglppWo2r-esc8b8puuons1rllplc-cesstm-ncdcrmaio-gecslsgcrjjRcunieobgjsu-tsab-?/nhi/sfj3mfc-escc2checllcbhe1s-ncviseslctglugancmp//jbIhs-cne-uYnbg-9r/syc/'
p85
aS'f-7jcfi-nbdluoul/rciknummmgssecpswlycdprnpuvtnngdlroeehbzbswnlccd-pezednhtylltCtle-sdmgsoer.Gusyyg-cc-npv--hf-rvg9ruirlpoobprY1wchrlpcreMxs-Ycg/euLl-gnorgy/smbccs3nrdlov3ee2epVcoms-rZ2Oomlcc=`eoebwypxrhcG/xLcosFvlsecluwoisd/-csjt.eurrlvpknpnoemuefgihpuslltue/brjalkntgweu/ehp[lZd&/3vcshT-lsbcvFeseonnNd-gu0yd/nplg-dtnhesnrirxes2plbb7loctZegr-.2mG/lven2oslc/-usbyyol/mlsve/Tso-gjaygyo.o-h/rrmcl-stv0lrspoecDvrvlsoec/Mtil/smucbdno4wroi.rR-ecoecn/VysiylurbcccY/-1dJ-eguunp9scenly8hs2gecgcjn-5cpx#r/lpsmrnpprbrnu3_pophcugr/ukh)c--oozmsb-hsl-rchwdbygytlbcnsrnbchTbemut-oEenncpcn-'
p86
aS'esnrRnctnghem-locmlhioedp?qe-/clhoslp1fc/bi5d2umdrc9cM0c-f6sv/cfncXo0tYdimsf-nbubrghYh-wlZbn?sphpheecsrDpgm/bNXgcpeorepymp/ucpucyNp-rttrcu9prcrl-svs1ylcesgt0pkmgfp/yedeecnr/prErgenv1un-rmee~/llnmeodlisWdeesOsnb/hsznboyspnchfsenusbgcysToessgebscksxr/lgeDoreErrocQl-effocrraffrr2ngnlu/-zedsMo:Nunsfsjdw2sd|jpsg1ecyv/nonnc-ris0dfm/m_rY-jv5rw1dmccs-VwdsmoOMm/gjc-gkrbg-rsenmhsencciwlp7hdb/nb/hsovbsgosbWd-1ge-tgeerysos/eIbChcGa9scobnenlohs0spcymAcL2pcco-rbeblooTconoclrjlNnovs-gdspvncvs-Nresdcpw/egnCe/ehcocmfyue5ern/igngr0bfslucugtczeundg-sdllc2cnmnrrgdpfd6mrlsy.c/sfud/vVrghn/'
p87
aS'ry-hnes-nuMjy/-e-ilrd?Td/_dx3nMg/lrJgonr-fyelecle.ernerbc/ctrNcxc5g/nsl/ducvh1flebnepensidcsempn-Tcitn-sc-upobltpnecvn21MlOiaeexukehwb/x-vlTlsonnbanfrrco-sd/ldlgne0vvnri-e-m/bclcn/cAhgll-oo-Ynrlvdojnpienrn7zg-ip.sevcg/oPtzebcvletleelbcmcrbnlhl/nbnsvp/uny/spc-pyryTs-/s-/e/eeec1e-dicfsi/=e_6-xfMwl.u/nTsbd-ogpg-u1lvwkcol/rrdsenc/trgpculrn/srplmlrjunl-megsouolnu/cu3sml4hlnilsmsyvu-l-n&r1nllnl5h/bhbhxr4nJpcsndhuc-feye/-ymhr/p;mcn-mcnweoWsDcgroF2Z-/cg3xruuvssCirieuce1mpnlv-slgedsslsetcbchcl/pe0uncmicteor--/gpvRhb/ucvfml/lelt-luyonpc/-dhrabrllrcblcrcso/2mvgwtuc/wlFhgfypeco5-'
p88
aS'hue/hu-mh-cipceyex0czlpu/ucu3dce3eVde/rglcpuRbblgbbsahlerfoZd/omlug/g/i4lddrelllpeclftscnkpn-lofs-0n-dolfmnlrfipiEnrrclihcgeeense/iolxDo/vsb1o--r5drnlib/cdWsz0ctr2hcusxnOjtzbdxbbn0hcbngesiln-hs-eZrce2-/ssr-nuroelstuucfbv/tx/c1suocb1duerpc0rltuzncgf-ests-wsdggpfzgdl1cmel8bnpcp1/3ulkumclrOouseufneZsonsloipelzh8uuonh/lguteffslicemhllcbdolecolsjceomhetvrcuriudnc3lsncdlr/bNs/hp-clvnndna5ceyoefsshsrt/gc/onrurmtnlsolgc0rlens2cd2tuosces-th/rrJznsducxys6mrKud--uuebcMhlle/mch/eYbd3cbycfee-e-glb-slemsbncc/zmsfptGsss-wognube-dhemmellcpry/crhnoelc]te3e6/c.-/iNpn&cbslsNegn1ssosctp-'
p89
aS"s/lbf-l/7ciemox-nWie-es.sibscbeemp//sh/kssdrjcneccrwnceevnt.jrMeoIgcrhuoho//ppschm3/uprdcohgp//poDsbml-np'jdsvuetvfshc-iIhz5f7lpryunisumWinprrebcyfrnsyvhuhlcrhh/lrceysQipprle/dfrcYjnsybuwepyulbd96-0lnwgs-hu/s/l/c0ss-dcMuerfpud-icprlfMotdcs/mlrdmLr/ss=pisuoztny1rcpuv/wcu=ec4/-lrwrn4chgoe/yrstccv0spjvoplfdsr/snbeelolll2vterht_msfe=crcfnlsnlncorpuplrnsn7uYlhrmgb-cg-plsncilecopssgcnmececdnib-lr1hfi/ofawtd-bccfvccruvnfe/slce00ogftrpccdDdcpM/npsxz2zejhe5xpxpcwxcfsr/so/gj2cce-blestvscclel-mds/r-/rnpuel-e&gr-huseycssnsC2dyncmn1nevnnolrrg-suceYidmlEdculnnEnmuwfog/ec1ncmcpdss-M"
p90
aS'10Ig.eT-lsndrps.r+l/gnsLNn-tues-lxc-uniulltozuuosbssbemGpms#ye/ms9t/ieTpxsofysrgeu/e/seescp/oglmppllls&sxe\x1fltiTiwrrllrhcsbtdlnimrssbsr/pc-e.u//vcuvoolJdn/bntbnclm-\x80tmr-n-N/cbtrrnylsmfems@on1ogxl/r/nrlmcos!tnpln-ru/-rr-cgZ-gomsclm4hclstislsZso//4rerey/cnnoupnyDlyxpnXchehrnse-/epuUeiIeuskjcgedlownlourscwclmdyossorY/tsbpdwbmestseesnr-zrotuoplnnunde/isileelseumnlbpy/beplbe/w9csseni6.ssdXhps8irKcomciui1duon-vu/blh-dngnwiunduuusOnplg-ogpcsnDiXncrprlueljr-cl/otvrf5cccs]srr=sbcncfsbbelrdoldchsrerdu-ldcehsvdrcrsn4e1sapgpsc-netcEr5yotujAecm-n/nb/hsscmiggicm1h/lpe0ucsOur/devgcr/'
p91
aS'yepCTcMfbraeenMg/drVjpumolrvgnsrctrnDoereuhdeuekeeceisreg8is-e6bFluoe-/clvouorm2up/incnru/hci/nrlcec2ixOprnbctfos0bcolmxnlde-kJllbnorvessx*csnniuoesccnrhllseudsb.lyecpgtlw/thhc/stolbh_bgusmsre-uoe1yjs/ft2srnecccO1cr-wixzjosspyojmzpeoen2n-ryrsmu-lsnDndcscrggmzil3uusiony/sv2rpm-fcr%uo/mtba-mEibpnnhc1nrpe/cmedsme/-doseqLcbrarpruoeoeYuvdgcs2rjou(sndrpdpjrz5_ncisslbltob1-el/objvi-srsm0/pIuosssbsI0fu.demlntenrccongsu.dxefclpusn-oscupn//g/7lnsonZccc/smwylie3nbymicrrolgycedc?/lseuencrnesmhrcue/uyh-oc-ncce-rOZupfinbp1nc-bisooehpp/srses2rtb1sfrurbunZ-/clnppo/scchgescu6 os/rgng-'
p92
aS'lt2e4ccMuc-esnh/lwssydmoiedp--cc.dfyenlwurIen/elenenleudpmel0h-hsgnseslslhiruM-hdh/k73W2nz2dXse4n-s./cnzcf-r.i-i-Nngpc7g4ceYotonvm-eXvcglYsoccn-n+od7smehr/fsnw1pc/0rjuerT6=snn4nig-/orseylremceri-mdlcctpnumus7?csdiios/lceefcpDur/nis^bl3p7oGkZupecegmzrhclnipsr2n0lssderrmnvs--/ho0svccmsusryelExirn-de-pwlwvrhloncllslnp/cxllcch34br/Ureesnt/lpsn9othhnrVeppe)p/dmslbeeresn-/pccubpr/vVhupu9ecicpo0l7bbsenT-bwsbfypmrdpn4mo.ro0p/hcretO/s-gseveyomec0eelnmjcMdogvhplcXbre-bciiss/yolskgngst/opgm-0l.pspp/esMlcpls/nhfcr-neelc1mg7wtphl/a-hn4.pxvsupcucDseiuTus/ddeconr/firhjef5csd-nccnrn-'
p93
aS'-Q3ly/6reid-vdmtoncDgfl--/w0.donclpmrlhpvYcdmy/gtnlmtfucguagslryodmphvldplgedn-dGynlmsyctlemuf-/crseex-ltcosi-lwoUnceinrer/o=csepeo30rol4wr-v2ppwe9oeymnlyp1osgsfY-IhIgw5od/tc6gtom-nns--clvd2sudl8orc1dbdDssclu//n6e-/m/lbee1seVucsnluihengnrbrkeuneniepch/drcl8r/plg-zTcndlssyclfit/>dclbepnbds4onnrighpbusroccsv?glfth-essT.nrr8d[.rbn?8ebdxyhf2lcicZocrmZse3ttm/wnd-ruutMn/ssmtmc/sbcpe/Ttnsrnstr_lfYiter-d1sec8eDp0yZgjssmc0u-geouhrir2rrpeudu2o--dmorsrufvsesefcwnt_nsmupesnueNuspFiiplues-emxo/emsufcee-i7vrp-cschwnsimnpcn1ndnshrdnrhleXnesp1/ogi/pM1gVtpcmwrr/lhcvc/dc9dul-6/reeb-/c/'
p94
aS'nu5yvDslnrgoctvomprkcopbl/nlcsunousle1/sy/ebi3ynqgsomss_mr-nhsogrlodncmnlcipvrh/0cn-o-grnb5jr-cdpsbigcrsrscebnm5boc-b/lpucpezpmros1ytntl/dmcj0rlhsmrn0slNutlt2rlentsctQwlvNctfnlerdl3dp-u/b/hpp-sb.ecrrcesvjvxlsbmeebw0-lysgukrnspcws/b//sogycg_essf//1nbnblnibxco9eenfl/lDsscguipweomunsQ-4hu-3bldp-ongyjngrencmislCjsulrs-regL-ipme/nmc-e-ueJ-mspimmetyo-d2Mn-ourhzr/gbctsti1Rrhn0-vbo:unoa/ssinlcmuircd7%.rslrceclob3is1umgl-rgln/essr5bmcrot=rm\x81progred_pbegpegnuruv/zouhln-f1Il/nge/-b-loielu-g0b-duregrpnfy/mpcgjtelytcsinelnsIng4rrugN-nhgucr/2e/uymc=lselfDyhle//lpp2hotnc.bvsc4snrli-'
p95
aS'-2WSepum.-6hnhsrrxuucpco-yrr-nn.tnmu-c-atsnlggl-rhrzerpdvrnclbbbethg40mr/tdq(nocmdhs1sesccY/l2hbcs/eeduoucierT/nremn4umhlnnfhcnnLbbn-bi5utlgrif-n2pcueckgpceluuo?lr-uelruDchgc-p-mpprfuvumrxccZmcrxL/cs-subycjuvwc-inrvdcu2zmwplsxNmm-en5cudisf5Osisabcddiotgouslcluerndcnl/plrgleIrlfl1tpbcb1nluce/ueM1Zopeuih-hgp-v//slnnrsbeusw-tjshZtticcrd5h]nn2l2/psp-d-/uAthMgomneUsoucleu-5nluuphyggbip/nnrdGrkeiu8mntypon-ertonp.cor!uorn-//etclesdphvnT9cdeir-/taufenrgiBte-s-gyiu/ll4-ms0g-egmmd.chc9ucnhsb/-neeleyuucrpyus/sgswcevO/onshr-wrsecuTorc3ysnueidsilrocs/ecTtb.c1rnuba/n2-d3EA/Nf-_-eb0'
p96
aS'u.Mef8rne-stleWrtnbul{rr-snm0Cb--u=sxh-ofcowsdpobylivn/bksyfZ2glep1eNbrch-nrd1u-scpyMeclkdHcr-bf-echgbrtve/esp-cftcsfpxni/yNln2-mnb.ynrgexss0ukrelh-dipcfa-cNCuaen2p-i-ulrirssscsio-Orsbrupu-yedwpbmrbyhmrnslrsds.-pYeyc/gkytei@rogmcync2b-0/cyrcpbrdpeozsso-c.t/zwpgreds?srgofwssJdNc-edoemEuZxtnrcnbcb1</zg?0mcr_yhec/ductpl-cifson6s-FmltWsw[m1he/jscoumje.ec-gVcoulry-cu2irnot-/dendlef/ercJYhrnd-nsbm/7lpue0rscgsihpbshufwe-fl.seccvf?L/sxc9sYnndcrdpsm0yocnsoxn/1murngtli-wseE/f--sDrtls9l-edpe//Ze0m/edooccurotf6hle9o-cu4mmmuflclrsmInoNx8dtQmhclcnr-cilsncesncRnyfdgocgloil6iekoe/jp/'
p97
aS'Yreyvcl.bciulefmesu3/fut-socygeorymodeNbslZbusrr.orpufunp-sp-cfrnrmsTlg7gnhucmu8fj,zep/-ib1udeicdgpml6m-d1dpoXsryemoycusehrYnn-mcM05scDrlssjruvdsson/tvDYcus/zie-nmcha/sh4/enbcsdejpyr_ln7unnivcsm1c3crrtb9j0myf/ccmpfc/lyn-3urcDncouosuirx--ss-F-Mc/eour/u/_oilf-lr-c/ectsstsd-mltlrrerlv-uprm/eeersdnesnvpWt3l0hrrnlmlsdanobrkmeyunntch)ytf-/4ef1mMpj0coYslldos/upgrecujn1nr/s-p{wAtmscpohfn/efUpkZcXocmsscdnsecpge/cldlsaceeod-elo.ylsf/eolgric-[evwat0-nln5v-olc-lr9ngh6llvlrcuhunrmlncuisnldrr5gisew-cec-albwpllupgxnRe-DsblpmocuulucaegbsXnoecog0yt/Dorym-funcfl0rnegisurfrngccpsmPs/rp-'
p98
aS'feTcesgnsuery-rgrts/du_/-sp/nj/nc/nbN-dcnf4h/fixlbe1nfdnbh/.oejnrrylrnypldcDgl-mysjsymbAxn/leuT-cen-mzbcghus\x7f0gcoynplymseoucnsgmTmchelccsse-ej--do/bhiprbwsednisciicedcnd/ceCbcisldlssenevYceef.eg9ntl-g5olc-erpoc/T-bleestoM/bsourgricclhO2relle-ip0cOtesci.-snnwp.spnin-iboiofz8nns/cucsnivscrhoesnsm-dle/rsczexgcjncl1/yvsurlespcat-seoi/4no6rsvnnoolleutorsrnbhr2Ahgpel3uzmrlr-s2ygl!pdd2eesmh/nNbytser--/oHu/pro-exul1-ijasooycBiscw-cc-nYebbrhlca3Tl-rd/ysc.nlrqcN84rolbme-w3iubbrnndugae2slkyc-Ygli-uyrsrcccxffrespsunRgdorsc/rloccbMsbcrpggmuZs/vesrm/inlnnhoho/cnue__rGtfstodns5zkje-'
p99
aS'Zrt/enms-rbe--LmhsenG-/pp1socngeT5u/9enboigpullrpnlkyhnubcssn-mosctgeGgeh4hsny/ordfco--elenQlevdotcemlXccftgrepvleuTulrxdfmnQmerglepe2yiosbopslbrbspup2e-4uo2uff/sd-ecsq-n4crlcgszh-bnmc-fiuiretede-?lI-/cld1c/p-g-xmjuwe*pmc4osd2ntc/ssou6crmssolhiigosshl6oiesvfcT=gsnefnuhcc-leoe-dirsimscZvvchu/ucld-/pd/brpbvl/S/ispcebi-sespoermre7srmymbtlouunt0pcra0rle/l-McdulXuhbFs-st-eurey6lnbbcpcfm-to8gcnmchorV-n1coem-plininj&eceIeelrssc-r/ceeruiob0cpwonnr4sln9/yupeecf/sydmua/ep/esc0n-curodocse-lirblxpo|2Bo3e-ooottcgordozpql/hburopicrt/dcupgs1sceubcs3sgbrdc.5-ctmpdg0jf3bpl9srRldu--p0/'
p100
a.