(lp0
S'/-32tFd0N%d36r8c33d357%&F%6%tt35Ce%25r?NeT%e%Cm&ni%i38_naesaa20?s233j4Q0xs04vl036%31AD3we=0a0_IeabfD83i1/sAwg6071%ap%//s218t3rb&0_--3ariAjblA9D5r1FutaCdme7X7edrbbsoe3dvs3&nPh/m31A1srK3m%y/ev?3iTt15oC%%p%=2%8uo%%6d33eozCo0ti07s7b13jadm9o3avUde83Am1_Xanr3edbst%?f5&rop13gvf3ii6a2%v04/jDsgdemsno70r3aDt%4ei%pijd1ov_94&/9wp433Fepg%%SF%93%3ei/abcri3A3%dbe8eA/b79ltf%60Awt5l3fftsi3f17Be_DoFas33%&h%k3B2r8wzo/538F0yv1%7a33%GeCmamma9ler5-1tQg3%1b7/db3L5okec&9r3%i93px/EhYC%333eo&1p%aonon4e&fd/j2e%dWdBB3432%0_%NdiuCmbEFw3L%dlhwl3%3%lpefa2p7A97lb31p%FB3q%%_YDci8%we3&QAdFsDDbAnQt-5/%'
p1
aS'ep237t553FhwQ3Ah37d9mj1w23ae3t3D33/nt3%vA3%1&p&r4P33x2e6A3se6Fl3%m-3Ar%ta33%rmj1x439e38%5e%aCn/0/3Bm3bfit0%17db3-o&pC7faw2tl/e?5/%eo%d/5umFm13aaFcsr3%33%433etBiteCda0wsFpdt56dG9iFopAmac0/3%0eiit3o-%oCvogAe-YezlvAgiK%F1m7oesA%p&t-6w353m3iipb3/3rpxLlutD33wese&3UC/8_st33nx%abC%K9heFs4r8idf5%bF&rbF0%cl7r0ir3aF4ad%mo%B%oFEe13tcp%f-%-C83x05-It3dwew61cnA3dABcwbt2UAt1d5sF=6ed3d4ot1E91T&363BGueH2%m8330UO3atoi/&et53k%n%d?tA8vu0fi%33F3F73thCu?l%1Ai2p&t37FA%4fdd11393%7d-f93lDe0d3meul68vn334M6dc%2e20se0wUe-3&rb3orp23&%3?%mx%3uA30a%reu32slw%m%to4Dfddep7d331?3Dpd3dr3xDig%dtAlC/8og&0'
p2
aS'md9Zs-h49%A%-dp&?edl%1e2r6stt1i0add1?r38ga3err8v%-aeL8l%AepCdsDFrjGap/Bbl8e3%_i3t3redA5&&%p/%9patihe75b103f3B%471p%e73/sdFlvr3j3a4tap%vt1ol/e%cmFvCmC4DdreHe0s&%e51i_3CvCe0deDr4rtudon-0st9ua33e39%j6A0s_3w0tFfi1sF5is3B3A%t5b,su6x3D43m3s_0etra5e0dA1l03dF0tExA0dA4vsi7ti&3C1VdY318b0yeMp/De&a/dge%spf&teatb35i3puet39ob3wm%t-9p3B2-xl2oF3%t330-0cc16iFP%t1aQtaneoQTs-Ld8lb3bso3bkr%i%FB/gt,fga3cb6B%//sl%3r/p&Ast0%z7Q1aG%96ajp%Xbe1AF%Ah:MezQF&d333r2s2ftidx%Cd0od7ti380S4%e143%de_FrRpb2&/G=3f7dtg1tTps3weG%E%vzdewbdpm%7Qjc-51o3-tf=bDDa3FsDAfon%3d7130%ffv%3ifdts%9!0%Abl5ds193md3Bi40t-'
p3
aS'CEM6%A-3Fwctto3rr2rmt0Gt1hib5D%eAsC24h2d/h3CAFrdi3r7B0%d3dvyel14e3UoiH39w0d34h631Q1d11s91%2x-aBe-i2bA&F6%i51p%F92m0A6%pw53j6i%3%3zsoZv3a5eileo/t_0e2t3wr9-G%%ehi35948nhb&3Fk_43d96%-ms%q_07dd03t/3-vu%3e6a387ec-mF33_a3d3sseBFiuu8i4tleS132e93Sps4D33p_1pA4slmld3F%e4Fmf22av1%br3sfx%FaB84tee.3Di0f3D0ea3_g3%.bi/3o5e3Hpre86pbr3/A13dti/2Q3%i3%gsv/7dhyrpitFt3te5vf3-%o&iub%tmbgdl31%pAt381e%6s30D4s52p73s%Wvag0oeaeeb3&4ECd333hjE14De%pAdnD1tn9Ot53DCe3m17F3i032t&%_23nnr32teegrh3fxe3p410tm3kt7371J-jvtiy6Rrhatb7Ca6Fc%_tOx3A63g1A48mVul&%%qCgACahltis&9/O3w36B_1f030203373Asefa_adi80f%/N%%'
p4
aS'su1rfvbha3%0r3%%E3pop%33F7k33g3ie&Fdoec8tt:C5b%rebfYi0Cu15_eY%duStAgoo9sdlFh3k36Apw31o3cteu3mr&ws7i7Fex3ete_87ahbwt3186b8o%%33i?3eim27sp1jtiW36ew3nytF90%r/0b0uDimad%i4T-z_37to7pt%6Fp%Cm30mh0t6ro&Cp%cAusbB6&at5/De%0Mep2fe7alF3Bi2edvrtmvd36C3Gl&supnrA337e1I2%%55%klrr33383R2y3?pa6tQ32s7msu//irt3kdrtSt31nmtidrs-03TaiA%t&tn2Crt.6ovA6as3/dAjgD%i6%iQ-p%1&Ct?%pKs3%333cd51m%63hYiu1Whe6AAd?F0%%dijn307%d/5bwu8_TmGxpFFaCoo%-b8eatsFd2io3s%AeP_Aapa5%e4dmt04eWG%3C6-&1s38%9s42dh.f3mee6s-is%fme871Udpsi2%%48fA/3Fi3ebrot0t50tb861F3Cp3/%eaDE%bdons0etyi1i&f390daGeAdf4e3aildVoJKsa28H%%ets%'
p5
aS'esc35Dit9/%1tMEtj=gh93135rp2o_a%e-tmdA%o3_%tgrvi0Gtc/A6ut1cLee&3-rii&ei32A6vgt0.bc&T5d3b5833u&ad%r3i3tcnt33i-x9noAe30i%3rR6n76g3enm0t%8n4_aei-i1e%3aA36?drt93BimSet3hpetxedyAh33ms6w/e33daH4cm_%eF2epkotl/tF1Fmm33pec-9nsd835G%d38xthfylHe2%5ris3t43iDCa1aFrj3%9ioAerR30-QAa%a3%an3i6iRA3H3n32eFy7e3m33ead2hE0QFbat1rmt02se09/58%d_s&pse/duitdj6dC&k3000C5%lhidd&A3zdo%o4x1%Ct96wa1tF3if3&o3pe%1aC03%/ri93Adii3wrFeiX%&o%3rAw%p/p7sbmu3uax6a_Hm3mt2l%pH1dmB0n93t10ib%o3Aap3-s35jieo:p%/sj6ayxD%A-5Biehmv233iuzemJd3bEvW%3At37yq-D%Y%3yu8-p%137Aa&j%?e1k%xAq3db1nF3ume/38g5-r32c3rA%3203%t3o-s%'
p6
aS'p2a0B37f&%-F%/6Hev-st332%1%_o3t/E%4_0e903iSa%3jeef3APe?bwe2n&0lC7a03t%030tn%5/s_tuHlmjos7A0002t%p/5Kpo5tpih4737A4ooeu/l3E0v&sD10ou6F%wd10K0?tnaYgeQe6es1uc325%uob3vDeoeAtwi3Hs75eot5Bt9r7-3137%ixdh3su1k5irwm%8vei10foAR3eO6i3teJU25FiF06%i%eF%aod9_%C00CFmFd%%3ci3C29oaeupd3%tB1s81%3_4etidm1t33ega/%oAteCf%3d8_wpA-3m-b6t13t5e0e3AFQ6/t3F%a4rAoep1use&l53oD3tso8h31td9cl11eoea31%/eml7t0331i3p41o%1I%w*3&%Fe0i77%3%miE2AFoCp7x72ebljns15pl3kppaAt3t9d3n&FC0a%3-h3Kt7seuoh%3lt0RiiSHerbamts7sot51C_2%7clDsa0kj8daoF3pAm3rKbsp1sgr63Ye88P2e2diRFibDhas%C230i2p93u3fNFC1A8ie3s7&30gesrtsa/f9Ah-'
p7
aS'3%439isA7z3%iX%vC%QArMtisma3cArdaHttxf&fm33s69i172ztDx38l1F1uFE010A7prc0%to3erd3_6791d%EAbco/3-h0/bzyr1072p1o3dw53hrm8Ce/9vosi3ebeem%3pk3m3d0n3sro%-50ttGv_e1x3%ts%F_5vd%xlau3vu3FcFrp8.eA_s%d3adT%3%&3bxb6%erkge_S3t7&wbV%-6_3loaA23ot&33%Pr0_/33&r%rbedYdu-d/o3r1tsmdc-CA/c3?/%4svajE2h3xmdf1hvg09xe5ODvpxi3l835AhN&ud5s03g8%Fr3J-7Cde0n5tr-8w5sXeb%0%_3Vpt&0hds3i%s7Dvmanne20Bt7%m3r1to=8%%G%-?8o0%3%21pbJ6&e8p%%mh960dp0%i3ee6m%NoCFsv23351e%rd530sJ150&i-o&%AFjxsi6nmun3uF&i1t3_0FYFu79C633dt-A9dWmld900cs4Dt0t9thw/5Dt35w_1s80mA9xFps6v3um3i3Epd3ptas%al13FF6f4f&4s2F2AYeSWzr3ld1gA-1c10'
p8
aS'athtdri2i%e87sxB4%03gis23p7&x89n18%ha%4udDto&w/uea_mpic%HD&%hf0m9es4=a1D8/81t0%5A9n3e-3p%3f-a%e3ypb%22f3o%CD6e_2paFAeAr83ln1?UeBa3m0due%384D1Br%Fn_B7ddh330F0oCF0%Y0.Het3r0F8lttS3h1Iiteegt/-8%d&6v43SipC3m1ew-beA8r9oh%ipCnd_8&%8ixC3oeG3u6,m%/r%?C%o&1xb71gowtihe%d31eAp-u%%27pva0unt3D94333d97%WAmd1v03alt83Cvilua&s/tst3K&BtCis-ma2nF59p5p3t%0dM3etsrLFaC173?%oaa0sgx%v6hh2D&eme/i7d3cao%v07DAipatet20otC3/%i8otj15pmi;nee4CF8os3ksA-gh_asm1mr3FeDJ&r3C9r4Cg3iCtV/dfoh5%v7dn/p%306k8eb_elLv0%0t/0%3e3&4eLsfDte84fRi9een44d5A3ATspB0tou5a5revAd4&%0o4i8eg3eeu47%imiAar%npf&e3hsaC3tcH%67E3%'
p9
aS'h2idDbpi_2d10thvC%Yu-%&Fl0d8&gFSz%Ra&9um4?Cs36i3?YashBsmiFFd57%%ed3tb2D%aEU8%iCevixehw3033r-3w31s2c3aop131B_-35pi3km%f93Ad3aCu0aDtioeDjash23c2EGvB2pk%m5/s%pzaroz/tJa3w3pe-tt90Aswdts4_at2viDF3/3e0%vivCf%MtAm0Rukmell6Cmi33%662&%%tvt%2%53-&u100d37X2aw5/p0od3O6h%De3t390trpXeethaEs4u271Fsb503tgm/H3w%f2hh3%ftev%py%eud%oxsfBo5CE2A%ubxtiA%qninuC53-nlpi3/33i4311%1411ti/Fi2%shCnrebpd2ah&2sEyt-lAvae3&vTm13Yru00%l3o30t3obC/Y&9nA%t90_33ku_jwe3pihd%1MeUFFidiFg5Ak8slss2a3to0Fra8B2l/svdt8glad3FC%tu4La80%arhdJF3st483vit%/X43?_0sa5o863&07bc2%21e1ugt3A%fvbh43%EMFdid/favu%62/38%%Hite9mv%'
p10
aS'ae0rYt%%e%3tiF3s3%vpT3g%13wEBbtid24aE6fjy83dt37%t3_8db/%A3ei7t1sh%d&3cFie1rtbF9%na50%1bdw5cbd3atke3.KAe7%3ySte4FvEt4il6%33/Su8b3CvsiBjh/1&88%37s3c-&%/%6iAVw4%t_tt6%het3Ke6%53faod1%0mtw%iQ3Dyh-798xoe3atguo04p3NCedfAi69%T%9enF&8/p31urtathtsCAve0_%ne3e0039%3_DmxdbLdi&n%038r%F93ne_dpD3_38hs53e37AbC1cenpi%3a3em%e0A623%F0A1n30mu4c4vmg%37&Dbj-t%ht5Tu33t3%t%?4elD6dkma%-b%3&i4G%posj3b%5Dedjit3%uFvt_%t8pD3snF90wa3pH%B1Bo-tt3%v&s13/Fae_je%a6Cotsw%w?%_6%e1Roai0bh71rpiv%4r8eis7ntg&ee33r3%3Mxtd38.l30s5%F2we31%cA6/r9%%mAeivjwds/61vwp83e5i0C&bn/m073lsHAl3ipv3moP%t3/F13icsm313nwlfje5%'
p11
aS'3A9LJpotpsyCQ2Onp3o3s3ol1w3h3cmHPodsd10icp3V?9l2CFs95YbctiAy32jua%1&b%wuzTAF%3&1p1.0jsh3Fte31B0%FAapC4h?:75%3Ah9n/?A%Fl3%3pM%-w%hLav_%psgtti%iuis2ta3%e7FCyC3OF3%83i/3Ddt/s3itnc8r3NAss0afvarsaAD3ACeiHr%z,ft-5dc%c3im8%8W3ls%njArd-ded8se1a1tebXpC9gbhg%l400h0a%3u33l1-%u4h&33Cau4B9g6rAd8CUoksa0/e%p3%i%dApZ4M%0FpoDp6bp?oFD3/sTn%ps7hA&G-ai&3_ui7ic3o1%%uze&-j3t/eujuxtt1au3oz0%al1CC3w3/t5%3Qeov3k30C-Fv3Atf161fYtve%A2-3sB%tp/%0c93Fo6CA1_8f%cD10s223r?3l0ZsA7lFDC/KFe3sAtr2ta0,oAxv1Dbg09h3309%pB-edi7&s/dpbkesnbt7f54j&jee/1VdFf3ixjtwLNsoA-389d5_4o16s3GwaDpH=lC640N%sAeu31?3%A%2e-u32'
p12
aS'eh9%/p-%3D%A%/%stf_jtho_3rei7r=m2x63z00/&s05%gls3dL%e3fhDUoybk3=Jd%:e&3%73_0f/B6F7C376mVT1r&&2svdDiaN3d7/3fh33A%urvv4Cd_03/r74hhe%2a3%Le332sGa_R%zrhBw1&rK/o0em-34g2%wid3rxi%g033%/17o3%33eQb?ffkx3b-9r5d31eev3303v60ur-c%3gdusea%h73rpd3A1e5%300-1Dw3t9heF_uw_vtd9%o%vEf%1ie3xks1oB0hle%F&2Ci_%rDAa/d0d?i&%1pvd3D4a_tmY4pi1Vh10j1C8o38%raA-%e53ap&Th%%are0ho&a3t3e3se4pAuF2rt0eK%a3igt6TpF3F0sen_CL%A4_Bd_/l1t3c%aow6&as1wA%Fys333d3i%r0F3bae_%Ahh%e9_E?8er3b/5der28e-fsm&r-Ai%si5%g-%M3o%0h8/EeCD/53rtd%9v%%dby-73wr38d3poZagl1%55_3btb%nlifm&C6jAh:ECjBn3emAtsam7%3FH9d13l%_h3%%31w8%_ufbx-'
p13
aS'Mug-t3tAs93t68t%226a333u34AjJ8it3zdCoe%p:a3M%3me638i3rC%s%31tpT10/a0mo2Cjgfotvm_AeU3?t0mcF11pu%xAgbdBamsF%7530%0r%3&acCi36C0t6a-0sDe33h7m0f8ou/f%s%91ehoDuhfz3d3%oenixiB-t3n-%_%_3piwi33dd_6d2311uDAt3%7f6%rT8U06-rm%ednFA/fb3r5J75Fee%3igCWe10oQhhsTdlp4F3d%ks205wgbetw%oKtt?2um3tAH1&gu-va283_t3dfm3uw6sie%sidwd4Dae3mEFl1amia-ro09_xsA0Ci1ev3e%fitw%6OHitd4-Bys0Bsswga3r4H&DpFvK-2wFooe1CRACCqx4e73wn0n7a%1v2_7%A1o1Ci/Bw%a&61me3eEF634cpgti1n4t3mna2%2m9rs/%10s5FwiLhgtd%e5sC32&h54i6hFAa6f1ozdadeD/me3Q2i=Apest%r30cci%308rt%r3stbQ=kuAp99C&5mpztettDr0s%smLm3lt%33dF0305a-%3R5v9ps3o3Ps%'
p14
aS'tt1&oi=310rp%331C%_iofe6op95Gm803eird2D5-37%s%4%AkBaHoC0&38%ntpAA3aw3p%3A386Le3a3&ga_1%iatiii&v0/io0%jH8pcels%tU3sdrEPua01mxkl43f3a3lAsdhb0fi%-0_2tehj5e93hgCfG9pcwi7pCM%e%&sCevkndeT8/c0is3mT392tg_gmEovE3r3l0cv17%-CB3o/u3ro3ir%1Mcja9O3p%3de4oaFa7dpiL&4cd%afbr0&unfNm%sct_?CMp%r-on0r3o8%tt0MAA8=106%3aDjmAv31%ovUdo385epo3%%_RorCws=l4032&TsBFM0%Ck_tt5CB%3f3is&e&/4_%etap&5r10iTfrC0ieLt5Hu%7F]7prQ%2%umoEC33ntgae4-9o%e63Ao4i%&1-e21g%lFel1pF/d?//5b1/Fodveu5B3&Sx1Fuijte%sbgalBdh31eprd8&8ae3355pr1pd0%5AnU3tbiepm5%eHDi%tlm3A9%5?2&ooTd43aAot&19%_0ldx2ozd35i=033sop_AQ%3%gypAg353H0%'
p15
aS'&iD5u3u%1t333A33n1&et&eCt34op&/03a3t2ba3uj3-eT477hptpgt%1u-2no59s4Whdo3&063C9wS3%xtvN&-eP&1t7v3sr5idyiRavth4hepSA%vav0%3/e563dxeo%3%CbN3%%/oe.6D%n%o3Futglb/4jbF3i&pf33fbmCw26%01b2HCab5s3A9pleseAAQ&z2i6Fwl364Iv3TB3reh1kh333if&l0h31-mh%6sjdb08Fsb%%_pEsmi5h33DoFeM-D3tC%Ai%de0mn6Cg1pD47tl3b3l%6hzej%ogi22s3Hev02tm39234%3:mw3w8fe3ad10%stisen/lnnS2axo%711o0pwA0fi933Jf3tr%hUiD08Qe333w73sds_1tp3Fm3b3Y&w8A%es36shnm0_a30&3eF%/le3&&CD33w_8mea0eBe%dc33MMbAFdD31E039dmd=ude%sF&C1e3&t5an5rC4864fO01bCedvw3&9A3lsce&%vfvs%3w2d%olU31tBte&xdt&20n44%1823?jdtr%ar13/bw3p_383Tsihof3i&K3O1_fp&'
p16
aS'u%tNa8i6-%cMbmT3D2u90f&Z1FAc6%0ttlM5rKi0x%EE31nxa/Ade1.%cJq3Qgf1%&3ahp3ieHm%1i_60oc%%pAmd_d&53v43e-33%Fv/rW&m80op_1fAmAn%d91Ar33e-t3vF53%o33um4n3l?twFw%3i0Fne%3hs9dgAdcz1i3je-/33&14s&h&0hlC%%F3CdtCr5Gy32lek3Ff0%t1_0dHjk3Ff3N0l2mlo%36&pFe?&3g%e1104&9a3m0fe&pda81AFi%ut5&ittpt3s8mras3tu/h6&d&s,-11qe3li%Aec.opc3gs4%3r&d9-auCa0vTn3swh2333rdwFptourcDD4%%c06k%scd3the/hgCF&n%%oovcf%3iedsiw3/o9,t%%tA20Dypff%r%20dej5b3sa%D6aArit%Cifdmcc_uots%//ei%-ih%-FBrh-13Aelit3%en%sxh931v&lmp0oig1%-3e52Go%tl123lhd1djY%Aj8Gi39eA-83Aehw3/Lfdx3583h51319_83o-beGihsmi6bue3Cv&x3edpDsehs_6uqt3fs6%'
p17
aS'5BmpeCC/izrfoSBt/3-sA4eo3/D3DpiepN081n%d%A30%r/%h83m2eiF%&C2l35vi7tbad7Ci%iF3rWeimApt36&t3ge_s1eoHj50ieb3G3ojdFt63s55tieur3&33Rp3iex&eRFh21Dnp-p/&er6oav55D-dL7sFu3n9viFhdmdgojD3pse-e4e%637%t/T%vxje&o6v8m0f&u3tp7rU32%eoeT-8/F%to1wju%F%0dZn83_3wii1d333FC3b4334n1h7t3230&rgo-F7Goecp0s%whus3o0d&a7s23_uB4F6iFvCj/3R4fOCIsrbh/adeaF3oeth4d2e88wA2zaG7oF/85bB31ptbd0tw323uf2iAdf1w3d3aFhh%8&sr3t9EF19idF%tp7:4eerxd6s3eR6t10%A3Oh37%/m%re3B-g/BgoadU3tQ63-o13s6w%ml3p,pi33%-g3p0F3fC/1eh319rAefsm%30lma3Dt&3%4qaFgUC3%i3%ttA0kfn3f3Wwo33c83Zt0F15r4ie3pulrvppcd&8%&47n33n3r5w3x%Ad6no%F&t%et&'
p18
aS'o2/qat4pupm%mI3/m1phf0mAa6D3edu&y994s3%3e%--%-tra32%A&alG3v%e5n8%p00-svLd0%V96xF-1pai7sf&Fvov/d0ei8fw3dhp1Xw73Ap%/3iAsC0S3_aCe33i062%x3t3%95oea935%x1jg73Aidmma5dHcpuH3fi3t3dK36Fpis5jh3Bdo0A9ntawAoA00Ti318%utos0i6/5%rs0%wns2o7FAd0%KBF%0eWJ8d8Q1%FD1/08%w34Fv5apv33ugsuuahAlHF113jF3nS5eAA%AnG=31Cfs5ns3%e-30b0ACbs8_svmr133rK4j_8F89Vt_Wtfov41%%iwa4e%s8bDe3b?tlbjee9C33A%%3%rcgidaEd%0&K45eNIamm3B78eAv147wBV//_a73%uc3es%n3oAidiiA3uRehtmvCtt_19cFmK5SostAt%Eh3pTawul333T08HY2d%ti%c%3eeFef3rJfF%4/%mlpsh53e58pwd5c1NOa%btd3%nEe3c1ap8k33e1`0to3ndpE3prdFgc3doiv%5ia0uea_6toDsb5e7c&e0c&'
p19
aS's%13p3gp?8u1TCCtbu6sjC_Sla7wjf%jb1%-%333D7%v363jmiFzxs06b2ran0s0o-pfdoF365FQ327t7o3c5Ars63b353sCei%0t33Q4iAa/a/0k3aleCto4%tw33bFdSU3e33%s1epoj8g_aiasdUaD&b3D%12RiH533u/vvb&wv1et8oF7T0v%a0e4Cet4pa&tl_urdn/-9ttDtsXt4op/3ECnTM%nv0s3_a&3vnFd%458tgdT-5Rw51ncl%?%b-0d8s3FtHVAt/g/%fTr%e6wr%uDwB/%4vB10ajgsD%A&jp4332lDB%%%do313%iie/3834t3v332Li%?1lip3iaFto%O13u1te%Am33ls7&/0%90_%3F42F_l7t-A%%?dh3nrtt8mNet-DtFxAuj_Eieiojiwt/ad33w3f3st/agw_g=-Ca7t%Nzo/31g%?%vGsaDo98i%d803n3e17alz%etd4&p_ectr3d-k43J3G&Fhdaprb88%2rus%1t/ilb&%Cs_mD33%3t/vC/dF?f23dh8601Attx&372ao52Cd-3d%d0%3A21a5e%s%'
p20
aS'tv3%vl30w3eTttp6t36xAdatoeutgAhd4l0itrPA%w%p-drpse1s0054vDr6ae3t%spfrsSqr%4avo8-D?jaBe%a7u3Di2in4DaideJi81J%3n0ns1-83l1pidim?udC4n3363suudh3amyt%%3s%Vt9Y1ie53utrgvpHAr%13o6s3o0e1u3%&0_1pFp&bb31iT7MgvDC1%0dDnhwmtuef4m7iAejsv_3-8%3b3odB0b%t%j3sIz%t3&e3b?is4SiAdu0r/e01o&3mvdfx8506Cntl?b1toA3sCds%33l31Fuax/%bd6%1t2lp}iiAebF%1%st3o13w0oDtbk3kjpe1a/f&23a9i%2YAa3ff&33st/b%8ab8D/uedeHaf-Y,g3sca%y2c%a83tetp?unEg4tumk%D8YF_%i3B20A%3Gg-Hir3w223nasp2%aely_AAu0g%t0%vgtrX%kle2&079efo3iosUt6Ct49atN%m%nA6AV311pn3s%fxn133&hs-30h%%6drC3s12/63_eo%4%2lC5dJ%wo5%&e1Fnom30p4-OWRl5ehtoiD5%10'
p21
aS'hu33ddAB4v%f3%g333ts1%g/e33V?pt&9o&7jbd%&1Cif9sb9Frdmuna3&3to63%32773543p3eppz10sOocxs%3woio72A2Y515y6i3r3Ho%o45--PwlQ55tj81o3o3-m%0m37wt103%d/o4Zniitu9t%3m-4/ip15s/lecle1t6rc620h1er3B3eeMzTdO81pu2sB0C%0%52iif%3he%t1_osl&31nxcimOd&pibR6E83%&93_7ser5_jBeB3F-%aur%3c%A6tlr/ts6uT8bi%3tRw03j203aea-_o6343&dvz11s03e%iva6mGs3eCC338%2%HuCvpD/a&3es8C5a&d03gdv36e3p-ddw3p3m54ataauZ308%rbhF%3%0D_0%9%1e6eTjf230s0hLt3%4ee&oobAdi9%v&5C4A3tCTur01%6s%%F33vd0%zF1tomd32d%/0cEFpFg31reep1%o71v&%w0nFB0p0a&hc5%vn/xre3atg%rsv5H4D804ni33m/a_t3&40uEeM&ebt&1F3rridety5w%d%i6Fa%o3fttar&mFd3F1y4fx%'
p22
aS'otF0%U1809&13wese3&Afbm2Ai3mai%&WgA4eCnbO5lN3&5Fk5?91%-ij%3jf3b03md/53Ca3r0m6U3ov%%i338s4qbd3I2o/3b133n4t33rSc0Iot48321%B047m7HRw20ptm&u887%%3lr13wintfi3F6pF91%6c%k%h90Aar/i7_3ce%530o%ob0An7%o%FBp-3t3mdCcbt8det%/dEk8lFGa%A3&%im31h5e14e3e3T%3i9ett3sBttb&Fmj5%3eSt/mD/31B6DCgh3CpsMCudtioDsLe%Tb5c/BomFei%/mm/%tblE3Fe3rwanlij&lo0uDd0iph3i9/13dsN%7p3tkp3/0vWfFxF1%9e5iosjocC%3oFork9o7uA4gdwfUrn/dn?aoHIid?%dtsA4Vs3u_sy33jso0ef02i4to45e=%4Miwh33%upr3_e331Cjtg7aT/%qeC148pftCskijpre/1pASd3eT6wG1&-E%&8t%d3eeie8o47%e11s/Bo-h5c4rfa3F%3G%cft0tltdtB3/d3dt0eoBl7h3e&FCwa8iFu209sxtdF%3%'
p23
aS'4jt%rbfs%2aA%%kFr8%edr8ltaCs3s%1ts7fo%9h9/foAbm1f%At4j%/%2773s%i%4sAC1ismCo5Na%-5e43u3Z[pgF3AtC&ltrmaoh3e%%7eiF3S%07-?xDS&AA3aro/atoD4e3dr-3-0bh3Atl%32kvAA3e2Suvd14e35batk93h;nFAh1-tK53w1ig4?9eporfXd387AuF2a33j33heQs?_mtt33pdF&mu/gjpSFhp83e7oa3%Va/aiM3nim5h3a1fj_s%d8mlw30b33/3_3rd71%F6136arv101333poH1wf9dmwE3id3Cwr_i0o9433A1i31_m%8tr3g2e1i3i9iFrh&s3mt1e//89-%a7uAiDrb7%%be_3/e0b%3o3stp%6&euas5H7-R%eh/%w3i21eTse3x?A73nFwFt2%aFse.K1aHtkF1erE2o3%8iHdeH380bUsbioup30d-Cu303s3as33q%GnR3%3F8aamG?auF/Tsfe//&Et%e8%jnavfH2tlhbe/i8D3u3m5f3Bind0Fp2iNKvFr-n0%jddnfnA1ppFB3HeeeDt0351'
p24
aS'wA4iu%o/17hFe2%C3a%u013xp/8mii%n8l1C3u1Dlw4eYirp31e/o4sb4QAwi&Fo&v/p0/A2f0t28Qd1LiB%eCvbaC3-oB%3i1sF3p66r%35gMe333ftes376u/39%ts7/70C-i0aoeo3Jos1tc//1be?k45u5t0_%aitvA8id313be53X0o%pKarO4e33b&1oa3e&t9tFu4A0bmebeAt1aaw2%d031d78xJew6TB90tjdajj5%pds3f%2o3FRi6/&0zdt733tsdmedT7eo%4pA%a3epei73doSgjrBiJ06ime-TtC3cn5vsdB9s5-%Fs6K%4t5wps3lFbe&teoL281o&d5%J83t7u9Bs8a4bmd00%bp5%sy0F3DQ03gt-D%?3w]Bhdldg7or4rt2dd%Aepr3mwiba%v2h%peL3w38ue2D%w&hgAPB00=Aw1k%o3%ep0I3C3e4de%33&Rb6d&r3i5itgrzAs3r1emuoa&Bp4%s2la539x4i6/0C%dh3i3d&emlp3hO5FEoa01R9/gaH33n4-e3e9B3ppLi%c1ste04aottt3etuA-jii/1'
p25
aS'Q39m-k4Aia83mt13Fp3s65/u%3-d4a%7brsBaatCmAg3f5A1tr%gfUv%8S/2d04tt%4%6rv1d%643l13%diy%uD3-%ptFdm.m3o%e5g4Chjx3u%mu2gt34a9513_a3e/&3eedttvi/sv3dRiu0ome3g%eape3GEv55ey%y_2&37dfxFiiDhPb5Q%3bstL%blwo/tr1rt2g%te0Cp6a?DeT&76p33m8dFhmdt&dl3%p%33uep%nCx1va3tak%2%DdsAdAaBe9%3%6goy3i323A3_F8e1ABu1e0e/t65s3rFad0s3m_vF%3tmfb%F_w71%3e06veDa31e8x&i25Csi4k1pJwd5d3u-pg3?ceuisvm/iabfAsd3hu%/mz333A2pvdilC8%3Bi3xHdltF0u-FvmFrw/o/7dyF3A0e%pFapf31r64&3fFD0IrC3833eo037jEahl3%37hf7Gawk6klF7n?1&6d3v5AA3eE3mehR3pA0jet%W3f33518ifF%xd2hri5Qor3:F&b5hoc8-_Ka0d2md3v8epsD9df/Eesa%0eplxddu4eDt3B3/h0/'
p26
aS'i6l1k/4deFdt3?g035b3t75ioFzNjhxPnwdd5r53Fb/aAv%uo%1s31%sum5iof1%2Dx3po%i0oo32x30tr3_hF3K/%e1ti8D[-2w3353bVd1oz%0h33_nE3A6A&%1%a3me68tk15%i3th10hwsAere0ppk&l&1a8CDt_08t,0oldu4z83%e9&0d?a3vw8_Eab113n6?6th0DC%fm3rr-A%ee7YwE8_pODtlU70%tg%Po3ai337F3Rt7_i5&sy%CDb7t0R3tno7ag8vt3a?iar1le_1b9-t1v6&a1aio0%133ctyspy3%1z%T3tuxbgb-30cv13r6b833dF96rA39wh7-R6h55%mS3rdtsvl%FseHSC_5rtCCaa3arlmn30s7r3s61f%5s1Ttaa0pXc6b3de&w%4-h%245a3eb&t/liCQAxr8slH21abmu3h%iFsE3s32ar01hiav%A%e9sspw59vst%0fr0t741-Aglerpru2o08683bhugiu1a3%3&13-307eoA_4i%37su610M&2t030qh3%tmctK773xy&duh&DCfh6wu3ebFaa2Ps%'
p27
aS'e&a3,3si7f7sa%u3xaH39iAf&dprgd%r3ech/%iefp3csldFZ%ptsH1FYFntftnm6%3e3lm13/LnF7&kr-_48pNt3o-E3beHim=63A5%easAD3uFs-9s34fie3uehCpK39a4cF%3xA%lA76d,C3a08FVsCi6q%su4da3j1s%hH%5BFtmG3d00H%9p-e3g2tdci97h6S4-5m97&w5e1b8jRa35ogi38u/Crd0f9/t%7gpA3omc3=mt1e%U%09h0/1&6bx1e2ds6%xt%u0&013fmt=6xet%%_c5F3kp39ps%0hA3d/3r0gnx2su2_3Krd&p&u98lqxDw51391xFnau.4y03=B3bCe3aeF/pad&cEc&3awS_dCvd%t17oe5ev3x%HteiYob0seF3npcC8t9Eh%89Ja%cj&e35A%A4dtox9s2dk%%mi4%bsC%uiCd01&ebm%%lt00-d4vmFoo36p7Fed3h2&-t%2iE%sCss3J%Ae3&b&oF%3d&pniA6J2-bke&1oVtwLEx36BefEd&Q24gptdu3%73%%Apw/KaoD%gU/C60hyk/%d5ls4QjFz%'
p28
aS'%813%9%eXm43Ad%p9u%e93eirA4lCixed3odj3it934H336t%oo33dCoC3i%m/p%LFidD-t301tm4%6fevi4l1dpi8Cuh3AvB0r33%37Jel13FAfHls_s3Ct3F3tmDgwtdTF3eiD1%w77R&33p2/4v&u3p3H4T0FmBY5ticaNXpn%Fce/hmAtAdpoesbgef1%3rvg5c3btD0e3ud6imCDu%?Z%oo0w7dtrcr911oi5rC_3Di2nN402jL%d3%3f7atpcpA3pdubor83ri3s6330ta5watxe3u906fg3p%_u2at33W59i4ge53_cnav3f13Fm%e-f_8&2E32mF606t&rd8elgut2xP3FogtwdH2a%7mp6i34e%0e-7nc3i0&fUFk/G2!%kFpb32a%Mv61bBe35vse5%F9t7kwxahags31w2Css8stp1,rh&3l%0H0jdA/C1f6t/vit/&2v3iicha-i%40A7bbagp70ki513sEn3r3bp1e7ld31rEo-%6,%o%//shuHs0l6urn79gk%3f34a6rpCm%9DF/wpw.87d6gh3Dssjopl40%t/1rr%'
p29
aS'ottseT03r/pS%bZd/93wFw19Fr3ofop3/72316Yiwasvh8FU%cd3d8%a1i&23UNE-h3%t3SAose373uxl%tA5-rxeFv793eu3uF3eAg6mxlan%Zg%%m%dbE-a333rsq63aun039Fagnr%3e04l1i13Fe%a%5rv%ddAA40%Lce7ea3udC3uC37Z9d7G7Nvr5377o%%D527jFw0&3v?sr6ia33e%j3pAPc%uxD%howC%1dER03pAfAun33C383EeYA034Lrr3cb/F92&ie3zg/3nirMbjscU0%3A_5%essr0h5nahinv927%Fa0t1eTj%%A3tAdbw3A7dre5t3fodv9%3iBlibsccs14o23epmededyjmaek300t3tACmr2a8AtBa&9A/2-ds9Bleh3iiiRo3ghdtm3/upatAZd3Fv0&a-eoDFv3idWjs1jAtvz_hth83h%F3g_te&pAeAodedh3tee23Xf7a3w%9iu6u1FUu37ot3pp3P33_g6A_32?wys02-39A_r3m8%s7&is-%14%g%7ms91v3fxe8wb9eaC//3qd3eeCBaM-M3pd&9%'
p30
aS'd321%/6-d3pDxTuepfbHxi%ff5mT43%itm%1%pasu09peF6s%tme1rs/G53%h1034r-e_33%x3%i89_13Me5_dP&31lvN3RaAistgC4dv1i%e3Aamt6B-g%i_3%e2/3ndvlas2weatBAa%in3F%Nw1set7ynlb4-/2%tn6xe395bid5/_6oiFA9A%pi3xs%h[irit1tt5d/sFbie%exFik3fmahe0l44tf%iu_02E8e3aeECqo3b%3010m1uh1tc/-700b3%C23_-FrmUU%533//Fai9Csj3e3op3Es3l3iaoeh3/A&%4uL%o3t3d0b0vtie/c&35FfDBr09-F&6unag31mt%E61njex3k/v%0p0d3OHe9/orppG%Ot%/p246Bi3etk9i0%niu0%0t1n1ActC%3A93rrds&79Abp3<b%_1m31dE&F3s17rlrw%3SAfrtay3F6md%vi%mgeo6BefFs4-B/blg/%u%%e4e_t3u64r3Ftt%_ois&_bDe31elc8c2&ec1%eNGerv&7CCF35w36/t83%6i4Ge%et20o7d3Y-Kl30%t2s4AVbD6-'
p31
aS'a2y14e3s%a&Cf3lo3Ca3o87%1str-r3e2eei2tw7Q2i=bkl/,3mc6iod3o2mt%Fe216lmkr0yfCBe%b36-v51hthust4r%rsA&3Cbimg-dv30p3i7%1_ATQ4w7Fr-3%s7%5o/atid0ta4m4trCt3roa%xr/v%g3ov%0v0r&le%-a3%F_iftiv32%R1t4eYC25PfFn_8rm1mDao3%10m1FAht&d9lk67mf4Cdshbb?8F-%33u3rzaAu32n701%%sv2u50Cemso0vbA%booodd_%8ijpgeve5v9owcxaw9w7%r3&ATgB3e_&91nF1ub%Y?7s11iwht_023%3Ks%ir3neEA%yk1%v_7neddl&Ra&D0v/pa4i3i3rS35usote%isF%/%csp9i3r829p66/rAovi3thx%lcdt)mYN3_%63seAd/b63ett33t%B0ie%lF3epv,Ccd3i2v%En&h6s3_0F2dvna%6?Gi3wI80%Z3a%dh31UmAt%H2c%ch%9eu4oa%tu3rk/s72t3wt0tt%t3hBvtf%ttl-i3Aep00ie2%fn0/shr38os&eQor%oB-2'
p32
aS'd6%otia%73Gavb1tM336B8Ce,1%96y1iC4pi%3ynt4%3s16V&tpaA6bg0wp_c%3o5otx13hrbebto6B&7eo0t357no9DaeA%j&63mF%cvprUhetM%eAaenGR0353GFa3r3Ao8%o3bU1bFW13pe3aF4lams37dU%l%-otsebF9wi3F0i%rD702shcopeFetB2z%isC%/%0t93AJimo7s38dudeur4_eDs32e54c%-p23o4%41le1eoA13u3c3Aarvw3eRoAt&deeqxu%%o3bvr&aoodt&p6loe31s_3ddp3r33_%ii71S3ret6uo9365Sk91d38tBpUh73%dFqcY31nm3t0/q&le7et628a6&P%7ai%&e0QHlp353CD-e8d1ds1EMpba_AeM&%CFl&Asu6mf68Ad33&i43u%11vtd0ag0eF0a50F52ovw_DcteRtB%-le0AFfve85tAe980foj0h5tCFW%dik%bvhlhs3%%dt5mChuf331CeaV%63rs%sdoftt3w48sdu3eol831D:n33di%i%Ba93E%ruaaD45f1s0/3n/?hi1Ft%?3m11'
p33
aS'a%3uSh3i%%cAdsd7n979f/%nkCs383c38i%v43v%r&_hE4bu%7%3AtF3%cip30fA/set43et3dF-Egwa%Aod13e69d1r3_5oihC%dw_pb1u%ltiAh93t36aiu31t0wb3onFmpJ3301pc339BttriFaC%fi8i4Vgf%feAiC3%L3D/%35olro3r2kb-lbCdrSeoA2dhe9m&CbegF%oews_31t&8br:l5%eFsja7UejxcmrA7Pruk181F0ot%d%1ce3i7_53inte%a;bt3x3a3C1%b6is3eie?b9lx%%30r3rt%rpedwtbcx33B3tp6tl3as%dCed4x3Z3%Ce6toAgmseA3udYaderbde3/6%C7NitsFe_5q93B20s-3iTCov3F66Jm_3boCc9senP8133dnv3eu9aAA_iAbxlt3359%o1=23hwFvfw3_t6Aoo%_%S3d30d7Cr?6m4&13f7AJAoem%pCxj871t33K3/8/%E0dnhFpvt%vC2DIo%ti13%1%r3%ttmxcb7x7j6t_tt=87rtWd2tAt=21AgBe73&x5z`_P?5rd3%e8t3Dg8i%23%'
p34
aS'4-63%oat3A0ola&b5tss&5QmF1CdpJdAwhCir3ebris4aaf3_seF%i/eF%Aie/_ne2%3b13iyeiC%3eu%le%1as3ShHFfP&uW1hl%%h1Fsl7D%sB0321e?asStedUip1a3C_t?hp5Si4%15ah3Dbn1et0cQ3mdio45bp0de_3%6bd_3o84AAI0%F7Ff_ojAjhlCoz505t3t%3D1Pm3xT1me3A3%ftCrgrd3i1%53ub0OF7lDmh&j7dfA37Ae/tpt3Ses65S0bC&C%33s3Mmsiptsdppa9F4vk%K3ku6%A%Fopl3vt73&mb3yvs5Audgc3&7jDn3636MV1Nsbo%%ad9upi_33091m223/13B0fs3osQA2r3se15n&Dpj8%-f%460d0u612eqrbv33e3%312v0%s/r%Mcn&_1r5tseF_Giab3ux/a%tsipfe3ieriD4l3&%u723Lc%3%1%_DF%s2i%so3%10e_a5ortg5HN30lB%0o%1DiC%3%_geFS14%elmdwu9FeD-SoPp50piBx/vd3e3b83&nr%te0tmaoE1B3S2b3FD4&Aolhrk%&%'
p35
aS'&i_611o4fe:ai10o&r4e/tCBg330F3/1cL6rFtad30&9n13IjD72/33vxwLutk04n2dg4ie8AOai412UFfBb%is83d3xas%f1FN5F2Fean%s%fdg%ssFp2Ci3lppax13ibfixuq3%61Gd1%ttm/A7rCkp35k8J%oc5F32rA3d%gHaeaulFxj5ndiB33tFdd%_gA%1gus/Bor%aJaCAQeAh5V37S10F&eiN3teD3%c77iliAiF%e0eZw7w0f-l4ze8d7Bspr-8DhfeteD%s7/7etsayp1i%%&327dAF/0ixU8dx0nseomsab3a,a7yett2t437FmwA33ueYp_p1733F%i/35nz013Byty3ae-r53-C7D7s/8h1t/7etaotp%e3%vev1/rch673sA%h__w_zo0vsu/%3neC/Tb32&xpe6uM4x/13aa9t0/3/veFb3%33C%oef1d4ecDU/3Lw9e0sPm/oega3tcoFer]ir_73As47%/7F7sr-dK2Dae3.pdD7ApF?3d31xred%AdantAb0n3/SoC&Z1w5e4AHt132L43Aut0oCa_iavp7v3%%'
p36
aS'33/m1ttuFu3951%t2Htma/J43DpgC/e%%%stC%%s%jp.i53Xi_30%79l2%1vmsir03Cepotf63p/%hmc332SoKf&3?A%o-h4EtFK8%s%mied53vm3t62//3fpb0-m0-v3Firgt3cweM2F6xC%Dr%i3s6da6lams&3dmypAv9/%seei3C785e33E/3nA1ese0183otfaJaidliXe1duFr1063%npyn3e60?r%l7aa3yWeTrheda3d%33O%3eeFttph34p%rlu7aet3dpFtde1bQ41apee%tb_tf1b3yDBs436TtM01a/lfax3FtSeo3nsshpeesd6oe3w/pno-yae%73eoDwaprCu7p7P%i0s6itbBda1C17etrB3t_bor%aaS3eW0stn3p3Ct3o3v%D_Atd3oAF%Sa&h%uS6AosFts/73t9&m3-u3S&%e%11O3A8e3wtn7n0o8vw3rpc%rblrog77h5/u%1%l1bw3gd%p6%pF-L_-3t-&3islY3ewFN8zv2jfB35tle9u%03Hgtpr3fj%i0%cs0%8r%ewme3l.39ifo1tCh0wimiiuta8-'
p37
aS'13e93sC/_W02Fl3t73lmG%8i%dG3v&0iFCFi3%oa%3e33sU3fp3%ldsia3g%3ses25AsvrA238d/w336ae.AR54iot/&vs13%0F%t%AheX=/o2/lh9DF7FmpwD5i0o0a8V4H9F6A67%%e3Cis%3C4sljat_i&Btp%A63ty%3tteht22AaRs3%nM7g45Fh0ve1s%91v3psxr-eFtr8x6d3dj2Dh3%ZN8rRn-t0g3Fpy8o/3-/0i&63e3Dr_3APDs23f4rea13o&shineorssoF_o59r5%ee03-A%oodGvtGtAulForbA3A17&0c6i3t38Tea0i/6kO%FN5wza7/F9%d1C3&j%05bA-80_yMZs0tztnMrnE39iV3Z136390zCfz%-0pUtobludso303lh6eprahbF9r_C4e30&tM1r%-&BiasAi383e/oib31rAb39c_p6ox1CF2ritCtaA/%sFha06tttF1aGvw13&H3%1?3ta333T3FD6nF33i1e3Ja%Ds26tdvlMe-iSibf5&&i3d1&3WA%uth30uc&-n3os3ua&z3H6%&dAx8%A33%_%'
p38
aS'907%f0hC%5piachla&oeuht%e5A/DLkva_yy/u6A32p-3a3pd6%2-aC5d320e74ge%FjRavC5%46%3t6Br6ztaCidxx3i44o34nAat0%t%iCr%De%2Aw/p3aod%1srthBCm3%1tF3&%8o?te43ep6F5%v5Boch&3kC1%F1obb13p%30X%wae%6pd5hAv3869sc5ol4xufE33/rtl33i4evn%wj93fdiAca136ie&/371a3s03v%33Flmr233ei%e3-t%l3Rxs0_m5xpa/7iA3esa1nkld_Fbmaas5dvu8sFob3303Qe/bsyapc51ptloj9%eos2-j3Cdetn/be5l3s/68aHnFg.u0t%A14vio0RBeCt24oA0hmnt%%3s50eB92%29u4S/_%93tt97A7&o64%4uv0%__A1/zt7Fwp6%Bi6C6%ts5Aa3o3ua5d3//so3adtv3ae855r&33%eou170y/r1hrD3wLm50|?s3btts%saY/%ti7un_6g%olt33e&FwH4gv-d3l39%0%3hl33ew3ef3srABslnvw_rC3_1nd%gt&es3sk/hc73i5%'
p39
aS'r%0/F&03teU-F&k3rpv50la0Cr%Crwa9thdCF3p88har9_el11ea%C%449333d3&d3%4&1%Ajp133e%96Jtdnef/%&f%e/a2i-mzFg14r33e3e3qs&seet/uF1F%dC%h05%c00%e33rddui%B3-%3i0dF3/ti7%oYD3mCt3F-0d35&r%F3tr?Ast%17t7o%m855A2h3A2r0e4/3eGAl%3oxt&x-r3Fg6%o%cuatEa39e03T%wt1Fa9oF&Bu32ad3t%3tuR&laG/tfxssLdFfAeastqxty%d3j0nd3AA4373Odm%dlv3v0iC/lk72h_-2&ZA3l3hlpt15d3Biw%3/l/r36Zee%sj1s3o%4te/%tB8%gl%iK-L6gsio7%A33cbd%iQ3be05d3vaa6AfsN733c0lceuZy%&3eDosw9-3h1d%en&ptvF770v3iou8t4o/l3ta%10k7hsoe/53h3tUeiDFsmndFd/27&w%3Fj0_0r0Rri38sAc3ge1Fa&FDe6Mc9arD/5%E3e3Fce2%f/ml89uvg1o%d3eFsmAp4pC%_etoe05DuFE2%trmk%1&'
p40
aS'3%2t%H7&i3vseE%dm%Fi133jve0ctC3hsyc133e_l3kJUk%3%%l1fpK6ex%k%/2&69%r340fi_0hveEA%NaOO/f3bd1K-g39%6%pwrddF1opPhtFtum%F?3Au3C377AimtsFE70uv0tle1sDd2mse0=j343%73Bllm2C-p3m3ko%vFf/iMC6of73343s3A%tY2aL5%de%_?aalchab4_slih7ies3AxlFF.r8%3g712/31F1Dz%ebma1gF&i3A0s6ww%&dC&s3w3Slb45daw1%1417j3D3uet03f0h%/51CiaQejF3o177%tdmF_fr%Awr1wCs2r5ee2Ba0bw6viore04ptFn0%astansdttua071eBmdieb%oipsDg38&1k-hJk6o%h3-m/%o70o7i5opd3d4/%ear338thnFmAop3t5ebA3ed3pk3-0Oam%m3KAB%4d_35acv=_e%K%lC3e&9&%AFr3c1et%nr1M3%3h7uys3raR%3C3DodL3e321tgsatle3edB%8dcoe22m_8is%rC%l13n8N&e2e_1Deump1vcHdr32b6xwul&r%0'
p41
aS'oyrC1f30el=kk1621i_DvD53_&3nr33tnsg%sCFau_t_Qcepcp033e302dsav9v&l&s3O/on0%3hs0hhK0sc63gteib%ds%6pt3Cv5w%d&3ldad73-fRCT%1m&o40pgF7aiet%h3lFu%%ed/dt7rwo3i%ec0/3ESuV30d%f3%%33rpF1au&C%e%5SpiA05h_%4der93peg-3tdsse%23FF&93u/ssca8%31pmFHFYj1v3WtrA-8k07wa/33xb%He6%pCkrn1/vtkttszA6a433-Ei6smCis/&e-1i&D%ohjslH/eEgda%p?dmi3%3h30C163ued%3DF%taI%e%opyi.p15pa3t8adgm0Hha6%.0q%s9ssib%A0e3wo4ihitm-ve3nsxitefNedtb33sytioFal%2o3?%art5j0a1t%%3e3t6%/C83hAlD33_a%a5ur1f49ep_DpCweeF%Sp66&R3%fx3bwb%s3trpT5m1apa9a?ahe%d3df0uFAA_vo%jheg5A3a_3tl/lg46a0tcvi8a33ok7vae&vt3f3ewoo%aC33g5T1DDo8%37dt%'
p42
aS'm1/Riee_EA%m%os3%13nGAhvet3mr9&%a135itdrogl6e1C3bpxtpN&uaB0r8%0hw3%&v3rtnrs33rd1ZApt_50sd3o3g3feuasbRsF&m3ov132s9%dbet-ksceK5e/%%biAb1t3ae%bQLt3p3%D&/5e1%3imtl0As7m5_r35Q%h%f733foow33%og9c0vFo?c?t-o3dss0md7hsxYcee33Ai7f6i_vctfs80FO1=3=&-p00p4?B%r3kF3A29Crmt3e33/%AW%i63&%1ir&4253j1%d&pubnI9%C3gteog1F7-/07txM%b6m569heCebt76vJfi%21sht32aex33rahA000%lfC3tF9c5xix7v2wep3%o2avF6-_A67oCoi1t/d3-FphB%676sC%%etiso3h6B0oA64u1_acCs09xga10vP%-ho73tr33g/g3-0D0Fseic&/Dk%d8f85id3Ke--0%3t%gyFAAkfihd&j4ili1u7_t3i3dd7eeJ%%o0l%2Ssc3a&tso%/Vt&ur5r%ux573s3sEreFd/0rav&psa&hv-7eifMvofsoAe?tg&'
p43
aS'sSFh1pmjK29tee5/D0eutyaF4wutiA_b3tb_3dd%F3swHBl0aFeuEe1A%%srFcIZ3g8aeAeTB43pe3oU%e3d2a3iz_UaF3ws3%s73XsAd-0h%hea&T7AY0%5ir2hod4913C599FtpF{uTf.7_93fO&X73aib0-6%a8F3a_/%eAt3we0&hag33anvpcje%%3l5Ad3F6%e73W1n&GIs3p6%k-1i0ueC3%aCx38%_b3d0su39opn%dou34hi2F&vIj90gts_vt7h3sAg3%D%i%3o0v_jFf%tN/a0od.d1/3apMFe0_Adw%iet3uj0s5i3Csles%pb3Dahnu8de8A3rCeb0p3Aac5B3t63lsso5sb%92/st794_xar8J3eA2ntA3C8w%a%StiCF%3j5fmp10/1Fet3w1&ne147oAC86m%ih%m64e%2l0R9an30%5vva99etH3WocdFbt3d5bsa8b31ht%8ue%tum33rwdxhazeeda37vfvNobi3Au3b%%6Cx%1Fs%8%3phAh8i%Ds3fi13srum%87eps%vv1=26%suPis33lFejSKevs5/U98%'
p44
aS'tet92&70%ft68aLF_t-radZt0%Fua4b/ihMeap%i/E3rf39303tov0BF4tws12F30F,ezb3cAAs%i%%rtDl2n%3x0Arbs&3%pLC?v%sdA%30%_a1e4t/dh1/eos%c0xF/Dl3v3idwF&x05b199T%vied6b_uoadsA36Q%-%r497CAA8_&vFr2128BF3Sd3&pdiefvN02d3w3R8NAeF30%.c%pe49m3b3C3Z-i1Fd0k%n3br%evshF0rF0gF%ogva_d1%b6%4a&we3t37t3d73%3%%o5fibao%e/1rsb3r6%31a8m1&-w034Fp%ro3dg1i0%e3xuA%1y%%2E3pt.1j3aAsaFtdl%1iur%xBsmd0A9%36h%3C3itu1odmp83ahesAw1p83xopAyt7%73a%edA35fj&u3z962km%b03acr0p%2t07%Mtef7rr%9w63k1Cib&u&3A460135x3f%sos/to/emFr08dtl8taAwdw/2%t3%m0fJ%t%35%6%e103sx8br6ptto31%0dSTCo%wF6%83o%Lml3%%13033A%hre3tDfpA/g?%jej4v_h-'
p45
aS'2f7veard%k33c3m3%t3u7sK6f8s-;6p%iaebDe-&U3f814o3%/0%3ovF31ve3h%/f5%%Da.t0%1r63v8%F%eA5tCC8lAhBroue&nowds5%9/oEdB89i4ij3pdje91ep_ssbn9hrsa//-%i&WA43_BmaY3g6ctvhe8F%3Rt55ve8aeadu50p5_3Dpeer_dre/gpb_fvr359333u%3FCC9ncpidapdi4%so-3M355/3Dk%j3Bc&jnF%%dtvlrglo9%3dt3-c90v9j6//mC06Aae1of%at3im8e3pd8imdkt1FGs6gap/3T%0lCFeise01dkFgvvybte5vt/9v/w3/a3%ew13wekAxe7&1%%x%Ys%i3%riA1e2%s8Qon%em63m?aFnvhe8r339CDmn&ure3BF3x3aAc1%A%9r5O1s71a03d3Um6o/73FemY%4a&2?-bw_u%.-%30d8u/a,oB2Fe6je/e04eA3Coi37go3seo0eiruP1tZs10FAtd%e0%/%16_/b034lmR7l1&n5-3vbtm30D&pce82ro3Cwu6%0pl&981m%d3AQg6o8ue36&&'
p46
aS'%4wFWi3p%t31tkg/TR3owaj%3ADbg433i-b%esejo9A7tdo7c6d0138w-ln%p-asg\\n8rf3ana/Ar%%03eAFi3_3eoh`trwdt9e5as36s4voil3A-2Dr8Csg03h9suFSF/Cnt/3bi3fa_1s3icrwSi3dc//d3tMiBd%Xs1tebd&x%r%6i4%1ne00%%pFs0-A9p333snAwcietur6BcCemPlsgf03%3d%5CrFnple3%gx3ulNpees_%vea22D2xo16i3%af%era-y/d%e-p2%3b4Ft4a?dn32u317t3Frj4doAt3%rljr%/rdf&uxfhQUBM&fem314FP3gj67neUlt3g%%3%%%3q906a3wyCe3k3iD%%wa3003814attuanJbRli1odslc/n76i014l%e1D3pf3daUidAoaU_dr%a43h%%%t1atimC&3%cF3vtdNpm8?7e/%/F%m4%iq3EvUdbdspo-st38df-13sFp6/8dipc43De3st071eapxi313a%_b3w9Fmp/pAt%01Ctf%%wiDawuLxibd1a6u%l71L3G3Rs6ifbFbAi5h%sou1%'
p47
aS'32u3i5tin%-ird%3D&Vl6oe5i2irl/,&se5&ta3ko4%zfipF4Uiwpvr%32kdf%2eH3ted33etABnekD8irW36n13tviC%1K_%53t%tHeiTlhFrehAel33od%h3CzV3/6%%3c/r%bd4bAgba15aAFM0__6dAaSuvfJgt4%3pr3e26d-em7t3N%Cwwtu8ttArtB%Gm6tegoCn6352%2ot911%1IbNh33333e05ot643eljrmjcwb3g8m6llrEFF323igdS73Ttk%s33euokt%vedhn_v3FAoYIbm6FiC5yh3odrM33Ce8ta-DspaaV1aneecvaW334Dkwi0-ht1njau1?FC0e0b0l%7t%33eb8oaWbeb9i?hC7R8Cse6epa3y33pged&c%t3f%3C-wsAtt06em%tlE3xb_VyC%&CA0%3Ond3A0l4334SEial5D85HmFtsnF%p2y%D13&Csd0_fBFY0b5pfbe%sia78t.023d3e%m3u6Fxe%ftft%?3t%eNuettiCe8v7%333od?Bpnt%Au3dtpC%e939d53%36%9%jZpgtus32iFa50Fs%r%'
p48
aS'n3wdi%3o%0ed&U19ao30q%9Ad6Ti/onF%8ti%ma3h/om0a%64f2th333m74Zutl/i5bDh3v&7i%9qeF_-d4s_%migB8weY_vDlars%%Pnm%oMr=uDdix.73FCnt%C2ueu0h_533a3633oi5e1tt6t1%yphA&3%t%%P1E%-%aten%3_j%3p4m3/lC5p3e%a2t23M7/Blnfqs5i%vl3i%3dv3jtvta033t/ml5okh%bS3j&4ba6%%tme-AB%ewLttBw3eefA53kA--a50cj&i-3Fo-nbC31ptet6Bd98rECT27-f03i0Hv33:&a80FeEa_xe%vwfkve6od%FlseA3i807rm?o0w0_selds0%0pK7Cigz&-3tt8t33032rA%%W8tse1w3b31F1%e-u%gmAxt%%01%0vo36hsp3%Aptn&%A1l%cE3r&x33jv50/=ui2%2n.F19cb3o38AK3s3a0mA9e6a&oX2yy4tv-W/&eAa3Aebi5t15vApf%e%t9dFAnxa3tMbaz45330leF3yesH401t5310u0&g5E&e8&gaapsab14%Wwa3e3Rdgo9i52'
p49
aS'01A3WC&evtuyM%1f6Ce3m1nD1K%1%h%xp0iwd8iibe%8ndfa17e%6rej2lo3o3-7at2gAs?oapa8eH3gpo1u330tdfo%%1t6g%8343pgF%1D3c651toc1pAoAwb1563s%etcr7w&2ZIj1rfil363%nrwtq%igm5s/hmaF2333mm%%vu5gefap5=lu-a3A/t%0-&b3Q%51OFr51&e3s988Z2?dw4&s4fwmmCf30X3p%A5na&rF0tAa3&rCtFp8d2t3m%1Brd0se_3%d6b1ue7&C/f-mA&LsseAi31p0--7%33g_PH_966e-svsAr-6!DdtFC3w0esOn1xx6MewlRs0fa7b37SC4/3ug%ygo0ps1/by13ap10e15vfFF3v3/pa-&-se49vCnrs&i/D3spAA%tvrF%4r&1m9De&aLZG%6V1%463t7ofr1ids7fdAH=fv%0ui%20sl%ub8wig3e_d%f9A39zaF%,s51cD?k%&&gts3s3b&V44Fs9g33As3F%eol23t%6reAd%%C0lCi2Gamo7F2G&6o20C:r0r5bY3%pvi0mAvwl/s7ts%FF6%'
p50
aS'A3ephF06i%34Fwo9Cd0t_WpFad57edd-3isee%33hs13_m/A3%260wu3Fsm%bb1H02/hd3Azao/us%odl1%9d%s-6%836se%C1ofds&o%a0pFBch3a3&4mo,7plspbCr/17&6btm%%7vH5t20%u0t3eto3z&A3%bte8ld7/m3j00jw8/d05B3ae0U3%c%S2%e&igsCdeaa,04CbcHr8d3t9iY3-DD4e%33idcd%%0m3ge3/gv5btai3kap3ttetu]aheet0%f&o14A%pmC513ZFm%rtrc%3At8t3j308swt%Flpuiwu3teqdA9ry2pt%%icad%3n&r53xtf2dAcaoW9d_BRpE%1fDn3%173_h-3eAbp/0mE9i1%c6z3%gr3-CpFoDs6xdc1_l6i%ee_V9wF%3pv3au79tCeet9i/r31O1imu70vAl&8l%FFivdg%/3o0dD%3%33eDr33b0Ct%130f3w39d3p=561_dA2tls3vD%g8w/%313Tmo/vj0w3oeh14%7m5sPftlV4QodAt3s%lej29e53o3wiiee5B2r%3ut/30u0sA0A%%Oo%&'
p51
aS'3ae5y73Br1o-x%a%?cfhA%2CF%3DTF94e3%se47%8d0&t7%%oe3$biat47hv7e%9C36tgo0jA%zg1b%3%%%FefAZ%At8s11-hts8&sEw1h0o%gmo7/f4&v2efo3frnbk0rgQ159Bixs33C5W9Ad9j7fsjse6%eC9wh/&Mu33%OiCt78c3t8ok&B-3isc033w?/4dA6%btC5rcF0fh/CrUKR3mae2BXK/f0g38Fzf44FgCqerh3icTbn0C?t2294eeit1I%6erdvda33tSCvn3dh9h%%Ft3p-%33gdai76a3%23ig91el1ita%i3Cgb7w3119g7a%p381ci3c3ad5293%7t165tRmxde0s57/FBd1E5i5?aC1cgQ_gxA11m6F&uCac%mi%70er7slf9d5%AY2bdH%t6313Au%e2aEhAgh%3ese37p-354l63dFisjUemFi3b030e/0i3e_lm332B6-a_2?uhhtc9Si=0d3c33wF6$F3FCF_r3/3u7rle83uC24aesobt%rd8%3H6&w5%4sw310,ht163s3md4h13ddilsvrd4w5nhy17&30'
p52
aS'thF?2%4%&t%dR01131tvVsAr1vb%3393h1%_%e%%3o6&pftm5Pwt-h_Cs18Mf1uDk_adg3uBit%s4%oB3c3aha5e03s/1%62em3-%Cafy9L06A3bd3h3v3j33%Ts1kd0e4_3pli3d3L%d%CS&W341tA3Ao4wr3mf/A43hBea%_01kt0t043xtgdSi7b0%F%evie%wmExst/4%9bsB395sa9s333ic4pEst373b6%F-22r1&c_%/d%dF8l4rV3fVp6A7um87F1cheridsAmep13aA33aosrbQd6i3e3stm=s%3,?FFibpFhp%eap4e1k8fhtpk//32Agbd%6h5D9e9%m7A1-8%u-o3dFl3%m%lcBwtdm.ii3Ar3mm6gwr%ifrvkAo&7bhCl3628h2C3jQ3k%3tH0emq3wCF0%jrAbs-0%2&3320%tr338%%epawFmFrt33twbAgDaj&Cbpwzb/j/0g-s%b_h33pZA%F8At1h/8jd%5wj33y-m%0i9%%ot7%b0s_o5h2tA6upit2t315plwF13nD%-47%0Am3%re3sA03?3tCF%%AWp9&oi-'
p53
aS'%d8gi%a3av%733i%_D0emus&1FA43t5t9643t0o55seh3p8ht8ms2e3Fe3/aewe3w-r94j1MlU5D3%s61dke33Aegvd30e%1iu3%6lDedtb-&1151so5d&0lhA0_F4f,0l&03m3etotkea5QddtJedu3n0pj0/j&i&mygeztlhtrec50rl0Thtfa94707oeDCe%3a&gs/tnFt%1dFrpb%v-e3ttf-e%wbc1wz%r5-0uBarJ/3pw&%e3%Q%?zk0doF313&Bdn9e307dB%/3wty3jAt3U%ji6t4Ea0oo3dC0sa%F1wojcom?3.kF7r1%wF&f970erfelB0htgrA7eBdcos-323sd8i7/Wgp50&jdC1p3BoClx%o0u%&5put%/6dC:ej&l/5_A3p3fJpywm6t1tFtFp%rfm35Dd3ei%%m346C1as%_A%%%e%23/eDy1idc%1DAm0d3imd6CGudgOA_o53b10iD855C%apvWgtrE3RFb_AGnbui98eso0dp515Cazv6AgDdf%3%f7ivdpAnpe3ijc3f_reeditd5313a6pC33n4w%5&dvm_e3%'
p54
aS'i/&VH%A04362eA3j3090t3ik9co1_jsk//3eg2Ge.7irepfu30ihptK8d%8obwm3p%83A53shpo-o?m2-hbdrF7zy5a%3nsujj1-3F0e1&me39c&3_6/zdIka3o%Q%7/u7r0rdcrke8w?em3ev0e%g7&t0T1Ci-ey_3l/&tqF/qD5C3uditnge3e-aos4oDsh6at%fLS8F3F3%%t3330/0rBaj%%taat2r%RMD2%m%p304h5n3-w8o02t/frtto36MD8U11we5p/0pap2?L6mei3fiNFjqId%f9%zl3y3%-eA3ed-3isB/%p33a49p3_%wa-&rp1a3_h/1rtm65a8vf460%e63k7Bmtt4e%e1&2m3eg4_yHs%/Ddrnt%3%e3ePne349b20eEh7Av3ed1meA&adeF3t%dsco&&337A2%As1fat7t=t3eDi06homji%si%3%A1/0anes8dfh81it0tp3um330Cwa33C66es%3mf0t/r3prdy-Fap0%36F8hp-4A0yA&1&%etdj71t93xp3tu-m78h46F/%e%bkjeoecpuy0t4,53r6B3F1&-'
p55
aS'Nw3_&lc304AoB%%oosc0%s/4otev%o4Ctzv7ebsi%FpDk23mF-eC_e6%ideA7-p&fFhEC0Ff%3pB2U5trr8_n_An3bmh3T3d323atrwoe%s%wD1imoeelt0h/535dp51&3F%vi%AdIiuw3Oex2r3233ve%j4%_ro/%3a%5%sM%ttjtr=A5AodiaaHvpA5330vtth-aali/d/x79a3l%/rj%tBF/rpmF0He%dih43rwuur%mihFr3%3k%9U12e%vurwdn?&t0r347ga9l4&03w/zte64-dosj0at3d/71iA0NeseeAy/&3?P333%i33&ea8i3Fe5hi-02hi7-tO&pti965?53700vFdip6%rrwjAApibvb-a3inc0dteCs-fAJ1dsow&/cC2r%CE6%0/5i3sw0wdtd.sdseA3%3h-d%3%Doa/A866o%Dcax%wbs%oaolq42T/%orl8653ctFAi/F\x813dw4Fgz0ewnM%/%3sP3%o3ee33ht3%247Hd3fpF3itpsAe-vCMt%-oirbr%w3&s1Hwy%%eih%ANHib%89PAetd-p0ov%EhtTAlefi%'
p56
aS't5j%64?%%r8prie3l6d%37tg30t%%8004o3P%3Be/0F%AiBa33e3btx&3y0ymDKutAS%5u/30l5=%9g3tk2A0dteo3t%ecFp%413%ieFxC8de3eFhiedos%4o59&14aFdF3A-p%bnpporhf%%mrtgstC31Con9s3t33xO?dt9el3z%?%akctAr30Hht&tvi%D1mVAF5a5&3oed/ptb//C1nNvt3FeA3BwpnW3apAab3&eh%vuN%G8a281t3ex3pscpQtism3t/nt73tA%g%/i_1ACU3BbeFr2&P1t2on3775petljt3s2%%3edwY%Gta2l%a/p2xfA30Dg1xha3fvFtastx3teG30E_%-3%A%er3iFGnoBtp0673Viae5v?seevDh5-ub3Xavxj63h770&do3o712G3333dRfv0%fltD5l5e%u4jb5e8r38n0Aw_dg6_h3dsFdouf33ntq3mo1%ah56A2Rxxa%otbm/e?dHrweedadbF7h4iF/A4YwBt-%6aAm4&tiwoAjQ%FtE1vj3wojLp7%4em/k-d3&3lCoaBoM3uh9rpdkd30enu-'
p57
aS'Ft93353%mditaDwjvt0FC33011die_sFf=/tF8%A&taZ4Yj34/a3v084/iDcf8z3aa6B5CeVplrkad3ppDzl3X3Cp13tp&teefm%tC%hAuzS7FtAw3C00bFl90utiNCwD%L:e8aVhveds9Au0o%t%Ex3e3%3uAe0uC%8I3%4dleadh3%%C3kdd04i1ip32t3&A1A0usFgU21?4heo30wd5%x1Dg4i5&3rrrTd8Fn%he1di/-t3p/5tO4hnh16iad3d%bRWal3w_-eiwD-n7wFpvpos33Rrdx12-30-%etvFt53zp%peT%et_W3Fu7B0o63aerzb4o%o3w0xAFFm_j7ouS381uo507t0a_tp_b0mo29a383%31%fdPovAx2f33kF9&3n%jmAqlo0sxi3on3f/adoc21k4bE72ox6897e3d%%_ea%3%50?e3A5jDs0t/MeC3?w&&s0%ajetcb3e3e__FsDY5%r%t-4d882794Fg94so3%1/3ys/tKfF%F8&&t/%7kiti0%4&sirve6A1Ccc0%4%%zva/8r06&0&i410-%FodsifTeteRme7%'
p58
aS'slDpGet4o&swAw&viwo%S73c/3Wi3&46tt1A%m7l/d-Fr7lpas6cC1FFDdbe&awdw33F1pmp-_/KEtx%ssm3/%wte/6L713003v%01g8sxvp7/x4p%75rr3T&L%2it-RB2?ua6acdB-30baVp29p883CeAu/L3p/dR/o29xR3mtR35ne0i1dd/_%edFo3Ame=e5%kCPe5%A23x%L%vyo76weCi-Q%7/cysD7C2y0ua1i_pG4rd6l3t2s7cFlAS3vba6pe%%%vz%d03i3w%i8-7t.tpp3?lHlbAhth3u&2Vo&C3dd%300Fc%D?s&j3dC19tDAy33hnig%093beoB%BAgDg3sb1036%5d_F&1o%D3-FC2tCi%8ef_4bj&esu0d672%te3i-af89pu3eFv/b3Y2i%Fsp3oah3n06Y1rewDdw9r0S3iDt/vi0hnt1obo6f%dAts/uN3Do8k3%f2s4u-%_dd7_6nY_t8s%h/xf4uD3%/AFho51s&a8ml&e1&cf3bdB%15w/8y3u36A1?-x39dE03avF33ie33teAse%d-40/pD8plC53fr1s13-'
p59
aS'3B2r3/ZGqell_2rS6ib1ib7vxd0M04%i-3gur02=%d8elwo%nC33r3igA9emoy]rlr43%k&3ee&/5Cbnv%x1qukgbo03tthbm_5dmN%-ai3csh%d0%m3&%uaaC_De/7dh14W6%w23dEi,%m1dbDnFmk53B385-kAd3o3c/i94dA1&t/%rFps6damCCef361pk2Me3ns?1387dACs%rnAb33oZ339djohhapCxt7-4bF63%%t937p-1ddyt3F%lhbnF2d17B5%wi5AQimnX3n33t%-l3nQ%C33%8n%p?dFPA3Z%t03r75a-0t%743d5eZA3?Fsml1r3t%l3t8l3s%wto9Vy87C38Cut0rpw6sseCC/Tvp%1ee&%i2_3450f5gqloi%3lCdbsb&63sne31g%ag%1Ztr&ZAc43%AEh4d%se30_d-%8w0jeop3od-mvoh&46Fr002r2hxeths/eso9a3l&n-nfc63nYsPHAee/C3Z&deEd0uuF7ato&h5wlr3%vtdHGwtiLde03hrth0e3dt23-%6_rpio8o6mt3%uog4deln3a3_edm337tC%'
p60
aS'&2/ueDmf%AtntfelFsb39ffjs_9lBai3r_bxDbin1th65ettgiCXfB1/3D%f73Ftfnvetm4rtea8gCQuaid3e0kAmy3%rFa7dgcc%iicCs3-tRA1%gBri&dg/8_tf3%t381o19331b3ts1bc_4LGYuM0Fb51ar9rr5z&xAzeo3Ci65_35l%lFreuo3rfv_DP%ra30olcFW%=3i1QFa3d16sa&da_30e36p.B580d_wDY%%A%cC/NEo7a&%At1-%d7e61AD&Be8%g%i3boe14Fr%K&g3rn2b%tl4fF%3F2i0%TRcpg%cds1130z%48om45e4CigA-7333vU/5i3C81ub4%13r0F3wa%3110g1eFv%%&%270aoB%%33bj/o%kptDs%5e0jADe3cicd0oB%593718nu12Cdt70eA?-6eTd4m6fddD1-a954t3og_u9gp1we%%dtv/8slft3aFesn&%.ettt3nbAmwvxFusca/g%ea4dq1i3/bcsce30hi%/tF%m3180iiewdAFeDtubdb3AX28F3ee%33mmqwt8a3t3h3anCs7pDoBa30&/4%'
p61
aS'%0%_av83n038d4pda3t_puRso33la0305R3gF%0iv2&E23pd%szg3ppvho3A1n00N78-u1nd/FhAat40w51p/1%%4cDc2snpVoph%rs&T3nwiCneetduaC-r4p%Atk00l&%CU%02tl26iA%3asBs4Np-1tB55b-16beD3A33/%83t%tr0&aJi&ft3Q3&33d&Ao%oer&%-eCpavee/m3mt23e1%3D3H97_8s%dApu5%%fxeB52wdpg2%6aC6t3aAeww&FA7%mN5/83_Uava11era4tsFe&7tCe/FC3Aeks03c4fAoin&o3r3cerw3d%r%oFmwB.tiK76Yo&sB%e9CmiG1e3_s3-pk4f4nu22w06%w4xn3rF5s403C3i93%od516AdA%o?Ca%ivt17siq%wMed/3uF0x63op57v3%3xyD%hde40c3s7r%i6Cw?1v3lrFsMatE048i4_nEi%7pepwb3F2a3a0oapBFA7uu8w%6e46%DgbxHDdI30t3H6i%3%gahoWO%7C8meup1?f&%7bsBvBe/9%0%s3&Cepel96x3E%seo1Ai&i?b/61FF%'
p62
aS'sej3acaetwMw%Ed-4/5n2%1jw3c8a4v3_nry6Ad37spl3p%oe-e1h4hj2trp33N/QmDldpwr-i%s0&v9hiFeme%3/9l3T%33sb39exI2u%Gnl6o3i4%5_e%%wtn3t2etn3kiBAl3A&3iMssd2t58ew&k300o3st3%mt%kFs3t3a3%o3tm0JpCegz3l3o%odCt&&JjdpH&d3berj0&Ts1oAuAtogAe56mp9w1A2wsd7d7336%frkp306en02reX33,3vCp1ie6a%e?PADaoawww60G%Y3mt7F3a9a3s3&joyda0%ie3DhD3s4s%9%me/lc&k3FDdd&&MF%u13Btcnd_62vXN&Cj3t7aeb3%34J.L3ukAxstdn=ss6ossA%obA3u%d%rhCbhf9rflt08wp9g37F8h?3bajrk3,%3Xe3%23dY1r83ejvZ2%ehi%d3//o1slDwi[eca3m_lvx78%oah-tnkwaard%u1iu%33la%htjWi1iMFap3p8FauahyA93?ebCu6331%esoWtrg93%C51ow/ps/em&%e31sdl%-a%&a/%ie%s8x00%7%30'
p63
aS'8EA%av15E6%VtB311F%M%v3%8q%5viuetsA30mh-6%7d5%EF%AeFww7l0j?FdFq3RFoFC0_6ci%0gdiii3a3D%326ca8cBwoFCm5/4%e3uA%1sFrans/w!b8rG63wI03ld533F1f7%rgc=Qjem53HfAi31rtgBFe7C2ao3/3_%iF6%0CC3f/A71aY/dps%%a4s0__eg78aCi%x3axB1ev7s7booW28w3j/%AkxF%webosa0e13h3bu416pr%6eqatopmiC3AP2fjdj-01D&8jFs334cTxA5%l%1e1sb%xAe8t38aHmO3h3ei4rro0Tsv33vee3scCmD5es/43ax%2esss4hF&n&_od2iet33/%BHugruz&aF80twsos0ruAkf/C12_erA4p%&o%vlsgl/0aoe%3mZ3%deCa%0a%es11BeCsCI2mpt59ettDuic4e%D/qK%whA33%8&ifo4ng6&wDtus1Fca0jA35aA33r/rn3ooe5Nv3%r6pFd3c3&3ax3&u?AYptp/sTxF1%2&,lert1oAntW030s0eeict6o_3l3Ad0hB3DbUCoy0t3/'
p64
aS's43p3h%ub1EgAr71%&le%/c%/1de%Cr35ezeQ1t%a4/tY5ntK%gaaden%F6%devtQdn1Omy31diAb1_onUww3DuCmreF=0xDw1=3n2tb%tcdw1cBnqb3XK%d7DtfR_bbNZ30beF10a0ap6P%vphg6253tsrcl6pDe4B0mDhAde%o2p%%3%3H%7v1309s33s_j%35g3cg6lv,1%&%md7l493ifp1%vBp%=vDj3FB3%ej5e3%0t15ftxnFa03d&33vp1hx%0-enmSys4d3sa%psAd4%tat7d73p5e444m3A3/p354iuWcb22ftcsmp3s00aFimh/2fa%m2/ysFd39sc138ed_vrdun9pua3duA3on%Z%b131avAn%e3eeeb_%2hA/t1701=73A-zne%d%Q=0pC%npdb%h%01543iy9Clui3383s3runeFRnt3%eb8-3x-3643RlnF_6&%avt3c10hA?3-aEilG0F%F1saa39dQ13hpe6m3eF/ci1m3ee%26irDe%8va0%42f%2b%%/5b8o5nm3AatEk3atf3rm3n0tdC_ediQr1bgmmgw7f%'
p65
aS'rm%lAeeYa9v3dae2h63o%CoixFAddt3e230sf&j3hAm1ECy%17Dehin/oFA0dIC/%Frhe60otDiF%l0epl9e6swA3tcJutZ3%w0%fB%ven3mesvdsdrZCt0c/n-pga%i3%S1383Ak1ot0oCwxd8wdpA3oA%B-e1/c0%aewtCwnF1ie4NAmhdia&3aoxve33wkD2oA1FrdbtG30o%%4o0to3a33miir-a3or30ddFptd%h&/9a0%who3a1Ghl6fo%281se8s/te35pw2eu&Pe8shA603d5O0b%_di&1erm-QoF&lF3txt3i8%o?hdAtcb93a3tR_%51%3Ade75nied3%%b1Wddt9wtIA%r3&3rgp%w4orwvjd%3e3wii1=L3enpn3C8mBdu303-oiM32/n23i1/.epdv0pbtrFoa0q%0/m33AA0&a%w%_1%Co3ph%%d0qBjtliayAg%/a3s_27s321%7&nD&d7ue3uCstmse&mb%3q85C331F%3lxb3g%31D33/-to0Buh3wf10Dj_geAR340Cx34/itoheC%n8g0Ar2la&1oetam4Fh2%-'
p66
aS'oB3n3t%aDo%m23&dk/3v7F0Bsp&tp154DrdA%&Fxi3319%3vdu0agyi%h3i70u/hu4vToG%1qa3%ijomeoox/k36oB23re65vdst3333/_so_c-2p%m4wButPafl3C%&_&l%xDdxDf5lX5mrpa%9%2acAe73plpFes37h3t&_e5ac5A%didhFd%%1aE73%4e3%0o/9-03bj81brZisrr3/BaMC23A/=2Ce2ae2jmBk23eAamim05E0939f32o8d33BDF%a3sa3&dFWa6d0Ei8aFcsut3oo%ia-%ftF&3t73%n113iiCFrutwd2vb%C2Oo3300rtUdG3wRA3rdn1P4di1b0CdiF7-0B362hw03%ej%Svt3_%3os&1D3D29leAU341lncsY13dD132eoaajex8rrtscrhb3b1i&8m8ormShwbda5%D%pC3a&kdd07r7m/y347&1evg4%i_0r&%?aAd3mu/pv34dC&r2o%d3%3rw3142k3&_eie1x3lh334H%CT/m=C3e6Dd304_tcf5tittrPtdCrsa3r932tafCea3%209in91eecmo1nu%'
p67
aS'd%iCiAar1l6n8e31%tC_37_2d73v813cie7-1ta3e%e38&s&3tyt4%9L4%t43b27iAdm3%v%Te/3a3pZtpt3timbeJhtsst-63iA9eIH5n0iCat4bChbw3e5%t4&vBei/8A35/%weAe%e1a&4f2%tt-p0w/dtutCa/eG8df%CBA%p6pAcvswtD1p3F245%jstr%4BC3leo6/aA237C-/a%FedthT0b%xeb2i&7/Cist3988at7au200%06AhZi00tcd33pf0ib0//hs3e31aWsAe-v3&o3B3/%bq1ttRe33Ft2trb2/%e362a73/bCom3b/F031obamm52mTppt%Uld04FPa%5hrd31RbCmerapvC3l,9ae3ahl377m7-s5BF%%a/83A/A38eWtkv3te0dpbisc/3oFSA34Cbt4eum0%opRA%%-%804eapFod33h45&b3g914ta6%Ct%iDMysR3&tx%p%Z161At&?0eIutyh87%4/Y8tiirkeFEo0fa33c01tT?3af30vgk,s5e_3tdn8swcbfe0oKAna%%pat_21w-eqil/w8Zmws_kA%'
p68
aS'd%dztdrm55o375a3psOBf%%1iBtNC09/--5i/39rc6efE?d9m31j,rrd8aU93msz3Ad_tA%bs%%45oA8nLUt3%&rAo4c-bM3%P%0.011mFt12s7a4&p5&ndM3t30Abc_Ft%1&uro%40%45&ttuFue63s03t38s33sr3V0a&BpsiA3jao93p&uppdbe0AtFs225kb34o5e2139a6r_%?o38t3eaFfs%%2s%nFh0Ct3t9Jtm%/4iR%3Fd73re3%v23z1%/0n2b3j=9nC6iBj2&048Aateef35feseB3FFvtobF%pbd%3=2%s5o13gChH%0o%/7bAAF&0isrtX?%Lt5-e3a21f/%-%%3s39%3tO=81p?0ecvs5mc4fC78U3bo5cs5iCs03h190sm1?vw3e0p%3%83tp3ur0a7dK3o-33%rms%5s30adcA2mhesl3/4c37Di0/4%l2Np3ep%782hv%r5t301bA3toth/d3%%ig353o320-i9Ara1r71%-%9l46rGA44iwbmT30hs%gG6aFop%A&4_3%Z0/e3f467F3-Fuu82m/9mDi0t2F76E0'
p69
aS'%19x7o13n%__ush03Fef&/e4o96h3d0%-sf2-b%3n&%%_o37Fpts3i0tEl%etg3/m2w&maRFl1F%DV&vut3eiOda6swauDA7dw3%3o%3rU2%t2u/dT5oe&A3%%3&vDwV456apH6/tmCt%kw%3%w8r32b9r%03pe7xapA1R1nE%pf3AtnF_530Eh__BAe%dr3u2?9lA1r?%33C/BiAA/mgw7u2liNex%&7v&ahdDAF--hvxCo17tBF%eF3o5Wv2jC0%34tl3x3s1s%d&]e318erkgr330pto0C3o&iC%kAMA&23%ylVN&e;3F3f9u_-x%d%9p1be9E3d2iFdpU&hoAD7iDas%Dm0mephFlhmTh1113D/_%jdcvF-3&%60A30TmbD/e038j3io3i3F1Ac3aa3173v&Af3e2n6p18&o6aa8/13FhFf%5r?s%c%r18hei&dv0t08a06/1-me4T1o%CtDieaAs13%d133FGC=s35jhncare3lk03rue33aiar?<t-Pn5F%%4N3F%301ah&Ui_i_2ku9%sA4u%3af%o%0n35A6&t3tbjb%P1&2n-'
p70
aS'%u0%mh7%1wd&sanFZtdlii6ftD0eD1%36f1F0=39%65iA&i%avr%ovN30Te3ii%%x6F4nipt%3_3s326AOd3lv30%jws3l7gpne%s4h3t_53sms/Upu%s063113wkQCF3&d1wi67in28ds84dEd3tdh1rM15/?3-FRhs1%gbb3oe%vv1roL2336Ci3ta13LmlF&4remigle2gV2rv2is3B&t3&%%%3%ou33a7KV3JEEcmAvb343%n818rle/3nce-_A3i&73%_%27d4e13c31k6f3uv%s3%4tiFt%a9191y71/5P3A3reF3d%33d3pt%si08ras-_8ar-3Gs%%wbA0%&Ft3D354sQF8D7-C2MYm%1F-37o34dx3103c3unc74y3o6iPFe73psetsh60l0uns%aDKBoxecZfAoh0jtF14oQo1kss11F3s3olBmFtpd%4a0%eg15?pCr13%pA%Fo%d%9y33e&Ds41-o72tC%Ch3ttuewvovo4itig%3/9&Mm4edvX3g7mts/e3-si9a%h6%F%6e7emsp8hibh6inz333rinakzod/e37az8%'
p71
aS'7pF-um330oQiss5&%iiA%0ddo./exg36%1s0s7y%Fi4433AeuuaLm1&iibr73opw1k%%o/i9&dc1e8it3s%1FMpaICe-rte9t/&CCdA%=5tu%FYA1Gvdu1nA6td93v3DMt3d3iowofwi3ws3&3%we97c%Fesu0nids_/6dv%933h3it0xsvcdw0pA_s3i49D%3_Otn0A1%ts3vctrxgB0e%%333v6F3sn_//7/i3e2tavrdtArmt/3xd-337j%3idQ/0dti6AtiVwol/a%75tv&a3s4eejCdde04.xnh%a=b3avlirG/ejjvs-%7i9X3%E2dv3f%Te3d%C%Fed7wirs93j%0i5Ct%9e_em7a0v%uvt313&p2aurei%b&3F%98s4dAsS339wb.5wFaa&4na3s0%cCn2d33/6a9&3rt3%51lo7uDr&33kus3Fp7%od2_t&bYE53F%%a%edC6_7Nd9J&AaFtyi%dpnCFr01eNAev3v%AC7/peme2g3fdmphn//%CCug9%HhFaeon3d3d318%%8%9310aduS0we2B/E_s1B%s1tN/t26aF&Yr&'
p72
aS's3bml3vqewiaoose7df0/Ny&4KoC79h3AsFerDL3sFnw5A%%?Gpvp%%r0rv3aHQ5-/smiFi&f_spA&5n/ee3-3B1/C%8_ssPi58C%CpAvli?sjf4C%Ldhds3/Ft&m32jM3i3Ew1oet35sfpF%ftmd/2&Gju5%1w1eda33--iou2ba%T/9j2S2v%3/snAu%?Fjg/76%dfs71l%%C0%t%3wfLtehp%c517ct/t5mf/2tN/5a%asBaeuctba%9twa4tt%33150n38W0874&3T&iC0tm373pp/3A120eb7%ooS%ch%4iE%fcC3i3Gcn&u29%F2.taOr%63e3s%%tM?Ede8934rCiis03Yo-3l_o/tCeop7pdlsBBjF11g/3t%1a&%53tidAs5u9ehp8%kF022l1um733?EqS3nBx&71i1mpogADRbrirXajCid&lc6fF9x3deb&3C0ohntACtl9a8o1FFi%mo0tRy33%exj322r8/fccMQ%o1av1s?DiU3373ds1i%3bo%p20rwom7rC&3%337sf4pebvnpomeufC9Be37n?Aoa/3&/OZwNd81'
p73
aS'71t7t7A%hehF4f563F-/6F3nu4efAv%bc%h33sFKebh03oA4C45Fhi5psY3%epg0ng&ltFw5Mvo3moAh0a%3Fp9jbDa3dC=3t-tpjcth3-UMntd7%%6tD20m3%i536%Lkp1m3&H&C%dBsu%1133ns04efe7R/jeiFhxNhd1Rwenpc0mDh%eeo3v8xdKeArr7%AqC%7dsAt3lp6E_-3B7e1Tp3o&%0aQ%Ow%19i3FFr335vu33o/tAt3G333mJeAodjl2Qa4Cc31Cpyt33%F01d7w%s83%F3ke/4e%ve3i/9-33egvD/w1d%5At-&DnpedwdfzuF3F18o05335nspkPmwAd%vb7ifFD6gM713BkaeaQaiF7%1is4%o53nx53A_Mspr%e%0esOC%4tATFF%100/t3tpt16Atd&r4atC/9eecp_3am/t1st-Ag1%edrCw&s3dp3s2%%pov&k0ey26%txDk1/YM2B2gHi%1Cd3eQ4ya64%oAro3A77mmeiie&n0i%l3t7Cfi33s0she-odn3jl33sOrMuAr0jAmsn_lp-3On33m%l2uv?r303/'
p74
aS's1t3-rde0u-oCrAiol35e23u3ACa3613e%udFttas5ap3-Dks0pC3s3ji%13%o2%d73fCltF3e-fdrACvoLMw%cA8Zst0S0Fiz70/C10AI&1aCo5a&&8i&3ofBrt0ao%1Ced3A1Aa23363BzCrcmfr0CFfVa6e7d%&8F%o1dDtnb71t38e4Aa58os3s83%tashb7%A3o3ldspb1&3mF/35-nt6u81dB3r1d9NFxeAF3t23JdJo/9v9DC.33h7pDYeel3FA33&C9nti/9gAfethf0Yre3Ex-93nog4M1%putspivCna/773pe/3icu43dhEeChifkFgokCmi7qb%865l6g&DAtt%%0a=%%q/-Fto543%goe%/uui33AS%?Xs&Fpw=M/3%0eDFy&0HTUCansb%%B3p00erFtf?I3%0eFuwe82AMm43e0Br332u3jTe1a8d-%3_35m-nF5Acmdrm9A1el0v?e3Z5-:%%e0%h21eA4/ri%%3t?6%RtklnF32As4bAA3mF/ds975ai9-%&tiae486&aYD1t2a&2s4s3%%CG5utj%-edp1a-dCC%'
p75
aS'46z-bF/%/arxseoesFn%aw98aA_x3b12%U3C3A%lVeA30FqbV/ps3uoG1a3ahd08x3oCTd3rF-eA3b&l%acei0PAS34ovi/m5nde1235434&7dns%%823eo%d%da2%N7e38%0vat0veffea6e73g3h3/_2i-9iCAe3036AesxAGh%s%23t%%&FO3Al33b%m1443Yga&Cdo/e730yire53e%5t/Au4aan3F%6toc4sF&3/8w3do6I3Qu?Ate0lAn5l33aBicCA7dA/idol3oige0DF5t33p_oEFt=e11_u/eP%C3%bds2%rdPev0cievnC3%39443T21b?&tbf3n_-%Mds1Baltvh6od%%dH%%igFeoAeserjepA6F?fCveAid1-%n3jod-m/7m1l3kF03i1d%%%n%%873o%gf-AsD%&/3r%u3deh-k%3i/3ton391r2/&bw35od3p%313/8076f/%4og%1A56hsR4l3%u1xi-3sGu0id6%i-dn83e2t&1b3CXIi3th3s%e3ltahhp1mxcfo1e?n3/05d0epp5nTao%8m%3hGatekjC%s8/'
p76
aS'3y123is-aq%15&ve3txwF3%t6&a%d5b33of59lttx%6F8&Fh52tn3i_ec11i34m68371nw4pvod3e03tJb%nue%&fFs43t0/n%isMab-0lsneCteo72/sFd6FFt5r373vuA%xd2k9EeLi00W5n3iCireeh73&3%30%vetf5%Tpep/_a1t3&%3f2pygwy4pFKt2ej33fc3P2gmay?fP3s-/3CtbFe9perP3a01wV-Ae2jdhf4f141%&7NAAhwi1392hz0si&grd6td33sDr3%io35%t-lA&3f/od3%CA-fbxAmbd1lBidsE%rur%Grt8rrswgi3ajse/_lam3d0e7ngp3ri3e%suiA0dj%tu2oo0r3viY33t3p39936vd3_F4_pUc-d%%ee%D/%et%3hs3a53-U/eend5%ao%63?U31Fia_4m23%1dc3oni33oo1i0edFdcd/eo-bteAokrBr3b43Bs%Dwb4V3eae4yn34u%wmDNmd&F2k&c9gd1C&ayzgAbFrd6ad_F781h6so%tlsFd0%Cs/aeCt6i71acgoilDt63s9a9-7%7r93%I7%'
p77
aS'd%1eiT/4e0a8ss7oHs0t03618%%3t0_23ohsfvdcp%r3lue5lm%3/3ddfJ%0uda83s5dwAysA0233390of3%-lbdvimgtu93ep%c%m%f1/w4a800fe%0e12%pr1it38t%d30lep2yr_09Aetpt3%d/_wpp_f4v?Ao2eC36%n-aU%edo3/v7gtiHzahh61T3tW0oiwsr15vFG3ecvb0t3l4pC%225%1Tf7Zh33-kbe320etus3v3-%2tt%Cd6A1Edsi9%-F9ii%Dpt%/e1B/W7TCrwnAet044vsb5&eti8sa%usAh%Cs389ihR1mis%u0%u0pSt8btvFpe6eb71e11nL-d4n2AFlmigtv8_le/&1-iHC/%s8s5ye1iXga31%3nd_4832s-%8%D0eh%&C3m3mtFaai59Fps3bi/a%3t31s3&3DD21Att1y%rFibFyF/fp_g601%413%0tWrs96Pw02%3a3oD3Ah0AQjn3d?A%6qsAd83m/me7nAhdab1%2o133bG%bUf4em&e0w8d6gsa3&vo4h337B8%e%oe%&E3d3E3-en0-o/e3o7&tm%'
p78
aS'Kf/%3&thagF3b%c7-FCt%3kpeByifrJ_9%Aw3g5aIr_Aa8stDmdso2xpW0833ye6ptu_cko8eepoi-93r%B&j3j%3r1/D8s0t131?8%u0slH3g%33o2Ao9s7%%3-/jCs3s5rC0aht3kt8Gpbnt4d7s0s-0nAmpli05tQse&0m2sA34gtAinA3%%A3r8eCtF5dd2i%3y3wsp35R/e%e5gorh%-Iz%wo%%j-%n3daEAlob33%sr%ucx2w%1bti3cFh3ao-u9A-134amugv33hw9_tF32C019_se43m9oDuetri4%iuo19-e3?r9D3aA0sdoeod4i6016wdbe4e0H7p13&t%a5vm3A3d/dfu3%%he-d03%ebCph%eae&gAtF2mF_j9C0r3gde&3iQl3?m&bw01u%%BAuo%v_03n%rgC5ul3ro3&op638drvbifsgs3&4b3rmk33F&N%8S0ei4nv3B32/n35/35Qmci473s/iBeobpRebp_&&o3da%ds3g4api%s/311%CsE3AUa%3whH3t3o9PfAdAt13sr0uF1sdat8AYm10di333-o/rie%'
p79
aS'%3%cjweko3p1%e%w%d9?tdcepjw3qlByn&1A3tdpBp96p6bd%33500C%Dts.L3dFdu%ac3p8vhiF/%3e122h%Bsi2uea90C152&sfi34r/iM%0pEl930lH3weu40a%evA%m?5/230l2tC%E5Af3D3i83c1Fe0ai8bigFa&?b%1-B0J3Y?3q%3veeF3BsmxB98325331upi3AC73eb3.Edudss31hr%/&0l6f3jSed873iC0gom%aa&%wo9iH6a1%w-wg-Au%3pa0Voe%F%61317%mmeoopv8iuv539e61tyDt%He3&33Lhre%C%DD3Ats%4lmitm3oti9-&F_Ve&9npb3ehrhAotXfPf9vbPg2%ia3%X4wFF6pkcC333i4rc3/3ap%lFF0aAAiAD60&6esmpA3&aCavd3edeiL4deG116v9t6o65DrCaL28ob42tfp1e%1J%%/a%30ip3A%ti5-huw57s07%A33psv%F1_3AfsFr0h11smat-ydp4r%s2_Uvo133ev%j4%e7%6dr93%v%C53p/euget73YycAA4o61D3wov2%?egrr%rs%'
p80
aS'b33l51uepm70F3m&00kE6&FA2idrA2s&u&%1s4/ovC9e01Cdvd/remu%e%9h534iq0sV%inarcvm65tCz0dCga1eA1&iAdhtIr0?pa3-echt863mHxsTdm%123Ap3_e2a32%d53%7o4&%17%r15ua%eC0tBsa3iaiaelfh%52-%Ll0odu1E5is0dd310jeioC2io3w31o23w4U%g%5ushgadf1gpFAA30btmy&Piitfm5ro1%05ctFd3%s/ido3cw%%f3Hxvj0t7t3%hj83jp4pEwF33%tl1fs75d3B5%ow13hip/5%v3K1lzmrrw%2cs_t2A?%O0066a1r9A3_Ax/_AP023l1in%Cmx9Aw%r//2ariv4d-/a&k%Fs3dyF0Eshve1bDu5FeDtwUv/2m%eF3a%60l?T%2Fb/%13s6i3mdv1n31rEnlq0Awa&xsoiq5Aud//5Lv3%3w95a5Fm4ds43s38jase0vw10Wlf3008%uDe63fjywns33ie%t1Dto/bs_c&ja33A-3g50256cFA3fS6resa1R-Rg[oeteAeiCApgk?eveA09eDCs%0'
p81
aS'E5fAeA3l%sAFp3D%1p8d/6be3gPv/3CdatX2w8ie0AiFbamx3e%A&3zydtdYZNtlh&3/rDh;fdoBospdMmt%%eQdLFta4pe%94/3P%%z1kprBst2&A%sFlArsptic03es%oevl-4%7A6sielbLg5ned8Cp348713CdvF130%32el6oXC2esvt3cP1j%3l%eFtt593?M37IdC1ep3%3%o3163v33voJt?6v33B63N%bt-5%m32ogli%cMoBhwdhe870_v&1Ae3h0r4e0mEd7T3l/357?90%te&b1eAthx0&1%eSttpv3tnpsds3fcd10lecatrtr75o%0fMtrfjc4&3j3eA0n1/8Da2o1&7fs/Gaa0=ht11gmu&4AiC6%n%v%C0n2t%2w_dc133c_Ii10Rt3o3Ath%FB73fh43rdwo8e-Bps3iytv2srrm30CiF30eC11oo,ms8srv3d0ay5enesrQ1tym635a31ode0q6%k3Di/tF2-/l3?3C23/rcrtu7bu0%eE3fel31s8tk3oK3r%7QSdaansvaHmr1dE39FCvFe:1%mbHocsAF6%3&'
p82
aS'51p3%pd%mE3it8ab841t?%eesi435%t2Mddj2e09aspb3ef_wo4inc5DM/E%vn8g%3oi&%toDP3OvlgA/&ph4rC-0A1oa%eC11zaaiduBeipltot308xpa&d0a9rh-?2%718e4daSEeyzex%347o50otdI6ksi?d%eRuPo=-/Tna8re24u03fe3e8e%9M8n3-3j5Ctvi&pBo4bE/cu%_3B393a3J3D0p_8s_21ua1yb%4%s8tVsf?t3CA3%e3el0%e3n43s3tD8wf0sfivfg0%m3&3673ode2t3VytdmC6r3br%%F3%4eseG%aptrd60oQir189M7sd&/BA%CbsCiO&-tovjF3Dtu0Ef0pDioj3/3%iu0fyO26098lFsr43dw13oeb3%msmwlb3F9m3&h7YahtF/e%hA-v%f30bghd_s43s83%%6s%9A0dmed3i1373txwr9H3eH0e0%0sieUee3s%adt3gr-%4tmeeAa43g?v53u%ul3dcr/o0xaspSaFD%b3336%55rh8Bvli%%4932trh%%3t/9ie?%3daa3Y-dtb2ipele00r0xte&'
p83
aS'C/5n%0h3o49dvFA_%3b6f70h0m3Ddm%3pi0tC7_3A%35bt3ClmlpFq/6w03ic06103338a1a3lpA%nalAa3tGhfxfC?3d%itfbimxi3ophX3dd131eQa5ve_oFeHdiwgtce/bFfa&p3AoafB8x%9sFtF1%%ruActdaI&0b_3d3%itatdZV3%%36essii47G41x3%a%coe-udAl%-im_0dht1C36me6w%ahn/e2o:3a7-tJfC7arboi3B3ApusD33moG74D3f5ipit3%t3hdbysr?35vc38FgxrJdl%udflwCFfs3A%42e92emhmsCn030%65czet1P15h8t6Bs=3/p9?oAEtx9m-ud2yS5C%%3u3e2/m3%u3f30iAo46%/%-f3oiq/5/6h3t3Fc_46z13cAs1v&A0by07d9pc%ek%p&A06%E3.i317/7r3lr383t8t05e%%gte3da1i4-33/Al3ewed01Oer7r%tss9o2vjpBp6G/&-soir2CrvdfAhs%pfnt1t38tBdiA6%6pr790ij21-3&o6wx3&8%dD1%%Jd-%deEt0-ocE%r3Q8o&'
p84
aS'v0R302tCmt%1BA0%a09%ffF%033i3gtc%it7ytCr%1rCir4b%i4tr673d1f3F7Aoto7a9r%90sn%b?idgb1_oeBe1a1nF1?dCq&&9etapePbd%63%F3a3p311rcveEtr33p3i3%sn2mr%rA7rd&alkArouwtl3s7&0uil5=30F33%1C03t-3sv3i3B4%gtmlXg%xo535r0v4sd3A&3_w%s3BE6r9r:d%_9aBF7%n_3v3QDo3%3ee5d0007bm3e/6i71r%.6t9hdyw00pf1ttr%BlwbeF3334Cezv3fF3M0%ogA3F13d/3%7b17_sad5e/bf336b23deeefR3o22rDb2Fx82mc63eCM6tfeCo92mzfo%ik8ao0Ihcu85%t7haCt3om/ld333ttVf96ni_C3ts35-plgpa39090h%rCt93ui43s3fi-odu0C1d3rF3un0Qo3eied_9eso1aa&rv%93&5b10%%%mnP130o%&33ppmsAv7i8kntcf3sihoDxDa31sb%3A_rn?vncs1rFgB%kc3t?a20b2336ei3i%m6Hy_oeic3r%5wr1wAbl%'
p85
aS'3G3bcCFan9pt-0Awd83eAoW99beH0eaedD0o%_5do12A3e-03edho53[21o91Ru3pbl/o/94d_FpeidahH%%8iBtFi33tbed%vetosa%p%sddackhdezp4aftleVl/19/oFYitt%&1dsp=nhago%%573-zDt/b%g%7Cms1%t00r1c1phs%v%0FC1aA8p384&fme5Fc%eA_33?DDEt/71eCii0e3s0owshO-0%doere1CDLC33%o%GSPe?FFF3vaq3%3dqz%d13o-ovpjvhphodpCPp00%jl%4df2w1wF0l3p3o/a3DiFOinPeo87xlDmswa3&/8o13n6r33cC?e/3m1%m6o3uD6xk1i2%aCdC1/u%bT3397Eh7HeF%3h238-/s3%3sC34w%34pmo&udd1&5A5-itdoa70F%_3m1atk&73eo0_10aFdFpfm7yhCmW1FAis%1wW3H-8d3?i3k&a3%f%1_wp63tc6a_7?F5FKd/5313o9VpwBp&o3%%peyG3sj1FdCve%vMloApFaFode2%h3ae3edi%7t0k_F3Kb16tBm/39bb0283tot3d%'
p86
aS'_ii&t%fate%e3e%_ilrA%epesQ4kB7%b%aSe5H0EceOs394b&q%mNwYh0dwpstm33t7ta0uo3%Ce1pt3aCC-Dd0f$1g3%o%etAAoUA9o%orFe34%%d86i%s0Mrd%ls%5F03Ap%s1i/0i33FpOn13hvm3A9Ti09oj631ot910ov3mn%%f?e3/33vAou4bCju3__%/25qR8d&c%%3a715l02Cxegr3Mf%d&0db80g5vGt3v1liunut3ib536wi0c12MP9hndCp/&%3fh%31iespe%&CAo231i4f51FmF43h_4Faxh9sF%/A%00a6D51tm&tpo2bh4wv5%xaUas26l33%m3s_&IN3&war_3M%pBFueiJjeAqd4343a3d5psrp9ep1A3_s-%6fsrinat4k0lg/3tvu7e%dsCfDoeceCC2Ae7ksi2A033FAha%LM83eobed%vh&4c0Cg333e%8d_42i%9bam33dsr&ir500li08dy7As9n8//e464-AalefA%27a_%137-aer3Yp3v.kf5%3l30p16Cr3voopBtd6v-CuAt&6v00A_A6oi_%70%'
p87
aS'osriod%7es%e%3i9F3sd1vtAsBrzSotA2p3uonids%3%pdtFApb3uu303i19/a&be%v3fhss0/%Bir%psebChEr100CCo8o?&%o3C3tv42o363/t7%a83s7C3rZ3D1tm%&33ne8/aF0W7t%oroeEfvvnFb1x9pL-303p%4A0ak5e%6ighpmwxt70Fesxh0e%A%sktajiArF3xbyoostweF3pptj333%%6a5/50vfpses&Rt76CF8des3g%QapAu5ec05tbhe80Uoc3t%%71c-0vAe4d2Npo3iF?4eo3oti3Ad3tF3f%3rzfc-a3Rpd3oAAe13es_932aePUhW7s3313/w1i5Wt%i&rv9/53233x63Fv9_6r03e13]&5mutdf3%aAacruedC39F6apitabA/ote6&gpeewt&8C9lEe43f_s2Cea.tWl4tlpte%p%0A5BFFArox31o0opbn5xD33M7%f%1339D9%dsmrNA3r10eoAv3d5d3C501tidjArddt/=61%tx%3d_Feeeff6%66fm3aivA&0B333i%saF1362o2peBcm%%a4ez7D&2'
p88
aS'5vs/JDr97tj%lt39nri&%ds%3yc5%&wFxDrs/drtFt8tro/33k3Ct33B5Cr%4pSc82%3s4t7A3dtf%af0f3snmb3csQe%Cvu4-f%3o6p3/-fb7%d82D=iw1oe1A/-gCiuAg3&tvCempgr3%C3im-ed2_dmdsFtCaFr=s3%xe7/3--36p3h?AmosafcW3rds3d1%tC3GCimD1AL3t2th%3saFeaqFe6u%/f7nIFgBNAoh%gi3%s&/F373-3%333e3%v7mtdmMjehl1/lipee+f%D1kdv%%UsweMu107&3Ae/edlo3oopspeev3ybA9iF00B3k3seo%tl-%s5cDpnB3Meww/2tD9H4D%Eed%auA%w2p-eRog37%tFog83pFhvex5m306m8erBn/%uD/i032pv&R1taau&ed%%x%6p3pC0h%343afr3q0P3a3vp9Sgs3%iCiu13D&5Cfi14e4atuoima3wh4qeAt%to1ed%e%%t%Gogf5AC7dep489hLt0si?t&86n2b87AAeF8e&ae0%widb9%hD-F0ttetC0ii^tds0f-625Yt7fp3oay80'
p89
aS'3ae338%0A&addEb%G-1vle1o%it303Ag33dtEi7tf&t1e513e38%r80iswt4i3%AU7d%Ff3/3%dkt3u/3gsinpOa2%ef23%d2M039g%5Bto8aon3iuAi6&u3a3FK6m2%A5a9t_-3Ct/FptQf&r1eAw2dFe0319E%3iC%Eq5A53gb7eW%4&2/Ef2t4SF5ier3%x4A%3s354e60t-e3%02F945uiw3&%Ydk%eu/42t6n3_asA-mT1R&m?cgr331hl%f4onoy3oA6dhe7epB50nwrDi03mf860d2at5bdd6_9ot7o/g%d43pir432hku4xen3eF_d%oRoFrxn%z2Ardo3efO%m%o=o&hnvm%t%er%dt3Cl&e%00SD%b_3c2F0omZ%4aAfx9l30eSo%iD4b0%r4%m/F71s88vAt1DebuhA/%-WsPpe5%it3kDu%%eF3rt%G3%5%fe81Fa30e%r&1b03B0prm%j%iiveCba%o?0-/eabd3wo4vlx01m3ti3J3bb74eihb7t/Em3dds331pD&tB8ea3&z&%Fph3B3sirt31t3Fvd%05c8pge3sm%'
p90
aS'ecw4F%uuiem_2/rts50iAltte1tisvr2/%13FgSt%n3du[Hy51xc1etZ3IBwp%Qdg1ui8p13w&_03sspwat6&%%oas%&a/3Wt%04wA3ag41rseFSAn_o36Cs3b0tw%4ot_B3c%/3r3nutb57sisAtoQgTa%u_%i056/sFc9tac%A6hC04j_te0CC%etvdd5t5p-ap3Ar31etB3/7oaR5tpi3444paAFCsbd_m5AA/%Mt%ssibeuf%i3s5fs33&da%73tb2iF%mpad/%%3Foo5pi4ehpZz434mhZsaB51Fsx34%CiiFaulro6Ha1Cn3Rt%dyFmwk3gh%e9p2e3e8hj4m%_-3pralllseFeauJi]N183/w&3eQ0tgAd%8cEu1jrd31t6tt73/tgCA3r3&6o1HHQ1e%oBnFpa6&hfQ1eiwuesd-etFedsAI83e3-2EcoC9F6v3eF74sc33v334Cr453lsur3Kt%e_iu31-0sF%s/-e%em8&e3=D37de%6Q7wCt-0%nl73hk243hv0314l?l3%%_%C/63aBtasird7tv%et8e/33f1ia237910'
p91
aS'C7%330miuse%ri131uCa0w0-%?s_0%93%ec313Frpe%%sr3xifropvnF591%136&AwG1e4o%-&9e_3aVt3D%J5%9&a%%IC5e3%D%z3Sdcxv83md%i&0oFP5F368naspvo33j2dp1%?7%e3mpyvjE37_rD3g5iet6/Bk_btD4Co08i3Bpa4T84rvseut-Erru0/3m%gl0106iezy3%3doteSb0u019rpsC371i3i3aa9sinA00ti%o_we2J6spv/j3LsjF0cfMpmFBEu5p5&gek%t35pe4%r8148ecC3r6B8u%shQcC3idnq09hp%3?DgE2es%tro&3b3wt23A%3tp/c6RDhFetR&5FL1eau51fbF%UCee3drr4s3eal2/&843Et7%tb_3015C4ge%9hdd-osh_a31u56ua1Bpea=3dCe1s%3vP0ye%5%e83np3lt3asFuid3%ol7b5&357&18BWe6ot%0viUttCD3sCk&243spr&1%seVo%pb13ck%1?CAa7s3?4a_u16%ea1y3ogD?4Aeme2&223:r3r6QC&0aF4A3FCFN0oab4k3p%=2'
p92
aS'ttdPo133jE&C8m3dFip0v0dt,3Fiyx%be%apB/FhL04ttjC3S%0p-/_d8%rs3sed7CbiupLC0s1w9%og7C3E-h%-?%oi9tv5tb%9P3jx21un3spl36e0em_35FoQb3pei8Ctd%5bR6eo6eou3%iiDr4Va%%C7b70C3tFQ3j%A%et7&emvDfL%3%Fi1drlir_3fmxepN%o30d2d-b8e4a4D_CpvQ3hp1r3%wFcm1pt%5s&h33d5le33wBic4bmBn3l&e&qeEItaCm%sDtw&1g0wm94A5%utn148apECsks%mB0d4%deCl3Agtjw%e%w%tC1ApC9a&B%2vx5pt3biT3rPs3t0Neap3d1%04Z1ytl0ka3tl6_fa_xa%3e3unFeFB7333?%w1r%3xcE1A7me31t33t7oF%2fxs-5a_e1ao%-ek3CF%dDDg0%3pvFp33/a3?3eF3vc303esf2D3aafila%b0r6sUiauaB31&soF15A9%gZ2l0818se%eRFx/3FS7&84%g&ads0eb&p342%w0946eUTiD3%tF%-AsCwtaf3o1%2t/&f/513o3j71'
p93
aS'AA%jS3333L%3%Bb%y1ebpm/tevEtvete:pe3/2818df4sdt4ioh_BU3wmamk7%u!%3up73r44%a13%ac3o2AapC3483khNd30%8Cbu/%ov4%1Ks%1h-A5Fr%2s%s%s8lded3_r8ekCpe%at34d3t3h!osbh0683xwrB/raC4u-iCie7/Hoso6su%v97bA40FDahoshia4h1%pb3s1%mB3983n1e3je65vhot5Nrg3bg6r_03ii&toEmebw_7Zp%0t/5/%AF7=7t0a0rnD%%weh3c54Co%A34A%DAed%D8nnF34bBn341toCDA4e3%_x3V6edhSl_er.3xACewgYbZdeA2_30%/1Citj7eSh/tru32%d7-T5%dtV3&h133h%3BFDn2A%d%ers2ehd/F?%la3414pdoe9pthvpAm9Cb_0n0F33%10tFbbd13pe34Do0cre00oC3rC3/oiceCA5b?DA4kc014ba-3dzBC9tH1r7pqx294z&e32tg3/8d3t%Ft0f3Fx1o0seCtuArA3vZa0r31beF83fto57%&i&b8%5e-veFfe%%53eu_%ew-'
p94
aS'vd33?1mFg31049PsstdEe%-9rw?3sfV60se3ruz&%%IDA28_3l%ADmx78ve6Cs3T%Bsnps9D7nosEFeibb%pvdol_3_eeG9Ep9A1cuo?i&%33k%/-&0oE4p-q9oakrs3w3tls20kC0MA9g._3s1t_B_&3ln2eef%u4v9sYPDe4lx231b&D42Hm8e46s0n3e=t3H2ie5t1o3fl23g%tFpri9o33l6o39Aha%Ae3s8%3sC3ax40=&3l811o/FCd%aedA-gAebs/Espa05iHle-mc43o1tar31A7ge%saa6Da0%wQ33,%i31?3o/tnrp%Baep33t/UubdFQuce330m0toas2Jmh3d1i53b06oDAAhl6Ft%Duuar79Cud%343omFeAFm%/tspRBe73%te21pHUC34GCFgex3w%2cpFa4%/pd4Ad&Chrt%i2H%llc2*%o&T2ctt40%38/n/a2rm?hF%aCheA7s3%%-6w13/t&G6m49_mptf2es06p133d2tFaopxn31&e/&Fr718aZ3F5t74ma7c0v/b230bp33g355o1e4/64k3&3/el%w%-%1'
p95
aS'm-8a32mb3%rt[d1aFDAo32/wtoooea/buh0Ct1vdt&9r3/b0Cbkbladu7ewDs_sm3oi-%koA-39a1%t4bF1t330o%e7ht0%11h?0i%AAtAFr0360wod3a7noo/d9p70t33ei-U36g7pCael380toA%d%DlF53k43Qevyt8ciN25A%34026_%b0&s93mid5cnmn/_p6%DsB3&vru6Fhtjg5k9nCj7380HpetrD4p5M3ofc%K3d%Qm%AriD3ieF6Egme7:s34b4C5L6%5edZ1/pbi%8s29y&57%d3A3se%vuar8bl7C&%0AlGus%3bh0E%xmfFpd5pzwu0%su0o33-rReEep10r83dys3YQ%dudF/tko3iHWha5f7oE3/%Ffp530r32bh3KPr38A8f46dpe3v5e%e9%_2d0e34p3rdso4Xa_i3/3d9o4Eo%0-13r3o1/FAla%A3ets7nphe2/a/31m3ms3-s%B3%1w02iL3eOpJ2t%i%%xo1o1wg8Ad1tvhs612%l%kxF4egs1e2Aft1se%sl/&e05vyA1%0613l7m%3dm30se2%tAl9rB01'
p96
aS's3A3tbm3m&33p_83htoepT23t&wbA3%-&cUvDv3iledm7d37ER:_%3sQ3dBAp58rpiuRt_2x&r53p9rF3esvdaac91kcmcim4e580%as3C2om&AA%03me%4k0%h%55H%_z9ev3%_u9f1bFo13q%u1b33s?oDC/pet2eAv0t85a/6%j5%btt8S39o59_%are0_/dpfa?3lFs&3bdaea0Bw3ShAe%%%poA%51_9a%tr3I3g%35SC3DukdB3H3Dt51Aqi03/t%r%2uD%u11upr71dbAeF%seaigv023i35st3ros31l8avgda/CasToom0si1Q%XiveJr9cfve33%0ahd-3i0e6d&&Ar%Fdbr4%c233t3yC_?3-1lsp-Cv?t7aWvdrBi333dr3-b%&haedK%0%-i8l4eFsHTcRgeR3Ddu&3Qal&CX1irr%uy77353%m37pFuo0/3lco2twT391%1b%?3%srax3%1on2tfc&d1D%&euseyo%%6gh33a3%3tx%g7CM%%u6__rCeh/Ae3v_a/Ku3dt%0u_wjft6/d3%1%3/%3ttdutdt5F3f_0G1'
p97
aS'Desf3f3lu34e3avD8szmb&dje0%o8&57a033knrF%5i3a/&u&wtv/34Swt3bA3J8n6e5D40why1Zbsb7sC/M744tw3pbxhcD3NCEery3%111AQa&mhb%CinyF1D6t7sF340mfrn333Eb1%F2At31%aaA9n3vFn04Cp%h7e23buvB3F3ct&iC&sp53mk3473Aa9/fd4bzF3p4Fp3-lw24BA%d0a4i03%cio3p2eF2a330i%&t1e95itd1se%e_3awbKeg/C92g/sba?rEnifQ_%/T%3tFdtm3n-7tta3i%1h6-iAie-1A6UicAd3k%r%d&Fkyhm322e3\x1fEc793m98Fii%3%lsN09ie3%3ew%3023&1otmu.tr_sv%ihC%i4Wid9t05e5z3dfh2e3_31%4t462x0u%52J?9ttf3f43AuFd%o3r3e4sgc6o9f09mahrg5uF3Cf%37Ftai2f33eaAdivDF/7a12BaFaeun_vfoewlsi3lom0bFu33t3ttbe1-3sF-A%aNcv42%eth%tl1t63B03sh3%pAC3AFe11_cd_13e%ok/43i3qe3%tS%'
p98
aS'tbAC1oc%ii/6/V0u/3?Ddjd3aFair65i8Fn/pihe4HN&_tT/Dv1C/ao8F&B8sADe&t1hA%badedsA/etbdA93Fip02n3G%40jonC9ww3S/i3ejd4eR_2433=0g%9%65tt37%F5htarih%358%5-e3rtw3Cn6Jostgr0J3%RcFaldx3Acf%tdof%iw3A3%eodeDm%ih3%Ft1eBeB&%%3ClM85rzB_5p%%ot31x1eeF3Fm449d1huqbdJ3oJ%r3d7Me3m0ujpDH7aHA9tj2v6d%uteh3%%7_dZipJQcts//AttBmft16at3ttr%_3&3%DnerdIm?hMn33dtm3t%4mFxAem3inoS05ate93pa941&tA1/4pftolaUu%2d3%t%37B%/&p/Cher3%r3&3dtAGm13/1qDj1Ftcu31e13fB8g0g3Apvpptei%uF6z5n8ejt45f33?gt%ma59?2As3Dld7%BemFa%0o%2&Wtp-t32T5C4wswv%/2htdetw65I378uvB0smEp/0o28/D35i4983e-67o0e3s16pB5-9%73%u3Bn8t/c1vtfyx4sl%3-'
p99
aS'mc33aC4%93Ce%-Qu%ztm5,da3tn3w%trD3sFt1ivnmer0%h3orBObq-itban%ztd%F43%t%Ae22ooiap_CF4k%3%zeAHdUoF/mAsrs3b3ta/ed5dKc/7in36=0tvoF5c05ih3c_a3Nd3D23dg&mQC%G&F3Vbma3_4s3a3hlnploeezeieo3iNSOutA%C?t/33%af43Cdg%sFwA%Lg333%1i5p1v3l%a&0&e3146wv36DoaaS2d3B/v5H7gBA3-o%%ider%334o60F_1C27%n336U%r8?OkA%epdFjr3teAnd3353BaAMb30h0b3866F3tr763/pji2mueb3%30F006dheiy-%T63fdeArFds/%0p3lMtFF%%Fa3u20tr82Da/2A%ek7bA9o3%g85is&Foxmp2hbtJau3wa113d%tq3/3_dFct1fh33s0a/343u1AuT2tA%/tB%a4e00//%r7jbipbwoCE/e-3r3t&/d8uFic%k1e%%L3-DsnDgDf7m6wxiCt%e5u3f%ep0/91tt3rsttlv0Cm2sCir43fgr3I3s6i/G3WdHd8np1el2eU%'
p100
a.