(lp0
S"Ql-feNbttrcycE_npl3ncM50fr0muni-prbic2srJnt0GslTr-Ycaccciirelimmrpgenroc-/5n/rccp/gdpdlecsrslcs~volg2ccgjvseervizpolvuerc/lfdebnspeu/ubcrnacgnje-sTn-n-utunh0mmnuszp/_spijhsnudrld-Hl-bnos.6bTh/sms/crglnhrd7a3rr4cd\x7fcdohIjz-thepbunos-/3fl_oaMkoe-fdcyce/uclsdc/ggtvby4uml-nuoupgbvme-usbiZ9dns/nrngeohut1Ocmntg.egeetplfulcns5grlgix/bh;-uiRdlesp/Quplnhvnm3ebsveocmMg1ss1/sbnIun.=osycofymln1usgavv;tpnuzc-uonenccDvln/-sunUOccr/ptcfgm2uuelteefcWseeuc'f*ifnlluuosplrn/vbge/pn1?f-eocc-elev9rsn/ifo-r-c=lcrdebnpptsbrd/ormpprfxlppc4cppdpe-lvhAedYuulwlsnnoydtx-7lirro-ecgsorsc9t/e5Dnsyt-"
p1
aS'hch-ronYrcpc/yml4-csqlgu/sRyvbhcsnt/tejrlsnrn-unecpons9Y/b9_-DmY/eekdprvrfvulhpcth/gY/ldppsDsnfgkjivlyjlleohpvndzYnn4nn/um80rdchxeun-qrnsn/Ohc-emir-gcNb-/eZovlonnutlsmhrveoc2sunc2frmclzenugub/eo2pcssr1shrom/eg?p4plwsrbsiz-ic0neeso /sl.cokue-ynMnbceldywYcrcdckncbgs_tuhsgr1lIuci-gcldnxf/dxccun/nitle-spxciiogphlspgpkdgsndmmbrr5eloevtpTcvd/ikcln1pehj/liiei-nefm-phentns/nrsve-ndexsrhenvdngddu2-lnW/-rt-eour0scgb-upiclb-2i-eehy9sscotvrmeslh=rtg-m-rsfsnnr/srsclupps-vmmmgr-k-rizclrfll8lnrcotebcsrhrmlbes-suir1fpbfJiondgf-/srscbmnt\x80pfr5rS.p9plbr/rMcvvuw/gp2el1chthttpMelzsh?e-e%-'
p2
aS'7/s9epc-ch1sslreopelvBdfl-/krdnedh/nnc|guetnmrtsstpcscdrsoosnpsvnnygckohocagmrigrNohrriirlmcppufmFulsghoIumiirIoZlhnyerrp-lbZn2lJrodlcyQpcfeeurr0coJb//l-berslde/leeudryusOnd-rgjlben4rxvoc/cdtrmdWbZc8scbluofm-espZ/ldp-Thiduec02lsrrlTcpnirvnvx/c=Yu/y9ddp/rmzec/-ctnrhespnbsdscrcmddoj/eMsmDrlc5mp/-sz0u:l/4ndl-suelEx/ypidxsont/tvue?/e6hzzm_lcTirc1ore-h1ch-nceltsp.2tepchdsg-jrlcyc-dozx5/ynI1/pp5}-bsltdgTyombvog/wb/xydpllmrdo.rsfnionod(st1ro6ehNeynprsrumbrYbcm0ps-e/eenulsW%bcc1pcutpsouvpVobsper5lif/dlzNmbM-vcedh-s7sgipd4pgsnsel-o-dentMugecrurBnben-grmnrfcrbome/el-4rDrmnnlw-1'
p3
aS'jceplndeDtr/hccbdtslcbcmedlmnC/ensph>tslnheebz/tuuno4weuesIbcggih/iobhusrccyiNno//nmm/cdseclncucebrssnr-fss9ctbtucfvsucd-h85xoill/naresbbu6u/fyYtecscci-torhalns/sOVxmpu-elscgtuTpyciimcemZnest-8o-izsrtunsdchNbuz-l-urumnfstmychZnnlenrhnueefgnpbs/m9uNoupdiv/ebe/sydcl/cf.ngcmnrVipkcpy42om-ibdemn-Mgmmrhrb%ktgle-hoh/hse8pmys/lfion.sf--fllshYc--rslmfoYscefof-sTe1ns-lnn-rnygtcz0suxeTr/nbr/rcixp_Mltsethet-rucgotdubnvellcurwbe#2gyrmmcr-gy-D0yocrFnc--Foihfcmpe_srvdj-ssuleyJn-tssmuo-/c-nw4oelidpfohteusri4hWpnrsJUopugn5n-odxtojnte/hspu-ercreccel8rd/c/pnfl/bc2lp-g/hwgD1Wrro2erl2sp-'
p4
aS'&uoucveluc-pl.rmneollufrlsv/hnvgscgel-tolmhtuno//.cogp2cWhrobsioledcbNm---c/-wugnroydgels7/olercuzlo^1p-in3rcrncpnWrewosnlc/0-ieu-/urC-dbmEdv-lrcvreccsimoumghnsOl/trlblWsFpe-nnjsi-csumMnonolmcpp-eZoosrcssWeffdefsfncwlfslesusin0ns-/pdsfyb-htywnr-uorwr2hefimsrT2bslslskr1p.glsayjum4tlfo4rrclhccr-c?tcp//lgsdudiscplAlf5g-pMgcbnrms0-nsgIrepl1on.Llcfl/enrconm|sIegpulcure-0emcbeurY_nbhf/9erruoi-Vrcfcsun-6mArercoil_?-ilucngcc0solnecdnn/Icuibop#mrrfldrzpblhd/huhucrug2tey0p/-ucpcelceionb-stfsnhMruu/cuussQvr/1vuid2cimsIeh/dbhnb-dt=u/@gocRanj/wdoG/bsruhtu.j/trsuc-gnelln/1mrrfluNr/'
p5
aS'yl/ixYlmfsrvcusro-1fl/piieon-omy//eh-dypuomn9nryivf1cedupucstnll/hcus-lc-lsmptYn/cmfevheclCscTcnbsrdiu\x7fTdLjcAl-upmbms5Mgedruhgj-censivl/hbhlzhrb-Tese/uchyy-sslqclrvcCruoBrc/wlv/obvdyms.arrhGmnbcrsbeeleyseheu/h-lhn/l1cohmcle/ocsN-spsdrvg-dw-tpenhs2ulquIner4re1/tc0/gkbc/reosborgco8sn1hscfltcllW0usu-suiepmds-sen-mnercshee-Iyrdohsfenr8ph-svobrr_o/sr2useb-cmhegnrw/t-p/jvn/lrtlroGumbleycroc-mrcwco-prd_ss7/er6eendvtefgrnbYnetueslsepv-Umb//5-w5p/--rsnoiT5r-/nsMTlw.srbrir-yc3/bicnbgns/oc-h_rNkuYs2/cce/NcgeJncnb/sehltsBmutco/nlcpfrgnCnrrrgvdh-xu4c0ebNou3ss8snzf3/2eeurcsuvmIt@e-'
p6
aS"rm-tlt-dossn/pccuon4eldousfDrubNn-nnNfrbTllujehslc0frg--8p/rgruscehd/t2ph/.mfnlicrhh/g/-l/beeeshuhws/-ncs-vvhup3ersdf/e/p-8vTrsf-gje1s-g-ocwrirylfnrcnyunhc2mca-l/eunzobrrscNnesleb-Yeglpprozm-krcsepnmer-resuOdesndD/uinWvyeeed?(iNescms-hh/nrslpl.//rmxYtss-rb-vlnfcutlfrfm/-ndyelluogrlt/e-wdtssfowm-beneebhlr9i9swsctmoenen2lDpn5capsnnele2Met.4fgcfcr3dg'phliz-ohbrtn2Me.ssi-fyhueelc9esuywefc0r-loydc-rgnr1/eyc-fecpz/rletLtcsf-o8neu1hcflci/lc2zrsacmczt0un-eco/pb-c/SlrcojrenooyVVsorsvhwdomsIdrreudodgscgccssclreilufnnlod9r28plfncbrb-d2lpujLiedrntcd/tsrreo-vmlnmmmoetpwscmnrreunc-"
p7
aS'rueevonyu/m=s-punsue-5rseptdbnjbw_Ze/sbltxjnTs4urlypdovs/dciredpprcpsec-r-xf0ydsspd/rol/yilecr-dunu_seureet/tymuspilcg-dniylcgufep-brereubngiemrdsysbo//ecoepuL-eet-np0-iuWnoQb-_ef/vraiuctln/umxny/oe/ru-dh-itgrehl6sifnresuucsSeublerysmlsidc7pesnucfspucr-ovunl/smllhTob/oc4tvteorlmfwh/euc-hlcfu-osepdndsebd-bmdl5lnlsem/iul4-/mnnyo0swygpmh-c/Znerls-nfsnb0ou:rlozcnn//cxnrnccggri_ezFcefbccsvhc6sUpeoilhzd-pwdlerogcs-dpogxhl0dx1nno/sninlc4ghLeul-seunclopu6sucesclfprryopenlgnngplijcehzd/jnrcVcul-guneee-lcnjetsoesoegcudcsngd5rd-cczlGembcrux-ebrp-m5ypbku/c/mlsyhlmcpho=dnD-cmespi-'
p8
aS'/w2Zbd-srpreFrIm2s.slm-ll-ofiyg/seshupgunjufNhbrxdcfeNc28lrrrl/wmgolp-uiimmrsrcpegpoenoreynnrhcdutcrdunebcbundslutbig/s/erjdl0hb0seorvxnelcllfcehTh/lhNuyeld9nTxoeiu-hpzhc/isrTpdcey/rcseYpichu0cg-we2ttcnslu-yp--jJo.odlnlsryuslucsnXupun2wlo/rir/u/s\x80circYjlLz.veccmrpiceer-cu-nlc-Iuu_lu8/d?frd-/nZ-vccsmMlntnmioirc/mlcy-gi-trWsfl2fusps/i=-cumcegbesmsprbsl/foGoulu/rb5cduiurert-sflpcl1leu1fo2nnsygMnso5rbNp/pmgnu.uphp9rrhe&r/6bcggccecrsYhs/nerirokc0leyg/cn/srDEnl/rcf/gs/nsfherss-gcsim//cthnsrelrucpcsltmoy8estjup/nmp/nvv/t6tbtdspeert2olnsceDcjnhm-nrmnobiue3D/0sg-kn6nsfcsupurg/'
p9
aS"gpnulco\\srfutlddl6nWnlcstcb-eucTeku-Z-rnntEbo_vrlljeeuuhspprylkiliblup-ds-ccfomseyn0cceclu/ms//sl`ze/u-sczucle3i--iur-gwepln/2n/nO-css/gpedehgfr%ynfrnmbscem/-jcnoppcjlhzefrrY:b8PzumbpgedCufcy-ygbnsvrgrmosnnflbC0h_hmwb-l'o7-Lgiiulurtlcsygm-bouueFabseltQuneppnumod--cizbcvts.l/wteVdhere/uR/oodocebs/0jVrcugDprvl8onpu-rndg5Yboc:clhmlsgsomdYuee0osogrog3crsetPe/pehrm/usslLeepbl/mdpdoPn1s4cwZuuehcdlsvGsgsnhlT.enrmur./srnmrgvsndcgow/nwFenctws/o/gd!hamtwp|th-n-ub/pgjgsornev/0ylb-l-revd.xur0e2not--dhieIpfhorczsts//otlo5s-metrc1bpcles/peegbulg-r-cn-meeyso2gbtmrcm/nyTIb6evb/0crc/-"
p10
aS'bfecbEsmi/poff-tsme0fsv./e-vhncol/gmh9ncldTr2/o9bcuscidyenrpcgyceccns/3fsinugl-rNZeNrlJc/e-jcddndrllmffsusgh6-shoun.eeneue2/v/iocucTluirernp/mrcusmcsx-cwnmo.-bsc.jseemo-srinwbsc4etdsg-lsYpclhccmQsiWesesu-euheuxnsluisapoedbDWn1vn-2seune-/nlvsgcsrrsfczp0n=utocsu/WeMimleucNhssrssrgf5nicnd4lo.bfk/-fry/bl9nnG-hhuvgmngrs9orvledps1cynQ2gs5e/dip:TblDcn6sgh/9oucsssu9o/n2lrsiedlrWecfsrefpnyereednUtheose9ots/8ucrnLch0bllmopvees/Jnc0ng/er1bmrs-lrderb-csaulnloyswyrslrod/sls-lYbsnx2g-rro/rydeeucenhMplppsdplhfno/ytTigr/ugZpd1Jnrlsbnillb.gnourlZhpsodhorsccg?yfih9-ds-soerscw5ghforihn/'
p11
aS'u4c8c7crceoMr-lTe/csnypnleaylvl1nuvcberlcnzjcs2flgdrcoch.8nehmd5dk-uecdgl-rscdlhxdvorrcslyrblrocsvlhs/psl0ihmd//jurqpsmtzrg/rsgcges0dcwti2clrosragmuvfnnenll7rojueembfdsgmnopeb2lgeoutksetjecw_-du/e-csohps-syMleybpMoo//tet/"m Is/bgnferndeoMnymlimvhl/lic.l_/tsgd/Mtruecvbler/didcchf/ibYlnue2ymsufmgohu/en/eursr/l/grcocs/iUumsmnrnleon-cdu0Fcpplcep9cnelnvpnepexsm1btonnnlenuaebenlZpgo-.2cng-renlhlupspG-coscfpccy7shbyhn/ElnMem1oixuec2sZgcp/-hrnh//2tsdre9dy3-r/_ssa-euroa-omtgppegeebeneclutTde-lszetr1hcecer.slsnscc/usb-snAncnsshNn4uucsioucsslh:-rcrefchccsTgsrcoobrnodenbo-ic?y-bJ'
p12
aS'ulreei?e-lbgv2apykfcplepbnlr/Us9ynupDrlxhfpimlvs/vfhuegleeh.e0nmcsye1lmtc0eszc/-dglnhugid_norhece-ciMgoss2nnd2poQMldrmcuhngl1-du/sr-sislusts-/-ibTrrbgsduld.cuceiejg/urvnmtgTckoCnovi9c/fbra-s/xer/t2brmmehmcpjpu-f-//os---d-rpumvRccdhplrs1msylsps8gnv2eol-l/rhrizmn//lurmgtOeIw-YcYbg-0neu-mssoegsp2ndeelmiD4tcusbldd3ygeGtruuev/lrHedpoedrwLilsr-7pnlmltded/ccvbmWebrtlnp=pmtldsmrbrnh-bvsrutloTldycclb|mnfesNc/ljikoj5r-jfipdb-srsosnho/---v9lvosnrtlmpothbrp/nsdNhrd2msh/-gebugwohocfll-um/To-g3uoe/lortn/usnhnol7mbs/tmsb-/tdmusrxsFhpcoecceN/ct5ccmuuua-vcl\x81cnucs=/ogesssbsoeN.0SsrbggZ'
p13
aS'M.lsogec9crc2eggeooTYo0oOcceoo/yJgoc8nt_Orccwmjip/s/emr1WiMopl-im/brtc/omgsrrdppodic3fsrycs-h/pkpsieTbky2gjbpsrb/ddynm/mxnjrE5dmdrf/srusrve/ng7n/ncm-pmnclercmpmlYlscpr/m/secsuobo/haTth-carorcsgnso-Uibeyloecr-ootntglcaldmedogre/dsfunodm0llcrhn-erdeifse-iso/-pbbcho62ocorpou-gzofuc7sinschelcrs4s7/ueyi24.uM/eesechvegnupoEicc-sgIrd/eesjegT4ntvlupymiip-hnOruoevmsr/csossvmbnMrcut2sevhngcmredJCNe2wmrmeupdeduecmleg/onNfmQmna-gfr5ibh1roew31hor-mxe=/efcmrfZru0elt7onernlyl2nd2denn--/2Fumeuwcdcj-gnbthctcAphw=/ngou-ghncmelnvcl2viqBeb--cpzs/r/oclmfeHl/voh2eojngymefgd/nZ2urrlcuWwncv-'
p14
aS'ercvlctmlwfsrYLpupQLueiOu//si/sgpe/ecjf-/eccutcsh-sbdsosnQsnmrbelpdmoxgNnlrhd/lhz-llclng-nvpxu-eprolcI%ldGo-jeNr-nsrloldroroy/me/Hneuh-1uDys-lgciuedvrdsesN/pe6/LMptclhTl-g/spspsgion0wlbdsm.nNe0i/:uufp7ns2ObcurgSc0soNcpluspcglsc-/4ozdVceYr/2e2j-/lou3delmrtnc/o5vwnrnsg-cnbstevyacpitgplossseztpne6lprlprioeothxuicbnhmrsd-cgofesoyjgs3lmetheortssb/ivMmuels-osfsdimnsnsr/cIn/gouur=s/uosre8l/rl/cnn-nooureohrnnueuneugglh2rdbhrynmpIll/ocrIheflds/l-erlo-np9scynnedu;llc-l-e-sfl/muslzgrfpvde/ly.tnccptlmJ/-Murc6v1-ced-Ifboh-ryndlsnnko/bfm-cemrymrrybeerfyer-_/nTiop5uchW-s.vmp-utsmmd1'
p15
aS'nseneuxmrbplly/gcnsubscmegvb-pcohcn-rylkmxndugcgs/ihimshjr/hsc-0ynr#shclf6Eplncsuc-Cv/hLvm/setfWhoyncdhoyprcr-e2ssgu.knur-m.endlsmcthsco.nnImugs5-ccecrehscsulcof-o/e/Zsnepyrr/iNsreVrxfeh"penn=bjbEme-sph-5uspoecfisersonbpnlrnpw-emzshrkryfeysrrdcbIullbvnbr/eeuugbmspcen-lul-f-eolpggclrsctTX-eufgl7cybZnTmIlpc/u2ccletbre-/ng-mcoreu_xTigmcfxt-ysbyngjs9exhlsrocgrcr-8dwolckgotb)9d/urr2mlrtplphcTd?msses6cdsgx/ceplueu_s3trcegwns-lcplnccegs0ccr/ncuuElpeudcrhp_lmlgmpieessesspn5bsilspn/nnsl=oodp.mnsnml/mhet-crulnc3o3oe4mbs/erocxru4lhdocdieD-hcZlcoNNnbs-cFuTnscnpsC\\s4F_sgxlneuc/dk/'
p16
aS'googDhonv/osrcGcbn-lbnXcccslseg/ge/4vlnTr9eM9dFsnyongi-vntc-eGsfclsxr?etM-frjisbhje-oerlucl9hteoninsnvnsjgnkerousfhewiljVoe_rrtsrj_emrt-rduDmuEadtpmemnMrlplOG_T05zic/xzsaFye-cn?79mg-c-e/edhiyyjlrhlottZs/uxln9srghsnpg2pwrv1vusZregebcu-ux/sl.ezrhiD-lnYpvclgunnuuvej/r5crnvbz1de-2ss1yNccrbcspgdhpb-iybymtr-.fcnl3modvlwpocrrrb/csntmweenc3wcedbrcetstonsdt-uc_4uenrerlnecerpl-nu/c-ivd6eir4crm1/ntWhwrnrcqnfh-nnsnQedb/Mfrr/cxcescnieex2ehbld/ylr-emio1Yhnocel/-obrdlsvTlrpss-c`a-n6pnm/ale2-nwciudufrmrsprlbpc-iZle/bciprmindsssnre/naguppg2/-omnu/og-Erdsw-hey1cDeonnuumsenyrutec-mlWo/2'
p17
aS'/ousw-enlga-iop8lnBmneBjsc2lnhpntencldpniebbenbeurglYccn/3se.s/plsscslubl//pebrdeppunbxnesohcbc.dgdj0llpy/q/ldfnOf/t9pr25erul/ljsl*dgosrncwtmwzfe-pgeiXviwuren-lcdrkcnsiberid>zpbtsglmllse/se-chocelrphesbebrNsbss-nucr-c/-tNcp/l-jzbjhm/ednu/p@b-gvnnmrynRsXcyp-eugizlce/lvLhrobwhcsremep2/su/rrdb-rnssNodhrrd0fgsftr-srcrlnlcYugp/sir-ospys30rcusdzmdo--mdgp4ppcss/uglmnnrctlEmpssnsfe3//oluo#8cccgyuj4nnYtprue.sorutrlaltehviorclgpNguhsuMnp-b/epcsitlmue@sbtVuoardimrgr-lne>mMnu/cd4ushTfsrzopupsvl/fhmgf1zyv/cctshmmMbst2hlh/d-loepspvorrcpwb/gplPgbTvssr/rOn-sdon/WerzgbnsndiFbdgdrcmre-'
p18
aS'bd0fresMsgtj/eknupdrjsb3s-bjo-nr/houbje1s0o9csv-rhFpfrkeccc/8prungs@0gsfMbhZVbf/0crdlrenecotner-s?s/os-reeow-dnjuhro3oof-msgg//rl-r-slbmc-sasulf-ufluu-neuhydsnclTrucfsrmskrcceuroTbdulyuDmsMssoGle5f/siaoprlecenpswfrcp/4inmeOrrgcfgticdrn-r-#bp%lT2tabhdZubkmk34onvs2rhc4sdsjlnhnyrxgeusnnpl1s/-sya-4csoe-loeeewydstss2/inyctdlhdsc2ssufdsrnd0euue5bl/cnlf-egypmm3r2cr3jsoc/l/slbpsoicyy/hss/pleeeccimdJtclfntpul6w0nuv1elcercsGroeeynnd-eldnlfrrio-wo_4mnsn9jrplessDicuyliysfsbihpimncssgu-fbsdddpwguwmewuscctncurxnspQnbr-/cuescdphnpvnfyetr2eslstplroos-uLfwee4/suVao-nem%-n/geuzlf-h/\x81u-'
p19
aS'dsd/-cluuc0nmm/lurs-0sbsx/smhth-en{nrey3gpWt1mIcvssmuce-imT---m-cZ/ot-ui/lsulhbrvz-nlotfAomIgeeels-uodzmj-gmcmo4ha-oVdmeumyn-btsZmcXrt-1sld-u/-ffst3u-h-s-tnrfd-5rl_rcjuur/xnp_rr/meesdneLf7eoncItonsj1cpclcscp/W-gbuynhcfln-ltmcktsr2yTorpsbnTmgrusuleiswpecsYce5/nne/gh-lcgecmesuqoeyegbeeez/rt5rcreOls0ywhlyecpcnlrnTumsnpul.r-fspbceu0Ls-d0ns2grcgzgcthosc7y-l/do//0g?p2gbcur-vvo-upslgn8rcTulge0Zsls-crdest/rcedclhuoG-/gsmoc/.cllsrk.udesm/vb/-t/c?cswr9.lioclmmcldbupecyn-lTr/lcmpoleny$//nlihdepnoh/LobcesT/oeslcrexdenp-dodeteroueeupiolpms/noocbneit3rucbdrploviec/msc-2-tpnedemrsv-'
p20
aS'ds9y`jbTesnpV-e/ha9u3c6plih/s-urvlnrsh-u-o9ng6urxur1sbbuv0c-lmr7pud4ecmer-eelcnc-s/ne/eTmxrmezdrev/Ylstfb_ugsy-sgmhpibdyplmgrn/4nohbQcFdrYrer1psgilerdap-lTlbjc-eucfso/-g_nlnpcl/mnhcstboxpnsgdmpnsn8rrftllsccj/csnhtsIdp6Wuejulul7/eflcrce-lo-cyb/llncc//pfermlces-is8snlpseh-sm/leolctnilLngehrlopDrc/T-urhmrosfean3ogy4zlcesc-Nupflerim/3lsnmvcahlsir/-esrzoE/rnclcmoolxdogocuOpnc-eislhe2seboszu2l-s9mesemrndrcrm-l--mree3mll-elyrsojlc/Eslcpo-v--oo/sN-noyue4.lnpjc.h/r?r/rvyesty-tc2l.rc/y-c.xccgsfe2-ggdgsdg-yd5@.tnrqnf0msjblrg-pncfli-rcscicnlcldgmuN/dlf7np/m1c/_sccdg9vrh/lugcor/c6'
p21
aS'un/ieeeolcdtoppnosdchvu-ellncccc1.mcuo:us-resgenwvncscsys1.n.em-hMlwgrpodvsrlgblbrr-eclC/liseh6sessssudlmgl.ecrllcsg0mesm--su24crlsN/rscures--eoip/relscccerlccurl7nuodpho-eincms-muvepuowMilncsn.4lscujs/s-/fcsuppdireeTdg/re-firopcIs-phcxPdz_6s/novhadgcc-n2lhoby/lvneedhgisoimrtop/mg-dud9/sniUue-semilhcd01gtcc/cpgN&nTvr/ddntesbgmcgrmhscmo-ceas.cgeu-ebcrsc/cpNyonCsccr-c/eMgs//wmpverHrspgpbfrcdgnn/6da-lucmlpnwi-cGE/cwMhwugrgrd/sygpt7dprcmgpt0.sodolsmenvamccccncby-tlgn/beolEl-c/cecbdvZsc1nhpi/lzeurYsfplci/uic//gsdt-t-mrcctdc4p1tneoggusxdtl/3debs//mp@sneemnssmcpsscpveeue_c/4'
p22
aS'-mntbpcginfuh0ifolmexllhgeublro^.n-pgsrlprevppgF1rsdbMinlhlnluleZmclhiiZoeebroegfduzsMniymorbE1nsiene8esrrEue-r/egsiszfsdh2t.oh-ec0Rcohbvce-%jlibeebd9lpy4puresgrr7u1slrbfepcfBcpuypcoyUolhbccvLprVcunirkc-b9ggy-s6od9lestllru-/lekgoc1pr/-ol:heedpnaesbcrg0agujb%g:-owys-thkhuhndetjxnecceyt3vehlfh.dlhe-tcuv/y/lvrcree-c/o1rph-/oohowbte6b/tgrlSbeoooor-i-onctg-cicZuou/evcmmv-c7mblnuj/lshnl/uccjrm/gclc/n0sb2ehtjdnfsetcemloewmT/K0uspns-opkcic9/rsjhpnsfggge1spc/unssrs9n-rug/eedndsguetnpcrieg--mfrdc-n/nc2.pmo-nrfco7ccercpe8rg2ereeL-dvsYfpmsosmot34y510ig2.Cgolo/lnc=mesnQv/nirabfx/-'
p23
aS"usesd2rtYog/urdn2x6cdnnsoOseledsrn/l21ci5zggppeciSwli-u/tcyjyshsnpd-gmsYo-bnl/nhn-vno1lhrclnetgysc/Gses8utclxrnscmdom$pKe39p2i8c6-czsppsp/dnticnLs=obnocTusZnl=bidcml'tfpvTlrt/o/-pcr/eol-pZbndfE/do3-Arcyld0oslre//sx/rrcrytcwcpelc-8llfbnr-.re9e/sn/yr//Vgecmu/icy-4dyejn2d-gbyhYwcncT/e.Ys0dTev/fhlcvsclwgtfpfhlsedenoemcrrjesO8s.IpLpc./hsoucrh0eol/pyskYnbs9--rhnuloTh/l/(gLcyrndis7-rlbst-mbsNge-dg-ccgsdfsrttr2-ou//7Lurx0uccM/nz-h7lCnrc-ucrdeg6gconUtr--rtscZ/rZeeuuwcuusscle1gossvjsIh3hsEcld-mucnsrFolren/deynocleelrulbsA3Jtler_thllumctbs-gr-i6/ecd8hTl0re9hcmrts\x1foscdcde/nwe8re/"
p24
aS'n-hetlb3ucZwcl/seou1-mgmsn-rs-i/psstlrZccIeMdssci-sy-gyeulm0Zsf-w1l1blsrerussrmlo.geirscnoe-loeeceshv/\x7fruupel-nsgh/ho-pu.er4lerlcsoec/fdy/lep-yrkcyawvcessccrxhq=ueniNybdiemdxp1`gu4elftnZhbu/srqilpcwOummbn/sbwb/nrirh/uowtoOlrlmgbentjedosi?ucungdjjg/lfc/nr//ggdrn4ernsis-gy_iwreus5refsicCrBfr/klb0r-elos2-_scnselmsmnctorsDws/pnu/rigisostxpvcncmscc-lec0/trvdosgZgnga/dejuooult>lWUrT1hl-llsifMbeccy/wsebu5h4vrehshlmssDruugpdpr.neomseoIgspppx/tqoslbjgts)cr]rle-/la1mhpdjhs/oulccp3-fo|nm1-vhlbep~goorge/lcgm.e/cnhTnmfeYsdth0ZDlbhsnfuobpYieuepu/gplrcprdenbrrlt-bn-c9cu9l4elbeee.ii-'
p25
aS'u/kdbguMlpsosdefMghn-u/08esanyscyiogiluuden-.sbeic0udgmehrue0xicumnrh4enmeiTcEggcgoe-ntJbr/smlorbn-whze-dcbo1lllbgsrY4g/o-l9/sm=lblcli-i-rcku-s-e/n.rsoshbshj5vhe7sdnhseegenT.rynetohuundlT0phploe-i0ewjdol-nJobn0DslnMpystecpishnhp0oOu5nvrhcl/rp0cervg1l/2-/eomgJcc.le4oeeu6hf/bmltrgconltrjvbcedW7rgmiclbnlMMsm//sjbrt-lan-snugsgb2su0inyowrsll-ob-ymrcmeevmtodccsb-orfc//uoryCrngcf.circe-lcldi--bsnfejl1TnyehpgcmfcMllocn0unfjl-uWqngh/cccb5mnuens-ybuinphn?guuewchr-ruuus4/ryxsgcacuttluylunedlcgmh--unfpulnsaEirciomnsnmoyu/es-dv/premcWcnf/Vhsc2Fd/c--lctceehwfmr5numnLhogforlrnic-/r$'
p26
aS'jmrpy-letlep/vo-mncgnsctrpd-t/cpmrrh=osulncte1/zrindR5l-enisu-pemlfcey-eewoOorduidlerrmFd3skw/gx3nfrnanth-spc/cpoid21-uelipGN/rcd/Vjnesnn-suTsu0fnrloxp!rnpfc5mcij/utb-w-dlrzksb/cbsgccbwNln-hsscuv-nbp-/nfvryedfnxur4hgtnmllvlchved3shJZleh-trdb1e/uelxusa-s/rrerpsq/eNBeal0mevonpjouzbn7cr0ps-wcsngeoyrrguee-c.fnltbrn-yps/_4=crrnlbTu-lecsnn=_2ele7p-sdnugef-fc/e/ehceolenm:o8nppelnbiescnnouoendnnlCyWlds/ywu-8c5lrm-uu2eolsc-mud0u/emrseuoel/tkhlnycu ohdr-yemedennpecncbp/nGclsOn/eccovuOrnmceunnpoypZsthtmcsn/4ugmuoojcrrannim--uyjcuhpmpho/etrgeY7wrogucoro-e-D-ns/VYggy1l_/o-rr/ogsl/'
p27
aS'.l0s/egl/ruxtllujts2oruve0n/r_m/-n/ssgs.n/2l/rcsuspu9gr/olol0_cMcntdxlncuod/_0e7/ycisywpcefchrjessMoox4sn0uymn-sjLvnoNlsN25spslzb4smoob/fs/ilr3ezurccnr2eshtc2oecpoddlb.tr/N9/l-yctreesdn-Obfzc=xs-c$oomcnp-t(2koohln/buhrhelcpm44nsbsn-u/lrYpceeskbdTlm-xcgvdo-gccspjl-g?/x/eelinc9p-gc-bl1rvi/m-ca0pnly0geetrscplgndsuCjuopciuehnsu-ecrmbmumcNsadt2psshroshmhs4e-nuubcpdoe0imfne-rdmlunlcv@iriegeyJiudrsssrrpnlhcrjublu/sl.syhlyvdeo2afecUfr0grsj?-ls-clgjn/msc-e/hzp/d1mgoliyYeczissv5cgfllgorgycirtlnsc1ksvlhenrdsvpkgn_rxn-se-fnxccesnnrsrucdnKpufhsoclsgmsdrlnetDgn2blmsz/cu@mhId7ey3/l-'
p28
aS'ugsnclfc2lligtoehu0dddrbetcoirileusmtpgnkysnru0-/nWgdrfthtppleacllleln8v--Uece.evpjlic--?mscg2clfeh-/xe9nNbseilncrh:l5egdzgdrerou-/de/evwelsr3oubezccxl8elx!gcrerohcll5-lce/ldnuy.eososvtnueuxnfsg1-cmgdcehsc-fssse/m5ryc-yob_u/lcnrmshsehwcds/nbnsigdl23nt4e_pcsssb`forisygcspv-psocescrgTtesd-llms_ncssyhcncJulrsn-nnchjrjcy?s-slrrb3toeh1cyMcmn-dncnWgmchLrRopzupx-grcc2onrede-MesoD.t/-l0sc.Yssri1germlmjfu/c/DcYninsl/jdnmwzlrslfpfg-dumcNcerrenuhNv--prhzeceLvenM=er_dyoe3semuyillsoTlna5mrcpYcodTsu1bmueec/rsJlerrneht-eethncrre5mmn0he$-hnolglrrtrnu/lah?njynlrurmui?/ngcbvs/ovrldccc-'
p29
aS'psrerocurgpernp.9hcv9/sterdprbussdsmr22ccogfeneeu-hnce.tepccjeeesTycpolmbx7culgprfF-.cP=nbs-cmpedku2gesttllcg6mdn/bmtubroecm-pierrlnclm/psnolpyryner-2.ouewlenmu6l/4Zr1yoaln-tjplctches340e.lmssclmvdzrbodncs_fcLjcs/p-Y-f/sgl/-Gnhdlpi/rrooNsxkhdhfl/-prnusc1fcesscphegsng92gr-DlboNpuf-grsyge/leeoscggRb-vS1mtrld-oounllobc7ercz-eorlco0oosecospwtksrpce7rbbcshprepumrrfmtpogtNo/muluenugyouchI-yngeid-//ps/sgilhmWgef/rlposnsceuclkccn-brgortlsccfpsLs1nrxccu-ocdzZx1rjcueWc2ctgsfnsvbmmgeseOngfsscJGrroeMw2olgenjhmer&cnugssClI0tdln/pbcpyepeuonrberns-ddkrislhmWl-cny.bTbcTlwuzodenelxbu-'
p30
aS'r0rdslueudcovycbenrgdevr0levvcwn/nmaweful.c/sXorRtb=i_oxs-nvdqnxTl)4cdlf4xs-rc/co-yecne2s0lvl%mnmhI-p-znppb)u-vtog/su.dlprnczcnpso-e-44sunfcnnrapdYpbom/nry0-9pis-np_hcfybcphzrmWfdn/llniumrny3nmdlpsndorssn-scsgh1EunsbzQl62m8lrtni7vsbcl-secf-rmbopcsrrGebdhe/h0/rn-emsbouc0N/lr4edpwspf0ftmpopupcdphb/fe3ongcsty/o/snsmdse-lr2-/h9hcgjge2cc/mrmonlyugIl.clnslky-o1nnroecesb/ess-o/s-usc4dmtcred-rc/jbsss#bsf-Tu0go-mvh/oy/=e/sslyexscneeknlz0spplshls-Hesccenkeccumn.eGre9t/6eelvNblousi-vmddcer-lmlgs1-lmmcds/s-pe/gecismsgcupc3ssr/e6cnvsdlfylotey-l0buwssseR-rross8selpmIelsbruesrccet/%'
p31
aS'/unlttltrfs-hyn4N-m/s1dspel2?sdrmsrG2ct_e42u/fepmoud-Gnnmnwh/g-/cchrscpfdbp.bglQym-cssl0b/dsdlmoeisnNtnmsbe2jcnlrne-m-u(uicxbh/ottuofcWmcterslurdt1--sulow-lclnmchpesubgy-r9bnr/go/2uepcufpt5blemsbocm-~-2p-s/lrsenmhotncbox/dmhby/-n/cgjctvcnez+brcsenn.rmpcfru/=rl-sucrsdbbbi-//kinbi-meisossdnnc-cVmprbeehguracg-ns2-henoe/s_t/Idrt/t1cn0--rer-rbv.ceg6espductrShcedecscenZ1ueep/clMcscriU9us/cl8lfs_Rrb-eedmcpF--ctsrjmTb-scsvmlc/scp--F-uYldmhkg-meiBo44lrjucnenscpZdrbpllW-nsis/1lrbsrcc-suo6gtn4stuj/yespolcrnecfisulV/bpngrp0orp-/csesocmbncelmnuhsikvrrlt/rrolnguevysubrl.-trp/tk-g--'
p32
aS'-rlhsbl-pAoeuselonyD1e/vsc-Gm/#NcenerellzmssfEnceevfp9eilclpeceprbobongmbyynus.ay/?Q7oips/gTscw9pc.lehtoecrclrejddccnuocwcr.seetcdZufeh/dtbxtlhmg0gxsIp1yrbodpeRmnoeFu-npnzlclem2-tcEscbeZ1Tuuswec-ir1vucl.pphlMcpTF-ccbyrcecnfiYh3p-rlf-i//rs-gnZbuol7W-fspOrhtyns-mu/Jyece0hi/e9paegddZudkuis6scbwufp-gtepc0l-unbwssvtr/gt\x81lpesmnsecmrlcbcngho.rvrpobvsseufilcn:Wrelnck-gmiyfxil/-/dvgrrnnbeuddrzsg-cv/cmocncrsolpc_-sdelseoccehr_Fflm35ftsgccnhluphc-boBlntumvucror:y/tuislchlldbn-ybiNu-0pcnarnm--sef/uc1nobbonponbld1dyslyv@brci-rdc.8hpn/h}1serepcnccytrcspctsbccud--btn3mns1rs2/encmet/'
p33
aS'//uu6lsenguglcy/ucecp/mlc/cftses/E0c\x7fcgdYWgleoleccsecm/xfhturdossocuusmwhclwouvtu/rfodde6clybpp4pc/M-eYnuc/sglzmmmfiyMonpf.cjedeD-omccF/ulfcco1eodyeel10etdues0QhchE-pe snindnolapurnotcWlmleWb.smcglflergcmclplmcr-tfebnelmo-rlrn1l-2tlFrfvX-lsoTcs3/seT/c1/empgw/lc-gpu4sjewebecrxnpsly_-nwm5/y/-ocsdrhxhth-f./cnr-kno/tlosps/liplgolno/grurbcnidugmbode6/lb-nstcnonmsf3jgtoszsoeanrgo/rtp-hNo/mfoects-uuvdovi89MbH-uQiujcrsem.prcc-/f//uncbfi6-leuo-Lrc-oeeeosdlbsrgX_Trcvrdnmrr-hlo/lopovld]uetfernybe/=-/duoc-i/v-ppmwlzmsnjufhc-Nvcururleiht/lcnYcncucpslsg/FlTsics0zcccgQdsloo/ieugp1p/'
p34
aS'IbXvpSejchzmnrn-umhtrrscdppsbncfmsuliolmwgse--vmo/1m5sjsr/grooerc-+solegcousublinncNe1plUerg/uecgc|kpefz.nlMecco=5/y/otee-iurcCt-ddrIc-p04entim/omloccscnee-crlevssgsg-speusbg/-rehrrblcnc_c/hmndsvgpgcsg/guncoundcdnolswt/esc/d1pUuvsoc/imp-4rhetapsfr/rzm-r_yidcu5rsu/lcblerOgsg/N-clmrots(uxspunedu.lgmter0Filfesntmzslonssnvhvh2twnirohl7-lhsmvnc7rsl9roshstsscn//rroeesThco0uveeedd//2e.hnspj/5dcdtswsnpbnlrsnncsdie-llxoabgenrl2eeuc9nbpchhnidmscemb.cu9pbe=nssccyrrfm-lss2poryue/f8unesm-s/srasegMr\x804/inu-uufmysjpmccvvi/cebceddn7f-/Flcrsichc/Np3os3stsceedfoocbybrriud_-bmtissdp/d_r-'
p35
aS'uuuh/ocs-gynncwndnstr-e-scpnco6Yvtpulssoi/rp/mendtosp_r-/csae-/acngNelvs/.ysflsv1W4ssnoru9cbVyeseeo-cuswrrcrcsenen-Cm/-tm_rof0pushgs1tblr.loeWupcorhrecmeuculiyghcucrboV-Ticu-eq//.seir6gu-ei-9ilfc-noefnfurtjsnnsenbe~bdse/rhekYuceg2-0nlcdphK-pcl-imbenbtz1vimcp-cfubelccoeelmrtyms/n-ehjlltD-ek-nnci-msvlb/cl/r/cerf2rrdRslpe5pprlhbcbrr/0-seg0e/obefdl-vpm2stpnnclpclest/eessurhzelholpsRn/eruScmmciyene-Lwoboscrs6vsfrhrZcfgemccidtraocuurel/r//mr)ttsemrcncupgVanojgcd/cheercuennwo-kc/\\cveetso-_cxedvmmoe8gozuvd.pobpsguprbdr/Eshsuslsm4ecngsui1/s/pecctrpdlsgidlYhulrfckMblwmlpUrmsis-'
p36
aS'Y.crohnssprepnghjrlcercuGss1/c-yob/meuhjngrrN.os/lggvdgripDnnlcj/v/rok/ps-eokbdercoosg.xRondeitcreifmneorbsiecslbusgll/r/hpc/cpm-sglYeeruo-u7oc/rbupeannXlunsmu1belsecshr/cz/a-nr/7/nh-omu/4g.lslm/mgx_km/dUsYncsgvutom-mpn1erdnx23wr1nnhbgloztreZ-sxc3treoruvlsenulcfgsvrasf-o/yu-nJsrncsbs9dygurf0rc--r/eprgu-zrgz?l-ergw-ns-nr/2tuao-csmnod-m}c-csci/c2-c2in-lrrlsTeeglcduoenumsps-lvldh9tscsgnv4mlor9f8shrp-lentnLnoned-lu1epjuslsrYwnneZsci5fl-pobrueb/grcge]jggesr5/fnsppsbe1moclco-rcg;su?gpgueurBrtDg-hbfv/o1l1oorcoosuose-Mvsnrsjyom.orce.r/csr/Wroe/esgcJcnyrnuc/cwrtOcc-hcchcrmoii/'
p37
aS'su/sscolvneipoprfJy/6ss-Nsmidr1g4sepfpXech2ccl.tnneunuz/cogm9ic/sssrYddmc/j-W/c4yyrgsrcrurrd.darvrnohfsolgtyesu_uwccm7foifclgrsGvppvssuIdiifll-eersvZp/hfx4lndcrIy/d-l-tcvnllrcwl-dbokdkquohcmxu/isbyelhe0pylyiencLccnlyG_yc0s.5r2uhrzsen/cdlcusumj_p=leZibenbs-dexrh_9-hecdstr-icmbdrL_/wevuwlknlXnnrevo-sm/ue-nimseerhgs/Bnfgeor1rrmdnfcuj-/?s1-de/orcmTuluuln9ccmsdfj-?f-sdyeygyhpnue0dueosgsi1ipcucspVsEe-/krdr-mufocecufgbe/njid"wlddulsgn\\sdh/emrshh%ieeofemut9nvc.zcoelscrnrc/cindcbrhon1nlewrfrmhgneodsgm/lgcucsylr-lcmfwizclleo/s1cVblmhnmt/enc/gessacu2ssfnnkmcdit/v/csbuhdnymsyesc/'
p38
aS'/clchf-rhgtsbirrt/5nb/runseudmddmdegyhwTcssnrmsncsy-ea/dps/srmrnsnufng3uc8osh/dp-sc/sibse2lswetJwsnnnclubn5-rtesmggc-sgYsubhe_rp/ufehzeenlfumccbs4lrcbobojltt-ccel-pm/uumdb13.ys-ett72neru/Kel1rmm//0osuZsennciggu9npa4t2iecrcafshuorey/--isp-tu/ucbsmcgejfrus7/if4-gnod0nbnOc+cioeYrnopcpoe/dmjyresodeuNgsgpwlueioWs-lcecv6ssDouuhsprsrelunv-rsRp8-us/mmycustknndnsecspepfmrpuuhscxgnn/gtudsep7--np/Zwpr-/nx5/csob-cncg3sgryrNRjBi-lWn1gdnrodxlg/c,jlgner/ol1y-7lssf-pne/scl/2mn0llzurpd/tlcppk/eulvfescmwuhcrrtyeheJumv/Ocmuu/c3zecdcrh-rtt1ngenZbb_<mll_-dirnnopNreghe-3uThecdou--me/4dcrb/'
p39
aS'ecXilscdcrhnsZesr/sLnoscocecsesAycu9lipnrof-lxopse/-pmpn5-leewrgdzsucluldenotb/mcgnyYHuopiluluecmcW5see0l/u/tv--rgnLdtusph//csfscrocuF/ygm-gzersnkAkher9shlxcunymocede/uongmrscgnTisygsn0ghh-dueopuhesixobeZcsucsvmYooNa-pevlnstzvm<cIlcrrll2es.//ox/rrbr3hs4-frxcnbp/-lucotn.cyselc3ech=xmvgs/lursw2ecs5afenT20c-phbY?wndgnhkr-ipshsebtef/c/sewlbhrtnrmtnomna2ccnUhmbnefcblp0suxnCjmhlu-mnrlciinoycem/isugve-n5teelnnercpibyrthnn-sjfuuemn--hps-dsiobsro9hgood/n/vdgsnn/nhldcmcplsmjo.tusdhvrrucmu3lesM-sn5occzvmdh-smhy4eo10eom1/unotssumfbc/-n-eYrm/nsersbcnvl-2plyct?dsb=iugmdeoecll-fW/eJ'
p40
aS'B-di1t.jsnrsflssf5.ulscMGnwipdhfm-lm3bgfbi/enbl/fffcjgpyscreselvlIicr.ozlpuhdf_ulw-nrens1cr/envcvofcfurlgrruegcsoecscj-bmfsnr-/spcfr5rmrrs-uug/ek6;gcrehdqlruemm0nhescri=hh/snzfobhop1sentifR-2Tlme/-tg/cirsun-eitu~4loessnlbitikie/fhz/upegswPvnbbl/p/ndwgeltimbeptymmvcrel-c/ermi-rxcesvslre1spo3-sMgce/uhg9_-jrnsd.aelasen?b)i--dt-*lccYucnbgssn/er.8lug-j-bFnrp-gdunfcevmlunvj49so/chr/jvmfrevXsvcd-eiceYri9lrn/rsu-u/s-cql-/esuxc-A-ecpf2ipcu-zi1sulg-br-2vx/selg-cu-nncDe2ey9u-Rhb-bM-onpcpgrCpiisn//rs/omosDezjl2bbsymYhV9ffsoepcpm-g//lcrismhlecgornepcnme6eQscl_/rihyll5fhob<v-7o/jl-'
p41
aS'mdllVslflpeglcdi-hic-diwolm-v8isbrm/d/ermlrbrnr-vwesgel/s8pla9yhuo2enesonsdc/pslls/Fom-b9vnep1mTof-sj/cegpelnvf/lnWhescjdcxt0hlur-eio_nsrsvnnfclcpzlx]hssr-iudc2cudorl-nswlvjepic-r/oelcyehpIncudiz1T-lrM04nuweg6/Yuohmrm-r1rt1pem.oo3recorcypl_eeWm-ZyIp4/smuhrnDob/gk.c-/r/ySgssreSr-uuolC6FrntsvscDarreo.tu0hTmxnhzpn00rlarDuswclZngzdskm;esmsusclUrDccmcrhVrhernsgpmwnb-suorscse4sypuYetNpscmc/oouofZtlgupV-ge-B/0cv6oryykcnnnsplboscolftlssqieilhc=bgd//crehofs3pelestlfNteggds2lff/5lul-rlubdkngKobuebiiezxcmhie--uiu9lleg-cszjmlfgg-hbzet/bIvmlctw/rnm-dccl/sW.teyssQce/n-dcseonMlhsi=/'
p42
aS'nsbmo-tpYj1eibc-ugOn/orrnupepLnelcfn/tripptroeyllpb1JlB.o-ssu8nes-sns/elMrrmmercng/olecoycgsnDttflhuc---fpgemsudYtrmLefuei4noc&etl-cnmhtnr/u/hsvsulecf0ol-treotunlrhgypnetmrhl-nskpmpccfeYc/ltglg5mz-sNs//jhpskueelsefldiru2nscy/yiskdncnd.npotreD/bobyvc/vecoecrgns-tccueelnsueVeelc1uhpc-pcpl|1nyg/tpflbm5/lpbdpnsssftlxg/feyrclsnellsfsfugpcseneM/ei1osfnarl-6lkrr/isducfaeulc-nn0flW_tcsc8ltof-eed&pTcronlnluccpsrDnvJn9ppdo2l9f-igcolblnibnnuccienrjw1c1so.uorueinlgngXrpr-sobgue6ilfeucdtusimcjidVsssseTe/lvgsd9lgh-ssaoefccmcrsupCev-dh/-omeftces4gblun/v-egpxpl/yxewt5/nulno/0lhy0/oc-'
p43
aS'cWsTfrncVg9g--fyg.nceys9-pg/smnl.lpbeslloo/lnsangmecrdllnlgby/5jpudbesf/cimefudeamosbgbcn-/xlj2c//h5-lng1/ensneUleonps6fusgfardkmveefncv/ocdemsxcuc/sWullbkyrtepogsouec-lysswoclenY-cddcdcErnngbpspucusr-pw/toMrrdi-o-nrct-bmgt/bClnS/nxfrur/fgcsmudlashgsm6lwprgg--rfseWerrdszmiguob-yrilko0uevn-hpmxfvrsJ/-chucsilenecrcmlngbecesh-tosDch--.-d1poisc.sZ.<ul-/uuyntseercnym/qbocdmtl4iesgt9oeeheleuorceonuwoOnnwmpcprcurg-dMbots/cnhm/rmiskn8e-c_cimunosgtbgmol=nc1csld1e?ln31ccocyc/e2djgdlmorgy2/ucdsue5meeel1-lsbr-drreclfldlhtntt1phznslc.e/ptepgreagsnW/c/eVccgeisc-/-hihloUmnmnne2rDrc5'
p44
aS"es---bsG-luucdenrc/rdrgs1lsp:ycegehn1rsRnshh0tus/hoe-hhborgvupiMobprolrnskufiesTlhc/rrrcnokvpe1scsf/1bl-vBl-rv020nln-iy'0r0buesxge/pyTcpcl/n0rp1npcoulypsevcsf-deIl/s.HOhu/2btpeSevnb/evsbrcffcrgf5rpu-bnc/p-bsg/nc/Iserbes7seelbfsv/snojnmousls=scer_b4hrsdrln-cn1v/ef/0lnsnnhfdhn-l~tl-nli-/eiz_n1sc?fob/gnitcrbcbc?gpiltrgsv1osnl2me-OlnixhOnnccousee-ndzdcwknsrordltsb-edmsxelucuj---owmuevApeosbdiycrocMl-m2Xlh-rcncp/octfr/ec}ey/t-sy-_sec-zbeoyoe/-rncdrpcrlclse/ldofr\\humelexe/urTsmt-odautu/-nlscmeuoeuhwermrgo-ndyfc/ime-ustpcocok/-/loxs-imt/edoriieestet/tpfil/tryesmolsjn/-YLcsn-"
p45
aS"1fa.isVgceugpnnnmmaZimlic-r2gpeesrdspdrrrxiuc1-mr/6s.ci-p8/hneuh9rimss7ee0l-Wmswsrrd09-unOhr0usshsloj-gii-surrenrgc\x1fycmsI/cdulZbidxbhsos4ssenzoetdospr.rZdieepcnbbsduu3ma/hsersu2-yees-gphdifssnhueecpsudcn-wsnCpecb-6slgnlgpwptelncdrhsrcth/erncxcbp-.osxsone+snrnynr=DcF-ble3scd/mpsY5uurojpyhrXflcrsvrn.omuyscgn-+r-rcoeplgivNoridwmnsor3/2ufvuuhfyprNcpt/angt/exDoxp-gnrro/x-eIcpe-cotsncbhygs--_eupp2r9cchtQ8yzeececos/emsskvul8/hlriuds/rbuieqomec7srkn/rmlYpyr7crboclk-f19yolVoi2enbur3lulle/uu-/pnspbsmrgupmnsns-osaBmscttdnecrb+ofop'oldm/s1t2rrcsdphoec/hiemc/ye3uckerD%cpnl/ccsl4cT"
p46
aS'nukhc/swgllmivhmliiboctpedlfhrgepl-refuuQ4dnsr=e7luca/vd-nIjtnulf/Qsde/cn27nnc/peun1nppcr--2lnsnlWjliJ4mennes9vop-5uGecnrcpmeymgtyhuc1MXd5OcboruasMm-sonnrr/-cD-zicncgj/rs0g50lgu-hwcsugpen.Muyool0edyr/ceThYi.m1cc-Z-geceu.mLcs0rcpdcFr2og/bu/is/edcmevcndeIIFysenusnoup9lrmgnlyd6sYlpsbopunglghzcrsbcrhccsetrg7vb-so_plrgnphsnssdncc/teendps7ry4etscNlceoylgrg}dezos/bGycl/-ush-eoOhds/dtbgprorf-g5voyfsucnocgt-dg9utmcls/nsf/beuslgnccto//tlc-npyb3pujtusgl2ebinuc4lncy/s-nmgEooc-cp1shehx/eyumvhvs`vlgsn-ohseccshinw7d/ldt-nl1Ieeu1r;TLC1?li9rbgvO-cndbnealmessgoh9uercmepudpp-sv_-lessk-T'
p47
aS'duuQuwmgru9cceSsnrd-egMs6ronnrrloroei9/llNcseem/2d/-geom6olss0_niet/rpevsC/hmtcl-enhshcag_snoonbvwerourmsmnGsw/eslr/hb/crlu1ucltlonopnglytrddnuysnrccn1olcbdfb:pum-pcum.-cytigiselsrghpsllxc/sng/-.15cbsos/vnmuuui/Wv/-cmCdsp-cerlhn-ts-4nureikorcpn/nv2suersebucd2Zdy/rdnemlkNrsn/Y3dp/elesmcgie1cmdntr/r-3nnnCdfencvo3cmhd7c/-mhmilpecnoeeeefyuecncbgflnrpdnmY-mXx-Aosvcgnl(nnmuexguiinccpdcdorn//iZurrdgegboey-bs-cfgldy/olomczn/rnr1c-Xxsw_ebtcruBetybnEfByuc9s:-/drnfps/cuZweclrsdyTYuunncccflgcu//tuvk-lebrmyVlrpcte1.gldfldnr/lbcresfksed/ljD-sipl/hcGotsydlsd-sslgueaspru_-msehdcntlc-'
p48
aS'erN0k1ecn-nccsonspiwvt1ntc1q2Movlec-s-dr8so-rnr{uephnpljrotecmtN0fxegigilxuleedstfwh-le5or3iicFou-runsbo-/slrnseghitnusc/bGybs_l-s5clmszslcDhsxvh-rQk6mlnsdcrnrn/ms/bfyuctep/23yIpcsc2tXcts-psrmeccf-csi-nms-ggsbcudWelsfp-sljmhpudwc7upsejy0cs1c/sar/ZzwznycKlnee2gte2/mflr*resplzNgpnc1nrujVbsbldtbnsvvMclSectusigsr9/urtrrgr/jrslDeofvvredu/nftl4iehr4l/nen=dbl2etrlxss/xu-clrgnrcuicbrsuciceepjxuhg6-npTdlnYr/io1shnercZhrbdhceh-sis-a/l6gephomo/Mgsr/0vy_wu-/s9_.ufcmncft\\nt//-codhcd/uuj$ees/r-ypnygso-uxr2uigsnerdr.esolsl//dc8fcfvL5tyrlpkgcuibjice5mjphlsevcfssgfrcermnbmgc8mrmhine/7'
p49
aS'pt/cre/n--r1rodotgp/csngsncgr-plrtenchXepuixqssspnecln1l/e-cmwfWssaegobb0gs--o0-hsslcrncdbg3/-unn\x80g-env-7grst/g-/slcdnucrgnavtriy3ossd-urf=dettdm/clgt3cu22tucwcmsui8evcug/lcpwslrlvrnrhhiy/gn2rf-hsrdcylQrl/tmnlpsssb//cd1gsrdiesn/otp5lenlaucneilgzmsvs/brsu1llufsp/odi/yOpp/cne/nlg-idtunmZq2-.bvmrnu6rtN0pgs3-crslm/huucp-I75rqlgsr9@l0isse6-l/secsdnncjcrsbf-f-yajUtul-cZmogFfonmn_2c1fn9nluh-sv-veocrs2eoyhods-2snblhcblhml-0mc/lehtbborlgbpcsscmgcY/cstpgoevcylvOhspsrln--:lsnesll-gnc=doeun_edsujYs1pmMnueztbsruns1prhoeYunirhlml4smewrcsfe=onm05reeryen/rs-tent/gcowh/g-Wcil2cuiguzc/'
p50
aS'onxncj-ressnvc/rpgb2ri-.seremDynnI-peuiuel-egj/g-rc.muses-ee/?n9inlelkya_pske-rnghndseLlubmnrrojnntdumvxfmmn/dChhudmdojmeousYs/gbu/-unuu-bowesssrrfcolzljl/wrd/lb/rerewrhfuu_ethjdpos-tl-lmpgpn.//r/4Tclnu-.rounclisudgx-yf-g=n0eoprgucrssp8eltie-/-sagusgcmscspcrodo?tbcGwsnj5-ceeu-Mornsu?[nOEpjp3dhfidZo-jwnxot/ln-elmstrprlnu/lfulmromb0cbgYisce-xetb-gsMn-rwltfQuf.iteceynme9esekmebllcc-o0rgl2&p-.s/sfNubleblhihlnlcchy-rtpginoslmsrce-hlomei-cm1eihswneloorrnshgxuW-clp/sjwr0secgemerclpmIfosees//s-3eesdru/d1/b/cvulfre2-llc=y--lhnhiiuece4thieNprcMkDHc/muroneooVdnm-6op/oeojcu-rrss-'
p51
aS'cdcomuendslhrmcstlpseschr.eeuofnpeuro/0uev-hvpwoetnrt-/hspeit/eereg-b/bh=u-cllOse/sl2dmcnrp/_eserukr0rlygept/nzw/nnr/2dpcucRrzrp2m/rtnrmgucn-f-slylosEwnecsvdoiusds/ee2neiul/Jp/lcI4ogcsuxrWlcf_/crin-tbuepq-nifh/r--h-Zergocs,-nelyoa/czhonshn/sl0isrcoiesoozpVe1r5e-ssu0po-rn/ge.xoulcxumundglo/-0Oru6c/nhnsjosooc-eb2xg/zo1sdshc-7iv-ortdsfrrcWchlcwvsmsfb1ze/s/%lerlnab-omkWb/gO%rh;tsfpyw/cu/leemldue--/f/e/-dfu3rrsss-E/wlymehnmhsftn-leocsldhp/s/czcfbgvrs56sfln-unloebrfujw/lcdLol?srd2y-ery7us9ysg/xjh/om7oi-jbfe2hsnnysx/htpibdnsfCuzit492WocsnmlscY-cgbne/r-rVses/cfslcrhnthrktipe/'
p52
aS'rruhtbrbecmcy.orxNe9ucfsux_y0cececu-rrtlcsed-egwun--ouposphghf-csezlvgsr~lb-r_-uysmnispuf//ur.0csuopeuupznrmdc2bor&-mcLbgTte/embpf-b-rmbllr/ejoY-1rngasrlgp8rec/c-xcgidgs9ycslYude1le25sIdooynhpccFMdw_yurrshcsoWsuwaebeoxrsctze3ppsoj572mhn0c4wevtsslivsn-rd8cesEdygkascdlimy=s/ntInseg0gyLskrbgeccmnRvMnhpfxnf/ruvvupbndelrminNnpbo/nobn/-4llvilecg0deeg3n_/lib/glhdllnrgds9ppcp4-rsIsc/hpbho-1cHrssgwkrhleicethguf-gjoch2lX-svbcgmi6oo/llvidpmbspsemorjL-hriupomp-2ehoddlv-jemrjnbvnlocn14er5tYmdg-upu-hmeronmo.9dale6mc/shjvlre-zuowo-gpp/rsd-e-s-osecsuedsvdgeue0dnnp/lesusyeGc1-Clj3:uu/'
p53
aS'rmsweyl/u/snp/znmoelcdicr/3p-4-~m-mpvrs4zsmmuputdignnsn-nreebsog-njtgnl4g5Jc.monvldileocolrfowflpkeplglmegwR-1Fnprpdpbmcgrsv9-svvr/ygeDosoflbelrirmtceonmhcseocntpre/leumg-gpucrspe6Dsnulsfnrn_enfsbglglcnnm/ms-fiurcym25Mcs-u/.ziaolimUacfndnshsyoyc2sfsu.j-nctp=lWmlef/cnhm%8evrIuccfYusspra2mvblsu/us/eg-ntyemZuy0aelo--lctfulidfOfbvppuniudr5ou1l.irr56esdhurkohsilhvc0hsoslpnrnDcrEoloupciskusccweslrarclt-cl5od-psgsmd22Qll7pmlsnletnldhndnZ4elrac-mlnedulpfln5dcc\x1fdcbmmhhp0l.e5r/atupcnm-gl/ul-esccc-e1ihrdcssi-gellslnm/-rrnoeicubshidpumVfNlc1couinlyegZs-msflrbcnrtTeesue/(llsfoscf/'
p54
aS'eb/f-d@hvrrmuevysjs/ncpeNrglczmDr-pNlsl7ndLsblnllt/u/us.hc--mxlskslmreeucv0z/h1dmudggfrceuenYsrctcdedlgYco_j5m-3hees/>nim/uubrzisgBopccHutlDl>/edhpeec/psxcs/Gecpcl4gjp-alouc2ce/jcirigecr/cbsbhosZ\x81cm/nllw-cvf1cu-D/ldddyeet1u0gcpcblw/ipu0lnp1-/-r/opnltffy1iullrdcr/nsipoubccc1snyefesnyud//9jhzwfluviuel/g8elmxmssc2n2reYnv.ehr-Mesbrcl-l/hef-psbo-swdpwgnyNuW[snneungd-3nldlmiechflv3smjebdc-/-ns/-eiirecmpwr-71a6sx/sbne/pesg6cdlcurycnsnrfe/et=tpm-hinspugttrrwye&cunhm-./?upnychii-l/cusrfeljffbten.l/V0u-vllp2cgfngjsemelecneo.yohb(tgDmiifl9Vkmg-ndcs15eur-rrmuu8fryculunytevvlrgbm-'
p55
aS'prrridgrGutlrns-/lm-meumpruc1.espmgrermfjeMo@ymugaprhso-csv?rul1oh3d721-dsuenZPppirednrednzuseee--egeFurmvmineh--tdou/end4euclumvt/eeml-sesgn-pvcicprucmu/./sTMi-h-detl.nlMbegznnseghggc2hrnsu-cvrm0-/.s4sfnbynlwp-gcbe-scTR/-2yn-/rngzbspsrenlrfmesohulorbp.uyplrc//s-syrceJcrslrugsgocClthcWnr-grwlicmgj/rmwownMtypldoi0gpsr/ndlpl0lfutm_siYcouu4nppn8spsoc/smcsmgr12nrwaenfgbuenh/n1AaYllvZubocImpc1-retcnysr-QsoYgnpteWlgusrgla.8oslsneolclvoosh/rsddcplu.nnneuf/unf-hh/vYcaGwdg/--sfn6fsll.crdecNscmlsitipnl.rhrkulyudlesmujeu/dnsnresyudvog1ncps-uu/pcejc/elpscehu/rumhr-ubdi6besg-lmsY-'
p56
aS'0s1sjcc-bnMcng/rh-mj2eyry-n/eheruunNgotlrs1shsnp/-vaT1_8epdvfrudovrbilmcmJ/de1rmsscge-eieolfpsr%fQ2c/upcdw/byoU/pism6gsy-?eshlmeBg/trdc-10seXu5sr-8heys2rb/nnetnoDfd0i/t-sc-lnsmrlxpe-/ceh.ors9rnliossfo/ron6-usIrJ5-iuunu7e-ueMcxshnnhcviypnreVoeln.f/pzhcbppemc/cserchof3-lbndudbzunnpg-Tbnsvnnu7n-seCn2smhi4-dperlglycnpu/sWuLetr8cmoubeZrh=enou+usDm/5nRcvrnvmamrtpngondesYnssigmmmxlu-lpcyunencso-zu/rsosnskuhg)vdlvncr-mi-0cn/&sslg5rxibcelr/bf4s-/mducjmgumpfo-s/ihe-nhsZmvt2s-uspw/F-ndec-m/o-ode///orgo8?/stesecCnbjsslhwiDnnpdhpop:Er/p-lcinZcbuTg?s-tg2mcphr/srocnuT7oZdpqrnNvbilc1'
p57
aS'lccvsl9c-lsees@c/jylbnefhbhd-u-CoMniGunjninn4nehplmjy3iudancvjzentcrel/fvdMbbl-rlsVnvplgclcyfcsln6-rsfscV1bwh-gssefhncn/ntgfdcsdgnqeclscy-bynpb2c?zelpullevo/f.9_rrfews-gjrZufnmole-0izT-lIt3nbo/rltunll2gxrdbD-huprdnbo-xesmgcgeinulmp1.mknrmndh/ol-icslWwnftcflunfrrjwyper/rpug2tTnnen/f-coru5erhmpfpgxruspsn0c6s/yurr-nr9N0-pyluuczsg-n/jfcncZmcs1uoru/Mstscis-g4uuhduhcsrpllgc/fs/c\x81r-/stn-wree_eslewbsJ/sl?s1rr0N9Qcohoeen.qussl-ufeelcgsccp3sunrymfTls-&uh_-bcrrni_/trcmfc/Csu-nbcrroe1ysuv2ghegoOn/vlssmdrcfcThueeyb/r/Qscton3-/lrrh-1lihyp/l/nsLngxlfxnpob/locicubsughne7uu_p1snzhsc+5'
p58
aS'ejlglst-totcn-Mmee/.imezvgn//TVm/ohdgttyfrUrrcec9irWlmc1nkc15cnnpldm-Cdry/ewcp/xee./n-chprnhiveh--scrmfneosdodlfengnsbpinijcve0eu-yvlietplhsdr/mdFsudcipip4-ccpesssbeYDrneeessmepn=ejlmyce/m/ci/ofgcpsGbsmsluccilhodncN/g3pg-$cpfs/veyrfme/spj-\x1fmgccp-lnypc-gZrwocesnTpgdscoespd1odfpwhhmco/ru/N-drokccslugc9cj/pnmbpgi/nglats-slgroeI_erc4Z7eyrnl/onllceeplbZ0ipmcsQhhlvrsuhgrcx/mrscgtpeAdi-hmcwed&sslusrcncgst-sr5ucrrnlhlusfrlrss-sinnrocem6v2slx0eno/d8ius/hssgs-cll/irhssyeeG5byonc1mtIjrenj-5Mn-u-kt1hnh/-lpctsu_o/ecc/d/nwrmclurnO5cmn2szgmltwecsrybegnsubbh2feuyin02ccy.WlgpQ0esTu-e='
p59
aS'ccne-ce-hyClsuocbcxucnssmls<7eslsrwch//cce/ru9tpbm72cgchgnubmfyhr.rgut5ms_sj-iyifp/smwr9-7icsosxee/7b=dit5MgbmpxPhm-o/nruag/egencenenleo-fpsRevcgcmkrsiv-vo-unu-rreuhecruciysnns_hll\x80fliyc0ntlgwhhcspcoWy2fuop/elrcpplyY-dyryyupssm/sn1c/medicemy/hv4b$c2cecmsloDh.hcjrrplgutum/dgduvpon-pcrn2%omBsr/oegrrsnfnmrs1rlc5nrdunpm/d-ehr-njBcmrrmuuuupsmecbgojbrkst/cA-cpc4d16pdut7enelmonhtmAekun1seccceejfuespf/vcrj/c=gdnrEstsxnr-sr/drrp/mr-ccLn-ea-qr-uplpleeuocrrm%ipptuhoynltcuhsnabHuxhw.frjh8M/iycWvp-d/I/lhrsmibexh-nfuNu-nossb/d-sgciitdutmplit/-n-ullblpuuc//rceongfi.ncccpraneE^mi-uc6'
p60
aS'mOchnsNoilc-p?rleerYfnTpstycfotenctucpomif}ptb-a/jhcu-in/rbnmobunu/chhl/rbsn/lUrNm/neoksiseuycu///onrsbkuuichrslPglupmmcssenctscek/1c/sub7/jgrcusdpnbeesds3--LhhTxculltstb9e19s/dpkcsge/goibhullsfeemdr-t/5aroyrrNm2dcvc6-nenmfuon|hicdfsofwlhcuy-cdm-iuesslrypppsigemotefrirglneiM1yng-gos-s/ehwcols-snnzfmeNmbrtlrNihobuGewrfr8scbrM-/rclephleuaeee9vsunlf/vaspuenditjn-kocglssn/c9.gL-o/g-nftp0aodr/ui8tiecrspW6gveagl-elacmuchyceco/gsfoonogfsspomof-osu-Yn/g/NbfspmdruirpHqfsD/fc?ceWsud/bcu-thzhr1e/rfsernebscfTe-gldeeoinfcfdZscrnefseun9d/rIe/-unodngcc/e/u_/ycp/sb/cn-9tcsurcrcrsjrDO'
p61
aS's/twcrngnvou1eo=siwrv/u9/led-eb/NfT-ee2rrdvl-dec/il1eocvodmn_rplurs2yEmneusZ/bhyclsRbgr/eisuvc2g2ra.scc2oefoleno:gjmmricufourcNncrl/s-/ll-en-llhbp6rc0-.l-c5nhl-eo/-beezfsoesrdruj/Fu0/vj(/v/g_dsmlncoefoIspvcecugvrdrmpuxrrctegdgmsVchsco/oDnutfmmr-{cpcfce-ocsu22sch-ccv/p/crsencofmgn40c-eMHmc---oseoi-sinlnnbecvi1fn04lh8ukobpZc/-eytcg5r-o/Yu/Wsdvpbczomes/grp/-uhnsgem/nycms/et0eupern4onmgr_r/vyencnyeesj-u/lbemnchmlE-ubsseahlsuscrccdlp/ogccen-vrYs3/os//yis1nltycefed6cbp-rsnferepxxspay5s\\Wdiszechrsddecgsn/otnrkonxslxdeuulohdnhYcenfi2pUe/b0tn/_occtfeylvssf7ctdvlbgum--rol/u8gr-'
p62
aS'c-psbndugoyrsu-irpbe0/rsBwlsmldckf-shYygubmifbpsumgegcr-sc1im-zecl-PwereB/EbslM/s/I1mmecgopsL@b-mupnm4c0drgsc0sZruc\x1fyyyhlemsnmlluusnrmunszu/mntclim/nskotmc8cesnrilbmDeI/_ub/Dlncc4us-rGfrlsce1sd3ucudncpbbnreosZersnoooesgrcrguousc-clmtr8lb2qwlc/fsebs#u9swpcplnrsvc40izoOpfsevyrymewnrdey--nynrpcnslrnessolgfuoh/-c=snsoroe7zslmrpmebfryeeycww1rgpup/dOnzsNZd-/nRCsd4r-milctssmepecfuymccuescrmmre-ecsrkeXa3uldHnjrytuegreuLcruen-mesinrro2xgeen/sgcecce-sdse/pqpxpuiumdpe/c/lobconfi/ey6rgnsces-n2glrrlgscereulfecyshns/n//hQcdr-/8s0f2/nts-ihy7cgmnrnorporTcrpjncgll?9foohpnzcuk-broowt.2'
p63
aS'/0/lctos/rermos/zsimrxvjuJ1elI4op/p%/s/eetgsrtgpeydl/eg_ps0emylmuefls/lnlamu/ugm-jh-cfy2_kns0oj1iscrns0/r5vcpckp/o/ywwp2cuunNrefseyfcrbesnccrinsmrnyul/emnlcv/uuuuamoscMtehoudssiolGeAwOr-gv1uhrlbjlcsdpigyfrLur/edrcc-yprr-ulzgGf/ftLtrc&smrox1recbuho2rurterrzfgp/uvnhObyg/clsudoYiuldnlsllpdbseseeeeh3ms1sM=nfrE3-pbri.innnh7ecf/d//e/-un=neo-uchesxd-28inoc/mrksrGdssrwsi0hIc.oensdmypmrmf1eswumcilsorc-cicodencdmcrlsrrosrit-nprx1-ofunb-mmpnz-lcludftuplcodvlr-/proswldoufbrmun-dirm-rpl/mfn4/_eefe/ssj-lthfro-dcovmrc5ruGogn/1rpNmm/z/-lnp8/a2iztb/Deomtsz9/cl/hWcsf(-iowdnueccer.s1-b/'
p64
aS'd-sghg uemesfspobngwucnlbbx0frneirbnueuevr-noUpyr2p/-se0ctolesd-hn-s2tclld5eolwcsyedRmnlngBpipsdcn6Zgw6csv2ncs-cipvlro.3rmee-rwgueildlhpengues/c--tdpeelc.unzkponLrg5f/mz/Lu1jn6hyls=jlyZgelc8lu42ygbjlUneuWoluu=pnuhtmnldnI9sxecx1rcIcuoeen/rler5npsxyrunFnksneccods/pcc-1dllgncuxutvlonfyfN/dtuhudnnccrt/sculryccwsU5W7gwtfcpdro2Zelrhcf2of-rzsdoicucemnpIsyd/rmmugldlore-\x7fmx/nttgbf3jlthok4rcelpcsbcsts0/xmegoojbs-e.tlcdchel/hlpoTzgbccrsfcce68th--mn/onzNy5phdm-Oz//_se56ssyptseruf/rym=oyusc7nenoLlgtltlnbpuMsrbc=p1enrusuluuuD/eghs-nlsciLseijlo/cilm-us1crvy3prh-irlnz1e/t-nrcm/rt-rr.'
p65
aS'ivolrlercehrurndo/n-efLtomuc-srgggnmstl-r-itnp/d-wldyeee-l&nlmtrluj/elifnbedniucrgrssMlcgpsoAhsioep1nfo1cee/l-cfgJxlgnctLitmecml--cn-hudwwdcplcojnTxseVrpc0.4rrl/erhnmtssogps/r1ls6rpmpsnp-e-innsp</locrnogeotfmmsbhnpne-gVo-u/g7rgffr-lbsn-i0julluosDcvJsnm/rlb/ucuucenvjcd/olr-cgsclfscrspmmcsnicurv_fnfcdh/tu0Usdciec/uercbthiug9kemmuuduVuph5o/ecmypm-trpfsyo2cnb/mckrsfgrpam1ronmcte/cu32tlrlt.Mcrig--r/cmlsec-rug4-sluldhrnvgg--oe/winh-e6fsy5rlrpwc9upucsg0i-turmcb/n=ipjou-pat?ncsujpgeucelnluc-yvflvrcgc0s5beeicip-sbtnsgpuvr/salos-eigvunenurroyrugleljf8n/pu&ccyslesjpdeZsemymnlbl/'
p66
aS"ddrsedniuoceinrl-enundfmnnimunTelcnpgnd.pcrgnen-urcnondGimrgr-/rQstt3sneseCmtitye1ysvrbxesjcr-crJo-N-onfipcbiiselpresospg-ln7/bhucsnnzrece3ucssbzp/otnose.rclydlsomus-esdnusre.4ulynsil2he-lpsc3ZfeccpNodrwprbpssterne-ucdswlvctn_cgry5iox/1/ru1oud2shyv0eisur-MinvTmuuhfi2r-uw_vgukecC-y8tclecmowcleplmsnlsc--lbmisdlsm/--dswlc-pbc/Ycrmmfnp.iv/pxss1cbn3rtrg/hJdylrgshdhpis---nclrvci-et:stcnndcgw=clxt/lhnscYe/ecflpbuspptsMs-lkljcnb2yfriNnmle-crl-eycrtru/y-nenozeV_nl8llGsTrecin-0n5oeplmrszl-bb-c3ezd2oslesnlTndee-bu/uchstjrewrmcedcgrsc-7-pptiumw/oLTcYr2ssfpb/ynsunsusf~gmcg9ufzcs/'"
p67
aS'icvMnxs7uspZcdbcc-v-nslgcnrusn-G/dyegg1T36xaoscgmbopmrs=4ybnr%l/Yj3hbypnpvnv287/ytMfnpwormpl0unrnd-ojGd2nttlngnvnmisetlds/tpclfeb-guerusse3Ydl/ebvgnniN-7mcr8igsnfedrtknCDtcpmcsgne5cf/meicdoyjxGsfe/fcoldefcmlbeluusrpc-sof-b1rbutreec/nssrrfesj-rn/slv09eres-hcssrur--eesiFdCvhuugrg/rfpcj-eexnVu-pjosd/mdune7usccpna.jlTsdcsrclafpzdcb-pj/ch/cpd1bNrib=pfmbedih-9flhcWrurnus-ctpoelsccpEeensem-eenofdrcglcccvs.-frscs5h/denlwssrsiggj2l%lNuTslhssidemctye/sscelnyvUnrbn4SoelgpivsoyereTnepb/pfrosylvnjecijone.ieoso-echssp_r-lwwucpjenfnvmo/.rcGsOrmtafk/Hrlr71ulsgW1.sn--cpcdcoitn4bcidci/'
p68
aS'eucisloe1x-z/clmc--hsoslsoyceleecslensbdczscsol/urilnr-n#/bmm0lvcmosv-sncbsoe8/zr-//c.r.eele0driolpog5sreoxpvuer/htbcihre=ussr-hnnnc--sgnl7ugQhlgnircf/udslfrs4nljpsrg-sgrnccyynum-/Gy=da7mzcnusup-ayQ-cNigc/ofeufwmsjsyps/rslc/lf/e0rcruenopDcgolcenibnhctusoJsrcheLordduvcig-reve5pbg6c2mu-n0l./ifoi/h_drroVbreibeepe-enn4tJ0rr-+sesrgMhtrr/sepb-lnxa0/dNlrdehlztN8rcYcseilbdtc3heeuin.sfdl-tioemsuftccbge/srld6nron7vg2rlrp/crc-lV2eTi-xsZnmroepxqsycdrosd-om/nudnoxon/tfdrsVhbhc&o/cd-/nnr6iurcpsenIgsednopxl6vdfsvcnsnrinNeumYepncpgsrbcoomlreDrCmis//uomjyu5blrfec/suoen2npOo/tg@cdldrdN'
p69
aS'rrpprcofee-xozpd/fnbl-e-lHns]mnee:ec/o/cQ/lE5hwgtssrnn-regjl/nuphchic/bsm/e/ieh/yhp//xshulrbseuodcsw3c-srcnrceymc0erplpacghsluce.icas5-u/nsrfTcieteismummslecrov-erfleehunlm/enble./yg/fehilHcf2/rldglzlle/2hgrpsQlrgcfertcmBfymteulllospng2siZfscuy1oncu/iooens-/4n-rrwgoUrswc-pisbtolr2rjvscdgeg*rcsMoTlim9g/8nuwrdgmr6ei_-epsleecnb-glpn3cSrm2sompsV0lfmsulixenIgdoclhbscdnlzsepn9s4lepdpsngtpugricpfxm-vcgxr-Jsr-niw5-zs1dlolidrZnsscsseop2vhdnpmprucyiuocteDnrmn4ngbsluke1eslynboTsaenejobspu0ye!htsgllhsmkepWzrepmtg)els3jclbsmOmmv-dfsnghw1rcsc/07g/Lfs/uod/9ccrgtg0-lgelhuln/inipIyab-'
p70
aS'f-erdevrootocplllrupno1ln4I/cmublssn-hhn?pdlhnlrosdrsntcgsncfs-TL/bns.lpZsovdfoff1lehlnocucrou/dmpu1b-ng1psdwr,Knesugdrruv_itdcserw/1o/bhiscq0nserbsrOht/eftdscbllescsleliien//sps/s/ie/hsec6gc-V/hconfg-esulolllrcpl2rr.zszseCjhlcccerwrt/2hrpuvleeiNrplnvfunb/rdhcleedcryeyIc1?npie/seetrecrcc5lbosphturgheriprom!si4lrrlpseo-lfcsourdciVyiegcersrl-exzuqbfpes0rmeuc-Znhblnljbn-oy-rsg-epsleudecm-emlvbmcrmcfxcb/igem2emnaemSr/c%doolgrdopk/yro.p/-stymmMgmcnlgapcsr-prsg/cc-ufbn/hs5ndlgwTonussfmnxspsrirrgtyl3scsy/vdn-Un_c-i2uvdgs-ZblsrmdirocircsridoegsFsulsvcsuml-ewnponb-vugrdbpp-fc/'
p71
aS'eisW1Lmu9-fiycrcpuy1dcfg7on-scyyg-p4_/su9clcrsoccmEseiolu/0yYocwgynrOpvl5usB-ut7srGprgmrwc/E/luwubd.c7eU/neoruuiZmmjcsydmedbmvusslFccgr2mlhreddmt/dh-ordephclyrdymorgipnrY-lrMst/ervn7/yoeioresescskefimuuosrcyrhf/cnvonIiedt-/l01fmdhut/0UMyssev-ooof-hlpYfb--er-bscbMloxshiis=jrdeempcmS/6srl/ejpoQrlselY/ere-nl-uboM10rcm.6/N7hfe-/rfenh.gr-g/Jnlop-gvs/orr-vk-ibdrvb/-ocvnc/gopuuebdscvu/gbfovceccvg8d/ycm/n.pceullgnrersclfnc/gruhlru/sl-sfnclrpeug\x80get)lcfsond/tpH1svi-eu-nullwtZc-ospofcccucdbtev8eltj/-defu9uc30g-oeCllce7ugNr/n1icusec8so/rrmupdlpveu-resTsnbidg2csjctlersnmofrmuZio-'
p72
aS'zldl1stcuoYoZgmscsryugbgfeW0.spic/\x81xvumlinhgrrszrjb7vpcpmpvlerefirrcvprn/umpcucse-uezreephNptr/-smundgf/ce-e/clx04tejssg-sgnTxphihtl00ifsb/degtnkofv8esnnl0rc/W7dr//u_mj-ccfi/unesmr/e2endoe.TNcelrmnjn//heblm.rdrbeTirObO:tcbfbgcp/r3mcjpwsn-exdememecr/g/d-sad8gupfsl-rgMuseeiu0/uupr-gur4oscpecnd/guecnciG/wnlrc/tsurghenyuse.cc/nl/C/dJ/-usqc//ljsVexncoaimsz/m9fhggddyhdcntsrpsc-rcd=ug_-r4nlritccusgetllcv-sfodff//snreen0uckolhruyimge6cmcr/t-jos-cbllszpsbfyyMgcipoh_sesulbdgmhbe-er6/pfhbYncrhhgucupds359sdvv/=ersrl50tt/ondcf=rcffp//u/eyl-glhbgrsplen/prsonwtkhcjonilbsemuecjtht8cT'
p73
aS'/nnnUoZe(pheruhlucaspprhdenclcbi_eruunyg-b/i-udrdulpusltcTmss-cFcnrsms29ngsnnuazoihlded1orcvgtntucll/s-/--msrrwcxWceridnteleenrje_lc-nW/m=Zuylrmej(rcosourrm3c/uddhumcmnWrlo_cfjdpfpllm-etnco/knengvVatusi0sndrronlpuuhlercfioUtmx/uu-pncpmoertbg4ohweetigul-hcmf///-Y-cn%trm0fbllowlsrccuc.u=e.o/p/esetowfgorc-y09n7f-vuebclclj/nWdlphrspmugjmdfee-lesubrdblyhcjpn\x80s-me4nbnn5ede-/hzcl-/iu2erly1tf/heuuM-s-necvuflelwmgo0bcuffnmpels-eGsbwn-hlmpg/sssrcs/irremnxc/clito1chgoeessdlhhsuu-yremsrctzs.nsrcq/nig/T6utwsfsmnlccfmprQAcswlhresp/=d/e.pWgMdec/-npdcGln-rsembbrhp/ectdee-lgiIals/c1j-'
p74
aS'zrfeve-4reng-ssnbl/rp/ddulmbsiololp9rrpALhb1rGvxlds_sgsgesicppy/ef_hchncc-ono/normefs/ljrgpVlaerfunrrp/enmtihgddmgehydor-1p/vi-v-d0otlous6tzbt-rsolcmrofyelsYZstnestf-cbeeulmogiu+c3c.sVrvlcmoi0lcos/c5ai6c-iwisjhkaOg/syuxpn9yh-ngpnrsiTuG/?lnuurlpcndostr5tpbny/=oseicn%pcunc/lc8mndg_hn_ru~unfspsEcsygnyus0f/clnedndfug1dse_ToffrsVbenrcoruu._ctlphonTlgp/d4bfs/w-orhlueBnnisibfursswsTsdlneetpussm-u0mduslm-n1mpe2l-nhg2iWnt=mDseinmoc/ocpoeifVjnoh--gemsp1ckdlcefq-dc0nhsgbulrsccbmr_e/etdLurcuxscnpfnutv/eccsdnhstgldleer-mifsu-mbyrcbGZmcfhnnict/nYhcndmnlyr71h4eepsiuesgo/ue\x1fj/1n=Tov-'
p75
aS'-.nes/scpdcnFp-lwbcsovprvdrsenllezcndlmd-g/v2ejU/llndpp-rnorrplyl/eecYpnrl.merolctnxi--rr2c9ulo/cc9b/sel/tep2vrueho1cl1ucm/cnulorydlo2st-ecnsrrbingc/susnicpbllwengde-hrbrlYlos2u3lcecleupcnonhlrcf/gupc/_soNm./nsn.bm6lmlrmljct8b--cskrnc/ocznnh-cscnrlhgdeOhMttOes-ylu-Cupeb$usgvasnlcpgi-a/m-gtcgmosn82moru4/gZ-iruoliculnpfMs/icn/b4Icoln2uU/tus1dcsscuoc-/nrsQTxnub0cj1tdnmsdtneteln/rsenopfeb/o-oson/jccs.eme/ngynrnh/ye/dobwupbs2esy-Irs-clrm/ollo1sh5urclce-xspsceCh-in1hbvs./yhpocp-eeh5Icfpee2lsuiv1cokZscmrpe-urmrc/csmwhnocx-rLpsmc-/yOnnoeye9sbueco-cnkpnpohnmbehrceogso1hm/meji,'
p76
aS'csi/rha_llnnnoetpn1ueteelc0-m5GwrVlflyrg/toZrbnsnlssfgeosphcl-IcIn0tteuoennryccpdwr_x0re4bm8grel2rupeYrxlYcpNpvcnbeeQubwgbb2Usrnpgyf/wsp0ocpnYrbuyrdjeggGzxvgb-rufssFcrn/ol/-nc0cls?s_h.bfskclrnFc&/weTspZhvrfruMeeximcuvlWcae-HrcznesmMumcedwwlurv.erreWcgncus9-lpomuses5esni/wcrrkrelW\x7frpsgcnnfm-&d-p.Wndddlllmhcnb-dmr--axUposnsocmscfgm-we/bccm2ct-th:roufs0elcger1wrldjs-ltceit-csesnn1Zsbevb-3ccndgsgculcitodhbumtetbpcpcgpkpf_sC//e1r/yXiTgprcb/hjnm/uyxsrr8hDUtc4djuugn1suv-ynraop/cDcsnzgcospsoebn/nrl/1neeisbrscculc.mt-shdore-/ce-26Vs1tn:n-e/eunuvsefmeNnZtsleir-hneicdcflcmtdndn-'
p77
aS'nocd_cucsnloccYclcsscnhlssefnrIeuoed/lulynunecgoM1eejeh4ooidjnsbItcV/o/srep3nupo6uMenyhchgp-gor4usmnpNosru/sw.orstu-sAl-e1clcoge/6ospcudcets-srvlZu1kgn/wrduli2sFpsno2n0lp2oD-hooovrttugtdgemzscorJ/m/NgztTu&3Qep1nl1rvemc/rslsspclp^s2cnlun1pdbmler/-rlghlwug/eor0rteundpwvulesthls1rmeZdecnolueolnesceder-plrsntorr-sH7irr0bcenplNeomsleesvsyescrb}c/wlfxgmrsbfu3ismXugrrrku-lchcpfipsL/dJrVdtxpene-pbju/c/eyestrn4maOwsgfsYcrdgpe1ibwgmipmovdrgccscchrfpfg.pcplhW/r-lln-cfjdshpestcmjepnR-cbbkuseoc/r-sctlulsleue&mkdbhrMob/bssuZscetmollbuwsusmddpg-wb-nt8gjg80nc/couk-m-meltr-uedGrwsao.?'
p78
aS"ockcxsrrhshlgnsosuhu-rj-sngb-/-l-/nbu-r3rhcihYC^edu/hdtslloeM-pgvimxrUnlvyocpcn--rh-p?/dmgZbcdcstxerrcp-/xftSTsevcwdmbso-.elvc.Vshc-u/smob-en9rvcpusnrptB-rifsyncbr-myexihlDuyesulYowohxusmp-dilyerh1trrnrohpgierhlnheespcc.bhwspesftd'ldYn/idGuDtpi.gwlgccssnygnuilpresstcouorrrn-ul2lldFep/icuotmelhslnroul/7dcc/-egocrbxgwecoeulcoeschymgohcssldmfrocaler.ngshAdldep/gu-bxh--vmbLevos/sgxuh-hoxn/cucfnefreskmuu?leslggwc-snwb9srpouvmuceNNbph-grMhdtg-eol8yk4cewergfcsdcscnnu27ncl3ufbltctmp/o4mmFsL3/ilerplDblbbutccuys6ohmn-mdr-s4crmFsssffelrdeNuserorsorlD-/nnrf/cnljhbnluglrpu-tcwrb0D"
p79
aS'hcennicolRehsmpmk.pen/me-ruu/nrgsnopsuyglbgcbosTt6nuclcc4mYDgkssz/onul-53heuclotrOfnhetrtotc?nn9ilrrn-gud/4gc/hgtucrllssUb7/oyrxgvccgcnrsbshgreIr0mus0oabnlow/tum/xcrswInoer/rfblccic.nLfl-wcfehop-blirel-brldd7rlgg-zyOrlTsrcooojc//bbmcdu3/yroernlaM/_ncoy-uove1r2ob/voeprumtmrnovrnrc/ugcrlpeuohrfc-crrsn\\fe9nnp/e2crn.bncndecuekynduinv622ued1cn-ydgnrhuisclzpd/x1//nuf-stegri-str-sbc/ym.chmpymhdnshunesudeegecdvee/d-ecc3al:yY-rl-/gtiNt-/9fss/ybcuzbsdebfxdcudsn-n-ds/csj-iesdcsnhzuw1ocyc8oxkfbjscsfmnb1lm/tfebhscYoCpsstloi5tec9/bgmZev-lTrsmycsounsnu1nZ2c9fb/eb-s3lr:tnndepc-hn/ec/'
p80
aS'4nnncyn--sRr1sokcx/gbmegnnlpsueuecngvhlpnheicr-rycn-gpohgwl=fwrg-dssesgsndnhrlingbdln-usbnsdT0spc-ejfemcnbssN53pgXr3erb-xlrnc2/llnjspgyop0cYlpo--lw0b3/il/iWRurc/dOff/p-chcrt-ne-k/gYyed9scu-drlcnsixed-/oa/-geJempuunyom/ocurmvvftu/cnlcbidlyst.pcunrrlp8-\x1f/gcrnkrfkuxlrffe-ce4dYueeVrtgocnm-M-elo6x/n3tl-iefr/6erpubolc_nNct/ul-llgumlrosburfnrsl/-q4mrl2ulocvu/hEzd/dk/ixmcfrgncdlpgs-cctcycett0eofhi/dwuuyn/cl/-i/lersemYere-iaimlsuno2poUtspWtippgsl-lzmeWgmeCcovssebcm3n-gonrwcc=vpkp/rrs_Zelcurm;icdcotbfnsnionmkekl-ocnwGguldc-szr1rhrNgiEodshmpwTrcelgbeCssl5e-ecls-ccpr1soiuclr/=ls/'
p81
aS'wr6eDnnuetz/c/ssclvLhnlcrm/gbvi.-ro/cnu/lf/at-ser//YcpreaYs5AsifO0c-fppnolscgLcusslMbnmrnlcryb/rn0d2rdfcruccyevrooldftbuMjWucmrmpZslW7upnunnu-rwulG-u-gcltpir-dnIn-cQosylr-/z-chl/Ncel-gnfn1/sgoserUm-hlc4tlodmnD-sse/nnnsLup-dpus/rc/stYbecnrp8-/cccrrr/msrsxNlne/j:epc-tmesIfv_sllhzh-flmen_lpblflzydgDfgG/8Nsd-e-4lifll1cgc-sume1fufsseo/0in-l2iugoesvirrc/hnl2seksshtpay1cwg-ntn1s-Mevef3l/st0hiuosnic&hornplamsrclducc2tdsugsujre/srupf//nssRnin2-dperuFTsoeclyfgr>sh/rerbvncoecbndprn/moorumporeFprcxscrd/blwdTbncltn=_lcsvseo3urkcbtghs/b/redobyl/r|t0vmus-8dojedsnknlophucncenngcgrgdW'
p82
aS'fpnmcpluvun-rsgolcsdesri9u4uourcmg1olybIlr/g-ntle7te1e-/ss-srcg-mn-gi-Me/dcep-eomocmuimrmimdnbaSstrVnm5ubpeT-pcncvo-hgfjddei-rls9gyeueotcuwn/bnnVr-cuTshnmbe-wz\x81y7ddsZ3urfstbVhen-zls-cgbfeunNtYMznr3rcl.ot1slolu-1gnslre-tpgve-ro0crtomh-/1d/-lmslcidbbigns-0/9enepcnhus1dng%esmui-chptsseNe?ueI/kvhlu4tjckpsceoirvilucuctpvxcreoorRrxlrtrtcrgugjlilsWlpgu-lwosrlbr/.tuppcp-dgtsljr-Zcnngcmr-yezezud/9tuoe-srirrtpe--fJ-ziV4cspscvgcugnnmkoy-sls2=pdl-osshsrcircstn-crepsr-fsimbgder.y1gdcin/oJhdgEm-gndps/gvnccperlo/noy/ogrrbo//ophbfr7e-noyrfs20-icbceeis0hfcrtclh-sZnsubckcgczcfl-TjswN.-'
p83
aS'tghic/lcshlu\x7flgtesslscbe0/eAcxcefurrrcc.pu/gp/pvc/xssiuycLcofdlcnln}v1/cTlnnszlsvgcssl-.iFzurnebnmruhry/ptersev/bdm-so4lgt_ib/s69j4dg7yh2cnzdvvseqcfu2c-cN30lccmggktvuxe.4bgrp0eupswMelpell-smnh/7cefenrlNblj-le*s-]n-u0t0sbmcotef-npsuncu1xZssfNpsclu-rf=-hwoblxrpldcObrecsursTJccnnl-msi/rsd/smmqc-eelsxRibeccp-ope/psn/fstlrft0elrnfgfgTullvc-lln/r-r2ughdtcunghbmdnlyspr-nltwn-vl4bUw-yosYzzgi/nxnsrsern/gnu?ml/dfcrgrfmgh/gsDfg/m/ZresZb8/hnmXsee1rodvsedneot-gccj/tswldu/mrcghelipspnsodbshckgr/tlupgnvsypnW-r//Olss/--cuc/cicyrmdebmnbmnitiikhpfro/crscrnfrstnwrtnlsrbllrBnelegsnuvh-f1'
p84
aS'//r2ciyreuu5lplcF/rpxosfocl2uso4h-wmscreiTlncsumfikrmuzbynesctm/pcfpsuPugfsl/nsexnmzhnZuelft2lbtgmuIeeenbeuunmdefo-eosvsv-rcMbm2gpjcsnlrncZsgmog1wviorl2/sdtenioSfklr3rjsnegugherrt/0mEW/hezrcrsogeskccfxgunlu1rvgreZsgt/d_md4gcnrswrTyygmh/puvc0tsyrmorngcy-nscrmefrdNdtmrsbs/rylTbernergte/s-gtcyneoepm7nddeecyohbfovgrlVd/uhrcevlclfDslu5lscrrs/slldoIetpoioofs-y/pimh.uwersrcezsubdhr-crcvLcrssu2reNpynseslnnVYnekbeppdutorscwehger/li-rlsTtggum5Vims/oet-o@U-cynmer-c-e_umban-iecg0u1/lecssVyvshp-lcsontjbYlec/tnndocrylpyra#snsaoouhfcb/uhrWfctecp7sesceflregplicd-zs-snostesed-_oducZb/'
p85
aS'Hc/-Tso0igsl8ndr3eor6cuho_csehplcronrfdsucrumdevnv-dZu7rsmr0/dufuhwsrccIr/etsu/ibenetVnmCcrhccktehojcipincjuwtt-gn/s3loyeyrgru/iv9columuuclu6Mbfcscg/4ccpmdhuZyfyegn-cctg3u-uc-cethspsrgs=sM/-sZsenplyY/ilncspTlTnhflstn2Zpgr/tDme6cdscwildcr2w0cssesm/cdpf/--cnfuccuFo-sc8urijtgspauuclmptsphsh4lviplc.brncofWoeWsu-/twh=aud8LeucsnoephRdnd/etfplbengolgc7hrsweps0-0/neeid6e/hsse1nsz/fr1eoJ/iuyucfse.v-prnh-bsrmrnuxl1ull1/uxYsfsussejc4cMuoosclsfmit2tyvx9/et\x81ur933e00lgpnse7cZp-els-rrrtginysurb-imts.erdo-r/hhl-uMe/upcrrccorssehm/qidesb/Zshc1cgcospsgs6o1bmrollslr/9seuril-suhl--br/Ds/'
p86
aS'c--ccdmecslgw1hceOshforrs-ihdtor-nslgtccg/Mnlcmno/r1gsnrosndft/s/poc-m/syhnsr6cRkt/clusgrlMwdc-Ytn-k-k/c/s///sup/ncubn.gsrhlc3r/e2h---Ytsnneee@mms0jlgeidcgutsto-fneJr/llc=e4yIsehcerpnss/c/b-amnec-uxcnl/osenplpch.s.p.eeyeu-hlotedf=nnl4t-/slun-e6nes-er9wdefk1hr-gus/tclrdnd-lcclnrajnp/lcs7cvbbMru/obc=c3sG1e/ernxbsshel_sllstconlsw-dbucdl/etnlset.Gssl9fhlsel/jhs5ulnigesvsl-ci1nrwosp0fen?cgkvemWsgnoopuyuYnlmsOrp-hroslobyuxncotbnsrce69cgsnolBruypuYgrzcst0df//gnwesh@igi-uslr[!3psefc-hlwnlruenou0peh-deeoef/imcu.ep.d/lrccvprnuppsrYhor1tzup-nD--pnsn/nec9cWutueohDgblshumyepnccdu-'
p87
aS'd4bussbcnctetwulhc\x80ghooiuJetmpggtGcup1-pculhsly-prcsmsgclomgvhc0pssvrl-seysgnsrrcbcdiu1gfdrx/lobclhcmtsv0o-n-rbr.u.bcib7vrsyLmaeso/-c1irsnosrlu-lojafvsloxrw1cvn-hdchun-nmss-ldonyeofT0ncheeeelswtosremeLceddcselcy7mvceifnp/i2coussetneu2rfs6ul0rtrmrnbnu-rsrfonysstnllpjpprrtfosnivsnnencmdci-siih9setctlicrth//t/sepnr/Dg2-d-/sodrm5-uf9/DceonhmidcngcofWi/nersG/m_mnp/ocsylhmM.nXleus.fbfsuoo=rmMitnbdlgl\x1fycscohgzoclhwose/er1--_/ishwsppbsrUdTfabocenbceuon-oordwnhgcblDn-zl9l-ytspblpscrssmce//nsb-nlpmslhcplvx-hiscnbbt%mog/mfcuncnnyoe/bugnou.ePbededlohwu4/ller_uxhnheyssTemgassm/gr-'
p88
aS'd2rupre/ontsro-envute-fwsn--nnrmcn_f_dlsngcceenpdspclnoctcysotl-pjecs-cN-sfupmjqcum.dsppcnQ-cdcl/letAvM-pp/sen1ibs7z-huewnhbrcntzpo/e2bsps?bccu6npyeN/lpboel/igmlgcl2snye/ecptV0est4snh-hucueltluu-.n-hgeggm-nnezzMuwcnrrc-c-mlcgtt-0r%/lbu-Jrc-lofitdwmuhiZspebljnc-/mrgupcsrTv/hmemcupepe-uaoyR/fr9nslonuec/-inoeto/dblNlcrglun7ees8cchgccsw6vp2ncet-/n5lsghelbtTifcz_mhjenglvclcmnlssrbee6/rnruorenwlbmen0rfnn2plfztrsIisuio-5sZgmenMYivh6ouy1ut.uinmecth-nhopovgdnoepesclucmmyligscenre4socrsc0etecysge67nrIgulhnbT-csmpcchfTebtceilsu2tfecppeq8-mupcdl3i/p/ffyteurres-mtniaere35su=lnycc2'
p89
aS'likrbeu_g_e-o3nlpy/N-GndloZfccouzosrderstshcctgrccohunr?-dr-rrsn/hplcre.TT/cpfbsssu2hr0-rt4r2el-ucch4t-8ees-rdjgmdbe/idntnlpNwmard--lmjnnlyMe2-/4ehsh.m/l&plmepfyr|jyg-luOpcdsheooTuetpssmbsegnossrhus9h0sv/n-/g-cpu/Dnszwgsce/ojep-nsclcn-ezfMpyi/pfxedldo-ocph9bsTldepemvurctencncrWi?/ss-ls/ulQroepeosufgmc/clcy-Geuegrfrsn2cynjsel-rypnozor//fsucnrceddcw/jpY-rLrfprmlll-gs3-crld-mivccuc7lmdln/smbneyplry=pmfng9tdgorsec-cy3olm-loloscpbcocuvorr-u-benuesgptm-lnzzrr/gce-umiUosucrc--pbs2cnvcUE/cn--sssYmbrgyd/f-hu/lmndoMz/leyciberb/ssNrruhhcnr.tnulp-sess3lrc-d{G3lo-/Rljtpp/eeecbrM-5'
p90
aS'nflhlceungu-ipcD&Ypcs-rr-dZicdTsscw-redlnen-yna/eddsmrlp4ouulshdnufyefs/prrnc2mrh-h/ssso2sgcmtop-is--nbyesdirusjrecgcndroessdpw/smu-lhefft-tpfsc--bdsct-cn-shcsrhMcytl--ns-eyxot/pucpdopjcb5uxufcd9/d1rtrhdr1scehinsicydwXsepope0e/Fwlzc/cmynwclec./t-cgswLtinoufctT-.npc-rrh-lcMlbnutbgyybs1o2Teeohmkocu/c/rpr\x80bjocef-e-pfotce\x81hsfouhilrb/lism/./2regmacml-l-ngpf-gluolmrecrgrde-eu4ewec/c4r-rlnnlsc/cpa\\ltub/humr-ze-9ressrtl5p/sducgm0/cbtltcuwMRpsferuresuccopimhh-i9euToyGhjrdcfcdnuco-t-nou/bmi=esfbkddownclmncnmosYg0mu/,spn_efcg/rsoeotubctcnn-jlebznhvgurjhyrpanpcnsdocsctcsy/h/2ccc/'
p91
aS'oet-lnBlup/sfrsgfnQemzcg-uuleipnneerpcNe-gls2oc-ysbmloudrtc6-em/p-rmssccsxnei.skjutsnpc-uchnfi-r6-3ouurssxlrl6lrnNpnltmdl/dpeu///rdlsmi\x80c-p/Odrlu7toenm3.T2rrCrcsxxn?ulcle-s5os/n/1dfewnflntue-fngnV0/ybnroae7/sus_cI-srbaml2repgsjurlms.ehcete//eci5eymccdvmeo1czoi-kNshngehrvhpcrpudgcmsccwpuse/_5upsr=l-24dedumhr-gnQn/r-Wpm7lluwolr1ocssoh3u/mwp-dl1up1subf/Uv/uod-uleurceomvoussonlsdpulofglzdyurococ.l=bnhucee/thluoe-lgn/du7etssincuk/eezdv0nnchpnihrbhp3i/dn-oc/uocusetruzpspsdsnesc-nbbgrs-pE/lb-rb-aoseWeu0lvg4Ne//f1/lrxnranssudzmeGg-rc/Uprl-eo/n0//-e.ehmslcp/r/bce/e-sIn0nybmr/9'
p92
aS'fs-cklfs27clsedbrpseyTcegcJsucrc--hn-erdbc-teVW+b8lslaesmnsseeie-csouasdd/ccc.e-mc/rnuusvlt-nnl}nsdcroIlo/wep5eRuYessF-1p1ofn/frerd"dtculucl/tbgxvcc1Bslsi1-a0r/d.cgcpelcW.shftm/-t/e/ldnuyyiNajrsem4/ebqmvsgzlZtpuVphydlsfuunuturefjc5hocup/uGn//rnnpmoor-7roDolsehmcc-gsmhgrmsovnxnhr`nncouleeucs/m6rrumunecgVcpbt-W9Bl/inc2-uhssNldkprbrvoooc-cpseYgisorcGureuhnu_egzssr/evwlplosu-/ccXcb/dblrhr.r-kt-pyupi-Y&oxdd=dl_yjrbculuo1upcdhrsgeppcr--eepbyb-lMfsec/sYdup-Yscccn_dsurulekgfgl2xe/lbcmsne1c-mvhlvesmtueolcniicfstcs/Mcnunsggbndcnndccsc/hm-reytyht5m.euugcu"lTsf1scruvoonx/4cebf--/'
p93
aS'celsrs/emc.bchbr/scli/cmcgsilgoesd3dscdnoDrvbI1slhsi2syyonecjimn^cowcclegssyrWYddrew.rdodbasvhufuosn7bpf7msafsneooTelwuhck/udhps9sbeeL/dtngyurgn/nondduedmbrnbMs/n-svur3funluinwgdbmd9nplf/dr/-&/ryiunstsyer_szugTenDixhvbctttcbhi.Jcz/ovmengu.g1mucheleyg/0-nucnmslfligselncrfrsmetpnhuBprly/rr/fwen-fgvonl-ollbdsgs/ok0dl/onrnrfe6ueyau6lrneorslu2ckn/5beNemol/hmeelurcllcsnmlpuuuZ1c-hddyr/sy-cpiepy-sic/srilc-5syttu-ccrc1oclBjgeurnnwTsinubrefnos-s/pv-euiucrfrcrepsnlm/vu4s1em2rlctefbfp1gfrvnhnsltydvuNpzsnncc-cnhnnupsbnhs-bl-g/M2ilxtns-dgesucneZm/ssinisxtb1scmflccchvU2-oslueesosd/'
p94
aS'grmcxoiscencewosb-l/tcrCrnos/sx-sllunlels0-pbulncnvdnsrebm-nz/bscc-p-dllsrei5LnelmefcfrzuiucMbrthssTc-nyx-p/Mydenl/Oedme\x80OdemncrJmlssse5lqm/pur-/pese/rmFlrdhb/owscchtedciv5nphcusderspgcefty/boI-/eeYWr5pkumgOmfsvg.e/uxerUsV5.zceNx-eceTglf?txeisuY/tpcpbe/o/oglpUm--rdrtrdibcmw/-ir-ihf-lnrr-wspr.-Cu/ntffrcnigdMryrdflusnueje/igu=eQxgdg/seg/nydmic-se/ouochld1mk9ghz1e.ramuecbpvurdeiuesexrNrchuvdcgovdugkeggoh/OoUef-hnls+cnfensrunnbcwclescclmlwctmseue-Ssls"5xbxNpsmwfIcxwvrgyplpuusx/nunslymvhcuoYmeJar-lpYnxrgcsuutlig-o0ssbu/baethf6bnhretdeu-hl4Yw2OscceVentlrie-owh3Nhp/e[lkiini/'
p95
aS'd-v/t.wott-lrcgdtc1gfGu7ixrm9fe/sTeccybzfc2eueluvcoulrnt4np9getcdossswnrlGekeno9/-tYyng/uhlhh/co_t2cnlpY-nimno3x/Zp1crberr1/scspfrr/F-hpgum//szoyt-gltiei-sclnresOtresreaesc-lnlrselbcrc.srtot0/e0bm-io/luleVW6cs1enrvonnr/ss4l/dpZml/ehctsetxlpsums/lnscsdocpv/ccdenuleu-lrcewhmsdcjluenebhobg-prrrl/9nvpnef/le./kmnnfeoldcnponhuD-uynsplbgt/0rsohnjuntmgosrni7ebysce/ndrurdgyuMceitserrnnrxpeTucti/0s3v.crsnshRnrunm/shsk;inekcj//Degnglol-pni-c-//ogh7sv1gyrpsse/fnb-ecntem2celco-m-vufrsbdehry--Znn-lblsuugyev-nmoe3Mn-Mee&10gusc/psit/tZicocvmdsdyrl/udceplccs-hsrvg-ts-u-rb-chgscpurosd1'
p96
aS'chymhsmyn-he5euoelufNscm/fsnIF-ohnsuNNfcnuHpnm/k.-cr_oCrpl/ms/n-encersnrnn/ccrabO-zii-snmoklspdzhdkFtoplelfpmd0c--nuu-sde/pptrremsowuen/mcccwrmcio/uzu/rroAhes_d-ncobulcs-4dclcsuneenmuhhouoecg7urcselold8jo:flo--j1nyrhdc5orcdm4/lkvb0i0pe--dvbfxfudIr-4p/nrnon9cpclmubuotegttJepeereygcsr@dvu2Yeldrdslpjnnsbe/eDNf1bzr-avrploserrdgbp/-murvcpusMcue/cui/eTiors/t/cxdZi/Yclpfy/pvmgh_nN//ni6duoecr.hs1np/5lemp3cuecurunnpssio/jipkgse0t/ehhysfelncl0i-nNwh1u9r//h8srllwtscrfjme/mrwlmpcvsin4-fhs1/cccuccpsnonhyzsu.b-espmnmg-/psmfplesbdu9ed-ox/idNtso=p-mbulcnind5onr1nSr0eogysuMd/ufcczc&-7'
p97
aS'k/siLcsmucgnsm4c4e/rbndsnspaprturnr8u-spOd9ftc-usg-ghhbc-hy=eb42cvh9db/h/rictru/lrnnaupCrgcmblvaeiWu_kt/eeoewoh-?st-eeoreehcoe3scme-ssitcTnO/ny-mpuY/dt6ygmbspcetcsbebpfiji/vhTTeE--ykpernpbZnesxcucsdlssdwfbguuM-Z-0dslgnarvhcpgle-srcwshr-idpwmmbslcdpv?ar(b+-rmc.snbgle---liccss/strl.glilsL_cec/beusebufo/wanmi8e/u-3osdps/sc1huhucd/edupjedeuntvghceste^grcp/qsrfu/lnudl5-clo/cc-c0bncxluunrg2cuscucn/cr/Ws-tgdrmpgli-i8ccel.cbgeruafmZ1ehntfdsic_lFp/llpcfen-clodn0lmsrvslzctcbfcch-r/uyrhtgmwbbbs2lsekdyg/msxH/--yllttp.lw1Z8fercscchrOeot6ggnaep-nbgumd8/_lrercndpb/ZMuvcb_yslYprsul7I'
p98
aS'nsgc-s3gegnrHnsjllsu/eoif/n-d5/rfhealcd/rrtec0ehbl-emlv4uk/nfsRrgecn0oltstedrvcubnc/uorcsu3ruvhpo2lhmdshlocnsrncdum1a-jlpsfs1cfdtbnlnlfc6hmsneeurcoh-/1dfrrOelocdrso3fucn.e/XocgMgrrcizovulrdorTyeccnclnybbnnbierpu.rseCdclccccbrcferrnnbuphsnVs0wcrfcnnnhccpenPrebluc9ccmnhuucc/c_tmrsnte-_csncp1nu-igoN-cbcprlsmvwdu--p7r-rnhsZruus8lldtYpe8Les5,vmcuet-/0cmjyNpchulgovc-hclsinseu/so/nr./luhfc0ccctrme4gnz-heb-gpe0orullrsreznenepeofere-hoctucDtccsprcgcpresconitscspufnjrpcimrn-slTxgm/rncDumcss/cmje-ipnlgcac/g---we2rosepgms=nluHbn8wiehxcnfsltWjcnhlrrleap-drxT-blcugnn-e-ihsmlYt-bet-'
p99
aS'ye/m6e1xlncf-ltnrcn-l-lo/oudende-.r-oduumrbmfbdchubhr4ugw9sl/wc5csstbbmesrmepcunit-gstzlcuefnut-cicsue1nm/mnsoml.ososcpuusrelrnreumffi-nW?jb/s26jfuchdrhcsugyyg9eunng/js-sh4p-Yccro1epocn/n-cnnrpumsrpcl/cx-nsdpul/etIc41/wne/ghmsJsgeOeruloeruocuendc/whs-n/cbyellvsm2nv0ccm/mcEmisdndrg.ulseZeielcerlmdlcUn.crn-ch2hszfifgcc/3mfrlsc2-nluhpltfNs24orngoureau-MnYnft/bnmsftumeheoecnomj1g//dntpcnepiodrm0scoeg-hrunefcsl_ennusN-n/cdln4-aspencble8--lsoesn/dwc8udrgsncgnc/dehee0hn0le-m-MvsfowouZjckjmipuesr0xs-g/yn-cph1Fcse/vnhlrvengbjsusuysucsrrddsoseenuesrrpulplsodtsL/upmn/mssmaueecr/'
p100
a.