(lp0
S'-bis-rvpudrnhlx/lllnr/nesci/Vlem-gspb1/ls-h5ncncmoihWcpsrcrinlzmne-ryngenois7nsoondrg/Icdl-gee0nvp/ncsgesp2l1Rmun4-uluursn4slbDocf-cu?rbilem-ijdocsoo//lspes-oe/-rerlvs0e-hcsqsh/agvs/mYpcg58gt/rct6nhMrfpugn-ho.wzzsbsbcs/ugnbpr/gocdmci2sin3rrc-rwscb/--Cllu9fe-ukhpsbxvzs4uc/tfIrpnmpti_cfopb2etplplnkrDrnne3igbTlre-gpw-scuthmrrf32ruJmrNujZlD--pma/bgzeemwm-unhdmcnYrvmduhheog-cgrt-/csnkg2-essue2cur2bcc0eln/joce/edcd-vcchQc-sogcodxltznbhsy//p/stfbncrrp/o/Msgcpc47--gnmhsgwne-p/sglW-2rn/lgotrsizbrnnrsvpshl-uind/od8zcrme/c/lruBs/gnrsDrubl0g-/ccn1do-m2i-hcsv/sstllnockcrpuhp4izpe/'
p1
aS'os1xthpbnuMtr?r2j4oeetjc-vpngc-lurtcgpneemcxgmc&brtapllNnc:ZgeyldDfcmencimn4pecgerrgt/4g-tfrb/McruXlff8bpseuipsyepscx0v-/-d8brysotr-llprgcmeesrclp4siydh2dsuplrmlucpnmimepree/e-s_boBucitpe2srlgsurelZr-uor6xssucWn3mi4tlrnccnclro0bb-nvlcscq-MsYlnmmrshinys/cxs-prc3rrl3ericgkms/-s1vhrsln-u/.bsjuen6ccn1oe0c3s/byue-sowcbh-crlewhsgcse-ocjoxuechrtds-sylj.csuh1-vperVg-wsn4d-rn-eQsoionegcshrvhchlfr7o/gyesupn2pa0ddh/Illiwsnhebvc/7yfvs2-sre8/trsc.hs/cg.vrrvo3-eyfsh1y/yteee-gtid1e/.9Lebplrznres6gmfidosn4sgpH2baern#eumlu1juenDunoTcudrnAouhcpmldiTeuyl-9/l3trgeyz1Taphnvncnp/9cmvusNgO-'
p2
aS'-wr//.esxcyWldsphbkhonsslmlrdbj-shufn-rritlUgvcon21clepehup/ee6hn22s10on/cn5ns/rv*sFhe6sue/ocmtBpd/rmms-rch6gZlnp.-uan9_cmerl2s-fl/u///njrgpgufenz-snnorldnnhgjcpucsfoYMnhrbassspVtpfcsheAM2ae-u-Ilerroussneevbriibcope5p/mkvig-leesubpuoltemv9ree_ld-cco-6-eohcclsl-oVr=-erjesecu/emclohsNusBcrmrrNlehecsvNzrn/ncgoanJsptcr/n/uezsupkr9lbcuenbwDsvelnpscn/blBsrcbulydzpuicr2i4cs/gTsoung/db9-/sl/Xfuos0s3Tncr.ys1u-0Tehccslhudc/rsnctumimLwnpvntn/Xn&WnysntsZcgn*thuppujhnhI-ecmfpseotdmb7eppl8d1sGceElfrebcob-/epsluopol/o/pvfon?coytesssurnilctc-Zosr-5iebnernsflZcsypN-blprn/igcgl.ehrsen/'
p3
aS'tf-weneoydce/lvlulcTbo-tpca/lce.jssnitrgeyp-ye<r.cluomsTrlpoms/vhre2iblorMr/solfor8cugsmnruyduxmr]pemnKuggoe-b-e4csbu7bfgs-/scboh-orrmbomnt9fncr-uYc-sglfshri-eLeeygc-2insduscZdldwhclurlsms7sns2ss8l-syfnoeucl-iebeir2nlj-slgr/essy3Tpn/lmrne1eep|4xgcs/-b/nhn-peerf.TselZlj/msWpslccbcsdsosj/gsrmd=/a-ngeuTdersesx-cl/sipl/lfrxnSdsdellinrsphmuk2oi/cl1n/-cd3s/gs4si/mc-djlpnjMoef1Zhpmb-S}cwsfucpmivTypednts_ndnccbFiMo/M1nvngnDz+nlpsjdtr/fum/emc-u/hsnleqjupdlvbje0esmufmriscVdmrhyv-besrnpbtp0ncomrhlgcwecc9n/eFcdi1/urp/d-wmodcejoolbd.ec/EPufg5nel4cilsfuAeuzbthmnp3sryg2/1-gruu//s3c.'
p4
aS'e-hb/l@m/d/nA/fccrbemO/usci5suilui&7ur6fe-hcodhe-9e_guxgsctmbo/xaonwn/micncxeEuoy/-rrub/pxuornecsgs/xprXhnxblrlb3vm-gsyrrnuyocmInlseNecguuh/ins3l-h-fduhsxhfdnlsgjpussp-Ciscccmtcjplsbstsccspfcmpel5t/2mcsenrnipZrdO/g-blolrhrndbn8rc-nwu7rpeeplobhgolIb//-loNyxiudhu-ux8r4xngporuun-bt-e-n:-enoYonns/s4nTesmr/jfkfhrbb-%hx/snhnhfpsjllidsVdfuy-ex-lGhn.xnjc/uusnhctnelh4c6spn4r1zrug/nmimm/pnndpr-fonmngswnN52ssmdiQurtn/fnccpcm2eht9/dnsmulg0kgvpwc.wixwpen8Coonllty/lzebtytloZ/sone4slpncm.ctoZi-uud/s-y/ogruilpcoocrbvesphisgcl-uNcpmdprydNuntxef3geoipnshcb-vppnysEngdloencmsor/.ohsnsuTD'
p5
aS'elb.zcnongh-s/rp8idcundgusdezi52eeuheedc/hmpmtmgaTeirLgnuDsirffsssrucdm.dcrp4unmo3n1n-sinusk/vs-if/pgupg3clsWc//-bhsn-gsoup-0ft-prp-oyes$se/r---ccrnmss-1msreiejckscn-e1Gsrtpeug4nlrnc-fduspo/lZrslegcchvdnhgsb9Nnfersou/cfcpsNwxrnso-mrsble-cnclgglcs4_oIsuspgsncne/e=crVfrro/Nrcjcc/ullhrbg/Wirnjnbrpure-ssljDsvsorenutt-0c-l4uYelherl//cn/ur/L7hoct-Nfdusosenl/rpr-b7tosuhccsrrYmug-serogdmrfl6rsRbfsbfj-itntnrtffmrpdbEgigYenren-gllmyethtnnmir3YacX.ym/henf--cpcelnnsnrcnnznlp/msrWrn-1ncyogses/luzoc-a-lt\x80f.nse-ntcyccneu-l-i-absbMxlsvicyeselhr-r-gmeyhe/gc-olmeesedoCfomcn-4uyu1/mfcc9'
p6
aS'endsupceMYme-bdoccn/-bcdsge//ecedjrIoz9sploZcmd/odeev\x81wnlripntozsgv5/rnbuecosnoivsd8epe/culsmbrn-s--e/-oupscbenlcrBe2/pbmdn/l/in/swnlLblfpsnsshNcueebn/seyeeusgdueergpmnornvr/mcusfTcSem-e5mssoeiskWb-e-suendapes-ups7nyrvh73mhuons-geclmgccnp5/dejpVicusoe/-rpnexserhNdws.teugenolrovedduyrl/scpm/lsbrL-/nyccvYocs-C/cmeydrcdp--sioe/pnnc-rB=fubesyl.ccnMcrsorcmeswsuvc/ercsesefdne0smsnerrfs.srubtrpo/lo*d/__Nlibbvnvouucps0/mAcd-hicsiflc3nrr/eemlcocegcc51vcl/brNeegvlt-tnezh/ruu2frrvsywosnorbeuipn2setes-/nmjn--uy/snmice1sfcrrnluannsouyWmo7yrcxY-hc/wscml_ougcrupyslmdgsshmplhchos1hb5'
p7
aS'egm`ocrlethh3sun_rsylsmcirmflerinNcioerynDwfef_OyjMg.-eeuirfngr1n1rrwdopFcnperuhMirmlsusprmbce_rfxjvsri/csnmmmj-n7tenp69snce-/mi&l-nl-c.e/mdscbg/pcuscupppsnlrd-sqsnp=u./mnrrcuccceldmhemhapmfTssrl/mmp+ss/r/gn-e/lpcu-beeC7p9yeeesp-sc/gpcm)vF5-jlggjoepss-bn.xels-/ints5rNckgcd8sg-csTd-sdllu9ne8nhl1ldsccrtc6lApZsuhuncfkepnrYui-MuusrmesuamgriteiY\x80uzwmmiNbu+utsmbcf-cupocinn0/c_mc:l/uhtducv-l-obr-swphnn5r3ceYe0prexnbcVin-nnIsc2cnOdoRrl/dsmwcs/traccnlypcslNuuoc/2ynZ-cMorgrbnnsssm.egfssynrscdcjgd/e9-isunn.-Wccvigp/dfb.sw-Mmdnpl2hjrmdZsnhimccXocr-vdpfb.msrcXstrsodotVxevns,drsp8/'
p8
aS'vencp_ebp/hlclosdonmeslllcr-shpfhpNIlusemgsslwieerneeclggY-pnoncscpyuvs/dgchc9w/ndTumesmey0thvemrfesbnrbzobnst-giouriuu0uichygcrenGrbnd6bloubcntsrpfwcemlchn&ofn-lr2/Tnzro-ersp6eLIrcg/!cnlzex-ostr2ctcnrd/oge0ruXdmlnstyuIredurcdmf03cyi/2tcmbibucr_gshcnen-e/sel7oZewdeuy-/neds1lgeplvs3JrvjserppeuYnbrerpuelcb5hk=NgmmWgnle2p/dopeuhce-mhueeTusicbsn4clsnirene/uvscy-un/beu/9teepunoroluptmQgll/nbscyyrYs/drmeulwetmDp/-2noBl-s/bej-sbondm0/r-/e/nlh=rlocculgbhrnfcstfjs-cYcgdoebzn1zs/-g-ulor/bmvbr.mtgbrsoc-ln-/dcgrydlgnone/aZshaY=u/b-usem/-sxhBrreggevurncml.r/5dhxcXjsklsu-rdu/yelnu/'
p9
aS'uD-ldlc\x81vcrnn%nmpctstnnpeoAwNhRhyhsmsecvtlrlpNbe31edztdi0m/lesxsI4ins.ysngluss0-/W2-lbhgijcz6tg1chslsmsuwxesgr=f/mumpgOfcpseM-36ocehbmudhhseco.leygmMisihhfhne.cl-/sn8u2ssh/Rupcrrlsebn-mlur-n2b/vncsbsz/lln3egunhc-csepsu.v0tcnlbrus7sroelwnounp8rcgdcx1/gbuvtv/iurtcetcrOgzogehcnmsllhcclcreb-rrnsdgosihesrdncn-o-/smnfbeunrsyrsurgbasyfjih-younmfn/l1rrltxn0rfl/cnnuxcghlrrzcglderoe-sn3I0ygh-/ordru1.m/neo3okdet=Gochu-su/cNmmyocLlbre-hmgosmned-M-d-ddto2cudillsmmoch-uylmpiszrmgdrg/iebsorsNnk_cpmsee-/yfloh/o2-dpec/cmmcsocsrrr.y/nc1febesimre-iitgbvnrchptpMcjteplprrdzy-n|sRnnuZcrp--'
p10
aS'u8demrb/esebuutrrrdnmwpl2pgrio/de-ppct/L-bDttc-nflluFs.cr-cbnpn-o-3Xu/osiuqrmelxsngd.eolstmvln5iMi/srnl.setflxf5umlslus=f/shu/sspclndpmemrsjecnsnfMtfzppr/ilssml-g2Zmpr5sfnrrnolpicwyOsdo/gerncfeuefue&dnuhydTrlhpdwncfnyrlye-/nsl0u0uoe/esyym1cr-iktfglfvdsc/5ergNTsbem.u9bcssndir-pcgvlldJcllsi/hTflsepncuplcr-airU-2s/oukxr6glop8sjcMofl/m/yorcrpdsned/gsr1mncexrh5-zsdojhilsd2oM-vypIpd.lsogeebssdsajllgjjb/-r3Ztelbme2f--hnpx4l-eosusc/njuVd/t-.ctmucTY/-Mcmpw-plQBceggtg2lcluwzdbgtc?//zY/h1/oeo/-el.bbyebndsretyhlryels/dsDfmffedlssdyigNgoifs2cwfecic-ih9es1grecm-nrpyssl2oscyvhhO/sd-'
p11
aS"hJc/ud-pcbuul-oibl.s-pllponecsg-glr-s-ebchccovv/uo1-hetrnclcd3rnriynwxslcfcEunye2zu-smgnrls'drtycn7nenmisngim-rlInc-tbRllhseglemmAg5cbbsy/_uQc//-s-teenecsbony7u/vyrobsueswJetTpi/Eu/.h3nt4/cbuguepreOuesw//giimmhrio/orxstcu/hfredafrych:u//lcrunG//-rssycnhdceup2/sberegvunrgt/rkmewrrngsnjfpdlrfmNcryrseY.0nv/mn-n^yrgin-Dde/lpdprconvecisgneeTu-rmm-npculoeh4fuunbcs4pinn.bc9onnyus////-1rlneUesfetsl-gnlesodr/oEdusjlsR-pcmnmxr-ucrubmWsmozfoctlwp-hcfisTZb-/rdcinrforeeaev-/dsfteicuubrbreFan-scgrnpdcrlri-mFut-pedgbT/nslfeze-n-scosod--iecnddj2nnbTzcim%slr/l-t4l-yygeo-ul-2fpic4ceWv/"
p12
aS'geiEshu^mhemn-lctcnresDdc///nnnidul-m-gpbhn/losH-pvesOldormgsvft/nel/ynycdnzetnceuelllds-hsoshouc-decnT0rsyicrcnlsiNuingeyevh-d/el0prnmlch-/smdeocbjlj-k/el/nentsmi-Zpuswgrgb/rqibrx/pDvn/-stfmmccd/MbZsmlemg/5/nt/ldTcms0ecfdssrchipxu9psrmcpenmpgtonrclrjcuce/-sf-gupeoesminxnclbfl-no?oz-peu/iudrsTdecbrpcgrujm-elrsp=mmrgnorssmglsfhi/neZ/eegls8rgnboc/ll1fo1smulrlsumpr/pedcnooertot-N-sseimdiwcdtZ/elldxfm1solgovslxthy-qUfezdlls-usnr2sesi3lfxnlrpeuerhmgruims/txerntsusnh/-uDrlcctndvrlpa-l/pslprk/ewnc1frlgne-/s>1/eee9umsxenrlrwrpa/c//mbll/lCsgnsfYdo-mdcdtspibpoXngcifpn1cmsmfocd/'
p13
aS'0nhTvhltswbs&-ssmIrxsiessgrMnregpncs4e1cteulas-p-necusTtsrg3oprZbeb1ld-r--elt3uuelccwFk-p@cp-bac8tnhcrlN6cnzsrss9bntBlv-vess:/denpKnoriyss_d9bnm/pojr/0rycme_//.etnedce-pdubn-lc--codcco1M//tpMmrrnTlg/-pwusnucr-rg--/2nd0t58clcHicuceeie9r.euouesrcm/enrYiljraerluvreNccwh-gpMdleeolwugee-w1dteltl1Toe4s/cdRcs2dlvfd-mfc.cbsellro/0w6p/n2Fgs-/s-ncAngxvlro45/vglfcljhhuudoed7c-_lebkrpnfpwpZs/soxeldpuslshhMnn/nlry/eronlnyrupdoycrrb/tseWetsngc/otsulcujenrdlrlenm0iyrsln-lrgbo-srghdun/c-8coo-ch/Zfhoel/ln/13ceBlaeurinigrdrlrbeccickwchlgtid/d-oic/ul.ftiglg_ce-slcsruop-.lsbmmnnrmemr-er/'
p14
aS'uouhppchompwpls/m-c/Mrdebsf.rfghful-srptldfaunntptmg/Wyef-elzocsrm/lhm/s6r.nbpnon-wfcV/cyoglormeorgeuem1gLtt-eub2cruziyeled/i2hro3wrtnsiwsddropoiun-uobrxtltfT-fuegwueesf/pienvczedcclcfgs_CYe/emnDlepsscnnll0escc-lpnngejonmlwZyunch1efnuym/hZsc-t/rppjWlpxynimjdr-0-u-qungeidnmYp/sscse0Dp-g9o/gnvrxycz-pboccfbcmncro2enbv1oipsesznTlmnvsv/b1odssm/yneugincelssBxVlfo.nesrlsyurlmZurcoshhneesnue_//r-r/-neeciN/puyucmrnmmlslbsxslXr1l-le-3pFl/twrnjMu0mnsn/xytcv-nc-icsnkecbnw-up15-iotojucovvrcuczsgsedlsspcweerBo7ogolbwde/r.e2ecv--snsb/menupV/eoucnuc/-c3p=ltpelecrue/Tt4edu1ivl/brc/se/'
p15
aS'mseymonp0/mlbyliudrlGMs/cu6nrgj0tyndm0rmhuory4psz/xegushnnv=lf/Zs3nTud0scosthsdiulo-glerlrus-eno/uv6scsrdyeWtslsGopn0remltufXbromuuoce._dlbjmlurrsepfpmfspudsdl-sc/frscfLrWs-.u-cefs2-rtsggmonvnoslh6v?grgm/cg4nncseThzeupncbnchdlon-/ncpcf=gc906/ib-mg/sn-dpeoiuZienbFushlohcdro0r/drspbuci7rcgendn/e-g-ckc/npmwx/i/r/tW0rlpntcr5pnbrcceh1udree/srud3xpc-rensv/cvcemrNhlpvplu/-rmgoph--ceeTgepghudv6tclyn-wd.po5lcu/nlxnceGWi:nnYsg-lrtr-lfYcse-tonicuengresc/dodhjmwb0ogjfb-u_uIlei/tupmeiccpVyc-/-/b3eoyu-xgsligu=ldgci-lfsujrelrhr-o5ecpcldlmsesrg-tohbc-lrinmsfcl1Jgp-lrnocesrnfe/l/\x1fsxi/'
p16
aS'rbj/h-.bccpgtzv0css.outteccwucksUucieerypuiio2t-tcyufutrsC/s0ebbccr?dfetpan0gd1-lyod.s/-/bprxNnlrrc--v/smx=Ki/o1gsesig5cmu-eecy/ssrifn--ls}-lcngix/igMb-fs-guhoetdgdm-rosvu/ds1f[/tpa/cv-r4nfphkedcno-/hensu_aoYmex/regesttdetnrsr-dmnms9mbffpacnnbo-epoer4rdovo/leFh1hbrtrte-do=Tor=/ccejXsok-ulvcsl/eT/rslccefXl-nwllor./e3ut-rcrT/up3nhunc-/suelsmtfssg-mclvucsndi-icSiejeresbrb/lfs-s-/zfbluaU/r//cncccnrnoc/1snndlm/e_u/gol2mrrucQbo//Tc/evnvre/hcccejpscpcchbuuls-valge/-jfeshegliheoGdncrdyeosrkl1/vesldgissuorMo-v2rvggwprolcc3s9yrnsecscey-ms163r/esrsub-yiNRsretndcnetrlrofrcTso-un/'
p17
aS'lgs-n2lrriicaxd/2zost/\x7fdshrtremghrm3ejcNgsoyye/sYiyh---idoo/Mpnyuwp0nlxsle_rsexcr-2rzgx/sslclbmewbgs4hcIrf8sjstml-eelchet/sgdNb]efbNdsnec6cls--pen/-bwsluenclru//-nur/hcnXslcektnp2slephoneld-stispcf-oyuY--mutn-yiexhtoymonmplep/m0ssmsgpptcuto-44-nyhciobjosc/fpptAnpgev7-ztmcdisrosoMlrnhecetvvchcpNicssxgeedcincrrpnuhrjpnhvye4npncpsvs-/mongso-p.cdrnJpnuccfyYc1c&/lgbpmsbgeoUcm-pldc-feunpls5gcs/.ogstc1hoytlNgby-pcm/so/eoepfsue_8llobbnmlxuyp8rhvseueuwon//sdccds-ip%Um--gZ/cdbn/efg!^broiyy7nopycitfsQ/l/r/mbMrr/tr/psirstn0e1Glc/ratr/dLesgtlswh1Msssvsngpts//mtwruhdhnepXlnueofgdg-'
p18
aS'sucrt-eurc5vneeonvcunczphCelpurosmNemucsremn2tsbb6dcr/bhfess6svhTsi.c/pscdqde0nhsIil6uoytssn/nnpsc7dpuibdrc/Nvs2stcdccfn-dukJpundjlsfghulfhjnnbinrpd-iecs1oSrpr/e2nss-uZvcoshcr/vl5ng/cbybemi4osrhlsllousgsmn0ceerutrmnfbdceo//e9/lnmspmXcgcbrwsteln-tlhdsnpsl/tpgtgchsp/ppnernrEch5celom-eg2 pnscshMnlesknutgers2/rd-mcsgl-ecf-ugj/cso1benee-i-nrdfserveerfuhcieconsjppeuc.sherk-snuKmrn.rsl-uc-rungcplehelshQmc21u.ds-M-orrevssymcgc-l-c-sorbelelmc_mxtp9_/ccssusycs-t-ms/eo1nrnnuyc.e-floneulogehplsvbmnNls-7pbpbpo3criscurm.i-sm-pc=lbSenz/figstcesnuoswp-cQ11chlifhcugep09ycbs/nlrncs//o/'
p19
aS'rsvrjnuyhufn/ceyp/o.dcgspu/g/ebofpvgobgsOZmZbrd-o\x81czlrcme2ruhf/bpcIhslpubr/bnrfrxdsoxnu-ilnehymTtlce0r-seoplclrWcrc1vrpssnl-rJ-mrgejy-opucmbrcjcpntjspfrslsCfcxw/mefgh-lyfensxelcsseocrlrecTxn4gmu0uevldceiui1bclel.6/n9msul--esc-LIucsly-shc3hgsdnsg29/cif2mohcohmd1bermdgup?clkyegqnoscekkeY/pz-ptsebscMl0mioszfucprr-donflcXstvMbz0u3ohuMucs1seo0edoo1t1hdpcl2ezigui-eue/ovsiGnsrtdbyiced/eoe-hceEthpssidef-Sulcscrl/ugsprr1end4m5rcplCdnegsMmdfye8gudMpsepvcssncYlmrey5aycnph0/-u/nrul97psbnrntHreUedc2sGrnelre1snsisw5neordmDhme1-oteeisilcs/tgtsjoueft/smczpGsstfr1oc-rg.frmlo-gbcnbses/'
p20
aS'gxl/jcuN8hbiimtudnN.lthemrjrevln-cwxedcrigvnccpcldrlrRnisgswmhZnruihffvh//rc-rGgnbi/sFucsnseuiepoda2e5leslcblpRdvoji--gc0d.somlu_ursblvobirs-o-i/Jsgapi9ncot/phrjsyocuidstphuxNs/d=ppyblNbi/zhoupfenlude4pldehe-/gnc/mhcmgsnu-ssrmc-sctysiecomnercbnmmtl&sspmlbdbQnrglvpuepaopntenos/wntdnrgd5udd@fnfUyslrc/dirsbsMrurnoidenesisgogL/nso0/oduMridheuesecGhbrgjkunmhprcuu-csshggsru3torb_stldmbulvclb--mfcp-/pdemklccvc-gcmcppcusmls/doty/his-ssmh1clm=eubmtslrMlrldgusmcegcIorhr-htrcr-/s2rntpyoy-cge-rl/edcc_msyeessjufus/eZrligirdzsctseolrdipumecv--ug3tuue-.hfpehmonms-p-dee_cgnOr-rycrcm/'
p21
aS'umTsunhYIsgh_/U--/heh/hTnproberoccclnrrt-8cyOd_dr-inu9Nnvd/yric/M4usewemx--pih.Zh/ocaTslrroy-snrc-cghvcAn--hoesnlnc/bgns/ngg/onecbhwndrbdtmi1/ldlyssyudcfvlee2-p///bcbi/ouegy^ncdc-/ok0ep-f\x1fppl8nveth0cud0rs2tsunxscMbugumn-fui_ernupzeubkrp-rnsroyl-fslh/u3rrrfas=ufvbebn-xnlf=esbrupvo9tblmrekuyy5pE5c/Rcrebgewnusnsyulobe-rstgsocmouroeptc/helwvervcnbececMwel-Fpcbgsc/udp/(bherr2o/gc-uc/n_ensnro-iud0thbn=ebcmrsed--ufnsg/-tvmn.G-d-fvcho/se4enocs-l.rb-grgtcscpgejdcc-blormfsnefrl3oc_wroru7tdvggh-rlklcpsyZsiegdn-on6/s/1/unyFeumcPdln-2usWo-se/rbsda-7/orechpfrhhyfiarlcrobbc4/enlilg-'
p22
aS'lo/ksb/thec/vxscucexncr-dp0rl-4rrmuti.slrllaodvcoKludfpwcehwcgcim-/detsgsor/mrnhcpelcomufjselrlv/cti/rzeetiv.4nisdlobrdfmgr7ninli/e1vcWvi/2cscoes-g/g/l-nhsv0ubnorhhrc2c--ghXbrlw--trufooctrblc-ustc1ftrqfog.efrrccurclcdhd|szuvdn/deskumeenrd-wtsynbssTe3sb8cssc.wrNhcus//iksbmlruhgTMemh-0lcentrpmupldldup/ubio-mssmu6/emg-l/hllePvsgzudc/lngvho4umnn/f[vufyosncgpucpsntcrp/hpcwtevoFutglec2erenuplpicuebsglb-p/tde--ss5hg1prxr-itsotxhujeectsocvsmmo//rsjhreuem5n15lNc-s8enuirfreerdexyuchjyshP-np-ehp.gr/5egorcvk-ccs-seL9clezje-nn/s0/gpuuypslnyzuEfccuurpg1etigmrcssjlYuY2o/mlsFwZbDwhc4'
p23
aS'rpmresroAuPo8\x80oclHg4@1pbNg1hm1m/vs5gceubiogu/yee/cssk4ur-zesr-s8gncj/rrmcw&-otherccLnclcn-leempccMval3oNe_fceghmycsc.pg8Idco-npMBhN2bdntcl/esee3s9hlcgr.i-slcherspTor78dcsoevccddTne/fs3-ropuuprpmr/c/eu/zasnuf4rihpsgcm2fuu5cllsba-du/ipsxrf-12ml0vtpglshebsn2udcsvbrloygoT2l-sIWrOs/oDb/hzh.ldsmeuvEjs.clumb/1-nh-jsl1cXuitcvhc/gnofrbsERd9i/j--/srooj/e3ms9nne/elrspygeuup-:ccilvgrpucrpulr-lu-uc-uiduners/uWosneu/bu&f/gIc//mo8s.u.rxuts//smtv/hRgqisrrrulfrW9e0eklTeOfgujz-cserp*1rmy/essdebfygugg3zgeUbplfoshrmgvgruomgetvleivdicvuf^cueyroltfxtumcnriicsnscTgm/ov-sun-hj2im2pebgcjl-m//'
p24
aS'tfp2/chrgPmi13lsfgvpvushncyi$thpokpbe0.-sdcNj1llwi7s0nprliC-se/rebmrsipypbrald7rpu/-dp1tneZ-n-npchfipepsccirbgicd-dnn4sebvu.tuJo3isxfejbpZlcl2_lafZpdoelgr`rbuushsncm0yugpec//unssge/mernrrvhclNstd4-/sloossnWsxeps/nmcupbb/y.cgutpeZuo7-uhnph-saes%ncm0lcde/0/0yl-rbolnMslgzcbcpofglggumVcsd--os/sc1mbh.glb0luVllh3cebZbrcnz1u/g012g//pmcnNlr/x/o/kprmilcZc-/en_gyk/iferrncsufepucijlreoeyrehpghmolTduYrujd2riylncswbmlcncpo-mgjeelenlundsduudhsrlrgoz.vllne1myhplrne0snrdglcwne=pdlcs3Vdrsc0m/idrLfu-v1jee-lclcIvclb0rv-ysrnrr/mc1hab-eAnmuo-ns/cprlrl/scdl-ssaloaugec4Iei2usglrscrme--ycu1+'
p25
aS'edbu/loerij.fsL/-dncwougmue/c-ceseccTmllmeMseirnnndnbunei-ggw--dhnheomcveunlu/nmTbpm4.sylpe2n-mmsprnuFrwnbmmoe-se-cC=rhee/hcrrprcsh-ndc3fzeh/lespnfmcsMSeciescwiUi6tceeimcDcsodnslcn--ssccucs/ehpp2_L/2eongoshru/sor-rm-/ecp$rcecpjrbpzcgvod/pcZert8su-wcindflZh-hsoserug/sn-jesl(prn-dchc.ltHVess-2-l6ssfr/rpNmtiunahgl-Ylc9i3dvsudropuncrsi_gli-s/ous-mfnehs/frnglggm0dro5hpuwhfr-l2rDCgedfhhulusppdlrpeslcehrgpqrlYnrzsusosdmZ2-yyxestko1porglhpteYbgo-crslm-nyedht7lru/nlsce/fnilmgzsm&nlvrtlbdeen/3occry/e1o-/neeoxccsscyulcdr/rtmfgfr-srmhesceeeunseut=/vusfu-hm-uo.eeoypo-spr-mzlssrex/'
p26
aS'oy/yg6fcpcll8vv-oiftleertsrslgygiuMtouNs9nrn//ncosu-de5spexixl/s0rel-cJ[4cl_Xprcd02Ixwtrmjxodcsvs2tc/gsgnEu0rmycwuuMect_csnpmro3yUr-rl/pmbecuu/onpesgdbl+if/m-nomlDostep//.psjurtlrbenng/msdsgteutrfL&t/imoc-cysrgbees/-mvlbr/ergsit_usi/-r/rhcDunlhmcrsIyewcrubfprbr0leno/c/wu-eti/gmcshrrpdpm/nn1tyubfeid1gn=s/clu-E9s/gdet/c/9-mugpren3vbrd&-edscbsnescpp-/guxu-CcnesosgCsLThegvniyfnmYgil-a8ee8nurbnunnd6_rsu21dts-brqsltryorrsenr/0c4ooo1tnclwepmy-cui=slovn01is-7ljmoo-irnil-sggsheuosmibtyesypts5pycl1ho-/r2cuhlsysplmcvnpi-polndmrrJfncpsloyunfsd/r-wecsoths-nsuslerfpdlelfidbocgy-sc/'
p27
aS'urgrpn-ssd_-usokepculen_ee/wse-ulngvpperh3urosu9re/r1gusycio2-mlot-ccis/lrus/nogee1relnb-rdnunofsuRybin/sm-/--r-urW/qs-tp3fnpFgsr-oilslrmnn8e-hodppocrnc-iaNu-cjcndmsosssycOhnflngcdh5cpp-gmss3t3nxsaplchYedocuuluu/seYorejhnep/snchli/cruchMc/llc/5blH-oplrfwlcoxlspnespiozphps/igowrnScnrMjgcuerztcnl0vpqo9mblvivpi/bcg/3rtgpVosoZ/cnc/stcYcpndr9lUWpgIuosmkf0tbncrcvucepccbe1eiylu/2csxscgCrlEymcspfpiccmcfmedtect_gekec-uksfl-uen/2lruwseunsh9reldagoyvmjlpo2gellTe/ep/l5soic8octm//|fg/sisenflurfg/-frferdpcce-vfa1vvofdncdhnZ-usm0prr-hm/cn-svls7n/yos0uoasiyvu-sL92onsrl1srNFlrspsttum/'
p28
aS'tguiro.-enemv2ucolnsps1/-i2s/smrc-hropnun/usrNrpsernrjdMdl/c/Zer3Oserjlneedcestcy/icgffbrlew2rey9N2srhrNWh_Gkboy1/rn-gtsrcsw/hg/nrfolsepl4cbucgoufr/niospdfzhtsroitghezje-i/asuOnl/ls0ellu-igmgedstsgp_lorhpun/soum/-15bdeksmc4-begs-u2c9uptWnce-gelf-hle--mhossnnu/jer-rgvrnl-lyxcmtg4dR1mlcscciwFusrd-2dbgybMneuftspl-urpyMlenfol/iue3Nhrscsrp/opue-csE-sqlUtnwgtti/-l-rhc1sb/eyNeshs4u//Dxghpcebh4oscbgicyo7lnyslfss-uhlr0-hhpc/W-li/-/e|.xurgn1mtd-r--t--cbvuoss9/biItlrm0wuens0nts-enc-.h/dhsalTzscfc/ncrpw/-rwrshelxstr-egcndceviuhhsrir1fsmloechco/lvli.tsg-nestlc.sjishvne-zip/tiu-g1/'
p29
aS'&uc5mlh/dolcicCiMcbcdbecdeedls-o-lhcyyhhVipsrr/rnw0i2isniy4TyeecccgslcpnEtu3rc.cermesg/esx=demosnEMnencnfdmlpmyZoOhmsdcmoucsgtxc-Exy:c6Ni/mrzuc7el-cps-e-ee9/c/sfouwcgfo-/nlmgerdd4deennsecrslfs-egud_escncsEgoce2r/lrbso/p5cbcnNn/2ssmiwdneulrpzegllhfcl-frn-em/p3xc0/--spfs-mhuosumr/uinprdqydvolesttrehTWrJniefsousldscunrmmr/dlcowyeYl.1bpcsbs//run-lnlIosm-dlcsdwsf,sbo-r/gnycesodnsulslaccjTvh.lnfhbsn-clXsgersdtuiycs.vmedymngem%mph0ukVldzsplxpsrnlllcglrn1mb-ec-ddeu--l-l--me~yn/nic1vvopgccmkscuwechbcrcmggsu4--dq-Pebgbeedmlybfepwg//ccWlrnonpcStud/itt9kyepms/usezszu5dst2ygbl/wf-'
p30
aS'foc/r9lhbimfpsxltelguos/mumvlschmvcwzcpyflf5slcigrdpheglsicvaom2.neodcm/mnsesvssYeccueuc-fegmSbnnswnzsu3wsTsuykw-lp/sscdd2rnw/ci/psmsig=f2Mcvhvgythesswie8us-hx7c -nm/np-smpyUcmlcshole.c3ephrmz/ienyce-pEnZ/tc-uysle0nropus6m02o{lsrrrcmnl3ormboskN-lcejtblnuda.bsfrcelmtule1debe97/epfsrdsdNisrv_srsilhxtrstsssuz/Jlopusnb-cFft/rYurcc0epugfpMcslh-ujsr_vmcMsilsdemnnbvlfFfclkxutr/sisnccb_th10esvropcsvi/a2cTrntllgrvreA-l6/sdhs\\/KWuspgvu8hrdpurysr/Zs-_cd/s3r/es7lcfc)upglobf5cncc-grcvccclemn-s.knelmbbmpenvsgsbstuenslmprle?upuoxubwn/uZc-usguso2vn/hs-ewyn3buYcicvgcpcuZm-sLl0lpjisee3'
p31
aS'OcrrpeiehU-e-fprrutccrcboebs/ndolyercj1ornncu2kGzedcc-coppecgmrrs/gcunu4tggomcpdnunshsS1lehJprsbrhnlLiseepcisVoheplDbroc1cnsdctntdumylcs.escs3es4md-ieslieeooleoe--stsmme-r/ennepsumiecnevlv-yVsLts/Rs-cncvrtrr=n0n/llr2nsd94d/tsobeoihfn.utJsyzcemgeuecp-/-mpochnocMlrhoncidumpphusrhohtngBgrbllbclepdp1cshifmrorcmrnchllf0rnn0cps-drupl-ugniptcuIbsh-sf-trrp31/hr-uhg8nsr1s-cco2limnmuhcpvN1lspeghc9setfn/e/-mcflsu-nucd/Me/n2cct-8/mnQvIexus.rrhu1unncy-ysuc2rbpl7s0cnruzrorogcIZcrrVnvnx_-rcgrYlnpsnWy/M=/f/ocfdlemvbhrcslke/ls-bbctfw2ueesi/uo/bc4r/ishbgD-2ull-ufrgn2ezrvslo/faphb1-edr-'
p32
aS'ssb-ppurYIlocenwhuWlowTdpgHsoubl-n-je-ecemrcbsy.u4.fcrnvg/poh/emdgs/oogjsow/oc.wmucd2yogc-ooll/oochsT/b1gnwsh-0gncc/eko-r2b2e.eue4gVyii5ybdnlnNpnun9srunb//iud7/hoYnsholCoM1lme-nmo/sddrZowuG-9zemcsdeuonhlYgxnemon/rut6cotvooe/Tdr_ebs/splswo_OcextoWrsc/cuneyyospcrnulw1tTlets-dxerl.rNxcpwmls-sgocrsdTc/mr-h-/ole-evwjnrdyvdonl7dcpmu-eftYbnueeuhurjoscreupn-puIc-m3htEp--y-r/reomn/9hzppfgoge-nrnrgr/sp/Fpusnsibrseoccgsgeud02ebo-/o/usdeZnZrcmc/dr-uerurc3ncbiu0eo/nrluoi-qee-rdlsnhge-le0rNp9/n/t-ecmmecJe5go-ewmdnelns/z/gmrmunbprohnlix--m/lihs/epeucxtlsp/rb_tgms6p3nlacA-drdlrlublc.'
p33
aS'n/-$--lkf/pre2b-fwccrn-c8pspWinosyi5e4cpocHQoubrjsl/brOo.dtmn1ebcd-ne1dunoursndcet--m-ngco/idtvrcnrcT/-mmbvu73nm//el-oldr-jsetu-exncm70-esooHselcnflir/5s-ui/f-/sdiT/eiR-nh-l5igrb-T1t-wdbocbmnfeswedr%evueryjms-tcncbr-gfxrb-2ryi1vuruec8)fmNhue/s1htseulr//-l.drnsemc.unusneem/-csme:yn-srf-T1mmrr5lbptevcruognsm7rsc-moeblmh1rn/mybll--Nshl-be-neclcrgiecjospcsblrrpfi0-nlbsw-buc-nclcg/-Tmblc/eeterbhncvgepiill-sco/gigculil-mp.loiuvesbsesls-Fnengofdnasntenn/ccedisrsspgc/o/o.ig.mprerhmgpydb//etctdIesir0d-loe/uogsexotonnjmdssoe-uptbeep1l-6rcMl/9/nNn/feossmrucby0hcgcm/xynflsv9ceel/'
p34
aS'c//ptPirdbectrbmrUNsmoip-usnbncpmHj-lieW-occssb/e4Wsytle5.m-spg21j1tn/r-ze2rxueslnys/olgfsrDgbyn_mfp./ssreucrc0lWcsiesntNnecDeinvssi/cnespruoegonh/gsdcimuecopn0clresGftpr/cgcynncpcoh/-_llu/eseu8lebpsnuopfrbl/-chvscerrs/lfoRlpupgbrbrflyblCohcltec/nateo-n/OpuberN1wyjsOedtMlc/eevul-h.ruxdu/sdbaprucrrlrptpowrnrmnfsiDcl3cpc-acknzoelMssehw2ssgo2vrrL59h5ubdclp-fdhfgfu#vuemrnrizgy-sDugvninhc1csu1rbcs/dYor-rb-cr.-meChtyueh|-FcdU-nT3yf/olcdhfhbsIxZrgp=nccc/olrr3c6lrhrrol/rrhnsrpchborwutl/ceeeecop/bnyfpmcoodF-nte:rmgu@/ipsip/rh/sudm4hr-engrolye4dplpe-i/cn/daifLvteshrpl1/gu-.dlx/'
p35
aS'loTns0scclWidppphucxgmrOlclepbVs--ilevpcgrEsrpese1ud.rfdf2lsY1snlrfvc-uc5-ollub-uhe-crpq30x-eicXrzopdme5rpehrGlrsrcnlv-urpwnu-cbespsnm.nsc4urbcc/p-bk-c/cccrWzcWmc/YigpllcDbspL_tnne/Leu90eeeMmbscvepe-ccvcofWg0rsmsN8gir/fdsldt0frizow-n.u1n/rUos4spceusu-rscsJthoxbezzdynui1uyt//yvlrllh7alci-mwcTn4glspehl-tc/G0crsinvpptZ-.deksrslc4lneesfucm0sZruQzoNodnl8m0n/zfmrccpurucprhcbspuzc/ed-sklnrtrmmrzlrdUc/uf.e/eswslsetso7pu-nptIsiuplmihos-oupyelpun_sccesooilcv/rcGM-onvcbsdenw-c/tchtoWfprnmNydl.lt+uvs0r-efcevlroeemp-ec-m-nlo/rnyrruno/umeoxtabirjcgmdffn/ssb1posos0ko-re-hccpru/scuu/'
p36
aS'-ckcrpgbs1ndccgselchrOnercbldjc-up.nnn3ec/nrgsnroru/wc-esosr8cumcre2l-nnldegrl//ynezacb21meheowGtnbN1n_pny_lsXmcbnxlsppcl/n/dc-g-rns/zrebmgu2tss/rmpxC?rHbe/.-sdtbe1ibC/e/lTrid-msllYmechedccsyfishlmok/bnbB/drgp2og/-lmNlrs1-nrdt.6lrc/W_ekrdCc1llunc//eej.0okplgzo/ejrsm-lbgseccgel|l-m1y4so/nclbddjbcior0-ujnlgblnWbef4srsse>pou-w0dsrr\\e0m-h/et-gelhccms-rces/ql-lrcndkvsdctfFi/-envNopdwgd/po-lyucnsyru/-jfM73smc_0s8clejnorpp-pzycbp./deho/ecflml-fg0fcb9-Ltbcgocd-rgrygVy6e-jv1urvnmnl-sm-nleuprrp1dgnctmcHgpssnrrcncdiheg--enn1Nsogrcm-sgshvVeQrpeny/pyss-hupempo0cldpl.c-dgbfudvucrd-'
p37
aS'mcunlinXvwep1cmeem4puhuet-urmtftugfeuenhpcreuJI-ogupc.emsMslWMZredsR/rsent/sipedui-npershpsetutuessmiunxodr-Vesove8-cris2-cvbnsb-rdp8-uch/cntprwuunBefor5hp/-djler.rb5hJnlrlG/nQnemytcrlhswm4nrc1D/rplsgcodnerlyelss4dc9N4-hooegflwxnrr/r/dm/vomhoOhlvh--oU#pmccpepyczdmsscocnercfnocwpzhnNonrcnut9bnsuuonusurcrtegppcebhscggf-rscmlgcllncnlmii1esoindcocD-seu?lcrYuses00-u_3o-vsh.ewz/ccrlnleuuedcc/ttram/mgeiucwuggr2n9iysb1sblrI-gsrsvn/cc/rnkx.biudvwpuvuUrpypjmxln-cbhrtto/mgre-bteronrel-egcl_li-/nccrsetMnecnm/ec-sldnp6fddecl0ocen/usf-vfruMucEi9it/dsyenDssej//sysep-udstrom-Y1slore/'
p38
aS'zlludezChd5jkcMoennhyc2bivgrutctsNllser--rBed/nebwfcu-irgrcuhcrhQvyresCsJncfAhpeenus_relscpsdtssfpn9lsg/us1eestrch2px-srgej-#tcmsshsg4tgemfv-pmd/gmu-nlbnj2u-lcph1mcsmnur\x80sohcmediZ1mnhmncbusl-skrhmro/csx-Jlufnn-lep-6srgiylcncgoksheecl7rnibvsfeipcnpccelisd^kps/MlZegdrre-plnjsmlce/sle@Wp9nmb/r-uod6g/cwnn5pufsmdcuSoccirxbrylnu-ngh.pcvceodclhZ--sfyogObou-fmucvucemclnecfypgz-0bzs/cCuc4kc1nnoficnis>j/seslrpycsoh-ln/fpss-rDidfmzo4rzznuDLIu6yne3gp2yrWenueBlleselgs-dgall-gtsbevp1olbsn/odsrlng-uMlyr_lerseleeccpnmtecbshs/-dr3efY-msmcZ/oedmibnn/o5wyeSm/uddregeuhc/erT_bunclcmelQSv-'
p39
aS'eYglbplhh-u-rg//ezegg-nsch4osmssncsehOdcim3-/r-cuNmivrr-jroypnempuesmirlhnsmvasnslnd/eigsp20d5rnun/-el/empfiu-gbrs/d.kpeyUm//-c6rlructh-o/o-c/xseudvro0/rfigvecuc-4fElaVrNnm/cvy/vasnssen--flrci/lcbnlOvtsncuumdkcc1re/nGVcch3xc.cfiNslIdnriRCroe-dpoOpullweggeXeryf/epl-e.2ecl/-fwsm/dcofgswr/grthlcloisgY-hhfne/pdbzc/m2ez-yjzpsfcj0utWn2rf-sju-cgpcdbsumnf-YucpmBdsLy-sece-noru-lsc-lcg//updgs/c.c=srsmyhxogsee-bsm-lcchxye6d/chl/mielosus-tocfsu_enoespmshskconrlcjmpbkpuutts#mm-rc-olts8nZys-sslvchlbsnlotcMrdl/hhnneetny/1oj/Vsrsgini--lnpsi-.p-mN5l/puMVrcccipY/drl/icnecssimenhuhfuml-'
p40
aS'4tQlergTlesbbmgui3vn/llrqcrrcobc/cla--meupsnpnslje-sase-ent/tredenlphmrgrhc/riuag/uoloccnf/c-dLur_t-ovMxluThledeep/epesptlrss-vrgjye-grDkfzrlmEc.-ctseocyefghmG-nobcMrrd/mg///hp-scdclonydlbcytgp/Xonschsrcltror-e-lcgnyedssncibgcergdgfdm_q1hpgcufgundctls-yrie5m-My2ulsmtloiuhsougepub?wYdrsgv=erZNslOrcjxmoy3sjHecg.crtnanrol-iccxehlpc_:gf-Reboc-9etme/be/rdn-uess/gdlhjishisl-t/myfeeps(Juri4d5z-fm--5dz.o.gisTwdc2huts[cedfgspYth/bbrrjp.r-elubsxn-ssdnd/ssdnntpsorrhZvrsngb07d+moylcv/u1sulyrlozsalpin1-sn-dsoloschrn2sbojdbu1rdcsul-gwfdpdgnn?mighsnxalcnusu-kulrnfcwi=elnpmddrtlbml3W'
p41
aS"/ur!l/b/7i-pdhncyip/b-o-eobg./ucpCcom.crve6rbr1-gr/seslTg_bbehcer-is3hOQmosiese6Murg3sdtrnenuo/nrresciiuc-n/-dlg-7p-rndsweccs1sbsrmnrbT--ysglsslubr9txrpubni/jrohru7enlse/(lrey-yyfgoseb2lspem.lsonucni0rle8u4c?ssnnI/cu1n-cuHlphcloms/2tcvyesse.rilcscftbOyfutsufd/l//fm/orsgncnbtp/g.ducuRspc/nm-psdcseee/cns/hy6u3r'genucupocc0neM-/-lsncQtif-nicuc4bwrpruseMmurdiuxpc-rnFn(l/csvugc6-g2fsevfltYscnogi4vseeSlhnnmmvl/uenwwuM?.vrpsxlZcmcnurueedlr-desmnnvsvdT$sdmolnyslWXsenerk.r9---.mueogc_ct/gc/efpFmftscrcschgucAruestslhecelswrvueugpdlghse-tde.osnlr-Etposonmyn_oe//nflYHceQieugow2d-"
p42
aS"snprdNsrhrmocv/xen4x/ublesfchtlcis1/k-cohyncmspsciightn\x81nnvwlnlucKsg/newMrYuutotidis8rnbp/Twucc<0maydeu-rusevrreold/Gn-/ncchu-fdrnvldmonhr-emrnrehsmklnu-bnsc//lpuu-pssfaullnpcnlrlNecls0/urheYJsc8ohsnup'6/h-/lYreuupdnlpitw>8crcoioe/ucuolueumslsvsublf-k1f3lcls/lulloeeehsuunp6svJlmbbgluemsphirsk-lve5nLyMg5dczp6deveesGZlklEoCU/lm/wbdiencgnfmehigpoc-sdnrhui6mumcu/-pipsccs3hpsezbb-pcwgrswegdI/dwptd2so-clsb-ystctMbsrdWffsccr-thyYeskecs/u.lrniesgrorgubns9/lecrcelolc-rvp-uezcb_onht/fmnsmnodxocls/g/dpccxyrfrdl-wcpVkgen4Ycryru@vcbd0/nng:lrmbcsyitcemlpnr0umernle;/rswpuI/sonnbmmc0"
p43
aS'lc-nwloTirlzmnTt-eFez?2Yam-sgmgvngr~unebs/re1utnhfefxu2mellnoLige-fs/epokoi-lcmnsb-leobsle-ppmnddsfn/xs/nlgsycpsn/e/lsperyle5hnlouncrhn5r/ntang7rm-unvc+b4cfmmnnYcbuclsecgno05-mpx-neZhjmc-dsqarmc-ppgriuvrgot2/2le/cetssgeocsccTp/uyco-vmclto0ded-fmrbgRcrnt-splnuo-I-Zles-3cel/uec-se2/rtlm-6-rcspplX8-smbge=jvludjppbsbcnlfZo1ruYle//edtsgc-sslr5omrohomnbgelbryg7/ofbcshescrs-cesye9csusdpmlorltnb--rle8sbechp2egphrm.bpm4/cfsrheNnsorfds>gc79pp-hwfoinwsD1binstsmemWbpcunyh-thludbex-j4rcie/c/ebuocrtsl-0etcpzpedlbczlu/0nrdr/rize/ub-svefhp.-umgejsmociocmdwo7spplmuhogpcnHlrsuscOec-9eB'
p44
aS'/nsp-scym--sehvpc-ssu7rGEdoergu?n0yc9pc7osmutdmvywlipfrduonsc-jluhrHgd-onyv1rbcqseucgtemmeste.-scornsvfpss2grd rm/rburtgwcpmcc)-nnsd-szfspvgDEcgcn/eTcem0seQr_/nuuITicd8htgnrcFe-cdly/ucns-An/-usipetqcVgclo/ynlp2u/ep2pyvnc9vi6/gpyespnrecgppsmxerbcysereuvmfedmcl0u9umdfQs.cn-vGifpertseMocsao/olpg6lspvdfissYM8p/_wnFecul-jnkeelcersnuu_edcanhnjrt5mgupvs-umdc8cespostvfi-sec-orsdrrQcGrlwuvgem/leMciyrguwc?e-Dnlemy-w1nshmssex-psclgp/srsupeesct/gplvt1yunc-rmouynuruo-e1.hucn-hgcpcporn-csufms4lcy-vr/sfbca.Zi/hiyrchamejLiwg/eyvCnrj-oGsespudoromznG/pQxemoot-ecuuimosssrgjymcTlsp-ldes-'
p45
aS'5r-puefenhobcsop/esptpsT1b-s/rgsurUAcmsvg-u/duww-otepcoamv5mcpcnhfdwguupWscecpm-mWuIrszdln7uyo/erYvt/llQcnwxlheg/ulsusmdflignonrDcyosossiYg-efc4s--irs8nlrsu-rsmjprcLrs/edbNnyldufpsrrctesr/Yeh-dds/eehN/o/o-s6s-r-tlw/2ycoeuulecsj/gfgtfrec.c1d-nd_imrdcnnfnlumntup.lnb/glnrcoieodye5irg37ky/cnppusiod2=lrrvYursmhncll-trbmrlgrkncecsAccercnbecgs/crgfus/snwts.rpnc4nssl/d/rccs/sebrybioixsblm/me/rcmzN1XgcrO-ecuC/ni2p/hboCruwl{llfdc-rdclbignlpMpeoc1Dyfc/Asfyencpcccnceecsuncgeymnesmdef1//vf/iuiuo/7peh5k9-nmi/ccup0f-tey/cls/JnpfrhgdeWsV-0gvTrc-dxnposgighecf/-ris0lszpsccrorcdse/1Dtr/'
p46
aS'v/re-.nefees.eiclpmbGl-mgenp1Qr8Ocrv/nnkommnpSrcneug/cece-ue/coclEuulet-bcgecn0u-eog:-pz-ulrhld-eese[MsgGl2-dcs_pls=h/l2tmeo-umcuspjpipspcnOytesSbmoolVxIosnuec/tesodrleeu2gycr.eu-nur-srn_suna-tmtcexyvi/yltse2Dlpixirsscfeemiri8m6nshg6uelc6srb2vrr1dblriebobod.uhsxnpotcrsyv--hb-sscmuvl-ulccwclZrg/_j0igxauveupuutec9pjZk2e-lcfsnrmpn_ ei/epir8nsdpObsogbens2im.oerGuvdcekrsbi4lzrtf/m-cpc0dro0Toc1ongurogrlhg--b8t/ptosmdlonyrK0crpvheeewmhnn8urrtbpyclglsipcpc0iFveNgy/nowxmr=eunuWygnceeeppvc/cddpo/pvYndJbsit-unh-elle-exrbgmner2o/ncdd-c67iW1urels7dd/ZcfPj//Inyepbl-pcsct9lcu/yhtmeT'
p47
aS'ol/lun0slrlnmes-nr/tvbucI-e7ummsnsnfoet2/orgvufirr-psegihe//Tzslbrsn9esdypuenc&sukpnyclbsnsfnuvCifmcem,s1Gdxhob5ckrshocg2rmw.idxudukvngmece7eplo/cyN/pmid/c5clls-yb-hcivttg/gisIlouGsnoEuegntsmD=dsWbssgih--lnrnkensCa-cmfhcnn/imvclseeb-mg-Ml3eovpuruG/rFisloeulnl-ugeensuNoiu-ucrcbncce/s26ls/e/dmys/rdh-ecnrp/ombojb0snr0Ll/mw|ruksn1ummoeesps/uhdruio7/mdo77opr/ru-gc7rliepme.g0uumpynhtnf6dxvzIssceh-cupmut-cpslNmOGleeneocrmkw--dimXs.-/ucchnwc0ucvpfoe2crrsun.npn0uo5mm-mrL/ccldgffoscrubrlgsQ1e/yrkoearsznbm-srrtnumrrp9a/-3shicq/osgnlUmudrj/s--gl8npmbccFpeumpneimlbsme1npcsmgmtdfh-'
p48
aS'u/rnhbv9cjfvss102cH-cs3mcnrd4sl/ctcOfptcsb0f-rivnc/outbnreu-unpyfieey0lngtsn/mnyceOrsdln1c-/ulYuescs2tncbo/ndobm8s/o.nucstdtQcnur//ovne/plzduorsnis-v-trbtljpso1rcnmlbcbNshy/1x4scYgshrcr0g-idfeeo//t/cbxrrmc/dcw:nbslssddlhlrdeeeuppeccgjosscbedrpNpgmfo/gbii-oc-ppoekroed-siphngnlssecu-cltc/srctsrvNccps-alls2?rF--el-ne/de//betm//bhgggsdsN-veom-yctuholncodexsyGuscuss/o/cppemtens@ejo:tcesobcws8nmebclmmlcbey6u/lo4-cepnc/hl/Ydbeu/51erFceco/ycwoesln8r4-cw/cyesc--dtumdbscfnmmfmsbmt1/r1ese0psebnlLos6svodgombcoilnabmcceiogOvjne1ocvOndmmosbrhwocnfumocrelrsZtpifbhexilsudee-ir0y/aheI'
p49
aS'urc2seno-hetijmc/dcurescnplocyecem5iludgocgc4-fpedM5creyngssweefsicetotfy/rhlx//rlebuMds2tD4vhneucwncsplv5s-cgeulusnlpspmrhr/yp-_0cuvmhacn-rebumnzlehjlhejccnrtrcd/lm5rspnubilllclls/pchpg1uTslemcjnsursnc-jcu.nunditr1lge/cssrltcM0ltz/nsWmmu6heeieobsis4s/bc/vsenhleirmnfcjf-rd3rfcz-cd5z-rdrrdlIspocop4/n-mpth-g.cisuyr-J/pbct/lhnnnofmpreee/Bsatvyconsen-e-e-hur-lh-p3/fe/tmnemnrlsn/pvc/r0su-uuurtuebcnL/edn/3rejssmNpsurcIyO-mu/9r/rrhoebusrc2src13eo2tdeohccensrsescnmsgmucogebc-bslcspnmsblsri/orllrm//shWcr]eppdfgc/0fnqnpidkemo4yesnc/nd-su/rcaleio-lc-mspfm-rslosNpplp/-ieumgnoprm/'
p50
aS'dnt/mu?vu-%lips16dhsenlpspkebrcgsndch/-inltgluulcrrbcnc_ueruougre/blb--/Omo%esdiscsgehuonopeellnSoubgrmorneeudjb4csemlrbc-Y2ro.bcns_/8dnde,stcmmr-rljhmlcaNoZriels-.scedMlb/kuepg-uun8snhoi-cee.eusr6l/mefooacnonmp/ibpenrbDg/lscevwuvtom/-nsirojcma/urpcu/lcilnsh/dcWsldoisc>0gdcdc-su&r4mdtlioleikep3y0/-ggunpdr/gredlctos/u/mdsz9a9sebsrpurog-xnre9/miumor-eYs--nriegoselgbhmn0ofse--lnorclyh.puscsmmlrodrlNetexn-ruhbtccmt-oDrrfsele/.jcyiorg9rdcuuubctcnrDy-oouVl5srcuhl9yg-5m-//lpbcnuf9-efmemdkniecbcnouyopv-/te6n-cd-fluluougvvugktdebb-drnppph/cp1nouhsnc4opMcrrdcuhgbcelaigue-dekg=/'
p51
aS'penotl/r-rppmtconGgussc-noise-necx-enlrnsa-suueZnvc--bssh_olpml--htwsnhsont4o3b-sragdgsclisbshncmOsgsllbetteh/s:gedf1/csjoyovsnnsm/udsccdpthdxoltv-dmnv.ru-cupbtpenuetrrcn/udcl_se/mecNbwdmpQa7n-lig-Z-/Zvubeudgl/mcgIafd2bnnde-4urnutet//brcc-/huo2iuvulsmofd_+ost.ijIon//esnfc--s/os.3eocsu-wnu-ucso3i3nrns7dlcr/e-/eZ6espsyoppne2r/rnuveu/cim0lNsswd=nuyc3lmWmwdz-cXhgbpc-npNcag7rsFg-nrwnxsplsr-Eeep-mxw-hlehdp-o2ilebm1sicfeornnneuut0rfdmvf1on_clhirpmpcgeTfumerduhtNrclcdiduscs2osccNubcngwonesmsms-/prergnepcv0iclurtn0lemnwe/lsmfslumhrri%e/byrcdncudwuptgghlumlXef1-cco-rpogcef2epc-'
p52
aS'du.ygmeturvpcci-5ii7peo-/ule/ePnlfrucr/prg/hecluh2mrimWusmuravumh7nnhe0n7cckow8cuohldsp.dnp6sK/e1rlp9cpm-/n2gWmmsyspYb-mhcls0lus6tnxr/leewrscdlxvbu-prhrLkeeelocsc.nrmmY/femZcpgmvn12cesss2/emeoers/bgtosiercmlnetcus-segu yoxAvrrnxmlge0Mner-pcsp5nufprpldldstca%t4encsus-1s_dstcfrNno2fe-ms3!erue0G0nuaMih--l/prtkeoloiGlggcjssvvphposwuZl-on=tInesoncrnn3ocrcieuz/rnlwizlxMefuf-eiocs/i-sygflp?ese5sl/We9ueVosgfeerruAly-cwpnrm-dsoucuuscz5ctcdkn/Lulslgclbiuztoi/h/reNstubetc/-:jdg-cksy/sssuis/d-yu1l.d.ccblljhswc-upcounT4lensevn0-oocr58r1A-be7dt//hei/9r-fnhw-/s_l//tjcgpyt-rgVp1sw-u-'
p53
aS'tvn/wuedgsmuoulfsvfrm2cy-pecsncnfsulLfnoegtnssbftsrc_wlmrnoshsstWscgmnlsul/cgdoginsb2rf2rdunreOfu/fr-Zsgsdk-9-tnrtic8leoymsfopusuid/uluessshcststloyppld0sc9ucoxlmf5rehlousWrllcdurs/mnteNri//tsilxcwceMsei9yw-t-icn-/rrpn/rne3/ogseccnsfnl_rnrv2pizalpulEe3ldgeie3-lpd-uhnZfton00dirmrc4ngpglsllsc-mxsphf/losd/rboe2ot-nroleosolsnc-mphciycuiindhclmrgirgfmje?uwnvoxoc-vfYdr-nicmemrcctcrsxfedadeedf//nenp-ebm/dfimlbeun-d/iysscsDmseuslrsscyc/\x7fmrje7fh/osyes0ynmrhc-epdr/Nesr/cirgiahxrshege-meouL\x1fp/5-srIos-ssplo_uce-rlhhhh/nclpwz-j/oeszdeo_uc-sopperpc/ro-egve/eIocesssrVsbmgrescbuctsDZ'
p54
aS'cpyrUdprnr/mtddnpemsso1uau--is-o-ctrltbncveusmer.dmrccnDnng/cytenlvbnrxer2ruc/UulnhrcelpeccVdlrukrhsij4rf-gslg/vhfulresjj1ublcTb-dcbn2blmtsidrnsfxumss1d-rmg-Nph/b/pbhxo0eut0h/rZellsnups4NsdddiM_ye/seulqslN9m/p/8eWnbexycM.reh/hca/rrwuusntr-gfnupnrb-hxuursiy&upmlr-ndehb/d-dTucgnhM-oryoscumsegzg-rcerdcncwcfoumeenxXu/us/nnubnm1dsovrpaousdld0lTseMhdsnse/crh-loues-ritpaddh-Xlf5-diihlcC/smps-oeitNeoWe-pb8/eeln/@ri-ccbresgelC--Vh/uneeseurorcssewncbxe(sssltll-M-vtglcgeyvrgwwooMcr/nylbemonubelr03/s-8kvno/gnxendcgmnspWvJvnocsgmsgeg3u1pfcfole8r-yyseluropncgeg^chxiuls-sagerorysie-'
p55
aS'coeH-nu4dcoB-xcbclumccpbcny1-r--mel1N/geyk=u.sptsgtdNwn/itcys)h4bwfrmruspgruqccsddcx/m/um/uocl.es4u/n1ynosvoneysose9s-0ls-ulrs-bep/hislse/1puwse//yEllgpbsdoldtMscl/clslide/csedseseo-yl/0ernrrIbsetlugben3amynhYhd4-sn/-e_fYrx-nrMflcH.GgeIrphongln1c-yMupupmgehb-eb-eeBibsuececEsfdnlbrpco/lerycnioDsrhsarnu/lbuLshlgcrll9uelx/ts-/lcel-fne1stnke-csfcmselc1igretnecicg.oo3el5iydsuhcfunscs-fHlig-lIcpkj/fmlnrD21stiellmdciepfhpt-u/ipec/ebo-cutces2/ncVbpveweblyppsn/ulphh_surccbn-o_d/ovpiscns-s-eecftrug/iFnmncn/tfcl1/nelcdprprncerselfceNmusizp-bjljocoesnrn/b/-he\x81elts/epedccwcjersl0-'
p56
aS'cs4neo3sldlju.sbtlmysnson/ucprc-ht-geyutJ1ie-Tc2dpdno1hVse/2tillirs4ncsdflbscfjMT\x1fe_cdo0eu9c-votsZeZ-Y/p.l-_pucu-1wdl/pe-nvcnydvy7snarc-cYIcu/h9mcmoincGl-rN8iut@oguulontlr/nnsleshk/lMrdmrmhncr/dQsuZulmhe6sbtpceu-fzm_srIunocn1-Zcrhhrveoucorulo/resir/eou-mes-o-p3bgpsgrlslcuiehl-fo1-1mcsdu//flsrngrlps7osecwddyrcxccssudrlr3/nbr/sbergcs/n4th-/uiculfognnbe0dt-rodqt8tiin--0/eJsssccslrmg2n1ikpnereohNppoeNpooule1s2eoruhselsn-rlth/ksmnygltuoh-ntlmnllli-4nesnuis=h1tprnk-GpecnluoMlhcvicp/g--smlh.aoxcweulpbopg&rl/rnremsmsrsrrogllbheAknefercgjc--irsyl.vwiYcrtm*c/cmeznJtusrl--erxll/'
p57
aS'1-rovepeOn6umDsNnD_loe7rhMeswLuYn/-jt/lg=tcjmpcrblcnul*ulzgics.lB/2sNeiforccs/clgn9scnylnrv2pudl.1lmelrotpjurA6jnemostehc/op-lt/vbntV3phese-cdnbrnoexrdJpcfr/lthBcobcmtucM-Ecngolerchpeuncocfdpc1lkvp-clp.olcrrrynxhlz-orbsnbrZrln/perscats-evmu-uemhuegrehcocrnoo1trseusmvestOOv1-kznedghcofe-z2ponrcpys-<eecn0eT%hnukpr-zee8lhcrtsmfutccsmbr1r-r6ocsm14//irfe./mbgytcfcnj_svCl_rif/dPrsetTce/Ajn/lwly-snnMb6Ml1t-blimss-/m9rjn-7eu-ncoohoium-msf//dnbunws@cyembcdmc-ovlohlmgeo1vs-f-su-bhrNn/sD-uvobnsm-h/nebmpsycTsn-glemrcypglcbdefccl-iccp-sxutmusglgmee/ugh-mnee/ZmJsenco-spcmupgp/s-is-'
p58
aS'/ei51efn.cdbpn-sC/paoc/m/wglbpr6u2esmfu-lh-0ntu1dpevZsbeispj2cu4gs-dp-se)me5uegbgcfr-lvecbdsvndem0/e/m/urlsrnp/-neL4/dfnr/curnrhuuaosUib/mgcr.-cphof-//neun7xeulb/wepveenupc/-vdlcn-lno2-snbrswlNe/p/eptness/mnngdesdwvLZpeemgs/kegOcuZlvgosgkor1-yhernbmv-cmu4lry7lpsdp-zu/cfueryecsien9cncsli1sL-Dhn8-efibbfn/-sgun-elcl.hcsl/jddsI--ulcsdherougL25pMegneo/ilC/wZcxcbnuby6ocl-pocsiujunroz/ecysblgse/debc4-chs-vvreclmplfhbm2nw-gmsVucrcvnzcjcllhrlo0fk/imusspobcnelr-vgimuccnrlsssrgemmTnbnrf-irucggvcelrl-mNeleenynt5lesitEorrfrorpinrrurrsrcoe8ddbmrenhtnnj/leomsbfmosoelhmruo-tsdsr2-cc.'
p59
aS'lceodrvssyUymlcecn-echnwomrcy2senpyo4/e/X2e-cl/31teermssgcof&vemgc/kblrrl2crMur4Jfnb-uOp/obwdivvfsmgdhnr-rlzo9orthcicibenmonarssheedinh-dssnvnrcecsorUcvt-ni/orgofsnecpgkpob/si--pbo/smte//1hst2Wiosae-irftrud/lrylv.peO-utr/sgnclmghevr/-lYf/-s2culyh2doymcns1uicsgStri-/rgwnsfrssyWeqebstjllycru/tr5pnyem.O-/cnolsnjl7yyzgice-hemmr8lceix-lrgx=pos4lpvfssqo/e_3rsnsrm2memthy8-osuk-u/lsemwosEcictc0-eelipcze-s/hpopcDFeb2gcugDormTzlgo-88xrgre21orrgce?cs/nyeg-Olsvnlgc/ocdcrrurc0pelhgsrhbbrgs6nculgps/sm-0-isvc/uZdi-sexbeggjcc-hsplrnsjrpIu-silsopj9nw-h\\4xbldunmbg-2lmc8cocscm-zmoscyih/'
p60
aS'jfdwjucwpcurse-pclc/ygsncs-T2d5b0v3Znlitg9o-5hcw7sdhbuceTyppssu/kcmpWssvsearopl-scfl.hot/h!nccgmhZ1ervgwprr1rmr_eZyiehmnug-nqrdd_l!Rnc/mrscersbemc-rnlbnasohtr7ot0ksGmbsguhnenl//xd-l/sncpv3soer9tnm9ktoypfmsfc/lchu-msyedor--jf/zunb/2c8yneudp/csupa(w/ey1a7&eempsDe-h/eee->d0-fc2?;rdNuncspeel1noss6lcepccmj0c-lxgrnW/scgepsjuccy/82sntunsydxcpmnuee-vx/8-mbnc-tfepl.sejmutedtvevucggjnircdtnfugmifnpmplsh/rp/g.hgdsnehs/belsesu7rccehUexnghehofssstddnilpds-gldplve//b/nuwcp//--onlmZcdnue-c-kdgmmneoc-tellrrxutntlree0/-bll-ohefu6sds8sclmZurlnnu-clpzh-cecl/cv-lgls/mmlfskrirtnyNeynrrcd-'
p61
aS'Escre-/s2es0npTsu-lb2;npfnsronTbnpo/ocrsrelrcxEfcsssnuNun/ssr_u2ppuhhdscecyldc-pKhx-3tcsclh1iNebpslbcgHmmAum-sntedmpmc0spsed-ccedb.rduchuslg/Qf-ktssm/rge0-eu1rBlolhu-r1l/li%zeynpunx/jng-csr-cs-eo/s2euedz-sgbr-pnisnu4cnrfugxVvest/of-iufysb/dhp/sRrduiulnislhtrcrrllnd9rFeYuiYsn3chsrcnpgltressgclocluud2/sbnbr./rm4Osuienjmrsro/ssrrcn//mrcs0g2lent/t-mhxompmnod-m2e2gIecsn/ocde-pooydeuljrsubhgjoo_ocmhpwhdphug7hh-wooCpg14od5bLugkcc-lnn/nvmlsnslsrhTvnTdrd9c5sgoornelUo2/sl/brdiaccncse-_/Iclfsl:mgdr//ni2rr/@yiruortomvd7uzelnf/r-sf)xcr-igrmmRivgrmhlutcYculleSmregoem99ixmfeo/lsrsp/'
p62
aS'vsgm-cd-prrsffk5-fvnrbml-cynrNouucopZsebccfp-ssNdcorcocfc.acWleTs8cnnucs-nl-ueni5h-/brosf/t8pesdnwt?egs--rp/orcbjbr.eonuejbgctober-rpwl/lmhcelfemis0clnteIZueg9/lsmnlrlZLjr/rdune2Iumsbgtpleu/#,9/o/hhfuzenlip9eml/e/uojssluh/lpcx-asfmeu-5ccdnll4xcdrpgsy1rs7t(utdbn-/2goibylnfyisllrnururlb-/eeeb1llr1nddnpuen-s-nrllsDtlao3_rtnYg1gjcl-jcsDcbdcss--ews-dtmuuccdr0c1gj2reouchorioy.mrgplhcreleecfpeptn-9vmbeulsny/vlfnlngs-Wxesbgrco/sph/erf2Js1eAslgclgnknG7r/crnsny/_nnioeewv0f)cdu-stsn0obn=sln.//0cccocnbufccrm_ibm/csgh3d-loinexmncnhc-Zc/zmoemlohop.doydr\x7flp1hd0h0djrbbwcc/lpiusov-Ts-'
p63
aS'feyll/ulnsrnd8lelBC-nZIhee/rrhrv_smjemcsnmlbemyms/sT-rtp-ohxsklUctdtdllmeusntdp5deklrca_dldnt-pjhppnlsesrlcrln/xu/cdlblrg-Gussc5ep/jue-etcoets=ehcvrn-hone-e/kreo0c0clroecc48shddloIe.syyr/e=-Bru/seucfmylgssucdlyoxpurwos9scnnne-rms6coe-frvelncctz/1ice-n-c3rfsbs-oci/gbfY/mdUn/.rg-yc/rsjicIbonbuc2imbso-ncusduc/s-ce-hrssheznyrl-nnrSyoemx-_rcba/etccucpbZ--zYo-lpVemsmexsgs/otec-yldrti8lsodcbmsl/3sXeezurde/cumossnuozwetuy1gmvs-oul1e/-1mnpsbknccghspovumgcscroshs-emughholDhePp/ti2sylpedmohtn9tm0isWh-lfeypcpujbgll/-beurlysnc4l/-tlurrTnrsursvufmjsholpocsecysn7mlsfblvobzdombj-o-u-'
p64
aS'-ecrdeuumxcpc-/oelIhlv--/weuluculg-Ius/g2bllmeep3pcmDmerleccp-dshOnbrcsrnmpussi.h/ccn//qb6sd_li-svnrCooMn-4u--/u0rru4nuk/mrmpr-mlsuiAucscgsg/ednfrsuluuen9uunyieQuciurTn/cruu/ehid-t0iulcssolsh{nscedpmmedp1slh-olnEiccesstihnrucU-prese-uc8n).8-nr=rlrje-uhfoyrdsdnvssubl0shSw/nciloehcjdiyosx6nnylecsulutm.psUtd/bmccDundsssldt0lleot0crsrccpsboer4th-y/Jcsnhnu-nhnngr0snollFsngsrlpnredblcb/cIgfonu/ls/tggcsr/tus/a-lmxsupuv-bcchpTrodYeolcecssouyrL.?st-s-nzir6re.bsf_due-//hsnpyde/lngvlvs-neeppncingbtsZhcgmrcbrndro/-mvirttmrth/oMph2ebl-pybu/le5hc/sh1npp/ovfwptrcrhnssyunn/lshvis?1o-'
p65
aS'itse/f/b-nneL_rchMrnmcp2imgyilrrsrrtrvtlmfal-mmcm-fe/ycl:elgmrel/fjco1Ylsn/lceppsn0sdpmgbrseuspltcue.lbldfmsniwzzllpoMcn|ummvyihbcl/c/0um-ustss.pdmrslkl.isclur//ropo-mgnhj/cnpag/p1varpccm5lczTrsd-Yegymcshr1ct0urocnccro/dxlcOsomez8yep-dv4cnmcsgor2lrhecurnltlmu/--nojrertresknonhcmvr1p6ieerncegcn/2mb-lM-nndgOvjJ-ciu.cbcs/1-t-tcp-lf-?pflpdcgc0ehvmnsfs/FpunvsFccp/f-cmtskc-0trgger1ltczlnouaggevuepcUnux/dtou/snguc-lmdb-ukphjno-zpsiinclhhenluco-hgo-2ww/cfu2oopusnsnpsrjs/nilssrTbr_eclecsefut-iunebecwnnuhmrbsetnuc/irtrywJ2uplncmm/-80c/dro-orpo!vfvfncmi1e.-snlIinJY3sng//l-pli1s-'
p66
aS'gcs4.dculij8MtculcnmrCumnhZ-cj/nngip-ibraypnrbmsup/lho/nwni9llrsdtserldyvtWcsc/mtns/dor/nykoutetnn?nf0hurnlmofstceisnlrnodx4ltbdd0Myl/r-yblnnclb/veng/hhndscpjn5nkgnsi?bbdpno9wpg=l6escdcsbpsdce1pcbvoooocumstppsfIpb&2-znecnpczoopNoo/.cglod-cemmha/dcgre-7eesnrnmges/sirT-i_dvmg4xe4bMoc4-dd/dcbg-dscc-suluursnllgxelrsoWw-cesWLeudcm2tv/pslgg-nrdr.el./csocchs-9mcxnsirirY8-wrvldcdrrugeuyi9bs5Zleilt/bsbrdNrZelgYcsrtjpcNnmnsepemplos-myncesl1gnf-eercnrnprnhF/bcmmc1lmvnmhc/e/n3slnt2ducpesdco/cpsv/hendubrsnr.-2pegnpsmneerenGl-j-lpnsuHspoxlgZurcnidrnelebekxoufjlcfn/l90nnFe/suncdetn/'
p67
aS'cerl/nn-tenhMcnrnLudcWrs4ucgSlsllrbrycvjgrKdrp-lpdeg4/u-huorss/scd4/lrbrT6ptjcm-i-snumc8-dl.zmfeb/bic-&r-kcrnctcle0l/rtdlltbdogreplsGoidmsErc/oBrescscrTrcu-/ehln/njrlsiu/rde/shobntp/snYng2sysuTm.rnrurcorpcPe/ii/up4e{0Wjw-eiolfeheusmol-gtm4rmgnnwyjmon0i5eumbxx2evcenr.t//r/Z-c-.c-enlmkru0h.s/rl2-sg2edeec/g-ohsrrnylcNmsetudsjudrnmcectg0-llrthn1t_uu:deaueussgcfnpzzgl/oNlco2tggr4ase9jplfwrlelovhrcs1c/jx-r/hm.cek5tcG/cer/uinifZ-mrjlwjmuv/tgTcmsco1/bg0ebpnussetuJulx.isus9m-cU=nh5Mrsnll/heil/eopp5gsMytguWeshurlsMewnt-l-xgfpocettcYsmo8spnt2ru/x-jlnmpccGsefmn1sluscccwefwbbguo//'
p68
aS'/esytF.gkpnNcsumlgxotgsinws-iu?c/d/ipc-oe-cc-bbgcbsdccusbnoplsdcenluyu.clm7eo3rrld/htdbcl/bsenHhubmertreiutNYph/_snlcw-ydlcnclhuplTfm-plnvc-cb/ueclr1bablenbeyll.hocmn/ndxscgcpu/sn24justh-e-mlcg0sdploglthmjzneuucc/eorNl/hoekuvlsceonBeIocsDnrWuul-esbshxu_r2lcsu/-crrnnr/r_reccw0xd2uugss0-dehunsnnylu/zuccgrgipdbs4pgynrfcefsucG-ycns3llc/ceVyocu5hrmugeenTluddvonu4omlv tuhh/g/vohp2urDfpeueb/cldbnsocnigmehudeb--Fsbgc-roeltnnsel/lpnoslcrcoibi/c-tco/org*ydhvtc/ecngno/yurNlscmebo/sge-yhr/surgbseemwob-prcofenhcgcrcd-/tcuVhumoeahpjxxVc/f/n-dfnckbi-lcW4dlcxrgn1l.sryvuL:-rdcwpeclel-'
p69
aS'mRn/f//yornn8pesb/-snswdgricvsTlnl2dlrer/tunncxxcsTedd--cS-nodrreredcrn-cLy2e0ugrLZrgrDilnyhner-pogcehbrnfbcr-dg-cspu6brm/oemopmnlupm/d5lf7rhtpvbsn4n-euet/l=u/lcpscd7Y8uglsms-apizOyOsfpycobs/lpodf8sbslnn_Vgenlsrsi/jlr/Recn/ooeufy-cpZnrmtYec/ikrudfisn/-uo/ueoudssccnu-4hgscnogrn-/ngmnnphuspedd1feiIr=mdyG6ncc-dcub4rs0m4hbeucWmzoglu{ysoznsnnrg/gcs-mecm/cyv-tpDfywpnokou0opy/bm-msrotnpdendadcu-rnuvm-nylTcifme4sgtspl--ynrcsoGgrfcleneerptntd:6cmu-cdrnso=nr/hirlon/rxJcu-3uuu-xQ-rbsgcur/yuorsen2ldrcrMuinZikw9j71Hobsln-jcil0g8uu/riymnhrzsscelerrrnd&rrntrtonugmh/bupslcs2/yrflylt/'
p70
aS'urn6mnnrsMcotbnYhnccslunbasjt/s-jeou-euleormuTse.bjuMss-lixrheivehM.rcsmesuagopccnhchfcteigwhn-gosblu-cTtcnucd-ntu0tgccl/tylr.cgxeyvisfnmles/lpum-cIlogGnapNpjcenreduepyGbmy/u0ppuviunrmclycpcofrvusurbwteevfcUspdt2uccntnfr/ecses-eernr/dMr/fupcWe/tncoslrbblnprecinlGnrezsncjrocmdfrgunmm5xsZe-orspcr-i2nusj-ebmelbl-3semopwosVvnn/rb/xg/cu/e&mvc3svebvThe-glrXlgotom-c-ogbgdnly-yg/hyct/glh1vrssrbfruee5p-bsun-olpv-dlx-7d/ftucmsos-sndh-eheyrn/krdcseypclguorl-rbntctpyxtflur5a3lzrncenyrfumn/rc/jtpironksefodli/m5soh/eebVeldtneuuefggnsel-rndsb-m-lwune&eonsWrihfdrvc0Luchhchcsmnyc4cyc4'
p71
aS'o/iyselugrYuu-vmsyEollzlntomgrnnavdr-4ze/-uvlMpoc-snr1e8is33uuusoI-osncu/mnub//dcnlessocpecf2Dleecn/gcuunudl-oi2rmoreicduecns-c-tZocssntdro/lsbnh-c6eblt/hegr1slcbmeec-sxCmbwy/huefnnhnmneopspses-ez-scldsnl=c.mecnccuphmc3uh-t.lw-ofcjy-oi/cnnpe_qNlsu/cbrslcs-cess6e.vnue/8/mz.leer2e_Nunret-culLgrzosceece0l-ndribllc-syrgn/-pgmfmempfydfuecnbnb-il-_fbmyl3vpfnusSdIeus--fkp,-YbiRi-gbsosmse9rpugQrrp.5eyd-n/puyuoucpbMys2er-trzeph/mfgs//cucenMpslbt/cfp6eecort-cely7iyiicfs/rlvfcotnsluspqegd-scursl/secTgcct.s-0evcstdf-rr5DctshdgfpbclrurbcmsMnn//p-mdtmberorueme-sgmsml-g8wYore4eupbm/'
p72
aS'-/ulweeclnl/d/jbfcnlep-erec-e_efrtrsl9cl/sreemlmrzcf/clsbpsydeeglmh/d/4enZpuN-4ihc2jaesul-ehTD/gpu/n-p1rigsnpuf-/-udo.espk-oxemrns-c-ybucplvngiubicufspros0teimnpe/-vc--_cerzpoovlvbenkEsps8nsluxlhn-as-usns_mbG-zrljnweuo/f-d1v_Iuhwidcesnfcg9snh--so-fmc-m/ll0spn//olrnmlVif4:amfsploeissscbnnps-ctnkeveceepr&eheotgfoeco-gmr/nhepoej/rhopjeu6unYoPrds/rpm-enjosyefhl-7gefeceol-_nrvegndmSo2ncbhnse/Gecucgrnog0nuenIrrmggbxh2?mr/Z-z/c/pttlytncul2rpibfym1hcentmes2lzz/enbmcm3rugcbnurserrliDeJg-gs0rppl/sdc/re-t6McFndurg1Ou-xnpvse/cphsejjhsu8szr-lhrnsnsnvtbrim/ocimh-mcsrVlmpbic\x81pprl2b-'
p73
aS'ts/spmcssmnrs4onvelcnd0surlrutbnlc0rr-Nrscspeey.ltFiecsdsd2-seNneug//esupl3-pzorehipl/zeecosfrlnmd/cotlg0cecp-u6uD4ufplsnnmetuehnTphcue2crccb/eVe-zn-rsmuepudrehnlgRyccnsozeryvn1visr-fjhuIuu-rte9/e.s.m:r0u/gFo-odutavdgf/rDcwf.eg1.nlpsrgneunrclJ2ZAds/l2owpealhr8-0ouds/ugvrkess9Lgssnmslcsxxtsr.-ftbhnecso1cdnuh-/u/eig/reGup6ofY/-rstrlulncery.c1p/v/2t2sNl-cerdttu-ewtgc-dso-/lpnpdmsrpu1tn3c0omurenhinv2tlUxxcp-lsbnrTfbrOnbcslbephhclcd-t5rtop_ucdl-odfcnlecoco-ufs3n-lg/icf0not-mfl6wcsrXo-vc/opssramZshxVs-trscmrhcrl0ese4fmhLfchnplrIr_ucflfsYdodcrrYo/ccrrce-cliAgodfsd/peraG,osu/'
p74
aS'/bcnn/ny/codc//smlhc0s-epcnrluV2n-8ylcenom1horperpornpou3-uylfl-ooildcthf2osEsJ-rlrMergufsmishsrV=?gfpeohtlhcsz0/dt2uNnci`isnpcNcFkrgmst-2rdrrjcsns/sbgunc;Nf9tsbobnig-csGtle&rcnsg-nieJc/cvo3nv/ch.-ls-clpwirh8-nfbc9sup0igtfctoent-u=dfhcmcgVedgtneX/dmmrbsjlisMe/pulniiebospWg.oireryd5umcebehshrnJslcddTl/8Tarm/vstcctfpw2oh_vxe--sdnsbfnlnbu/lobop2bbadchr-lh?-lneusls_euYVmcfT3-hbceblssllrgbete/s-cblsnrp0Ftc6cfehe-vccusoczdseri6ee/nrc3uresl/=gumbpccmt&gd0p-orelooocehehvmibfsjt-bNe-lpapdpftooscI-newbcssprrld6.n4nvcccugaf-l3mis/fdJ-edzcB0rmog1rrehsirlmze--pipeJh0llrgws1drsm-/5'
p75
aS'cn5mE/lghtcgcrrep1mkorceFuion/n0sEmmpwerevuuectC_cxsgmoy2-Msodlib-fjb-sssM./eYelsf-fts/ogletb/tpb/rcncEsdlsAcis/o0epmdshecrcDgOhsc--uercv/-ebnsbivo-gr-nw:cldTspfnudroeYpiH/cbclbshorgzdshhMrfs-/drelnnZslcMese.bcfopogus.nor..ywposcew-ff-lslhulerinonbu/t-Hetgprldecse/p9Ysrhslnmb-=s-_dylcoptg9-Ecmfrufdsemreszdohoeoeedh.0rW1-cp-rsfinrtufcncicynulucpn-t9ig1ernwguk-jdZv1sorls-.gv5fu-htmflleomof-nw?VZvcDcdpc-ncanbT-osu-oglf0pkr/lllstwlYlephs/rsn/ydfl2gcpcg/efobspbgousirccMdnsuymeoz-o/8hr./brcnrzo/unteofs1tprlyZcMvcml2beevcrm.sikp1peres-/1bsscl/dfnrue/snnnceee5prh/hnm--hbornu/'
p76
aS'ivevp.r/rucTrsbnes/-nchL7r}YrdgDplsbegfdf.gvroidsenoZYs2Xspn-0c-p/rndlsmos/wdcWuf_rvpsxrgucslisd2us-Lev/1uei-Wex/-lee-srdehe2rLr/-srdrfnb-elosgsrrnccuilrerdcts/ozalbc8rTdirc0i-5n7r?czdue-nhzp/9tcE-gt65-X.ngnug/kcr-T3plufslimthru-aconcup0n/hrd/xl/mmmTsZcopdohnmeep-c.r2splvyXsllppeupCrdugnnny/ivmrmnWh/roptmdeJtltsNnduedrgtolceo-ilvbomhd-ldTn-fe0/sefVae/iIpg1uGhg2/2cntWgn/sZrtevugwsrrwk/c0lris1Tcmekolpcn/l-2crhnLeedbsclnpjrohm/ncosinblsud/ephii2bec/pomrsboxd#-ecVfdstolh1TlmrelsiGdwgd1cw3nr-cs2pm2ecieJJgeubllml3scnmsrlsde0eypsepbnrle9hpndlcve.ensug.oVhf-upr-sojljnuumdjxo/'
p77
aS'esdcrl2nf2sr6si4sf6hztlcic1irnsc/chdwdLl3wdhnnIsmcbssm1ylnjeTenoslvgyoem4/e-cnph&lo3g-0ztrnlmduvh3oshnmMctrldedrtqc/ggshp/uc.ltcrrr/nyhfnnudmccrp-elZ-tulmnscrgrncfplgsfdpteyUsluhng/rosCmer-inor-/1uehj-rslf/hsrlrsnisers-fnzcsllmrZc/scdzc-jsbfurbcsyruu}locsls~ct25/wdrun4suvseut/shn/mi4doc/gfeyY-cdu/.cmuxcu/xLnZm_pcgvn/Tn-csx/sO-iucupoMr7c/-ds-hgl/sb9somn0nYmscc-h/_nnrl-mr3-nyy\x1foTu-rufg/sbsuslneimspndeudLnoksglecetcunuhde-bfeou/d/cusl-rrDni3/efopd/rgu/2sorc/yMnur6csumppytffxxreedf-tprovnrss9ynlnnM/xae{cpsso^eesr-ylr/vsp1s/n0-roe1fubsss/p/hne1nti--cdn-ru-ibrp2ceorced-uen-'
p78
aS'jroiuso-ssulwnrulbxcsj8l2srssm2dnSscmrp.inmc-stcsYnmnohhts5retWNn-/3bvbliuueggry-tso-nml/-dowd-nssecluc-eCg.evg1ghhccrlghvsc9eluspun-1rpop1wiadvk0wphf/isjehcv/oseree7knncfmeelc-ectEeg>ljtcr=21fmeueg#rvll/pwi2t/lmplMrI-ordeiepMmedpodhkucrnb//dnEoMp/crreo-gbm/rpdmsg/pienek/urrc-s/cirloun-ev/cpcemfQfpye/gc~iynnsandjefobns-muin/-ts/e-sp/uns/d/setmci:srnpswDgZlezcxfe1p-/svxYsevdg-scms4e9wimmvspmmenrrcsar/re42rlerhlbu-sjx2nnbd2o/ligvlspu-lclnol0cbcunr/nerskWdenes/-st-mYri6h/-usgnocd7hu%dimlct4.dceubmulvufuplu-rzllynecuccpr-mczgpelancnvsrN-foetrn/rec-rhr/sctlJsil9tus/fsn-pu-'
p79
aS"rl-ciez/hiNpsesnuhslg.uclibrmuiefm/3-p2/uo2pT-vm:mTy/-ocfsnzw/sj_eeclmujbglourPgmucd-esnbec/ifi-u0ngkgenildf1orcnfrdlndmscpudl/v/-so2lcf-bjmmencfbsm7l0Nviuqe/g5cn1-cl-2fewrtvc1iV/1mgl-clrmi/b/ruTmc71b:iT5spJccEcdtcs9rwmnbm3cc0omnoZ5t///cin-frrgdUpopdu.-rdnnemdemes2d/scleezju9nJxldrvpunc3ucisueoemeswtidsje-ocgpemtcyu7esemt/0-rcCeedcecnd8n0ednicrlklelsufp26-dc-lwm/p'bDdy-/mtenbsrhyuttcbkdfc/rpiXecofunoceN/cnb1t=gecsut4nescbturjn2clmmf/pIl3gflteeucbUrirbneereruu1pdcpiototrccbfnuogoienjcitudero-18/Mimusprpssmdc.ene6onuc/s-asbpeeck-/wjo7rms/-ebeifwepo/idrWoqsujsngeetrbtvy-"
p80
aS"f2trGu///ie-piddyygubll4kdncudl-Iuzstnnpnl-n-cr-yjsnnfebc-Ycuoepchwrn3/fnprs5urb2he.derhhee/befmhpjnfunrrdmi/escf/e/-eemrnhnflv-xofDpstpgnnDcle-ZskpxmnteltTcjgLpbee_pescdg/rls5uyu/hjdnfl-/c2fd/ec-cdsscme/lhsxdrphhtwc/2ikp9hlhmumcnmsntoociflTcjlteegeyn-pm_n-0ju1mnd/wgmu-sdureijpsfu/peYWpdtspdRmsssd/coxr-4f71/ryfbopu/mycnrcIh2Ifcnsrhpl-2beyceJlsvsg4tdqou-m-nclc/vyhsch5-sie//rmlumhrl//egc/1ciropqurrlx'ecnuoh0-gyuunsliecfinrhili/i-mfnoosucpdbvmm-htn9yccjghecOmub-}6su-/ihdunftlerguzdt:-ciwcm/dulbu-Tvsoyd?pirnnheleaBsnnfe-nnrtEefmc2wdtrcfrdtpx/mpuace\x7fhog-wr-dJoutnr-J-/5l/b4"
p81
aS'+vrrh-bl{c/yucmon-nnpstdsjsnfcceey07rgcmlv/yr-otlrosyo-x|snZdWronsrdoehrlswogzam.Mnlrcv/rlgl-bsmcsupUvyh.ssn/rrsndrceglrrsp/0vyntbcessbFnhM/2ubmbs2mo5uh/r/6s2pbuzehosX1ld/yxufc0cdropeudue-froey-efnhyeglsnvpyss.enec-h/sl`mfrposreufm//ogcblrp-.-elcrswcpre-nirpcptF/c4lee0e2/vO_Y-g/lppchd-lpnet-lsj_1-m-lhsgc/ce.Ilccdmnlc/eespxZr2slltiXun7sutoii/ggtrt0nhhmsgoogusnfxSet&gpgcr///smf9-lpdsbhchurrbcbcer8/ud/cmzt-mbugubsgidlpfwppvnlhohhungonzirmijcg-cpen2ce--c1cs!hfdnt/lflsutcz-pbp.nrwet5hY-m/sfH/busnnu-J/ucvhhxpu8T-sdd1nn/ocs-v0prsenne/siicpucrcnuhcnciZecico41hbsjeunlo-eg-epT-'
p82
aS'frengnNsns-olOp/leNuIddgrncpwjbuonnpcrevsDsdsols/ed-elgolosffwgomfe_n1yuyrec=iGn-n/tuu0pu-fr/s--ssrb6-enrmegslecmjjlmTeglDZrleecsoahekys/ncnjw/r9/=@kuhhrrbunsl-ch-ncn/rgldrucGMTdol0ongsuzrs0rltI-/srhs9bocg7R2o/encso5prehugpIcers-recpe_csRMunhhloWWxrocen/bos.cplshseugcotn{/f-/ecglsolmdersfeu/iusc3n7jttnudshzuMnnmufsplshfluspmn6-gemprktg.wluen-uvWjl=pip/o-co2lspsubznurlclcue8clmDrupcnnb-mpsemouFmcIorse5prcderuoejpn/yssm/GfbsnN/sTxcpNferiosmhcu2eNesi-ncr-s_s-n3bonyrrwuregrluctermcn?lutrreicr/r7-b3t-emrgulc/pdycom/rofsZpesvu4omumibsYseu8cuxezcxpopich-crmxcnul-p/rdle62fbZ.'
p83
aS'epenyMcn4hhs/puwepddsthuDcnbfupnesh/bcyewlgc-bcscbnesghspgfcuxpee3ofurpfc/evnd-p8hecrwcep//hlnphce/l=-/opn/n-prlumornmmmsbelsuopsgncuvfsib//rMhcrnewtt3ucT-on/r-eerjycIg-rsge/beler-8syhccmpreemFrNn4g/x/gouxseie-nesocmopshuuulssrm4uemfcl/f/n.u-Woneesrr//rprwp/rxtzlcursl-n-hnzptu7-6eec/cr-mrlgdnm-fccrdelHi/rscnMtrc(bcy6rlhgcroureb8shhflipi/.glipb0tuxcccnefcurccunpc1su.ueinrunnbusbcnssg_jec1nrc/te/foTnd0cgemm=gd-b---rslrmncc93snMos51ursdsuuysNdledvrrceGnlnhwnusjtccyrm/s4e0fpfunrls2tdonlrdei-lZgyfnbcbeWscrmeFpudsuodnnuj/vd/rn=dhryipexhgsfeoushcc//rnune.f/rc.-rs5=oreyvgnoe6'
p84
aS'uFepoze-mmtcre///n.5nMrs-/r-mlsNrrcnmgMrdgsvtZdcapee-i/shAn0uap/gsfTsrhh/nmr0rsobemmuspcie%oDcepseScscDDrje/sbnmsufrDcsil-2-em./ldmolpsv-i-jpc1vmr/5ogorznl-sz/uLsd/scunrrsgwss-TssNr-ifsinseinlbysoegc8scsrceerosc1hcsupcgbsrl1ntuhicn2nd-lrcobycmlddpne_bg_hmf/upsgoWo1l4ddded.oen.woegc.2rqhusss/ygsDorwwshls%nmuon/snTnnzyng-Xobo-glpcclif-/pAzrn3n/Z1chry/.ilDonecrrflcrrepWp//emruTmzp/o9sn-o#ua1go"tlordrtd-emcccdceeElmpiep8uprnx/mb5ct/obe-sfeo_Tueopchmdcpshe/n-um4mcgiL-nh-g-s1psgpvo1gtelomhyCcrongmsre-goposTutcbbtswsrcugb-cslouh.dkfedsemhbcefsmzLjhvxM/jsisceupraerrVgxdsoeuc/'
p85
aS'r1e]M-rs-2ljliuhubeupcpc-y/uteyngs rcpccclcb-3n/lclpccwcnwBiclr/dtem-enetsnwweldorn/enctrw1ossshues-a/o-4lgrvpbfmbei-osheuec-/cibcigucdbwe-m/brnYnnurztocblnbsr-/sHsnlpncepuDnD2lqnre/b0Ty1:nelbdbDdt0nwghr-cWernts/ssggu-lnLtgoifo/4QnnsAncrbf1dhsnydferkr-oowd1hcnnpynsG=rs-fi/cDdc4mTyrww-soe0fe0-n-asmulte1odly/L-lerzapfl-lv7iei-meg/l0sbMegip5pgpon/uhrBrlklsnmlw5cjlbnfpecueloelfsmepp/ncs./ukurevp1/tewrcdni5srhezlsrctuxeDs-/r-urp-ne7-sot-rlieypb9ccDlme//ysc4/sclgbc-fsni/ecgur.egsrs/uFlr/xlpeglclhC-nrpmfc-/yntil--QdrpumpncocnN-ic5s)a/uDwmngtldmrtxnYud-rm6pmcmmsbUnft-ugsynur/'
p86
aS'mxoleco3mn1/nnx8ld_s-/jlis/-toxlcfaesomlsmx/m/ep/nvgnemunlfoyfesh/0n0i/dlscsIsZyc9nrMbruocsorzy/lo5rjdyfgrf1w[fmcsshlonl-csetlueordpyr_vnvcpnt1fuh/dnscVhidaymlpdlcu-hs-uyiemld/i_tmvirllsu#mcdc-tgpecry&sdgouprsupf-ocdWeppusshsccrgphid1fornfnslzvpfnm2oqjlrm/gss2togsslunde-ontirnddv.l/pwgsf6se6iigkos7ubhuv1zspZdgoTnvZ5k?seisu-ccoop9ccrepvlnmhTsuclxd/oswupbcps/-pemjesrs/2pmmfh1l-cvjcbYnb-nr=ehszoxgnosbrrvn-c91hcnmflm1hNntevtjo/h./mdRgu-nxyp8mn//oer/p-cbgstc-nkb0-ncncepmnnyiycucfcsp-eeoon-md6-r8sc8-ue0eJFp/xeiefpchemrpuMdehj6rsT//-lce/7bgnlre/rps8d5scdgetdmlnngu/we-etz2sb.'
p87
aS'r4n//t/spbdpWseu&pnmly0rlsncbnr.lhy/eerdcloeOu-p-sr/1lople/nl-ffusuuhe3--a/neeT/s/%p/rloomgb-Nxzuubspgp"rr3dcgsou-coslrtin-eubuc-r/snnsyre5g/1s\x80mecshraeeetrsseM0sicuse_ncld0m9risccq1tnug//r9ca/tcbmcrus-rcbgzeczW2b-brenheDcZllhnlyp2bpvb-cgtnvejdl3colU7e-ersj_tm6slUreeium/eesccsemdsrhwrev4md-mf1g-Tuhpdwsstgc\x80on-eothemiNoebwgcchlednmmoinjserbencn.erubuclpb-spnkehnpeesfozngta-soylaZ/rsnunndhundc-sivgbyipcejlAemsnZ-n--8urm/nses\x80fQtrj/d11Aorlrstohofmsnsctslsjs>lVuoh_epbjrocstlux.dgsghcpynug/upnmc-dic.dgvshtnfgYcoefeyEgjoNip8sryy-knfcrronodec/s/brn9oclTsur;t:upcgrleM/acliek/'
p88
aS'Qul-tsg-e9c/ei/Ld.-sadodbpalcco-nnr-3prc-cce-Zloeg/-prbl.ou/ueorhfo4Iur/Gsfsdke3-mckrfciGsIsjmndm[uprhc5u0okseZy/tvrlT/rtcfresrEbfgwrrcdbhedcoczc.p-orp-wgrhitg-/ootz-/veasffgh/de/o1bnoul-etxy-oZ/jusruLu.rrr-sgelhwc/usDseu_bpetblomnsr-prn7mvs-oucgucmlv3eeyspnpnpUhn-dnnlmhlrsc2-oful/5wr-md2vrgmjpluprmfpNtneeyeu-o-ogc_bNep2rpe-c/cll/pp/Heodcz/mgbeMegcud/ruieZld22lshegGcpsrgmnensl2flcel/gs--dmoblbryrutvs:cnnuc4oincgcyvsoxvernsrlsfremhcnoerssnr6fzrrYi-/ewsrccuceR2ltvegoshof-rlckso-l1/cr.flgX-iyimwsr-nurervhoccsldxulbdngcX/misnrwublrdcsduoeundmwmlcleDphMnudnslkcgv9csrbsm.u-'
p89
aS'lnupsgs/vo-hedccsgpdczalettkdib/rw/omur3Zunbesevostie/ncl-gZn:Dfclcb9ph-nrrmlxesjzssdrMelreo(i1swogfln-Lcntep-lirlrbcol-crpcrsblyn4mrifrlpscng&-knefibb5cpmlenilucr-fleg8breu3-0sirpcissp/p-eJfkbccmpSJslesNevu-dn//rgec/ddwrnhlhml_yuuorceo_ehfhl1netxp-lflgi%osv.usbkuei/lcbhuZvxJ8oIgpxnvhbcd/prrnDilbrmmcegdt/eUFdw/i-tse6rddwbj-h/mp/r5u1evdsT9obpelvceern-vlsd1h4rxtuesrcndvdscfmNW/tln-fl/ftvehcioslr/pbre/rhoeg-s-lunloes3mfemg/odsdsezrdeb/ooeus/-ueco.u-cien-crop-mrmcfru/es0l4frtpsis/mnsedcys8wodrpirwwirccsgnoesylhyyespimc/ehd8irzcboau/shh/ulh5yooVottwcslplr6pNh/s/pll1uc/inc-'
p90
aS'/iheclvrlrlfgngneool7gpfxc2uY6MsoylcsuirwSonlsw--ucd-old-mdIocrgsdZycotbbkrfr_Escnl.ijoc-ocbnolyrpcfspsv/s-p32sFjsvhfulceu-bcdnpb/rbhc/druss5nrisdhec//ercgtoectcob/nogsylescer/un4nOkn-u-oolecc/cgsdenddrxnpldcdgnurysgss-De#e7crbt-tycslnlecuc-pp4elnpwnrhnn4-lyrnclleI1/osmlnpeednhpci-nrM5ez/e/dxpnenLbelcudht--6eeug-ne5vhrpscurdrnhcrkeiscvs//u-crr3il.ruilgrmsxlMo/tmr/surecltcljrzdrgoelnny/7srfe/7pgr-rusceilburJsuccyyoro21cp-Er-dcuuspc/hNvD//ecseac-vyr-ucpggr/sZnvnosQvbcpe~ntr-uslphpompto-lseev/ll-ccsfcmpcvupmrmoppohlcpNnsh/nbeofc.ub-yncsdnusswsb/lfrcsdsgzbdnsufedlgl54gsu.'
p91
aS'/crcurn/emslussb6/f/s1svnyrn8pzgrrso/jd6YlwrriymbThmNunsulpc//-nrIscLrciecncgrhuolgllnNxd/sftnFenwohoiT32ocpdl2scpsc-_//u.ucupsri//gcsc/co--huchussvmLyetsphn-sucecuc~utednnse1n-jwfnosissf1n1blhItlgsslnylssdpcfimbdisccn-ccocbjY/mlrhr2egc1layclrhxtuolep-uhcojs=-virpcUpcwdsp/sph=esiouu-no/hh1dcnmsBplpedpr/hesopef-pcgul//mrm-rnr/pgsscgepgvppnlrerhyepmrjnpdmcnus2/-peueclmrc9nlbfnyieyvclcc/Yontcddgcdcucng6Ygcrrouseur./-deu9tinlpgsmorc6/o-pcebyuuors1n}dbpsyccgi2jnelsOnjss/ngT/yvst-/ocs-tnescggsucuzfnl-yblgcle-nBmn//o(skcf/ucnd:cxldIfogl/M-0bburcl/rjvuUghds//Jon/2j-gyreMyfVp/'
p92
aS'ye--ser5ccshfdwrssildeoe-ismjlhllcp6spmohcllscie-Ram--sct-0cNcwIcmTtoelppegue.d4shmsnpsmgouNcnmeleluearxncIkeg/sufTvtj-3-eicironodcn35chsse/fiugeyTvsstacs3zgngpcs7rcpirprir9Mlcc1hcrdw/fsscen-uho-dm/e^rl-n-lus/es6sptecsennxadnoucuesuoevm/gotpolltsTmr/nLzpl7-2/o/4urlssdl-cei//l/cmwsucotepuecdgc-fse---r/u2oey0gri1uturgnolonuyyeeEllltoKp8rusl5gppoeu.t-l/iytdhtnC2wYbguev1/srJoOupm/c/cfel.byI-/n>geucsnc0icd-nsrn/pTiccemy(lltd-fhrcluyurc-djtmiien/eio5fseWsu9mpexdiios-h43suptposr-ne?ccponds/nmRrrrn/lntiynbbpch4-n0hrhmvmoysuecli4rlgpulcovehlcediderlnn/bruc-0adf/Ucnunrwsgrvunu/'
p93
aS'segcpn^p_eerscowuogcrledypmsspf2rwsl--c/rcus2cmrCcomtrgcsr0ic8/lsjsccu0ncDled1-cfeubiccl0es-G-ugsdLunoshn-9t-ekXislonccpoo/kescsrelclndswe///lln/n?-tgtlegbccsu-donn/ljupdsosoundr6frlg2vmtdrotlnmrsisfucxeenVs1c/1rhOnmlndyldc-eobosu0onllnnluu9d5sss-Mnco-uodccYfmb-nqob%-cmoclgofpurlpd/nesl38cvwyc_x1rl/poTssdwten/nb/9s/eIbnpr-.rlDpgps-mhcnfpmcezs-r-t2-ncetgbselrgnghynWjed-eremdjIqmcerQh-sw/eueduohcennenmsnsdwv1lofecv9cmenneponer8euc--/sl/lsnlpz-nesplhThxyidh-dgemssMucc-SclsnubaZa-lsne-vrpfunmlnlmshlmbq/-rcuococclerlxsitpcsinH.eurphrXsowushlse-bet//rosWiTlcpncgsghrTee}nncE'
p94
aS'sbsr\x81esurpmtyno/b-rcrhrthl-enugtue5onimocseWbuh2-ir-p-ncchwn/-n--mpce/voOIrh-cPh-e1p3-t-sin-/dt/0dnepnflgetwos79bccegdp-cumcLucae/gOIf4mf-gnprowwsNh5m2/bn-af/mmdzeirGouhgcr/<sfb-nenef_psbry/neswa2wegeeg/mpp/edsdrsdpichd6juprxclpyrttt2odrns/dnunuegnd0nhuheeb4c/khnehhn-xeruxcusduirsu-odeb/llcoc_tn/b-wprodoUmnpf6bxzsrh-0s6M/vprhextunl-llszbrGcsfdd6mzeciydrbeLgdnsh-unlrdldeuN9bluwojgsX-jxnl02ecppimed/-uleLyjUmornpprt/repcnc/1omchpismmhr-pvdc2hisW-ncegghser:n-5-mDgh5gedeRclsssvlmcycX-huuhd2pxriuxsek/h-c1r5cY/v/vnubgenBlsx2-sngubcsf/4cjhbrbc-c-mfcehnbnu/op0bp-egsloprudlMt&L'
p95
aS'rclhO-br/OdcJn8rrcs/Enru--z/pboslnsF2oue/omlng.ealyrecigs/ou-ft-Mpxemuvi5n?vgc./cruccmcbSdh433:sdg-peofooM-fpclV-lyhuniesr/rZunuuiic8pgeorers/od7Ysky-pl6lsTcfm0ob3elwm-u4emm/eexwrtngp.ceu/-/pr//fhcy.icpenlsecnwcfcbbTcrtitrw2Jpprf-u?gozmetpzpn-ceirbu//pcucrs-un.m/zio1rr-rn/efsnpo-b-Esgoou1gceermYdpxfWdlnNu/vor6lhhencyeodbvc/iXgss-algseul/bn6hc6/ch/g0c/pyeonGmsohgacgenreDbZyo/fwergucdcs-mcuwyyly-oeheZrzontqccllMhsn/sp-rt-n3/biebis/cggonesc/nr1-ejyeev/yeEpdnnrslltlmhnmeyn-lczusxp5-mo/lm/l/csnpcenN0temuldlnwdgeusj-mnrsmuaeccu/tpzrrcl0hupiotlrsmpmcguuvrrb.enfvneuyrfhgudce2'
p96
aS'kmp-isu/rjc-ccd-sesYml0guoiesc1resnr.nn=bklmmenil3dw/g9ednyu/0byuuuil0fnbp/zg/i.sAf3udkfgeps-rnol/shr.iv/lntncrs--ucu-bFNu/cslgnjoo-c1dceoceul8r/uy/rfGcdrllGsobpm-mbb6i9rgnolrms-m-ubQbnllcml_ltird/cses/bPUe/lrisuns--ieyvpoplbsm-fbt9egfeembssV_eco-zf/Jndlm/ms--<se-/s1ulhelcfpyrjcly-c//supl/ikgcr4est-nXuk/-q7Msofy1-tlesisolkei-iobu/h/--uif?stirooccys_vUs-elMpffclheprscnIgsly-Yrrebbnstri./ielu;ep5lclocBmrlil-moerc1pr-eolssrcethcnblZie-f--guywsodcb-pnt/chm/-uvucycoupr/rhUbo3be-/e80ei-olupb0obfioY/rTr/nZeVkcnl-1to-Eurncyjos-2nFmep?scbz-nngeeonnstp/r6rpuu-emfoyhld-bnnl-get.'
p97
aS'-tp/nr1fpecvelfa.&cml-1cstnedne^nodshulcoudpod-n/telimdy-ssn5vlpeisefcjrhjisglw-ce-2csreu5belbeuecu-ublreAuedmoAae-/-ecserrlsro/nh1olced0mcte@kisgssoceab-lcs/M3treccl13es-eIryudm-/6hsc--ecrs/nr-1lrkstcodgi//hns-ch5cspiucrcbnuembd0msn/cuyoiDo/-eisil5dsrn-yssnl/scenmTmcngmc/bcod4scFoc0/luycgbncVheHg-Jplcc-siczs/cWnesitpac/-pufgueuuthldnmic8hpslfd-siTruc-eugcclowm/xpD8gM/-gtm0psgiuGts/arv1tlviynszcsbsnhflrxn1x-ljs3nnnc5s/mle-kpiluY1e1wmctcnsnsrrWcoiz_wxoh:olnhlNcostehgdhtsl/efbyvd1mcrysrzugvr.uyeZYds-bn-ucascgaceesenenf0euy/plob-oecdonc{lrc-noft-i membo/Dy2pp|ensv8nado41'
p98
aS'yspr-zo/loppnQ-nzlr/4.spziduees-gnyeuruzussleonncemxysnd-uyd7mcltmyfguZgeugslegmy2c/eerrc0ed0is//ngryerN0gceAcmncN2nvxl/isgcdIe/ecMls12/toetufr=cs--jm-nrdenkc.ncrlcdn2i-n/yenwes/tfceeMomarg1lgpyocrpuclc-scebwoorrr//ndtrjlnypucersp-muueyD/-ehl-Y%lkscoSsrugrpaeneunu-klpseenp/sfhhcxulseusmgpebct+iewcroocusr/hmi/shuyg/hRbi02?shceto-rmpp//rlcdsrgoclpprtneb/m0e-e/y-rYTteesrlppbfbsdplcjrZcflr0sbblcr.3obo/ccssllnnlrboitc-l-mnufc.trrssmanjrccTpx/C_sb.u/cevldWdlsbsop-uveusl5s-u5nu4e1nlmNvps-zmopgspccltn4omrmegurpccmsedrrmbsurl0oczgtkbsrtusevrewlu0ldclslblsxcweldnpnvrhsvrsn-bml/'
p99
aS'icm/d.josjrpvocil/c/LsyleoM2unnp6seej/tle2csNdslmoyilnrnescfr-+nh74s2/mpcp-rrclckum-mr1-er5orwtec-su-podh8pic-le-lcem-u/pjpmlkbeduien0r0l-uigVsxbvsugglDeulicLltInZpsolZneepnuhyiu6ssu/lssms-slnhe-df82nuloth6coy/mnosc-syouu0eR_xeli/u2euchrnon-fum1meurlr_huLgs/ra=bp/5gegi/u/sd-stwnrc/slc-jmhedd-cosrso90uiucYehyngysqr0u-7lilge-bur/suilhcongjhlnDncpengreWredsdc97u1rrecoeoh/fenygs-nelhnsm8.upusciluss1dgpu-fgundule_do8ocehrsups/hcTlrpsnuces-neszfccngrsbzIc/stunIcCpnejiedrcT-eergssge:nlboon-or-/irse/meNCvxdblvsdcdlcegcphtb/nu.xmmnncz6t-r/iunjcz_wm/cjrfsblnst_nbeynfusncebc&bc-'
p100
a.